
sw/build/main.elf:     file format elf32-littleriscv


Disassembly of section .vectors:

00000000 <__vector_start>:
   0:	0bc0506f          	j	50bc <handler_exception>
   4:	22c0006f          	j	230 <__no_irq_handler>
   8:	2280006f          	j	230 <__no_irq_handler>
   c:	1740506f          	j	5180 <handler_irq_software>
  10:	2200006f          	j	230 <__no_irq_handler>
  14:	21c0006f          	j	230 <__no_irq_handler>
  18:	2180006f          	j	230 <__no_irq_handler>
  1c:	1b80506f          	j	51d4 <handler_irq_timer>
  20:	2100006f          	j	230 <__no_irq_handler>
  24:	20c0006f          	j	230 <__no_irq_handler>
  28:	2080006f          	j	230 <__no_irq_handler>
  2c:	7dd0406f          	j	5008 <handler_irq_external>
  30:	2000006f          	j	230 <__no_irq_handler>
  34:	1fc0006f          	j	230 <__no_irq_handler>
  38:	1f80006f          	j	230 <__no_irq_handler>
  3c:	1f40006f          	j	230 <__no_irq_handler>
  40:	73c0406f          	j	477c <handler_irq_fast_timer_1>
  44:	7d40406f          	j	4818 <handler_irq_fast_timer_2>
  48:	06d0406f          	j	48b4 <handler_irq_fast_timer_3>
  4c:	1050406f          	j	4950 <handler_irq_fast_dma_done>
  50:	4b80506f          	j	5508 <handler_irq_fast_spi>
  54:	3580506f          	j	53ac <handler_irq_fast_spi_flash>
  58:	2cd0406f          	j	4b24 <handler_irq_fast_gpio_0>
  5c:	3650406f          	j	4bc0 <handler_irq_fast_gpio_1>
  60:	3fd0406f          	j	4c5c <handler_irq_fast_gpio_2>
  64:	4950406f          	j	4cf8 <handler_irq_fast_gpio_3>
  68:	52d0406f          	j	4d94 <handler_irq_fast_gpio_4>
  6c:	5c50406f          	j	4e30 <handler_irq_fast_gpio_5>
  70:	6610406f          	j	4ed0 <handler_irq_fast_gpio_6>
  74:	6f90406f          	j	4f6c <handler_irq_fast_gpio_7>
  78:	1750406f          	j	49ec <handler_irq_fast_dma_window>
  7c:	20d0406f          	j	4a88 <handler_irq_fast_external_peripheral>

Disassembly of section .init:

00000180 <_start>:
 180:	00022197          	auipc	gp,0x22
 184:	9c018193          	addi	gp,gp,-1600 # 21b40 <__global_pointer$>
 188:	00029117          	auipc	sp,0x29
 18c:	57810113          	addi	sp,sp,1400 # 29700 <_sp>
 190:	20000537          	lui	a0,0x20000
 194:	05f5e637          	lui	a2,0x5f5e
 198:	10060613          	addi	a2,a2,256 # 5f5e100 <_sp+0x5f34a00>
 19c:	00c52e23          	sw	a2,28(a0) # 2000001c <_sp+0x1ffd691c>

000001a0 <_init_bss>:
 1a0:	00021517          	auipc	a0,0x21
 1a4:	30850513          	addi	a0,a0,776 # 214a8 <__stdio_exit_handler>
 1a8:	00021617          	auipc	a2,0x21
 1ac:	55460613          	addi	a2,a2,1364 # 216fc <__BSS_END__>
 1b0:	40a60633          	sub	a2,a2,a0
 1b4:	00000593          	li	a1,0
 1b8:	121050ef          	jal	5ad8 <memset>
 1bc:	00000517          	auipc	a0,0x0
 1c0:	e4450513          	addi	a0,a0,-444 # 0 <__vector_start>
 1c4:	00156513          	ori	a0,a0,1
 1c8:	30551073          	csrw	mtvec,a0
 1cc:	00006517          	auipc	a0,0x6
 1d0:	8b450513          	addi	a0,a0,-1868 # 5a80 <__libc_fini_array>
 1d4:	3d0050ef          	jal	55a4 <atexit>
 1d8:	015050ef          	jal	59ec <__libc_init_array>
 1dc:	00012503          	lw	a0,0(sp)
 1e0:	00410593          	addi	a1,sp,4
 1e4:	00000613          	li	a2,0
 1e8:	7100a0ef          	jal	a8f8 <main>
 1ec:	00c0006f          	j	1f8 <exit>

000001f0 <_init>:
 1f0:	038050ef          	jal	5228 <init>

000001f4 <_fini>:
 1f4:	00008067          	ret

Disassembly of section .text:

000001f8 <exit>:
     1f8:	ff010113          	addi	sp,sp,-16
     1fc:	000067b7          	lui	a5,0x6
     200:	00812423          	sw	s0,8(sp)
     204:	00112623          	sw	ra,12(sp)
     208:	b8878793          	addi	a5,a5,-1144 # 5b88 <__call_exitprocs>
     20c:	00050413          	mv	s0,a0
     210:	00078663          	beqz	a5,21c <exit+0x24>
     214:	00000593          	li	a1,0
     218:	171050ef          	jal	5b88 <__call_exitprocs>
     21c:	9681a783          	lw	a5,-1688(gp) # 214a8 <__stdio_exit_handler>
     220:	00078463          	beqz	a5,228 <exit+0x30>
     224:	000780e7          	jalr	a5
     228:	00040513          	mv	a0,s0
     22c:	00c050ef          	jal	5238 <_exit>

00000230 <__no_irq_handler>:
     230:	0000006f          	j	230 <__no_irq_handler>

00000234 <fic_irq_dma_window>:
     234:	fe010113          	addi	sp,sp,-32
     238:	00112e23          	sw	ra,28(sp)
     23c:	00812c23          	sw	s0,24(sp)
     240:	02010413          	addi	s0,sp,32
     244:	fe042623          	sw	zero,-20(s0)
     248:	04c0006f          	j	294 <fic_irq_dma_window+0x60>
     24c:	98c18693          	addi	a3,gp,-1652 # 214cc <dma_subsys_per>
     250:	fec42703          	lw	a4,-20(s0)
     254:	00070793          	mv	a5,a4
     258:	00179793          	slli	a5,a5,0x1
     25c:	00e787b3          	add	a5,a5,a4
     260:	00279793          	slli	a5,a5,0x2
     264:	00f687b3          	add	a5,a3,a5
     268:	0087a783          	lw	a5,8(a5)
     26c:	0687a703          	lw	a4,104(a5)
     270:	00100793          	li	a5,1
     274:	00f71a63          	bne	a4,a5,288 <fic_irq_dma_window+0x54>
     278:	fec42783          	lw	a5,-20(s0)
     27c:	0ff7f793          	zext.b	a5,a5
     280:	00078513          	mv	a0,a5
     284:	100000ef          	jal	384 <dma_intr_handler_window_done>
     288:	fec42783          	lw	a5,-20(s0)
     28c:	00178793          	addi	a5,a5,1
     290:	fef42623          	sw	a5,-20(s0)
     294:	fec42703          	lw	a4,-20(s0)
     298:	00300793          	li	a5,3
     29c:	fae7d8e3          	bge	a5,a4,24c <fic_irq_dma_window+0x18>
     2a0:	00000013          	nop
     2a4:	01c12083          	lw	ra,28(sp)
     2a8:	01812403          	lw	s0,24(sp)
     2ac:	02010113          	addi	sp,sp,32
     2b0:	00008067          	ret

000002b4 <fic_irq_dma_done>:
     2b4:	fe010113          	addi	sp,sp,-32
     2b8:	00112e23          	sw	ra,28(sp)
     2bc:	00812c23          	sw	s0,24(sp)
     2c0:	02010413          	addi	s0,sp,32
     2c4:	fe042623          	sw	zero,-20(s0)
     2c8:	0700006f          	j	338 <fic_irq_dma_done+0x84>
     2cc:	98c18693          	addi	a3,gp,-1652 # 214cc <dma_subsys_per>
     2d0:	fec42703          	lw	a4,-20(s0)
     2d4:	00070793          	mv	a5,a4
     2d8:	00179793          	slli	a5,a5,0x1
     2dc:	00e787b3          	add	a5,a5,a4
     2e0:	00279793          	slli	a5,a5,0x2
     2e4:	00f687b3          	add	a5,a3,a5
     2e8:	0087a783          	lw	a5,8(a5)
     2ec:	0647a703          	lw	a4,100(a5)
     2f0:	00100793          	li	a5,1
     2f4:	02f71c63          	bne	a4,a5,32c <fic_irq_dma_done+0x78>
     2f8:	98c18693          	addi	a3,gp,-1652 # 214cc <dma_subsys_per>
     2fc:	fec42703          	lw	a4,-20(s0)
     300:	00070793          	mv	a5,a4
     304:	00179793          	slli	a5,a5,0x1
     308:	00e787b3          	add	a5,a5,a4
     30c:	00279793          	slli	a5,a5,0x2
     310:	00f687b3          	add	a5,a3,a5
     314:	00100713          	li	a4,1
     318:	00e78223          	sb	a4,4(a5)
     31c:	fec42783          	lw	a5,-20(s0)
     320:	0ff7f793          	zext.b	a5,a5
     324:	00078513          	mv	a0,a5
     328:	030000ef          	jal	358 <dma_intr_handler_trans_done>
     32c:	fec42783          	lw	a5,-20(s0)
     330:	00178793          	addi	a5,a5,1
     334:	fef42623          	sw	a5,-20(s0)
     338:	fec42703          	lw	a4,-20(s0)
     33c:	00300793          	li	a5,3
     340:	f8e7d6e3          	bge	a5,a4,2cc <fic_irq_dma_done+0x18>
     344:	00000013          	nop
     348:	01c12083          	lw	ra,28(sp)
     34c:	01812403          	lw	s0,24(sp)
     350:	02010113          	addi	sp,sp,32
     354:	00008067          	ret

00000358 <dma_intr_handler_trans_done>:
     358:	fe010113          	addi	sp,sp,-32
     35c:	00112e23          	sw	ra,28(sp)
     360:	00812c23          	sw	s0,24(sp)
     364:	02010413          	addi	s0,sp,32
     368:	00050793          	mv	a5,a0
     36c:	fef407a3          	sb	a5,-17(s0)
     370:	00000013          	nop
     374:	01c12083          	lw	ra,28(sp)
     378:	01812403          	lw	s0,24(sp)
     37c:	02010113          	addi	sp,sp,32
     380:	00008067          	ret

00000384 <dma_intr_handler_window_done>:
     384:	fe010113          	addi	sp,sp,-32
     388:	00112e23          	sw	ra,28(sp)
     38c:	00812c23          	sw	s0,24(sp)
     390:	02010413          	addi	s0,sp,32
     394:	00050793          	mv	a5,a0
     398:	fef407a3          	sb	a5,-17(s0)
     39c:	00000013          	nop
     3a0:	01c12083          	lw	ra,28(sp)
     3a4:	01812403          	lw	s0,24(sp)
     3a8:	02010113          	addi	sp,sp,32
     3ac:	00008067          	ret

000003b0 <fic_irq_timer_1>:
     3b0:	ff010113          	addi	sp,sp,-16
     3b4:	00112623          	sw	ra,12(sp)
     3b8:	00812423          	sw	s0,8(sp)
     3bc:	01010413          	addi	s0,sp,16
     3c0:	00000013          	nop
     3c4:	00c12083          	lw	ra,12(sp)
     3c8:	00812403          	lw	s0,8(sp)
     3cc:	01010113          	addi	sp,sp,16
     3d0:	00008067          	ret

000003d4 <fic_irq_timer_2>:
     3d4:	ff010113          	addi	sp,sp,-16
     3d8:	00112623          	sw	ra,12(sp)
     3dc:	00812423          	sw	s0,8(sp)
     3e0:	01010413          	addi	s0,sp,16
     3e4:	00000013          	nop
     3e8:	00c12083          	lw	ra,12(sp)
     3ec:	00812403          	lw	s0,8(sp)
     3f0:	01010113          	addi	sp,sp,16
     3f4:	00008067          	ret

000003f8 <fic_irq_timer_3>:
     3f8:	ff010113          	addi	sp,sp,-16
     3fc:	00112623          	sw	ra,12(sp)
     400:	00812423          	sw	s0,8(sp)
     404:	01010413          	addi	s0,sp,16
     408:	00000013          	nop
     40c:	00c12083          	lw	ra,12(sp)
     410:	00812403          	lw	s0,8(sp)
     414:	01010113          	addi	sp,sp,16
     418:	00008067          	ret

0000041c <fic_irq_ext_peripheral>:
     41c:	ff010113          	addi	sp,sp,-16
     420:	00112623          	sw	ra,12(sp)
     424:	00812423          	sw	s0,8(sp)
     428:	01010413          	addi	s0,sp,16
     42c:	00000013          	nop
     430:	00c12083          	lw	ra,12(sp)
     434:	00812403          	lw	s0,8(sp)
     438:	01010113          	addi	sp,sp,16
     43c:	00008067          	ret

00000440 <fic_irq_gpio_0>:
     440:	ff010113          	addi	sp,sp,-16
     444:	00112623          	sw	ra,12(sp)
     448:	00812423          	sw	s0,8(sp)
     44c:	01010413          	addi	s0,sp,16
     450:	00000013          	nop
     454:	00c12083          	lw	ra,12(sp)
     458:	00812403          	lw	s0,8(sp)
     45c:	01010113          	addi	sp,sp,16
     460:	00008067          	ret

00000464 <fic_irq_gpio_1>:
     464:	ff010113          	addi	sp,sp,-16
     468:	00112623          	sw	ra,12(sp)
     46c:	00812423          	sw	s0,8(sp)
     470:	01010413          	addi	s0,sp,16
     474:	00000013          	nop
     478:	00c12083          	lw	ra,12(sp)
     47c:	00812403          	lw	s0,8(sp)
     480:	01010113          	addi	sp,sp,16
     484:	00008067          	ret

00000488 <fic_irq_gpio_2>:
     488:	ff010113          	addi	sp,sp,-16
     48c:	00112623          	sw	ra,12(sp)
     490:	00812423          	sw	s0,8(sp)
     494:	01010413          	addi	s0,sp,16
     498:	00000013          	nop
     49c:	00c12083          	lw	ra,12(sp)
     4a0:	00812403          	lw	s0,8(sp)
     4a4:	01010113          	addi	sp,sp,16
     4a8:	00008067          	ret

000004ac <fic_irq_gpio_3>:
     4ac:	ff010113          	addi	sp,sp,-16
     4b0:	00112623          	sw	ra,12(sp)
     4b4:	00812423          	sw	s0,8(sp)
     4b8:	01010413          	addi	s0,sp,16
     4bc:	00000013          	nop
     4c0:	00c12083          	lw	ra,12(sp)
     4c4:	00812403          	lw	s0,8(sp)
     4c8:	01010113          	addi	sp,sp,16
     4cc:	00008067          	ret

000004d0 <fic_irq_gpio_4>:
     4d0:	ff010113          	addi	sp,sp,-16
     4d4:	00112623          	sw	ra,12(sp)
     4d8:	00812423          	sw	s0,8(sp)
     4dc:	01010413          	addi	s0,sp,16
     4e0:	00000013          	nop
     4e4:	00c12083          	lw	ra,12(sp)
     4e8:	00812403          	lw	s0,8(sp)
     4ec:	01010113          	addi	sp,sp,16
     4f0:	00008067          	ret

000004f4 <fic_irq_gpio_5>:
     4f4:	ff010113          	addi	sp,sp,-16
     4f8:	00112623          	sw	ra,12(sp)
     4fc:	00812423          	sw	s0,8(sp)
     500:	01010413          	addi	s0,sp,16
     504:	00000013          	nop
     508:	00c12083          	lw	ra,12(sp)
     50c:	00812403          	lw	s0,8(sp)
     510:	01010113          	addi	sp,sp,16
     514:	00008067          	ret

00000518 <fic_irq_gpio_6>:
     518:	ff010113          	addi	sp,sp,-16
     51c:	00112623          	sw	ra,12(sp)
     520:	00812423          	sw	s0,8(sp)
     524:	01010413          	addi	s0,sp,16
     528:	00000013          	nop
     52c:	00c12083          	lw	ra,12(sp)
     530:	00812403          	lw	s0,8(sp)
     534:	01010113          	addi	sp,sp,16
     538:	00008067          	ret

0000053c <fic_irq_gpio_7>:
     53c:	ff010113          	addi	sp,sp,-16
     540:	00112623          	sw	ra,12(sp)
     544:	00812423          	sw	s0,8(sp)
     548:	01010413          	addi	s0,sp,16
     54c:	00000013          	nop
     550:	00c12083          	lw	ra,12(sp)
     554:	00812403          	lw	s0,8(sp)
     558:	01010113          	addi	sp,sp,16
     55c:	00008067          	ret

00000560 <spi_get_events>:
     560:	ff010113          	addi	sp,sp,-16
     564:	01452783          	lw	a5,20(a0)
     568:	00f12623          	sw	a5,12(sp)
     56c:	00c12683          	lw	a3,12(sp)
     570:	0196d693          	srli	a3,a3,0x19
     574:	0016f693          	andi	a3,a3,1
     578:	0005a783          	lw	a5,0(a1)
     57c:	00c12703          	lw	a4,12(sp)
     580:	01b75713          	srli	a4,a4,0x1b
     584:	ffc7f793          	andi	a5,a5,-4
     588:	00d7e7b3          	or	a5,a5,a3
     58c:	00c12683          	lw	a3,12(sp)
     590:	0126d693          	srli	a3,a3,0x12
     594:	00277713          	andi	a4,a4,2
     598:	00f76733          	or	a4,a4,a5
     59c:	00c12783          	lw	a5,12(sp)
     5a0:	0177d793          	srli	a5,a5,0x17
     5a4:	0046f693          	andi	a3,a3,4
     5a8:	ff377713          	andi	a4,a4,-13
     5ac:	00d76733          	or	a4,a4,a3
     5b0:	00c12683          	lw	a3,12(sp)
     5b4:	01f6d693          	srli	a3,a3,0x1f
     5b8:	0087f793          	andi	a5,a5,8
     5bc:	00e7e7b3          	or	a5,a5,a4
     5c0:	00c12703          	lw	a4,12(sp)
     5c4:	01975713          	srli	a4,a4,0x19
     5c8:	00469693          	slli	a3,a3,0x4
     5cc:	fcf7f793          	andi	a5,a5,-49
     5d0:	00d7e7b3          	or	a5,a5,a3
     5d4:	02077713          	andi	a4,a4,32
     5d8:	02074713          	xori	a4,a4,32
     5dc:	00f767b3          	or	a5,a4,a5
     5e0:	00f5a023          	sw	a5,0(a1)
     5e4:	00000513          	li	a0,0
     5e8:	01010113          	addi	sp,sp,16
     5ec:	00008067          	ret

000005f0 <_write>:
     5f0:	00100793          	li	a5,1
     5f4:	08f51063          	bne	a0,a5,674 <_write+0x84>
     5f8:	200007b7          	lui	a5,0x20000
     5fc:	01c7a783          	lw	a5,28(a5) # 2000001c <_sp+0x1ffd691c>
     600:	08078263          	beqz	a5,684 <_write+0x94>
     604:	300807b7          	lui	a5,0x30080
     608:	0007a623          	sw	zero,12(a5) # 3008000c <_sp+0x3005690c>
     60c:	00300713          	li	a4,3
     610:	00e7ae23          	sw	a4,28(a5)
     614:	0207a223          	sw	zero,36(a5)
     618:	0207a623          	sw	zero,44(a5)
     61c:	0007a223          	sw	zero,4(a5)
     620:	fff00713          	li	a4,-1
     624:	00e7a023          	sw	a4,0(a5)
     628:	0a7c0737          	lui	a4,0xa7c0
     62c:	00370713          	addi	a4,a4,3 # a7c0003 <_sp+0xa796903>
     630:	00e7a623          	sw	a4,12(a5)
     634:	0007a223          	sw	zero,4(a5)
     638:	02060a63          	beqz	a2,66c <_write+0x7c>
     63c:	00c58833          	add	a6,a1,a2
     640:	00078713          	mv	a4,a5
     644:	0005c683          	lbu	a3,0(a1)
     648:	01072783          	lw	a5,16(a4)
     64c:	0017f793          	andi	a5,a5,1
     650:	fe079ce3          	bnez	a5,648 <_write+0x58>
     654:	00d72c23          	sw	a3,24(a4)
     658:	01072783          	lw	a5,16(a4)
     65c:	0087f793          	andi	a5,a5,8
     660:	fe078ce3          	beqz	a5,658 <_write+0x68>
     664:	00158593          	addi	a1,a1,1
     668:	fd059ee3          	bne	a1,a6,644 <_write+0x54>
     66c:	00060513          	mv	a0,a2
     670:	00008067          	ret
     674:	05800713          	li	a4,88
     678:	96e1a623          	sw	a4,-1684(gp) # 214ac <errno>
     67c:	fff00613          	li	a2,-1
     680:	fedff06f          	j	66c <_write+0x7c>
     684:	05800713          	li	a4,88
     688:	96e1a623          	sw	a4,-1684(gp) # 214ac <errno>
     68c:	ff1ff06f          	j	67c <_write+0x8c>

00000690 <spi_empty_rx>:
     690:	02452783          	lw	a5,36(a0)
     694:	00078863          	beqz	a5,6a4 <spi_empty_rx+0x14>
     698:	03452783          	lw	a5,52(a0)
     69c:	02852703          	lw	a4,40(a0)
     6a0:	02e7e863          	bltu	a5,a4,6d0 <spi_empty_rx+0x40>
     6a4:	00000513          	li	a0,0
     6a8:	00008067          	ret
     6ac:	0286a703          	lw	a4,40(a3)
     6b0:	02452683          	lw	a3,36(a0)
     6b4:	20d7c7b3          	sh2add	a5,a5,a3
     6b8:	00e7a023          	sw	a4,0(a5)
     6bc:	03452783          	lw	a5,52(a0)
     6c0:	00178793          	addi	a5,a5,1
     6c4:	02f52a23          	sw	a5,52(a0)
     6c8:	02852703          	lw	a4,40(a0)
     6cc:	00e7fe63          	bgeu	a5,a4,6e8 <spi_empty_rx+0x58>
     6d0:	00052683          	lw	a3,0(a0)
     6d4:	00068a63          	beqz	a3,6e8 <spi_empty_rx+0x58>
     6d8:	0146a703          	lw	a4,20(a3)
     6dc:	00875713          	srli	a4,a4,0x8
     6e0:	0ff77713          	zext.b	a4,a4
     6e4:	fc0714e3          	bnez	a4,6ac <spi_empty_rx+0x1c>
     6e8:	00100513          	li	a0,1
     6ec:	00008067          	ret

000006f0 <spi_event_handler>:
     6f0:	ff010113          	addi	sp,sp,-16
     6f4:	00112623          	sw	ra,12(sp)
     6f8:	00912423          	sw	s1,8(sp)
     6fc:	01212223          	sw	s2,4(sp)
     700:	00050493          	mv	s1,a0
     704:	00058913          	mv	s2,a1
     708:	0105f793          	andi	a5,a1,16
     70c:	02078063          	beqz	a5,72c <spi_event_handler+0x3c>
     710:	01452703          	lw	a4,20(a0)
     714:	00070863          	beqz	a4,724 <spi_event_handler+0x34>
     718:	02c52683          	lw	a3,44(a0)
     71c:	01854783          	lbu	a5,24(a0)
     720:	02f6e863          	bltu	a3,a5,750 <spi_event_handler+0x60>
     724:	02097793          	andi	a5,s2,32
     728:	0a079e63          	bnez	a5,7e4 <spi_event_handler+0xf4>
     72c:	00897793          	andi	a5,s2,8
     730:	14079063          	bnez	a5,870 <spi_event_handler+0x180>
     734:	00497913          	andi	s2,s2,4
     738:	1a091663          	bnez	s2,8e4 <spi_event_handler+0x1f4>
     73c:	00c12083          	lw	ra,12(sp)
     740:	00812483          	lw	s1,8(sp)
     744:	00412903          	lw	s2,4(sp)
     748:	01010113          	addi	sp,sp,16
     74c:	00008067          	ret
     750:	20e6c733          	sh2add	a4,a3,a4
     754:	00072703          	lw	a4,0(a4)
     758:	00871613          	slli	a2,a4,0x8
     75c:	00865593          	srli	a1,a2,0x8
     760:	01875713          	srli	a4,a4,0x18
     764:	00f77613          	andi	a2,a4,15
     768:	00168693          	addi	a3,a3,1
     76c:	02d52623          	sw	a3,44(a0)
     770:	00052503          	lw	a0,0(a0)
     774:	fa050ce3          	beqz	a0,72c <spi_event_handler+0x3c>
     778:	00265713          	srli	a4,a2,0x2
     77c:	01971713          	slli	a4,a4,0x19
     780:	00367613          	andi	a2,a2,3
     784:	01b61613          	slli	a2,a2,0x1b
     788:	00c76733          	or	a4,a4,a2
     78c:	40d787b3          	sub	a5,a5,a3
     790:	00f037b3          	snez	a5,a5
     794:	01879793          	slli	a5,a5,0x18
     798:	00f767b3          	or	a5,a4,a5
     79c:	fff58613          	addi	a2,a1,-1
     7a0:	00861613          	slli	a2,a2,0x8
     7a4:	00865613          	srli	a2,a2,0x8
     7a8:	00c7e633          	or	a2,a5,a2
     7ac:	0197d793          	srli	a5,a5,0x19
     7b0:	0037f793          	andi	a5,a5,3
     7b4:	00200713          	li	a4,2
     7b8:	14f76c63          	bltu	a4,a5,910 <spi_event_handler+0x220>
     7bc:	01452703          	lw	a4,20(a0)
     7c0:	f60756e3          	bgez	a4,72c <spi_event_handler+0x3c>
     7c4:	01b65713          	srli	a4,a2,0x1b
     7c8:	ffd70713          	addi	a4,a4,-3
     7cc:	00173713          	seqz	a4,a4
     7d0:	00f037b3          	snez	a5,a5
     7d4:	00f777b3          	and	a5,a4,a5
     7d8:	f4079ae3          	bnez	a5,72c <spi_event_handler+0x3c>
     7dc:	02c52223          	sw	a2,36(a0)
     7e0:	f4dff06f          	j	72c <spi_event_handler+0x3c>
     7e4:	0004a783          	lw	a5,0(s1)
     7e8:	02078263          	beqz	a5,80c <spi_event_handler+0x11c>
     7ec:	0387a703          	lw	a4,56(a5)
     7f0:	fc077713          	andi	a4,a4,-64
     7f4:	02e7ac23          	sw	a4,56(a5)
     7f8:	0004a783          	lw	a5,0(s1)
     7fc:	00078863          	beqz	a5,80c <spi_event_handler+0x11c>
     800:	0047a703          	lw	a4,4(a5)
     804:	ffd77713          	andi	a4,a4,-3
     808:	00e7a223          	sw	a4,4(a5)
     80c:	00048513          	mv	a0,s1
     810:	e81ff0ef          	jal	690 <spi_empty_rx>
     814:	00400793          	li	a5,4
     818:	00f4a823          	sw	a5,16(s1)
     81c:	0384a783          	lw	a5,56(s1)
     820:	00078c63          	beqz	a5,838 <spi_event_handler+0x148>
     824:	0344a683          	lw	a3,52(s1)
     828:	0244a603          	lw	a2,36(s1)
     82c:	0304a583          	lw	a1,48(s1)
     830:	01c4a503          	lw	a0,28(s1)
     834:	000780e7          	jalr	a5
     838:	0204a623          	sw	zero,44(s1)
     83c:	0204a823          	sw	zero,48(s1)
     840:	0204aa23          	sw	zero,52(s1)
     844:	0004aa23          	sw	zero,20(s1)
     848:	0004ac23          	sw	zero,24(s1)
     84c:	0004ae23          	sw	zero,28(s1)
     850:	0204a023          	sw	zero,32(s1)
     854:	0204a223          	sw	zero,36(s1)
     858:	0204a423          	sw	zero,40(s1)
     85c:	0204ac23          	sw	zero,56(s1)
     860:	0204ae23          	sw	zero,60(s1)
     864:	0404a023          	sw	zero,64(s1)
     868:	0404a223          	sw	zero,68(s1)
     86c:	ed1ff06f          	j	73c <spi_event_handler+0x4c>
     870:	01c4a783          	lw	a5,28(s1)
     874:	ec0780e3          	beqz	a5,734 <spi_event_handler+0x44>
     878:	0304a783          	lw	a5,48(s1)
     87c:	0204a703          	lw	a4,32(s1)
     880:	eae7fae3          	bgeu	a5,a4,734 <spi_event_handler+0x44>
     884:	04700613          	li	a2,71
     888:	0280006f          	j	8b0 <spi_event_handler+0x1c0>
     88c:	01c4a683          	lw	a3,28(s1)
     890:	20d7c7b3          	sh2add	a5,a5,a3
     894:	0007a783          	lw	a5,0(a5)
     898:	02f72623          	sw	a5,44(a4)
     89c:	0304a783          	lw	a5,48(s1)
     8a0:	00178793          	addi	a5,a5,1
     8a4:	02f4a823          	sw	a5,48(s1)
     8a8:	0204a703          	lw	a4,32(s1)
     8ac:	00e7fc63          	bgeu	a5,a4,8c4 <spi_event_handler+0x1d4>
     8b0:	0004a703          	lw	a4,0(s1)
     8b4:	00070863          	beqz	a4,8c4 <spi_event_handler+0x1d4>
     8b8:	01472683          	lw	a3,20(a4)
     8bc:	0ff6f693          	zext.b	a3,a3
     8c0:	fcd676e3          	bgeu	a2,a3,88c <spi_event_handler+0x19c>
     8c4:	03c4a783          	lw	a5,60(s1)
     8c8:	e60786e3          	beqz	a5,734 <spi_event_handler+0x44>
     8cc:	0344a683          	lw	a3,52(s1)
     8d0:	0244a603          	lw	a2,36(s1)
     8d4:	0304a583          	lw	a1,48(s1)
     8d8:	01c4a503          	lw	a0,28(s1)
     8dc:	000780e7          	jalr	a5
     8e0:	e55ff06f          	j	734 <spi_event_handler+0x44>
     8e4:	00048513          	mv	a0,s1
     8e8:	da9ff0ef          	jal	690 <spi_empty_rx>
     8ec:	e40508e3          	beqz	a0,73c <spi_event_handler+0x4c>
     8f0:	0404a783          	lw	a5,64(s1)
     8f4:	e40784e3          	beqz	a5,73c <spi_event_handler+0x4c>
     8f8:	0344a683          	lw	a3,52(s1)
     8fc:	0244a603          	lw	a2,36(s1)
     900:	0304a583          	lw	a1,48(s1)
     904:	01c4a503          	lw	a0,28(s1)
     908:	000780e7          	jalr	a5
     90c:	e31ff06f          	j	73c <spi_event_handler+0x4c>
     910:	01452783          	lw	a5,20(a0)
     914:	e19ff06f          	j	72c <spi_event_handler+0x3c>

00000918 <spi_error_handler>:
     918:	fe010113          	addi	sp,sp,-32
     91c:	00112e23          	sw	ra,28(sp)
     920:	00912c23          	sw	s1,24(sp)
     924:	00050493          	mv	s1,a0
     928:	00052783          	lw	a5,0(a0)
     92c:	02078263          	beqz	a5,950 <spi_error_handler+0x38>
     930:	0387a703          	lw	a4,56(a5)
     934:	fc077713          	andi	a4,a4,-64
     938:	02e7ac23          	sw	a4,56(a5)
     93c:	00052783          	lw	a5,0(a0)
     940:	00078863          	beqz	a5,950 <spi_error_handler+0x38>
     944:	0047a703          	lw	a4,4(a5)
     948:	ffd77713          	andi	a4,a4,-3
     94c:	00e7a223          	sw	a4,4(a5)
     950:	0444a783          	lw	a5,68(s1)
     954:	00078c63          	beqz	a5,96c <spi_error_handler+0x54>
     958:	0344a683          	lw	a3,52(s1)
     95c:	0244a603          	lw	a2,36(s1)
     960:	0304a583          	lw	a1,48(s1)
     964:	01c4a503          	lw	a0,28(s1)
     968:	000780e7          	jalr	a5
     96c:	0204a623          	sw	zero,44(s1)
     970:	0204a823          	sw	zero,48(s1)
     974:	0204aa23          	sw	zero,52(s1)
     978:	0004aa23          	sw	zero,20(s1)
     97c:	0004ac23          	sw	zero,24(s1)
     980:	0004ae23          	sw	zero,28(s1)
     984:	0204a023          	sw	zero,32(s1)
     988:	0204a223          	sw	zero,36(s1)
     98c:	0204a423          	sw	zero,40(s1)
     990:	0204ac23          	sw	zero,56(s1)
     994:	0204ae23          	sw	zero,60(s1)
     998:	0404a023          	sw	zero,64(s1)
     99c:	0404a223          	sw	zero,68(s1)
     9a0:	0004a683          	lw	a3,0(s1)
     9a4:	10068463          	beqz	a3,aac <spi_error_handler+0x194>
     9a8:	0106a783          	lw	a5,16(a3)
     9ac:	40000737          	lui	a4,0x40000
     9b0:	00e7e7b3          	or	a5,a5,a4
     9b4:	00f6a823          	sw	a5,16(a3)
     9b8:	0146a783          	lw	a5,20(a3)
     9bc:	00f12623          	sw	a5,12(sp)
     9c0:	00c12783          	lw	a5,12(sp)
     9c4:	00179713          	slli	a4,a5,0x1
     9c8:	fe074ce3          	bltz	a4,9c0 <spi_error_handler+0xa8>
     9cc:	00c14783          	lbu	a5,12(sp)
     9d0:	fe0798e3          	bnez	a5,9c0 <spi_error_handler+0xa8>
     9d4:	00d14783          	lbu	a5,13(sp)
     9d8:	fe0794e3          	bnez	a5,9c0 <spi_error_handler+0xa8>
     9dc:	0106a783          	lw	a5,16(a3)
     9e0:	c0000737          	lui	a4,0xc0000
     9e4:	fff70713          	addi	a4,a4,-1 # bfffffff <_sp+0xbffd68ff>
     9e8:	00e7f7b3          	and	a5,a5,a4
     9ec:	00f6a823          	sw	a5,16(a3)
     9f0:	0004a783          	lw	a5,0(s1)
     9f4:	0a078c63          	beqz	a5,aac <spi_error_handler+0x194>
     9f8:	0107a703          	lw	a4,16(a5)
     9fc:	800006b7          	lui	a3,0x80000
     a00:	00d76733          	or	a4,a4,a3
     a04:	00e7a823          	sw	a4,16(a5)
     a08:	0004a783          	lw	a5,0(s1)
     a0c:	0a078063          	beqz	a5,aac <spi_error_handler+0x194>
     a10:	0107a703          	lw	a4,16(a5)
     a14:	200006b7          	lui	a3,0x20000
     a18:	00d76733          	or	a4,a4,a3
     a1c:	00e7a823          	sw	a4,16(a5)
     a20:	0004a783          	lw	a5,0(s1)
     a24:	08078463          	beqz	a5,aac <spi_error_handler+0x194>
     a28:	0307a703          	lw	a4,48(a5)
     a2c:	01f76713          	ori	a4,a4,31
     a30:	02e7a823          	sw	a4,48(a5)
     a34:	0004a783          	lw	a5,0(s1)
     a38:	06078a63          	beqz	a5,aac <spi_error_handler+0x194>
     a3c:	0047a703          	lw	a4,4(a5)
     a40:	00176713          	ori	a4,a4,1
     a44:	00e7a223          	sw	a4,4(a5)
     a48:	0004a703          	lw	a4,0(s1)
     a4c:	0044c783          	lbu	a5,4(s1)
     a50:	00173693          	seqz	a3,a4
     a54:	0497b613          	sltiu	a2,a5,73
     a58:	00163613          	seqz	a2,a2
     a5c:	00c6e6b3          	or	a3,a3,a2
     a60:	02069063          	bnez	a3,a80 <spi_error_handler+0x168>
     a64:	01072683          	lw	a3,16(a4)
     a68:	ffff0637          	lui	a2,0xffff0
     a6c:	0ff60613          	addi	a2,a2,255 # ffff00ff <_sp+0xfffc69ff>
     a70:	00c6f6b3          	and	a3,a3,a2
     a74:	00879793          	slli	a5,a5,0x8
     a78:	00d7e7b3          	or	a5,a5,a3
     a7c:	00f72823          	sw	a5,16(a4)
     a80:	0004a683          	lw	a3,0(s1)
     a84:	0054c703          	lbu	a4,5(s1)
     a88:	04173793          	sltiu	a5,a4,65
     a8c:	0017b793          	seqz	a5,a5
     a90:	0016b613          	seqz	a2,a3
     a94:	00c7e7b3          	or	a5,a5,a2
     a98:	00079a63          	bnez	a5,aac <spi_error_handler+0x194>
     a9c:	0106a783          	lw	a5,16(a3) # 20000010 <_sp+0x1ffd6910>
     aa0:	f007f793          	andi	a5,a5,-256
     aa4:	00f76733          	or	a4,a4,a5
     aa8:	00e6a823          	sw	a4,16(a3)
     aac:	0004a423          	sw	zero,8(s1)
     ab0:	00800793          	li	a5,8
     ab4:	00f4a823          	sw	a5,16(s1)
     ab8:	01c12083          	lw	ra,28(sp)
     abc:	01812483          	lw	s1,24(sp)
     ac0:	02010113          	addi	sp,sp,32
     ac4:	00008067          	ret

00000ac8 <_writestr>:
     ac8:	ff010113          	addi	sp,sp,-16
     acc:	00112623          	sw	ra,12(sp)
     ad0:	00912423          	sw	s1,8(sp)
     ad4:	00050493          	mv	s1,a0
     ad8:	33d050ef          	jal	6614 <strlen>
     adc:	00150613          	addi	a2,a0,1
     ae0:	00048593          	mv	a1,s1
     ae4:	00100513          	li	a0,1
     ae8:	b09ff0ef          	jal	5f0 <_write>
     aec:	00c12083          	lw	ra,12(sp)
     af0:	00812483          	lw	s1,8(sp)
     af4:	01010113          	addi	sp,sp,16
     af8:	00008067          	ret

00000afc <print_exc_msg>:
     afc:	fe010113          	addi	sp,sp,-32
     b00:	00112e23          	sw	ra,28(sp)
     b04:	00912c23          	sw	s1,24(sp)
     b08:	fc1ff0ef          	jal	ac8 <_writestr>
     b0c:	343024f3          	csrr	s1,mtval
     b10:	00020537          	lui	a0,0x20
     b14:	38450513          	addi	a0,a0,900 # 20384 <__clz_tab+0x1b0>
     b18:	fb1ff0ef          	jal	ac8 <_writestr>
     b1c:	0184d793          	srli	a5,s1,0x18
     b20:	00f10423          	sb	a5,8(sp)
     b24:	0104d793          	srli	a5,s1,0x10
     b28:	00f104a3          	sb	a5,9(sp)
     b2c:	0084d793          	srli	a5,s1,0x8
     b30:	00f10523          	sb	a5,10(sp)
     b34:	009105a3          	sb	s1,11(sp)
     b38:	00a00793          	li	a5,10
     b3c:	00f10623          	sb	a5,12(sp)
     b40:	000106a3          	sb	zero,13(sp)
     b44:	00810513          	addi	a0,sp,8
     b48:	f81ff0ef          	jal	ac8 <_writestr>
     b4c:	0000006f          	j	b4c <print_exc_msg+0x50>

00000b50 <inferenceTPG>:
     b50:	ec010113          	addi	sp,sp,-320
     b54:	12112e23          	sw	ra,316(sp)
     b58:	12912c23          	sw	s1,312(sp)
     b5c:	13212a23          	sw	s2,308(sp)
     b60:	13312823          	sw	s3,304(sp)
     b64:	13412623          	sw	s4,300(sp)
     b68:	13512423          	sw	s5,296(sp)
     b6c:	13612223          	sw	s6,292(sp)
     b70:	13712023          	sw	s7,288(sp)
     b74:	11812e23          	sw	s8,284(sp)
     b78:	11912c23          	sw	s9,280(sp)
     b7c:	00050c13          	mv	s8,a0
     b80:	00058a93          	mv	s5,a1
     b84:	00060993          	mv	s3,a2
     b88:	00068493          	mv	s1,a3
     b8c:	00070913          	mv	s2,a4
     b90:	00078a13          	mv	s4,a5
     b94:	000047b7          	lui	a5,0x4
     b98:	4a478793          	addi	a5,a5,1188 # 44a4 <T14_start>
     b9c:	00078067          	jr	a5

00000ba0 <T0_start>:
     ba0:	b00027f3          	csrr	a5,mcycle
     ba4:	00078c93          	mv	s9,a5
     ba8:	0084a683          	lw	a3,8(s1)
     bac:	00000593          	li	a1,0
     bb0:	2406c063          	bltz	a3,df0 <T0_start+0x250>
     bb4:	4e068663          	beqz	a3,10a0 <T0_end+0x5c>
     bb8:	000207b7          	lui	a5,0x20
     bbc:	4cd7de63          	bge	a5,a3,1098 <T0_end+0x54>
     bc0:	00000b93          	li	s7,0
     bc4:	4016d693          	srai	a3,a3,0x1
     bc8:	001b8b93          	addi	s7,s7,1
     bcc:	fed7cce3          	blt	a5,a3,bc4 <T0_start+0x24>
     bd0:	ffff07b7          	lui	a5,0xffff0
     bd4:	00f68b33          	add	s6,a3,a5
     bd8:	41fb5793          	srai	a5,s6,0x1f
     bdc:	010b5593          	srli	a1,s6,0x10
     be0:	01079793          	slli	a5,a5,0x10
     be4:	00010737          	lui	a4,0x10
     be8:	00e68633          	add	a2,a3,a4
     bec:	41f65693          	srai	a3,a2,0x1f
     bf0:	010b1513          	slli	a0,s6,0x10
     bf4:	00f585b3          	add	a1,a1,a5
     bf8:	544080ef          	jal	913c <__divdi3>
     bfc:	41f55613          	srai	a2,a0,0x1f
     c00:	02a607b3          	mul	a5,a2,a0
     c04:	02a50733          	mul	a4,a0,a0
     c08:	02a536b3          	mulhu	a3,a0,a0
     c0c:	20d7a7b3          	sh1add	a5,a5,a3
     c10:	01079793          	slli	a5,a5,0x10
     c14:	01075713          	srli	a4,a4,0x10
     c18:	00e78733          	add	a4,a5,a4
     c1c:	41f75313          	srai	t1,a4,0x1f
     c20:	02e306b3          	mul	a3,t1,a4
     c24:	02e707b3          	mul	a5,a4,a4
     c28:	02e735b3          	mulhu	a1,a4,a4
     c2c:	20b6a6b3          	sh1add	a3,a3,a1
     c30:	01069693          	slli	a3,a3,0x10
     c34:	0107d793          	srli	a5,a5,0x10
     c38:	00f687b3          	add	a5,a3,a5
     c3c:	41f7d813          	srai	a6,a5,0x1f
     c40:	010b9b93          	slli	s7,s7,0x10
     c44:	41fbd693          	srai	a3,s7,0x1f
     c48:	0000b8b7          	lui	a7,0xb
     c4c:	17288893          	addi	a7,a7,370 # b172 <__power_manager_start+0x172>
     c50:	031686b3          	mul	a3,a3,a7
     c54:	031b85b3          	mul	a1,s7,a7
     c58:	031bbbb3          	mulhu	s7,s7,a7
     c5c:	017686b3          	add	a3,a3,s7
     c60:	01069693          	slli	a3,a3,0x10
     c64:	0105d593          	srli	a1,a1,0x10
     c68:	00b685b3          	add	a1,a3,a1
     c6c:	00bb05b3          	add	a1,s6,a1
     c70:	000028b7          	lui	a7,0x2
     c74:	5e288893          	addi	a7,a7,1506 # 25e2 <T7_start+0x746>
     c78:	03180e33          	mul	t3,a6,a7
     c7c:	031786b3          	mul	a3,a5,a7
     c80:	0317b8b3          	mulhu	a7,a5,a7
     c84:	011e08b3          	add	a7,t3,a7
     c88:	01089893          	slli	a7,a7,0x10
     c8c:	0106d693          	srli	a3,a3,0x10
     c90:	00d886b3          	add	a3,a7,a3
     c94:	000038b7          	lui	a7,0x3
     c98:	e8d88893          	addi	a7,a7,-371 # 2e8d <T9_start+0x5c5>
     c9c:	011686b3          	add	a3,a3,a7
     ca0:	41f6de13          	srai	t3,a3,0x1f
     ca4:	02fe0e33          	mul	t3,t3,a5
     ca8:	02d808b3          	mul	a7,a6,a3
     cac:	011e0e33          	add	t3,t3,a7
     cb0:	02f688b3          	mul	a7,a3,a5
     cb4:	02f6b6b3          	mulhu	a3,a3,a5
     cb8:	00de06b3          	add	a3,t3,a3
     cbc:	01069693          	slli	a3,a3,0x10
     cc0:	0108d893          	srli	a7,a7,0x10
     cc4:	011688b3          	add	a7,a3,a7
     cc8:	000056b7          	lui	a3,0x5
     ccc:	92568693          	addi	a3,a3,-1755 # 4925 <handler_irq_fast_timer_3+0x71>
     cd0:	00d888b3          	add	a7,a7,a3
     cd4:	41f8de13          	srai	t3,a7,0x1f
     cd8:	02fe0e33          	mul	t3,t3,a5
     cdc:	031806b3          	mul	a3,a6,a7
     ce0:	00de0e33          	add	t3,t3,a3
     ce4:	02f886b3          	mul	a3,a7,a5
     ce8:	02f8b8b3          	mulhu	a7,a7,a5
     cec:	011e08b3          	add	a7,t3,a7
     cf0:	01089893          	slli	a7,a7,0x10
     cf4:	0106d693          	srli	a3,a3,0x10
     cf8:	00d886b3          	add	a3,a7,a3
     cfc:	0000b8b7          	lui	a7,0xb
     d00:	aab88893          	addi	a7,a7,-1365 # aaab <main+0x1b3>
     d04:	011686b3          	add	a3,a3,a7
     d08:	41f6d893          	srai	a7,a3,0x1f
     d0c:	02e888b3          	mul	a7,a7,a4
     d10:	02d30333          	mul	t1,t1,a3
     d14:	00688333          	add	t1,a7,t1
     d18:	02e688b3          	mul	a7,a3,a4
     d1c:	02e6b6b3          	mulhu	a3,a3,a4
     d20:	00d30733          	add	a4,t1,a3
     d24:	01071713          	slli	a4,a4,0x10
     d28:	0108d893          	srli	a7,a7,0x10
     d2c:	011708b3          	add	a7,a4,a7
     d30:	00002737          	lui	a4,0x2
     d34:	73470713          	addi	a4,a4,1844 # 2734 <T7_end+0x38>
     d38:	02e80333          	mul	t1,a6,a4
     d3c:	02e786b3          	mul	a3,a5,a4
     d40:	02e7b733          	mulhu	a4,a5,a4
     d44:	00e30733          	add	a4,t1,a4
     d48:	01071713          	slli	a4,a4,0x10
     d4c:	0106d693          	srli	a3,a3,0x10
     d50:	00d706b3          	add	a3,a4,a3
     d54:	00004737          	lui	a4,0x4
     d58:	8e470713          	addi	a4,a4,-1820 # 38e4 <T11_start+0xc4>
     d5c:	00e686b3          	add	a3,a3,a4
     d60:	41f6d313          	srai	t1,a3,0x1f
     d64:	02f30333          	mul	t1,t1,a5
     d68:	02d80733          	mul	a4,a6,a3
     d6c:	00e30333          	add	t1,t1,a4
     d70:	02f68733          	mul	a4,a3,a5
     d74:	02f6b6b3          	mulhu	a3,a3,a5
     d78:	00d306b3          	add	a3,t1,a3
     d7c:	01069693          	slli	a3,a3,0x10
     d80:	01075713          	srli	a4,a4,0x10
     d84:	00e68733          	add	a4,a3,a4
     d88:	000066b7          	lui	a3,0x6
     d8c:	66668693          	addi	a3,a3,1638 # 6666 <__sfputc_r+0x36>
     d90:	00d70733          	add	a4,a4,a3
     d94:	41f75693          	srai	a3,a4,0x1f
     d98:	02f686b3          	mul	a3,a3,a5
     d9c:	02e80833          	mul	a6,a6,a4
     da0:	010686b3          	add	a3,a3,a6
     da4:	02f70833          	mul	a6,a4,a5
     da8:	02f73733          	mulhu	a4,a4,a5
     dac:	00e687b3          	add	a5,a3,a4
     db0:	01079793          	slli	a5,a5,0x10
     db4:	01085713          	srli	a4,a6,0x10
     db8:	00e78733          	add	a4,a5,a4
     dbc:	00e888b3          	add	a7,a7,a4
     dc0:	411b07b3          	sub	a5,s6,a7
     dc4:	41f7d713          	srai	a4,a5,0x1f
     dc8:	02a70733          	mul	a4,a4,a0
     dcc:	02f60633          	mul	a2,a2,a5
     dd0:	00c70733          	add	a4,a4,a2
     dd4:	02a786b3          	mul	a3,a5,a0
     dd8:	02a7b7b3          	mulhu	a5,a5,a0
     ddc:	00f707b3          	add	a5,a4,a5
     de0:	01079793          	slli	a5,a5,0x10
     de4:	0106d713          	srli	a4,a3,0x10
     de8:	00e78733          	add	a4,a5,a4
     dec:	40e585b3          	sub	a1,a1,a4
     df0:	02b12823          	sw	a1,48(sp)
     df4:	0044a683          	lw	a3,4(s1)
     df8:	00000593          	li	a1,0
     dfc:	2406c063          	bltz	a3,103c <T0_start+0x49c>
     e00:	2a068863          	beqz	a3,10b0 <T0_end+0x6c>
     e04:	000207b7          	lui	a5,0x20
     e08:	2ad7d063          	bge	a5,a3,10a8 <T0_end+0x64>
     e0c:	00000b93          	li	s7,0
     e10:	4016d693          	srai	a3,a3,0x1
     e14:	001b8b93          	addi	s7,s7,1
     e18:	fed7cce3          	blt	a5,a3,e10 <T0_start+0x270>
     e1c:	ffff07b7          	lui	a5,0xffff0
     e20:	00f68b33          	add	s6,a3,a5
     e24:	41fb5793          	srai	a5,s6,0x1f
     e28:	010b5593          	srli	a1,s6,0x10
     e2c:	01079793          	slli	a5,a5,0x10
     e30:	00010737          	lui	a4,0x10
     e34:	00e68633          	add	a2,a3,a4
     e38:	41f65693          	srai	a3,a2,0x1f
     e3c:	010b1513          	slli	a0,s6,0x10
     e40:	00f585b3          	add	a1,a1,a5
     e44:	2f8080ef          	jal	913c <__divdi3>
     e48:	41f55613          	srai	a2,a0,0x1f
     e4c:	02a607b3          	mul	a5,a2,a0
     e50:	02a50733          	mul	a4,a0,a0
     e54:	02a536b3          	mulhu	a3,a0,a0
     e58:	20d7a7b3          	sh1add	a5,a5,a3
     e5c:	01079793          	slli	a5,a5,0x10
     e60:	01075713          	srli	a4,a4,0x10
     e64:	00e78733          	add	a4,a5,a4
     e68:	41f75313          	srai	t1,a4,0x1f
     e6c:	02e306b3          	mul	a3,t1,a4
     e70:	02e707b3          	mul	a5,a4,a4
     e74:	02e735b3          	mulhu	a1,a4,a4
     e78:	20b6a6b3          	sh1add	a3,a3,a1
     e7c:	01069693          	slli	a3,a3,0x10
     e80:	0107d793          	srli	a5,a5,0x10
     e84:	00f687b3          	add	a5,a3,a5
     e88:	41f7d813          	srai	a6,a5,0x1f
     e8c:	010b9b93          	slli	s7,s7,0x10
     e90:	41fbd693          	srai	a3,s7,0x1f
     e94:	0000b8b7          	lui	a7,0xb
     e98:	17288893          	addi	a7,a7,370 # b172 <__power_manager_start+0x172>
     e9c:	031686b3          	mul	a3,a3,a7
     ea0:	031b85b3          	mul	a1,s7,a7
     ea4:	031bbbb3          	mulhu	s7,s7,a7
     ea8:	017686b3          	add	a3,a3,s7
     eac:	01069693          	slli	a3,a3,0x10
     eb0:	0105d593          	srli	a1,a1,0x10
     eb4:	00b685b3          	add	a1,a3,a1
     eb8:	00bb05b3          	add	a1,s6,a1
     ebc:	000028b7          	lui	a7,0x2
     ec0:	5e288893          	addi	a7,a7,1506 # 25e2 <T7_start+0x746>
     ec4:	03180e33          	mul	t3,a6,a7
     ec8:	031786b3          	mul	a3,a5,a7
     ecc:	0317b8b3          	mulhu	a7,a5,a7
     ed0:	011e08b3          	add	a7,t3,a7
     ed4:	01089893          	slli	a7,a7,0x10
     ed8:	0106d693          	srli	a3,a3,0x10
     edc:	00d886b3          	add	a3,a7,a3
     ee0:	000038b7          	lui	a7,0x3
     ee4:	e8d88893          	addi	a7,a7,-371 # 2e8d <T9_start+0x5c5>
     ee8:	011686b3          	add	a3,a3,a7
     eec:	41f6de13          	srai	t3,a3,0x1f
     ef0:	02fe0e33          	mul	t3,t3,a5
     ef4:	02d808b3          	mul	a7,a6,a3
     ef8:	011e0e33          	add	t3,t3,a7
     efc:	02f688b3          	mul	a7,a3,a5
     f00:	02f6b6b3          	mulhu	a3,a3,a5
     f04:	00de06b3          	add	a3,t3,a3
     f08:	01069693          	slli	a3,a3,0x10
     f0c:	0108d893          	srli	a7,a7,0x10
     f10:	011688b3          	add	a7,a3,a7
     f14:	000056b7          	lui	a3,0x5
     f18:	92568693          	addi	a3,a3,-1755 # 4925 <handler_irq_fast_timer_3+0x71>
     f1c:	00d888b3          	add	a7,a7,a3
     f20:	41f8de13          	srai	t3,a7,0x1f
     f24:	02fe0e33          	mul	t3,t3,a5
     f28:	031806b3          	mul	a3,a6,a7
     f2c:	00de0e33          	add	t3,t3,a3
     f30:	02f886b3          	mul	a3,a7,a5
     f34:	02f8b8b3          	mulhu	a7,a7,a5
     f38:	011e08b3          	add	a7,t3,a7
     f3c:	01089893          	slli	a7,a7,0x10
     f40:	0106d693          	srli	a3,a3,0x10
     f44:	00d886b3          	add	a3,a7,a3
     f48:	0000b8b7          	lui	a7,0xb
     f4c:	aab88893          	addi	a7,a7,-1365 # aaab <main+0x1b3>
     f50:	011686b3          	add	a3,a3,a7
     f54:	41f6d893          	srai	a7,a3,0x1f
     f58:	02e888b3          	mul	a7,a7,a4
     f5c:	02d30333          	mul	t1,t1,a3
     f60:	00688333          	add	t1,a7,t1
     f64:	02e688b3          	mul	a7,a3,a4
     f68:	02e6b6b3          	mulhu	a3,a3,a4
     f6c:	00d30733          	add	a4,t1,a3
     f70:	01071713          	slli	a4,a4,0x10
     f74:	0108d893          	srli	a7,a7,0x10
     f78:	011708b3          	add	a7,a4,a7
     f7c:	00002737          	lui	a4,0x2
     f80:	73470713          	addi	a4,a4,1844 # 2734 <T7_end+0x38>
     f84:	02e80333          	mul	t1,a6,a4
     f88:	02e786b3          	mul	a3,a5,a4
     f8c:	02e7b733          	mulhu	a4,a5,a4
     f90:	00e30733          	add	a4,t1,a4
     f94:	01071713          	slli	a4,a4,0x10
     f98:	0106d693          	srli	a3,a3,0x10
     f9c:	00d706b3          	add	a3,a4,a3
     fa0:	00004737          	lui	a4,0x4
     fa4:	8e470713          	addi	a4,a4,-1820 # 38e4 <T11_start+0xc4>
     fa8:	00e686b3          	add	a3,a3,a4
     fac:	41f6d313          	srai	t1,a3,0x1f
     fb0:	02f30333          	mul	t1,t1,a5
     fb4:	02d80733          	mul	a4,a6,a3
     fb8:	00e30333          	add	t1,t1,a4
     fbc:	02f68733          	mul	a4,a3,a5
     fc0:	02f6b6b3          	mulhu	a3,a3,a5
     fc4:	00d306b3          	add	a3,t1,a3
     fc8:	01069693          	slli	a3,a3,0x10
     fcc:	01075713          	srli	a4,a4,0x10
     fd0:	00e68733          	add	a4,a3,a4
     fd4:	000066b7          	lui	a3,0x6
     fd8:	66668693          	addi	a3,a3,1638 # 6666 <__sfputc_r+0x36>
     fdc:	00d70733          	add	a4,a4,a3
     fe0:	41f75693          	srai	a3,a4,0x1f
     fe4:	02f686b3          	mul	a3,a3,a5
     fe8:	02e80833          	mul	a6,a6,a4
     fec:	010686b3          	add	a3,a3,a6
     ff0:	02f70833          	mul	a6,a4,a5
     ff4:	02f73733          	mulhu	a4,a4,a5
     ff8:	00e687b3          	add	a5,a3,a4
     ffc:	01079793          	slli	a5,a5,0x10
    1000:	01085713          	srli	a4,a6,0x10
    1004:	00e78733          	add	a4,a5,a4
    1008:	00e888b3          	add	a7,a7,a4
    100c:	411b07b3          	sub	a5,s6,a7
    1010:	41f7d713          	srai	a4,a5,0x1f
    1014:	02a70733          	mul	a4,a4,a0
    1018:	02f60633          	mul	a2,a2,a5
    101c:	00c70733          	add	a4,a4,a2
    1020:	02a786b3          	mul	a3,a5,a0
    1024:	02a7b7b3          	mulhu	a5,a5,a0
    1028:	00f707b3          	add	a5,a4,a5
    102c:	01079793          	slli	a5,a5,0x10
    1030:	0106d713          	srli	a4,a3,0x10
    1034:	00e78733          	add	a4,a5,a4
    1038:	40e585b3          	sub	a1,a1,a4
    103c:	02b12a23          	sw	a1,52(sp)
    1040:	02012c23          	sw	zero,56(sp)

00001044 <T0_end>:
    1044:	b00027f3          	csrr	a5,mcycle
    1048:	419787b3          	sub	a5,a5,s9
    104c:	00fa2023          	sw	a5,0(s4)
    1050:	03012683          	lw	a3,48(sp)
    1054:	03412703          	lw	a4,52(sp)
    1058:	00100793          	li	a5,1
    105c:	00d75663          	bge	a4,a3,1068 <T0_end+0x24>
    1060:	00068713          	mv	a4,a3
    1064:	00000793          	li	a5,0
    1068:	03812683          	lw	a3,56(sp)
    106c:	00e6c463          	blt	a3,a4,1074 <T0_end+0x30>
    1070:	00200793          	li	a5,2
    1074:	00020737          	lui	a4,0x20
    1078:	000206b7          	lui	a3,0x20
    107c:	15868693          	addi	a3,a3,344 # 20158 <next.16>
    1080:	20d7c7b3          	sh2add	a5,a5,a3
    1084:	0007a783          	lw	a5,0(a5) # ffff0000 <_sp+0xfffc6900>
    1088:	10470713          	addi	a4,a4,260 # 20104 <jump_table.17>
    108c:	20e7c7b3          	sh2add	a5,a5,a4
    1090:	0007a783          	lw	a5,0(a5)
    1094:	b09ff06f          	j	b9c <inferenceTPG+0x4c>
    1098:	00000b93          	li	s7,0
    109c:	b35ff06f          	j	bd0 <T0_start+0x30>
    10a0:	fff00593          	li	a1,-1
    10a4:	d4dff06f          	j	df0 <T0_start+0x250>
    10a8:	00000b93          	li	s7,0
    10ac:	d71ff06f          	j	e1c <T0_start+0x27c>
    10b0:	fff00593          	li	a1,-1
    10b4:	f89ff06f          	j	103c <T0_start+0x49c>

000010b8 <T1_start>:
    10b8:	b0002773          	csrr	a4,mcycle
    10bc:	00c92783          	lw	a5,12(s2)
    10c0:	0089a683          	lw	a3,8(s3)
    10c4:	00d787b3          	add	a5,a5,a3
    10c8:	00f12823          	sw	a5,16(sp)
    10cc:	00092783          	lw	a5,0(s2)
    10d0:	000aa683          	lw	a3,0(s5)
    10d4:	0ad7e7b3          	max	a5,a5,a3
    10d8:	00f12a23          	sw	a5,20(sp)

000010dc <T1_end>:
    10dc:	b00027f3          	csrr	a5,mcycle
    10e0:	40e787b3          	sub	a5,a5,a4
    10e4:	00fa2223          	sw	a5,4(s4)
    10e8:	00020737          	lui	a4,0x20
    10ec:	01012783          	lw	a5,16(sp)
    10f0:	01412603          	lw	a2,20(sp)
    10f4:	00f627b3          	slt	a5,a2,a5
    10f8:	0017b793          	seqz	a5,a5
    10fc:	94818693          	addi	a3,gp,-1720 # 21488 <next.15>
    1100:	20d7c7b3          	sh2add	a5,a5,a3
    1104:	0007a783          	lw	a5,0(a5)
    1108:	10470713          	addi	a4,a4,260 # 20104 <jump_table.17>
    110c:	20e7c7b3          	sh2add	a5,a5,a4
    1110:	0007a783          	lw	a5,0(a5)
    1114:	a89ff06f          	j	b9c <inferenceTPG+0x4c>
    1118:	11a12a23          	sw	s10,276(sp)

0000111c <T2_start>:
    111c:	b00027f3          	csrr	a5,mcycle
    1120:	00078d13          	mv	s10,a5
    1124:	00492783          	lw	a5,4(s2)
    1128:	00078c93          	mv	s9,a5
    112c:	4607c063          	bltz	a5,158c <T2_end+0x4c>
    1130:	46078263          	beqz	a5,1594 <T2_end+0x54>
    1134:	000207b7          	lui	a5,0x20
    1138:	4597d463          	bge	a5,s9,1580 <T2_end+0x40>
    113c:	000c8693          	mv	a3,s9
    1140:	00000b13          	li	s6,0
    1144:	4016d693          	srai	a3,a3,0x1
    1148:	001b0b13          	addi	s6,s6,1
    114c:	fed7cce3          	blt	a5,a3,1144 <T2_start+0x28>
    1150:	ffff0bb7          	lui	s7,0xffff0
    1154:	01768bb3          	add	s7,a3,s7
    1158:	41fbd793          	srai	a5,s7,0x1f
    115c:	010bd593          	srli	a1,s7,0x10
    1160:	01079793          	slli	a5,a5,0x10
    1164:	00010737          	lui	a4,0x10
    1168:	00e68633          	add	a2,a3,a4
    116c:	41f65693          	srai	a3,a2,0x1f
    1170:	010b9513          	slli	a0,s7,0x10
    1174:	00f585b3          	add	a1,a1,a5
    1178:	7c5070ef          	jal	913c <__divdi3>
    117c:	41f55613          	srai	a2,a0,0x1f
    1180:	02a607b3          	mul	a5,a2,a0
    1184:	02a50733          	mul	a4,a0,a0
    1188:	02a536b3          	mulhu	a3,a0,a0
    118c:	20d7a7b3          	sh1add	a5,a5,a3
    1190:	01079793          	slli	a5,a5,0x10
    1194:	01075713          	srli	a4,a4,0x10
    1198:	00e78733          	add	a4,a5,a4
    119c:	41f75313          	srai	t1,a4,0x1f
    11a0:	02e306b3          	mul	a3,t1,a4
    11a4:	02e707b3          	mul	a5,a4,a4
    11a8:	02e735b3          	mulhu	a1,a4,a4
    11ac:	20b6a6b3          	sh1add	a3,a3,a1
    11b0:	01069693          	slli	a3,a3,0x10
    11b4:	0107d793          	srli	a5,a5,0x10
    11b8:	00f687b3          	add	a5,a3,a5
    11bc:	41f7d813          	srai	a6,a5,0x1f
    11c0:	010b1b13          	slli	s6,s6,0x10
    11c4:	41fb5693          	srai	a3,s6,0x1f
    11c8:	0000b8b7          	lui	a7,0xb
    11cc:	17288893          	addi	a7,a7,370 # b172 <__power_manager_start+0x172>
    11d0:	031686b3          	mul	a3,a3,a7
    11d4:	031b05b3          	mul	a1,s6,a7
    11d8:	031b3b33          	mulhu	s6,s6,a7
    11dc:	016686b3          	add	a3,a3,s6
    11e0:	01069693          	slli	a3,a3,0x10
    11e4:	0105d593          	srli	a1,a1,0x10
    11e8:	00b685b3          	add	a1,a3,a1
    11ec:	00bb85b3          	add	a1,s7,a1
    11f0:	000028b7          	lui	a7,0x2
    11f4:	5e288893          	addi	a7,a7,1506 # 25e2 <T7_start+0x746>
    11f8:	03180e33          	mul	t3,a6,a7
    11fc:	031786b3          	mul	a3,a5,a7
    1200:	0317b8b3          	mulhu	a7,a5,a7
    1204:	011e08b3          	add	a7,t3,a7
    1208:	01089893          	slli	a7,a7,0x10
    120c:	0106d693          	srli	a3,a3,0x10
    1210:	00d886b3          	add	a3,a7,a3
    1214:	000038b7          	lui	a7,0x3
    1218:	e8d88893          	addi	a7,a7,-371 # 2e8d <T9_start+0x5c5>
    121c:	011686b3          	add	a3,a3,a7
    1220:	41f6de13          	srai	t3,a3,0x1f
    1224:	02fe0e33          	mul	t3,t3,a5
    1228:	02d808b3          	mul	a7,a6,a3
    122c:	011e0e33          	add	t3,t3,a7
    1230:	02f688b3          	mul	a7,a3,a5
    1234:	02f6b6b3          	mulhu	a3,a3,a5
    1238:	00de06b3          	add	a3,t3,a3
    123c:	01069693          	slli	a3,a3,0x10
    1240:	0108d893          	srli	a7,a7,0x10
    1244:	011688b3          	add	a7,a3,a7
    1248:	000056b7          	lui	a3,0x5
    124c:	92568693          	addi	a3,a3,-1755 # 4925 <handler_irq_fast_timer_3+0x71>
    1250:	00d888b3          	add	a7,a7,a3
    1254:	41f8de13          	srai	t3,a7,0x1f
    1258:	02fe0e33          	mul	t3,t3,a5
    125c:	031806b3          	mul	a3,a6,a7
    1260:	00de0e33          	add	t3,t3,a3
    1264:	02f886b3          	mul	a3,a7,a5
    1268:	02f8b8b3          	mulhu	a7,a7,a5
    126c:	011e08b3          	add	a7,t3,a7
    1270:	01089893          	slli	a7,a7,0x10
    1274:	0106d693          	srli	a3,a3,0x10
    1278:	00d886b3          	add	a3,a7,a3
    127c:	0000b8b7          	lui	a7,0xb
    1280:	aab88893          	addi	a7,a7,-1365 # aaab <main+0x1b3>
    1284:	011686b3          	add	a3,a3,a7
    1288:	41f6d893          	srai	a7,a3,0x1f
    128c:	02e888b3          	mul	a7,a7,a4
    1290:	02d30333          	mul	t1,t1,a3
    1294:	00688333          	add	t1,a7,t1
    1298:	02e688b3          	mul	a7,a3,a4
    129c:	02e6b6b3          	mulhu	a3,a3,a4
    12a0:	00d30733          	add	a4,t1,a3
    12a4:	01071713          	slli	a4,a4,0x10
    12a8:	0108d893          	srli	a7,a7,0x10
    12ac:	011708b3          	add	a7,a4,a7
    12b0:	00002737          	lui	a4,0x2
    12b4:	73470713          	addi	a4,a4,1844 # 2734 <T7_end+0x38>
    12b8:	02e80333          	mul	t1,a6,a4
    12bc:	02e786b3          	mul	a3,a5,a4
    12c0:	02e7b733          	mulhu	a4,a5,a4
    12c4:	00e30733          	add	a4,t1,a4
    12c8:	01071713          	slli	a4,a4,0x10
    12cc:	0106d693          	srli	a3,a3,0x10
    12d0:	00d706b3          	add	a3,a4,a3
    12d4:	00004737          	lui	a4,0x4
    12d8:	8e470713          	addi	a4,a4,-1820 # 38e4 <T11_start+0xc4>
    12dc:	00e686b3          	add	a3,a3,a4
    12e0:	41f6d313          	srai	t1,a3,0x1f
    12e4:	02f30333          	mul	t1,t1,a5
    12e8:	02d80733          	mul	a4,a6,a3
    12ec:	00e30333          	add	t1,t1,a4
    12f0:	02f68733          	mul	a4,a3,a5
    12f4:	02f6b6b3          	mulhu	a3,a3,a5
    12f8:	00d306b3          	add	a3,t1,a3
    12fc:	01069693          	slli	a3,a3,0x10
    1300:	01075713          	srli	a4,a4,0x10
    1304:	00e68733          	add	a4,a3,a4
    1308:	000066b7          	lui	a3,0x6
    130c:	66668693          	addi	a3,a3,1638 # 6666 <__sfputc_r+0x36>
    1310:	00d70733          	add	a4,a4,a3
    1314:	41f75693          	srai	a3,a4,0x1f
    1318:	02f686b3          	mul	a3,a3,a5
    131c:	02e80833          	mul	a6,a6,a4
    1320:	010686b3          	add	a3,a3,a6
    1324:	02f70833          	mul	a6,a4,a5
    1328:	02f73733          	mulhu	a4,a4,a5
    132c:	00e687b3          	add	a5,a3,a4
    1330:	01079793          	slli	a5,a5,0x10
    1334:	01085713          	srli	a4,a6,0x10
    1338:	00e78733          	add	a4,a5,a4
    133c:	00e888b3          	add	a7,a7,a4
    1340:	411b8bb3          	sub	s7,s7,a7
    1344:	41fbd793          	srai	a5,s7,0x1f
    1348:	02a787b3          	mul	a5,a5,a0
    134c:	03760633          	mul	a2,a2,s7
    1350:	00c787b3          	add	a5,a5,a2
    1354:	02ab8733          	mul	a4,s7,a0
    1358:	02abbbb3          	mulhu	s7,s7,a0
    135c:	017787b3          	add	a5,a5,s7
    1360:	01079793          	slli	a5,a5,0x10
    1364:	01075713          	srli	a4,a4,0x10
    1368:	00e78733          	add	a4,a5,a4
    136c:	40e587b3          	sub	a5,a1,a4
    1370:	20e58e63          	beq	a1,a4,158c <T2_end+0x4c>
    1374:	40f006b3          	neg	a3,a5
    1378:	0ad7e6b3          	max	a3,a5,a3
    137c:	41f6d713          	srai	a4,a3,0x1f
    1380:	00017637          	lui	a2,0x17
    1384:	15460613          	addi	a2,a2,340 # 17154 <heap.cpp.6b15d6f6+0x54eb>
    1388:	02c70733          	mul	a4,a4,a2
    138c:	02c68b33          	mul	s6,a3,a2
    1390:	02c6b6b3          	mulhu	a3,a3,a2
    1394:	00d70733          	add	a4,a4,a3
    1398:	01071713          	slli	a4,a4,0x10
    139c:	010b5b13          	srli	s6,s6,0x10
    13a0:	01670b33          	add	s6,a4,s6
    13a4:	00008737          	lui	a4,0x8
    13a8:	00eb0b33          	add	s6,s6,a4
    13ac:	ffff0737          	lui	a4,0xffff0
    13b0:	00eb7b33          	and	s6,s6,a4
    13b4:	1e07c463          	bltz	a5,159c <T2_end+0x5c>
    13b8:	41fb5713          	srai	a4,s6,0x1f
    13bc:	0000b6b7          	lui	a3,0xb
    13c0:	17268693          	addi	a3,a3,370 # b172 <__power_manager_start+0x172>
    13c4:	02d70733          	mul	a4,a4,a3
    13c8:	02db0633          	mul	a2,s6,a3
    13cc:	02db36b3          	mulhu	a3,s6,a3
    13d0:	00d70733          	add	a4,a4,a3
    13d4:	01071713          	slli	a4,a4,0x10
    13d8:	01065693          	srli	a3,a2,0x10
    13dc:	00d706b3          	add	a3,a4,a3
    13e0:	40d787b3          	sub	a5,a5,a3
    13e4:	41f7d693          	srai	a3,a5,0x1f
    13e8:	02f686b3          	mul	a3,a3,a5
    13ec:	02f78733          	mul	a4,a5,a5
    13f0:	02f7b633          	mulhu	a2,a5,a5
    13f4:	20c6a6b3          	sh1add	a3,a3,a2
    13f8:	01069693          	slli	a3,a3,0x10
    13fc:	01075713          	srli	a4,a4,0x10
    1400:	00e68733          	add	a4,a3,a4
    1404:	41f75513          	srai	a0,a4,0x1f
    1408:	01e75693          	srli	a3,a4,0x1e
    140c:	20d546b3          	sh2add	a3,a0,a3
    1410:	00271613          	slli	a2,a4,0x2
    1414:	01069693          	slli	a3,a3,0x10
    1418:	01065613          	srli	a2,a2,0x10
    141c:	00c68633          	add	a2,a3,a2
    1420:	f4a60613          	addi	a2,a2,-182
    1424:	41f65593          	srai	a1,a2,0x1f
    1428:	02e585b3          	mul	a1,a1,a4
    142c:	02c506b3          	mul	a3,a0,a2
    1430:	00d585b3          	add	a1,a1,a3
    1434:	02e606b3          	mul	a3,a2,a4
    1438:	02e63633          	mulhu	a2,a2,a4
    143c:	00c58633          	add	a2,a1,a2
    1440:	01061613          	slli	a2,a2,0x10
    1444:	0106d693          	srli	a3,a3,0x10
    1448:	00d606b3          	add	a3,a2,a3
    144c:	00003637          	lui	a2,0x3
    1450:	aab60613          	addi	a2,a2,-1365 # 2aab <T9_start+0x1e3>
    1454:	00c686b3          	add	a3,a3,a2
    1458:	41f6d613          	srai	a2,a3,0x1f
    145c:	02e60633          	mul	a2,a2,a4
    1460:	02d50533          	mul	a0,a0,a3
    1464:	00a60633          	add	a2,a2,a0
    1468:	02e685b3          	mul	a1,a3,a4
    146c:	02e6b6b3          	mulhu	a3,a3,a4
    1470:	00d60733          	add	a4,a2,a3
    1474:	01071713          	slli	a4,a4,0x10
    1478:	0105d693          	srli	a3,a1,0x10
    147c:	00d706b3          	add	a3,a4,a3
    1480:	00020737          	lui	a4,0x20
    1484:	00e686b3          	add	a3,a3,a4
    1488:	40f68633          	sub	a2,a3,a5
    148c:	02f68c63          	beq	a3,a5,14c4 <T2_start+0x3a8>
    1490:	00f7d713          	srli	a4,a5,0xf
    1494:	01179793          	slli	a5,a5,0x11
    1498:	01071713          	slli	a4,a4,0x10
    149c:	0107d793          	srli	a5,a5,0x10
    14a0:	00f707b3          	add	a5,a4,a5
    14a4:	41f7d713          	srai	a4,a5,0x1f
    14a8:	0107d593          	srli	a1,a5,0x10
    14ac:	01071713          	slli	a4,a4,0x10
    14b0:	41f65693          	srai	a3,a2,0x1f
    14b4:	01079513          	slli	a0,a5,0x10
    14b8:	00e585b3          	add	a1,a1,a4
    14bc:	481070ef          	jal	913c <__divdi3>
    14c0:	00050613          	mv	a2,a0
    14c4:	000107b7          	lui	a5,0x10
    14c8:	00f606b3          	add	a3,a2,a5
    14cc:	0c0b4c63          	bltz	s6,15a4 <T2_end+0x64>
    14d0:	410b5b13          	srai	s6,s6,0x10
    14d4:	00010737          	lui	a4,0x10
    14d8:	01671733          	sll	a4,a4,s6
    14dc:	41f75793          	srai	a5,a4,0x1f
    14e0:	41f6d613          	srai	a2,a3,0x1f
    14e4:	02d787b3          	mul	a5,a5,a3
    14e8:	02e60633          	mul	a2,a2,a4
    14ec:	00c787b3          	add	a5,a5,a2
    14f0:	02d70633          	mul	a2,a4,a3
    14f4:	02d73733          	mulhu	a4,a4,a3
    14f8:	00e787b3          	add	a5,a5,a4
    14fc:	01079793          	slli	a5,a5,0x10
    1500:	01065713          	srli	a4,a2,0x10
    1504:	00e787b3          	add	a5,a5,a4
    1508:	00f12c23          	sw	a5,24(sp)
    150c:	0084a703          	lw	a4,8(s1)
    1510:	41f75793          	srai	a5,a4,0x1f
    1514:	41fcd693          	srai	a3,s9,0x1f
    1518:	039787b3          	mul	a5,a5,s9
    151c:	02e686b3          	mul	a3,a3,a4
    1520:	00d787b3          	add	a5,a5,a3
    1524:	039706b3          	mul	a3,a4,s9
    1528:	03973733          	mulhu	a4,a4,s9
    152c:	00e787b3          	add	a5,a5,a4
    1530:	01079793          	slli	a5,a5,0x10
    1534:	0106d713          	srli	a4,a3,0x10
    1538:	00e78733          	add	a4,a5,a4
    153c:	00e12e23          	sw	a4,28(sp)

00001540 <T2_end>:
    1540:	b00027f3          	csrr	a5,mcycle
    1544:	41a787b3          	sub	a5,a5,s10
    1548:	00fa2423          	sw	a5,8(s4)
    154c:	00020737          	lui	a4,0x20
    1550:	01812783          	lw	a5,24(sp)
    1554:	01c12603          	lw	a2,28(sp)
    1558:	00f627b3          	slt	a5,a2,a5
    155c:	0017b793          	seqz	a5,a5
    1560:	94018693          	addi	a3,gp,-1728 # 21480 <next.14>
    1564:	20d7c7b3          	sh2add	a5,a5,a3
    1568:	0007a783          	lw	a5,0(a5) # 10000 <syscalls.c.42d7056b+0x1004>
    156c:	10470713          	addi	a4,a4,260 # 20104 <jump_table.17>
    1570:	20e7c7b3          	sh2add	a5,a5,a4
    1574:	0007a783          	lw	a5,0(a5)
    1578:	11412d03          	lw	s10,276(sp)
    157c:	e20ff06f          	j	b9c <inferenceTPG+0x4c>
    1580:	000c8693          	mv	a3,s9
    1584:	00000b13          	li	s6,0
    1588:	bc9ff06f          	j	1150 <T2_start+0x34>
    158c:	000107b7          	lui	a5,0x10
    1590:	f79ff06f          	j	1508 <T2_start+0x3ec>
    1594:	00078b13          	mv	s6,a5
    1598:	fff00793          	li	a5,-1
    159c:	41600b33          	neg	s6,s6
    15a0:	e19ff06f          	j	13b8 <T2_start+0x29c>
    15a4:	416007b3          	neg	a5,s6
    15a8:	4107d793          	srai	a5,a5,0x10
    15ac:	00010737          	lui	a4,0x10
    15b0:	40f75733          	sra	a4,a4,a5
    15b4:	f29ff06f          	j	14dc <T2_start+0x3c0>

000015b8 <T3_start>:
    15b8:	b00026f3          	csrr	a3,mcycle
    15bc:	0089a703          	lw	a4,8(s3)
    15c0:	0009a783          	lw	a5,0(s3)
    15c4:	00e787b3          	add	a5,a5,a4
    15c8:	02f12023          	sw	a5,32(sp)
    15cc:	0044a783          	lw	a5,4(s1)
    15d0:	00e787b3          	add	a5,a5,a4
    15d4:	02f12223          	sw	a5,36(sp)

000015d8 <T3_end>:
    15d8:	b00027f3          	csrr	a5,mcycle
    15dc:	40d787b3          	sub	a5,a5,a3
    15e0:	00fa2623          	sw	a5,12(s4)
    15e4:	00020737          	lui	a4,0x20
    15e8:	02012783          	lw	a5,32(sp)
    15ec:	02412603          	lw	a2,36(sp)
    15f0:	00f627b3          	slt	a5,a2,a5
    15f4:	0017b793          	seqz	a5,a5
    15f8:	93818693          	addi	a3,gp,-1736 # 21478 <next.13>
    15fc:	20d7c7b3          	sh2add	a5,a5,a3
    1600:	0007a783          	lw	a5,0(a5) # 10000 <syscalls.c.42d7056b+0x1004>
    1604:	10470713          	addi	a4,a4,260 # 20104 <jump_table.17>
    1608:	20e7c7b3          	sh2add	a5,a5,a4
    160c:	0007a783          	lw	a5,0(a5)
    1610:	d8cff06f          	j	b9c <inferenceTPG+0x4c>

00001614 <T4_start>:
    1614:	b00027f3          	csrr	a5,mcycle
    1618:	00078c93          	mv	s9,a5
    161c:	0044ab03          	lw	s6,4(s1)
    1620:	000107b7          	lui	a5,0x10
    1624:	180b0c63          	beqz	s6,17bc <T4_start+0x1a8>
    1628:	41600733          	neg	a4,s6
    162c:	0aeb6733          	max	a4,s6,a4
    1630:	41f75793          	srai	a5,a4,0x1f
    1634:	000176b7          	lui	a3,0x17
    1638:	15468693          	addi	a3,a3,340 # 17154 <heap.cpp.6b15d6f6+0x54eb>
    163c:	02d787b3          	mul	a5,a5,a3
    1640:	02d70bb3          	mul	s7,a4,a3
    1644:	02d73733          	mulhu	a4,a4,a3
    1648:	00e787b3          	add	a5,a5,a4
    164c:	01079793          	slli	a5,a5,0x10
    1650:	010bdb93          	srli	s7,s7,0x10
    1654:	01778bb3          	add	s7,a5,s7
    1658:	000087b7          	lui	a5,0x8
    165c:	00fb8bb3          	add	s7,s7,a5
    1660:	ffff07b7          	lui	a5,0xffff0
    1664:	00fbfbb3          	and	s7,s7,a5
    1668:	360b4263          	bltz	s6,19cc <T4_end+0x54>
    166c:	41fbd713          	srai	a4,s7,0x1f
    1670:	0000b6b7          	lui	a3,0xb
    1674:	17268693          	addi	a3,a3,370 # b172 <__power_manager_start+0x172>
    1678:	02d70733          	mul	a4,a4,a3
    167c:	02db87b3          	mul	a5,s7,a3
    1680:	02dbb6b3          	mulhu	a3,s7,a3
    1684:	00d70733          	add	a4,a4,a3
    1688:	01071713          	slli	a4,a4,0x10
    168c:	0107d793          	srli	a5,a5,0x10
    1690:	00f707b3          	add	a5,a4,a5
    1694:	40fb07b3          	sub	a5,s6,a5
    1698:	41f7d693          	srai	a3,a5,0x1f
    169c:	02f686b3          	mul	a3,a3,a5
    16a0:	02f78733          	mul	a4,a5,a5
    16a4:	02f7b633          	mulhu	a2,a5,a5
    16a8:	20c6a6b3          	sh1add	a3,a3,a2
    16ac:	01069693          	slli	a3,a3,0x10
    16b0:	01075713          	srli	a4,a4,0x10
    16b4:	00e68733          	add	a4,a3,a4
    16b8:	41f75513          	srai	a0,a4,0x1f
    16bc:	01e75693          	srli	a3,a4,0x1e
    16c0:	20d546b3          	sh2add	a3,a0,a3
    16c4:	00271613          	slli	a2,a4,0x2
    16c8:	01069693          	slli	a3,a3,0x10
    16cc:	01065613          	srli	a2,a2,0x10
    16d0:	00c68633          	add	a2,a3,a2
    16d4:	f4a60613          	addi	a2,a2,-182
    16d8:	41f65593          	srai	a1,a2,0x1f
    16dc:	02e585b3          	mul	a1,a1,a4
    16e0:	02c506b3          	mul	a3,a0,a2
    16e4:	00d585b3          	add	a1,a1,a3
    16e8:	02e606b3          	mul	a3,a2,a4
    16ec:	02e63633          	mulhu	a2,a2,a4
    16f0:	00c58633          	add	a2,a1,a2
    16f4:	01061613          	slli	a2,a2,0x10
    16f8:	0106d693          	srli	a3,a3,0x10
    16fc:	00d606b3          	add	a3,a2,a3
    1700:	00003637          	lui	a2,0x3
    1704:	aab60613          	addi	a2,a2,-1365 # 2aab <T9_start+0x1e3>
    1708:	00c686b3          	add	a3,a3,a2
    170c:	41f6d613          	srai	a2,a3,0x1f
    1710:	02e60633          	mul	a2,a2,a4
    1714:	02d50533          	mul	a0,a0,a3
    1718:	00a60633          	add	a2,a2,a0
    171c:	02e685b3          	mul	a1,a3,a4
    1720:	02e6b6b3          	mulhu	a3,a3,a4
    1724:	00d60733          	add	a4,a2,a3
    1728:	01071713          	slli	a4,a4,0x10
    172c:	0105d693          	srli	a3,a1,0x10
    1730:	00d706b3          	add	a3,a4,a3
    1734:	00020737          	lui	a4,0x20
    1738:	00e686b3          	add	a3,a3,a4
    173c:	40f68633          	sub	a2,a3,a5
    1740:	02f68c63          	beq	a3,a5,1778 <T4_start+0x164>
    1744:	00f7d713          	srli	a4,a5,0xf
    1748:	01179793          	slli	a5,a5,0x11
    174c:	01071713          	slli	a4,a4,0x10
    1750:	0107d793          	srli	a5,a5,0x10
    1754:	00f707b3          	add	a5,a4,a5
    1758:	41f7d713          	srai	a4,a5,0x1f
    175c:	0107d593          	srli	a1,a5,0x10
    1760:	01071713          	slli	a4,a4,0x10
    1764:	41f65693          	srai	a3,a2,0x1f
    1768:	01079513          	slli	a0,a5,0x10
    176c:	00e585b3          	add	a1,a1,a4
    1770:	1cd070ef          	jal	913c <__divdi3>
    1774:	00050613          	mv	a2,a0
    1778:	000107b7          	lui	a5,0x10
    177c:	00f606b3          	add	a3,a2,a5
    1780:	240bca63          	bltz	s7,19d4 <T4_end+0x5c>
    1784:	410bdb93          	srai	s7,s7,0x10
    1788:	00010737          	lui	a4,0x10
    178c:	01771733          	sll	a4,a4,s7
    1790:	41f75793          	srai	a5,a4,0x1f
    1794:	41f6d613          	srai	a2,a3,0x1f
    1798:	02d787b3          	mul	a5,a5,a3
    179c:	02e60633          	mul	a2,a2,a4
    17a0:	00c787b3          	add	a5,a5,a2
    17a4:	02d70633          	mul	a2,a4,a3
    17a8:	02d73733          	mulhu	a4,a4,a3
    17ac:	00e787b3          	add	a5,a5,a4
    17b0:	01079793          	slli	a5,a5,0x10
    17b4:	01065713          	srli	a4,a2,0x10
    17b8:	00e787b3          	add	a5,a5,a4
    17bc:	00fb07b3          	add	a5,s6,a5
    17c0:	02f12e23          	sw	a5,60(sp)
    17c4:	0004a783          	lw	a5,0(s1)
    17c8:	00010737          	lui	a4,0x10
    17cc:	18078c63          	beqz	a5,1964 <T4_start+0x350>
    17d0:	40f006b3          	neg	a3,a5
    17d4:	0ad7e6b3          	max	a3,a5,a3
    17d8:	41f6d713          	srai	a4,a3,0x1f
    17dc:	00017637          	lui	a2,0x17
    17e0:	15460613          	addi	a2,a2,340 # 17154 <heap.cpp.6b15d6f6+0x54eb>
    17e4:	02c70733          	mul	a4,a4,a2
    17e8:	02c68bb3          	mul	s7,a3,a2
    17ec:	02c6b6b3          	mulhu	a3,a3,a2
    17f0:	00d70733          	add	a4,a4,a3
    17f4:	01071713          	slli	a4,a4,0x10
    17f8:	010bdb93          	srli	s7,s7,0x10
    17fc:	01770bb3          	add	s7,a4,s7
    1800:	00008737          	lui	a4,0x8
    1804:	00eb8bb3          	add	s7,s7,a4
    1808:	ffff0737          	lui	a4,0xffff0
    180c:	00ebfbb3          	and	s7,s7,a4
    1810:	1c07cc63          	bltz	a5,19e8 <T4_end+0x70>
    1814:	41fbd713          	srai	a4,s7,0x1f
    1818:	0000b6b7          	lui	a3,0xb
    181c:	17268693          	addi	a3,a3,370 # b172 <__power_manager_start+0x172>
    1820:	02d70733          	mul	a4,a4,a3
    1824:	02db8633          	mul	a2,s7,a3
    1828:	02dbb6b3          	mulhu	a3,s7,a3
    182c:	00d70733          	add	a4,a4,a3
    1830:	01071713          	slli	a4,a4,0x10
    1834:	01065693          	srli	a3,a2,0x10
    1838:	00d706b3          	add	a3,a4,a3
    183c:	40d787b3          	sub	a5,a5,a3
    1840:	41f7d693          	srai	a3,a5,0x1f
    1844:	02f686b3          	mul	a3,a3,a5
    1848:	02f78733          	mul	a4,a5,a5
    184c:	02f7b633          	mulhu	a2,a5,a5
    1850:	20c6a6b3          	sh1add	a3,a3,a2
    1854:	01069693          	slli	a3,a3,0x10
    1858:	01075713          	srli	a4,a4,0x10
    185c:	00e68733          	add	a4,a3,a4
    1860:	41f75513          	srai	a0,a4,0x1f
    1864:	01e75693          	srli	a3,a4,0x1e
    1868:	20d546b3          	sh2add	a3,a0,a3
    186c:	00271613          	slli	a2,a4,0x2
    1870:	01069693          	slli	a3,a3,0x10
    1874:	01065613          	srli	a2,a2,0x10
    1878:	00c68633          	add	a2,a3,a2
    187c:	f4a60613          	addi	a2,a2,-182
    1880:	41f65593          	srai	a1,a2,0x1f
    1884:	02e585b3          	mul	a1,a1,a4
    1888:	02c506b3          	mul	a3,a0,a2
    188c:	00d585b3          	add	a1,a1,a3
    1890:	02e606b3          	mul	a3,a2,a4
    1894:	02e63633          	mulhu	a2,a2,a4
    1898:	00c58633          	add	a2,a1,a2
    189c:	01061613          	slli	a2,a2,0x10
    18a0:	0106d693          	srli	a3,a3,0x10
    18a4:	00d606b3          	add	a3,a2,a3
    18a8:	00003637          	lui	a2,0x3
    18ac:	aab60613          	addi	a2,a2,-1365 # 2aab <T9_start+0x1e3>
    18b0:	00c686b3          	add	a3,a3,a2
    18b4:	41f6d613          	srai	a2,a3,0x1f
    18b8:	02e60633          	mul	a2,a2,a4
    18bc:	02d50533          	mul	a0,a0,a3
    18c0:	00a60633          	add	a2,a2,a0
    18c4:	02e685b3          	mul	a1,a3,a4
    18c8:	02e6b6b3          	mulhu	a3,a3,a4
    18cc:	00d60733          	add	a4,a2,a3
    18d0:	01071713          	slli	a4,a4,0x10
    18d4:	0105d693          	srli	a3,a1,0x10
    18d8:	00d706b3          	add	a3,a4,a3
    18dc:	00020737          	lui	a4,0x20
    18e0:	00e686b3          	add	a3,a3,a4
    18e4:	40f68633          	sub	a2,a3,a5
    18e8:	02f68c63          	beq	a3,a5,1920 <T4_start+0x30c>
    18ec:	00f7d713          	srli	a4,a5,0xf
    18f0:	01179793          	slli	a5,a5,0x11
    18f4:	01071713          	slli	a4,a4,0x10
    18f8:	0107d793          	srli	a5,a5,0x10
    18fc:	00f707b3          	add	a5,a4,a5
    1900:	41f7d713          	srai	a4,a5,0x1f
    1904:	0107d593          	srli	a1,a5,0x10
    1908:	01071713          	slli	a4,a4,0x10
    190c:	41f65693          	srai	a3,a2,0x1f
    1910:	01079513          	slli	a0,a5,0x10
    1914:	00e585b3          	add	a1,a1,a4
    1918:	025070ef          	jal	913c <__divdi3>
    191c:	00050613          	mv	a2,a0
    1920:	000107b7          	lui	a5,0x10
    1924:	00f606b3          	add	a3,a2,a5
    1928:	0c0bc463          	bltz	s7,19f0 <T4_end+0x78>
    192c:	410bdb93          	srai	s7,s7,0x10
    1930:	000107b7          	lui	a5,0x10
    1934:	017797b3          	sll	a5,a5,s7
    1938:	41f7d713          	srai	a4,a5,0x1f
    193c:	41f6d613          	srai	a2,a3,0x1f
    1940:	02d70733          	mul	a4,a4,a3
    1944:	02f60633          	mul	a2,a2,a5
    1948:	00c70733          	add	a4,a4,a2
    194c:	02d78633          	mul	a2,a5,a3
    1950:	02d7b7b3          	mulhu	a5,a5,a3
    1954:	00f70733          	add	a4,a4,a5
    1958:	01071713          	slli	a4,a4,0x10
    195c:	01065793          	srli	a5,a2,0x10
    1960:	00f70733          	add	a4,a4,a5
    1964:	04e12023          	sw	a4,64(sp)
    1968:	0089a783          	lw	a5,8(s3)
    196c:	0009a703          	lw	a4,0(s3)
    1970:	00e787b3          	add	a5,a5,a4
    1974:	04f12223          	sw	a5,68(sp)

00001978 <T4_end>:
    1978:	b00027f3          	csrr	a5,mcycle
    197c:	419787b3          	sub	a5,a5,s9
    1980:	00fa2823          	sw	a5,16(s4)
    1984:	03c12683          	lw	a3,60(sp)
    1988:	04012703          	lw	a4,64(sp)
    198c:	00100793          	li	a5,1
    1990:	00d75663          	bge	a4,a3,199c <T4_end+0x24>
    1994:	00068713          	mv	a4,a3
    1998:	00000793          	li	a5,0
    199c:	04412683          	lw	a3,68(sp)
    19a0:	00e6c463          	blt	a3,a4,19a8 <T4_end+0x30>
    19a4:	00200793          	li	a5,2
    19a8:	00020737          	lui	a4,0x20
    19ac:	000206b7          	lui	a3,0x20
    19b0:	0f868693          	addi	a3,a3,248 # 200f8 <next.12>
    19b4:	20d7c7b3          	sh2add	a5,a5,a3
    19b8:	0007a783          	lw	a5,0(a5) # 10000 <syscalls.c.42d7056b+0x1004>
    19bc:	10470713          	addi	a4,a4,260 # 20104 <jump_table.17>
    19c0:	20e7c7b3          	sh2add	a5,a5,a4
    19c4:	0007a783          	lw	a5,0(a5)
    19c8:	9d4ff06f          	j	b9c <inferenceTPG+0x4c>
    19cc:	41700bb3          	neg	s7,s7
    19d0:	c9dff06f          	j	166c <T4_start+0x58>
    19d4:	417007b3          	neg	a5,s7
    19d8:	4107d793          	srai	a5,a5,0x10
    19dc:	00010737          	lui	a4,0x10
    19e0:	40f75733          	sra	a4,a4,a5
    19e4:	dadff06f          	j	1790 <T4_start+0x17c>
    19e8:	41700bb3          	neg	s7,s7
    19ec:	e29ff06f          	j	1814 <T4_start+0x200>
    19f0:	41700733          	neg	a4,s7
    19f4:	41075713          	srai	a4,a4,0x10
    19f8:	40e7d7b3          	sra	a5,a5,a4
    19fc:	f3dff06f          	j	1938 <T4_start+0x324>

00001a00 <T5_start>:
    1a00:	b00026f3          	csrr	a3,mcycle
    1a04:	00092703          	lw	a4,0(s2)
    1a08:	0044a783          	lw	a5,4(s1)
    1a0c:	0ae7e7b3          	max	a5,a5,a4
    1a10:	02f12423          	sw	a5,40(sp)
    1a14:	0004a783          	lw	a5,0(s1)
    1a18:	00e787b3          	add	a5,a5,a4
    1a1c:	02f12623          	sw	a5,44(sp)

00001a20 <T5_end>:
    1a20:	b00027f3          	csrr	a5,mcycle
    1a24:	40d787b3          	sub	a5,a5,a3
    1a28:	00fa2a23          	sw	a5,20(s4)
    1a2c:	00020737          	lui	a4,0x20
    1a30:	02812783          	lw	a5,40(sp)
    1a34:	02c12603          	lw	a2,44(sp)
    1a38:	00f627b3          	slt	a5,a2,a5
    1a3c:	0017b793          	seqz	a5,a5
    1a40:	93018693          	addi	a3,gp,-1744 # 21470 <next.11>
    1a44:	20d7c7b3          	sh2add	a5,a5,a3
    1a48:	0007a783          	lw	a5,0(a5)
    1a4c:	10470713          	addi	a4,a4,260 # 20104 <jump_table.17>
    1a50:	20e7c7b3          	sh2add	a5,a5,a4
    1a54:	0007a783          	lw	a5,0(a5)
    1a58:	944ff06f          	j	b9c <inferenceTPG+0x4c>

00001a5c <T6_start>:
    1a5c:	b00027f3          	csrr	a5,mcycle
    1a60:	00078c93          	mv	s9,a5
    1a64:	00492783          	lw	a5,4(s2)
    1a68:	0089a703          	lw	a4,8(s3)
    1a6c:	0ae7e7b3          	max	a5,a5,a4
    1a70:	04f12a23          	sw	a5,84(sp)
    1a74:	0049a703          	lw	a4,4(s3)
    1a78:	0044ab03          	lw	s6,4(s1)
    1a7c:	41fb5793          	srai	a5,s6,0x1f
    1a80:	41f75693          	srai	a3,a4,0x1f
    1a84:	02e787b3          	mul	a5,a5,a4
    1a88:	036686b3          	mul	a3,a3,s6
    1a8c:	00d787b3          	add	a5,a5,a3
    1a90:	02eb06b3          	mul	a3,s6,a4
    1a94:	02eb3633          	mulhu	a2,s6,a4
    1a98:	00c787b3          	add	a5,a5,a2
    1a9c:	01079793          	slli	a5,a5,0x10
    1aa0:	0106d693          	srli	a3,a3,0x10
    1aa4:	00d786b3          	add	a3,a5,a3
    1aa8:	40d70733          	sub	a4,a4,a3
    1aac:	04e12c23          	sw	a4,88(sp)
    1ab0:	000107b7          	lui	a5,0x10
    1ab4:	180b0c63          	beqz	s6,1c4c <T6_start+0x1f0>
    1ab8:	41600733          	neg	a4,s6
    1abc:	0aeb6733          	max	a4,s6,a4
    1ac0:	41f75793          	srai	a5,a4,0x1f
    1ac4:	000176b7          	lui	a3,0x17
    1ac8:	15468693          	addi	a3,a3,340 # 17154 <heap.cpp.6b15d6f6+0x54eb>
    1acc:	02d787b3          	mul	a5,a5,a3
    1ad0:	02d70bb3          	mul	s7,a4,a3
    1ad4:	02d73733          	mulhu	a4,a4,a3
    1ad8:	00e787b3          	add	a5,a5,a4
    1adc:	01079793          	slli	a5,a5,0x10
    1ae0:	010bdb93          	srli	s7,s7,0x10
    1ae4:	01778bb3          	add	s7,a5,s7
    1ae8:	000087b7          	lui	a5,0x8
    1aec:	00fb8bb3          	add	s7,s7,a5
    1af0:	ffff07b7          	lui	a5,0xffff0
    1af4:	00fbfbb3          	and	s7,s7,a5
    1af8:	360b4063          	bltz	s6,1e58 <T6_end+0x60>
    1afc:	41fbd693          	srai	a3,s7,0x1f
    1b00:	0000b637          	lui	a2,0xb
    1b04:	17260613          	addi	a2,a2,370 # b172 <__power_manager_start+0x172>
    1b08:	02c686b3          	mul	a3,a3,a2
    1b0c:	02cb87b3          	mul	a5,s7,a2
    1b10:	02cbb633          	mulhu	a2,s7,a2
    1b14:	00c686b3          	add	a3,a3,a2
    1b18:	01069693          	slli	a3,a3,0x10
    1b1c:	0107d793          	srli	a5,a5,0x10
    1b20:	00f687b3          	add	a5,a3,a5
    1b24:	40fb0733          	sub	a4,s6,a5
    1b28:	41f75693          	srai	a3,a4,0x1f
    1b2c:	02e686b3          	mul	a3,a3,a4
    1b30:	02e707b3          	mul	a5,a4,a4
    1b34:	02e73633          	mulhu	a2,a4,a4
    1b38:	20c6a6b3          	sh1add	a3,a3,a2
    1b3c:	01069693          	slli	a3,a3,0x10
    1b40:	0107d793          	srli	a5,a5,0x10
    1b44:	00f687b3          	add	a5,a3,a5
    1b48:	41f7d513          	srai	a0,a5,0x1f
    1b4c:	01e7d693          	srli	a3,a5,0x1e
    1b50:	20d546b3          	sh2add	a3,a0,a3
    1b54:	00279613          	slli	a2,a5,0x2
    1b58:	01069693          	slli	a3,a3,0x10
    1b5c:	01065613          	srli	a2,a2,0x10
    1b60:	00c68633          	add	a2,a3,a2
    1b64:	f4a60613          	addi	a2,a2,-182
    1b68:	41f65593          	srai	a1,a2,0x1f
    1b6c:	02f585b3          	mul	a1,a1,a5
    1b70:	02c506b3          	mul	a3,a0,a2
    1b74:	00d585b3          	add	a1,a1,a3
    1b78:	02f606b3          	mul	a3,a2,a5
    1b7c:	02f63633          	mulhu	a2,a2,a5
    1b80:	00c58633          	add	a2,a1,a2
    1b84:	01061613          	slli	a2,a2,0x10
    1b88:	0106d693          	srli	a3,a3,0x10
    1b8c:	00d606b3          	add	a3,a2,a3
    1b90:	00003637          	lui	a2,0x3
    1b94:	aab60613          	addi	a2,a2,-1365 # 2aab <T9_start+0x1e3>
    1b98:	00c686b3          	add	a3,a3,a2
    1b9c:	41f6d613          	srai	a2,a3,0x1f
    1ba0:	02f60633          	mul	a2,a2,a5
    1ba4:	02d50533          	mul	a0,a0,a3
    1ba8:	00a60633          	add	a2,a2,a0
    1bac:	02f685b3          	mul	a1,a3,a5
    1bb0:	02f6b6b3          	mulhu	a3,a3,a5
    1bb4:	00d607b3          	add	a5,a2,a3
    1bb8:	01079793          	slli	a5,a5,0x10
    1bbc:	0105d693          	srli	a3,a1,0x10
    1bc0:	00d786b3          	add	a3,a5,a3
    1bc4:	000207b7          	lui	a5,0x20
    1bc8:	00f686b3          	add	a3,a3,a5
    1bcc:	40e68633          	sub	a2,a3,a4
    1bd0:	02e68c63          	beq	a3,a4,1c08 <T6_start+0x1ac>
    1bd4:	00f75693          	srli	a3,a4,0xf
    1bd8:	01171793          	slli	a5,a4,0x11
    1bdc:	01069713          	slli	a4,a3,0x10
    1be0:	0107d793          	srli	a5,a5,0x10
    1be4:	00f707b3          	add	a5,a4,a5
    1be8:	41f7d713          	srai	a4,a5,0x1f
    1bec:	0107d593          	srli	a1,a5,0x10
    1bf0:	01071713          	slli	a4,a4,0x10
    1bf4:	41f65693          	srai	a3,a2,0x1f
    1bf8:	01079513          	slli	a0,a5,0x10
    1bfc:	00e585b3          	add	a1,a1,a4
    1c00:	53c070ef          	jal	913c <__divdi3>
    1c04:	00050613          	mv	a2,a0
    1c08:	000107b7          	lui	a5,0x10
    1c0c:	00f606b3          	add	a3,a2,a5
    1c10:	240bc863          	bltz	s7,1e60 <T6_end+0x68>
    1c14:	410bdb93          	srai	s7,s7,0x10
    1c18:	00010737          	lui	a4,0x10
    1c1c:	01771733          	sll	a4,a4,s7
    1c20:	41f75793          	srai	a5,a4,0x1f
    1c24:	41f6d613          	srai	a2,a3,0x1f
    1c28:	02d787b3          	mul	a5,a5,a3
    1c2c:	02e60633          	mul	a2,a2,a4
    1c30:	00c787b3          	add	a5,a5,a2
    1c34:	02d70633          	mul	a2,a4,a3
    1c38:	02d73733          	mulhu	a4,a4,a3
    1c3c:	00e787b3          	add	a5,a5,a4
    1c40:	01079793          	slli	a5,a5,0x10
    1c44:	01065713          	srli	a4,a2,0x10
    1c48:	00e787b3          	add	a5,a5,a4
    1c4c:	00fb07b3          	add	a5,s6,a5
    1c50:	04f12e23          	sw	a5,92(sp)
    1c54:	0004a783          	lw	a5,0(s1)
    1c58:	00010737          	lui	a4,0x10
    1c5c:	18078c63          	beqz	a5,1df4 <T6_start+0x398>
    1c60:	40f006b3          	neg	a3,a5
    1c64:	0ad7e6b3          	max	a3,a5,a3
    1c68:	41f6d713          	srai	a4,a3,0x1f
    1c6c:	00017637          	lui	a2,0x17
    1c70:	15460613          	addi	a2,a2,340 # 17154 <heap.cpp.6b15d6f6+0x54eb>
    1c74:	02c70733          	mul	a4,a4,a2
    1c78:	02c68bb3          	mul	s7,a3,a2
    1c7c:	02c6b6b3          	mulhu	a3,a3,a2
    1c80:	00d70733          	add	a4,a4,a3
    1c84:	01071713          	slli	a4,a4,0x10
    1c88:	010bdb93          	srli	s7,s7,0x10
    1c8c:	01770bb3          	add	s7,a4,s7
    1c90:	00008737          	lui	a4,0x8
    1c94:	00eb8bb3          	add	s7,s7,a4
    1c98:	ffff0737          	lui	a4,0xffff0
    1c9c:	00ebfbb3          	and	s7,s7,a4
    1ca0:	1c07ca63          	bltz	a5,1e74 <T6_end+0x7c>
    1ca4:	41fbd713          	srai	a4,s7,0x1f
    1ca8:	0000b6b7          	lui	a3,0xb
    1cac:	17268693          	addi	a3,a3,370 # b172 <__power_manager_start+0x172>
    1cb0:	02d70733          	mul	a4,a4,a3
    1cb4:	02db8633          	mul	a2,s7,a3
    1cb8:	02dbb6b3          	mulhu	a3,s7,a3
    1cbc:	00d70733          	add	a4,a4,a3
    1cc0:	01071713          	slli	a4,a4,0x10
    1cc4:	01065693          	srli	a3,a2,0x10
    1cc8:	00d706b3          	add	a3,a4,a3
    1ccc:	40d787b3          	sub	a5,a5,a3
    1cd0:	41f7d693          	srai	a3,a5,0x1f
    1cd4:	02f686b3          	mul	a3,a3,a5
    1cd8:	02f78733          	mul	a4,a5,a5
    1cdc:	02f7b633          	mulhu	a2,a5,a5
    1ce0:	20c6a6b3          	sh1add	a3,a3,a2
    1ce4:	01069693          	slli	a3,a3,0x10
    1ce8:	01075713          	srli	a4,a4,0x10
    1cec:	00e68733          	add	a4,a3,a4
    1cf0:	41f75513          	srai	a0,a4,0x1f
    1cf4:	01e75693          	srli	a3,a4,0x1e
    1cf8:	20d546b3          	sh2add	a3,a0,a3
    1cfc:	00271613          	slli	a2,a4,0x2
    1d00:	01069693          	slli	a3,a3,0x10
    1d04:	01065613          	srli	a2,a2,0x10
    1d08:	00c68633          	add	a2,a3,a2
    1d0c:	f4a60613          	addi	a2,a2,-182
    1d10:	41f65593          	srai	a1,a2,0x1f
    1d14:	02e585b3          	mul	a1,a1,a4
    1d18:	02c506b3          	mul	a3,a0,a2
    1d1c:	00d585b3          	add	a1,a1,a3
    1d20:	02e606b3          	mul	a3,a2,a4
    1d24:	02e63633          	mulhu	a2,a2,a4
    1d28:	00c58633          	add	a2,a1,a2
    1d2c:	01061613          	slli	a2,a2,0x10
    1d30:	0106d693          	srli	a3,a3,0x10
    1d34:	00d606b3          	add	a3,a2,a3
    1d38:	00003637          	lui	a2,0x3
    1d3c:	aab60613          	addi	a2,a2,-1365 # 2aab <T9_start+0x1e3>
    1d40:	00c686b3          	add	a3,a3,a2
    1d44:	41f6d613          	srai	a2,a3,0x1f
    1d48:	02e60633          	mul	a2,a2,a4
    1d4c:	02d50533          	mul	a0,a0,a3
    1d50:	00a60633          	add	a2,a2,a0
    1d54:	02e685b3          	mul	a1,a3,a4
    1d58:	02e6b6b3          	mulhu	a3,a3,a4
    1d5c:	00d60733          	add	a4,a2,a3
    1d60:	01071713          	slli	a4,a4,0x10
    1d64:	0105d693          	srli	a3,a1,0x10
    1d68:	00d706b3          	add	a3,a4,a3
    1d6c:	00020737          	lui	a4,0x20
    1d70:	00e686b3          	add	a3,a3,a4
    1d74:	40f68633          	sub	a2,a3,a5
    1d78:	02f68c63          	beq	a3,a5,1db0 <T6_start+0x354>
    1d7c:	00f7d713          	srli	a4,a5,0xf
    1d80:	01179793          	slli	a5,a5,0x11
    1d84:	01071713          	slli	a4,a4,0x10
    1d88:	0107d793          	srli	a5,a5,0x10
    1d8c:	00f707b3          	add	a5,a4,a5
    1d90:	41f7d713          	srai	a4,a5,0x1f
    1d94:	0107d593          	srli	a1,a5,0x10
    1d98:	01071713          	slli	a4,a4,0x10
    1d9c:	41f65693          	srai	a3,a2,0x1f
    1da0:	01079513          	slli	a0,a5,0x10
    1da4:	00e585b3          	add	a1,a1,a4
    1da8:	394070ef          	jal	913c <__divdi3>
    1dac:	00050613          	mv	a2,a0
    1db0:	000107b7          	lui	a5,0x10
    1db4:	00f606b3          	add	a3,a2,a5
    1db8:	0c0bc263          	bltz	s7,1e7c <T6_end+0x84>
    1dbc:	410bdb93          	srai	s7,s7,0x10
    1dc0:	000107b7          	lui	a5,0x10
    1dc4:	017797b3          	sll	a5,a5,s7
    1dc8:	41f7d713          	srai	a4,a5,0x1f
    1dcc:	41f6d613          	srai	a2,a3,0x1f
    1dd0:	02d70733          	mul	a4,a4,a3
    1dd4:	02f60633          	mul	a2,a2,a5
    1dd8:	00c70733          	add	a4,a4,a2
    1ddc:	02d78633          	mul	a2,a5,a3
    1de0:	02d7b7b3          	mulhu	a5,a5,a3
    1de4:	00f70733          	add	a4,a4,a5
    1de8:	01071713          	slli	a4,a4,0x10
    1dec:	01065793          	srli	a5,a2,0x10
    1df0:	00f70733          	add	a4,a4,a5
    1df4:	06e12023          	sw	a4,96(sp)

00001df8 <T6_end>:
    1df8:	b00027f3          	csrr	a5,mcycle
    1dfc:	419787b3          	sub	a5,a5,s9
    1e00:	00fa2c23          	sw	a5,24(s4)
    1e04:	05412683          	lw	a3,84(sp)
    1e08:	05812703          	lw	a4,88(sp)
    1e0c:	00100793          	li	a5,1
    1e10:	00d75663          	bge	a4,a3,1e1c <T6_end+0x24>
    1e14:	00068713          	mv	a4,a3
    1e18:	00000793          	li	a5,0
    1e1c:	05c12683          	lw	a3,92(sp)
    1e20:	06e6d663          	bge	a3,a4,1e8c <T6_end+0x94>
    1e24:	00070693          	mv	a3,a4
    1e28:	06012703          	lw	a4,96(sp)
    1e2c:	00d74463          	blt	a4,a3,1e34 <T6_end+0x3c>
    1e30:	00300793          	li	a5,3
    1e34:	00020737          	lui	a4,0x20
    1e38:	000206b7          	lui	a3,0x20
    1e3c:	0e868693          	addi	a3,a3,232 # 200e8 <next.10>
    1e40:	20d7c7b3          	sh2add	a5,a5,a3
    1e44:	0007a783          	lw	a5,0(a5) # 10000 <syscalls.c.42d7056b+0x1004>
    1e48:	10470713          	addi	a4,a4,260 # 20104 <jump_table.17>
    1e4c:	20e7c7b3          	sh2add	a5,a5,a4
    1e50:	0007a783          	lw	a5,0(a5)
    1e54:	d49fe06f          	j	b9c <inferenceTPG+0x4c>
    1e58:	41700bb3          	neg	s7,s7
    1e5c:	ca1ff06f          	j	1afc <T6_start+0xa0>
    1e60:	417007b3          	neg	a5,s7
    1e64:	4107d793          	srai	a5,a5,0x10
    1e68:	00010737          	lui	a4,0x10
    1e6c:	40f75733          	sra	a4,a4,a5
    1e70:	db1ff06f          	j	1c20 <T6_start+0x1c4>
    1e74:	41700bb3          	neg	s7,s7
    1e78:	e2dff06f          	j	1ca4 <T6_start+0x248>
    1e7c:	41700733          	neg	a4,s7
    1e80:	41075713          	srai	a4,a4,0x10
    1e84:	40e7d7b3          	sra	a5,a5,a4
    1e88:	f41ff06f          	j	1dc8 <T6_start+0x36c>
    1e8c:	00200793          	li	a5,2
    1e90:	f99ff06f          	j	1e28 <T6_end+0x30>
    1e94:	11a12a23          	sw	s10,276(sp)
    1e98:	11b12823          	sw	s11,272(sp)

00001e9c <T7_start>:
    1e9c:	b00027f3          	csrr	a5,mcycle
    1ea0:	00f12423          	sw	a5,8(sp)
    1ea4:	000aa783          	lw	a5,0(s5)
    1ea8:	0084a703          	lw	a4,8(s1)
    1eac:	00070d93          	mv	s11,a4
    1eb0:	00e78733          	add	a4,a5,a4
    1eb4:	0ce12023          	sw	a4,192(sp)
    1eb8:	0009a703          	lw	a4,0(s3)
    1ebc:	00070d13          	mv	s10,a4
    1ec0:	00171713          	slli	a4,a4,0x1
    1ec4:	0ce12223          	sw	a4,196(sp)
    1ec8:	0004a703          	lw	a4,0(s1)
    1ecc:	00070c93          	mv	s9,a4
    1ed0:	0af767b3          	max	a5,a4,a5
    1ed4:	0cf12423          	sw	a5,200(sp)
    1ed8:	0049a683          	lw	a3,4(s3)
    1edc:	00000593          	li	a1,0
    1ee0:	2406c063          	bltz	a3,2120 <T7_start+0x284>
    1ee4:	040684e3          	beqz	a3,272c <T7_end+0x30>
    1ee8:	000207b7          	lui	a5,0x20
    1eec:	02d7dce3          	bge	a5,a3,2724 <T7_end+0x28>
    1ef0:	00000b13          	li	s6,0
    1ef4:	4016d693          	srai	a3,a3,0x1
    1ef8:	001b0b13          	addi	s6,s6,1
    1efc:	fed7cce3          	blt	a5,a3,1ef4 <T7_start+0x58>
    1f00:	ffff0bb7          	lui	s7,0xffff0
    1f04:	01768bb3          	add	s7,a3,s7
    1f08:	41fbd793          	srai	a5,s7,0x1f
    1f0c:	010bd593          	srli	a1,s7,0x10
    1f10:	01079793          	slli	a5,a5,0x10
    1f14:	00010737          	lui	a4,0x10
    1f18:	00e68633          	add	a2,a3,a4
    1f1c:	41f65693          	srai	a3,a2,0x1f
    1f20:	010b9513          	slli	a0,s7,0x10
    1f24:	00f585b3          	add	a1,a1,a5
    1f28:	214070ef          	jal	913c <__divdi3>
    1f2c:	41f55613          	srai	a2,a0,0x1f
    1f30:	02a607b3          	mul	a5,a2,a0
    1f34:	02a50733          	mul	a4,a0,a0
    1f38:	02a536b3          	mulhu	a3,a0,a0
    1f3c:	20d7a7b3          	sh1add	a5,a5,a3
    1f40:	01079793          	slli	a5,a5,0x10
    1f44:	01075713          	srli	a4,a4,0x10
    1f48:	00e78733          	add	a4,a5,a4
    1f4c:	41f75313          	srai	t1,a4,0x1f
    1f50:	02e306b3          	mul	a3,t1,a4
    1f54:	02e707b3          	mul	a5,a4,a4
    1f58:	02e735b3          	mulhu	a1,a4,a4
    1f5c:	20b6a6b3          	sh1add	a3,a3,a1
    1f60:	01069693          	slli	a3,a3,0x10
    1f64:	0107d793          	srli	a5,a5,0x10
    1f68:	00f687b3          	add	a5,a3,a5
    1f6c:	41f7d813          	srai	a6,a5,0x1f
    1f70:	010b1b13          	slli	s6,s6,0x10
    1f74:	41fb5693          	srai	a3,s6,0x1f
    1f78:	0000b8b7          	lui	a7,0xb
    1f7c:	17288893          	addi	a7,a7,370 # b172 <__power_manager_start+0x172>
    1f80:	031686b3          	mul	a3,a3,a7
    1f84:	031b05b3          	mul	a1,s6,a7
    1f88:	031b3b33          	mulhu	s6,s6,a7
    1f8c:	016686b3          	add	a3,a3,s6
    1f90:	01069693          	slli	a3,a3,0x10
    1f94:	0105d593          	srli	a1,a1,0x10
    1f98:	00b685b3          	add	a1,a3,a1
    1f9c:	00bb85b3          	add	a1,s7,a1
    1fa0:	000028b7          	lui	a7,0x2
    1fa4:	5e288893          	addi	a7,a7,1506 # 25e2 <T7_start+0x746>
    1fa8:	03180e33          	mul	t3,a6,a7
    1fac:	031786b3          	mul	a3,a5,a7
    1fb0:	0317b8b3          	mulhu	a7,a5,a7
    1fb4:	011e08b3          	add	a7,t3,a7
    1fb8:	01089893          	slli	a7,a7,0x10
    1fbc:	0106d693          	srli	a3,a3,0x10
    1fc0:	00d886b3          	add	a3,a7,a3
    1fc4:	000038b7          	lui	a7,0x3
    1fc8:	e8d88893          	addi	a7,a7,-371 # 2e8d <T9_start+0x5c5>
    1fcc:	011686b3          	add	a3,a3,a7
    1fd0:	41f6de13          	srai	t3,a3,0x1f
    1fd4:	02fe0e33          	mul	t3,t3,a5
    1fd8:	02d808b3          	mul	a7,a6,a3
    1fdc:	011e0e33          	add	t3,t3,a7
    1fe0:	02f688b3          	mul	a7,a3,a5
    1fe4:	02f6b6b3          	mulhu	a3,a3,a5
    1fe8:	00de06b3          	add	a3,t3,a3
    1fec:	01069693          	slli	a3,a3,0x10
    1ff0:	0108d893          	srli	a7,a7,0x10
    1ff4:	011688b3          	add	a7,a3,a7
    1ff8:	000056b7          	lui	a3,0x5
    1ffc:	92568693          	addi	a3,a3,-1755 # 4925 <handler_irq_fast_timer_3+0x71>
    2000:	00d888b3          	add	a7,a7,a3
    2004:	41f8de13          	srai	t3,a7,0x1f
    2008:	02fe0e33          	mul	t3,t3,a5
    200c:	031806b3          	mul	a3,a6,a7
    2010:	00de0e33          	add	t3,t3,a3
    2014:	02f886b3          	mul	a3,a7,a5
    2018:	02f8b8b3          	mulhu	a7,a7,a5
    201c:	011e08b3          	add	a7,t3,a7
    2020:	01089893          	slli	a7,a7,0x10
    2024:	0106d693          	srli	a3,a3,0x10
    2028:	00d886b3          	add	a3,a7,a3
    202c:	0000b8b7          	lui	a7,0xb
    2030:	aab88893          	addi	a7,a7,-1365 # aaab <main+0x1b3>
    2034:	011686b3          	add	a3,a3,a7
    2038:	41f6d893          	srai	a7,a3,0x1f
    203c:	02e888b3          	mul	a7,a7,a4
    2040:	02d30333          	mul	t1,t1,a3
    2044:	00688333          	add	t1,a7,t1
    2048:	02e688b3          	mul	a7,a3,a4
    204c:	02e6b6b3          	mulhu	a3,a3,a4
    2050:	00d30733          	add	a4,t1,a3
    2054:	01071713          	slli	a4,a4,0x10
    2058:	0108d893          	srli	a7,a7,0x10
    205c:	011708b3          	add	a7,a4,a7
    2060:	00002737          	lui	a4,0x2
    2064:	73470713          	addi	a4,a4,1844 # 2734 <T7_end+0x38>
    2068:	02e80333          	mul	t1,a6,a4
    206c:	02e786b3          	mul	a3,a5,a4
    2070:	02e7b733          	mulhu	a4,a5,a4
    2074:	00e30733          	add	a4,t1,a4
    2078:	01071713          	slli	a4,a4,0x10
    207c:	0106d693          	srli	a3,a3,0x10
    2080:	00d706b3          	add	a3,a4,a3
    2084:	00004737          	lui	a4,0x4
    2088:	8e470713          	addi	a4,a4,-1820 # 38e4 <T11_start+0xc4>
    208c:	00e686b3          	add	a3,a3,a4
    2090:	41f6d313          	srai	t1,a3,0x1f
    2094:	02f30333          	mul	t1,t1,a5
    2098:	02d80733          	mul	a4,a6,a3
    209c:	00e30333          	add	t1,t1,a4
    20a0:	02f68733          	mul	a4,a3,a5
    20a4:	02f6b6b3          	mulhu	a3,a3,a5
    20a8:	00d306b3          	add	a3,t1,a3
    20ac:	01069693          	slli	a3,a3,0x10
    20b0:	01075713          	srli	a4,a4,0x10
    20b4:	00e68733          	add	a4,a3,a4
    20b8:	000066b7          	lui	a3,0x6
    20bc:	66668693          	addi	a3,a3,1638 # 6666 <__sfputc_r+0x36>
    20c0:	00d70733          	add	a4,a4,a3
    20c4:	41f75693          	srai	a3,a4,0x1f
    20c8:	02f686b3          	mul	a3,a3,a5
    20cc:	02e80833          	mul	a6,a6,a4
    20d0:	010686b3          	add	a3,a3,a6
    20d4:	02f70833          	mul	a6,a4,a5
    20d8:	02f73733          	mulhu	a4,a4,a5
    20dc:	00e687b3          	add	a5,a3,a4
    20e0:	01079793          	slli	a5,a5,0x10
    20e4:	01085713          	srli	a4,a6,0x10
    20e8:	00e78733          	add	a4,a5,a4
    20ec:	00e888b3          	add	a7,a7,a4
    20f0:	411b8bb3          	sub	s7,s7,a7
    20f4:	41fbd793          	srai	a5,s7,0x1f
    20f8:	02a787b3          	mul	a5,a5,a0
    20fc:	03760633          	mul	a2,a2,s7
    2100:	00c787b3          	add	a5,a5,a2
    2104:	02ab8733          	mul	a4,s7,a0
    2108:	02abbbb3          	mulhu	s7,s7,a0
    210c:	017787b3          	add	a5,a5,s7
    2110:	01079793          	slli	a5,a5,0x10
    2114:	01075713          	srli	a4,a4,0x10
    2118:	00e78733          	add	a4,a5,a4
    211c:	40e585b3          	sub	a1,a1,a4
    2120:	0cb12623          	sw	a1,204(sp)
    2124:	0044ab03          	lw	s6,4(s1)
    2128:	000b1463          	bnez	s6,2130 <T7_start+0x294>
    212c:	6280206f          	j	4754 <T14_end+0xe0>
    2130:	0089a503          	lw	a0,8(s3)
    2134:	41f55793          	srai	a5,a0,0x1f
    2138:	01055593          	srli	a1,a0,0x10
    213c:	01079793          	slli	a5,a5,0x10
    2140:	000b0613          	mv	a2,s6
    2144:	41fb5693          	srai	a3,s6,0x1f
    2148:	01051513          	slli	a0,a0,0x10
    214c:	00f585b3          	add	a1,a1,a5
    2150:	7ed060ef          	jal	913c <__divdi3>
    2154:	00a12623          	sw	a0,12(sp)
    2158:	41bd07b3          	sub	a5,s10,s11
    215c:	00078d13          	mv	s10,a5
    2160:	41600733          	neg	a4,s6
    2164:	0aeb6733          	max	a4,s6,a4
    2168:	41f75793          	srai	a5,a4,0x1f
    216c:	000176b7          	lui	a3,0x17
    2170:	15468693          	addi	a3,a3,340 # 17154 <heap.cpp.6b15d6f6+0x54eb>
    2174:	02d787b3          	mul	a5,a5,a3
    2178:	02d70bb3          	mul	s7,a4,a3
    217c:	02d73733          	mulhu	a4,a4,a3
    2180:	00e787b3          	add	a5,a5,a4
    2184:	01079793          	slli	a5,a5,0x10
    2188:	010bdb93          	srli	s7,s7,0x10
    218c:	01778bb3          	add	s7,a5,s7
    2190:	000087b7          	lui	a5,0x8
    2194:	00fb8bb3          	add	s7,s7,a5
    2198:	ffff07b7          	lui	a5,0xffff0
    219c:	00fbfbb3          	and	s7,s7,a5
    21a0:	580b4a63          	bltz	s6,2734 <T7_end+0x38>
    21a4:	41fbd713          	srai	a4,s7,0x1f
    21a8:	0000b6b7          	lui	a3,0xb
    21ac:	17268693          	addi	a3,a3,370 # b172 <__power_manager_start+0x172>
    21b0:	02d70733          	mul	a4,a4,a3
    21b4:	02db87b3          	mul	a5,s7,a3
    21b8:	02dbb6b3          	mulhu	a3,s7,a3
    21bc:	00d70733          	add	a4,a4,a3
    21c0:	01071713          	slli	a4,a4,0x10
    21c4:	0107d793          	srli	a5,a5,0x10
    21c8:	00f707b3          	add	a5,a4,a5
    21cc:	40fb07b3          	sub	a5,s6,a5
    21d0:	41f7d693          	srai	a3,a5,0x1f
    21d4:	02f686b3          	mul	a3,a3,a5
    21d8:	02f78733          	mul	a4,a5,a5
    21dc:	02f7b633          	mulhu	a2,a5,a5
    21e0:	20c6a6b3          	sh1add	a3,a3,a2
    21e4:	01069693          	slli	a3,a3,0x10
    21e8:	01075713          	srli	a4,a4,0x10
    21ec:	00e68733          	add	a4,a3,a4
    21f0:	41f75513          	srai	a0,a4,0x1f
    21f4:	01e75693          	srli	a3,a4,0x1e
    21f8:	20d546b3          	sh2add	a3,a0,a3
    21fc:	00271613          	slli	a2,a4,0x2
    2200:	01069693          	slli	a3,a3,0x10
    2204:	01065613          	srli	a2,a2,0x10
    2208:	00c68633          	add	a2,a3,a2
    220c:	f4a60613          	addi	a2,a2,-182
    2210:	41f65593          	srai	a1,a2,0x1f
    2214:	02e585b3          	mul	a1,a1,a4
    2218:	02c506b3          	mul	a3,a0,a2
    221c:	00d585b3          	add	a1,a1,a3
    2220:	02e606b3          	mul	a3,a2,a4
    2224:	02e63633          	mulhu	a2,a2,a4
    2228:	00c58633          	add	a2,a1,a2
    222c:	01061613          	slli	a2,a2,0x10
    2230:	0106d693          	srli	a3,a3,0x10
    2234:	00d606b3          	add	a3,a2,a3
    2238:	00003637          	lui	a2,0x3
    223c:	aab60613          	addi	a2,a2,-1365 # 2aab <T9_start+0x1e3>
    2240:	00c686b3          	add	a3,a3,a2
    2244:	41f6d613          	srai	a2,a3,0x1f
    2248:	02e60633          	mul	a2,a2,a4
    224c:	02d50533          	mul	a0,a0,a3
    2250:	00a60633          	add	a2,a2,a0
    2254:	02e685b3          	mul	a1,a3,a4
    2258:	02e6b6b3          	mulhu	a3,a3,a4
    225c:	00d60733          	add	a4,a2,a3
    2260:	01071713          	slli	a4,a4,0x10
    2264:	0105d693          	srli	a3,a1,0x10
    2268:	00d706b3          	add	a3,a4,a3
    226c:	00020737          	lui	a4,0x20
    2270:	00e686b3          	add	a3,a3,a4
    2274:	40f68633          	sub	a2,a3,a5
    2278:	02f68c63          	beq	a3,a5,22b0 <T7_start+0x414>
    227c:	00f7d713          	srli	a4,a5,0xf
    2280:	01179793          	slli	a5,a5,0x11
    2284:	01071713          	slli	a4,a4,0x10
    2288:	0107d793          	srli	a5,a5,0x10
    228c:	00f707b3          	add	a5,a4,a5
    2290:	41f7d713          	srai	a4,a5,0x1f
    2294:	0107d593          	srli	a1,a5,0x10
    2298:	01071713          	slli	a4,a4,0x10
    229c:	41f65693          	srai	a3,a2,0x1f
    22a0:	01079513          	slli	a0,a5,0x10
    22a4:	00e585b3          	add	a1,a1,a4
    22a8:	695060ef          	jal	913c <__divdi3>
    22ac:	00050613          	mv	a2,a0
    22b0:	000107b7          	lui	a5,0x10
    22b4:	00f606b3          	add	a3,a2,a5
    22b8:	480bc263          	bltz	s7,273c <T7_end+0x40>
    22bc:	410bdb93          	srai	s7,s7,0x10
    22c0:	00010737          	lui	a4,0x10
    22c4:	01771733          	sll	a4,a4,s7
    22c8:	41f75793          	srai	a5,a4,0x1f
    22cc:	41f6d613          	srai	a2,a3,0x1f
    22d0:	02d787b3          	mul	a5,a5,a3
    22d4:	02e60633          	mul	a2,a2,a4
    22d8:	00c787b3          	add	a5,a5,a2
    22dc:	02d70633          	mul	a2,a4,a3
    22e0:	02d73733          	mulhu	a4,a4,a3
    22e4:	00e787b3          	add	a5,a5,a4
    22e8:	01079793          	slli	a5,a5,0x10
    22ec:	01065713          	srli	a4,a2,0x10
    22f0:	00e787b3          	add	a5,a5,a4
    22f4:	00c12703          	lw	a4,12(sp)
    22f8:	0ce12823          	sw	a4,208(sp)
    22fc:	0da12a23          	sw	s10,212(sp)
    2300:	00fb07b3          	add	a5,s6,a5
    2304:	0cf12c23          	sw	a5,216(sp)
    2308:	00092683          	lw	a3,0(s2)
    230c:	00000713          	li	a4,0
    2310:	2406c263          	bltz	a3,2554 <T7_start+0x6b8>
    2314:	44068263          	beqz	a3,2758 <T7_end+0x5c>
    2318:	000207b7          	lui	a5,0x20
    231c:	42d7da63          	bge	a5,a3,2750 <T7_end+0x54>
    2320:	00000b93          	li	s7,0
    2324:	4016d693          	srai	a3,a3,0x1
    2328:	001b8b93          	addi	s7,s7,1 # ffff0001 <_sp+0xfffc6901>
    232c:	fed7cce3          	blt	a5,a3,2324 <T7_start+0x488>
    2330:	ffff07b7          	lui	a5,0xffff0
    2334:	00f687b3          	add	a5,a3,a5
    2338:	00078d13          	mv	s10,a5
    233c:	41f7d793          	srai	a5,a5,0x1f
    2340:	010d5593          	srli	a1,s10,0x10
    2344:	01079793          	slli	a5,a5,0x10
    2348:	00010737          	lui	a4,0x10
    234c:	00e68633          	add	a2,a3,a4
    2350:	41f65693          	srai	a3,a2,0x1f
    2354:	010d1513          	slli	a0,s10,0x10
    2358:	00f585b3          	add	a1,a1,a5
    235c:	5e1060ef          	jal	913c <__divdi3>
    2360:	41f55593          	srai	a1,a0,0x1f
    2364:	02a587b3          	mul	a5,a1,a0
    2368:	02a506b3          	mul	a3,a0,a0
    236c:	02a53733          	mulhu	a4,a0,a0
    2370:	20e7a7b3          	sh1add	a5,a5,a4
    2374:	01079793          	slli	a5,a5,0x10
    2378:	0106d693          	srli	a3,a3,0x10
    237c:	00d786b3          	add	a3,a5,a3
    2380:	41f6d313          	srai	t1,a3,0x1f
    2384:	02d30733          	mul	a4,t1,a3
    2388:	02d687b3          	mul	a5,a3,a3
    238c:	02d6b633          	mulhu	a2,a3,a3
    2390:	20c72733          	sh1add	a4,a4,a2
    2394:	01071713          	slli	a4,a4,0x10
    2398:	0107d793          	srli	a5,a5,0x10
    239c:	00f707b3          	add	a5,a4,a5
    23a0:	41f7d813          	srai	a6,a5,0x1f
    23a4:	010b9b93          	slli	s7,s7,0x10
    23a8:	41fbd613          	srai	a2,s7,0x1f
    23ac:	0000b8b7          	lui	a7,0xb
    23b0:	17288893          	addi	a7,a7,370 # b172 <__power_manager_start+0x172>
    23b4:	03160633          	mul	a2,a2,a7
    23b8:	031b8733          	mul	a4,s7,a7
    23bc:	031bbbb3          	mulhu	s7,s7,a7
    23c0:	01760633          	add	a2,a2,s7
    23c4:	01061613          	slli	a2,a2,0x10
    23c8:	01075713          	srli	a4,a4,0x10
    23cc:	00e60733          	add	a4,a2,a4
    23d0:	00ed0733          	add	a4,s10,a4
    23d4:	000028b7          	lui	a7,0x2
    23d8:	5e288893          	addi	a7,a7,1506 # 25e2 <T7_start+0x746>
    23dc:	03180e33          	mul	t3,a6,a7
    23e0:	03178633          	mul	a2,a5,a7
    23e4:	0317b8b3          	mulhu	a7,a5,a7
    23e8:	011e08b3          	add	a7,t3,a7
    23ec:	01089893          	slli	a7,a7,0x10
    23f0:	01065613          	srli	a2,a2,0x10
    23f4:	00c88633          	add	a2,a7,a2
    23f8:	000038b7          	lui	a7,0x3
    23fc:	e8d88893          	addi	a7,a7,-371 # 2e8d <T9_start+0x5c5>
    2400:	01160633          	add	a2,a2,a7
    2404:	41f65e13          	srai	t3,a2,0x1f
    2408:	02fe0e33          	mul	t3,t3,a5
    240c:	02c808b3          	mul	a7,a6,a2
    2410:	011e0e33          	add	t3,t3,a7
    2414:	02f608b3          	mul	a7,a2,a5
    2418:	02f63633          	mulhu	a2,a2,a5
    241c:	00ce0633          	add	a2,t3,a2
    2420:	01061613          	slli	a2,a2,0x10
    2424:	0108d893          	srli	a7,a7,0x10
    2428:	011608b3          	add	a7,a2,a7
    242c:	00005637          	lui	a2,0x5
    2430:	92560613          	addi	a2,a2,-1755 # 4925 <handler_irq_fast_timer_3+0x71>
    2434:	00c888b3          	add	a7,a7,a2
    2438:	41f8de13          	srai	t3,a7,0x1f
    243c:	02fe0e33          	mul	t3,t3,a5
    2440:	03180633          	mul	a2,a6,a7
    2444:	00ce0e33          	add	t3,t3,a2
    2448:	02f88633          	mul	a2,a7,a5
    244c:	02f8b8b3          	mulhu	a7,a7,a5
    2450:	011e08b3          	add	a7,t3,a7
    2454:	01089893          	slli	a7,a7,0x10
    2458:	01065613          	srli	a2,a2,0x10
    245c:	00c88633          	add	a2,a7,a2
    2460:	0000b8b7          	lui	a7,0xb
    2464:	aab88893          	addi	a7,a7,-1365 # aaab <main+0x1b3>
    2468:	01160633          	add	a2,a2,a7
    246c:	41f65893          	srai	a7,a2,0x1f
    2470:	02d888b3          	mul	a7,a7,a3
    2474:	02c30333          	mul	t1,t1,a2
    2478:	00688333          	add	t1,a7,t1
    247c:	02d608b3          	mul	a7,a2,a3
    2480:	02d63633          	mulhu	a2,a2,a3
    2484:	00c306b3          	add	a3,t1,a2
    2488:	01069693          	slli	a3,a3,0x10
    248c:	0108d893          	srli	a7,a7,0x10
    2490:	011688b3          	add	a7,a3,a7
    2494:	000026b7          	lui	a3,0x2
    2498:	73468693          	addi	a3,a3,1844 # 2734 <T7_end+0x38>
    249c:	02d80333          	mul	t1,a6,a3
    24a0:	02d78633          	mul	a2,a5,a3
    24a4:	02d7b6b3          	mulhu	a3,a5,a3
    24a8:	00d306b3          	add	a3,t1,a3
    24ac:	01069693          	slli	a3,a3,0x10
    24b0:	01065613          	srli	a2,a2,0x10
    24b4:	00c68633          	add	a2,a3,a2
    24b8:	000046b7          	lui	a3,0x4
    24bc:	8e468693          	addi	a3,a3,-1820 # 38e4 <T11_start+0xc4>
    24c0:	00d60633          	add	a2,a2,a3
    24c4:	41f65313          	srai	t1,a2,0x1f
    24c8:	02f30333          	mul	t1,t1,a5
    24cc:	02c806b3          	mul	a3,a6,a2
    24d0:	00d30333          	add	t1,t1,a3
    24d4:	02f606b3          	mul	a3,a2,a5
    24d8:	02f63633          	mulhu	a2,a2,a5
    24dc:	00c30633          	add	a2,t1,a2
    24e0:	01061613          	slli	a2,a2,0x10
    24e4:	0106d693          	srli	a3,a3,0x10
    24e8:	00d606b3          	add	a3,a2,a3
    24ec:	00006637          	lui	a2,0x6
    24f0:	66660613          	addi	a2,a2,1638 # 6666 <__sfputc_r+0x36>
    24f4:	00c686b3          	add	a3,a3,a2
    24f8:	41f6d613          	srai	a2,a3,0x1f
    24fc:	02f60633          	mul	a2,a2,a5
    2500:	02d80833          	mul	a6,a6,a3
    2504:	01060633          	add	a2,a2,a6
    2508:	02f68833          	mul	a6,a3,a5
    250c:	02f6b6b3          	mulhu	a3,a3,a5
    2510:	00d607b3          	add	a5,a2,a3
    2514:	01079793          	slli	a5,a5,0x10
    2518:	01085693          	srli	a3,a6,0x10
    251c:	00d786b3          	add	a3,a5,a3
    2520:	00d888b3          	add	a7,a7,a3
    2524:	411d07b3          	sub	a5,s10,a7
    2528:	41f7d693          	srai	a3,a5,0x1f
    252c:	02a686b3          	mul	a3,a3,a0
    2530:	02f585b3          	mul	a1,a1,a5
    2534:	00b686b3          	add	a3,a3,a1
    2538:	02a78633          	mul	a2,a5,a0
    253c:	02a7b7b3          	mulhu	a5,a5,a0
    2540:	00f687b3          	add	a5,a3,a5
    2544:	01079793          	slli	a5,a5,0x10
    2548:	01065693          	srli	a3,a2,0x10
    254c:	00d786b3          	add	a3,a5,a3
    2550:	40d70733          	sub	a4,a4,a3
    2554:	00eb0733          	add	a4,s6,a4
    2558:	0ce12e23          	sw	a4,220(sp)
    255c:	000107b7          	lui	a5,0x10
    2560:	180c8c63          	beqz	s9,26f8 <T7_start+0x85c>
    2564:	41900733          	neg	a4,s9
    2568:	0aece733          	max	a4,s9,a4
    256c:	41f75793          	srai	a5,a4,0x1f
    2570:	000176b7          	lui	a3,0x17
    2574:	15468693          	addi	a3,a3,340 # 17154 <heap.cpp.6b15d6f6+0x54eb>
    2578:	02d787b3          	mul	a5,a5,a3
    257c:	02d70b33          	mul	s6,a4,a3
    2580:	02d73733          	mulhu	a4,a4,a3
    2584:	00e787b3          	add	a5,a5,a4
    2588:	01079793          	slli	a5,a5,0x10
    258c:	010b5b13          	srli	s6,s6,0x10
    2590:	01678b33          	add	s6,a5,s6
    2594:	000087b7          	lui	a5,0x8
    2598:	00fb0b33          	add	s6,s6,a5
    259c:	ffff07b7          	lui	a5,0xffff0
    25a0:	00fb7b33          	and	s6,s6,a5
    25a4:	1a0cce63          	bltz	s9,2760 <T7_end+0x64>
    25a8:	41fb5693          	srai	a3,s6,0x1f
    25ac:	0000b637          	lui	a2,0xb
    25b0:	17260613          	addi	a2,a2,370 # b172 <__power_manager_start+0x172>
    25b4:	02c686b3          	mul	a3,a3,a2
    25b8:	02cb07b3          	mul	a5,s6,a2
    25bc:	02cb3633          	mulhu	a2,s6,a2
    25c0:	00c686b3          	add	a3,a3,a2
    25c4:	01069693          	slli	a3,a3,0x10
    25c8:	0107d793          	srli	a5,a5,0x10
    25cc:	00f687b3          	add	a5,a3,a5
    25d0:	40fc8733          	sub	a4,s9,a5
    25d4:	41f75693          	srai	a3,a4,0x1f
    25d8:	02e686b3          	mul	a3,a3,a4
    25dc:	02e707b3          	mul	a5,a4,a4
    25e0:	02e73633          	mulhu	a2,a4,a4
    25e4:	20c6a6b3          	sh1add	a3,a3,a2
    25e8:	01069693          	slli	a3,a3,0x10
    25ec:	0107d793          	srli	a5,a5,0x10
    25f0:	00f687b3          	add	a5,a3,a5
    25f4:	41f7d513          	srai	a0,a5,0x1f
    25f8:	01e7d693          	srli	a3,a5,0x1e
    25fc:	20d546b3          	sh2add	a3,a0,a3
    2600:	00279613          	slli	a2,a5,0x2
    2604:	01069693          	slli	a3,a3,0x10
    2608:	01065613          	srli	a2,a2,0x10
    260c:	00c68633          	add	a2,a3,a2
    2610:	f4a60613          	addi	a2,a2,-182
    2614:	41f65593          	srai	a1,a2,0x1f
    2618:	02f585b3          	mul	a1,a1,a5
    261c:	02c506b3          	mul	a3,a0,a2
    2620:	00d585b3          	add	a1,a1,a3
    2624:	02f606b3          	mul	a3,a2,a5
    2628:	02f63633          	mulhu	a2,a2,a5
    262c:	00c58633          	add	a2,a1,a2
    2630:	01061613          	slli	a2,a2,0x10
    2634:	0106d693          	srli	a3,a3,0x10
    2638:	00d606b3          	add	a3,a2,a3
    263c:	00003637          	lui	a2,0x3
    2640:	aab60613          	addi	a2,a2,-1365 # 2aab <T9_start+0x1e3>
    2644:	00c686b3          	add	a3,a3,a2
    2648:	41f6d613          	srai	a2,a3,0x1f
    264c:	02f60633          	mul	a2,a2,a5
    2650:	02d50533          	mul	a0,a0,a3
    2654:	00a60633          	add	a2,a2,a0
    2658:	02f685b3          	mul	a1,a3,a5
    265c:	02f6b6b3          	mulhu	a3,a3,a5
    2660:	00d607b3          	add	a5,a2,a3
    2664:	01079793          	slli	a5,a5,0x10
    2668:	0105d693          	srli	a3,a1,0x10
    266c:	00d786b3          	add	a3,a5,a3
    2670:	000207b7          	lui	a5,0x20
    2674:	00f686b3          	add	a3,a3,a5
    2678:	40e68633          	sub	a2,a3,a4
    267c:	02e68c63          	beq	a3,a4,26b4 <T7_start+0x818>
    2680:	00f75693          	srli	a3,a4,0xf
    2684:	01171793          	slli	a5,a4,0x11
    2688:	01069713          	slli	a4,a3,0x10
    268c:	0107d793          	srli	a5,a5,0x10
    2690:	00f707b3          	add	a5,a4,a5
    2694:	41f7d713          	srai	a4,a5,0x1f
    2698:	0107d593          	srli	a1,a5,0x10
    269c:	01071713          	slli	a4,a4,0x10
    26a0:	41f65693          	srai	a3,a2,0x1f
    26a4:	01079513          	slli	a0,a5,0x10
    26a8:	00e585b3          	add	a1,a1,a4
    26ac:	291060ef          	jal	913c <__divdi3>
    26b0:	00050613          	mv	a2,a0
    26b4:	000107b7          	lui	a5,0x10
    26b8:	00f606b3          	add	a3,a2,a5
    26bc:	0a0b4663          	bltz	s6,2768 <T7_end+0x6c>
    26c0:	410b5b13          	srai	s6,s6,0x10
    26c4:	00010737          	lui	a4,0x10
    26c8:	01671733          	sll	a4,a4,s6
    26cc:	41f75793          	srai	a5,a4,0x1f
    26d0:	41f6d613          	srai	a2,a3,0x1f
    26d4:	02d787b3          	mul	a5,a5,a3
    26d8:	02e60633          	mul	a2,a2,a4
    26dc:	00c787b3          	add	a5,a5,a2
    26e0:	02d70633          	mul	a2,a4,a3
    26e4:	02d73733          	mulhu	a4,a4,a3
    26e8:	00e787b3          	add	a5,a5,a4
    26ec:	01079793          	slli	a5,a5,0x10
    26f0:	01065713          	srli	a4,a2,0x10
    26f4:	00e787b3          	add	a5,a5,a4
    26f8:	0ef12023          	sw	a5,224(sp)

000026fc <T7_end>:
    26fc:	b00027f3          	csrr	a5,mcycle
    2700:	00812703          	lw	a4,8(sp)
    2704:	40e787b3          	sub	a5,a5,a4
    2708:	00fa2e23          	sw	a5,28(s4)
    270c:	0c012603          	lw	a2,192(sp)
    2710:	0c010713          	addi	a4,sp,192
    2714:	00000513          	li	a0,0
    2718:	00100793          	li	a5,1
    271c:	00900593          	li	a1,9
    2720:	0680006f          	j	2788 <T7_end+0x8c>
    2724:	00000b13          	li	s6,0
    2728:	fd8ff06f          	j	1f00 <T7_start+0x64>
    272c:	fff00593          	li	a1,-1
    2730:	9f1ff06f          	j	2120 <T7_start+0x284>
    2734:	41700bb3          	neg	s7,s7
    2738:	a6dff06f          	j	21a4 <T7_start+0x308>
    273c:	417007b3          	neg	a5,s7
    2740:	4107d793          	srai	a5,a5,0x10
    2744:	00010737          	lui	a4,0x10
    2748:	40f75733          	sra	a4,a4,a5
    274c:	b7dff06f          	j	22c8 <T7_start+0x42c>
    2750:	00000b93          	li	s7,0
    2754:	bddff06f          	j	2330 <T7_start+0x494>
    2758:	fff00713          	li	a4,-1
    275c:	df9ff06f          	j	2554 <T7_start+0x6b8>
    2760:	41600b33          	neg	s6,s6
    2764:	e45ff06f          	j	25a8 <T7_start+0x70c>
    2768:	416007b3          	neg	a5,s6
    276c:	4107d793          	srai	a5,a5,0x10
    2770:	00010737          	lui	a4,0x10
    2774:	40f75733          	sra	a4,a4,a5
    2778:	f55ff06f          	j	26cc <T7_start+0x830>
    277c:	00178793          	addi	a5,a5,1 # 10001 <syscalls.c.42d7056b+0x1005>
    2780:	00470713          	addi	a4,a4,4 # 10004 <syscalls.c.42d7056b+0x1008>
    2784:	00b78c63          	beq	a5,a1,279c <T7_end+0xa0>
    2788:	00472683          	lw	a3,4(a4)
    278c:	fec6c8e3          	blt	a3,a2,277c <T7_end+0x80>
    2790:	00068613          	mv	a2,a3
    2794:	00078513          	mv	a0,a5
    2798:	fe5ff06f          	j	277c <T7_end+0x80>
    279c:	00020737          	lui	a4,0x20
    27a0:	000207b7          	lui	a5,0x20
    27a4:	0c478793          	addi	a5,a5,196 # 200c4 <next.9>
    27a8:	20f54533          	sh2add	a0,a0,a5
    27ac:	00052783          	lw	a5,0(a0)
    27b0:	10470713          	addi	a4,a4,260 # 20104 <jump_table.17>
    27b4:	20e7c7b3          	sh2add	a5,a5,a4
    27b8:	0007a783          	lw	a5,0(a5)
    27bc:	11412d03          	lw	s10,276(sp)
    27c0:	11012d83          	lw	s11,272(sp)
    27c4:	bd8fe06f          	j	b9c <inferenceTPG+0x4c>

000027c8 <T8_start>:
    27c8:	b00027f3          	csrr	a5,mcycle
    27cc:	00078c93          	mv	s9,a5
    27d0:	0009ab83          	lw	s7,0(s3)
    27d4:	0049a783          	lw	a5,4(s3)
    27d8:	017787b3          	add	a5,a5,s7
    27dc:	06f12223          	sw	a5,100(sp)
    27e0:	0084ab03          	lw	s6,8(s1)
    27e4:	00892603          	lw	a2,8(s2)
    27e8:	02060263          	beqz	a2,280c <T8_start+0x44>
    27ec:	41fb5793          	srai	a5,s6,0x1f
    27f0:	010b5593          	srli	a1,s6,0x10
    27f4:	01079793          	slli	a5,a5,0x10
    27f8:	41f65693          	srai	a3,a2,0x1f
    27fc:	010b1513          	slli	a0,s6,0x10
    2800:	00f585b3          	add	a1,a1,a5
    2804:	139060ef          	jal	913c <__divdi3>
    2808:	00050613          	mv	a2,a0
    280c:	000aa783          	lw	a5,0(s5)
    2810:	0af66633          	max	a2,a2,a5
    2814:	0044a783          	lw	a5,4(s1)
    2818:	00f60633          	add	a2,a2,a5
    281c:	06c12423          	sw	a2,104(sp)
    2820:	017b0b33          	add	s6,s6,s7
    2824:	07612623          	sw	s6,108(sp)
    2828:	00092603          	lw	a2,0(s2)
    282c:	02060463          	beqz	a2,2854 <T8_start+0x8c>
    2830:	00492503          	lw	a0,4(s2)
    2834:	41f55793          	srai	a5,a0,0x1f
    2838:	01055593          	srli	a1,a0,0x10
    283c:	01079793          	slli	a5,a5,0x10
    2840:	41f65693          	srai	a3,a2,0x1f
    2844:	01051513          	slli	a0,a0,0x10
    2848:	00f585b3          	add	a1,a1,a5
    284c:	0f1060ef          	jal	913c <__divdi3>
    2850:	00050613          	mv	a2,a0
    2854:	06c12823          	sw	a2,112(sp)

00002858 <T8_end>:
    2858:	b00027f3          	csrr	a5,mcycle
    285c:	419787b3          	sub	a5,a5,s9
    2860:	02fa2023          	sw	a5,32(s4)
    2864:	06412683          	lw	a3,100(sp)
    2868:	06812703          	lw	a4,104(sp)
    286c:	00100793          	li	a5,1
    2870:	00d75663          	bge	a4,a3,287c <T8_end+0x24>
    2874:	00068713          	mv	a4,a3
    2878:	00000793          	li	a5,0
    287c:	06c12683          	lw	a3,108(sp)
    2880:	02e6dc63          	bge	a3,a4,28b8 <T8_end+0x60>
    2884:	00070693          	mv	a3,a4
    2888:	07012703          	lw	a4,112(sp)
    288c:	00d74463          	blt	a4,a3,2894 <T8_end+0x3c>
    2890:	00300793          	li	a5,3
    2894:	00020737          	lui	a4,0x20
    2898:	000206b7          	lui	a3,0x20
    289c:	0b468693          	addi	a3,a3,180 # 200b4 <next.8>
    28a0:	20d7c7b3          	sh2add	a5,a5,a3
    28a4:	0007a783          	lw	a5,0(a5)
    28a8:	10470713          	addi	a4,a4,260 # 20104 <jump_table.17>
    28ac:	20e7c7b3          	sh2add	a5,a5,a4
    28b0:	0007a783          	lw	a5,0(a5)
    28b4:	ae8fe06f          	j	b9c <inferenceTPG+0x4c>
    28b8:	00200793          	li	a5,2
    28bc:	fcdff06f          	j	2888 <T8_end+0x30>
    28c0:	11a12a23          	sw	s10,276(sp)
    28c4:	11b12823          	sw	s11,272(sp)

000028c8 <T9_start>:
    28c8:	b00027f3          	csrr	a5,mcycle
    28cc:	00f12623          	sw	a5,12(sp)
    28d0:	000aa783          	lw	a5,0(s5)
    28d4:	00f12423          	sw	a5,8(sp)
    28d8:	0084ab83          	lw	s7,8(s1)
    28dc:	017787b3          	add	a5,a5,s7
    28e0:	0ef12223          	sw	a5,228(sp)
    28e4:	0009a783          	lw	a5,0(s3)
    28e8:	00078c93          	mv	s9,a5
    28ec:	00179793          	slli	a5,a5,0x1
    28f0:	0ef12423          	sw	a5,232(sp)
    28f4:	0004a783          	lw	a5,0(s1)
    28f8:	00078d13          	mv	s10,a5
    28fc:	00812703          	lw	a4,8(sp)
    2900:	0ae7e7b3          	max	a5,a5,a4
    2904:	0ef12623          	sw	a5,236(sp)
    2908:	000107b7          	lui	a5,0x10
    290c:	180b8c63          	beqz	s7,2aa4 <T9_start+0x1dc>
    2910:	41700733          	neg	a4,s7
    2914:	0aebe733          	max	a4,s7,a4
    2918:	41f75793          	srai	a5,a4,0x1f
    291c:	000176b7          	lui	a3,0x17
    2920:	15468693          	addi	a3,a3,340 # 17154 <heap.cpp.6b15d6f6+0x54eb>
    2924:	02d787b3          	mul	a5,a5,a3
    2928:	02d70b33          	mul	s6,a4,a3
    292c:	02d73733          	mulhu	a4,a4,a3
    2930:	00e787b3          	add	a5,a5,a4
    2934:	01079793          	slli	a5,a5,0x10
    2938:	010b5b13          	srli	s6,s6,0x10
    293c:	01678b33          	add	s6,a5,s6
    2940:	000087b7          	lui	a5,0x8
    2944:	00fb0b33          	add	s6,s6,a5
    2948:	ffff07b7          	lui	a5,0xffff0
    294c:	00fb7b33          	and	s6,s6,a5
    2950:	340bc6e3          	bltz	s7,349c <T9_end+0x28>
    2954:	41fb5713          	srai	a4,s6,0x1f
    2958:	0000b6b7          	lui	a3,0xb
    295c:	17268693          	addi	a3,a3,370 # b172 <__power_manager_start+0x172>
    2960:	02d70733          	mul	a4,a4,a3
    2964:	02db07b3          	mul	a5,s6,a3
    2968:	02db36b3          	mulhu	a3,s6,a3
    296c:	00d70733          	add	a4,a4,a3
    2970:	01071713          	slli	a4,a4,0x10
    2974:	0107d793          	srli	a5,a5,0x10
    2978:	00f707b3          	add	a5,a4,a5
    297c:	40fb87b3          	sub	a5,s7,a5
    2980:	41f7d693          	srai	a3,a5,0x1f
    2984:	02f686b3          	mul	a3,a3,a5
    2988:	02f78733          	mul	a4,a5,a5
    298c:	02f7b633          	mulhu	a2,a5,a5
    2990:	20c6a6b3          	sh1add	a3,a3,a2
    2994:	01069693          	slli	a3,a3,0x10
    2998:	01075713          	srli	a4,a4,0x10
    299c:	00e68733          	add	a4,a3,a4
    29a0:	41f75513          	srai	a0,a4,0x1f
    29a4:	01e75693          	srli	a3,a4,0x1e
    29a8:	20d546b3          	sh2add	a3,a0,a3
    29ac:	00271613          	slli	a2,a4,0x2
    29b0:	01069693          	slli	a3,a3,0x10
    29b4:	01065613          	srli	a2,a2,0x10
    29b8:	00c68633          	add	a2,a3,a2
    29bc:	f4a60613          	addi	a2,a2,-182
    29c0:	41f65593          	srai	a1,a2,0x1f
    29c4:	02e585b3          	mul	a1,a1,a4
    29c8:	02c506b3          	mul	a3,a0,a2
    29cc:	00d585b3          	add	a1,a1,a3
    29d0:	02e606b3          	mul	a3,a2,a4
    29d4:	02e63633          	mulhu	a2,a2,a4
    29d8:	00c58633          	add	a2,a1,a2
    29dc:	01061613          	slli	a2,a2,0x10
    29e0:	0106d693          	srli	a3,a3,0x10
    29e4:	00d606b3          	add	a3,a2,a3
    29e8:	00003637          	lui	a2,0x3
    29ec:	aab60613          	addi	a2,a2,-1365 # 2aab <T9_start+0x1e3>
    29f0:	00c686b3          	add	a3,a3,a2
    29f4:	41f6d613          	srai	a2,a3,0x1f
    29f8:	02e60633          	mul	a2,a2,a4
    29fc:	02d50533          	mul	a0,a0,a3
    2a00:	00a60633          	add	a2,a2,a0
    2a04:	02e685b3          	mul	a1,a3,a4
    2a08:	02e6b6b3          	mulhu	a3,a3,a4
    2a0c:	00d60733          	add	a4,a2,a3
    2a10:	01071713          	slli	a4,a4,0x10
    2a14:	0105d693          	srli	a3,a1,0x10
    2a18:	00d706b3          	add	a3,a4,a3
    2a1c:	00020737          	lui	a4,0x20
    2a20:	00e686b3          	add	a3,a3,a4
    2a24:	40f68633          	sub	a2,a3,a5
    2a28:	02f68c63          	beq	a3,a5,2a60 <T9_start+0x198>
    2a2c:	00f7d713          	srli	a4,a5,0xf
    2a30:	01179793          	slli	a5,a5,0x11
    2a34:	01071713          	slli	a4,a4,0x10
    2a38:	0107d793          	srli	a5,a5,0x10
    2a3c:	00f707b3          	add	a5,a4,a5
    2a40:	41f7d713          	srai	a4,a5,0x1f
    2a44:	0107d593          	srli	a1,a5,0x10
    2a48:	01071713          	slli	a4,a4,0x10
    2a4c:	41f65693          	srai	a3,a2,0x1f
    2a50:	01079513          	slli	a0,a5,0x10
    2a54:	00e585b3          	add	a1,a1,a4
    2a58:	6e4060ef          	jal	913c <__divdi3>
    2a5c:	00050613          	mv	a2,a0
    2a60:	000107b7          	lui	a5,0x10
    2a64:	00f606b3          	add	a3,a2,a5
    2a68:	220b4ee3          	bltz	s6,34a4 <T9_end+0x30>
    2a6c:	410b5b13          	srai	s6,s6,0x10
    2a70:	00010737          	lui	a4,0x10
    2a74:	01671733          	sll	a4,a4,s6
    2a78:	41f75793          	srai	a5,a4,0x1f
    2a7c:	41f6d613          	srai	a2,a3,0x1f
    2a80:	02d787b3          	mul	a5,a5,a3
    2a84:	02e60633          	mul	a2,a2,a4
    2a88:	00c787b3          	add	a5,a5,a2
    2a8c:	02d70633          	mul	a2,a4,a3
    2a90:	02d73733          	mulhu	a4,a4,a3
    2a94:	00e787b3          	add	a5,a5,a4
    2a98:	01079793          	slli	a5,a5,0x10
    2a9c:	01065713          	srli	a4,a2,0x10
    2aa0:	00e787b3          	add	a5,a5,a4
    2aa4:	0ef12823          	sw	a5,240(sp)
    2aa8:	417c8bb3          	sub	s7,s9,s7
    2aac:	0f712a23          	sw	s7,244(sp)
    2ab0:	000107b7          	lui	a5,0x10
    2ab4:	0ef12c23          	sw	a5,248(sp)
    2ab8:	0044ab83          	lw	s7,4(s1)
    2abc:	180b8c63          	beqz	s7,2c54 <T9_start+0x38c>
    2ac0:	41700733          	neg	a4,s7
    2ac4:	0aebe733          	max	a4,s7,a4
    2ac8:	41f75793          	srai	a5,a4,0x1f
    2acc:	000176b7          	lui	a3,0x17
    2ad0:	15468693          	addi	a3,a3,340 # 17154 <heap.cpp.6b15d6f6+0x54eb>
    2ad4:	02d787b3          	mul	a5,a5,a3
    2ad8:	02d70b33          	mul	s6,a4,a3
    2adc:	02d73733          	mulhu	a4,a4,a3
    2ae0:	00e787b3          	add	a5,a5,a4
    2ae4:	01079793          	slli	a5,a5,0x10
    2ae8:	010b5b13          	srli	s6,s6,0x10
    2aec:	01678b33          	add	s6,a5,s6
    2af0:	000087b7          	lui	a5,0x8
    2af4:	00fb0b33          	add	s6,s6,a5
    2af8:	ffff07b7          	lui	a5,0xffff0
    2afc:	00fb7b33          	and	s6,s6,a5
    2b00:	1a0bcce3          	bltz	s7,34b8 <T9_end+0x44>
    2b04:	41fb5713          	srai	a4,s6,0x1f
    2b08:	0000b6b7          	lui	a3,0xb
    2b0c:	17268693          	addi	a3,a3,370 # b172 <__power_manager_start+0x172>
    2b10:	02d70733          	mul	a4,a4,a3
    2b14:	02db07b3          	mul	a5,s6,a3
    2b18:	02db36b3          	mulhu	a3,s6,a3
    2b1c:	00d70733          	add	a4,a4,a3
    2b20:	01071713          	slli	a4,a4,0x10
    2b24:	0107d793          	srli	a5,a5,0x10
    2b28:	00f707b3          	add	a5,a4,a5
    2b2c:	40fb87b3          	sub	a5,s7,a5
    2b30:	41f7d693          	srai	a3,a5,0x1f
    2b34:	02f686b3          	mul	a3,a3,a5
    2b38:	02f78733          	mul	a4,a5,a5
    2b3c:	02f7b633          	mulhu	a2,a5,a5
    2b40:	20c6a6b3          	sh1add	a3,a3,a2
    2b44:	01069693          	slli	a3,a3,0x10
    2b48:	01075713          	srli	a4,a4,0x10
    2b4c:	00e68733          	add	a4,a3,a4
    2b50:	41f75513          	srai	a0,a4,0x1f
    2b54:	01e75693          	srli	a3,a4,0x1e
    2b58:	20d546b3          	sh2add	a3,a0,a3
    2b5c:	00271613          	slli	a2,a4,0x2
    2b60:	01069693          	slli	a3,a3,0x10
    2b64:	01065613          	srli	a2,a2,0x10
    2b68:	00c68633          	add	a2,a3,a2
    2b6c:	f4a60613          	addi	a2,a2,-182
    2b70:	41f65593          	srai	a1,a2,0x1f
    2b74:	02e585b3          	mul	a1,a1,a4
    2b78:	02c506b3          	mul	a3,a0,a2
    2b7c:	00d585b3          	add	a1,a1,a3
    2b80:	02e606b3          	mul	a3,a2,a4
    2b84:	02e63633          	mulhu	a2,a2,a4
    2b88:	00c58633          	add	a2,a1,a2
    2b8c:	01061613          	slli	a2,a2,0x10
    2b90:	0106d693          	srli	a3,a3,0x10
    2b94:	00d606b3          	add	a3,a2,a3
    2b98:	00003637          	lui	a2,0x3
    2b9c:	aab60613          	addi	a2,a2,-1365 # 2aab <T9_start+0x1e3>
    2ba0:	00c686b3          	add	a3,a3,a2
    2ba4:	41f6d613          	srai	a2,a3,0x1f
    2ba8:	02e60633          	mul	a2,a2,a4
    2bac:	02d50533          	mul	a0,a0,a3
    2bb0:	00a60633          	add	a2,a2,a0
    2bb4:	02e685b3          	mul	a1,a3,a4
    2bb8:	02e6b6b3          	mulhu	a3,a3,a4
    2bbc:	00d60733          	add	a4,a2,a3
    2bc0:	01071713          	slli	a4,a4,0x10
    2bc4:	0105d693          	srli	a3,a1,0x10
    2bc8:	00d706b3          	add	a3,a4,a3
    2bcc:	00020737          	lui	a4,0x20
    2bd0:	00e686b3          	add	a3,a3,a4
    2bd4:	40f68633          	sub	a2,a3,a5
    2bd8:	02f68c63          	beq	a3,a5,2c10 <T9_start+0x348>
    2bdc:	00f7d713          	srli	a4,a5,0xf
    2be0:	01179793          	slli	a5,a5,0x11
    2be4:	01071713          	slli	a4,a4,0x10
    2be8:	0107d793          	srli	a5,a5,0x10
    2bec:	00f707b3          	add	a5,a4,a5
    2bf0:	41f7d713          	srai	a4,a5,0x1f
    2bf4:	0107d593          	srli	a1,a5,0x10
    2bf8:	01071713          	slli	a4,a4,0x10
    2bfc:	41f65693          	srai	a3,a2,0x1f
    2c00:	01079513          	slli	a0,a5,0x10
    2c04:	00e585b3          	add	a1,a1,a4
    2c08:	534060ef          	jal	913c <__divdi3>
    2c0c:	00050613          	mv	a2,a0
    2c10:	000107b7          	lui	a5,0x10
    2c14:	00f606b3          	add	a3,a2,a5
    2c18:	0a0b44e3          	bltz	s6,34c0 <T9_end+0x4c>
    2c1c:	410b5b13          	srai	s6,s6,0x10
    2c20:	00010737          	lui	a4,0x10
    2c24:	01671733          	sll	a4,a4,s6
    2c28:	41f75793          	srai	a5,a4,0x1f
    2c2c:	41f6d613          	srai	a2,a3,0x1f
    2c30:	02d787b3          	mul	a5,a5,a3
    2c34:	02e60633          	mul	a2,a2,a4
    2c38:	00c787b3          	add	a5,a5,a2
    2c3c:	02d70633          	mul	a2,a4,a3
    2c40:	02d73733          	mulhu	a4,a4,a3
    2c44:	00e787b3          	add	a5,a5,a4
    2c48:	01079793          	slli	a5,a5,0x10
    2c4c:	01065713          	srli	a4,a2,0x10
    2c50:	00e787b3          	add	a5,a5,a4
    2c54:	00fb87b3          	add	a5,s7,a5
    2c58:	0ef12e23          	sw	a5,252(sp)
    2c5c:	004aa683          	lw	a3,4(s5)
    2c60:	00000593          	li	a1,0
    2c64:	2406c263          	bltz	a3,2ea8 <T9_start+0x5e0>
    2c68:	06068ae3          	beqz	a3,34dc <T9_end+0x68>
    2c6c:	000207b7          	lui	a5,0x20
    2c70:	06d7d2e3          	bge	a5,a3,34d4 <T9_end+0x60>
    2c74:	00000b13          	li	s6,0
    2c78:	4016d693          	srai	a3,a3,0x1
    2c7c:	001b0b13          	addi	s6,s6,1
    2c80:	fed7cce3          	blt	a5,a3,2c78 <T9_start+0x3b0>
    2c84:	ffff07b7          	lui	a5,0xffff0
    2c88:	00f687b3          	add	a5,a3,a5
    2c8c:	00078d93          	mv	s11,a5
    2c90:	41f7d793          	srai	a5,a5,0x1f
    2c94:	010dd593          	srli	a1,s11,0x10
    2c98:	01079793          	slli	a5,a5,0x10
    2c9c:	00010737          	lui	a4,0x10
    2ca0:	00e68633          	add	a2,a3,a4
    2ca4:	41f65693          	srai	a3,a2,0x1f
    2ca8:	010d9513          	slli	a0,s11,0x10
    2cac:	00f585b3          	add	a1,a1,a5
    2cb0:	48c060ef          	jal	913c <__divdi3>
    2cb4:	41f55613          	srai	a2,a0,0x1f
    2cb8:	02a607b3          	mul	a5,a2,a0
    2cbc:	02a50733          	mul	a4,a0,a0
    2cc0:	02a536b3          	mulhu	a3,a0,a0
    2cc4:	20d7a7b3          	sh1add	a5,a5,a3
    2cc8:	01079793          	slli	a5,a5,0x10
    2ccc:	01075713          	srli	a4,a4,0x10
    2cd0:	00e78733          	add	a4,a5,a4
    2cd4:	41f75313          	srai	t1,a4,0x1f
    2cd8:	02e306b3          	mul	a3,t1,a4
    2cdc:	02e707b3          	mul	a5,a4,a4
    2ce0:	02e735b3          	mulhu	a1,a4,a4
    2ce4:	20b6a6b3          	sh1add	a3,a3,a1
    2ce8:	01069693          	slli	a3,a3,0x10
    2cec:	0107d793          	srli	a5,a5,0x10
    2cf0:	00f687b3          	add	a5,a3,a5
    2cf4:	41f7d813          	srai	a6,a5,0x1f
    2cf8:	010b1b13          	slli	s6,s6,0x10
    2cfc:	41fb5693          	srai	a3,s6,0x1f
    2d00:	0000b8b7          	lui	a7,0xb
    2d04:	17288893          	addi	a7,a7,370 # b172 <__power_manager_start+0x172>
    2d08:	031686b3          	mul	a3,a3,a7
    2d0c:	031b05b3          	mul	a1,s6,a7
    2d10:	031b3b33          	mulhu	s6,s6,a7
    2d14:	016686b3          	add	a3,a3,s6
    2d18:	01069693          	slli	a3,a3,0x10
    2d1c:	0105d593          	srli	a1,a1,0x10
    2d20:	00b685b3          	add	a1,a3,a1
    2d24:	00bd85b3          	add	a1,s11,a1
    2d28:	000028b7          	lui	a7,0x2
    2d2c:	5e288893          	addi	a7,a7,1506 # 25e2 <T7_start+0x746>
    2d30:	03180e33          	mul	t3,a6,a7
    2d34:	031786b3          	mul	a3,a5,a7
    2d38:	0317b8b3          	mulhu	a7,a5,a7
    2d3c:	011e08b3          	add	a7,t3,a7
    2d40:	01089893          	slli	a7,a7,0x10
    2d44:	0106d693          	srli	a3,a3,0x10
    2d48:	00d886b3          	add	a3,a7,a3
    2d4c:	000038b7          	lui	a7,0x3
    2d50:	e8d88893          	addi	a7,a7,-371 # 2e8d <T9_start+0x5c5>
    2d54:	011686b3          	add	a3,a3,a7
    2d58:	41f6de13          	srai	t3,a3,0x1f
    2d5c:	02fe0e33          	mul	t3,t3,a5
    2d60:	02d808b3          	mul	a7,a6,a3
    2d64:	011e0e33          	add	t3,t3,a7
    2d68:	02f688b3          	mul	a7,a3,a5
    2d6c:	02f6b6b3          	mulhu	a3,a3,a5
    2d70:	00de06b3          	add	a3,t3,a3
    2d74:	01069693          	slli	a3,a3,0x10
    2d78:	0108d893          	srli	a7,a7,0x10
    2d7c:	011688b3          	add	a7,a3,a7
    2d80:	000056b7          	lui	a3,0x5
    2d84:	92568693          	addi	a3,a3,-1755 # 4925 <handler_irq_fast_timer_3+0x71>
    2d88:	00d888b3          	add	a7,a7,a3
    2d8c:	41f8de13          	srai	t3,a7,0x1f
    2d90:	02fe0e33          	mul	t3,t3,a5
    2d94:	031806b3          	mul	a3,a6,a7
    2d98:	00de0e33          	add	t3,t3,a3
    2d9c:	02f886b3          	mul	a3,a7,a5
    2da0:	02f8b8b3          	mulhu	a7,a7,a5
    2da4:	011e08b3          	add	a7,t3,a7
    2da8:	01089893          	slli	a7,a7,0x10
    2dac:	0106d693          	srli	a3,a3,0x10
    2db0:	00d886b3          	add	a3,a7,a3
    2db4:	0000b8b7          	lui	a7,0xb
    2db8:	aab88893          	addi	a7,a7,-1365 # aaab <main+0x1b3>
    2dbc:	011686b3          	add	a3,a3,a7
    2dc0:	41f6d893          	srai	a7,a3,0x1f
    2dc4:	02e888b3          	mul	a7,a7,a4
    2dc8:	02d30333          	mul	t1,t1,a3
    2dcc:	00688333          	add	t1,a7,t1
    2dd0:	02e688b3          	mul	a7,a3,a4
    2dd4:	02e6b6b3          	mulhu	a3,a3,a4
    2dd8:	00d30733          	add	a4,t1,a3
    2ddc:	01071713          	slli	a4,a4,0x10
    2de0:	0108d893          	srli	a7,a7,0x10
    2de4:	011708b3          	add	a7,a4,a7
    2de8:	00002737          	lui	a4,0x2
    2dec:	73470713          	addi	a4,a4,1844 # 2734 <T7_end+0x38>
    2df0:	02e80333          	mul	t1,a6,a4
    2df4:	02e786b3          	mul	a3,a5,a4
    2df8:	02e7b733          	mulhu	a4,a5,a4
    2dfc:	00e30733          	add	a4,t1,a4
    2e00:	01071713          	slli	a4,a4,0x10
    2e04:	0106d693          	srli	a3,a3,0x10
    2e08:	00d706b3          	add	a3,a4,a3
    2e0c:	00004737          	lui	a4,0x4
    2e10:	8e470713          	addi	a4,a4,-1820 # 38e4 <T11_start+0xc4>
    2e14:	00e686b3          	add	a3,a3,a4
    2e18:	41f6d313          	srai	t1,a3,0x1f
    2e1c:	02f30333          	mul	t1,t1,a5
    2e20:	02d80733          	mul	a4,a6,a3
    2e24:	00e30333          	add	t1,t1,a4
    2e28:	02f68733          	mul	a4,a3,a5
    2e2c:	02f6b6b3          	mulhu	a3,a3,a5
    2e30:	00d306b3          	add	a3,t1,a3
    2e34:	01069693          	slli	a3,a3,0x10
    2e38:	01075713          	srli	a4,a4,0x10
    2e3c:	00e68733          	add	a4,a3,a4
    2e40:	000066b7          	lui	a3,0x6
    2e44:	66668693          	addi	a3,a3,1638 # 6666 <__sfputc_r+0x36>
    2e48:	00d70733          	add	a4,a4,a3
    2e4c:	41f75693          	srai	a3,a4,0x1f
    2e50:	02f686b3          	mul	a3,a3,a5
    2e54:	02e80833          	mul	a6,a6,a4
    2e58:	010686b3          	add	a3,a3,a6
    2e5c:	02f70833          	mul	a6,a4,a5
    2e60:	02f73733          	mulhu	a4,a4,a5
    2e64:	00e687b3          	add	a5,a3,a4
    2e68:	01079793          	slli	a5,a5,0x10
    2e6c:	01085713          	srli	a4,a6,0x10
    2e70:	00e78733          	add	a4,a5,a4
    2e74:	00e888b3          	add	a7,a7,a4
    2e78:	411d87b3          	sub	a5,s11,a7
    2e7c:	41f7d713          	srai	a4,a5,0x1f
    2e80:	02a70733          	mul	a4,a4,a0
    2e84:	02f60633          	mul	a2,a2,a5
    2e88:	00c70733          	add	a4,a4,a2
    2e8c:	02a786b3          	mul	a3,a5,a0
    2e90:	02a7b7b3          	mulhu	a5,a5,a0
    2e94:	00f707b3          	add	a5,a4,a5
    2e98:	01079793          	slli	a5,a5,0x10
    2e9c:	0106d713          	srli	a4,a3,0x10
    2ea0:	00e78733          	add	a4,a5,a4
    2ea4:	40e585b3          	sub	a1,a1,a4
    2ea8:	10b12023          	sw	a1,256(sp)
    2eac:	00092683          	lw	a3,0(s2)
    2eb0:	00000713          	li	a4,0
    2eb4:	2406c263          	bltz	a3,30f8 <T9_start+0x830>
    2eb8:	62068a63          	beqz	a3,34ec <T9_end+0x78>
    2ebc:	000207b7          	lui	a5,0x20
    2ec0:	62d7d263          	bge	a5,a3,34e4 <T9_end+0x70>
    2ec4:	00000b13          	li	s6,0
    2ec8:	4016d693          	srai	a3,a3,0x1
    2ecc:	001b0b13          	addi	s6,s6,1
    2ed0:	fed7cce3          	blt	a5,a3,2ec8 <T9_start+0x600>
    2ed4:	ffff07b7          	lui	a5,0xffff0
    2ed8:	00f687b3          	add	a5,a3,a5
    2edc:	00078d93          	mv	s11,a5
    2ee0:	41f7d793          	srai	a5,a5,0x1f
    2ee4:	010dd593          	srli	a1,s11,0x10
    2ee8:	01079793          	slli	a5,a5,0x10
    2eec:	00010737          	lui	a4,0x10
    2ef0:	00e68633          	add	a2,a3,a4
    2ef4:	41f65693          	srai	a3,a2,0x1f
    2ef8:	010d9513          	slli	a0,s11,0x10
    2efc:	00f585b3          	add	a1,a1,a5
    2f00:	23c060ef          	jal	913c <__divdi3>
    2f04:	41f55593          	srai	a1,a0,0x1f
    2f08:	02a587b3          	mul	a5,a1,a0
    2f0c:	02a506b3          	mul	a3,a0,a0
    2f10:	02a53733          	mulhu	a4,a0,a0
    2f14:	20e7a7b3          	sh1add	a5,a5,a4
    2f18:	01079793          	slli	a5,a5,0x10
    2f1c:	0106d693          	srli	a3,a3,0x10
    2f20:	00d786b3          	add	a3,a5,a3
    2f24:	41f6d313          	srai	t1,a3,0x1f
    2f28:	02d30733          	mul	a4,t1,a3
    2f2c:	02d687b3          	mul	a5,a3,a3
    2f30:	02d6b633          	mulhu	a2,a3,a3
    2f34:	20c72733          	sh1add	a4,a4,a2
    2f38:	01071713          	slli	a4,a4,0x10
    2f3c:	0107d793          	srli	a5,a5,0x10
    2f40:	00f707b3          	add	a5,a4,a5
    2f44:	41f7d813          	srai	a6,a5,0x1f
    2f48:	010b1b13          	slli	s6,s6,0x10
    2f4c:	41fb5613          	srai	a2,s6,0x1f
    2f50:	0000b8b7          	lui	a7,0xb
    2f54:	17288893          	addi	a7,a7,370 # b172 <__power_manager_start+0x172>
    2f58:	03160633          	mul	a2,a2,a7
    2f5c:	031b0733          	mul	a4,s6,a7
    2f60:	031b3b33          	mulhu	s6,s6,a7
    2f64:	01660633          	add	a2,a2,s6
    2f68:	01061613          	slli	a2,a2,0x10
    2f6c:	01075713          	srli	a4,a4,0x10
    2f70:	00e60733          	add	a4,a2,a4
    2f74:	00ed8733          	add	a4,s11,a4
    2f78:	000028b7          	lui	a7,0x2
    2f7c:	5e288893          	addi	a7,a7,1506 # 25e2 <T7_start+0x746>
    2f80:	03180e33          	mul	t3,a6,a7
    2f84:	03178633          	mul	a2,a5,a7
    2f88:	0317b8b3          	mulhu	a7,a5,a7
    2f8c:	011e08b3          	add	a7,t3,a7
    2f90:	01089893          	slli	a7,a7,0x10
    2f94:	01065613          	srli	a2,a2,0x10
    2f98:	00c88633          	add	a2,a7,a2
    2f9c:	000038b7          	lui	a7,0x3
    2fa0:	e8d88893          	addi	a7,a7,-371 # 2e8d <T9_start+0x5c5>
    2fa4:	01160633          	add	a2,a2,a7
    2fa8:	41f65e13          	srai	t3,a2,0x1f
    2fac:	02fe0e33          	mul	t3,t3,a5
    2fb0:	02c808b3          	mul	a7,a6,a2
    2fb4:	011e0e33          	add	t3,t3,a7
    2fb8:	02f608b3          	mul	a7,a2,a5
    2fbc:	02f63633          	mulhu	a2,a2,a5
    2fc0:	00ce0633          	add	a2,t3,a2
    2fc4:	01061613          	slli	a2,a2,0x10
    2fc8:	0108d893          	srli	a7,a7,0x10
    2fcc:	011608b3          	add	a7,a2,a7
    2fd0:	00005637          	lui	a2,0x5
    2fd4:	92560613          	addi	a2,a2,-1755 # 4925 <handler_irq_fast_timer_3+0x71>
    2fd8:	00c888b3          	add	a7,a7,a2
    2fdc:	41f8de13          	srai	t3,a7,0x1f
    2fe0:	02fe0e33          	mul	t3,t3,a5
    2fe4:	03180633          	mul	a2,a6,a7
    2fe8:	00ce0e33          	add	t3,t3,a2
    2fec:	02f88633          	mul	a2,a7,a5
    2ff0:	02f8b8b3          	mulhu	a7,a7,a5
    2ff4:	011e08b3          	add	a7,t3,a7
    2ff8:	01089893          	slli	a7,a7,0x10
    2ffc:	01065613          	srli	a2,a2,0x10
    3000:	00c88633          	add	a2,a7,a2
    3004:	0000b8b7          	lui	a7,0xb
    3008:	aab88893          	addi	a7,a7,-1365 # aaab <main+0x1b3>
    300c:	01160633          	add	a2,a2,a7
    3010:	41f65893          	srai	a7,a2,0x1f
    3014:	02d888b3          	mul	a7,a7,a3
    3018:	02c30333          	mul	t1,t1,a2
    301c:	00688333          	add	t1,a7,t1
    3020:	02d608b3          	mul	a7,a2,a3
    3024:	02d63633          	mulhu	a2,a2,a3
    3028:	00c306b3          	add	a3,t1,a2
    302c:	01069693          	slli	a3,a3,0x10
    3030:	0108d893          	srli	a7,a7,0x10
    3034:	011688b3          	add	a7,a3,a7
    3038:	000026b7          	lui	a3,0x2
    303c:	73468693          	addi	a3,a3,1844 # 2734 <T7_end+0x38>
    3040:	02d80333          	mul	t1,a6,a3
    3044:	02d78633          	mul	a2,a5,a3
    3048:	02d7b6b3          	mulhu	a3,a5,a3
    304c:	00d306b3          	add	a3,t1,a3
    3050:	01069693          	slli	a3,a3,0x10
    3054:	01065613          	srli	a2,a2,0x10
    3058:	00c68633          	add	a2,a3,a2
    305c:	000046b7          	lui	a3,0x4
    3060:	8e468693          	addi	a3,a3,-1820 # 38e4 <T11_start+0xc4>
    3064:	00d60633          	add	a2,a2,a3
    3068:	41f65313          	srai	t1,a2,0x1f
    306c:	02f30333          	mul	t1,t1,a5
    3070:	02c806b3          	mul	a3,a6,a2
    3074:	00d30333          	add	t1,t1,a3
    3078:	02f606b3          	mul	a3,a2,a5
    307c:	02f63633          	mulhu	a2,a2,a5
    3080:	00c30633          	add	a2,t1,a2
    3084:	01061613          	slli	a2,a2,0x10
    3088:	0106d693          	srli	a3,a3,0x10
    308c:	00d606b3          	add	a3,a2,a3
    3090:	00006637          	lui	a2,0x6
    3094:	66660613          	addi	a2,a2,1638 # 6666 <__sfputc_r+0x36>
    3098:	00c686b3          	add	a3,a3,a2
    309c:	41f6d613          	srai	a2,a3,0x1f
    30a0:	02f60633          	mul	a2,a2,a5
    30a4:	02d80833          	mul	a6,a6,a3
    30a8:	01060633          	add	a2,a2,a6
    30ac:	02f68833          	mul	a6,a3,a5
    30b0:	02f6b6b3          	mulhu	a3,a3,a5
    30b4:	00d607b3          	add	a5,a2,a3
    30b8:	01079793          	slli	a5,a5,0x10
    30bc:	01085693          	srli	a3,a6,0x10
    30c0:	00d786b3          	add	a3,a5,a3
    30c4:	00d888b3          	add	a7,a7,a3
    30c8:	411d87b3          	sub	a5,s11,a7
    30cc:	41f7d693          	srai	a3,a5,0x1f
    30d0:	02a686b3          	mul	a3,a3,a0
    30d4:	02f585b3          	mul	a1,a1,a5
    30d8:	00b686b3          	add	a3,a3,a1
    30dc:	02a78633          	mul	a2,a5,a0
    30e0:	02a7b7b3          	mulhu	a5,a5,a0
    30e4:	00f687b3          	add	a5,a3,a5
    30e8:	01079793          	slli	a5,a5,0x10
    30ec:	01065693          	srli	a3,a2,0x10
    30f0:	00d786b3          	add	a3,a5,a3
    30f4:	40d70733          	sub	a4,a4,a3
    30f8:	00eb8733          	add	a4,s7,a4
    30fc:	10e12223          	sw	a4,260(sp)
    3100:	000107b7          	lui	a5,0x10
    3104:	180d0c63          	beqz	s10,329c <T9_start+0x9d4>
    3108:	41a00733          	neg	a4,s10
    310c:	0aed6733          	max	a4,s10,a4
    3110:	41f75793          	srai	a5,a4,0x1f
    3114:	000176b7          	lui	a3,0x17
    3118:	15468693          	addi	a3,a3,340 # 17154 <heap.cpp.6b15d6f6+0x54eb>
    311c:	02d787b3          	mul	a5,a5,a3
    3120:	02d70b33          	mul	s6,a4,a3
    3124:	02d73733          	mulhu	a4,a4,a3
    3128:	00e787b3          	add	a5,a5,a4
    312c:	01079793          	slli	a5,a5,0x10
    3130:	010b5b13          	srli	s6,s6,0x10
    3134:	01678b33          	add	s6,a5,s6
    3138:	000087b7          	lui	a5,0x8
    313c:	00fb0b33          	add	s6,s6,a5
    3140:	ffff07b7          	lui	a5,0xffff0
    3144:	00fb7b33          	and	s6,s6,a5
    3148:	3a0d4663          	bltz	s10,34f4 <T9_end+0x80>
    314c:	41fb5713          	srai	a4,s6,0x1f
    3150:	0000b6b7          	lui	a3,0xb
    3154:	17268693          	addi	a3,a3,370 # b172 <__power_manager_start+0x172>
    3158:	02d70733          	mul	a4,a4,a3
    315c:	02db07b3          	mul	a5,s6,a3
    3160:	02db36b3          	mulhu	a3,s6,a3
    3164:	00d70733          	add	a4,a4,a3
    3168:	01071713          	slli	a4,a4,0x10
    316c:	0107d793          	srli	a5,a5,0x10
    3170:	00f707b3          	add	a5,a4,a5
    3174:	40fd07b3          	sub	a5,s10,a5
    3178:	41f7d693          	srai	a3,a5,0x1f
    317c:	02f686b3          	mul	a3,a3,a5
    3180:	02f78733          	mul	a4,a5,a5
    3184:	02f7b633          	mulhu	a2,a5,a5
    3188:	20c6a6b3          	sh1add	a3,a3,a2
    318c:	01069693          	slli	a3,a3,0x10
    3190:	01075713          	srli	a4,a4,0x10
    3194:	00e68733          	add	a4,a3,a4
    3198:	41f75513          	srai	a0,a4,0x1f
    319c:	01e75693          	srli	a3,a4,0x1e
    31a0:	20d546b3          	sh2add	a3,a0,a3
    31a4:	00271613          	slli	a2,a4,0x2
    31a8:	01069693          	slli	a3,a3,0x10
    31ac:	01065613          	srli	a2,a2,0x10
    31b0:	00c68633          	add	a2,a3,a2
    31b4:	f4a60613          	addi	a2,a2,-182
    31b8:	41f65593          	srai	a1,a2,0x1f
    31bc:	02e585b3          	mul	a1,a1,a4
    31c0:	02c506b3          	mul	a3,a0,a2
    31c4:	00d585b3          	add	a1,a1,a3
    31c8:	02e606b3          	mul	a3,a2,a4
    31cc:	02e63633          	mulhu	a2,a2,a4
    31d0:	00c58633          	add	a2,a1,a2
    31d4:	01061613          	slli	a2,a2,0x10
    31d8:	0106d693          	srli	a3,a3,0x10
    31dc:	00d606b3          	add	a3,a2,a3
    31e0:	00003637          	lui	a2,0x3
    31e4:	aab60613          	addi	a2,a2,-1365 # 2aab <T9_start+0x1e3>
    31e8:	00c686b3          	add	a3,a3,a2
    31ec:	41f6d613          	srai	a2,a3,0x1f
    31f0:	02e60633          	mul	a2,a2,a4
    31f4:	02d50533          	mul	a0,a0,a3
    31f8:	00a60633          	add	a2,a2,a0
    31fc:	02e685b3          	mul	a1,a3,a4
    3200:	02e6b6b3          	mulhu	a3,a3,a4
    3204:	00d60733          	add	a4,a2,a3
    3208:	01071713          	slli	a4,a4,0x10
    320c:	0105d693          	srli	a3,a1,0x10
    3210:	00d706b3          	add	a3,a4,a3
    3214:	00020737          	lui	a4,0x20
    3218:	00e686b3          	add	a3,a3,a4
    321c:	40f68633          	sub	a2,a3,a5
    3220:	02f68c63          	beq	a3,a5,3258 <T9_start+0x990>
    3224:	00f7d713          	srli	a4,a5,0xf
    3228:	01179793          	slli	a5,a5,0x11
    322c:	01071713          	slli	a4,a4,0x10
    3230:	0107d793          	srli	a5,a5,0x10
    3234:	00f707b3          	add	a5,a4,a5
    3238:	41f7d713          	srai	a4,a5,0x1f
    323c:	0107d593          	srli	a1,a5,0x10
    3240:	01071713          	slli	a4,a4,0x10
    3244:	41f65693          	srai	a3,a2,0x1f
    3248:	01079513          	slli	a0,a5,0x10
    324c:	00e585b3          	add	a1,a1,a4
    3250:	6ed050ef          	jal	913c <__divdi3>
    3254:	00050613          	mv	a2,a0
    3258:	000107b7          	lui	a5,0x10
    325c:	00f606b3          	add	a3,a2,a5
    3260:	280b4e63          	bltz	s6,34fc <T9_end+0x88>
    3264:	410b5b13          	srai	s6,s6,0x10
    3268:	00010737          	lui	a4,0x10
    326c:	01671733          	sll	a4,a4,s6
    3270:	41f75793          	srai	a5,a4,0x1f
    3274:	41f6d613          	srai	a2,a3,0x1f
    3278:	02d787b3          	mul	a5,a5,a3
    327c:	02e60633          	mul	a2,a2,a4
    3280:	00c787b3          	add	a5,a5,a2
    3284:	02d70633          	mul	a2,a4,a3
    3288:	02d73733          	mulhu	a4,a4,a3
    328c:	00e787b3          	add	a5,a5,a4
    3290:	01079793          	slli	a5,a5,0x10
    3294:	01065713          	srli	a4,a2,0x10
    3298:	00e787b3          	add	a5,a5,a4
    329c:	10f12423          	sw	a5,264(sp)
    32a0:	000107b7          	lui	a5,0x10
    32a4:	180c8c63          	beqz	s9,343c <T9_start+0xb74>
    32a8:	41900733          	neg	a4,s9
    32ac:	0aece733          	max	a4,s9,a4
    32b0:	41f75793          	srai	a5,a4,0x1f
    32b4:	000176b7          	lui	a3,0x17
    32b8:	15468693          	addi	a3,a3,340 # 17154 <heap.cpp.6b15d6f6+0x54eb>
    32bc:	02d787b3          	mul	a5,a5,a3
    32c0:	02d70b33          	mul	s6,a4,a3
    32c4:	02d73733          	mulhu	a4,a4,a3
    32c8:	00e787b3          	add	a5,a5,a4
    32cc:	01079793          	slli	a5,a5,0x10
    32d0:	010b5b13          	srli	s6,s6,0x10
    32d4:	01678b33          	add	s6,a5,s6
    32d8:	000087b7          	lui	a5,0x8
    32dc:	00fb0b33          	add	s6,s6,a5
    32e0:	ffff07b7          	lui	a5,0xffff0
    32e4:	00fb7b33          	and	s6,s6,a5
    32e8:	220cc463          	bltz	s9,3510 <T9_end+0x9c>
    32ec:	41fb5713          	srai	a4,s6,0x1f
    32f0:	0000b6b7          	lui	a3,0xb
    32f4:	17268693          	addi	a3,a3,370 # b172 <__power_manager_start+0x172>
    32f8:	02d70733          	mul	a4,a4,a3
    32fc:	02db07b3          	mul	a5,s6,a3
    3300:	02db36b3          	mulhu	a3,s6,a3
    3304:	00d70733          	add	a4,a4,a3
    3308:	01071713          	slli	a4,a4,0x10
    330c:	0107d793          	srli	a5,a5,0x10
    3310:	00f707b3          	add	a5,a4,a5
    3314:	40fc87b3          	sub	a5,s9,a5
    3318:	41f7d693          	srai	a3,a5,0x1f
    331c:	02f686b3          	mul	a3,a3,a5
    3320:	02f78733          	mul	a4,a5,a5
    3324:	02f7b633          	mulhu	a2,a5,a5
    3328:	20c6a6b3          	sh1add	a3,a3,a2
    332c:	01069693          	slli	a3,a3,0x10
    3330:	01075713          	srli	a4,a4,0x10
    3334:	00e68733          	add	a4,a3,a4
    3338:	41f75513          	srai	a0,a4,0x1f
    333c:	01e75693          	srli	a3,a4,0x1e
    3340:	20d546b3          	sh2add	a3,a0,a3
    3344:	00271613          	slli	a2,a4,0x2
    3348:	01069693          	slli	a3,a3,0x10
    334c:	01065613          	srli	a2,a2,0x10
    3350:	00c68633          	add	a2,a3,a2
    3354:	f4a60613          	addi	a2,a2,-182
    3358:	41f65593          	srai	a1,a2,0x1f
    335c:	02e585b3          	mul	a1,a1,a4
    3360:	02c506b3          	mul	a3,a0,a2
    3364:	00d585b3          	add	a1,a1,a3
    3368:	02e606b3          	mul	a3,a2,a4
    336c:	02e63633          	mulhu	a2,a2,a4
    3370:	00c58633          	add	a2,a1,a2
    3374:	01061613          	slli	a2,a2,0x10
    3378:	0106d693          	srli	a3,a3,0x10
    337c:	00d606b3          	add	a3,a2,a3
    3380:	00003637          	lui	a2,0x3
    3384:	aab60613          	addi	a2,a2,-1365 # 2aab <T9_start+0x1e3>
    3388:	00c686b3          	add	a3,a3,a2
    338c:	41f6d613          	srai	a2,a3,0x1f
    3390:	02e60633          	mul	a2,a2,a4
    3394:	02d50533          	mul	a0,a0,a3
    3398:	00a60633          	add	a2,a2,a0
    339c:	02e685b3          	mul	a1,a3,a4
    33a0:	02e6b6b3          	mulhu	a3,a3,a4
    33a4:	00d60733          	add	a4,a2,a3
    33a8:	01071713          	slli	a4,a4,0x10
    33ac:	0105d693          	srli	a3,a1,0x10
    33b0:	00d706b3          	add	a3,a4,a3
    33b4:	00020737          	lui	a4,0x20
    33b8:	00e686b3          	add	a3,a3,a4
    33bc:	40f68633          	sub	a2,a3,a5
    33c0:	02f68c63          	beq	a3,a5,33f8 <T9_start+0xb30>
    33c4:	00f7d713          	srli	a4,a5,0xf
    33c8:	01179793          	slli	a5,a5,0x11
    33cc:	01071713          	slli	a4,a4,0x10
    33d0:	0107d793          	srli	a5,a5,0x10
    33d4:	00f707b3          	add	a5,a4,a5
    33d8:	41f7d713          	srai	a4,a5,0x1f
    33dc:	0107d593          	srli	a1,a5,0x10
    33e0:	01071713          	slli	a4,a4,0x10
    33e4:	41f65693          	srai	a3,a2,0x1f
    33e8:	01079513          	slli	a0,a5,0x10
    33ec:	00e585b3          	add	a1,a1,a4
    33f0:	54d050ef          	jal	913c <__divdi3>
    33f4:	00050613          	mv	a2,a0
    33f8:	000107b7          	lui	a5,0x10
    33fc:	00f606b3          	add	a3,a2,a5
    3400:	100b4c63          	bltz	s6,3518 <T9_end+0xa4>
    3404:	410b5b13          	srai	s6,s6,0x10
    3408:	00010737          	lui	a4,0x10
    340c:	01671733          	sll	a4,a4,s6
    3410:	41f75793          	srai	a5,a4,0x1f
    3414:	41f6d613          	srai	a2,a3,0x1f
    3418:	02d787b3          	mul	a5,a5,a3
    341c:	02e60633          	mul	a2,a2,a4
    3420:	00c787b3          	add	a5,a5,a2
    3424:	02d70633          	mul	a2,a4,a3
    3428:	02d73733          	mulhu	a4,a4,a3
    342c:	00e787b3          	add	a5,a5,a4
    3430:	01079793          	slli	a5,a5,0x10
    3434:	01065713          	srli	a4,a2,0x10
    3438:	00e787b3          	add	a5,a5,a4
    343c:	00812703          	lw	a4,8(sp)
    3440:	0af767b3          	max	a5,a4,a5
    3444:	41f7d713          	srai	a4,a5,0x1f
    3448:	41fbd693          	srai	a3,s7,0x1f
    344c:	03770733          	mul	a4,a4,s7
    3450:	02f686b3          	mul	a3,a3,a5
    3454:	00d70733          	add	a4,a4,a3
    3458:	037786b3          	mul	a3,a5,s7
    345c:	0377b7b3          	mulhu	a5,a5,s7
    3460:	00f707b3          	add	a5,a4,a5
    3464:	01079793          	slli	a5,a5,0x10
    3468:	0106d713          	srli	a4,a3,0x10
    346c:	00e78733          	add	a4,a5,a4
    3470:	10e12623          	sw	a4,268(sp)

00003474 <T9_end>:
    3474:	b00027f3          	csrr	a5,mcycle
    3478:	00c12703          	lw	a4,12(sp)
    347c:	40e787b3          	sub	a5,a5,a4
    3480:	02fa2223          	sw	a5,36(s4)
    3484:	0e412603          	lw	a2,228(sp)
    3488:	0e810713          	addi	a4,sp,232
    348c:	00000513          	li	a0,0
    3490:	00100793          	li	a5,1
    3494:	00b00593          	li	a1,11
    3498:	0a00006f          	j	3538 <T9_end+0xc4>
    349c:	41600b33          	neg	s6,s6
    34a0:	cb4ff06f          	j	2954 <T9_start+0x8c>
    34a4:	416007b3          	neg	a5,s6
    34a8:	4107d793          	srai	a5,a5,0x10
    34ac:	00010737          	lui	a4,0x10
    34b0:	40f75733          	sra	a4,a4,a5
    34b4:	dc4ff06f          	j	2a78 <T9_start+0x1b0>
    34b8:	41600b33          	neg	s6,s6
    34bc:	e48ff06f          	j	2b04 <T9_start+0x23c>
    34c0:	416007b3          	neg	a5,s6
    34c4:	4107d793          	srai	a5,a5,0x10
    34c8:	00010737          	lui	a4,0x10
    34cc:	40f75733          	sra	a4,a4,a5
    34d0:	f58ff06f          	j	2c28 <T9_start+0x360>
    34d4:	00000b13          	li	s6,0
    34d8:	facff06f          	j	2c84 <T9_start+0x3bc>
    34dc:	fff00593          	li	a1,-1
    34e0:	9c9ff06f          	j	2ea8 <T9_start+0x5e0>
    34e4:	00000b13          	li	s6,0
    34e8:	9edff06f          	j	2ed4 <T9_start+0x60c>
    34ec:	fff00713          	li	a4,-1
    34f0:	c09ff06f          	j	30f8 <T9_start+0x830>
    34f4:	41600b33          	neg	s6,s6
    34f8:	c55ff06f          	j	314c <T9_start+0x884>
    34fc:	416007b3          	neg	a5,s6
    3500:	4107d793          	srai	a5,a5,0x10
    3504:	00010737          	lui	a4,0x10
    3508:	40f75733          	sra	a4,a4,a5
    350c:	d65ff06f          	j	3270 <T9_start+0x9a8>
    3510:	41600b33          	neg	s6,s6
    3514:	dd9ff06f          	j	32ec <T9_start+0xa24>
    3518:	416007b3          	neg	a5,s6
    351c:	4107d793          	srai	a5,a5,0x10
    3520:	00010737          	lui	a4,0x10
    3524:	40f75733          	sra	a4,a4,a5
    3528:	ee9ff06f          	j	3410 <T9_start+0xb48>
    352c:	00178793          	addi	a5,a5,1 # 10001 <syscalls.c.42d7056b+0x1005>
    3530:	00470713          	addi	a4,a4,4 # 10004 <syscalls.c.42d7056b+0x1008>
    3534:	00b78c63          	beq	a5,a1,354c <T9_end+0xd8>
    3538:	00072683          	lw	a3,0(a4)
    353c:	fec6c8e3          	blt	a3,a2,352c <T9_end+0xb8>
    3540:	00068613          	mv	a2,a3
    3544:	00078513          	mv	a0,a5
    3548:	fe5ff06f          	j	352c <T9_end+0xb8>
    354c:	00020737          	lui	a4,0x20
    3550:	000207b7          	lui	a5,0x20
    3554:	08878793          	addi	a5,a5,136 # 20088 <next.7>
    3558:	20f54533          	sh2add	a0,a0,a5
    355c:	00052783          	lw	a5,0(a0)
    3560:	10470713          	addi	a4,a4,260 # 20104 <jump_table.17>
    3564:	20e7c7b3          	sh2add	a5,a5,a4
    3568:	0007a783          	lw	a5,0(a5)
    356c:	11412d03          	lw	s10,276(sp)
    3570:	11012d83          	lw	s11,272(sp)
    3574:	e28fd06f          	j	b9c <inferenceTPG+0x4c>
    3578:	11a12a23          	sw	s10,276(sp)

0000357c <T10_start>:
    357c:	b00027f3          	csrr	a5,mcycle
    3580:	00078d13          	mv	s10,a5
    3584:	0084ab83          	lw	s7,8(s1)
    3588:	0049a783          	lw	a5,4(s3)
    358c:	417787b3          	sub	a5,a5,s7
    3590:	0af12423          	sw	a5,168(sp)
    3594:	0009a783          	lw	a5,0(s3)
    3598:	00179793          	slli	a5,a5,0x1
    359c:	0af12623          	sw	a5,172(sp)
    35a0:	0004a783          	lw	a5,0(s1)
    35a4:	00078c93          	mv	s9,a5
    35a8:	0af12823          	sw	a5,176(sp)
    35ac:	000107b7          	lui	a5,0x10
    35b0:	180b8c63          	beqz	s7,3748 <T10_start+0x1cc>
    35b4:	41700733          	neg	a4,s7
    35b8:	0aebe733          	max	a4,s7,a4
    35bc:	41f75793          	srai	a5,a4,0x1f
    35c0:	000176b7          	lui	a3,0x17
    35c4:	15468693          	addi	a3,a3,340 # 17154 <heap.cpp.6b15d6f6+0x54eb>
    35c8:	02d787b3          	mul	a5,a5,a3
    35cc:	02d70b33          	mul	s6,a4,a3
    35d0:	02d73733          	mulhu	a4,a4,a3
    35d4:	00e787b3          	add	a5,a5,a4
    35d8:	01079793          	slli	a5,a5,0x10
    35dc:	010b5b13          	srli	s6,s6,0x10
    35e0:	01678b33          	add	s6,a5,s6
    35e4:	000087b7          	lui	a5,0x8
    35e8:	00fb0b33          	add	s6,s6,a5
    35ec:	ffff07b7          	lui	a5,0xffff0
    35f0:	00fb7b33          	and	s6,s6,a5
    35f4:	1c0bc063          	bltz	s7,37b4 <T10_end+0x24>
    35f8:	41fb5713          	srai	a4,s6,0x1f
    35fc:	0000b6b7          	lui	a3,0xb
    3600:	17268693          	addi	a3,a3,370 # b172 <__power_manager_start+0x172>
    3604:	02d70733          	mul	a4,a4,a3
    3608:	02db07b3          	mul	a5,s6,a3
    360c:	02db36b3          	mulhu	a3,s6,a3
    3610:	00d70733          	add	a4,a4,a3
    3614:	01071713          	slli	a4,a4,0x10
    3618:	0107d793          	srli	a5,a5,0x10
    361c:	00f707b3          	add	a5,a4,a5
    3620:	40fb87b3          	sub	a5,s7,a5
    3624:	41f7d693          	srai	a3,a5,0x1f
    3628:	02f686b3          	mul	a3,a3,a5
    362c:	02f78733          	mul	a4,a5,a5
    3630:	02f7b633          	mulhu	a2,a5,a5
    3634:	20c6a6b3          	sh1add	a3,a3,a2
    3638:	01069693          	slli	a3,a3,0x10
    363c:	01075713          	srli	a4,a4,0x10
    3640:	00e68733          	add	a4,a3,a4
    3644:	41f75513          	srai	a0,a4,0x1f
    3648:	01e75693          	srli	a3,a4,0x1e
    364c:	20d546b3          	sh2add	a3,a0,a3
    3650:	00271613          	slli	a2,a4,0x2
    3654:	01069693          	slli	a3,a3,0x10
    3658:	01065613          	srli	a2,a2,0x10
    365c:	00c68633          	add	a2,a3,a2
    3660:	f4a60613          	addi	a2,a2,-182
    3664:	41f65593          	srai	a1,a2,0x1f
    3668:	02e585b3          	mul	a1,a1,a4
    366c:	02c506b3          	mul	a3,a0,a2
    3670:	00d585b3          	add	a1,a1,a3
    3674:	02e606b3          	mul	a3,a2,a4
    3678:	02e63633          	mulhu	a2,a2,a4
    367c:	00c58633          	add	a2,a1,a2
    3680:	01061613          	slli	a2,a2,0x10
    3684:	0106d693          	srli	a3,a3,0x10
    3688:	00d606b3          	add	a3,a2,a3
    368c:	00003637          	lui	a2,0x3
    3690:	aab60613          	addi	a2,a2,-1365 # 2aab <T9_start+0x1e3>
    3694:	00c686b3          	add	a3,a3,a2
    3698:	41f6d613          	srai	a2,a3,0x1f
    369c:	02e60633          	mul	a2,a2,a4
    36a0:	02d50533          	mul	a0,a0,a3
    36a4:	00a60633          	add	a2,a2,a0
    36a8:	02e685b3          	mul	a1,a3,a4
    36ac:	02e6b6b3          	mulhu	a3,a3,a4
    36b0:	00d60733          	add	a4,a2,a3
    36b4:	01071713          	slli	a4,a4,0x10
    36b8:	0105d693          	srli	a3,a1,0x10
    36bc:	00d706b3          	add	a3,a4,a3
    36c0:	00020737          	lui	a4,0x20
    36c4:	00e686b3          	add	a3,a3,a4
    36c8:	40f68633          	sub	a2,a3,a5
    36cc:	02f68c63          	beq	a3,a5,3704 <T10_start+0x188>
    36d0:	00f7d713          	srli	a4,a5,0xf
    36d4:	01179793          	slli	a5,a5,0x11
    36d8:	01071713          	slli	a4,a4,0x10
    36dc:	0107d793          	srli	a5,a5,0x10
    36e0:	00f707b3          	add	a5,a4,a5
    36e4:	41f7d713          	srai	a4,a5,0x1f
    36e8:	0107d593          	srli	a1,a5,0x10
    36ec:	01071713          	slli	a4,a4,0x10
    36f0:	41f65693          	srai	a3,a2,0x1f
    36f4:	01079513          	slli	a0,a5,0x10
    36f8:	00e585b3          	add	a1,a1,a4
    36fc:	241050ef          	jal	913c <__divdi3>
    3700:	00050613          	mv	a2,a0
    3704:	000107b7          	lui	a5,0x10
    3708:	00f606b3          	add	a3,a2,a5
    370c:	0a0b4863          	bltz	s6,37bc <T10_end+0x2c>
    3710:	410b5b13          	srai	s6,s6,0x10
    3714:	00010737          	lui	a4,0x10
    3718:	01671733          	sll	a4,a4,s6
    371c:	41f75793          	srai	a5,a4,0x1f
    3720:	41f6d613          	srai	a2,a3,0x1f
    3724:	02d787b3          	mul	a5,a5,a3
    3728:	02e60633          	mul	a2,a2,a4
    372c:	00c787b3          	add	a5,a5,a2
    3730:	02d70633          	mul	a2,a4,a3
    3734:	02d73733          	mulhu	a4,a4,a3
    3738:	00e787b3          	add	a5,a5,a4
    373c:	01079793          	slli	a5,a5,0x10
    3740:	01065713          	srli	a4,a2,0x10
    3744:	00e787b3          	add	a5,a5,a4
    3748:	0af12a23          	sw	a5,180(sp)
    374c:	00892603          	lw	a2,8(s2)
    3750:	02060263          	beqz	a2,3774 <T10_start+0x1f8>
    3754:	41fbd793          	srai	a5,s7,0x1f
    3758:	010bd593          	srli	a1,s7,0x10
    375c:	01079793          	slli	a5,a5,0x10
    3760:	41f65693          	srai	a3,a2,0x1f
    3764:	010b9513          	slli	a0,s7,0x10
    3768:	00f585b3          	add	a1,a1,a5
    376c:	1d1050ef          	jal	913c <__divdi3>
    3770:	00050613          	mv	a2,a0
    3774:	000aa783          	lw	a5,0(s5)
    3778:	0ac7e633          	max	a2,a5,a2
    377c:	0044a703          	lw	a4,4(s1)
    3780:	00e60633          	add	a2,a2,a4
    3784:	0ac12c23          	sw	a2,184(sp)
    3788:	019787b3          	add	a5,a5,s9
    378c:	0af12e23          	sw	a5,188(sp)

00003790 <T10_end>:
    3790:	b00027f3          	csrr	a5,mcycle
    3794:	41a787b3          	sub	a5,a5,s10
    3798:	02fa2423          	sw	a5,40(s4)
    379c:	0a812603          	lw	a2,168(sp)
    37a0:	0ac10713          	addi	a4,sp,172
    37a4:	00000513          	li	a0,0
    37a8:	00100793          	li	a5,1
    37ac:	00600593          	li	a1,6
    37b0:	02c0006f          	j	37dc <T10_end+0x4c>
    37b4:	41600b33          	neg	s6,s6
    37b8:	e41ff06f          	j	35f8 <T10_start+0x7c>
    37bc:	416007b3          	neg	a5,s6
    37c0:	4107d793          	srai	a5,a5,0x10
    37c4:	00010737          	lui	a4,0x10
    37c8:	40f75733          	sra	a4,a4,a5
    37cc:	f51ff06f          	j	371c <T10_start+0x1a0>
    37d0:	00178793          	addi	a5,a5,1 # 10001 <syscalls.c.42d7056b+0x1005>
    37d4:	00470713          	addi	a4,a4,4 # 10004 <syscalls.c.42d7056b+0x1008>
    37d8:	00b78c63          	beq	a5,a1,37f0 <T10_end+0x60>
    37dc:	00072683          	lw	a3,0(a4)
    37e0:	fec6c8e3          	blt	a3,a2,37d0 <T10_end+0x40>
    37e4:	00068613          	mv	a2,a3
    37e8:	00078513          	mv	a0,a5
    37ec:	fe5ff06f          	j	37d0 <T10_end+0x40>
    37f0:	00020737          	lui	a4,0x20
    37f4:	000207b7          	lui	a5,0x20
    37f8:	07078793          	addi	a5,a5,112 # 20070 <next.6>
    37fc:	20f54533          	sh2add	a0,a0,a5
    3800:	00052783          	lw	a5,0(a0)
    3804:	10470713          	addi	a4,a4,260 # 20104 <jump_table.17>
    3808:	20e7c7b3          	sh2add	a5,a5,a4
    380c:	0007a783          	lw	a5,0(a5)
    3810:	11412d03          	lw	s10,276(sp)
    3814:	b88fd06f          	j	b9c <inferenceTPG+0x4c>
    3818:	11a12a23          	sw	s10,276(sp)
    381c:	11b12823          	sw	s11,272(sp)

00003820 <T11_start>:
    3820:	b00027f3          	csrr	a5,mcycle
    3824:	00078d93          	mv	s11,a5
    3828:	0049a683          	lw	a3,4(s3)
    382c:	00000713          	li	a4,0
    3830:	2406c063          	bltz	a3,3a70 <T11_start+0x250>
    3834:	50068263          	beqz	a3,3d38 <T11_end+0x2c>
    3838:	000207b7          	lui	a5,0x20
    383c:	4ed7da63          	bge	a5,a3,3d30 <T11_end+0x24>
    3840:	00000b13          	li	s6,0
    3844:	4016d693          	srai	a3,a3,0x1
    3848:	001b0b13          	addi	s6,s6,1
    384c:	fed7cce3          	blt	a5,a3,3844 <T11_start+0x24>
    3850:	ffff0bb7          	lui	s7,0xffff0
    3854:	01768bb3          	add	s7,a3,s7
    3858:	41fbd793          	srai	a5,s7,0x1f
    385c:	010bd593          	srli	a1,s7,0x10
    3860:	01079793          	slli	a5,a5,0x10
    3864:	00010737          	lui	a4,0x10
    3868:	00e68633          	add	a2,a3,a4
    386c:	41f65693          	srai	a3,a2,0x1f
    3870:	010b9513          	slli	a0,s7,0x10
    3874:	00f585b3          	add	a1,a1,a5
    3878:	0c5050ef          	jal	913c <__divdi3>
    387c:	41f55593          	srai	a1,a0,0x1f
    3880:	02a587b3          	mul	a5,a1,a0
    3884:	02a506b3          	mul	a3,a0,a0
    3888:	02a53733          	mulhu	a4,a0,a0
    388c:	20e7a7b3          	sh1add	a5,a5,a4
    3890:	01079793          	slli	a5,a5,0x10
    3894:	0106d693          	srli	a3,a3,0x10
    3898:	00d786b3          	add	a3,a5,a3
    389c:	41f6d313          	srai	t1,a3,0x1f
    38a0:	02d30733          	mul	a4,t1,a3
    38a4:	02d687b3          	mul	a5,a3,a3
    38a8:	02d6b633          	mulhu	a2,a3,a3
    38ac:	20c72733          	sh1add	a4,a4,a2
    38b0:	01071713          	slli	a4,a4,0x10
    38b4:	0107d793          	srli	a5,a5,0x10
    38b8:	00f707b3          	add	a5,a4,a5
    38bc:	41f7d813          	srai	a6,a5,0x1f
    38c0:	010b1b13          	slli	s6,s6,0x10
    38c4:	41fb5613          	srai	a2,s6,0x1f
    38c8:	0000b8b7          	lui	a7,0xb
    38cc:	17288893          	addi	a7,a7,370 # b172 <__power_manager_start+0x172>
    38d0:	03160633          	mul	a2,a2,a7
    38d4:	031b0733          	mul	a4,s6,a7
    38d8:	031b3b33          	mulhu	s6,s6,a7
    38dc:	01660633          	add	a2,a2,s6
    38e0:	01061613          	slli	a2,a2,0x10
    38e4:	01075713          	srli	a4,a4,0x10
    38e8:	00e60733          	add	a4,a2,a4
    38ec:	00eb8733          	add	a4,s7,a4
    38f0:	000028b7          	lui	a7,0x2
    38f4:	5e288893          	addi	a7,a7,1506 # 25e2 <T7_start+0x746>
    38f8:	03180e33          	mul	t3,a6,a7
    38fc:	03178633          	mul	a2,a5,a7
    3900:	0317b8b3          	mulhu	a7,a5,a7
    3904:	011e08b3          	add	a7,t3,a7
    3908:	01089893          	slli	a7,a7,0x10
    390c:	01065613          	srli	a2,a2,0x10
    3910:	00c88633          	add	a2,a7,a2
    3914:	000038b7          	lui	a7,0x3
    3918:	e8d88893          	addi	a7,a7,-371 # 2e8d <T9_start+0x5c5>
    391c:	01160633          	add	a2,a2,a7
    3920:	41f65e13          	srai	t3,a2,0x1f
    3924:	02fe0e33          	mul	t3,t3,a5
    3928:	02c808b3          	mul	a7,a6,a2
    392c:	011e0e33          	add	t3,t3,a7
    3930:	02f608b3          	mul	a7,a2,a5
    3934:	02f63633          	mulhu	a2,a2,a5
    3938:	00ce0633          	add	a2,t3,a2
    393c:	01061613          	slli	a2,a2,0x10
    3940:	0108d893          	srli	a7,a7,0x10
    3944:	011608b3          	add	a7,a2,a7
    3948:	00005637          	lui	a2,0x5
    394c:	92560613          	addi	a2,a2,-1755 # 4925 <handler_irq_fast_timer_3+0x71>
    3950:	00c888b3          	add	a7,a7,a2
    3954:	41f8de13          	srai	t3,a7,0x1f
    3958:	02fe0e33          	mul	t3,t3,a5
    395c:	03180633          	mul	a2,a6,a7
    3960:	00ce0e33          	add	t3,t3,a2
    3964:	02f88633          	mul	a2,a7,a5
    3968:	02f8b8b3          	mulhu	a7,a7,a5
    396c:	011e08b3          	add	a7,t3,a7
    3970:	01089893          	slli	a7,a7,0x10
    3974:	01065613          	srli	a2,a2,0x10
    3978:	00c88633          	add	a2,a7,a2
    397c:	0000b8b7          	lui	a7,0xb
    3980:	aab88893          	addi	a7,a7,-1365 # aaab <main+0x1b3>
    3984:	01160633          	add	a2,a2,a7
    3988:	41f65893          	srai	a7,a2,0x1f
    398c:	02d888b3          	mul	a7,a7,a3
    3990:	02c30333          	mul	t1,t1,a2
    3994:	00688333          	add	t1,a7,t1
    3998:	02d608b3          	mul	a7,a2,a3
    399c:	02d63633          	mulhu	a2,a2,a3
    39a0:	00c306b3          	add	a3,t1,a2
    39a4:	01069693          	slli	a3,a3,0x10
    39a8:	0108d893          	srli	a7,a7,0x10
    39ac:	011688b3          	add	a7,a3,a7
    39b0:	000026b7          	lui	a3,0x2
    39b4:	73468693          	addi	a3,a3,1844 # 2734 <T7_end+0x38>
    39b8:	02d80333          	mul	t1,a6,a3
    39bc:	02d78633          	mul	a2,a5,a3
    39c0:	02d7b6b3          	mulhu	a3,a5,a3
    39c4:	00d306b3          	add	a3,t1,a3
    39c8:	01069693          	slli	a3,a3,0x10
    39cc:	01065613          	srli	a2,a2,0x10
    39d0:	00c68633          	add	a2,a3,a2
    39d4:	000046b7          	lui	a3,0x4
    39d8:	8e468693          	addi	a3,a3,-1820 # 38e4 <T11_start+0xc4>
    39dc:	00d60633          	add	a2,a2,a3
    39e0:	41f65313          	srai	t1,a2,0x1f
    39e4:	02f30333          	mul	t1,t1,a5
    39e8:	02c806b3          	mul	a3,a6,a2
    39ec:	00d30333          	add	t1,t1,a3
    39f0:	02f606b3          	mul	a3,a2,a5
    39f4:	02f63633          	mulhu	a2,a2,a5
    39f8:	00c30633          	add	a2,t1,a2
    39fc:	01061613          	slli	a2,a2,0x10
    3a00:	0106d693          	srli	a3,a3,0x10
    3a04:	00d606b3          	add	a3,a2,a3
    3a08:	00006637          	lui	a2,0x6
    3a0c:	66660613          	addi	a2,a2,1638 # 6666 <__sfputc_r+0x36>
    3a10:	00c686b3          	add	a3,a3,a2
    3a14:	41f6d613          	srai	a2,a3,0x1f
    3a18:	02f60633          	mul	a2,a2,a5
    3a1c:	02d80833          	mul	a6,a6,a3
    3a20:	01060633          	add	a2,a2,a6
    3a24:	02f68833          	mul	a6,a3,a5
    3a28:	02f6b6b3          	mulhu	a3,a3,a5
    3a2c:	00d607b3          	add	a5,a2,a3
    3a30:	01079793          	slli	a5,a5,0x10
    3a34:	01085693          	srli	a3,a6,0x10
    3a38:	00d786b3          	add	a3,a5,a3
    3a3c:	00d888b3          	add	a7,a7,a3
    3a40:	411b8bb3          	sub	s7,s7,a7
    3a44:	41fbd793          	srai	a5,s7,0x1f
    3a48:	02a787b3          	mul	a5,a5,a0
    3a4c:	037585b3          	mul	a1,a1,s7
    3a50:	00b787b3          	add	a5,a5,a1
    3a54:	02ab86b3          	mul	a3,s7,a0
    3a58:	02abbbb3          	mulhu	s7,s7,a0
    3a5c:	017787b3          	add	a5,a5,s7
    3a60:	01079793          	slli	a5,a5,0x10
    3a64:	0106d693          	srli	a3,a3,0x10
    3a68:	00d786b3          	add	a3,a5,a3
    3a6c:	40d70733          	sub	a4,a4,a3
    3a70:	0084a783          	lw	a5,8(s1)
    3a74:	00078d13          	mv	s10,a5
    3a78:	00e78733          	add	a4,a5,a4
    3a7c:	08e12a23          	sw	a4,148(sp)
    3a80:	00092783          	lw	a5,0(s2)
    3a84:	00078c93          	mv	s9,a5
    3a88:	4e07c0e3          	bltz	a5,4768 <T14_end+0xf4>
    3a8c:	4e0782e3          	beqz	a5,4770 <T14_end+0xfc>
    3a90:	000207b7          	lui	a5,0x20
    3a94:	2b97d663          	bge	a5,s9,3d40 <T11_end+0x34>
    3a98:	000c8693          	mv	a3,s9
    3a9c:	00000b13          	li	s6,0
    3aa0:	4016d693          	srai	a3,a3,0x1
    3aa4:	001b0b13          	addi	s6,s6,1
    3aa8:	fed7cce3          	blt	a5,a3,3aa0 <T11_start+0x280>
    3aac:	ffff0bb7          	lui	s7,0xffff0
    3ab0:	01768bb3          	add	s7,a3,s7
    3ab4:	41fbd793          	srai	a5,s7,0x1f
    3ab8:	010bd593          	srli	a1,s7,0x10
    3abc:	01079793          	slli	a5,a5,0x10
    3ac0:	00010737          	lui	a4,0x10
    3ac4:	00e68633          	add	a2,a3,a4
    3ac8:	41f65693          	srai	a3,a2,0x1f
    3acc:	010b9513          	slli	a0,s7,0x10
    3ad0:	00f585b3          	add	a1,a1,a5
    3ad4:	668050ef          	jal	913c <__divdi3>
    3ad8:	41f55613          	srai	a2,a0,0x1f
    3adc:	02a607b3          	mul	a5,a2,a0
    3ae0:	02a50733          	mul	a4,a0,a0
    3ae4:	02a536b3          	mulhu	a3,a0,a0
    3ae8:	20d7a7b3          	sh1add	a5,a5,a3
    3aec:	01079793          	slli	a5,a5,0x10
    3af0:	01075713          	srli	a4,a4,0x10
    3af4:	00e78733          	add	a4,a5,a4
    3af8:	41f75313          	srai	t1,a4,0x1f
    3afc:	02e306b3          	mul	a3,t1,a4
    3b00:	02e707b3          	mul	a5,a4,a4
    3b04:	02e735b3          	mulhu	a1,a4,a4
    3b08:	20b6a6b3          	sh1add	a3,a3,a1
    3b0c:	01069693          	slli	a3,a3,0x10
    3b10:	0107d793          	srli	a5,a5,0x10
    3b14:	00f687b3          	add	a5,a3,a5
    3b18:	41f7d813          	srai	a6,a5,0x1f
    3b1c:	010b1b13          	slli	s6,s6,0x10
    3b20:	41fb5693          	srai	a3,s6,0x1f
    3b24:	0000b8b7          	lui	a7,0xb
    3b28:	17288893          	addi	a7,a7,370 # b172 <__power_manager_start+0x172>
    3b2c:	031686b3          	mul	a3,a3,a7
    3b30:	031b05b3          	mul	a1,s6,a7
    3b34:	031b3b33          	mulhu	s6,s6,a7
    3b38:	016686b3          	add	a3,a3,s6
    3b3c:	01069693          	slli	a3,a3,0x10
    3b40:	0105d593          	srli	a1,a1,0x10
    3b44:	00b685b3          	add	a1,a3,a1
    3b48:	00bb85b3          	add	a1,s7,a1
    3b4c:	000028b7          	lui	a7,0x2
    3b50:	5e288893          	addi	a7,a7,1506 # 25e2 <T7_start+0x746>
    3b54:	03180e33          	mul	t3,a6,a7
    3b58:	031786b3          	mul	a3,a5,a7
    3b5c:	0317b8b3          	mulhu	a7,a5,a7
    3b60:	011e08b3          	add	a7,t3,a7
    3b64:	01089893          	slli	a7,a7,0x10
    3b68:	0106d693          	srli	a3,a3,0x10
    3b6c:	00d886b3          	add	a3,a7,a3
    3b70:	000038b7          	lui	a7,0x3
    3b74:	e8d88893          	addi	a7,a7,-371 # 2e8d <T9_start+0x5c5>
    3b78:	011686b3          	add	a3,a3,a7
    3b7c:	41f6de13          	srai	t3,a3,0x1f
    3b80:	02fe0e33          	mul	t3,t3,a5
    3b84:	02d808b3          	mul	a7,a6,a3
    3b88:	011e0e33          	add	t3,t3,a7
    3b8c:	02f688b3          	mul	a7,a3,a5
    3b90:	02f6b6b3          	mulhu	a3,a3,a5
    3b94:	00de06b3          	add	a3,t3,a3
    3b98:	01069693          	slli	a3,a3,0x10
    3b9c:	0108d893          	srli	a7,a7,0x10
    3ba0:	011688b3          	add	a7,a3,a7
    3ba4:	000056b7          	lui	a3,0x5
    3ba8:	92568693          	addi	a3,a3,-1755 # 4925 <handler_irq_fast_timer_3+0x71>
    3bac:	00d888b3          	add	a7,a7,a3
    3bb0:	41f8de13          	srai	t3,a7,0x1f
    3bb4:	02fe0e33          	mul	t3,t3,a5
    3bb8:	031806b3          	mul	a3,a6,a7
    3bbc:	00de0e33          	add	t3,t3,a3
    3bc0:	02f886b3          	mul	a3,a7,a5
    3bc4:	02f8b8b3          	mulhu	a7,a7,a5
    3bc8:	011e08b3          	add	a7,t3,a7
    3bcc:	01089893          	slli	a7,a7,0x10
    3bd0:	0106d693          	srli	a3,a3,0x10
    3bd4:	00d886b3          	add	a3,a7,a3
    3bd8:	0000b8b7          	lui	a7,0xb
    3bdc:	aab88893          	addi	a7,a7,-1365 # aaab <main+0x1b3>
    3be0:	011686b3          	add	a3,a3,a7
    3be4:	41f6d893          	srai	a7,a3,0x1f
    3be8:	02e888b3          	mul	a7,a7,a4
    3bec:	02d30333          	mul	t1,t1,a3
    3bf0:	00688333          	add	t1,a7,t1
    3bf4:	02e688b3          	mul	a7,a3,a4
    3bf8:	02e6b6b3          	mulhu	a3,a3,a4
    3bfc:	00d30733          	add	a4,t1,a3
    3c00:	01071713          	slli	a4,a4,0x10
    3c04:	0108d893          	srli	a7,a7,0x10
    3c08:	011708b3          	add	a7,a4,a7
    3c0c:	00002737          	lui	a4,0x2
    3c10:	73470713          	addi	a4,a4,1844 # 2734 <T7_end+0x38>
    3c14:	02e80333          	mul	t1,a6,a4
    3c18:	02e786b3          	mul	a3,a5,a4
    3c1c:	02e7b733          	mulhu	a4,a5,a4
    3c20:	00e30733          	add	a4,t1,a4
    3c24:	01071713          	slli	a4,a4,0x10
    3c28:	0106d693          	srli	a3,a3,0x10
    3c2c:	00d706b3          	add	a3,a4,a3
    3c30:	00004737          	lui	a4,0x4
    3c34:	8e470713          	addi	a4,a4,-1820 # 38e4 <T11_start+0xc4>
    3c38:	00e686b3          	add	a3,a3,a4
    3c3c:	41f6d313          	srai	t1,a3,0x1f
    3c40:	02f30333          	mul	t1,t1,a5
    3c44:	02d80733          	mul	a4,a6,a3
    3c48:	00e30333          	add	t1,t1,a4
    3c4c:	02f68733          	mul	a4,a3,a5
    3c50:	02f6b6b3          	mulhu	a3,a3,a5
    3c54:	00d306b3          	add	a3,t1,a3
    3c58:	01069693          	slli	a3,a3,0x10
    3c5c:	01075713          	srli	a4,a4,0x10
    3c60:	00e68733          	add	a4,a3,a4
    3c64:	000066b7          	lui	a3,0x6
    3c68:	66668693          	addi	a3,a3,1638 # 6666 <__sfputc_r+0x36>
    3c6c:	00d70733          	add	a4,a4,a3
    3c70:	41f75693          	srai	a3,a4,0x1f
    3c74:	02f686b3          	mul	a3,a3,a5
    3c78:	02e80833          	mul	a6,a6,a4
    3c7c:	010686b3          	add	a3,a3,a6
    3c80:	02f70833          	mul	a6,a4,a5
    3c84:	02f73733          	mulhu	a4,a4,a5
    3c88:	00e687b3          	add	a5,a3,a4
    3c8c:	01079793          	slli	a5,a5,0x10
    3c90:	01085713          	srli	a4,a6,0x10
    3c94:	00e78733          	add	a4,a5,a4
    3c98:	00e888b3          	add	a7,a7,a4
    3c9c:	411b8bb3          	sub	s7,s7,a7
    3ca0:	41fbd793          	srai	a5,s7,0x1f
    3ca4:	02a787b3          	mul	a5,a5,a0
    3ca8:	03760633          	mul	a2,a2,s7
    3cac:	00c787b3          	add	a5,a5,a2
    3cb0:	02ab8733          	mul	a4,s7,a0
    3cb4:	02abbbb3          	mulhu	s7,s7,a0
    3cb8:	017787b3          	add	a5,a5,s7
    3cbc:	01079793          	slli	a5,a5,0x10
    3cc0:	01075713          	srli	a4,a4,0x10
    3cc4:	00e78733          	add	a4,a5,a4
    3cc8:	40e585b3          	sub	a1,a1,a4
    3ccc:	08b12c23          	sw	a1,152(sp)
    3cd0:	00492503          	lw	a0,4(s2)
    3cd4:	41f55793          	srai	a5,a0,0x1f
    3cd8:	01055593          	srli	a1,a0,0x10
    3cdc:	01079793          	slli	a5,a5,0x10
    3ce0:	000c8613          	mv	a2,s9
    3ce4:	41fcd693          	srai	a3,s9,0x1f
    3ce8:	01051513          	slli	a0,a0,0x10
    3cec:	00f585b3          	add	a1,a1,a5
    3cf0:	44c050ef          	jal	913c <__divdi3>
    3cf4:	00050c93          	mv	s9,a0
    3cf8:	09912e23          	sw	s9,156(sp)
    3cfc:	0044a783          	lw	a5,4(s1)
    3d00:	0af12023          	sw	a5,160(sp)
    3d04:	001d1793          	slli	a5,s10,0x1
    3d08:	0af12223          	sw	a5,164(sp)

00003d0c <T11_end>:
    3d0c:	b00027f3          	csrr	a5,mcycle
    3d10:	41b787b3          	sub	a5,a5,s11
    3d14:	02fa2623          	sw	a5,44(s4)
    3d18:	09412603          	lw	a2,148(sp)
    3d1c:	09410713          	addi	a4,sp,148
    3d20:	00000513          	li	a0,0
    3d24:	00100793          	li	a5,1
    3d28:	00500593          	li	a1,5
    3d2c:	02c0006f          	j	3d58 <T11_end+0x4c>
    3d30:	00000b13          	li	s6,0
    3d34:	b1dff06f          	j	3850 <T11_start+0x30>
    3d38:	fff00713          	li	a4,-1
    3d3c:	d35ff06f          	j	3a70 <T11_start+0x250>
    3d40:	000c8693          	mv	a3,s9
    3d44:	00000b13          	li	s6,0
    3d48:	d65ff06f          	j	3aac <T11_start+0x28c>
    3d4c:	00178793          	addi	a5,a5,1 # 20001 <heap.cpp.6b15d6f6+0xe398>
    3d50:	00470713          	addi	a4,a4,4
    3d54:	00b78c63          	beq	a5,a1,3d6c <T11_end+0x60>
    3d58:	00472683          	lw	a3,4(a4)
    3d5c:	fec6c8e3          	blt	a3,a2,3d4c <T11_end+0x40>
    3d60:	00068613          	mv	a2,a3
    3d64:	00078513          	mv	a0,a5
    3d68:	fe5ff06f          	j	3d4c <T11_end+0x40>
    3d6c:	00020737          	lui	a4,0x20
    3d70:	000207b7          	lui	a5,0x20
    3d74:	05c78793          	addi	a5,a5,92 # 2005c <next.5>
    3d78:	20f54533          	sh2add	a0,a0,a5
    3d7c:	00052783          	lw	a5,0(a0)
    3d80:	10470713          	addi	a4,a4,260 # 20104 <jump_table.17>
    3d84:	20e7c7b3          	sh2add	a5,a5,a4
    3d88:	0007a783          	lw	a5,0(a5)
    3d8c:	11412d03          	lw	s10,276(sp)
    3d90:	11012d83          	lw	s11,272(sp)
    3d94:	e09fc06f          	j	b9c <inferenceTPG+0x4c>
    3d98:	11a12a23          	sw	s10,276(sp)

00003d9c <T12_start>:
    3d9c:	b00027f3          	csrr	a5,mcycle
    3da0:	00078d13          	mv	s10,a5
    3da4:	000aa783          	lw	a5,0(s5)
    3da8:	00078c93          	mv	s9,a5
    3dac:	0089a783          	lw	a5,8(s3)
    3db0:	019787b3          	add	a5,a5,s9
    3db4:	06f12a23          	sw	a5,116(sp)
    3db8:	0084ab83          	lw	s7,8(s1)
    3dbc:	000107b7          	lui	a5,0x10
    3dc0:	180b8c63          	beqz	s7,3f58 <T12_start+0x1bc>
    3dc4:	41700733          	neg	a4,s7
    3dc8:	0aebe733          	max	a4,s7,a4
    3dcc:	41f75793          	srai	a5,a4,0x1f
    3dd0:	000176b7          	lui	a3,0x17
    3dd4:	15468693          	addi	a3,a3,340 # 17154 <heap.cpp.6b15d6f6+0x54eb>
    3dd8:	02d787b3          	mul	a5,a5,a3
    3ddc:	02d70b33          	mul	s6,a4,a3
    3de0:	02d73733          	mulhu	a4,a4,a3
    3de4:	00e787b3          	add	a5,a5,a4
    3de8:	01079793          	slli	a5,a5,0x10
    3dec:	010b5b13          	srli	s6,s6,0x10
    3df0:	01678b33          	add	s6,a5,s6
    3df4:	000087b7          	lui	a5,0x8
    3df8:	00fb0b33          	add	s6,s6,a5
    3dfc:	ffff07b7          	lui	a5,0xffff0
    3e00:	00fb7b33          	and	s6,s6,a5
    3e04:	440bc063          	bltz	s7,4244 <T12_end+0x64>
    3e08:	41fb5713          	srai	a4,s6,0x1f
    3e0c:	0000b6b7          	lui	a3,0xb
    3e10:	17268693          	addi	a3,a3,370 # b172 <__power_manager_start+0x172>
    3e14:	02d70733          	mul	a4,a4,a3
    3e18:	02db07b3          	mul	a5,s6,a3
    3e1c:	02db36b3          	mulhu	a3,s6,a3
    3e20:	00d70733          	add	a4,a4,a3
    3e24:	01071713          	slli	a4,a4,0x10
    3e28:	0107d793          	srli	a5,a5,0x10
    3e2c:	00f707b3          	add	a5,a4,a5
    3e30:	40fb87b3          	sub	a5,s7,a5
    3e34:	41f7d693          	srai	a3,a5,0x1f
    3e38:	02f686b3          	mul	a3,a3,a5
    3e3c:	02f78733          	mul	a4,a5,a5
    3e40:	02f7b633          	mulhu	a2,a5,a5
    3e44:	20c6a6b3          	sh1add	a3,a3,a2
    3e48:	01069693          	slli	a3,a3,0x10
    3e4c:	01075713          	srli	a4,a4,0x10
    3e50:	00e68733          	add	a4,a3,a4
    3e54:	41f75513          	srai	a0,a4,0x1f
    3e58:	01e75693          	srli	a3,a4,0x1e
    3e5c:	20d546b3          	sh2add	a3,a0,a3
    3e60:	00271613          	slli	a2,a4,0x2
    3e64:	01069693          	slli	a3,a3,0x10
    3e68:	01065613          	srli	a2,a2,0x10
    3e6c:	00c68633          	add	a2,a3,a2
    3e70:	f4a60613          	addi	a2,a2,-182
    3e74:	41f65593          	srai	a1,a2,0x1f
    3e78:	02e585b3          	mul	a1,a1,a4
    3e7c:	02c506b3          	mul	a3,a0,a2
    3e80:	00d585b3          	add	a1,a1,a3
    3e84:	02e606b3          	mul	a3,a2,a4
    3e88:	02e63633          	mulhu	a2,a2,a4
    3e8c:	00c58633          	add	a2,a1,a2
    3e90:	01061613          	slli	a2,a2,0x10
    3e94:	0106d693          	srli	a3,a3,0x10
    3e98:	00d606b3          	add	a3,a2,a3
    3e9c:	00003637          	lui	a2,0x3
    3ea0:	aab60613          	addi	a2,a2,-1365 # 2aab <T9_start+0x1e3>
    3ea4:	00c686b3          	add	a3,a3,a2
    3ea8:	41f6d613          	srai	a2,a3,0x1f
    3eac:	02e60633          	mul	a2,a2,a4
    3eb0:	02d50533          	mul	a0,a0,a3
    3eb4:	00a60633          	add	a2,a2,a0
    3eb8:	02e685b3          	mul	a1,a3,a4
    3ebc:	02e6b6b3          	mulhu	a3,a3,a4
    3ec0:	00d60733          	add	a4,a2,a3
    3ec4:	01071713          	slli	a4,a4,0x10
    3ec8:	0105d693          	srli	a3,a1,0x10
    3ecc:	00d706b3          	add	a3,a4,a3
    3ed0:	00020737          	lui	a4,0x20
    3ed4:	00e686b3          	add	a3,a3,a4
    3ed8:	40f68633          	sub	a2,a3,a5
    3edc:	02f68c63          	beq	a3,a5,3f14 <T12_start+0x178>
    3ee0:	00f7d713          	srli	a4,a5,0xf
    3ee4:	01179793          	slli	a5,a5,0x11
    3ee8:	01071713          	slli	a4,a4,0x10
    3eec:	0107d793          	srli	a5,a5,0x10
    3ef0:	00f707b3          	add	a5,a4,a5
    3ef4:	41f7d713          	srai	a4,a5,0x1f
    3ef8:	0107d593          	srli	a1,a5,0x10
    3efc:	01071713          	slli	a4,a4,0x10
    3f00:	41f65693          	srai	a3,a2,0x1f
    3f04:	01079513          	slli	a0,a5,0x10
    3f08:	00e585b3          	add	a1,a1,a4
    3f0c:	230050ef          	jal	913c <__divdi3>
    3f10:	00050613          	mv	a2,a0
    3f14:	000107b7          	lui	a5,0x10
    3f18:	00f606b3          	add	a3,a2,a5
    3f1c:	320b4863          	bltz	s6,424c <T12_end+0x6c>
    3f20:	410b5b13          	srai	s6,s6,0x10
    3f24:	00010737          	lui	a4,0x10
    3f28:	01671733          	sll	a4,a4,s6
    3f2c:	41f75793          	srai	a5,a4,0x1f
    3f30:	41f6d613          	srai	a2,a3,0x1f
    3f34:	02d787b3          	mul	a5,a5,a3
    3f38:	02e60633          	mul	a2,a2,a4
    3f3c:	00c787b3          	add	a5,a5,a2
    3f40:	02d70633          	mul	a2,a4,a3
    3f44:	02d73733          	mulhu	a4,a4,a3
    3f48:	00e787b3          	add	a5,a5,a4
    3f4c:	01079793          	slli	a5,a5,0x10
    3f50:	01065713          	srli	a4,a2,0x10
    3f54:	00e787b3          	add	a5,a5,a4
    3f58:	06f12c23          	sw	a5,120(sp)
    3f5c:	00892603          	lw	a2,8(s2)
    3f60:	02060263          	beqz	a2,3f84 <T12_start+0x1e8>
    3f64:	41fbd793          	srai	a5,s7,0x1f
    3f68:	010bd593          	srli	a1,s7,0x10
    3f6c:	01079793          	slli	a5,a5,0x10
    3f70:	41f65693          	srai	a3,a2,0x1f
    3f74:	010b9513          	slli	a0,s7,0x10
    3f78:	00f585b3          	add	a1,a1,a5
    3f7c:	1c0050ef          	jal	913c <__divdi3>
    3f80:	00050613          	mv	a2,a0
    3f84:	0b966633          	max	a2,a2,s9
    3f88:	0044a783          	lw	a5,4(s1)
    3f8c:	00f60633          	add	a2,a2,a5
    3f90:	06c12e23          	sw	a2,124(sp)
    3f94:	00092683          	lw	a3,0(s2)
    3f98:	00000593          	li	a1,0
    3f9c:	2406c063          	bltz	a3,41dc <__heap_size+0x1dc>
    3fa0:	2c068463          	beqz	a3,4268 <T12_end+0x88>
    3fa4:	000207b7          	lui	a5,0x20
    3fa8:	2ad7dc63          	bge	a5,a3,4260 <T12_end+0x80>
    3fac:	00000b13          	li	s6,0
    3fb0:	4016d693          	srai	a3,a3,0x1
    3fb4:	001b0b13          	addi	s6,s6,1
    3fb8:	fed7cce3          	blt	a5,a3,3fb0 <T12_start+0x214>
    3fbc:	ffff0bb7          	lui	s7,0xffff0
    3fc0:	01768bb3          	add	s7,a3,s7
    3fc4:	41fbd793          	srai	a5,s7,0x1f
    3fc8:	010bd593          	srli	a1,s7,0x10
    3fcc:	01079793          	slli	a5,a5,0x10
    3fd0:	00010737          	lui	a4,0x10
    3fd4:	00e68633          	add	a2,a3,a4
    3fd8:	41f65693          	srai	a3,a2,0x1f
    3fdc:	010b9513          	slli	a0,s7,0x10
    3fe0:	00f585b3          	add	a1,a1,a5
    3fe4:	158050ef          	jal	913c <__divdi3>
    3fe8:	41f55613          	srai	a2,a0,0x1f
    3fec:	02a607b3          	mul	a5,a2,a0
    3ff0:	02a50733          	mul	a4,a0,a0
    3ff4:	02a536b3          	mulhu	a3,a0,a0
    3ff8:	20d7a7b3          	sh1add	a5,a5,a3
    3ffc:	01079793          	slli	a5,a5,0x10
    4000:	01075713          	srli	a4,a4,0x10
    4004:	00e78733          	add	a4,a5,a4
    4008:	41f75313          	srai	t1,a4,0x1f
    400c:	02e306b3          	mul	a3,t1,a4
    4010:	02e707b3          	mul	a5,a4,a4
    4014:	02e735b3          	mulhu	a1,a4,a4
    4018:	20b6a6b3          	sh1add	a3,a3,a1
    401c:	01069693          	slli	a3,a3,0x10
    4020:	0107d793          	srli	a5,a5,0x10
    4024:	00f687b3          	add	a5,a3,a5
    4028:	41f7d813          	srai	a6,a5,0x1f
    402c:	010b1b13          	slli	s6,s6,0x10
    4030:	41fb5693          	srai	a3,s6,0x1f
    4034:	0000b8b7          	lui	a7,0xb
    4038:	17288893          	addi	a7,a7,370 # b172 <__power_manager_start+0x172>
    403c:	031686b3          	mul	a3,a3,a7
    4040:	031b05b3          	mul	a1,s6,a7
    4044:	031b3b33          	mulhu	s6,s6,a7
    4048:	016686b3          	add	a3,a3,s6
    404c:	01069693          	slli	a3,a3,0x10
    4050:	0105d593          	srli	a1,a1,0x10
    4054:	00b685b3          	add	a1,a3,a1
    4058:	00bb85b3          	add	a1,s7,a1
    405c:	000028b7          	lui	a7,0x2
    4060:	5e288893          	addi	a7,a7,1506 # 25e2 <T7_start+0x746>
    4064:	03180e33          	mul	t3,a6,a7
    4068:	031786b3          	mul	a3,a5,a7
    406c:	0317b8b3          	mulhu	a7,a5,a7
    4070:	011e08b3          	add	a7,t3,a7
    4074:	01089893          	slli	a7,a7,0x10
    4078:	0106d693          	srli	a3,a3,0x10
    407c:	00d886b3          	add	a3,a7,a3
    4080:	000038b7          	lui	a7,0x3
    4084:	e8d88893          	addi	a7,a7,-371 # 2e8d <T9_start+0x5c5>
    4088:	011686b3          	add	a3,a3,a7
    408c:	41f6de13          	srai	t3,a3,0x1f
    4090:	02fe0e33          	mul	t3,t3,a5
    4094:	02d808b3          	mul	a7,a6,a3
    4098:	011e0e33          	add	t3,t3,a7
    409c:	02f688b3          	mul	a7,a3,a5
    40a0:	02f6b6b3          	mulhu	a3,a3,a5
    40a4:	00de06b3          	add	a3,t3,a3
    40a8:	01069693          	slli	a3,a3,0x10
    40ac:	0108d893          	srli	a7,a7,0x10
    40b0:	011688b3          	add	a7,a3,a7
    40b4:	000056b7          	lui	a3,0x5
    40b8:	92568693          	addi	a3,a3,-1755 # 4925 <handler_irq_fast_timer_3+0x71>
    40bc:	00d888b3          	add	a7,a7,a3
    40c0:	41f8de13          	srai	t3,a7,0x1f
    40c4:	02fe0e33          	mul	t3,t3,a5
    40c8:	031806b3          	mul	a3,a6,a7
    40cc:	00de0e33          	add	t3,t3,a3
    40d0:	02f886b3          	mul	a3,a7,a5
    40d4:	02f8b8b3          	mulhu	a7,a7,a5
    40d8:	011e08b3          	add	a7,t3,a7
    40dc:	01089893          	slli	a7,a7,0x10
    40e0:	0106d693          	srli	a3,a3,0x10
    40e4:	00d886b3          	add	a3,a7,a3
    40e8:	0000b8b7          	lui	a7,0xb
    40ec:	aab88893          	addi	a7,a7,-1365 # aaab <main+0x1b3>
    40f0:	011686b3          	add	a3,a3,a7
    40f4:	41f6d893          	srai	a7,a3,0x1f
    40f8:	02e888b3          	mul	a7,a7,a4
    40fc:	02d30333          	mul	t1,t1,a3
    4100:	00688333          	add	t1,a7,t1
    4104:	02e688b3          	mul	a7,a3,a4
    4108:	02e6b6b3          	mulhu	a3,a3,a4
    410c:	00d30733          	add	a4,t1,a3
    4110:	01071713          	slli	a4,a4,0x10
    4114:	0108d893          	srli	a7,a7,0x10
    4118:	011708b3          	add	a7,a4,a7
    411c:	00002737          	lui	a4,0x2
    4120:	73470713          	addi	a4,a4,1844 # 2734 <T7_end+0x38>
    4124:	02e80333          	mul	t1,a6,a4
    4128:	02e786b3          	mul	a3,a5,a4
    412c:	02e7b733          	mulhu	a4,a5,a4
    4130:	00e30733          	add	a4,t1,a4
    4134:	01071713          	slli	a4,a4,0x10
    4138:	0106d693          	srli	a3,a3,0x10
    413c:	00d706b3          	add	a3,a4,a3
    4140:	00004737          	lui	a4,0x4
    4144:	8e470713          	addi	a4,a4,-1820 # 38e4 <T11_start+0xc4>
    4148:	00e686b3          	add	a3,a3,a4
    414c:	41f6d313          	srai	t1,a3,0x1f
    4150:	02f30333          	mul	t1,t1,a5
    4154:	02d80733          	mul	a4,a6,a3
    4158:	00e30333          	add	t1,t1,a4
    415c:	02f68733          	mul	a4,a3,a5
    4160:	02f6b6b3          	mulhu	a3,a3,a5
    4164:	00d306b3          	add	a3,t1,a3
    4168:	01069693          	slli	a3,a3,0x10
    416c:	01075713          	srli	a4,a4,0x10
    4170:	00e68733          	add	a4,a3,a4
    4174:	000066b7          	lui	a3,0x6
    4178:	66668693          	addi	a3,a3,1638 # 6666 <__sfputc_r+0x36>
    417c:	00d70733          	add	a4,a4,a3
    4180:	41f75693          	srai	a3,a4,0x1f
    4184:	02f686b3          	mul	a3,a3,a5
    4188:	02e80833          	mul	a6,a6,a4
    418c:	010686b3          	add	a3,a3,a6
    4190:	02f70833          	mul	a6,a4,a5
    4194:	02f73733          	mulhu	a4,a4,a5
    4198:	00e687b3          	add	a5,a3,a4
    419c:	01079793          	slli	a5,a5,0x10
    41a0:	01085713          	srli	a4,a6,0x10
    41a4:	00e78733          	add	a4,a5,a4
    41a8:	00e888b3          	add	a7,a7,a4
    41ac:	411b8bb3          	sub	s7,s7,a7
    41b0:	41fbd793          	srai	a5,s7,0x1f
    41b4:	02a787b3          	mul	a5,a5,a0
    41b8:	03760633          	mul	a2,a2,s7
    41bc:	00c787b3          	add	a5,a5,a2
    41c0:	02ab8733          	mul	a4,s7,a0
    41c4:	02abbbb3          	mulhu	s7,s7,a0
    41c8:	017787b3          	add	a5,a5,s7
    41cc:	01079793          	slli	a5,a5,0x10
    41d0:	01075713          	srli	a4,a4,0x10
    41d4:	00e78733          	add	a4,a5,a4
    41d8:	40e585b3          	sub	a1,a1,a4
    41dc:	08b12023          	sw	a1,128(sp)

000041e0 <T12_end>:
    41e0:	b00027f3          	csrr	a5,mcycle
    41e4:	41a787b3          	sub	a5,a5,s10
    41e8:	02fa2823          	sw	a5,48(s4)
    41ec:	07412683          	lw	a3,116(sp)
    41f0:	07812703          	lw	a4,120(sp)
    41f4:	00100793          	li	a5,1
    41f8:	00d75663          	bge	a4,a3,4204 <T12_end+0x24>
    41fc:	00068713          	mv	a4,a3
    4200:	00000793          	li	a5,0
    4204:	07c12683          	lw	a3,124(sp)
    4208:	06e6d463          	bge	a3,a4,4270 <T12_end+0x90>
    420c:	00070693          	mv	a3,a4
    4210:	08012703          	lw	a4,128(sp)
    4214:	00d74463          	blt	a4,a3,421c <T12_end+0x3c>
    4218:	00300793          	li	a5,3
    421c:	00020737          	lui	a4,0x20
    4220:	000206b7          	lui	a3,0x20
    4224:	04c68693          	addi	a3,a3,76 # 2004c <next.4>
    4228:	20d7c7b3          	sh2add	a5,a5,a3
    422c:	0007a783          	lw	a5,0(a5) # 20000 <heap.cpp.6b15d6f6+0xe397>
    4230:	10470713          	addi	a4,a4,260 # 20104 <jump_table.17>
    4234:	20e7c7b3          	sh2add	a5,a5,a4
    4238:	0007a783          	lw	a5,0(a5)
    423c:	11412d03          	lw	s10,276(sp)
    4240:	95dfc06f          	j	b9c <inferenceTPG+0x4c>
    4244:	41600b33          	neg	s6,s6
    4248:	bc1ff06f          	j	3e08 <T12_start+0x6c>
    424c:	416007b3          	neg	a5,s6
    4250:	4107d793          	srai	a5,a5,0x10
    4254:	00010737          	lui	a4,0x10
    4258:	40f75733          	sra	a4,a4,a5
    425c:	cd1ff06f          	j	3f2c <T12_start+0x190>
    4260:	00000b13          	li	s6,0
    4264:	d59ff06f          	j	3fbc <T12_start+0x220>
    4268:	fff00593          	li	a1,-1
    426c:	f71ff06f          	j	41dc <__heap_size+0x1dc>
    4270:	00200793          	li	a5,2
    4274:	f9dff06f          	j	4210 <T12_end+0x30>

00004278 <T13_start>:
    4278:	b0002bf3          	csrr	s7,mcycle
    427c:	0084a783          	lw	a5,8(s1)
    4280:	00c92683          	lw	a3,12(s2)
    4284:	00d78733          	add	a4,a5,a3
    4288:	04e12423          	sw	a4,72(sp)
    428c:	0044a703          	lw	a4,4(s1)
    4290:	0ad76733          	max	a4,a4,a3
    4294:	04e12623          	sw	a4,76(sp)
    4298:	00010737          	lui	a4,0x10
    429c:	18078c63          	beqz	a5,4434 <T13_start+0x1bc>
    42a0:	40f006b3          	neg	a3,a5
    42a4:	0ad7e6b3          	max	a3,a5,a3
    42a8:	41f6d713          	srai	a4,a3,0x1f
    42ac:	00017637          	lui	a2,0x17
    42b0:	15460613          	addi	a2,a2,340 # 17154 <heap.cpp.6b15d6f6+0x54eb>
    42b4:	02c70733          	mul	a4,a4,a2
    42b8:	02c68b33          	mul	s6,a3,a2
    42bc:	02c6b6b3          	mulhu	a3,a3,a2
    42c0:	00d70733          	add	a4,a4,a3
    42c4:	01071713          	slli	a4,a4,0x10
    42c8:	010b5b13          	srli	s6,s6,0x10
    42cc:	01670b33          	add	s6,a4,s6
    42d0:	00008737          	lui	a4,0x8
    42d4:	00eb0b33          	add	s6,s6,a4
    42d8:	ffff0737          	lui	a4,0xffff0
    42dc:	00eb7b33          	and	s6,s6,a4
    42e0:	1a07c663          	bltz	a5,448c <T13_end+0x54>
    42e4:	41fb5713          	srai	a4,s6,0x1f
    42e8:	0000b6b7          	lui	a3,0xb
    42ec:	17268693          	addi	a3,a3,370 # b172 <__power_manager_start+0x172>
    42f0:	02d70733          	mul	a4,a4,a3
    42f4:	02db0633          	mul	a2,s6,a3
    42f8:	02db36b3          	mulhu	a3,s6,a3
    42fc:	00d70733          	add	a4,a4,a3
    4300:	01071713          	slli	a4,a4,0x10
    4304:	01065693          	srli	a3,a2,0x10
    4308:	00d706b3          	add	a3,a4,a3
    430c:	40d787b3          	sub	a5,a5,a3
    4310:	41f7d693          	srai	a3,a5,0x1f
    4314:	02f686b3          	mul	a3,a3,a5
    4318:	02f78733          	mul	a4,a5,a5
    431c:	02f7b633          	mulhu	a2,a5,a5
    4320:	20c6a6b3          	sh1add	a3,a3,a2
    4324:	01069693          	slli	a3,a3,0x10
    4328:	01075713          	srli	a4,a4,0x10
    432c:	00e68733          	add	a4,a3,a4
    4330:	41f75513          	srai	a0,a4,0x1f
    4334:	01e75693          	srli	a3,a4,0x1e
    4338:	20d546b3          	sh2add	a3,a0,a3
    433c:	00271613          	slli	a2,a4,0x2
    4340:	01069693          	slli	a3,a3,0x10
    4344:	01065613          	srli	a2,a2,0x10
    4348:	00c68633          	add	a2,a3,a2
    434c:	f4a60613          	addi	a2,a2,-182
    4350:	41f65593          	srai	a1,a2,0x1f
    4354:	02e585b3          	mul	a1,a1,a4
    4358:	02c506b3          	mul	a3,a0,a2
    435c:	00d585b3          	add	a1,a1,a3
    4360:	02e606b3          	mul	a3,a2,a4
    4364:	02e63633          	mulhu	a2,a2,a4
    4368:	00c58633          	add	a2,a1,a2
    436c:	01061613          	slli	a2,a2,0x10
    4370:	0106d693          	srli	a3,a3,0x10
    4374:	00d606b3          	add	a3,a2,a3
    4378:	00003637          	lui	a2,0x3
    437c:	aab60613          	addi	a2,a2,-1365 # 2aab <T9_start+0x1e3>
    4380:	00c686b3          	add	a3,a3,a2
    4384:	41f6d613          	srai	a2,a3,0x1f
    4388:	02e60633          	mul	a2,a2,a4
    438c:	02d50533          	mul	a0,a0,a3
    4390:	00a60633          	add	a2,a2,a0
    4394:	02e685b3          	mul	a1,a3,a4
    4398:	02e6b6b3          	mulhu	a3,a3,a4
    439c:	00d60733          	add	a4,a2,a3
    43a0:	01071713          	slli	a4,a4,0x10
    43a4:	0105d693          	srli	a3,a1,0x10
    43a8:	00d706b3          	add	a3,a4,a3
    43ac:	00020737          	lui	a4,0x20
    43b0:	00e686b3          	add	a3,a3,a4
    43b4:	40f68633          	sub	a2,a3,a5
    43b8:	02f68c63          	beq	a3,a5,43f0 <T13_start+0x178>
    43bc:	00f7d713          	srli	a4,a5,0xf
    43c0:	01179793          	slli	a5,a5,0x11
    43c4:	01071713          	slli	a4,a4,0x10
    43c8:	0107d793          	srli	a5,a5,0x10
    43cc:	00f707b3          	add	a5,a4,a5
    43d0:	41f7d713          	srai	a4,a5,0x1f
    43d4:	0107d593          	srli	a1,a5,0x10
    43d8:	01071713          	slli	a4,a4,0x10
    43dc:	41f65693          	srai	a3,a2,0x1f
    43e0:	01079513          	slli	a0,a5,0x10
    43e4:	00e585b3          	add	a1,a1,a4
    43e8:	555040ef          	jal	913c <__divdi3>
    43ec:	00050613          	mv	a2,a0
    43f0:	000107b7          	lui	a5,0x10
    43f4:	00f606b3          	add	a3,a2,a5
    43f8:	080b4e63          	bltz	s6,4494 <T13_end+0x5c>
    43fc:	410b5b13          	srai	s6,s6,0x10
    4400:	000107b7          	lui	a5,0x10
    4404:	016797b3          	sll	a5,a5,s6
    4408:	41f7d713          	srai	a4,a5,0x1f
    440c:	41f6d613          	srai	a2,a3,0x1f
    4410:	02d70733          	mul	a4,a4,a3
    4414:	02f60633          	mul	a2,a2,a5
    4418:	00c70733          	add	a4,a4,a2
    441c:	02d78633          	mul	a2,a5,a3
    4420:	02d7b7b3          	mulhu	a5,a5,a3
    4424:	00f70733          	add	a4,a4,a5
    4428:	01071713          	slli	a4,a4,0x10
    442c:	01065793          	srli	a5,a2,0x10
    4430:	00f70733          	add	a4,a4,a5
    4434:	04e12823          	sw	a4,80(sp)

00004438 <T13_end>:
    4438:	b00027f3          	csrr	a5,mcycle
    443c:	417787b3          	sub	a5,a5,s7
    4440:	02fa2a23          	sw	a5,52(s4)
    4444:	04812683          	lw	a3,72(sp)
    4448:	04c12703          	lw	a4,76(sp)
    444c:	00100793          	li	a5,1
    4450:	00d75663          	bge	a4,a3,445c <T13_end+0x24>
    4454:	00068713          	mv	a4,a3
    4458:	00000793          	li	a5,0
    445c:	05012683          	lw	a3,80(sp)
    4460:	00e6c463          	blt	a3,a4,4468 <T13_end+0x30>
    4464:	00200793          	li	a5,2
    4468:	00020737          	lui	a4,0x20
    446c:	000206b7          	lui	a3,0x20
    4470:	04068693          	addi	a3,a3,64 # 20040 <next.3>
    4474:	20d7c7b3          	sh2add	a5,a5,a3
    4478:	0007a783          	lw	a5,0(a5) # 10000 <syscalls.c.42d7056b+0x1004>
    447c:	10470713          	addi	a4,a4,260 # 20104 <jump_table.17>
    4480:	20e7c7b3          	sh2add	a5,a5,a4
    4484:	0007a783          	lw	a5,0(a5)
    4488:	f14fc06f          	j	b9c <inferenceTPG+0x4c>
    448c:	41600b33          	neg	s6,s6
    4490:	e55ff06f          	j	42e4 <T13_start+0x6c>
    4494:	41600733          	neg	a4,s6
    4498:	41075713          	srai	a4,a4,0x10
    449c:	40e7d7b3          	sra	a5,a5,a4
    44a0:	f69ff06f          	j	4408 <T13_start+0x190>

000044a4 <T14_start>:
    44a4:	b0002bf3          	csrr	s7,mcycle
    44a8:	00892683          	lw	a3,8(s2)
    44ac:	000aa783          	lw	a5,0(s5)
    44b0:	40f687b3          	sub	a5,a3,a5
    44b4:	08f12223          	sw	a5,132(sp)
    44b8:	0044a783          	lw	a5,4(s1)
    44bc:	00c92703          	lw	a4,12(s2)
    44c0:	0af76733          	max	a4,a4,a5
    44c4:	08e12423          	sw	a4,136(sp)
    44c8:	004aa703          	lw	a4,4(s5)
    44cc:	00d70733          	add	a4,a4,a3
    44d0:	08e12623          	sw	a4,140(sp)
    44d4:	00010737          	lui	a4,0x10
    44d8:	18078c63          	beqz	a5,4670 <T14_start+0x1cc>
    44dc:	40f006b3          	neg	a3,a5
    44e0:	0ad7e6b3          	max	a3,a5,a3
    44e4:	41f6d713          	srai	a4,a3,0x1f
    44e8:	00017637          	lui	a2,0x17
    44ec:	15460613          	addi	a2,a2,340 # 17154 <heap.cpp.6b15d6f6+0x54eb>
    44f0:	02c70733          	mul	a4,a4,a2
    44f4:	02c68b33          	mul	s6,a3,a2
    44f8:	02c6b6b3          	mulhu	a3,a3,a2
    44fc:	00d70733          	add	a4,a4,a3
    4500:	01071713          	slli	a4,a4,0x10
    4504:	010b5b13          	srli	s6,s6,0x10
    4508:	01670b33          	add	s6,a4,s6
    450c:	00008737          	lui	a4,0x8
    4510:	00eb0b33          	add	s6,s6,a4
    4514:	ffff0737          	lui	a4,0xffff0
    4518:	00eb7b33          	and	s6,s6,a4
    451c:	1a07cc63          	bltz	a5,46d4 <T14_end+0x60>
    4520:	41fb5713          	srai	a4,s6,0x1f
    4524:	0000b6b7          	lui	a3,0xb
    4528:	17268693          	addi	a3,a3,370 # b172 <__power_manager_start+0x172>
    452c:	02d70733          	mul	a4,a4,a3
    4530:	02db0633          	mul	a2,s6,a3
    4534:	02db36b3          	mulhu	a3,s6,a3
    4538:	00d70733          	add	a4,a4,a3
    453c:	01071713          	slli	a4,a4,0x10
    4540:	01065693          	srli	a3,a2,0x10
    4544:	00d706b3          	add	a3,a4,a3
    4548:	40d787b3          	sub	a5,a5,a3
    454c:	41f7d693          	srai	a3,a5,0x1f
    4550:	02f686b3          	mul	a3,a3,a5
    4554:	02f78733          	mul	a4,a5,a5
    4558:	02f7b633          	mulhu	a2,a5,a5
    455c:	20c6a6b3          	sh1add	a3,a3,a2
    4560:	01069693          	slli	a3,a3,0x10
    4564:	01075713          	srli	a4,a4,0x10
    4568:	00e68733          	add	a4,a3,a4
    456c:	41f75513          	srai	a0,a4,0x1f
    4570:	01e75693          	srli	a3,a4,0x1e
    4574:	20d546b3          	sh2add	a3,a0,a3
    4578:	00271613          	slli	a2,a4,0x2
    457c:	01069693          	slli	a3,a3,0x10
    4580:	01065613          	srli	a2,a2,0x10
    4584:	00c68633          	add	a2,a3,a2
    4588:	f4a60613          	addi	a2,a2,-182
    458c:	41f65593          	srai	a1,a2,0x1f
    4590:	02e585b3          	mul	a1,a1,a4
    4594:	02c506b3          	mul	a3,a0,a2
    4598:	00d585b3          	add	a1,a1,a3
    459c:	02e606b3          	mul	a3,a2,a4
    45a0:	02e63633          	mulhu	a2,a2,a4
    45a4:	00c58633          	add	a2,a1,a2
    45a8:	01061613          	slli	a2,a2,0x10
    45ac:	0106d693          	srli	a3,a3,0x10
    45b0:	00d606b3          	add	a3,a2,a3
    45b4:	00003637          	lui	a2,0x3
    45b8:	aab60613          	addi	a2,a2,-1365 # 2aab <T9_start+0x1e3>
    45bc:	00c686b3          	add	a3,a3,a2
    45c0:	41f6d613          	srai	a2,a3,0x1f
    45c4:	02e60633          	mul	a2,a2,a4
    45c8:	02d50533          	mul	a0,a0,a3
    45cc:	00a60633          	add	a2,a2,a0
    45d0:	02e685b3          	mul	a1,a3,a4
    45d4:	02e6b6b3          	mulhu	a3,a3,a4
    45d8:	00d60733          	add	a4,a2,a3
    45dc:	01071713          	slli	a4,a4,0x10
    45e0:	0105d693          	srli	a3,a1,0x10
    45e4:	00d706b3          	add	a3,a4,a3
    45e8:	00020737          	lui	a4,0x20
    45ec:	00e686b3          	add	a3,a3,a4
    45f0:	40f68633          	sub	a2,a3,a5
    45f4:	02f68c63          	beq	a3,a5,462c <T14_start+0x188>
    45f8:	00f7d713          	srli	a4,a5,0xf
    45fc:	01179793          	slli	a5,a5,0x11
    4600:	01071713          	slli	a4,a4,0x10
    4604:	0107d793          	srli	a5,a5,0x10
    4608:	00f707b3          	add	a5,a4,a5
    460c:	41f7d713          	srai	a4,a5,0x1f
    4610:	0107d593          	srli	a1,a5,0x10
    4614:	01071713          	slli	a4,a4,0x10
    4618:	41f65693          	srai	a3,a2,0x1f
    461c:	01079513          	slli	a0,a5,0x10
    4620:	00e585b3          	add	a1,a1,a4
    4624:	319040ef          	jal	913c <__divdi3>
    4628:	00050613          	mv	a2,a0
    462c:	000107b7          	lui	a5,0x10
    4630:	00f606b3          	add	a3,a2,a5
    4634:	0a0b4463          	bltz	s6,46dc <T14_end+0x68>
    4638:	410b5b13          	srai	s6,s6,0x10
    463c:	000107b7          	lui	a5,0x10
    4640:	016797b3          	sll	a5,a5,s6
    4644:	41f7d713          	srai	a4,a5,0x1f
    4648:	41f6d613          	srai	a2,a3,0x1f
    464c:	02d70733          	mul	a4,a4,a3
    4650:	02f60633          	mul	a2,a2,a5
    4654:	00c70733          	add	a4,a4,a2
    4658:	02d78633          	mul	a2,a5,a3
    465c:	02d7b7b3          	mulhu	a5,a5,a3
    4660:	00f70733          	add	a4,a4,a5
    4664:	01071713          	slli	a4,a4,0x10
    4668:	01065793          	srli	a5,a2,0x10
    466c:	00f70733          	add	a4,a4,a5
    4670:	08e12823          	sw	a4,144(sp)

00004674 <T14_end>:
    4674:	b00027f3          	csrr	a5,mcycle
    4678:	417787b3          	sub	a5,a5,s7
    467c:	02fa2c23          	sw	a5,56(s4)
    4680:	08412683          	lw	a3,132(sp)
    4684:	08812703          	lw	a4,136(sp)
    4688:	00100793          	li	a5,1
    468c:	00d75663          	bge	a4,a3,4698 <T14_end+0x24>
    4690:	00068713          	mv	a4,a3
    4694:	00000793          	li	a5,0
    4698:	08c12683          	lw	a3,140(sp)
    469c:	04e6d863          	bge	a3,a4,46ec <T14_end+0x78>
    46a0:	00070693          	mv	a3,a4
    46a4:	09012703          	lw	a4,144(sp)
    46a8:	00d74463          	blt	a4,a3,46b0 <T14_end+0x3c>
    46ac:	00300793          	li	a5,3
    46b0:	00020737          	lui	a4,0x20
    46b4:	000206b7          	lui	a3,0x20
    46b8:	03068693          	addi	a3,a3,48 # 20030 <next.2>
    46bc:	20d7c7b3          	sh2add	a5,a5,a3
    46c0:	0007a783          	lw	a5,0(a5) # 10000 <syscalls.c.42d7056b+0x1004>
    46c4:	10470713          	addi	a4,a4,260 # 20104 <jump_table.17>
    46c8:	20e7c7b3          	sh2add	a5,a5,a4
    46cc:	0007a783          	lw	a5,0(a5)
    46d0:	cccfc06f          	j	b9c <inferenceTPG+0x4c>
    46d4:	41600b33          	neg	s6,s6
    46d8:	e49ff06f          	j	4520 <T14_start+0x7c>
    46dc:	41600733          	neg	a4,s6
    46e0:	41075713          	srai	a4,a4,0x10
    46e4:	40e7d7b3          	sra	a5,a5,a4
    46e8:	f5dff06f          	j	4644 <T14_start+0x1a0>
    46ec:	00200793          	li	a5,2
    46f0:	fb5ff06f          	j	46a4 <T14_end+0x30>
    46f4:	00500793          	li	a5,5
    46f8:	00fc2023          	sw	a5,0(s8)
    46fc:	13c12083          	lw	ra,316(sp)
    4700:	13812483          	lw	s1,312(sp)
    4704:	13412903          	lw	s2,308(sp)
    4708:	13012983          	lw	s3,304(sp)
    470c:	12c12a03          	lw	s4,300(sp)
    4710:	12812a83          	lw	s5,296(sp)
    4714:	12412b03          	lw	s6,292(sp)
    4718:	12012b83          	lw	s7,288(sp)
    471c:	11c12c03          	lw	s8,284(sp)
    4720:	11812c83          	lw	s9,280(sp)
    4724:	14010113          	addi	sp,sp,320
    4728:	00008067          	ret
    472c:	00600793          	li	a5,6
    4730:	fc9ff06f          	j	46f8 <T14_end+0x84>
    4734:	00400793          	li	a5,4
    4738:	fc1ff06f          	j	46f8 <T14_end+0x84>
    473c:	00000793          	li	a5,0
    4740:	fb9ff06f          	j	46f8 <T14_end+0x84>
    4744:	00100793          	li	a5,1
    4748:	fb1ff06f          	j	46f8 <T14_end+0x84>
    474c:	00300793          	li	a5,3
    4750:	fa9ff06f          	j	46f8 <T14_end+0x84>
    4754:	41bd07b3          	sub	a5,s10,s11
    4758:	00078d13          	mv	s10,a5
    475c:	01612623          	sw	s6,12(sp)
    4760:	000107b7          	lui	a5,0x10
    4764:	b91fd06f          	j	22f4 <T7_start+0x458>
    4768:	00000593          	li	a1,0
    476c:	d60ff06f          	j	3ccc <T11_start+0x4ac>
    4770:	fff00793          	li	a5,-1
    4774:	08f12c23          	sw	a5,152(sp)
    4778:	d80ff06f          	j	3cf8 <T11_start+0x4d8>

0000477c <handler_irq_fast_timer_1>:
    477c:	fc010113          	addi	sp,sp,-64
    4780:	02112e23          	sw	ra,60(sp)
    4784:	02512c23          	sw	t0,56(sp)
    4788:	02612a23          	sw	t1,52(sp)
    478c:	02712823          	sw	t2,48(sp)
    4790:	02a12623          	sw	a0,44(sp)
    4794:	02b12423          	sw	a1,40(sp)
    4798:	02c12223          	sw	a2,36(sp)
    479c:	02d12023          	sw	a3,32(sp)
    47a0:	00e12e23          	sw	a4,28(sp)
    47a4:	00f12c23          	sw	a5,24(sp)
    47a8:	01012a23          	sw	a6,20(sp)
    47ac:	01112823          	sw	a7,16(sp)
    47b0:	01c12623          	sw	t3,12(sp)
    47b4:	01d12423          	sw	t4,8(sp)
    47b8:	01e12223          	sw	t5,4(sp)
    47bc:	01f12023          	sw	t6,0(sp)
    47c0:	200607b7          	lui	a5,0x20060
    47c4:	00100713          	li	a4,1
    47c8:	00e7a223          	sw	a4,4(a5) # 20060004 <_sp+0x20036904>
    47cc:	be5fb0ef          	jal	3b0 <fic_irq_timer_1>
    47d0:	03c12083          	lw	ra,60(sp)
    47d4:	03812283          	lw	t0,56(sp)
    47d8:	03412303          	lw	t1,52(sp)
    47dc:	03012383          	lw	t2,48(sp)
    47e0:	02c12503          	lw	a0,44(sp)
    47e4:	02812583          	lw	a1,40(sp)
    47e8:	02412603          	lw	a2,36(sp)
    47ec:	02012683          	lw	a3,32(sp)
    47f0:	01c12703          	lw	a4,28(sp)
    47f4:	01812783          	lw	a5,24(sp)
    47f8:	01412803          	lw	a6,20(sp)
    47fc:	01012883          	lw	a7,16(sp)
    4800:	00c12e03          	lw	t3,12(sp)
    4804:	00812e83          	lw	t4,8(sp)
    4808:	00412f03          	lw	t5,4(sp)
    480c:	00012f83          	lw	t6,0(sp)
    4810:	04010113          	addi	sp,sp,64
    4814:	30200073          	mret

00004818 <handler_irq_fast_timer_2>:
    4818:	fc010113          	addi	sp,sp,-64
    481c:	02112e23          	sw	ra,60(sp)
    4820:	02512c23          	sw	t0,56(sp)
    4824:	02612a23          	sw	t1,52(sp)
    4828:	02712823          	sw	t2,48(sp)
    482c:	02a12623          	sw	a0,44(sp)
    4830:	02b12423          	sw	a1,40(sp)
    4834:	02c12223          	sw	a2,36(sp)
    4838:	02d12023          	sw	a3,32(sp)
    483c:	00e12e23          	sw	a4,28(sp)
    4840:	00f12c23          	sw	a5,24(sp)
    4844:	01012a23          	sw	a6,20(sp)
    4848:	01112823          	sw	a7,16(sp)
    484c:	01c12623          	sw	t3,12(sp)
    4850:	01d12423          	sw	t4,8(sp)
    4854:	01e12223          	sw	t5,4(sp)
    4858:	01f12023          	sw	t6,0(sp)
    485c:	200607b7          	lui	a5,0x20060
    4860:	00200713          	li	a4,2
    4864:	00e7a223          	sw	a4,4(a5) # 20060004 <_sp+0x20036904>
    4868:	b6dfb0ef          	jal	3d4 <fic_irq_timer_2>
    486c:	03c12083          	lw	ra,60(sp)
    4870:	03812283          	lw	t0,56(sp)
    4874:	03412303          	lw	t1,52(sp)
    4878:	03012383          	lw	t2,48(sp)
    487c:	02c12503          	lw	a0,44(sp)
    4880:	02812583          	lw	a1,40(sp)
    4884:	02412603          	lw	a2,36(sp)
    4888:	02012683          	lw	a3,32(sp)
    488c:	01c12703          	lw	a4,28(sp)
    4890:	01812783          	lw	a5,24(sp)
    4894:	01412803          	lw	a6,20(sp)
    4898:	01012883          	lw	a7,16(sp)
    489c:	00c12e03          	lw	t3,12(sp)
    48a0:	00812e83          	lw	t4,8(sp)
    48a4:	00412f03          	lw	t5,4(sp)
    48a8:	00012f83          	lw	t6,0(sp)
    48ac:	04010113          	addi	sp,sp,64
    48b0:	30200073          	mret

000048b4 <handler_irq_fast_timer_3>:
    48b4:	fc010113          	addi	sp,sp,-64
    48b8:	02112e23          	sw	ra,60(sp)
    48bc:	02512c23          	sw	t0,56(sp)
    48c0:	02612a23          	sw	t1,52(sp)
    48c4:	02712823          	sw	t2,48(sp)
    48c8:	02a12623          	sw	a0,44(sp)
    48cc:	02b12423          	sw	a1,40(sp)
    48d0:	02c12223          	sw	a2,36(sp)
    48d4:	02d12023          	sw	a3,32(sp)
    48d8:	00e12e23          	sw	a4,28(sp)
    48dc:	00f12c23          	sw	a5,24(sp)
    48e0:	01012a23          	sw	a6,20(sp)
    48e4:	01112823          	sw	a7,16(sp)
    48e8:	01c12623          	sw	t3,12(sp)
    48ec:	01d12423          	sw	t4,8(sp)
    48f0:	01e12223          	sw	t5,4(sp)
    48f4:	01f12023          	sw	t6,0(sp)
    48f8:	200607b7          	lui	a5,0x20060
    48fc:	00400713          	li	a4,4
    4900:	00e7a223          	sw	a4,4(a5) # 20060004 <_sp+0x20036904>
    4904:	af5fb0ef          	jal	3f8 <fic_irq_timer_3>
    4908:	03c12083          	lw	ra,60(sp)
    490c:	03812283          	lw	t0,56(sp)
    4910:	03412303          	lw	t1,52(sp)
    4914:	03012383          	lw	t2,48(sp)
    4918:	02c12503          	lw	a0,44(sp)
    491c:	02812583          	lw	a1,40(sp)
    4920:	02412603          	lw	a2,36(sp)
    4924:	02012683          	lw	a3,32(sp)
    4928:	01c12703          	lw	a4,28(sp)
    492c:	01812783          	lw	a5,24(sp)
    4930:	01412803          	lw	a6,20(sp)
    4934:	01012883          	lw	a7,16(sp)
    4938:	00c12e03          	lw	t3,12(sp)
    493c:	00812e83          	lw	t4,8(sp)
    4940:	00412f03          	lw	t5,4(sp)
    4944:	00012f83          	lw	t6,0(sp)
    4948:	04010113          	addi	sp,sp,64
    494c:	30200073          	mret

00004950 <handler_irq_fast_dma_done>:
    4950:	fc010113          	addi	sp,sp,-64
    4954:	02112e23          	sw	ra,60(sp)
    4958:	02512c23          	sw	t0,56(sp)
    495c:	02612a23          	sw	t1,52(sp)
    4960:	02712823          	sw	t2,48(sp)
    4964:	02a12623          	sw	a0,44(sp)
    4968:	02b12423          	sw	a1,40(sp)
    496c:	02c12223          	sw	a2,36(sp)
    4970:	02d12023          	sw	a3,32(sp)
    4974:	00e12e23          	sw	a4,28(sp)
    4978:	00f12c23          	sw	a5,24(sp)
    497c:	01012a23          	sw	a6,20(sp)
    4980:	01112823          	sw	a7,16(sp)
    4984:	01c12623          	sw	t3,12(sp)
    4988:	01d12423          	sw	t4,8(sp)
    498c:	01e12223          	sw	t5,4(sp)
    4990:	01f12023          	sw	t6,0(sp)
    4994:	200607b7          	lui	a5,0x20060
    4998:	00800713          	li	a4,8
    499c:	00e7a223          	sw	a4,4(a5) # 20060004 <_sp+0x20036904>
    49a0:	915fb0ef          	jal	2b4 <fic_irq_dma_done>
    49a4:	03c12083          	lw	ra,60(sp)
    49a8:	03812283          	lw	t0,56(sp)
    49ac:	03412303          	lw	t1,52(sp)
    49b0:	03012383          	lw	t2,48(sp)
    49b4:	02c12503          	lw	a0,44(sp)
    49b8:	02812583          	lw	a1,40(sp)
    49bc:	02412603          	lw	a2,36(sp)
    49c0:	02012683          	lw	a3,32(sp)
    49c4:	01c12703          	lw	a4,28(sp)
    49c8:	01812783          	lw	a5,24(sp)
    49cc:	01412803          	lw	a6,20(sp)
    49d0:	01012883          	lw	a7,16(sp)
    49d4:	00c12e03          	lw	t3,12(sp)
    49d8:	00812e83          	lw	t4,8(sp)
    49dc:	00412f03          	lw	t5,4(sp)
    49e0:	00012f83          	lw	t6,0(sp)
    49e4:	04010113          	addi	sp,sp,64
    49e8:	30200073          	mret

000049ec <handler_irq_fast_dma_window>:
    49ec:	fc010113          	addi	sp,sp,-64
    49f0:	02112e23          	sw	ra,60(sp)
    49f4:	02512c23          	sw	t0,56(sp)
    49f8:	02612a23          	sw	t1,52(sp)
    49fc:	02712823          	sw	t2,48(sp)
    4a00:	02a12623          	sw	a0,44(sp)
    4a04:	02b12423          	sw	a1,40(sp)
    4a08:	02c12223          	sw	a2,36(sp)
    4a0c:	02d12023          	sw	a3,32(sp)
    4a10:	00e12e23          	sw	a4,28(sp)
    4a14:	00f12c23          	sw	a5,24(sp)
    4a18:	01012a23          	sw	a6,20(sp)
    4a1c:	01112823          	sw	a7,16(sp)
    4a20:	01c12623          	sw	t3,12(sp)
    4a24:	01d12423          	sw	t4,8(sp)
    4a28:	01e12223          	sw	t5,4(sp)
    4a2c:	01f12023          	sw	t6,0(sp)
    4a30:	200607b7          	lui	a5,0x20060
    4a34:	00004737          	lui	a4,0x4
    4a38:	00e7a223          	sw	a4,4(a5) # 20060004 <_sp+0x20036904>
    4a3c:	ff8fb0ef          	jal	234 <fic_irq_dma_window>
    4a40:	03c12083          	lw	ra,60(sp)
    4a44:	03812283          	lw	t0,56(sp)
    4a48:	03412303          	lw	t1,52(sp)
    4a4c:	03012383          	lw	t2,48(sp)
    4a50:	02c12503          	lw	a0,44(sp)
    4a54:	02812583          	lw	a1,40(sp)
    4a58:	02412603          	lw	a2,36(sp)
    4a5c:	02012683          	lw	a3,32(sp)
    4a60:	01c12703          	lw	a4,28(sp)
    4a64:	01812783          	lw	a5,24(sp)
    4a68:	01412803          	lw	a6,20(sp)
    4a6c:	01012883          	lw	a7,16(sp)
    4a70:	00c12e03          	lw	t3,12(sp)
    4a74:	00812e83          	lw	t4,8(sp)
    4a78:	00412f03          	lw	t5,4(sp)
    4a7c:	00012f83          	lw	t6,0(sp)
    4a80:	04010113          	addi	sp,sp,64
    4a84:	30200073          	mret

00004a88 <handler_irq_fast_external_peripheral>:
    4a88:	fc010113          	addi	sp,sp,-64
    4a8c:	02112e23          	sw	ra,60(sp)
    4a90:	02512c23          	sw	t0,56(sp)
    4a94:	02612a23          	sw	t1,52(sp)
    4a98:	02712823          	sw	t2,48(sp)
    4a9c:	02a12623          	sw	a0,44(sp)
    4aa0:	02b12423          	sw	a1,40(sp)
    4aa4:	02c12223          	sw	a2,36(sp)
    4aa8:	02d12023          	sw	a3,32(sp)
    4aac:	00e12e23          	sw	a4,28(sp)
    4ab0:	00f12c23          	sw	a5,24(sp)
    4ab4:	01012a23          	sw	a6,20(sp)
    4ab8:	01112823          	sw	a7,16(sp)
    4abc:	01c12623          	sw	t3,12(sp)
    4ac0:	01d12423          	sw	t4,8(sp)
    4ac4:	01e12223          	sw	t5,4(sp)
    4ac8:	01f12023          	sw	t6,0(sp)
    4acc:	200607b7          	lui	a5,0x20060
    4ad0:	00008737          	lui	a4,0x8
    4ad4:	00e7a223          	sw	a4,4(a5) # 20060004 <_sp+0x20036904>
    4ad8:	945fb0ef          	jal	41c <fic_irq_ext_peripheral>
    4adc:	03c12083          	lw	ra,60(sp)
    4ae0:	03812283          	lw	t0,56(sp)
    4ae4:	03412303          	lw	t1,52(sp)
    4ae8:	03012383          	lw	t2,48(sp)
    4aec:	02c12503          	lw	a0,44(sp)
    4af0:	02812583          	lw	a1,40(sp)
    4af4:	02412603          	lw	a2,36(sp)
    4af8:	02012683          	lw	a3,32(sp)
    4afc:	01c12703          	lw	a4,28(sp)
    4b00:	01812783          	lw	a5,24(sp)
    4b04:	01412803          	lw	a6,20(sp)
    4b08:	01012883          	lw	a7,16(sp)
    4b0c:	00c12e03          	lw	t3,12(sp)
    4b10:	00812e83          	lw	t4,8(sp)
    4b14:	00412f03          	lw	t5,4(sp)
    4b18:	00012f83          	lw	t6,0(sp)
    4b1c:	04010113          	addi	sp,sp,64
    4b20:	30200073          	mret

00004b24 <handler_irq_fast_gpio_0>:
    4b24:	fc010113          	addi	sp,sp,-64
    4b28:	02112e23          	sw	ra,60(sp)
    4b2c:	02512c23          	sw	t0,56(sp)
    4b30:	02612a23          	sw	t1,52(sp)
    4b34:	02712823          	sw	t2,48(sp)
    4b38:	02a12623          	sw	a0,44(sp)
    4b3c:	02b12423          	sw	a1,40(sp)
    4b40:	02c12223          	sw	a2,36(sp)
    4b44:	02d12023          	sw	a3,32(sp)
    4b48:	00e12e23          	sw	a4,28(sp)
    4b4c:	00f12c23          	sw	a5,24(sp)
    4b50:	01012a23          	sw	a6,20(sp)
    4b54:	01112823          	sw	a7,16(sp)
    4b58:	01c12623          	sw	t3,12(sp)
    4b5c:	01d12423          	sw	t4,8(sp)
    4b60:	01e12223          	sw	t5,4(sp)
    4b64:	01f12023          	sw	t6,0(sp)
    4b68:	200607b7          	lui	a5,0x20060
    4b6c:	04000713          	li	a4,64
    4b70:	00e7a223          	sw	a4,4(a5) # 20060004 <_sp+0x20036904>
    4b74:	8cdfb0ef          	jal	440 <fic_irq_gpio_0>
    4b78:	03c12083          	lw	ra,60(sp)
    4b7c:	03812283          	lw	t0,56(sp)
    4b80:	03412303          	lw	t1,52(sp)
    4b84:	03012383          	lw	t2,48(sp)
    4b88:	02c12503          	lw	a0,44(sp)
    4b8c:	02812583          	lw	a1,40(sp)
    4b90:	02412603          	lw	a2,36(sp)
    4b94:	02012683          	lw	a3,32(sp)
    4b98:	01c12703          	lw	a4,28(sp)
    4b9c:	01812783          	lw	a5,24(sp)
    4ba0:	01412803          	lw	a6,20(sp)
    4ba4:	01012883          	lw	a7,16(sp)
    4ba8:	00c12e03          	lw	t3,12(sp)
    4bac:	00812e83          	lw	t4,8(sp)
    4bb0:	00412f03          	lw	t5,4(sp)
    4bb4:	00012f83          	lw	t6,0(sp)
    4bb8:	04010113          	addi	sp,sp,64
    4bbc:	30200073          	mret

00004bc0 <handler_irq_fast_gpio_1>:
    4bc0:	fc010113          	addi	sp,sp,-64
    4bc4:	02112e23          	sw	ra,60(sp)
    4bc8:	02512c23          	sw	t0,56(sp)
    4bcc:	02612a23          	sw	t1,52(sp)
    4bd0:	02712823          	sw	t2,48(sp)
    4bd4:	02a12623          	sw	a0,44(sp)
    4bd8:	02b12423          	sw	a1,40(sp)
    4bdc:	02c12223          	sw	a2,36(sp)
    4be0:	02d12023          	sw	a3,32(sp)
    4be4:	00e12e23          	sw	a4,28(sp)
    4be8:	00f12c23          	sw	a5,24(sp)
    4bec:	01012a23          	sw	a6,20(sp)
    4bf0:	01112823          	sw	a7,16(sp)
    4bf4:	01c12623          	sw	t3,12(sp)
    4bf8:	01d12423          	sw	t4,8(sp)
    4bfc:	01e12223          	sw	t5,4(sp)
    4c00:	01f12023          	sw	t6,0(sp)
    4c04:	200607b7          	lui	a5,0x20060
    4c08:	08000713          	li	a4,128
    4c0c:	00e7a223          	sw	a4,4(a5) # 20060004 <_sp+0x20036904>
    4c10:	855fb0ef          	jal	464 <fic_irq_gpio_1>
    4c14:	03c12083          	lw	ra,60(sp)
    4c18:	03812283          	lw	t0,56(sp)
    4c1c:	03412303          	lw	t1,52(sp)
    4c20:	03012383          	lw	t2,48(sp)
    4c24:	02c12503          	lw	a0,44(sp)
    4c28:	02812583          	lw	a1,40(sp)
    4c2c:	02412603          	lw	a2,36(sp)
    4c30:	02012683          	lw	a3,32(sp)
    4c34:	01c12703          	lw	a4,28(sp)
    4c38:	01812783          	lw	a5,24(sp)
    4c3c:	01412803          	lw	a6,20(sp)
    4c40:	01012883          	lw	a7,16(sp)
    4c44:	00c12e03          	lw	t3,12(sp)
    4c48:	00812e83          	lw	t4,8(sp)
    4c4c:	00412f03          	lw	t5,4(sp)
    4c50:	00012f83          	lw	t6,0(sp)
    4c54:	04010113          	addi	sp,sp,64
    4c58:	30200073          	mret

00004c5c <handler_irq_fast_gpio_2>:
    4c5c:	fc010113          	addi	sp,sp,-64
    4c60:	02112e23          	sw	ra,60(sp)
    4c64:	02512c23          	sw	t0,56(sp)
    4c68:	02612a23          	sw	t1,52(sp)
    4c6c:	02712823          	sw	t2,48(sp)
    4c70:	02a12623          	sw	a0,44(sp)
    4c74:	02b12423          	sw	a1,40(sp)
    4c78:	02c12223          	sw	a2,36(sp)
    4c7c:	02d12023          	sw	a3,32(sp)
    4c80:	00e12e23          	sw	a4,28(sp)
    4c84:	00f12c23          	sw	a5,24(sp)
    4c88:	01012a23          	sw	a6,20(sp)
    4c8c:	01112823          	sw	a7,16(sp)
    4c90:	01c12623          	sw	t3,12(sp)
    4c94:	01d12423          	sw	t4,8(sp)
    4c98:	01e12223          	sw	t5,4(sp)
    4c9c:	01f12023          	sw	t6,0(sp)
    4ca0:	200607b7          	lui	a5,0x20060
    4ca4:	10000713          	li	a4,256
    4ca8:	00e7a223          	sw	a4,4(a5) # 20060004 <_sp+0x20036904>
    4cac:	fdcfb0ef          	jal	488 <fic_irq_gpio_2>
    4cb0:	03c12083          	lw	ra,60(sp)
    4cb4:	03812283          	lw	t0,56(sp)
    4cb8:	03412303          	lw	t1,52(sp)
    4cbc:	03012383          	lw	t2,48(sp)
    4cc0:	02c12503          	lw	a0,44(sp)
    4cc4:	02812583          	lw	a1,40(sp)
    4cc8:	02412603          	lw	a2,36(sp)
    4ccc:	02012683          	lw	a3,32(sp)
    4cd0:	01c12703          	lw	a4,28(sp)
    4cd4:	01812783          	lw	a5,24(sp)
    4cd8:	01412803          	lw	a6,20(sp)
    4cdc:	01012883          	lw	a7,16(sp)
    4ce0:	00c12e03          	lw	t3,12(sp)
    4ce4:	00812e83          	lw	t4,8(sp)
    4ce8:	00412f03          	lw	t5,4(sp)
    4cec:	00012f83          	lw	t6,0(sp)
    4cf0:	04010113          	addi	sp,sp,64
    4cf4:	30200073          	mret

00004cf8 <handler_irq_fast_gpio_3>:
    4cf8:	fc010113          	addi	sp,sp,-64
    4cfc:	02112e23          	sw	ra,60(sp)
    4d00:	02512c23          	sw	t0,56(sp)
    4d04:	02612a23          	sw	t1,52(sp)
    4d08:	02712823          	sw	t2,48(sp)
    4d0c:	02a12623          	sw	a0,44(sp)
    4d10:	02b12423          	sw	a1,40(sp)
    4d14:	02c12223          	sw	a2,36(sp)
    4d18:	02d12023          	sw	a3,32(sp)
    4d1c:	00e12e23          	sw	a4,28(sp)
    4d20:	00f12c23          	sw	a5,24(sp)
    4d24:	01012a23          	sw	a6,20(sp)
    4d28:	01112823          	sw	a7,16(sp)
    4d2c:	01c12623          	sw	t3,12(sp)
    4d30:	01d12423          	sw	t4,8(sp)
    4d34:	01e12223          	sw	t5,4(sp)
    4d38:	01f12023          	sw	t6,0(sp)
    4d3c:	200607b7          	lui	a5,0x20060
    4d40:	20000713          	li	a4,512
    4d44:	00e7a223          	sw	a4,4(a5) # 20060004 <_sp+0x20036904>
    4d48:	f64fb0ef          	jal	4ac <fic_irq_gpio_3>
    4d4c:	03c12083          	lw	ra,60(sp)
    4d50:	03812283          	lw	t0,56(sp)
    4d54:	03412303          	lw	t1,52(sp)
    4d58:	03012383          	lw	t2,48(sp)
    4d5c:	02c12503          	lw	a0,44(sp)
    4d60:	02812583          	lw	a1,40(sp)
    4d64:	02412603          	lw	a2,36(sp)
    4d68:	02012683          	lw	a3,32(sp)
    4d6c:	01c12703          	lw	a4,28(sp)
    4d70:	01812783          	lw	a5,24(sp)
    4d74:	01412803          	lw	a6,20(sp)
    4d78:	01012883          	lw	a7,16(sp)
    4d7c:	00c12e03          	lw	t3,12(sp)
    4d80:	00812e83          	lw	t4,8(sp)
    4d84:	00412f03          	lw	t5,4(sp)
    4d88:	00012f83          	lw	t6,0(sp)
    4d8c:	04010113          	addi	sp,sp,64
    4d90:	30200073          	mret

00004d94 <handler_irq_fast_gpio_4>:
    4d94:	fc010113          	addi	sp,sp,-64
    4d98:	02112e23          	sw	ra,60(sp)
    4d9c:	02512c23          	sw	t0,56(sp)
    4da0:	02612a23          	sw	t1,52(sp)
    4da4:	02712823          	sw	t2,48(sp)
    4da8:	02a12623          	sw	a0,44(sp)
    4dac:	02b12423          	sw	a1,40(sp)
    4db0:	02c12223          	sw	a2,36(sp)
    4db4:	02d12023          	sw	a3,32(sp)
    4db8:	00e12e23          	sw	a4,28(sp)
    4dbc:	00f12c23          	sw	a5,24(sp)
    4dc0:	01012a23          	sw	a6,20(sp)
    4dc4:	01112823          	sw	a7,16(sp)
    4dc8:	01c12623          	sw	t3,12(sp)
    4dcc:	01d12423          	sw	t4,8(sp)
    4dd0:	01e12223          	sw	t5,4(sp)
    4dd4:	01f12023          	sw	t6,0(sp)
    4dd8:	200607b7          	lui	a5,0x20060
    4ddc:	40000713          	li	a4,1024
    4de0:	00e7a223          	sw	a4,4(a5) # 20060004 <_sp+0x20036904>
    4de4:	eecfb0ef          	jal	4d0 <fic_irq_gpio_4>
    4de8:	03c12083          	lw	ra,60(sp)
    4dec:	03812283          	lw	t0,56(sp)
    4df0:	03412303          	lw	t1,52(sp)
    4df4:	03012383          	lw	t2,48(sp)
    4df8:	02c12503          	lw	a0,44(sp)
    4dfc:	02812583          	lw	a1,40(sp)
    4e00:	02412603          	lw	a2,36(sp)
    4e04:	02012683          	lw	a3,32(sp)
    4e08:	01c12703          	lw	a4,28(sp)
    4e0c:	01812783          	lw	a5,24(sp)
    4e10:	01412803          	lw	a6,20(sp)
    4e14:	01012883          	lw	a7,16(sp)
    4e18:	00c12e03          	lw	t3,12(sp)
    4e1c:	00812e83          	lw	t4,8(sp)
    4e20:	00412f03          	lw	t5,4(sp)
    4e24:	00012f83          	lw	t6,0(sp)
    4e28:	04010113          	addi	sp,sp,64
    4e2c:	30200073          	mret

00004e30 <handler_irq_fast_gpio_5>:
    4e30:	fc010113          	addi	sp,sp,-64
    4e34:	02112e23          	sw	ra,60(sp)
    4e38:	02512c23          	sw	t0,56(sp)
    4e3c:	02612a23          	sw	t1,52(sp)
    4e40:	02712823          	sw	t2,48(sp)
    4e44:	02a12623          	sw	a0,44(sp)
    4e48:	02b12423          	sw	a1,40(sp)
    4e4c:	02c12223          	sw	a2,36(sp)
    4e50:	02d12023          	sw	a3,32(sp)
    4e54:	00e12e23          	sw	a4,28(sp)
    4e58:	00f12c23          	sw	a5,24(sp)
    4e5c:	01012a23          	sw	a6,20(sp)
    4e60:	01112823          	sw	a7,16(sp)
    4e64:	01c12623          	sw	t3,12(sp)
    4e68:	01d12423          	sw	t4,8(sp)
    4e6c:	01e12223          	sw	t5,4(sp)
    4e70:	01f12023          	sw	t6,0(sp)
    4e74:	20060737          	lui	a4,0x20060
    4e78:	000017b7          	lui	a5,0x1
    4e7c:	80078793          	addi	a5,a5,-2048 # 800 <spi_event_handler+0x110>
    4e80:	00f72223          	sw	a5,4(a4) # 20060004 <_sp+0x20036904>
    4e84:	e70fb0ef          	jal	4f4 <fic_irq_gpio_5>
    4e88:	03c12083          	lw	ra,60(sp)
    4e8c:	03812283          	lw	t0,56(sp)
    4e90:	03412303          	lw	t1,52(sp)
    4e94:	03012383          	lw	t2,48(sp)
    4e98:	02c12503          	lw	a0,44(sp)
    4e9c:	02812583          	lw	a1,40(sp)
    4ea0:	02412603          	lw	a2,36(sp)
    4ea4:	02012683          	lw	a3,32(sp)
    4ea8:	01c12703          	lw	a4,28(sp)
    4eac:	01812783          	lw	a5,24(sp)
    4eb0:	01412803          	lw	a6,20(sp)
    4eb4:	01012883          	lw	a7,16(sp)
    4eb8:	00c12e03          	lw	t3,12(sp)
    4ebc:	00812e83          	lw	t4,8(sp)
    4ec0:	00412f03          	lw	t5,4(sp)
    4ec4:	00012f83          	lw	t6,0(sp)
    4ec8:	04010113          	addi	sp,sp,64
    4ecc:	30200073          	mret

00004ed0 <handler_irq_fast_gpio_6>:
    4ed0:	fc010113          	addi	sp,sp,-64
    4ed4:	02112e23          	sw	ra,60(sp)
    4ed8:	02512c23          	sw	t0,56(sp)
    4edc:	02612a23          	sw	t1,52(sp)
    4ee0:	02712823          	sw	t2,48(sp)
    4ee4:	02a12623          	sw	a0,44(sp)
    4ee8:	02b12423          	sw	a1,40(sp)
    4eec:	02c12223          	sw	a2,36(sp)
    4ef0:	02d12023          	sw	a3,32(sp)
    4ef4:	00e12e23          	sw	a4,28(sp)
    4ef8:	00f12c23          	sw	a5,24(sp)
    4efc:	01012a23          	sw	a6,20(sp)
    4f00:	01112823          	sw	a7,16(sp)
    4f04:	01c12623          	sw	t3,12(sp)
    4f08:	01d12423          	sw	t4,8(sp)
    4f0c:	01e12223          	sw	t5,4(sp)
    4f10:	01f12023          	sw	t6,0(sp)
    4f14:	200607b7          	lui	a5,0x20060
    4f18:	00001737          	lui	a4,0x1
    4f1c:	00e7a223          	sw	a4,4(a5) # 20060004 <_sp+0x20036904>
    4f20:	df8fb0ef          	jal	518 <fic_irq_gpio_6>
    4f24:	03c12083          	lw	ra,60(sp)
    4f28:	03812283          	lw	t0,56(sp)
    4f2c:	03412303          	lw	t1,52(sp)
    4f30:	03012383          	lw	t2,48(sp)
    4f34:	02c12503          	lw	a0,44(sp)
    4f38:	02812583          	lw	a1,40(sp)
    4f3c:	02412603          	lw	a2,36(sp)
    4f40:	02012683          	lw	a3,32(sp)
    4f44:	01c12703          	lw	a4,28(sp)
    4f48:	01812783          	lw	a5,24(sp)
    4f4c:	01412803          	lw	a6,20(sp)
    4f50:	01012883          	lw	a7,16(sp)
    4f54:	00c12e03          	lw	t3,12(sp)
    4f58:	00812e83          	lw	t4,8(sp)
    4f5c:	00412f03          	lw	t5,4(sp)
    4f60:	00012f83          	lw	t6,0(sp)
    4f64:	04010113          	addi	sp,sp,64
    4f68:	30200073          	mret

00004f6c <handler_irq_fast_gpio_7>:
    4f6c:	fc010113          	addi	sp,sp,-64
    4f70:	02112e23          	sw	ra,60(sp)
    4f74:	02512c23          	sw	t0,56(sp)
    4f78:	02612a23          	sw	t1,52(sp)
    4f7c:	02712823          	sw	t2,48(sp)
    4f80:	02a12623          	sw	a0,44(sp)
    4f84:	02b12423          	sw	a1,40(sp)
    4f88:	02c12223          	sw	a2,36(sp)
    4f8c:	02d12023          	sw	a3,32(sp)
    4f90:	00e12e23          	sw	a4,28(sp)
    4f94:	00f12c23          	sw	a5,24(sp)
    4f98:	01012a23          	sw	a6,20(sp)
    4f9c:	01112823          	sw	a7,16(sp)
    4fa0:	01c12623          	sw	t3,12(sp)
    4fa4:	01d12423          	sw	t4,8(sp)
    4fa8:	01e12223          	sw	t5,4(sp)
    4fac:	01f12023          	sw	t6,0(sp)
    4fb0:	200607b7          	lui	a5,0x20060
    4fb4:	00002737          	lui	a4,0x2
    4fb8:	00e7a223          	sw	a4,4(a5) # 20060004 <_sp+0x20036904>
    4fbc:	d80fb0ef          	jal	53c <fic_irq_gpio_7>
    4fc0:	03c12083          	lw	ra,60(sp)
    4fc4:	03812283          	lw	t0,56(sp)
    4fc8:	03412303          	lw	t1,52(sp)
    4fcc:	03012383          	lw	t2,48(sp)
    4fd0:	02c12503          	lw	a0,44(sp)
    4fd4:	02812583          	lw	a1,40(sp)
    4fd8:	02412603          	lw	a2,36(sp)
    4fdc:	02012683          	lw	a3,32(sp)
    4fe0:	01c12703          	lw	a4,28(sp)
    4fe4:	01812783          	lw	a5,24(sp)
    4fe8:	01412803          	lw	a6,20(sp)
    4fec:	01012883          	lw	a7,16(sp)
    4ff0:	00c12e03          	lw	t3,12(sp)
    4ff4:	00812e83          	lw	t4,8(sp)
    4ff8:	00412f03          	lw	t5,4(sp)
    4ffc:	00012f83          	lw	t6,0(sp)
    5000:	04010113          	addi	sp,sp,64
    5004:	30200073          	mret

00005008 <handler_irq_external>:
    5008:	fb010113          	addi	sp,sp,-80
    500c:	04112623          	sw	ra,76(sp)
    5010:	04512423          	sw	t0,72(sp)
    5014:	04612223          	sw	t1,68(sp)
    5018:	04712023          	sw	t2,64(sp)
    501c:	02912e23          	sw	s1,60(sp)
    5020:	02a12c23          	sw	a0,56(sp)
    5024:	02b12a23          	sw	a1,52(sp)
    5028:	02c12823          	sw	a2,48(sp)
    502c:	02d12623          	sw	a3,44(sp)
    5030:	02e12423          	sw	a4,40(sp)
    5034:	02f12223          	sw	a5,36(sp)
    5038:	03012023          	sw	a6,32(sp)
    503c:	01112e23          	sw	a7,28(sp)
    5040:	01212c23          	sw	s2,24(sp)
    5044:	01c12a23          	sw	t3,20(sp)
    5048:	01d12823          	sw	t4,16(sp)
    504c:	01e12623          	sw	t5,12(sp)
    5050:	01f12423          	sw	t6,8(sp)
    5054:	300004b7          	lui	s1,0x30000
    5058:	20c4a903          	lw	s2,524(s1) # 3000020c <_sp+0x2ffd6b0c>
    505c:	00090513          	mv	a0,s2
    5060:	00000793          	li	a5,0
    5064:	000780e7          	jalr	a5
    5068:	2124a623          	sw	s2,524(s1)
    506c:	04c12083          	lw	ra,76(sp)
    5070:	04812283          	lw	t0,72(sp)
    5074:	04412303          	lw	t1,68(sp)
    5078:	04012383          	lw	t2,64(sp)
    507c:	03c12483          	lw	s1,60(sp)
    5080:	03812503          	lw	a0,56(sp)
    5084:	03412583          	lw	a1,52(sp)
    5088:	03012603          	lw	a2,48(sp)
    508c:	02c12683          	lw	a3,44(sp)
    5090:	02812703          	lw	a4,40(sp)
    5094:	02412783          	lw	a5,36(sp)
    5098:	02012803          	lw	a6,32(sp)
    509c:	01c12883          	lw	a7,28(sp)
    50a0:	01812903          	lw	s2,24(sp)
    50a4:	01412e03          	lw	t3,20(sp)
    50a8:	01012e83          	lw	t4,16(sp)
    50ac:	00c12f03          	lw	t5,12(sp)
    50b0:	00812f83          	lw	t6,8(sp)
    50b4:	05010113          	addi	sp,sp,80
    50b8:	30200073          	mret

000050bc <handler_exception>:
    50bc:	fc010113          	addi	sp,sp,-64
    50c0:	02112e23          	sw	ra,60(sp)
    50c4:	02512c23          	sw	t0,56(sp)
    50c8:	02612a23          	sw	t1,52(sp)
    50cc:	02712823          	sw	t2,48(sp)
    50d0:	02a12623          	sw	a0,44(sp)
    50d4:	02b12423          	sw	a1,40(sp)
    50d8:	02c12223          	sw	a2,36(sp)
    50dc:	02d12023          	sw	a3,32(sp)
    50e0:	00e12e23          	sw	a4,28(sp)
    50e4:	00f12c23          	sw	a5,24(sp)
    50e8:	01012a23          	sw	a6,20(sp)
    50ec:	01112823          	sw	a7,16(sp)
    50f0:	01c12623          	sw	t3,12(sp)
    50f4:	01d12423          	sw	t4,8(sp)
    50f8:	01e12223          	sw	t5,4(sp)
    50fc:	01f12023          	sw	t6,0(sp)
    5100:	342027f3          	csrr	a5,mcause
    5104:	01f7f793          	andi	a5,a5,31
    5108:	00b00713          	li	a4,11
    510c:	06f76863          	bltu	a4,a5,517c <handler_exception+0xc0>
    5110:	00020737          	lui	a4,0x20
    5114:	00070713          	mv	a4,a4
    5118:	20e7c7b3          	sh2add	a5,a5,a4
    511c:	0007a783          	lw	a5,0(a5)
    5120:	00078067          	jr	a5
    5124:	00020537          	lui	a0,0x20
    5128:	39450513          	addi	a0,a0,916 # 20394 <__clz_tab+0x1c0>
    512c:	9d1fb0ef          	jal	afc <print_exc_msg>
    5130:	00020537          	lui	a0,0x20
    5134:	39450513          	addi	a0,a0,916 # 20394 <__clz_tab+0x1c0>
    5138:	9c5fb0ef          	jal	afc <print_exc_msg>
    513c:	00020537          	lui	a0,0x20
    5140:	3cc50513          	addi	a0,a0,972 # 203cc <__clz_tab+0x1f8>
    5144:	9b9fb0ef          	jal	afc <print_exc_msg>
    5148:	00020537          	lui	a0,0x20
    514c:	40850513          	addi	a0,a0,1032 # 20408 <__clz_tab+0x234>
    5150:	9adfb0ef          	jal	afc <print_exc_msg>
    5154:	00020537          	lui	a0,0x20
    5158:	44450513          	addi	a0,a0,1092 # 20444 <__clz_tab+0x270>
    515c:	9a1fb0ef          	jal	afc <print_exc_msg>
    5160:	00020537          	lui	a0,0x20
    5164:	44450513          	addi	a0,a0,1092 # 20444 <__clz_tab+0x270>
    5168:	995fb0ef          	jal	afc <print_exc_msg>
    516c:	00020537          	lui	a0,0x20
    5170:	47850513          	addi	a0,a0,1144 # 20478 <__clz_tab+0x2a4>
    5174:	955fb0ef          	jal	ac8 <_writestr>
    5178:	0000006f          	j	5178 <handler_exception+0xbc>
    517c:	0000006f          	j	517c <handler_exception+0xc0>

00005180 <handler_irq_software>:
    5180:	fc010113          	addi	sp,sp,-64
    5184:	02112e23          	sw	ra,60(sp)
    5188:	02512c23          	sw	t0,56(sp)
    518c:	02612a23          	sw	t1,52(sp)
    5190:	02712823          	sw	t2,48(sp)
    5194:	02a12623          	sw	a0,44(sp)
    5198:	02b12423          	sw	a1,40(sp)
    519c:	02c12223          	sw	a2,36(sp)
    51a0:	02d12023          	sw	a3,32(sp)
    51a4:	00e12e23          	sw	a4,28(sp)
    51a8:	00f12c23          	sw	a5,24(sp)
    51ac:	01012a23          	sw	a6,20(sp)
    51b0:	01112823          	sw	a7,16(sp)
    51b4:	01c12623          	sw	t3,12(sp)
    51b8:	01d12423          	sw	t4,8(sp)
    51bc:	01e12223          	sw	t5,4(sp)
    51c0:	01f12023          	sw	t6,0(sp)
    51c4:	00020537          	lui	a0,0x20
    51c8:	49850513          	addi	a0,a0,1176 # 20498 <__clz_tab+0x2c4>
    51cc:	8fdfb0ef          	jal	ac8 <_writestr>
    51d0:	0000006f          	j	51d0 <handler_irq_software+0x50>

000051d4 <handler_irq_timer>:
    51d4:	fc010113          	addi	sp,sp,-64
    51d8:	02112e23          	sw	ra,60(sp)
    51dc:	02512c23          	sw	t0,56(sp)
    51e0:	02612a23          	sw	t1,52(sp)
    51e4:	02712823          	sw	t2,48(sp)
    51e8:	02a12623          	sw	a0,44(sp)
    51ec:	02b12423          	sw	a1,40(sp)
    51f0:	02c12223          	sw	a2,36(sp)
    51f4:	02d12023          	sw	a3,32(sp)
    51f8:	00e12e23          	sw	a4,28(sp)
    51fc:	00f12c23          	sw	a5,24(sp)
    5200:	01012a23          	sw	a6,20(sp)
    5204:	01112823          	sw	a7,16(sp)
    5208:	01c12623          	sw	t3,12(sp)
    520c:	01d12423          	sw	t4,8(sp)
    5210:	01e12223          	sw	t5,4(sp)
    5214:	01f12023          	sw	t6,0(sp)
    5218:	00020537          	lui	a0,0x20
    521c:	4b450513          	addi	a0,a0,1204 # 204b4 <__clz_tab+0x2e0>
    5220:	8a9fb0ef          	jal	ac8 <_writestr>
    5224:	0000006f          	j	5224 <handler_irq_timer+0x50>

00005228 <init>:
    5228:	00000513          	li	a0,0
    522c:	00008067          	ret

00005230 <_close>:
    5230:	fff00513          	li	a0,-1
    5234:	00008067          	ret

00005238 <_exit>:
    5238:	200007b7          	lui	a5,0x20000
    523c:	00a7a223          	sw	a0,4(a5) # 20000004 <_sp+0x1ffd6904>
    5240:	00100713          	li	a4,1
    5244:	00e78023          	sb	a4,0(a5)
    5248:	10500073          	wfi

0000524c <_fstat>:
    524c:	000027b7          	lui	a5,0x2
    5250:	00f5a223          	sw	a5,4(a1)
    5254:	00000513          	li	a0,0
    5258:	00008067          	ret

0000525c <_isatty>:
    525c:	fff50513          	addi	a0,a0,-1
    5260:	00153513          	seqz	a0,a0
    5264:	00008067          	ret

00005268 <_lseek>:
    5268:	00000513          	li	a0,0
    526c:	00008067          	ret

00005270 <_read>:
    5270:	00000513          	li	a0,0
    5274:	00008067          	ret

00005278 <_write_r>:
    5278:	ff010113          	addi	sp,sp,-16
    527c:	00112623          	sw	ra,12(sp)
    5280:	00058513          	mv	a0,a1
    5284:	00060593          	mv	a1,a2
    5288:	00068613          	mv	a2,a3
    528c:	b64fb0ef          	jal	5f0 <_write>
    5290:	00c12083          	lw	ra,12(sp)
    5294:	01010113          	addi	sp,sp,16
    5298:	00008067          	ret

0000529c <_sbrk>:
    529c:	00050713          	mv	a4,a0
    52a0:	bbc18693          	addi	a3,gp,-1092 # 216fc <__BSS_END__>
    52a4:	000257b7          	lui	a5,0x25
    52a8:	6fc78793          	addi	a5,a5,1788 # 256fc <__heap_end>
    52ac:	02f68c63          	beq	a3,a5,52e4 <_sbrk+0x48>
    52b0:	9601a503          	lw	a0,-1696(gp) # 214a0 <brk>
    52b4:	00e50733          	add	a4,a0,a4
    52b8:	00d737b3          	sltu	a5,a4,a3
    52bc:	0017b793          	seqz	a5,a5
    52c0:	000256b7          	lui	a3,0x25
    52c4:	6fc68693          	addi	a3,a3,1788 # 256fc <__heap_end>
    52c8:	00d736b3          	sltu	a3,a4,a3
    52cc:	00d7f7b3          	and	a5,a5,a3
    52d0:	00079663          	bnez	a5,52dc <_sbrk+0x40>
    52d4:	fff00513          	li	a0,-1
    52d8:	00008067          	ret
    52dc:	96e1a023          	sw	a4,-1696(gp) # 214a0 <brk>
    52e0:	00008067          	ret
    52e4:	00000513          	li	a0,0
    52e8:	00008067          	ret

000052ec <spi_intr_handler_event_flash>:
    52ec:	000217b7          	lui	a5,0x21
    52f0:	3507a703          	lw	a4,848(a5) # 21350 <peripherals+0x10>
    52f4:	00200793          	li	a5,2
    52f8:	00f70463          	beq	a4,a5,5300 <spi_intr_handler_event_flash+0x14>
    52fc:	00008067          	ret
    5300:	ff010113          	addi	sp,sp,-16
    5304:	00112623          	sw	ra,12(sp)
    5308:	00050593          	mv	a1,a0
    530c:	00021537          	lui	a0,0x21
    5310:	34050513          	addi	a0,a0,832 # 21340 <peripherals>
    5314:	bdcfb0ef          	jal	6f0 <spi_event_handler>
    5318:	00c12083          	lw	ra,12(sp)
    531c:	01010113          	addi	sp,sp,16
    5320:	00008067          	ret

00005324 <spi_intr_handler_error_flash>:
    5324:	000217b7          	lui	a5,0x21
    5328:	3507a703          	lw	a4,848(a5) # 21350 <peripherals+0x10>
    532c:	00200793          	li	a5,2
    5330:	00f70463          	beq	a4,a5,5338 <spi_intr_handler_error_flash+0x14>
    5334:	00008067          	ret
    5338:	ff010113          	addi	sp,sp,-16
    533c:	00112623          	sw	ra,12(sp)
    5340:	00050593          	mv	a1,a0
    5344:	00021537          	lui	a0,0x21
    5348:	34050513          	addi	a0,a0,832 # 21340 <peripherals>
    534c:	dccfb0ef          	jal	918 <spi_error_handler>
    5350:	00c12083          	lw	ra,12(sp)
    5354:	01010113          	addi	sp,sp,16
    5358:	00008067          	ret

0000535c <fic_irq_spi_flash>:
    535c:	fe010113          	addi	sp,sp,-32
    5360:	00112e23          	sw	ra,28(sp)
    5364:	200207b7          	lui	a5,0x20020
    5368:	0347a503          	lw	a0,52(a5) # 20020034 <_sp+0x1fff6934>
    536c:	03f57513          	andi	a0,a0,63
    5370:	00050a63          	beqz	a0,5384 <fic_irq_spi_flash+0x28>
    5374:	fb1ff0ef          	jal	5324 <spi_intr_handler_error_flash>
    5378:	01c12083          	lw	ra,28(sp)
    537c:	02010113          	addi	sp,sp,32
    5380:	00008067          	ret
    5384:	20020737          	lui	a4,0x20020
    5388:	00072783          	lw	a5,0(a4) # 20020000 <_sp+0x1fff6900>
    538c:	0027e793          	ori	a5,a5,2
    5390:	00f72023          	sw	a5,0(a4)
    5394:	00c10593          	addi	a1,sp,12
    5398:	00070513          	mv	a0,a4
    539c:	9c4fb0ef          	jal	560 <spi_get_events>
    53a0:	00c12503          	lw	a0,12(sp)
    53a4:	f49ff0ef          	jal	52ec <spi_intr_handler_event_flash>
    53a8:	fd1ff06f          	j	5378 <fic_irq_spi_flash+0x1c>

000053ac <handler_irq_fast_spi_flash>:
    53ac:	fc010113          	addi	sp,sp,-64
    53b0:	02112e23          	sw	ra,60(sp)
    53b4:	02512c23          	sw	t0,56(sp)
    53b8:	02612a23          	sw	t1,52(sp)
    53bc:	02712823          	sw	t2,48(sp)
    53c0:	02a12623          	sw	a0,44(sp)
    53c4:	02b12423          	sw	a1,40(sp)
    53c8:	02c12223          	sw	a2,36(sp)
    53cc:	02d12023          	sw	a3,32(sp)
    53d0:	00e12e23          	sw	a4,28(sp)
    53d4:	00f12c23          	sw	a5,24(sp)
    53d8:	01012a23          	sw	a6,20(sp)
    53dc:	01112823          	sw	a7,16(sp)
    53e0:	01c12623          	sw	t3,12(sp)
    53e4:	01d12423          	sw	t4,8(sp)
    53e8:	01e12223          	sw	t5,4(sp)
    53ec:	01f12023          	sw	t6,0(sp)
    53f0:	200607b7          	lui	a5,0x20060
    53f4:	02000713          	li	a4,32
    53f8:	00e7a223          	sw	a4,4(a5) # 20060004 <_sp+0x20036904>
    53fc:	f61ff0ef          	jal	535c <fic_irq_spi_flash>
    5400:	03c12083          	lw	ra,60(sp)
    5404:	03812283          	lw	t0,56(sp)
    5408:	03412303          	lw	t1,52(sp)
    540c:	03012383          	lw	t2,48(sp)
    5410:	02c12503          	lw	a0,44(sp)
    5414:	02812583          	lw	a1,40(sp)
    5418:	02412603          	lw	a2,36(sp)
    541c:	02012683          	lw	a3,32(sp)
    5420:	01c12703          	lw	a4,28(sp)
    5424:	01812783          	lw	a5,24(sp)
    5428:	01412803          	lw	a6,20(sp)
    542c:	01012883          	lw	a7,16(sp)
    5430:	00c12e03          	lw	t3,12(sp)
    5434:	00812e83          	lw	t4,8(sp)
    5438:	00412f03          	lw	t5,4(sp)
    543c:	00012f83          	lw	t6,0(sp)
    5440:	04010113          	addi	sp,sp,64
    5444:	30200073          	mret

00005448 <spi_intr_handler_event_host>:
    5448:	000217b7          	lui	a5,0x21
    544c:	3987a703          	lw	a4,920(a5) # 21398 <peripherals+0x58>
    5450:	00200793          	li	a5,2
    5454:	00f70463          	beq	a4,a5,545c <spi_intr_handler_event_host+0x14>
    5458:	00008067          	ret
    545c:	ff010113          	addi	sp,sp,-16
    5460:	00112623          	sw	ra,12(sp)
    5464:	00050593          	mv	a1,a0
    5468:	00021537          	lui	a0,0x21
    546c:	38850513          	addi	a0,a0,904 # 21388 <peripherals+0x48>
    5470:	a80fb0ef          	jal	6f0 <spi_event_handler>
    5474:	00c12083          	lw	ra,12(sp)
    5478:	01010113          	addi	sp,sp,16
    547c:	00008067          	ret

00005480 <spi_intr_handler_error_host>:
    5480:	000217b7          	lui	a5,0x21
    5484:	3987a703          	lw	a4,920(a5) # 21398 <peripherals+0x58>
    5488:	00200793          	li	a5,2
    548c:	00f70463          	beq	a4,a5,5494 <spi_intr_handler_error_host+0x14>
    5490:	00008067          	ret
    5494:	ff010113          	addi	sp,sp,-16
    5498:	00112623          	sw	ra,12(sp)
    549c:	00050593          	mv	a1,a0
    54a0:	00021537          	lui	a0,0x21
    54a4:	38850513          	addi	a0,a0,904 # 21388 <peripherals+0x48>
    54a8:	c70fb0ef          	jal	918 <spi_error_handler>
    54ac:	00c12083          	lw	ra,12(sp)
    54b0:	01010113          	addi	sp,sp,16
    54b4:	00008067          	ret

000054b8 <fic_irq_spi>:
    54b8:	fe010113          	addi	sp,sp,-32
    54bc:	00112e23          	sw	ra,28(sp)
    54c0:	300107b7          	lui	a5,0x30010
    54c4:	0347a503          	lw	a0,52(a5) # 30010034 <_sp+0x2ffe6934>
    54c8:	03f57513          	andi	a0,a0,63
    54cc:	00050a63          	beqz	a0,54e0 <fic_irq_spi+0x28>
    54d0:	fb1ff0ef          	jal	5480 <spi_intr_handler_error_host>
    54d4:	01c12083          	lw	ra,28(sp)
    54d8:	02010113          	addi	sp,sp,32
    54dc:	00008067          	ret
    54e0:	30010737          	lui	a4,0x30010
    54e4:	00072783          	lw	a5,0(a4) # 30010000 <_sp+0x2ffe6900>
    54e8:	0027e793          	ori	a5,a5,2
    54ec:	00f72023          	sw	a5,0(a4)
    54f0:	00c10593          	addi	a1,sp,12
    54f4:	00070513          	mv	a0,a4
    54f8:	868fb0ef          	jal	560 <spi_get_events>
    54fc:	00c12503          	lw	a0,12(sp)
    5500:	f49ff0ef          	jal	5448 <spi_intr_handler_event_host>
    5504:	fd1ff06f          	j	54d4 <fic_irq_spi+0x1c>

00005508 <handler_irq_fast_spi>:
    5508:	fc010113          	addi	sp,sp,-64
    550c:	02112e23          	sw	ra,60(sp)
    5510:	02512c23          	sw	t0,56(sp)
    5514:	02612a23          	sw	t1,52(sp)
    5518:	02712823          	sw	t2,48(sp)
    551c:	02a12623          	sw	a0,44(sp)
    5520:	02b12423          	sw	a1,40(sp)
    5524:	02c12223          	sw	a2,36(sp)
    5528:	02d12023          	sw	a3,32(sp)
    552c:	00e12e23          	sw	a4,28(sp)
    5530:	00f12c23          	sw	a5,24(sp)
    5534:	01012a23          	sw	a6,20(sp)
    5538:	01112823          	sw	a7,16(sp)
    553c:	01c12623          	sw	t3,12(sp)
    5540:	01d12423          	sw	t4,8(sp)
    5544:	01e12223          	sw	t5,4(sp)
    5548:	01f12023          	sw	t6,0(sp)
    554c:	200607b7          	lui	a5,0x20060
    5550:	01000713          	li	a4,16
    5554:	00e7a223          	sw	a4,4(a5) # 20060004 <_sp+0x20036904>
    5558:	f61ff0ef          	jal	54b8 <fic_irq_spi>
    555c:	03c12083          	lw	ra,60(sp)
    5560:	03812283          	lw	t0,56(sp)
    5564:	03412303          	lw	t1,52(sp)
    5568:	03012383          	lw	t2,48(sp)
    556c:	02c12503          	lw	a0,44(sp)
    5570:	02812583          	lw	a1,40(sp)
    5574:	02412603          	lw	a2,36(sp)
    5578:	02012683          	lw	a3,32(sp)
    557c:	01c12703          	lw	a4,28(sp)
    5580:	01812783          	lw	a5,24(sp)
    5584:	01412803          	lw	a6,20(sp)
    5588:	01012883          	lw	a7,16(sp)
    558c:	00c12e03          	lw	t3,12(sp)
    5590:	00812e83          	lw	t4,8(sp)
    5594:	00412f03          	lw	t5,4(sp)
    5598:	00012f83          	lw	t6,0(sp)
    559c:	04010113          	addi	sp,sp,64
    55a0:	30200073          	mret

000055a4 <atexit>:
    55a4:	00050593          	mv	a1,a0
    55a8:	00000693          	li	a3,0
    55ac:	00000613          	li	a2,0
    55b0:	00000513          	li	a0,0
    55b4:	5400006f          	j	5af4 <__register_exitproc>

000055b8 <std>:
    55b8:	ff010113          	addi	sp,sp,-16
    55bc:	00812423          	sw	s0,8(sp)
    55c0:	00112623          	sw	ra,12(sp)
    55c4:	00050413          	mv	s0,a0
    55c8:	00b51623          	sh	a1,12(a0)
    55cc:	00c51723          	sh	a2,14(a0)
    55d0:	00052023          	sw	zero,0(a0)
    55d4:	00052223          	sw	zero,4(a0)
    55d8:	00052423          	sw	zero,8(a0)
    55dc:	06052223          	sw	zero,100(a0)
    55e0:	00052823          	sw	zero,16(a0)
    55e4:	00052a23          	sw	zero,20(a0)
    55e8:	00052c23          	sw	zero,24(a0)
    55ec:	00800613          	li	a2,8
    55f0:	00000593          	li	a1,0
    55f4:	05c50513          	addi	a0,a0,92
    55f8:	4e0000ef          	jal	5ad8 <memset>
    55fc:	000057b7          	lui	a5,0x5
    5600:	7d078793          	addi	a5,a5,2000 # 57d0 <__sread>
    5604:	02f42223          	sw	a5,36(s0)
    5608:	000067b7          	lui	a5,0x6
    560c:	82078793          	addi	a5,a5,-2016 # 5820 <__swrite>
    5610:	02f42423          	sw	a5,40(s0)
    5614:	000067b7          	lui	a5,0x6
    5618:	8a478793          	addi	a5,a5,-1884 # 58a4 <__sseek>
    561c:	02f42623          	sw	a5,44(s0)
    5620:	000067b7          	lui	a5,0x6
    5624:	8fc78793          	addi	a5,a5,-1796 # 58fc <__sclose>
    5628:	00c12083          	lw	ra,12(sp)
    562c:	02842023          	sw	s0,32(s0)
    5630:	02f42823          	sw	a5,48(s0)
    5634:	00812403          	lw	s0,8(sp)
    5638:	01010113          	addi	sp,sp,16
    563c:	00008067          	ret

00005640 <stdio_exit_handler>:
    5640:	000065b7          	lui	a1,0x6
    5644:	8d818613          	addi	a2,gp,-1832 # 21418 <__sglue>
    5648:	1e058593          	addi	a1,a1,480 # 61e0 <_fflush_r>
    564c:	8e418513          	addi	a0,gp,-1820 # 21424 <_impure_data>
    5650:	0d80006f          	j	5728 <_fwalk_sglue>

00005654 <cleanup_stdio>:
    5654:	00452583          	lw	a1,4(a0)
    5658:	ff010113          	addi	sp,sp,-16
    565c:	00812423          	sw	s0,8(sp)
    5660:	00112623          	sw	ra,12(sp)
    5664:	9bc18793          	addi	a5,gp,-1604 # 214fc <__sf>
    5668:	00050413          	mv	s0,a0
    566c:	00f58463          	beq	a1,a5,5674 <cleanup_stdio+0x20>
    5670:	371000ef          	jal	61e0 <_fflush_r>
    5674:	00842583          	lw	a1,8(s0)
    5678:	a2418793          	addi	a5,gp,-1500 # 21564 <__sf+0x68>
    567c:	00f58663          	beq	a1,a5,5688 <cleanup_stdio+0x34>
    5680:	00040513          	mv	a0,s0
    5684:	35d000ef          	jal	61e0 <_fflush_r>
    5688:	00c42583          	lw	a1,12(s0)
    568c:	a8c18793          	addi	a5,gp,-1396 # 215cc <__sf+0xd0>
    5690:	00f58c63          	beq	a1,a5,56a8 <cleanup_stdio+0x54>
    5694:	00040513          	mv	a0,s0
    5698:	00812403          	lw	s0,8(sp)
    569c:	00c12083          	lw	ra,12(sp)
    56a0:	01010113          	addi	sp,sp,16
    56a4:	33d0006f          	j	61e0 <_fflush_r>
    56a8:	00c12083          	lw	ra,12(sp)
    56ac:	00812403          	lw	s0,8(sp)
    56b0:	01010113          	addi	sp,sp,16
    56b4:	00008067          	ret

000056b8 <global_stdio_init.part.0>:
    56b8:	000057b7          	lui	a5,0x5
    56bc:	ff010113          	addi	sp,sp,-16
    56c0:	64078793          	addi	a5,a5,1600 # 5640 <stdio_exit_handler>
    56c4:	00000613          	li	a2,0
    56c8:	00400593          	li	a1,4
    56cc:	9bc18513          	addi	a0,gp,-1604 # 214fc <__sf>
    56d0:	00112623          	sw	ra,12(sp)
    56d4:	96f1a423          	sw	a5,-1688(gp) # 214a8 <__stdio_exit_handler>
    56d8:	ee1ff0ef          	jal	55b8 <std>
    56dc:	00100613          	li	a2,1
    56e0:	00900593          	li	a1,9
    56e4:	a2418513          	addi	a0,gp,-1500 # 21564 <__sf+0x68>
    56e8:	ed1ff0ef          	jal	55b8 <std>
    56ec:	00c12083          	lw	ra,12(sp)
    56f0:	00200613          	li	a2,2
    56f4:	01200593          	li	a1,18
    56f8:	a8c18513          	addi	a0,gp,-1396 # 215cc <__sf+0xd0>
    56fc:	01010113          	addi	sp,sp,16
    5700:	eb9ff06f          	j	55b8 <std>

00005704 <__sinit>:
    5704:	02052783          	lw	a5,32(a0)
    5708:	00079e63          	bnez	a5,5724 <__sinit+0x20>
    570c:	000057b7          	lui	a5,0x5
    5710:	65478793          	addi	a5,a5,1620 # 5654 <cleanup_stdio>
    5714:	02f52023          	sw	a5,32(a0)
    5718:	9681a783          	lw	a5,-1688(gp) # 214a8 <__stdio_exit_handler>
    571c:	00079463          	bnez	a5,5724 <__sinit+0x20>
    5720:	f99ff06f          	j	56b8 <global_stdio_init.part.0>
    5724:	00008067          	ret

00005728 <_fwalk_sglue>:
    5728:	fd010113          	addi	sp,sp,-48
    572c:	02812423          	sw	s0,40(sp)
    5730:	03212023          	sw	s2,32(sp)
    5734:	01312e23          	sw	s3,28(sp)
    5738:	01412c23          	sw	s4,24(sp)
    573c:	01512a23          	sw	s5,20(sp)
    5740:	02112623          	sw	ra,44(sp)
    5744:	02912223          	sw	s1,36(sp)
    5748:	00050a13          	mv	s4,a0
