
sw/build/main.elf:     file format elf32-littleriscv


Disassembly of section .vectors:

00000000 <__vector_start>:
   0:	16c0506f          	j	516c <handler_exception>
   4:	22c0006f          	j	230 <__no_irq_handler>
   8:	2280006f          	j	230 <__no_irq_handler>
   c:	2240506f          	j	5230 <handler_irq_software>
  10:	2200006f          	j	230 <__no_irq_handler>
  14:	21c0006f          	j	230 <__no_irq_handler>
  18:	2180006f          	j	230 <__no_irq_handler>
  1c:	2680506f          	j	5284 <handler_irq_timer>
  20:	2100006f          	j	230 <__no_irq_handler>
  24:	20c0006f          	j	230 <__no_irq_handler>
  28:	2080006f          	j	230 <__no_irq_handler>
  2c:	08c0506f          	j	50b8 <handler_irq_external>
  30:	2000006f          	j	230 <__no_irq_handler>
  34:	1fc0006f          	j	230 <__no_irq_handler>
  38:	1f80006f          	j	230 <__no_irq_handler>
  3c:	1f40006f          	j	230 <__no_irq_handler>
  40:	7ec0406f          	j	482c <handler_irq_fast_timer_1>
  44:	0850406f          	j	48c8 <handler_irq_fast_timer_2>
  48:	11d0406f          	j	4964 <handler_irq_fast_timer_3>
  4c:	1b50406f          	j	4a00 <handler_irq_fast_dma_done>
  50:	5680506f          	j	55b8 <handler_irq_fast_spi>
  54:	4080506f          	j	545c <handler_irq_fast_spi_flash>
  58:	37d0406f          	j	4bd4 <handler_irq_fast_gpio_0>
  5c:	4150406f          	j	4c70 <handler_irq_fast_gpio_1>
  60:	4ad0406f          	j	4d0c <handler_irq_fast_gpio_2>
  64:	5450406f          	j	4da8 <handler_irq_fast_gpio_3>
  68:	5dd0406f          	j	4e44 <handler_irq_fast_gpio_4>
  6c:	6750406f          	j	4ee0 <handler_irq_fast_gpio_5>
  70:	7110406f          	j	4f80 <handler_irq_fast_gpio_6>
  74:	7a90406f          	j	501c <handler_irq_fast_gpio_7>
  78:	2250406f          	j	4a9c <handler_irq_fast_dma_window>
  7c:	2bd0406f          	j	4b38 <handler_irq_fast_external_peripheral>

Disassembly of section .init:

00000180 <_start>:
 180:	00022197          	auipc	gp,0x22
 184:	3f418193          	addi	gp,gp,1012 # 22574 <__global_pointer$>
 188:	0002a117          	auipc	sp,0x2a
 18c:	fb810113          	addi	sp,sp,-72 # 2a140 <_sp>
 190:	20000537          	lui	a0,0x20000
 194:	05f5e637          	lui	a2,0x5f5e
 198:	10060613          	addi	a2,a2,256 # 5f5e100 <_sp+0x5f33fc0>
 19c:	00c52e23          	sw	a2,28(a0) # 2000001c <_sp+0x1ffd5edc>

000001a0 <_init_bss>:
 1a0:	00022517          	auipc	a0,0x22
 1a4:	d4050513          	addi	a0,a0,-704 # 21ee0 <__stdio_exit_handler>
 1a8:	00022617          	auipc	a2,0x22
 1ac:	f8c60613          	addi	a2,a2,-116 # 22134 <__BSS_END__>
 1b0:	40a60633          	sub	a2,a2,a0
 1b4:	00000593          	li	a1,0
 1b8:	1d1050ef          	jal	5b88 <memset>
 1bc:	00000517          	auipc	a0,0x0
 1c0:	e4450513          	addi	a0,a0,-444 # 0 <__vector_start>
 1c4:	00156513          	ori	a0,a0,1
 1c8:	30551073          	csrw	mtvec,a0
 1cc:	00006517          	auipc	a0,0x6
 1d0:	96450513          	addi	a0,a0,-1692 # 5b30 <__libc_fini_array>
 1d4:	480050ef          	jal	5654 <atexit>
 1d8:	0c5050ef          	jal	5a9c <__libc_init_array>
 1dc:	00012503          	lw	a0,0(sp)
 1e0:	00410593          	addi	a1,sp,4
 1e4:	00000613          	li	a2,0
 1e8:	7c00a0ef          	jal	a9a8 <main>
 1ec:	00c0006f          	j	1f8 <exit>

000001f0 <_init>:
 1f0:	0e8050ef          	jal	52d8 <init>

000001f4 <_fini>:
 1f4:	00008067          	ret

Disassembly of section .text:

000001f8 <exit>:
     1f8:	ff010113          	addi	sp,sp,-16
     1fc:	000067b7          	lui	a5,0x6
     200:	00812423          	sw	s0,8(sp)
     204:	00112623          	sw	ra,12(sp)
     208:	c3878793          	addi	a5,a5,-968 # 5c38 <__call_exitprocs>
     20c:	00050413          	mv	s0,a0
     210:	00078663          	beqz	a5,21c <exit+0x24>
     214:	00000593          	li	a1,0
     218:	221050ef          	jal	5c38 <__call_exitprocs>
     21c:	96c1a783          	lw	a5,-1684(gp) # 21ee0 <__stdio_exit_handler>
     220:	00078463          	beqz	a5,228 <exit+0x30>
     224:	000780e7          	jalr	a5
     228:	00040513          	mv	a0,s0
     22c:	0bc050ef          	jal	52e8 <_exit>

00000230 <__no_irq_handler>:
     230:	0000006f          	j	230 <__no_irq_handler>

00000234 <fic_irq_dma_window>:
     234:	fe010113          	addi	sp,sp,-32
     238:	00112e23          	sw	ra,28(sp)
     23c:	00812c23          	sw	s0,24(sp)
     240:	02010413          	addi	s0,sp,32
     244:	fe042623          	sw	zero,-20(s0)
     248:	04c0006f          	j	294 <fic_irq_dma_window+0x60>
     24c:	99018693          	addi	a3,gp,-1648 # 21f04 <dma_subsys_per>
     250:	fec42703          	lw	a4,-20(s0)
     254:	00070793          	mv	a5,a4
     258:	00179793          	slli	a5,a5,0x1
     25c:	00e787b3          	add	a5,a5,a4
     260:	00279793          	slli	a5,a5,0x2
     264:	00f687b3          	add	a5,a3,a5
     268:	0087a783          	lw	a5,8(a5)
     26c:	0687a703          	lw	a4,104(a5)
     270:	00100793          	li	a5,1
     274:	00f71a63          	bne	a4,a5,288 <fic_irq_dma_window+0x54>
     278:	fec42783          	lw	a5,-20(s0)
     27c:	0ff7f793          	zext.b	a5,a5
     280:	00078513          	mv	a0,a5
     284:	100000ef          	jal	384 <dma_intr_handler_window_done>
     288:	fec42783          	lw	a5,-20(s0)
     28c:	00178793          	addi	a5,a5,1
     290:	fef42623          	sw	a5,-20(s0)
     294:	fec42703          	lw	a4,-20(s0)
     298:	00300793          	li	a5,3
     29c:	fae7d8e3          	bge	a5,a4,24c <fic_irq_dma_window+0x18>
     2a0:	00000013          	nop
     2a4:	01c12083          	lw	ra,28(sp)
     2a8:	01812403          	lw	s0,24(sp)
     2ac:	02010113          	addi	sp,sp,32
     2b0:	00008067          	ret

000002b4 <fic_irq_dma_done>:
     2b4:	fe010113          	addi	sp,sp,-32
     2b8:	00112e23          	sw	ra,28(sp)
     2bc:	00812c23          	sw	s0,24(sp)
     2c0:	02010413          	addi	s0,sp,32
     2c4:	fe042623          	sw	zero,-20(s0)
     2c8:	0700006f          	j	338 <fic_irq_dma_done+0x84>
     2cc:	99018693          	addi	a3,gp,-1648 # 21f04 <dma_subsys_per>
     2d0:	fec42703          	lw	a4,-20(s0)
     2d4:	00070793          	mv	a5,a4
     2d8:	00179793          	slli	a5,a5,0x1
     2dc:	00e787b3          	add	a5,a5,a4
     2e0:	00279793          	slli	a5,a5,0x2
     2e4:	00f687b3          	add	a5,a3,a5
     2e8:	0087a783          	lw	a5,8(a5)
     2ec:	0647a703          	lw	a4,100(a5)
     2f0:	00100793          	li	a5,1
     2f4:	02f71c63          	bne	a4,a5,32c <fic_irq_dma_done+0x78>
     2f8:	99018693          	addi	a3,gp,-1648 # 21f04 <dma_subsys_per>
     2fc:	fec42703          	lw	a4,-20(s0)
     300:	00070793          	mv	a5,a4
     304:	00179793          	slli	a5,a5,0x1
     308:	00e787b3          	add	a5,a5,a4
     30c:	00279793          	slli	a5,a5,0x2
     310:	00f687b3          	add	a5,a3,a5
     314:	00100713          	li	a4,1
     318:	00e78223          	sb	a4,4(a5)
     31c:	fec42783          	lw	a5,-20(s0)
     320:	0ff7f793          	zext.b	a5,a5
     324:	00078513          	mv	a0,a5
     328:	030000ef          	jal	358 <dma_intr_handler_trans_done>
     32c:	fec42783          	lw	a5,-20(s0)
     330:	00178793          	addi	a5,a5,1
     334:	fef42623          	sw	a5,-20(s0)
     338:	fec42703          	lw	a4,-20(s0)
     33c:	00300793          	li	a5,3
     340:	f8e7d6e3          	bge	a5,a4,2cc <fic_irq_dma_done+0x18>
     344:	00000013          	nop
     348:	01c12083          	lw	ra,28(sp)
     34c:	01812403          	lw	s0,24(sp)
     350:	02010113          	addi	sp,sp,32
     354:	00008067          	ret

00000358 <dma_intr_handler_trans_done>:
     358:	fe010113          	addi	sp,sp,-32
     35c:	00112e23          	sw	ra,28(sp)
     360:	00812c23          	sw	s0,24(sp)
     364:	02010413          	addi	s0,sp,32
     368:	00050793          	mv	a5,a0
     36c:	fef407a3          	sb	a5,-17(s0)
     370:	00000013          	nop
     374:	01c12083          	lw	ra,28(sp)
     378:	01812403          	lw	s0,24(sp)
     37c:	02010113          	addi	sp,sp,32
     380:	00008067          	ret

00000384 <dma_intr_handler_window_done>:
     384:	fe010113          	addi	sp,sp,-32
     388:	00112e23          	sw	ra,28(sp)
     38c:	00812c23          	sw	s0,24(sp)
     390:	02010413          	addi	s0,sp,32
     394:	00050793          	mv	a5,a0
     398:	fef407a3          	sb	a5,-17(s0)
     39c:	00000013          	nop
     3a0:	01c12083          	lw	ra,28(sp)
     3a4:	01812403          	lw	s0,24(sp)
     3a8:	02010113          	addi	sp,sp,32
     3ac:	00008067          	ret

000003b0 <fic_irq_timer_1>:
     3b0:	ff010113          	addi	sp,sp,-16
     3b4:	00112623          	sw	ra,12(sp)
     3b8:	00812423          	sw	s0,8(sp)
     3bc:	01010413          	addi	s0,sp,16
     3c0:	00000013          	nop
     3c4:	00c12083          	lw	ra,12(sp)
     3c8:	00812403          	lw	s0,8(sp)
     3cc:	01010113          	addi	sp,sp,16
     3d0:	00008067          	ret

000003d4 <fic_irq_timer_2>:
     3d4:	ff010113          	addi	sp,sp,-16
     3d8:	00112623          	sw	ra,12(sp)
     3dc:	00812423          	sw	s0,8(sp)
     3e0:	01010413          	addi	s0,sp,16
     3e4:	00000013          	nop
     3e8:	00c12083          	lw	ra,12(sp)
     3ec:	00812403          	lw	s0,8(sp)
     3f0:	01010113          	addi	sp,sp,16
     3f4:	00008067          	ret

000003f8 <fic_irq_timer_3>:
     3f8:	ff010113          	addi	sp,sp,-16
     3fc:	00112623          	sw	ra,12(sp)
     400:	00812423          	sw	s0,8(sp)
     404:	01010413          	addi	s0,sp,16
     408:	00000013          	nop
     40c:	00c12083          	lw	ra,12(sp)
     410:	00812403          	lw	s0,8(sp)
     414:	01010113          	addi	sp,sp,16
     418:	00008067          	ret

0000041c <fic_irq_ext_peripheral>:
     41c:	ff010113          	addi	sp,sp,-16
     420:	00112623          	sw	ra,12(sp)
     424:	00812423          	sw	s0,8(sp)
     428:	01010413          	addi	s0,sp,16
     42c:	00000013          	nop
     430:	00c12083          	lw	ra,12(sp)
     434:	00812403          	lw	s0,8(sp)
     438:	01010113          	addi	sp,sp,16
     43c:	00008067          	ret

00000440 <fic_irq_gpio_0>:
     440:	ff010113          	addi	sp,sp,-16
     444:	00112623          	sw	ra,12(sp)
     448:	00812423          	sw	s0,8(sp)
     44c:	01010413          	addi	s0,sp,16
     450:	00000013          	nop
     454:	00c12083          	lw	ra,12(sp)
     458:	00812403          	lw	s0,8(sp)
     45c:	01010113          	addi	sp,sp,16
     460:	00008067          	ret

00000464 <fic_irq_gpio_1>:
     464:	ff010113          	addi	sp,sp,-16
     468:	00112623          	sw	ra,12(sp)
     46c:	00812423          	sw	s0,8(sp)
     470:	01010413          	addi	s0,sp,16
     474:	00000013          	nop
     478:	00c12083          	lw	ra,12(sp)
     47c:	00812403          	lw	s0,8(sp)
     480:	01010113          	addi	sp,sp,16
     484:	00008067          	ret

00000488 <fic_irq_gpio_2>:
     488:	ff010113          	addi	sp,sp,-16
     48c:	00112623          	sw	ra,12(sp)
     490:	00812423          	sw	s0,8(sp)
     494:	01010413          	addi	s0,sp,16
     498:	00000013          	nop
     49c:	00c12083          	lw	ra,12(sp)
     4a0:	00812403          	lw	s0,8(sp)
     4a4:	01010113          	addi	sp,sp,16
     4a8:	00008067          	ret

000004ac <fic_irq_gpio_3>:
     4ac:	ff010113          	addi	sp,sp,-16
     4b0:	00112623          	sw	ra,12(sp)
     4b4:	00812423          	sw	s0,8(sp)
     4b8:	01010413          	addi	s0,sp,16
     4bc:	00000013          	nop
     4c0:	00c12083          	lw	ra,12(sp)
     4c4:	00812403          	lw	s0,8(sp)
     4c8:	01010113          	addi	sp,sp,16
     4cc:	00008067          	ret

000004d0 <fic_irq_gpio_4>:
     4d0:	ff010113          	addi	sp,sp,-16
     4d4:	00112623          	sw	ra,12(sp)
     4d8:	00812423          	sw	s0,8(sp)
     4dc:	01010413          	addi	s0,sp,16
     4e0:	00000013          	nop
     4e4:	00c12083          	lw	ra,12(sp)
     4e8:	00812403          	lw	s0,8(sp)
     4ec:	01010113          	addi	sp,sp,16
     4f0:	00008067          	ret

000004f4 <fic_irq_gpio_5>:
     4f4:	ff010113          	addi	sp,sp,-16
     4f8:	00112623          	sw	ra,12(sp)
     4fc:	00812423          	sw	s0,8(sp)
     500:	01010413          	addi	s0,sp,16
     504:	00000013          	nop
     508:	00c12083          	lw	ra,12(sp)
     50c:	00812403          	lw	s0,8(sp)
     510:	01010113          	addi	sp,sp,16
     514:	00008067          	ret

00000518 <fic_irq_gpio_6>:
     518:	ff010113          	addi	sp,sp,-16
     51c:	00112623          	sw	ra,12(sp)
     520:	00812423          	sw	s0,8(sp)
     524:	01010413          	addi	s0,sp,16
     528:	00000013          	nop
     52c:	00c12083          	lw	ra,12(sp)
     530:	00812403          	lw	s0,8(sp)
     534:	01010113          	addi	sp,sp,16
     538:	00008067          	ret

0000053c <fic_irq_gpio_7>:
     53c:	ff010113          	addi	sp,sp,-16
     540:	00112623          	sw	ra,12(sp)
     544:	00812423          	sw	s0,8(sp)
     548:	01010413          	addi	s0,sp,16
     54c:	00000013          	nop
     550:	00c12083          	lw	ra,12(sp)
     554:	00812403          	lw	s0,8(sp)
     558:	01010113          	addi	sp,sp,16
     55c:	00008067          	ret

00000560 <spi_get_events>:
     560:	ff010113          	addi	sp,sp,-16
     564:	01452783          	lw	a5,20(a0)
     568:	00f12623          	sw	a5,12(sp)
     56c:	00c12683          	lw	a3,12(sp)
     570:	0196d693          	srli	a3,a3,0x19
     574:	0016f693          	andi	a3,a3,1
     578:	0005a783          	lw	a5,0(a1)
     57c:	00c12703          	lw	a4,12(sp)
     580:	01b75713          	srli	a4,a4,0x1b
     584:	ffc7f793          	andi	a5,a5,-4
     588:	00d7e7b3          	or	a5,a5,a3
     58c:	00c12683          	lw	a3,12(sp)
     590:	0126d693          	srli	a3,a3,0x12
     594:	00277713          	andi	a4,a4,2
     598:	00f76733          	or	a4,a4,a5
     59c:	00c12783          	lw	a5,12(sp)
     5a0:	0177d793          	srli	a5,a5,0x17
     5a4:	0046f693          	andi	a3,a3,4
     5a8:	ff377713          	andi	a4,a4,-13
     5ac:	00d76733          	or	a4,a4,a3
     5b0:	00c12683          	lw	a3,12(sp)
     5b4:	01f6d693          	srli	a3,a3,0x1f
     5b8:	0087f793          	andi	a5,a5,8
     5bc:	00e7e7b3          	or	a5,a5,a4
     5c0:	00c12703          	lw	a4,12(sp)
     5c4:	01975713          	srli	a4,a4,0x19
     5c8:	00469693          	slli	a3,a3,0x4
     5cc:	fcf7f793          	andi	a5,a5,-49
     5d0:	00d7e7b3          	or	a5,a5,a3
     5d4:	02077713          	andi	a4,a4,32
     5d8:	02074713          	xori	a4,a4,32
     5dc:	00f767b3          	or	a5,a4,a5
     5e0:	00f5a023          	sw	a5,0(a1)
     5e4:	00000513          	li	a0,0
     5e8:	01010113          	addi	sp,sp,16
     5ec:	00008067          	ret

000005f0 <_write>:
     5f0:	00100793          	li	a5,1
     5f4:	08f51063          	bne	a0,a5,674 <_write+0x84>
     5f8:	200007b7          	lui	a5,0x20000
     5fc:	01c7a783          	lw	a5,28(a5) # 2000001c <_sp+0x1ffd5edc>
     600:	08078263          	beqz	a5,684 <_write+0x94>
     604:	300807b7          	lui	a5,0x30080
     608:	0007a623          	sw	zero,12(a5) # 3008000c <_sp+0x30055ecc>
     60c:	00300713          	li	a4,3
     610:	00e7ae23          	sw	a4,28(a5)
     614:	0207a223          	sw	zero,36(a5)
     618:	0207a623          	sw	zero,44(a5)
     61c:	0007a223          	sw	zero,4(a5)
     620:	fff00713          	li	a4,-1
     624:	00e7a023          	sw	a4,0(a5)
     628:	0a7c0737          	lui	a4,0xa7c0
     62c:	00370713          	addi	a4,a4,3 # a7c0003 <_sp+0xa795ec3>
     630:	00e7a623          	sw	a4,12(a5)
     634:	0007a223          	sw	zero,4(a5)
     638:	02060a63          	beqz	a2,66c <_write+0x7c>
     63c:	00c58833          	add	a6,a1,a2
     640:	00078713          	mv	a4,a5
     644:	0005c683          	lbu	a3,0(a1)
     648:	01072783          	lw	a5,16(a4)
     64c:	0017f793          	andi	a5,a5,1
     650:	fe079ce3          	bnez	a5,648 <_write+0x58>
     654:	00d72c23          	sw	a3,24(a4)
     658:	01072783          	lw	a5,16(a4)
     65c:	0087f793          	andi	a5,a5,8
     660:	fe078ce3          	beqz	a5,658 <_write+0x68>
     664:	00158593          	addi	a1,a1,1
     668:	fd059ee3          	bne	a1,a6,644 <_write+0x54>
     66c:	00060513          	mv	a0,a2
     670:	00008067          	ret
     674:	05800713          	li	a4,88
     678:	96e1a823          	sw	a4,-1680(gp) # 21ee4 <errno>
     67c:	fff00613          	li	a2,-1
     680:	fedff06f          	j	66c <_write+0x7c>
     684:	05800713          	li	a4,88
     688:	96e1a823          	sw	a4,-1680(gp) # 21ee4 <errno>
     68c:	ff1ff06f          	j	67c <_write+0x8c>

00000690 <spi_empty_rx>:
     690:	02452783          	lw	a5,36(a0)
     694:	00078863          	beqz	a5,6a4 <spi_empty_rx+0x14>
     698:	03452783          	lw	a5,52(a0)
     69c:	02852703          	lw	a4,40(a0)
     6a0:	02e7e863          	bltu	a5,a4,6d0 <spi_empty_rx+0x40>
     6a4:	00000513          	li	a0,0
     6a8:	00008067          	ret
     6ac:	0286a703          	lw	a4,40(a3)
     6b0:	02452683          	lw	a3,36(a0)
     6b4:	20d7c7b3          	sh2add	a5,a5,a3
     6b8:	00e7a023          	sw	a4,0(a5)
     6bc:	03452783          	lw	a5,52(a0)
     6c0:	00178793          	addi	a5,a5,1
     6c4:	02f52a23          	sw	a5,52(a0)
     6c8:	02852703          	lw	a4,40(a0)
     6cc:	00e7fe63          	bgeu	a5,a4,6e8 <spi_empty_rx+0x58>
     6d0:	00052683          	lw	a3,0(a0)
     6d4:	00068a63          	beqz	a3,6e8 <spi_empty_rx+0x58>
     6d8:	0146a703          	lw	a4,20(a3)
     6dc:	00875713          	srli	a4,a4,0x8
     6e0:	0ff77713          	zext.b	a4,a4
     6e4:	fc0714e3          	bnez	a4,6ac <spi_empty_rx+0x1c>
     6e8:	00100513          	li	a0,1
     6ec:	00008067          	ret

000006f0 <spi_event_handler>:
     6f0:	ff010113          	addi	sp,sp,-16
     6f4:	00112623          	sw	ra,12(sp)
     6f8:	00912423          	sw	s1,8(sp)
     6fc:	01212223          	sw	s2,4(sp)
     700:	00050493          	mv	s1,a0
     704:	00058913          	mv	s2,a1
     708:	0105f793          	andi	a5,a1,16
     70c:	02078063          	beqz	a5,72c <spi_event_handler+0x3c>
     710:	01452703          	lw	a4,20(a0)
     714:	00070863          	beqz	a4,724 <spi_event_handler+0x34>
     718:	02c52683          	lw	a3,44(a0)
     71c:	01854783          	lbu	a5,24(a0)
     720:	02f6e863          	bltu	a3,a5,750 <spi_event_handler+0x60>
     724:	02097793          	andi	a5,s2,32
     728:	0a079e63          	bnez	a5,7e4 <spi_event_handler+0xf4>
     72c:	00897793          	andi	a5,s2,8
     730:	14079063          	bnez	a5,870 <spi_event_handler+0x180>
     734:	00497913          	andi	s2,s2,4
     738:	1a091663          	bnez	s2,8e4 <spi_event_handler+0x1f4>
     73c:	00c12083          	lw	ra,12(sp)
     740:	00812483          	lw	s1,8(sp)
     744:	00412903          	lw	s2,4(sp)
     748:	01010113          	addi	sp,sp,16
     74c:	00008067          	ret
     750:	20e6c733          	sh2add	a4,a3,a4
     754:	00072703          	lw	a4,0(a4)
     758:	00871613          	slli	a2,a4,0x8
     75c:	00865593          	srli	a1,a2,0x8
     760:	01875713          	srli	a4,a4,0x18
     764:	00f77613          	andi	a2,a4,15
     768:	00168693          	addi	a3,a3,1
     76c:	02d52623          	sw	a3,44(a0)
     770:	00052503          	lw	a0,0(a0)
     774:	fa050ce3          	beqz	a0,72c <spi_event_handler+0x3c>
     778:	00265713          	srli	a4,a2,0x2
     77c:	01971713          	slli	a4,a4,0x19
     780:	00367613          	andi	a2,a2,3
     784:	01b61613          	slli	a2,a2,0x1b
     788:	00c76733          	or	a4,a4,a2
     78c:	40d787b3          	sub	a5,a5,a3
     790:	00f037b3          	snez	a5,a5
     794:	01879793          	slli	a5,a5,0x18
     798:	00f767b3          	or	a5,a4,a5
     79c:	fff58613          	addi	a2,a1,-1
     7a0:	00861613          	slli	a2,a2,0x8
     7a4:	00865613          	srli	a2,a2,0x8
     7a8:	00c7e633          	or	a2,a5,a2
     7ac:	0197d793          	srli	a5,a5,0x19
     7b0:	0037f793          	andi	a5,a5,3
     7b4:	00200713          	li	a4,2
     7b8:	14f76c63          	bltu	a4,a5,910 <spi_event_handler+0x220>
     7bc:	01452703          	lw	a4,20(a0)
     7c0:	f60756e3          	bgez	a4,72c <spi_event_handler+0x3c>
     7c4:	01b65713          	srli	a4,a2,0x1b
     7c8:	ffd70713          	addi	a4,a4,-3
     7cc:	00173713          	seqz	a4,a4
     7d0:	00f037b3          	snez	a5,a5
     7d4:	00f777b3          	and	a5,a4,a5
     7d8:	f4079ae3          	bnez	a5,72c <spi_event_handler+0x3c>
     7dc:	02c52223          	sw	a2,36(a0)
     7e0:	f4dff06f          	j	72c <spi_event_handler+0x3c>
     7e4:	0004a783          	lw	a5,0(s1)
     7e8:	02078263          	beqz	a5,80c <spi_event_handler+0x11c>
     7ec:	0387a703          	lw	a4,56(a5)
     7f0:	fc077713          	andi	a4,a4,-64
     7f4:	02e7ac23          	sw	a4,56(a5)
     7f8:	0004a783          	lw	a5,0(s1)
     7fc:	00078863          	beqz	a5,80c <spi_event_handler+0x11c>
     800:	0047a703          	lw	a4,4(a5)
     804:	ffd77713          	andi	a4,a4,-3
     808:	00e7a223          	sw	a4,4(a5)
     80c:	00048513          	mv	a0,s1
     810:	e81ff0ef          	jal	690 <spi_empty_rx>
     814:	00400793          	li	a5,4
     818:	00f4a823          	sw	a5,16(s1)
     81c:	0384a783          	lw	a5,56(s1)
     820:	00078c63          	beqz	a5,838 <spi_event_handler+0x148>
     824:	0344a683          	lw	a3,52(s1)
     828:	0244a603          	lw	a2,36(s1)
     82c:	0304a583          	lw	a1,48(s1)
     830:	01c4a503          	lw	a0,28(s1)
     834:	000780e7          	jalr	a5
     838:	0204a623          	sw	zero,44(s1)
     83c:	0204a823          	sw	zero,48(s1)
     840:	0204aa23          	sw	zero,52(s1)
     844:	0004aa23          	sw	zero,20(s1)
     848:	0004ac23          	sw	zero,24(s1)
     84c:	0004ae23          	sw	zero,28(s1)
     850:	0204a023          	sw	zero,32(s1)
     854:	0204a223          	sw	zero,36(s1)
     858:	0204a423          	sw	zero,40(s1)
     85c:	0204ac23          	sw	zero,56(s1)
     860:	0204ae23          	sw	zero,60(s1)
     864:	0404a023          	sw	zero,64(s1)
     868:	0404a223          	sw	zero,68(s1)
     86c:	ed1ff06f          	j	73c <spi_event_handler+0x4c>
     870:	01c4a783          	lw	a5,28(s1)
     874:	ec0780e3          	beqz	a5,734 <spi_event_handler+0x44>
     878:	0304a783          	lw	a5,48(s1)
     87c:	0204a703          	lw	a4,32(s1)
     880:	eae7fae3          	bgeu	a5,a4,734 <spi_event_handler+0x44>
     884:	04700613          	li	a2,71
     888:	0280006f          	j	8b0 <spi_event_handler+0x1c0>
     88c:	01c4a683          	lw	a3,28(s1)
     890:	20d7c7b3          	sh2add	a5,a5,a3
     894:	0007a783          	lw	a5,0(a5)
     898:	02f72623          	sw	a5,44(a4)
     89c:	0304a783          	lw	a5,48(s1)
     8a0:	00178793          	addi	a5,a5,1
     8a4:	02f4a823          	sw	a5,48(s1)
     8a8:	0204a703          	lw	a4,32(s1)
     8ac:	00e7fc63          	bgeu	a5,a4,8c4 <spi_event_handler+0x1d4>
     8b0:	0004a703          	lw	a4,0(s1)
     8b4:	00070863          	beqz	a4,8c4 <spi_event_handler+0x1d4>
     8b8:	01472683          	lw	a3,20(a4)
     8bc:	0ff6f693          	zext.b	a3,a3
     8c0:	fcd676e3          	bgeu	a2,a3,88c <spi_event_handler+0x19c>
     8c4:	03c4a783          	lw	a5,60(s1)
     8c8:	e60786e3          	beqz	a5,734 <spi_event_handler+0x44>
     8cc:	0344a683          	lw	a3,52(s1)
     8d0:	0244a603          	lw	a2,36(s1)
     8d4:	0304a583          	lw	a1,48(s1)
     8d8:	01c4a503          	lw	a0,28(s1)
     8dc:	000780e7          	jalr	a5
     8e0:	e55ff06f          	j	734 <spi_event_handler+0x44>
     8e4:	00048513          	mv	a0,s1
     8e8:	da9ff0ef          	jal	690 <spi_empty_rx>
     8ec:	e40508e3          	beqz	a0,73c <spi_event_handler+0x4c>
     8f0:	0404a783          	lw	a5,64(s1)
     8f4:	e40784e3          	beqz	a5,73c <spi_event_handler+0x4c>
     8f8:	0344a683          	lw	a3,52(s1)
     8fc:	0244a603          	lw	a2,36(s1)
     900:	0304a583          	lw	a1,48(s1)
     904:	01c4a503          	lw	a0,28(s1)
     908:	000780e7          	jalr	a5
     90c:	e31ff06f          	j	73c <spi_event_handler+0x4c>
     910:	01452783          	lw	a5,20(a0)
     914:	e19ff06f          	j	72c <spi_event_handler+0x3c>

00000918 <spi_error_handler>:
     918:	fe010113          	addi	sp,sp,-32
     91c:	00112e23          	sw	ra,28(sp)
     920:	00912c23          	sw	s1,24(sp)
     924:	00050493          	mv	s1,a0
     928:	00052783          	lw	a5,0(a0)
     92c:	02078263          	beqz	a5,950 <spi_error_handler+0x38>
     930:	0387a703          	lw	a4,56(a5)
     934:	fc077713          	andi	a4,a4,-64
     938:	02e7ac23          	sw	a4,56(a5)
     93c:	00052783          	lw	a5,0(a0)
     940:	00078863          	beqz	a5,950 <spi_error_handler+0x38>
     944:	0047a703          	lw	a4,4(a5)
     948:	ffd77713          	andi	a4,a4,-3
     94c:	00e7a223          	sw	a4,4(a5)
     950:	0444a783          	lw	a5,68(s1)
     954:	00078c63          	beqz	a5,96c <spi_error_handler+0x54>
     958:	0344a683          	lw	a3,52(s1)
     95c:	0244a603          	lw	a2,36(s1)
     960:	0304a583          	lw	a1,48(s1)
     964:	01c4a503          	lw	a0,28(s1)
     968:	000780e7          	jalr	a5
     96c:	0204a623          	sw	zero,44(s1)
     970:	0204a823          	sw	zero,48(s1)
     974:	0204aa23          	sw	zero,52(s1)
     978:	0004aa23          	sw	zero,20(s1)
     97c:	0004ac23          	sw	zero,24(s1)
     980:	0004ae23          	sw	zero,28(s1)
     984:	0204a023          	sw	zero,32(s1)
     988:	0204a223          	sw	zero,36(s1)
     98c:	0204a423          	sw	zero,40(s1)
     990:	0204ac23          	sw	zero,56(s1)
     994:	0204ae23          	sw	zero,60(s1)
     998:	0404a023          	sw	zero,64(s1)
     99c:	0404a223          	sw	zero,68(s1)
     9a0:	0004a683          	lw	a3,0(s1)
     9a4:	10068463          	beqz	a3,aac <spi_error_handler+0x194>
     9a8:	0106a783          	lw	a5,16(a3)
     9ac:	40000737          	lui	a4,0x40000
     9b0:	00e7e7b3          	or	a5,a5,a4
     9b4:	00f6a823          	sw	a5,16(a3)
     9b8:	0146a783          	lw	a5,20(a3)
     9bc:	00f12623          	sw	a5,12(sp)
     9c0:	00c12783          	lw	a5,12(sp)
     9c4:	00179713          	slli	a4,a5,0x1
     9c8:	fe074ce3          	bltz	a4,9c0 <spi_error_handler+0xa8>
     9cc:	00c14783          	lbu	a5,12(sp)
     9d0:	fe0798e3          	bnez	a5,9c0 <spi_error_handler+0xa8>
     9d4:	00d14783          	lbu	a5,13(sp)
     9d8:	fe0794e3          	bnez	a5,9c0 <spi_error_handler+0xa8>
     9dc:	0106a783          	lw	a5,16(a3)
     9e0:	c0000737          	lui	a4,0xc0000
     9e4:	fff70713          	addi	a4,a4,-1 # bfffffff <_sp+0xbffd5ebf>
     9e8:	00e7f7b3          	and	a5,a5,a4
     9ec:	00f6a823          	sw	a5,16(a3)
     9f0:	0004a783          	lw	a5,0(s1)
     9f4:	0a078c63          	beqz	a5,aac <spi_error_handler+0x194>
     9f8:	0107a703          	lw	a4,16(a5)
     9fc:	800006b7          	lui	a3,0x80000
     a00:	00d76733          	or	a4,a4,a3
     a04:	00e7a823          	sw	a4,16(a5)
     a08:	0004a783          	lw	a5,0(s1)
     a0c:	0a078063          	beqz	a5,aac <spi_error_handler+0x194>
     a10:	0107a703          	lw	a4,16(a5)
     a14:	200006b7          	lui	a3,0x20000
     a18:	00d76733          	or	a4,a4,a3
     a1c:	00e7a823          	sw	a4,16(a5)
     a20:	0004a783          	lw	a5,0(s1)
     a24:	08078463          	beqz	a5,aac <spi_error_handler+0x194>
     a28:	0307a703          	lw	a4,48(a5)
     a2c:	01f76713          	ori	a4,a4,31
     a30:	02e7a823          	sw	a4,48(a5)
     a34:	0004a783          	lw	a5,0(s1)
     a38:	06078a63          	beqz	a5,aac <spi_error_handler+0x194>
     a3c:	0047a703          	lw	a4,4(a5)
     a40:	00176713          	ori	a4,a4,1
     a44:	00e7a223          	sw	a4,4(a5)
     a48:	0004a703          	lw	a4,0(s1)
     a4c:	0044c783          	lbu	a5,4(s1)
     a50:	00173693          	seqz	a3,a4
     a54:	0497b613          	sltiu	a2,a5,73
     a58:	00163613          	seqz	a2,a2
     a5c:	00c6e6b3          	or	a3,a3,a2
     a60:	02069063          	bnez	a3,a80 <spi_error_handler+0x168>
     a64:	01072683          	lw	a3,16(a4)
     a68:	ffff0637          	lui	a2,0xffff0
     a6c:	0ff60613          	addi	a2,a2,255 # ffff00ff <_sp+0xfffc5fbf>
     a70:	00c6f6b3          	and	a3,a3,a2
     a74:	00879793          	slli	a5,a5,0x8
     a78:	00d7e7b3          	or	a5,a5,a3
     a7c:	00f72823          	sw	a5,16(a4)
     a80:	0004a683          	lw	a3,0(s1)
     a84:	0054c703          	lbu	a4,5(s1)
     a88:	04173793          	sltiu	a5,a4,65
     a8c:	0017b793          	seqz	a5,a5
     a90:	0016b613          	seqz	a2,a3
     a94:	00c7e7b3          	or	a5,a5,a2
     a98:	00079a63          	bnez	a5,aac <spi_error_handler+0x194>
     a9c:	0106a783          	lw	a5,16(a3) # 20000010 <_sp+0x1ffd5ed0>
     aa0:	f007f793          	andi	a5,a5,-256
     aa4:	00f76733          	or	a4,a4,a5
     aa8:	00e6a823          	sw	a4,16(a3)
     aac:	0004a423          	sw	zero,8(s1)
     ab0:	00800793          	li	a5,8
     ab4:	00f4a823          	sw	a5,16(s1)
     ab8:	01c12083          	lw	ra,28(sp)
     abc:	01812483          	lw	s1,24(sp)
     ac0:	02010113          	addi	sp,sp,32
     ac4:	00008067          	ret

00000ac8 <_writestr>:
     ac8:	ff010113          	addi	sp,sp,-16
     acc:	00112623          	sw	ra,12(sp)
     ad0:	00912423          	sw	s1,8(sp)
     ad4:	00050493          	mv	s1,a0
     ad8:	3ed050ef          	jal	66c4 <strlen>
     adc:	00150613          	addi	a2,a0,1
     ae0:	00048593          	mv	a1,s1
     ae4:	00100513          	li	a0,1
     ae8:	b09ff0ef          	jal	5f0 <_write>
     aec:	00c12083          	lw	ra,12(sp)
     af0:	00812483          	lw	s1,8(sp)
     af4:	01010113          	addi	sp,sp,16
     af8:	00008067          	ret

00000afc <print_exc_msg>:
     afc:	fe010113          	addi	sp,sp,-32
     b00:	00112e23          	sw	ra,28(sp)
     b04:	00912c23          	sw	s1,24(sp)
     b08:	fc1ff0ef          	jal	ac8 <_writestr>
     b0c:	343024f3          	csrr	s1,mtval
     b10:	00020537          	lui	a0,0x20
     b14:	3e050513          	addi	a0,a0,992 # 203e0 <__clz_tab+0x1b0>
     b18:	fb1ff0ef          	jal	ac8 <_writestr>
     b1c:	0184d793          	srli	a5,s1,0x18
     b20:	00f10423          	sb	a5,8(sp)
     b24:	0104d793          	srli	a5,s1,0x10
     b28:	00f104a3          	sb	a5,9(sp)
     b2c:	0084d793          	srli	a5,s1,0x8
     b30:	00f10523          	sb	a5,10(sp)
     b34:	009105a3          	sb	s1,11(sp)
     b38:	00a00793          	li	a5,10
     b3c:	00f10623          	sb	a5,12(sp)
     b40:	000106a3          	sb	zero,13(sp)
     b44:	00810513          	addi	a0,sp,8
     b48:	f81ff0ef          	jal	ac8 <_writestr>
     b4c:	0000006f          	j	b4c <print_exc_msg+0x50>

00000b50 <inferenceTPG>:
     b50:	e9010113          	addi	sp,sp,-368
     b54:	16112623          	sw	ra,364(sp)
     b58:	16912423          	sw	s1,360(sp)
     b5c:	17212223          	sw	s2,356(sp)
     b60:	17312023          	sw	s3,352(sp)
     b64:	15412e23          	sw	s4,348(sp)
     b68:	15512c23          	sw	s5,344(sp)
     b6c:	15612a23          	sw	s6,340(sp)
     b70:	15712823          	sw	s7,336(sp)
     b74:	15812623          	sw	s8,332(sp)
     b78:	00050b13          	mv	s6,a0
     b7c:	00058a93          	mv	s5,a1
     b80:	00060a13          	mv	s4,a2
     b84:	00068913          	mv	s2,a3
     b88:	00070493          	mv	s1,a4
     b8c:	00078993          	mv	s3,a5
     b90:	00004837          	lui	a6,0x4
     b94:	53880813          	addi	a6,a6,1336 # 4538 <T19_end+0x68>
     b98:	00080067          	jr	a6
     b9c:	15912423          	sw	s9,328(sp)

00000ba0 <T0_start>:
     ba0:	b00027f3          	csrr	a5,mcycle
     ba4:	00078c93          	mv	s9,a5
     ba8:	00492683          	lw	a3,4(s2)
     bac:	00000593          	li	a1,0
     bb0:	2406c463          	bltz	a3,df8 <T0_start+0x258>
     bb4:	44068a63          	beqz	a3,1008 <T0_end+0x60>
     bb8:	000207b7          	lui	a5,0x20
     bbc:	44d7d263          	bge	a5,a3,1000 <T0_end+0x58>
     bc0:	00000b93          	li	s7,0
     bc4:	4016d693          	srai	a3,a3,0x1
     bc8:	001b8713          	addi	a4,s7,1
     bcc:	00070b93          	mv	s7,a4
     bd0:	fed7cae3          	blt	a5,a3,bc4 <T0_start+0x24>
     bd4:	ffff07b7          	lui	a5,0xffff0
     bd8:	00f687b3          	add	a5,a3,a5
     bdc:	00078c13          	mv	s8,a5
     be0:	41f7d793          	srai	a5,a5,0x1f
     be4:	010c5593          	srli	a1,s8,0x10
     be8:	01079793          	slli	a5,a5,0x10
     bec:	00010737          	lui	a4,0x10
     bf0:	00e68633          	add	a2,a3,a4
     bf4:	41f65693          	srai	a3,a2,0x1f
     bf8:	010c1513          	slli	a0,s8,0x10
     bfc:	00f585b3          	add	a1,a1,a5
     c00:	5ec080ef          	jal	91ec <__divdi3>
     c04:	41f55613          	srai	a2,a0,0x1f
     c08:	02a607b3          	mul	a5,a2,a0
     c0c:	02a506b3          	mul	a3,a0,a0
     c10:	02a53733          	mulhu	a4,a0,a0
     c14:	20e7a7b3          	sh1add	a5,a5,a4
     c18:	01079793          	slli	a5,a5,0x10
     c1c:	0106d693          	srli	a3,a3,0x10
     c20:	00d786b3          	add	a3,a5,a3
     c24:	41f6d313          	srai	t1,a3,0x1f
     c28:	02d307b3          	mul	a5,t1,a3
     c2c:	02d68733          	mul	a4,a3,a3
     c30:	02d6b5b3          	mulhu	a1,a3,a3
     c34:	20b7a7b3          	sh1add	a5,a5,a1
     c38:	01079793          	slli	a5,a5,0x10
     c3c:	01075713          	srli	a4,a4,0x10
     c40:	00e78733          	add	a4,a5,a4
     c44:	41f75813          	srai	a6,a4,0x1f
     c48:	010b9793          	slli	a5,s7,0x10
     c4c:	41f7d893          	srai	a7,a5,0x1f
     c50:	0000be37          	lui	t3,0xb
     c54:	172e0e13          	addi	t3,t3,370 # b172 <__power_manager_start+0x172>
     c58:	03c888b3          	mul	a7,a7,t3
     c5c:	03c785b3          	mul	a1,a5,t3
     c60:	03c7b7b3          	mulhu	a5,a5,t3
     c64:	00f887b3          	add	a5,a7,a5
     c68:	01079793          	slli	a5,a5,0x10
     c6c:	0105d593          	srli	a1,a1,0x10
     c70:	00b785b3          	add	a1,a5,a1
     c74:	00bc05b3          	add	a1,s8,a1
     c78:	000028b7          	lui	a7,0x2
     c7c:	5e288893          	addi	a7,a7,1506 # 25e2 <T7_start+0x6e>
     c80:	03180e33          	mul	t3,a6,a7
     c84:	031707b3          	mul	a5,a4,a7
     c88:	031738b3          	mulhu	a7,a4,a7
     c8c:	011e08b3          	add	a7,t3,a7
     c90:	01089893          	slli	a7,a7,0x10
     c94:	0107d793          	srli	a5,a5,0x10
     c98:	00f887b3          	add	a5,a7,a5
     c9c:	000038b7          	lui	a7,0x3
     ca0:	e8d88893          	addi	a7,a7,-371 # 2e8d <T8_end+0x79>
     ca4:	011787b3          	add	a5,a5,a7
     ca8:	41f7de13          	srai	t3,a5,0x1f
     cac:	02ee0e33          	mul	t3,t3,a4
     cb0:	02f808b3          	mul	a7,a6,a5
     cb4:	011e0e33          	add	t3,t3,a7
     cb8:	02e788b3          	mul	a7,a5,a4
     cbc:	02e7b7b3          	mulhu	a5,a5,a4
     cc0:	00fe07b3          	add	a5,t3,a5
     cc4:	01079793          	slli	a5,a5,0x10
     cc8:	0108d893          	srli	a7,a7,0x10
     ccc:	011788b3          	add	a7,a5,a7
     cd0:	000057b7          	lui	a5,0x5
     cd4:	92578793          	addi	a5,a5,-1755 # 4925 <handler_irq_fast_timer_2+0x5d>
     cd8:	00f888b3          	add	a7,a7,a5
     cdc:	41f8de13          	srai	t3,a7,0x1f
     ce0:	02ee0e33          	mul	t3,t3,a4
     ce4:	031807b3          	mul	a5,a6,a7
     ce8:	00fe0e33          	add	t3,t3,a5
     cec:	02e887b3          	mul	a5,a7,a4
     cf0:	02e8b8b3          	mulhu	a7,a7,a4
     cf4:	011e08b3          	add	a7,t3,a7
     cf8:	01089893          	slli	a7,a7,0x10
     cfc:	0107d793          	srli	a5,a5,0x10
     d00:	00f887b3          	add	a5,a7,a5
     d04:	0000b8b7          	lui	a7,0xb
     d08:	aab88893          	addi	a7,a7,-1365 # aaab <main+0x103>
     d0c:	011787b3          	add	a5,a5,a7
     d10:	41f7d893          	srai	a7,a5,0x1f
     d14:	02d888b3          	mul	a7,a7,a3
     d18:	02f30333          	mul	t1,t1,a5
     d1c:	00688333          	add	t1,a7,t1
     d20:	02d788b3          	mul	a7,a5,a3
     d24:	02d7b7b3          	mulhu	a5,a5,a3
     d28:	00f307b3          	add	a5,t1,a5
     d2c:	01079793          	slli	a5,a5,0x10
     d30:	0108d893          	srli	a7,a7,0x10
     d34:	011788b3          	add	a7,a5,a7
     d38:	000027b7          	lui	a5,0x2
     d3c:	73478793          	addi	a5,a5,1844 # 2734 <T7_start+0x1c0>
     d40:	02f80333          	mul	t1,a6,a5
     d44:	02f706b3          	mul	a3,a4,a5
     d48:	02f737b3          	mulhu	a5,a4,a5
     d4c:	00f307b3          	add	a5,t1,a5
     d50:	01079793          	slli	a5,a5,0x10
     d54:	0106d693          	srli	a3,a3,0x10
     d58:	00d786b3          	add	a3,a5,a3
     d5c:	000047b7          	lui	a5,0x4
     d60:	8e478793          	addi	a5,a5,-1820 # 38e4 <T13_end+0xb8>
     d64:	00f686b3          	add	a3,a3,a5
     d68:	41f6d313          	srai	t1,a3,0x1f
     d6c:	02e30333          	mul	t1,t1,a4
     d70:	02d807b3          	mul	a5,a6,a3
     d74:	00f30333          	add	t1,t1,a5
     d78:	02e687b3          	mul	a5,a3,a4
     d7c:	02e6b6b3          	mulhu	a3,a3,a4
     d80:	00d306b3          	add	a3,t1,a3
     d84:	01069693          	slli	a3,a3,0x10
     d88:	0107d793          	srli	a5,a5,0x10
     d8c:	00f687b3          	add	a5,a3,a5
     d90:	000066b7          	lui	a3,0x6
     d94:	66668693          	addi	a3,a3,1638 # 6666 <__swsetup_r+0xc6>
     d98:	00d787b3          	add	a5,a5,a3
     d9c:	41f7d693          	srai	a3,a5,0x1f
     da0:	02e686b3          	mul	a3,a3,a4
     da4:	02f80833          	mul	a6,a6,a5
     da8:	010686b3          	add	a3,a3,a6
     dac:	02e78833          	mul	a6,a5,a4
     db0:	02e7b7b3          	mulhu	a5,a5,a4
     db4:	00f687b3          	add	a5,a3,a5
     db8:	01079793          	slli	a5,a5,0x10
     dbc:	01085713          	srli	a4,a6,0x10
     dc0:	00e78733          	add	a4,a5,a4
     dc4:	00e888b3          	add	a7,a7,a4
     dc8:	411c07b3          	sub	a5,s8,a7
     dcc:	41f7d713          	srai	a4,a5,0x1f
     dd0:	02a70733          	mul	a4,a4,a0
     dd4:	02f60633          	mul	a2,a2,a5
     dd8:	00c70733          	add	a4,a4,a2
     ddc:	02a786b3          	mul	a3,a5,a0
     de0:	02a7b7b3          	mulhu	a5,a5,a0
     de4:	00f707b3          	add	a5,a4,a5
     de8:	01079793          	slli	a5,a5,0x10
     dec:	0106d713          	srli	a4,a3,0x10
     df0:	00e78733          	add	a4,a5,a4
     df4:	40e585b3          	sub	a1,a1,a4
     df8:	02b12223          	sw	a1,36(sp)
     dfc:	02012423          	sw	zero,40(sp)
     e00:	004a2783          	lw	a5,4(s4)
     e04:	00010737          	lui	a4,0x10
     e08:	18078e63          	beqz	a5,fa4 <T0_start+0x404>
     e0c:	40f00633          	neg	a2,a5
     e10:	0ac7e633          	max	a2,a5,a2
     e14:	41f65693          	srai	a3,a2,0x1f
     e18:	000175b7          	lui	a1,0x17
     e1c:	15458593          	addi	a1,a1,340 # 17154 <heap.cpp.6b15d6f6+0x5003>
     e20:	02b686b3          	mul	a3,a3,a1
     e24:	02b60733          	mul	a4,a2,a1
     e28:	02b63633          	mulhu	a2,a2,a1
     e2c:	00c686b3          	add	a3,a3,a2
     e30:	01069693          	slli	a3,a3,0x10
     e34:	01075713          	srli	a4,a4,0x10
     e38:	00e68733          	add	a4,a3,a4
     e3c:	000086b7          	lui	a3,0x8
     e40:	00d70733          	add	a4,a4,a3
     e44:	ffff06b7          	lui	a3,0xffff0
     e48:	00d77733          	and	a4,a4,a3
     e4c:	00070b93          	mv	s7,a4
     e50:	1c07c063          	bltz	a5,1010 <T0_end+0x68>
     e54:	41fbd713          	srai	a4,s7,0x1f
     e58:	0000b6b7          	lui	a3,0xb
     e5c:	17268693          	addi	a3,a3,370 # b172 <__power_manager_start+0x172>
     e60:	02d70733          	mul	a4,a4,a3
     e64:	02db8633          	mul	a2,s7,a3
     e68:	02dbb6b3          	mulhu	a3,s7,a3
     e6c:	00d70733          	add	a4,a4,a3
     e70:	01071713          	slli	a4,a4,0x10
     e74:	01065693          	srli	a3,a2,0x10
     e78:	00d706b3          	add	a3,a4,a3
     e7c:	40d787b3          	sub	a5,a5,a3
     e80:	41f7d713          	srai	a4,a5,0x1f
     e84:	02f70733          	mul	a4,a4,a5
     e88:	02f78633          	mul	a2,a5,a5
     e8c:	02f7b6b3          	mulhu	a3,a5,a5
     e90:	20d72733          	sh1add	a4,a4,a3
     e94:	01071713          	slli	a4,a4,0x10
     e98:	01065613          	srli	a2,a2,0x10
     e9c:	00c70633          	add	a2,a4,a2
     ea0:	41f65513          	srai	a0,a2,0x1f
     ea4:	01e65713          	srli	a4,a2,0x1e
     ea8:	20e54733          	sh2add	a4,a0,a4
     eac:	00261693          	slli	a3,a2,0x2
     eb0:	01071713          	slli	a4,a4,0x10
     eb4:	0106d693          	srli	a3,a3,0x10
     eb8:	00d706b3          	add	a3,a4,a3
     ebc:	f4a68693          	addi	a3,a3,-182
     ec0:	41f6d593          	srai	a1,a3,0x1f
     ec4:	02c585b3          	mul	a1,a1,a2
     ec8:	02d50733          	mul	a4,a0,a3
     ecc:	00e585b3          	add	a1,a1,a4
     ed0:	02c68733          	mul	a4,a3,a2
     ed4:	02c6b6b3          	mulhu	a3,a3,a2
     ed8:	00d586b3          	add	a3,a1,a3
     edc:	01069693          	slli	a3,a3,0x10
     ee0:	01075713          	srli	a4,a4,0x10
     ee4:	00e68733          	add	a4,a3,a4
     ee8:	000036b7          	lui	a3,0x3
     eec:	aab68693          	addi	a3,a3,-1365 # 2aab <T7_end+0x137>
     ef0:	00d70733          	add	a4,a4,a3
     ef4:	41f75693          	srai	a3,a4,0x1f
     ef8:	02c686b3          	mul	a3,a3,a2
     efc:	02e50533          	mul	a0,a0,a4
     f00:	00a686b3          	add	a3,a3,a0
     f04:	02c705b3          	mul	a1,a4,a2
     f08:	02c73733          	mulhu	a4,a4,a2
     f0c:	00e68733          	add	a4,a3,a4
     f10:	01071713          	slli	a4,a4,0x10
     f14:	0105d693          	srli	a3,a1,0x10
     f18:	00d706b3          	add	a3,a4,a3
     f1c:	00020737          	lui	a4,0x20
     f20:	00e686b3          	add	a3,a3,a4
     f24:	40f68633          	sub	a2,a3,a5
     f28:	02f68c63          	beq	a3,a5,f60 <T0_start+0x3c0>
     f2c:	00f7d713          	srli	a4,a5,0xf
     f30:	01179793          	slli	a5,a5,0x11
     f34:	01071713          	slli	a4,a4,0x10
     f38:	0107d793          	srli	a5,a5,0x10
     f3c:	00f707b3          	add	a5,a4,a5
     f40:	41f7d713          	srai	a4,a5,0x1f
     f44:	0107d593          	srli	a1,a5,0x10
     f48:	01071713          	slli	a4,a4,0x10
     f4c:	41f65693          	srai	a3,a2,0x1f
     f50:	01079513          	slli	a0,a5,0x10
     f54:	00e585b3          	add	a1,a1,a4
     f58:	294080ef          	jal	91ec <__divdi3>
     f5c:	00050613          	mv	a2,a0
     f60:	000107b7          	lui	a5,0x10
     f64:	00f606b3          	add	a3,a2,a5
     f68:	0a0bca63          	bltz	s7,101c <T0_end+0x74>
     f6c:	410bd713          	srai	a4,s7,0x10
     f70:	000107b7          	lui	a5,0x10
     f74:	00e797b3          	sll	a5,a5,a4
     f78:	41f7d713          	srai	a4,a5,0x1f
     f7c:	41f6d613          	srai	a2,a3,0x1f
     f80:	02d70733          	mul	a4,a4,a3
     f84:	02f60633          	mul	a2,a2,a5
     f88:	00c70733          	add	a4,a4,a2
     f8c:	02d78633          	mul	a2,a5,a3
     f90:	02d7b7b3          	mulhu	a5,a5,a3
     f94:	00f70733          	add	a4,a4,a5
     f98:	01071713          	slli	a4,a4,0x10
     f9c:	01065793          	srli	a5,a2,0x10
     fa0:	00f70733          	add	a4,a4,a5
     fa4:	02e12623          	sw	a4,44(sp)

00000fa8 <T0_end>:
     fa8:	b00027f3          	csrr	a5,mcycle
     fac:	419787b3          	sub	a5,a5,s9
     fb0:	00f9a023          	sw	a5,0(s3)
     fb4:	02412683          	lw	a3,36(sp)
     fb8:	02812703          	lw	a4,40(sp)
     fbc:	00100793          	li	a5,1
     fc0:	00d75663          	bge	a4,a3,fcc <T0_end+0x24>
     fc4:	00068713          	mv	a4,a3
     fc8:	00000793          	li	a5,0
     fcc:	02c12683          	lw	a3,44(sp)
     fd0:	00e6c463          	blt	a3,a4,fd8 <T0_end+0x30>
     fd4:	00200793          	li	a5,2
     fd8:	00020737          	lui	a4,0x20
     fdc:	000206b7          	lui	a3,0x20
     fe0:	1b468693          	addi	a3,a3,436 # 201b4 <next.23>
     fe4:	20d7c7b3          	sh2add	a5,a5,a3
     fe8:	0007a783          	lw	a5,0(a5) # 10000 <syscalls.c.42d7056b+0xb1c>
     fec:	14070713          	addi	a4,a4,320 # 20140 <jump_table.24>
     ff0:	20e7c7b3          	sh2add	a5,a5,a4
     ff4:	0007a803          	lw	a6,0(a5)
     ff8:	14812c83          	lw	s9,328(sp)
     ffc:	b9dff06f          	j	b98 <inferenceTPG+0x48>
    1000:	00000b93          	li	s7,0
    1004:	bd1ff06f          	j	bd4 <T0_start+0x34>
    1008:	fff00593          	li	a1,-1
    100c:	dedff06f          	j	df8 <T0_start+0x258>
    1010:	40e00733          	neg	a4,a4
    1014:	00070b93          	mv	s7,a4
    1018:	e3dff06f          	j	e54 <T0_start+0x2b4>
    101c:	41700733          	neg	a4,s7
    1020:	41075713          	srai	a4,a4,0x10
    1024:	000107b7          	lui	a5,0x10
    1028:	40e7d7b3          	sra	a5,a5,a4
    102c:	f4dff06f          	j	f78 <T0_start+0x3d8>

00001030 <T1_start>:
    1030:	b0002773          	csrr	a4,mcycle
    1034:	00012223          	sw	zero,4(sp)
    1038:	004aa783          	lw	a5,4(s5)
    103c:	00892683          	lw	a3,8(s2)
    1040:	0ad7e7b3          	max	a5,a5,a3
    1044:	00f12423          	sw	a5,8(sp)

00001048 <T1_end>:
    1048:	b00027f3          	csrr	a5,mcycle
    104c:	40e787b3          	sub	a5,a5,a4
    1050:	00f9a223          	sw	a5,4(s3)
    1054:	00020737          	lui	a4,0x20
    1058:	00412783          	lw	a5,4(sp)
    105c:	00812603          	lw	a2,8(sp)
    1060:	00f627b3          	slt	a5,a2,a5
    1064:	0017b793          	seqz	a5,a5
    1068:	94c18693          	addi	a3,gp,-1716 # 21ec0 <next.22>
    106c:	20d7c7b3          	sh2add	a5,a5,a3
    1070:	0007a783          	lw	a5,0(a5) # 10000 <syscalls.c.42d7056b+0xb1c>
    1074:	14070713          	addi	a4,a4,320 # 20140 <jump_table.24>
    1078:	20e7c7b3          	sh2add	a5,a5,a4
    107c:	0007a803          	lw	a6,0(a5)
    1080:	b19ff06f          	j	b98 <inferenceTPG+0x48>

00001084 <T2_start>:
    1084:	b00027f3          	csrr	a5,mcycle
    1088:	00078b93          	mv	s7,a5
    108c:	0144a603          	lw	a2,20(s1)
    1090:	02060463          	beqz	a2,10b8 <T2_start+0x34>
    1094:	00492503          	lw	a0,4(s2)
    1098:	41f55793          	srai	a5,a0,0x1f
    109c:	01055593          	srli	a1,a0,0x10
    10a0:	01079793          	slli	a5,a5,0x10
    10a4:	41f65693          	srai	a3,a2,0x1f
    10a8:	01051513          	slli	a0,a0,0x10
    10ac:	00f585b3          	add	a1,a1,a5
    10b0:	13c080ef          	jal	91ec <__divdi3>
    10b4:	00050613          	mv	a2,a0
    10b8:	02c12823          	sw	a2,48(sp)
    10bc:	004aa783          	lw	a5,4(s5)
    10c0:	00892703          	lw	a4,8(s2)
    10c4:	0ae7e7b3          	max	a5,a5,a4
    10c8:	02f12a23          	sw	a5,52(sp)
    10cc:	02012c23          	sw	zero,56(sp)

000010d0 <T2_end>:
    10d0:	b00027f3          	csrr	a5,mcycle
    10d4:	417787b3          	sub	a5,a5,s7
    10d8:	00f9a423          	sw	a5,8(s3)
    10dc:	03012683          	lw	a3,48(sp)
    10e0:	03412703          	lw	a4,52(sp)
    10e4:	00100793          	li	a5,1
    10e8:	00d75663          	bge	a4,a3,10f4 <T2_end+0x24>
    10ec:	00068713          	mv	a4,a3
    10f0:	00000793          	li	a5,0
    10f4:	03812683          	lw	a3,56(sp)
    10f8:	00e6c463          	blt	a3,a4,1100 <T2_end+0x30>
    10fc:	00200793          	li	a5,2
    1100:	00020737          	lui	a4,0x20
    1104:	000206b7          	lui	a3,0x20
    1108:	13468693          	addi	a3,a3,308 # 20134 <next.21>
    110c:	20d7c7b3          	sh2add	a5,a5,a3
    1110:	0007a783          	lw	a5,0(a5)
    1114:	14070713          	addi	a4,a4,320 # 20140 <jump_table.24>
    1118:	20e7c7b3          	sh2add	a5,a5,a4
    111c:	0007a803          	lw	a6,0(a5)
    1120:	a79ff06f          	j	b98 <inferenceTPG+0x48>

00001124 <T3_start>:
    1124:	b00026f3          	csrr	a3,mcycle
    1128:	004aa783          	lw	a5,4(s5)
    112c:	00f12623          	sw	a5,12(sp)
    1130:	0a07e7b3          	max	a5,a5,zero
    1134:	008aa703          	lw	a4,8(s5)
    1138:	40f707b3          	sub	a5,a4,a5
    113c:	00f12823          	sw	a5,16(sp)

00001140 <T3_end>:
    1140:	b00027f3          	csrr	a5,mcycle
    1144:	40d787b3          	sub	a5,a5,a3
    1148:	00f9a623          	sw	a5,12(s3)
    114c:	00020737          	lui	a4,0x20
    1150:	00c12783          	lw	a5,12(sp)
    1154:	01012603          	lw	a2,16(sp)
    1158:	00f627b3          	slt	a5,a2,a5
    115c:	0017b793          	seqz	a5,a5
    1160:	94418693          	addi	a3,gp,-1724 # 21eb8 <next.20>
    1164:	20d7c7b3          	sh2add	a5,a5,a3
    1168:	0007a783          	lw	a5,0(a5)
    116c:	14070713          	addi	a4,a4,320 # 20140 <jump_table.24>
    1170:	20e7c7b3          	sh2add	a5,a5,a4
    1174:	0007a803          	lw	a6,0(a5)
    1178:	a21ff06f          	j	b98 <inferenceTPG+0x48>
    117c:	15912423          	sw	s9,328(sp)
    1180:	15a12223          	sw	s10,324(sp)
    1184:	15b12023          	sw	s11,320(sp)

00001188 <T4_start>:
    1188:	b00027f3          	csrr	a5,mcycle
    118c:	00078d93          	mv	s11,a5
    1190:	00492783          	lw	a5,4(s2)
    1194:	00078c13          	mv	s8,a5
    1198:	000107b7          	lui	a5,0x10
    119c:	180c0e63          	beqz	s8,1338 <T4_start+0x1b0>
    11a0:	418006b3          	neg	a3,s8
    11a4:	0adc66b3          	max	a3,s8,a3
    11a8:	41f6d713          	srai	a4,a3,0x1f
    11ac:	00017637          	lui	a2,0x17
    11b0:	15460613          	addi	a2,a2,340 # 17154 <heap.cpp.6b15d6f6+0x5003>
    11b4:	02c70733          	mul	a4,a4,a2
    11b8:	02c687b3          	mul	a5,a3,a2
    11bc:	02c6b6b3          	mulhu	a3,a3,a2
    11c0:	00d70733          	add	a4,a4,a3
    11c4:	01071713          	slli	a4,a4,0x10
    11c8:	0107d793          	srli	a5,a5,0x10
    11cc:	00f707b3          	add	a5,a4,a5
    11d0:	00008737          	lui	a4,0x8
    11d4:	00e787b3          	add	a5,a5,a4
    11d8:	ffff0737          	lui	a4,0xffff0
    11dc:	00e7f7b3          	and	a5,a5,a4
    11e0:	00078b93          	mv	s7,a5
    11e4:	5c0c4463          	bltz	s8,17ac <T4_end+0x24>
    11e8:	41fbd713          	srai	a4,s7,0x1f
    11ec:	0000b6b7          	lui	a3,0xb
    11f0:	17268693          	addi	a3,a3,370 # b172 <__power_manager_start+0x172>
    11f4:	02d70733          	mul	a4,a4,a3
    11f8:	02db87b3          	mul	a5,s7,a3
    11fc:	02dbb6b3          	mulhu	a3,s7,a3
    1200:	00d70733          	add	a4,a4,a3
    1204:	01071713          	slli	a4,a4,0x10
    1208:	0107d793          	srli	a5,a5,0x10
    120c:	00f707b3          	add	a5,a4,a5
    1210:	40fc07b3          	sub	a5,s8,a5
    1214:	41f7d713          	srai	a4,a5,0x1f
    1218:	02f70733          	mul	a4,a4,a5
    121c:	02f78633          	mul	a2,a5,a5
    1220:	02f7b6b3          	mulhu	a3,a5,a5
    1224:	20d72733          	sh1add	a4,a4,a3
    1228:	01071713          	slli	a4,a4,0x10
    122c:	01065613          	srli	a2,a2,0x10
    1230:	00c70633          	add	a2,a4,a2
    1234:	41f65513          	srai	a0,a2,0x1f
    1238:	01e65713          	srli	a4,a2,0x1e
    123c:	20e54733          	sh2add	a4,a0,a4
    1240:	00261693          	slli	a3,a2,0x2
    1244:	01071713          	slli	a4,a4,0x10
    1248:	0106d693          	srli	a3,a3,0x10
    124c:	00d706b3          	add	a3,a4,a3
    1250:	f4a68693          	addi	a3,a3,-182
    1254:	41f6d593          	srai	a1,a3,0x1f
    1258:	02c585b3          	mul	a1,a1,a2
    125c:	02d50733          	mul	a4,a0,a3
    1260:	00e585b3          	add	a1,a1,a4
    1264:	02c68733          	mul	a4,a3,a2
    1268:	02c6b6b3          	mulhu	a3,a3,a2
    126c:	00d586b3          	add	a3,a1,a3
    1270:	01069693          	slli	a3,a3,0x10
    1274:	01075713          	srli	a4,a4,0x10
    1278:	00e68733          	add	a4,a3,a4
    127c:	000036b7          	lui	a3,0x3
    1280:	aab68693          	addi	a3,a3,-1365 # 2aab <T7_end+0x137>
    1284:	00d70733          	add	a4,a4,a3
    1288:	41f75693          	srai	a3,a4,0x1f
    128c:	02c686b3          	mul	a3,a3,a2
    1290:	02e50533          	mul	a0,a0,a4
    1294:	00a686b3          	add	a3,a3,a0
    1298:	02c705b3          	mul	a1,a4,a2
    129c:	02c73733          	mulhu	a4,a4,a2
    12a0:	00e68733          	add	a4,a3,a4
    12a4:	01071713          	slli	a4,a4,0x10
    12a8:	0105d693          	srli	a3,a1,0x10
    12ac:	00d706b3          	add	a3,a4,a3
    12b0:	00020737          	lui	a4,0x20
    12b4:	00e686b3          	add	a3,a3,a4
    12b8:	40f68633          	sub	a2,a3,a5
    12bc:	02f68c63          	beq	a3,a5,12f4 <T4_start+0x16c>
    12c0:	00f7d713          	srli	a4,a5,0xf
    12c4:	01179793          	slli	a5,a5,0x11
    12c8:	01071713          	slli	a4,a4,0x10
    12cc:	0107d793          	srli	a5,a5,0x10
    12d0:	00f707b3          	add	a5,a4,a5
    12d4:	41f7d713          	srai	a4,a5,0x1f
    12d8:	0107d593          	srli	a1,a5,0x10
    12dc:	01071713          	slli	a4,a4,0x10
    12e0:	41f65693          	srai	a3,a2,0x1f
    12e4:	01079513          	slli	a0,a5,0x10
    12e8:	00e585b3          	add	a1,a1,a4
    12ec:	701070ef          	jal	91ec <__divdi3>
    12f0:	00050613          	mv	a2,a0
    12f4:	000107b7          	lui	a5,0x10
    12f8:	00f606b3          	add	a3,a2,a5
    12fc:	4a0bce63          	bltz	s7,17b8 <T4_end+0x30>
    1300:	410bd793          	srai	a5,s7,0x10
    1304:	00010737          	lui	a4,0x10
    1308:	00f71733          	sll	a4,a4,a5
    130c:	41f75793          	srai	a5,a4,0x1f
    1310:	41f6d613          	srai	a2,a3,0x1f
    1314:	02d787b3          	mul	a5,a5,a3
    1318:	02e60633          	mul	a2,a2,a4
    131c:	00c787b3          	add	a5,a5,a2
    1320:	02d70633          	mul	a2,a4,a3
    1324:	02d73733          	mulhu	a4,a4,a3
    1328:	00e787b3          	add	a5,a5,a4
    132c:	01079793          	slli	a5,a5,0x10
    1330:	01065713          	srli	a4,a2,0x10
    1334:	00e787b3          	add	a5,a5,a4
    1338:	0af12e23          	sw	a5,188(sp)
    133c:	004aa783          	lw	a5,4(s5)
    1340:	00078d13          	mv	s10,a5
    1344:	0a07e733          	max	a4,a5,zero
    1348:	008aa783          	lw	a5,8(s5)
    134c:	40e787b3          	sub	a5,a5,a4
    1350:	0cf12023          	sw	a5,192(sp)
    1354:	00892783          	lw	a5,8(s2)
    1358:	00078b93          	mv	s7,a5
    135c:	000107b7          	lui	a5,0x10
    1360:	00078c93          	mv	s9,a5
    1364:	1c0b8263          	beqz	s7,1528 <T4_start+0x3a0>
    1368:	417006b3          	neg	a3,s7
    136c:	0adbe6b3          	max	a3,s7,a3
    1370:	41f6d713          	srai	a4,a3,0x1f
    1374:	00017637          	lui	a2,0x17
    1378:	15460613          	addi	a2,a2,340 # 17154 <heap.cpp.6b15d6f6+0x5003>
    137c:	02c70733          	mul	a4,a4,a2
    1380:	02c687b3          	mul	a5,a3,a2
    1384:	02c6b6b3          	mulhu	a3,a3,a2
    1388:	00d70733          	add	a4,a4,a3
    138c:	01071713          	slli	a4,a4,0x10
    1390:	0107d793          	srli	a5,a5,0x10
    1394:	00f707b3          	add	a5,a4,a5
    1398:	00008737          	lui	a4,0x8
    139c:	00e787b3          	add	a5,a5,a4
    13a0:	ffff0737          	lui	a4,0xffff0
    13a4:	00e7f7b3          	and	a5,a5,a4
    13a8:	00078c93          	mv	s9,a5
    13ac:	420bc063          	bltz	s7,17cc <T4_end+0x44>
    13b0:	41fcd713          	srai	a4,s9,0x1f
    13b4:	0000b6b7          	lui	a3,0xb
    13b8:	17268693          	addi	a3,a3,370 # b172 <__power_manager_start+0x172>
    13bc:	02d70733          	mul	a4,a4,a3
    13c0:	02dc87b3          	mul	a5,s9,a3
    13c4:	02dcb6b3          	mulhu	a3,s9,a3
    13c8:	00d70733          	add	a4,a4,a3
    13cc:	01071713          	slli	a4,a4,0x10
    13d0:	0107d793          	srli	a5,a5,0x10
    13d4:	00f707b3          	add	a5,a4,a5
    13d8:	40fb87b3          	sub	a5,s7,a5
    13dc:	41f7d713          	srai	a4,a5,0x1f
    13e0:	02f70733          	mul	a4,a4,a5
    13e4:	02f78633          	mul	a2,a5,a5
    13e8:	02f7b6b3          	mulhu	a3,a5,a5
    13ec:	20d72733          	sh1add	a4,a4,a3
    13f0:	01071713          	slli	a4,a4,0x10
    13f4:	01065613          	srli	a2,a2,0x10
    13f8:	00c70633          	add	a2,a4,a2
    13fc:	41f65513          	srai	a0,a2,0x1f
    1400:	01e65713          	srli	a4,a2,0x1e
    1404:	20e54733          	sh2add	a4,a0,a4
    1408:	00261693          	slli	a3,a2,0x2
    140c:	01071713          	slli	a4,a4,0x10
    1410:	0106d693          	srli	a3,a3,0x10
    1414:	00d706b3          	add	a3,a4,a3
    1418:	f4a68693          	addi	a3,a3,-182
    141c:	41f6d593          	srai	a1,a3,0x1f
    1420:	02c585b3          	mul	a1,a1,a2
    1424:	02d50733          	mul	a4,a0,a3
    1428:	00e585b3          	add	a1,a1,a4
    142c:	02c68733          	mul	a4,a3,a2
    1430:	02c6b6b3          	mulhu	a3,a3,a2
    1434:	00d586b3          	add	a3,a1,a3
    1438:	01069693          	slli	a3,a3,0x10
    143c:	01075713          	srli	a4,a4,0x10
    1440:	00e68733          	add	a4,a3,a4
    1444:	000036b7          	lui	a3,0x3
    1448:	aab68693          	addi	a3,a3,-1365 # 2aab <T7_end+0x137>
    144c:	00d70733          	add	a4,a4,a3
    1450:	41f75693          	srai	a3,a4,0x1f
    1454:	02c686b3          	mul	a3,a3,a2
    1458:	02e50533          	mul	a0,a0,a4
    145c:	00a686b3          	add	a3,a3,a0
    1460:	02c705b3          	mul	a1,a4,a2
    1464:	02c73733          	mulhu	a4,a4,a2
    1468:	00e68733          	add	a4,a3,a4
    146c:	01071713          	slli	a4,a4,0x10
    1470:	0105d693          	srli	a3,a1,0x10
    1474:	00d706b3          	add	a3,a4,a3
    1478:	00020737          	lui	a4,0x20
    147c:	00e686b3          	add	a3,a3,a4
    1480:	40f68633          	sub	a2,a3,a5
    1484:	02f68c63          	beq	a3,a5,14bc <T4_start+0x334>
    1488:	00f7d713          	srli	a4,a5,0xf
    148c:	01179793          	slli	a5,a5,0x11
    1490:	01071713          	slli	a4,a4,0x10
    1494:	0107d793          	srli	a5,a5,0x10
    1498:	00f707b3          	add	a5,a4,a5
    149c:	41f7d713          	srai	a4,a5,0x1f
    14a0:	0107d593          	srli	a1,a5,0x10
    14a4:	01071713          	slli	a4,a4,0x10
    14a8:	41f65693          	srai	a3,a2,0x1f
    14ac:	01079513          	slli	a0,a5,0x10
    14b0:	00e585b3          	add	a1,a1,a4
    14b4:	539070ef          	jal	91ec <__divdi3>
    14b8:	00050613          	mv	a2,a0
    14bc:	000107b7          	lui	a5,0x10
    14c0:	00f606b3          	add	a3,a2,a5
    14c4:	300cca63          	bltz	s9,17d8 <T4_end+0x50>
    14c8:	410cd793          	srai	a5,s9,0x10
    14cc:	00010737          	lui	a4,0x10
    14d0:	00f71733          	sll	a4,a4,a5
    14d4:	41f75793          	srai	a5,a4,0x1f
    14d8:	41f6d613          	srai	a2,a3,0x1f
    14dc:	02d787b3          	mul	a5,a5,a3
    14e0:	02e60633          	mul	a2,a2,a4
    14e4:	00c787b3          	add	a5,a5,a2
    14e8:	02d70633          	mul	a2,a4,a3
    14ec:	02d73733          	mulhu	a4,a4,a3
    14f0:	00e787b3          	add	a5,a5,a4
    14f4:	01079793          	slli	a5,a5,0x10
    14f8:	01065713          	srli	a4,a2,0x10
    14fc:	00e787b3          	add	a5,a5,a4
    1500:	00078c93          	mv	s9,a5
    1504:	41fd5793          	srai	a5,s10,0x1f
    1508:	010d5593          	srli	a1,s10,0x10
    150c:	01079793          	slli	a5,a5,0x10
    1510:	000b8613          	mv	a2,s7
    1514:	41fbd693          	srai	a3,s7,0x1f
    1518:	010d1513          	slli	a0,s10,0x10
    151c:	00f585b3          	add	a1,a1,a5
    1520:	4cd070ef          	jal	91ec <__divdi3>
    1524:	00050b93          	mv	s7,a0
    1528:	0d912223          	sw	s9,196(sp)
    152c:	0d712423          	sw	s7,200(sp)
    1530:	000a2683          	lw	a3,0(s4)
    1534:	418686b3          	sub	a3,a3,s8
    1538:	00000593          	li	a1,0
    153c:	2406c463          	bltz	a3,1784 <T4_start+0x5fc>
    1540:	2a068a63          	beqz	a3,17f4 <T4_end+0x6c>
    1544:	000207b7          	lui	a5,0x20
    1548:	2ad7d263          	bge	a5,a3,17ec <T4_end+0x64>
    154c:	00000b93          	li	s7,0
    1550:	4016d693          	srai	a3,a3,0x1
    1554:	001b8713          	addi	a4,s7,1
    1558:	00070b93          	mv	s7,a4
    155c:	fed7cae3          	blt	a5,a3,1550 <T4_start+0x3c8>
    1560:	ffff07b7          	lui	a5,0xffff0
    1564:	00f687b3          	add	a5,a3,a5
    1568:	00078c13          	mv	s8,a5
    156c:	41f7d793          	srai	a5,a5,0x1f
    1570:	010c5593          	srli	a1,s8,0x10
    1574:	01079793          	slli	a5,a5,0x10
    1578:	00010737          	lui	a4,0x10
    157c:	00e68633          	add	a2,a3,a4
    1580:	41f65693          	srai	a3,a2,0x1f
    1584:	010c1513          	slli	a0,s8,0x10
    1588:	00f585b3          	add	a1,a1,a5
    158c:	461070ef          	jal	91ec <__divdi3>
    1590:	41f55613          	srai	a2,a0,0x1f
    1594:	02a607b3          	mul	a5,a2,a0
    1598:	02a506b3          	mul	a3,a0,a0
    159c:	02a53733          	mulhu	a4,a0,a0
    15a0:	20e7a7b3          	sh1add	a5,a5,a4
    15a4:	01079793          	slli	a5,a5,0x10
    15a8:	0106d693          	srli	a3,a3,0x10
    15ac:	00d786b3          	add	a3,a5,a3
    15b0:	41f6d313          	srai	t1,a3,0x1f
    15b4:	02d307b3          	mul	a5,t1,a3
    15b8:	02d68733          	mul	a4,a3,a3
    15bc:	02d6b5b3          	mulhu	a1,a3,a3
    15c0:	20b7a7b3          	sh1add	a5,a5,a1
    15c4:	01079793          	slli	a5,a5,0x10
    15c8:	01075713          	srli	a4,a4,0x10
    15cc:	00e78733          	add	a4,a5,a4
    15d0:	41f75813          	srai	a6,a4,0x1f
    15d4:	010b9793          	slli	a5,s7,0x10
    15d8:	41f7d893          	srai	a7,a5,0x1f
    15dc:	0000be37          	lui	t3,0xb
    15e0:	172e0e13          	addi	t3,t3,370 # b172 <__power_manager_start+0x172>
    15e4:	03c888b3          	mul	a7,a7,t3
    15e8:	03c785b3          	mul	a1,a5,t3
    15ec:	03c7b7b3          	mulhu	a5,a5,t3
    15f0:	00f887b3          	add	a5,a7,a5
    15f4:	01079793          	slli	a5,a5,0x10
    15f8:	0105d593          	srli	a1,a1,0x10
    15fc:	00b785b3          	add	a1,a5,a1
    1600:	00bc05b3          	add	a1,s8,a1
    1604:	000028b7          	lui	a7,0x2
    1608:	5e288893          	addi	a7,a7,1506 # 25e2 <T7_start+0x6e>
    160c:	03180e33          	mul	t3,a6,a7
    1610:	031707b3          	mul	a5,a4,a7
    1614:	031738b3          	mulhu	a7,a4,a7
    1618:	011e08b3          	add	a7,t3,a7
    161c:	01089893          	slli	a7,a7,0x10
    1620:	0107d793          	srli	a5,a5,0x10
    1624:	00f887b3          	add	a5,a7,a5
    1628:	000038b7          	lui	a7,0x3
    162c:	e8d88893          	addi	a7,a7,-371 # 2e8d <T8_end+0x79>
    1630:	011787b3          	add	a5,a5,a7
    1634:	41f7de13          	srai	t3,a5,0x1f
    1638:	02ee0e33          	mul	t3,t3,a4
    163c:	02f808b3          	mul	a7,a6,a5
    1640:	011e0e33          	add	t3,t3,a7
    1644:	02e788b3          	mul	a7,a5,a4
    1648:	02e7b7b3          	mulhu	a5,a5,a4
    164c:	00fe07b3          	add	a5,t3,a5
    1650:	01079793          	slli	a5,a5,0x10
    1654:	0108d893          	srli	a7,a7,0x10
    1658:	011788b3          	add	a7,a5,a7
    165c:	000057b7          	lui	a5,0x5
    1660:	92578793          	addi	a5,a5,-1755 # 4925 <handler_irq_fast_timer_2+0x5d>
    1664:	00f888b3          	add	a7,a7,a5
    1668:	41f8de13          	srai	t3,a7,0x1f
    166c:	02ee0e33          	mul	t3,t3,a4
    1670:	031807b3          	mul	a5,a6,a7
    1674:	00fe0e33          	add	t3,t3,a5
    1678:	02e887b3          	mul	a5,a7,a4
    167c:	02e8b8b3          	mulhu	a7,a7,a4
    1680:	011e08b3          	add	a7,t3,a7
    1684:	01089893          	slli	a7,a7,0x10
    1688:	0107d793          	srli	a5,a5,0x10
    168c:	00f887b3          	add	a5,a7,a5
    1690:	0000b8b7          	lui	a7,0xb
    1694:	aab88893          	addi	a7,a7,-1365 # aaab <main+0x103>
    1698:	011787b3          	add	a5,a5,a7
    169c:	41f7d893          	srai	a7,a5,0x1f
    16a0:	02d888b3          	mul	a7,a7,a3
    16a4:	02f30333          	mul	t1,t1,a5
    16a8:	00688333          	add	t1,a7,t1
    16ac:	02d788b3          	mul	a7,a5,a3
    16b0:	02d7b7b3          	mulhu	a5,a5,a3
    16b4:	00f307b3          	add	a5,t1,a5
    16b8:	01079793          	slli	a5,a5,0x10
    16bc:	0108d893          	srli	a7,a7,0x10
    16c0:	011788b3          	add	a7,a5,a7
    16c4:	000027b7          	lui	a5,0x2
    16c8:	73478793          	addi	a5,a5,1844 # 2734 <T7_start+0x1c0>
    16cc:	02f80333          	mul	t1,a6,a5
    16d0:	02f706b3          	mul	a3,a4,a5
    16d4:	02f737b3          	mulhu	a5,a4,a5
    16d8:	00f307b3          	add	a5,t1,a5
    16dc:	01079793          	slli	a5,a5,0x10
    16e0:	0106d693          	srli	a3,a3,0x10
    16e4:	00d786b3          	add	a3,a5,a3
    16e8:	000047b7          	lui	a5,0x4
    16ec:	8e478793          	addi	a5,a5,-1820 # 38e4 <T13_end+0xb8>
    16f0:	00f686b3          	add	a3,a3,a5
    16f4:	41f6d313          	srai	t1,a3,0x1f
    16f8:	02e30333          	mul	t1,t1,a4
    16fc:	02d807b3          	mul	a5,a6,a3
    1700:	00f30333          	add	t1,t1,a5
    1704:	02e687b3          	mul	a5,a3,a4
    1708:	02e6b6b3          	mulhu	a3,a3,a4
    170c:	00d306b3          	add	a3,t1,a3
    1710:	01069693          	slli	a3,a3,0x10
    1714:	0107d793          	srli	a5,a5,0x10
    1718:	00f687b3          	add	a5,a3,a5
    171c:	000066b7          	lui	a3,0x6
    1720:	66668693          	addi	a3,a3,1638 # 6666 <__swsetup_r+0xc6>
    1724:	00d787b3          	add	a5,a5,a3
    1728:	41f7d693          	srai	a3,a5,0x1f
    172c:	02e686b3          	mul	a3,a3,a4
    1730:	02f80833          	mul	a6,a6,a5
    1734:	010686b3          	add	a3,a3,a6
    1738:	02e78833          	mul	a6,a5,a4
    173c:	02e7b7b3          	mulhu	a5,a5,a4
    1740:	00f687b3          	add	a5,a3,a5
    1744:	01079793          	slli	a5,a5,0x10
    1748:	01085713          	srli	a4,a6,0x10
    174c:	00e78733          	add	a4,a5,a4
    1750:	00e888b3          	add	a7,a7,a4
    1754:	411c07b3          	sub	a5,s8,a7
    1758:	41f7d713          	srai	a4,a5,0x1f
    175c:	02a70733          	mul	a4,a4,a0
    1760:	02f60633          	mul	a2,a2,a5
    1764:	00c70733          	add	a4,a4,a2
    1768:	02a786b3          	mul	a3,a5,a0
    176c:	02a7b7b3          	mulhu	a5,a5,a0
    1770:	00f707b3          	add	a5,a4,a5
    1774:	01079793          	slli	a5,a5,0x10
    1778:	0106d713          	srli	a4,a3,0x10
    177c:	00e78733          	add	a4,a5,a4
    1780:	40e585b3          	sub	a1,a1,a4
    1784:	0cb12623          	sw	a1,204(sp)

00001788 <T4_end>:
    1788:	b00027f3          	csrr	a5,mcycle
    178c:	41b787b3          	sub	a5,a5,s11
    1790:	00f9a823          	sw	a5,16(s3)
    1794:	0bc12603          	lw	a2,188(sp)
    1798:	0bc10713          	addi	a4,sp,188
    179c:	00000513          	li	a0,0
    17a0:	00100793          	li	a5,1
    17a4:	00500593          	li	a1,5
    17a8:	0600006f          	j	1808 <T4_end+0x80>
    17ac:	40f007b3          	neg	a5,a5
    17b0:	00078b93          	mv	s7,a5
    17b4:	a35ff06f          	j	11e8 <T4_start+0x60>
    17b8:	417007b3          	neg	a5,s7
    17bc:	4107d793          	srai	a5,a5,0x10
    17c0:	00010737          	lui	a4,0x10
    17c4:	40f75733          	sra	a4,a4,a5
    17c8:	b45ff06f          	j	130c <T4_start+0x184>
    17cc:	40f007b3          	neg	a5,a5
    17d0:	00078c93          	mv	s9,a5
    17d4:	bddff06f          	j	13b0 <T4_start+0x228>
    17d8:	419007b3          	neg	a5,s9
    17dc:	4107d793          	srai	a5,a5,0x10
    17e0:	00010737          	lui	a4,0x10
    17e4:	40f75733          	sra	a4,a4,a5
    17e8:	cedff06f          	j	14d4 <T4_start+0x34c>
    17ec:	00000b93          	li	s7,0
    17f0:	d71ff06f          	j	1560 <T4_start+0x3d8>
    17f4:	fff00593          	li	a1,-1
    17f8:	f8dff06f          	j	1784 <T4_start+0x5fc>
    17fc:	00178793          	addi	a5,a5,1
    1800:	00470713          	addi	a4,a4,4 # 10004 <syscalls.c.42d7056b+0xb20>
    1804:	00b78c63          	beq	a5,a1,181c <T4_end+0x94>
    1808:	00472683          	lw	a3,4(a4)
    180c:	fec6c8e3          	blt	a3,a2,17fc <T4_end+0x74>
    1810:	00068613          	mv	a2,a3
    1814:	00078513          	mv	a0,a5
    1818:	fe5ff06f          	j	17fc <T4_end+0x74>
    181c:	00020737          	lui	a4,0x20
    1820:	000207b7          	lui	a5,0x20
    1824:	12078793          	addi	a5,a5,288 # 20120 <next.19>
    1828:	20f54533          	sh2add	a0,a0,a5
    182c:	00052783          	lw	a5,0(a0)
    1830:	14070713          	addi	a4,a4,320 # 20140 <jump_table.24>
    1834:	20e7c7b3          	sh2add	a5,a5,a4
    1838:	0007a803          	lw	a6,0(a5)
    183c:	14812c83          	lw	s9,328(sp)
    1840:	14412d03          	lw	s10,324(sp)
    1844:	14012d83          	lw	s11,320(sp)
    1848:	b50ff06f          	j	b98 <inferenceTPG+0x48>
    184c:	15a12223          	sw	s10,324(sp)

00001850 <T5_start>:
    1850:	b00027f3          	csrr	a5,mcycle
    1854:	00078d13          	mv	s10,a5
    1858:	008a2603          	lw	a2,8(s4)
    185c:	517cd737          	lui	a4,0x517cd
    1860:	c8370713          	addi	a4,a4,-893 # 517ccc83 <_sp+0x517a2b43>
    1864:	02e61733          	mulh	a4,a2,a4
    1868:	41175713          	srai	a4,a4,0x11
    186c:	41f65793          	srai	a5,a2,0x1f
    1870:	40f70733          	sub	a4,a4,a5
    1874:	000657b7          	lui	a5,0x65
    1878:	87e78793          	addi	a5,a5,-1922 # 6487e <_sp+0x3a73e>
    187c:	02f707b3          	mul	a5,a4,a5
    1880:	40f60733          	sub	a4,a2,a5
    1884:	100740e3          	bltz	a4,2184 <T5_end+0x24>
    1888:	fffe77b7          	lui	a5,0xfffe7
    188c:	ddf78793          	addi	a5,a5,-545 # fffe6ddf <_sp+0xfffbcc9f>
    1890:	00f707b3          	add	a5,a4,a5
    1894:	000196b7          	lui	a3,0x19
    1898:	21e68693          	addi	a3,a3,542 # 1921e <heap.cpp.6b15d6f6+0x70cd>
    189c:	0ef6ece3          	bltu	a3,a5,2194 <T5_end+0x34>
    18a0:	000327b7          	lui	a5,0x32
    18a4:	43f78793          	addi	a5,a5,1087 # 3243f <_sp+0x82ff>
    18a8:	40e78733          	sub	a4,a5,a4
    18ac:	00100513          	li	a0,1
    18b0:	000196b7          	lui	a3,0x19
    18b4:	22068693          	addi	a3,a3,544 # 19220 <heap.cpp.6b15d6f6+0x70cf>
    18b8:	40c686b3          	sub	a3,a3,a2
    18bc:	517cd7b7          	lui	a5,0x517cd
    18c0:	c8378793          	addi	a5,a5,-893 # 517ccc83 <_sp+0x517a2b43>
    18c4:	02f697b3          	mulh	a5,a3,a5
    18c8:	4117d793          	srai	a5,a5,0x11
    18cc:	41f6d613          	srai	a2,a3,0x1f
    18d0:	40c787b3          	sub	a5,a5,a2
    18d4:	00065637          	lui	a2,0x65
    18d8:	87e60613          	addi	a2,a2,-1922 # 6487e <_sp+0x3a73e>
    18dc:	02c787b3          	mul	a5,a5,a2
    18e0:	40f687b3          	sub	a5,a3,a5
    18e4:	1007c0e3          	bltz	a5,21e4 <T5_end+0x84>
    18e8:	fffe76b7          	lui	a3,0xfffe7
    18ec:	ddf68693          	addi	a3,a3,-545 # fffe6ddf <_sp+0xfffbcc9f>
    18f0:	00d786b3          	add	a3,a5,a3
    18f4:	00019637          	lui	a2,0x19
    18f8:	21e60613          	addi	a2,a2,542 # 1921e <heap.cpp.6b15d6f6+0x70cd>
    18fc:	0ed668e3          	bltu	a2,a3,21ec <T5_end+0x8c>
    1900:	000326b7          	lui	a3,0x32
    1904:	43f68693          	addi	a3,a3,1087 # 3243f <_sp+0x82ff>
    1908:	40f687b3          	sub	a5,a3,a5
    190c:	00100813          	li	a6,1
    1910:	41f7d313          	srai	t1,a5,0x1f
    1914:	02f306b3          	mul	a3,t1,a5
    1918:	02f785b3          	mul	a1,a5,a5
    191c:	02f7b633          	mulhu	a2,a5,a5
    1920:	20c6a6b3          	sh1add	a3,a3,a2
    1924:	01069693          	slli	a3,a3,0x10
    1928:	0105d593          	srli	a1,a1,0x10
    192c:	00b685b3          	add	a1,a3,a1
    1930:	41f5de13          	srai	t3,a1,0x1f
    1934:	1f300893          	li	a7,499
    1938:	031e06b3          	mul	a3,t3,a7
    193c:	03158633          	mul	a2,a1,a7
    1940:	0315b8b3          	mulhu	a7,a1,a7
    1944:	011686b3          	add	a3,a3,a7
    1948:	01069693          	slli	a3,a3,0x10
    194c:	01065613          	srli	a2,a2,0x10
    1950:	00c68633          	add	a2,a3,a2
    1954:	ffffd6b7          	lui	a3,0xffffd
    1958:	57e68693          	addi	a3,a3,1406 # ffffd57e <_sp+0xfffd343e>
    195c:	00d60633          	add	a2,a2,a3
    1960:	41f65893          	srai	a7,a2,0x1f
    1964:	02b888b3          	mul	a7,a7,a1
    1968:	02ce0e33          	mul	t3,t3,a2
    196c:	01c888b3          	add	a7,a7,t3
    1970:	02b606b3          	mul	a3,a2,a1
    1974:	02b63633          	mulhu	a2,a2,a1
    1978:	00c88633          	add	a2,a7,a2
    197c:	01061613          	slli	a2,a2,0x10
    1980:	0106d693          	srli	a3,a3,0x10
    1984:	00d606b3          	add	a3,a2,a3
    1988:	00010637          	lui	a2,0x10
    198c:	00c686b3          	add	a3,a3,a2
    1990:	41f6d593          	srai	a1,a3,0x1f
    1994:	02f585b3          	mul	a1,a1,a5
    1998:	02d30333          	mul	t1,t1,a3
    199c:	006585b3          	add	a1,a1,t1
    19a0:	02f68633          	mul	a2,a3,a5
    19a4:	02f6b6b3          	mulhu	a3,a3,a5
    19a8:	00d587b3          	add	a5,a1,a3
    19ac:	01079793          	slli	a5,a5,0x10
    19b0:	01065613          	srli	a2,a2,0x10
    19b4:	00c78633          	add	a2,a5,a2
    19b8:	02c80633          	mul	a2,a6,a2
    19bc:	0c060863          	beqz	a2,1a8c <T5_start+0x23c>
    19c0:	41f75893          	srai	a7,a4,0x1f
    19c4:	02e887b3          	mul	a5,a7,a4
    19c8:	02e705b3          	mul	a1,a4,a4
    19cc:	02e736b3          	mulhu	a3,a4,a4
    19d0:	20d7a7b3          	sh1add	a5,a5,a3
    19d4:	01079793          	slli	a5,a5,0x10
    19d8:	0105d593          	srli	a1,a1,0x10
    19dc:	00b785b3          	add	a1,a5,a1
    19e0:	41f5d313          	srai	t1,a1,0x1f
    19e4:	1f300813          	li	a6,499
    19e8:	030307b3          	mul	a5,t1,a6
    19ec:	030586b3          	mul	a3,a1,a6
    19f0:	0305b833          	mulhu	a6,a1,a6
    19f4:	010787b3          	add	a5,a5,a6
    19f8:	01079793          	slli	a5,a5,0x10
    19fc:	0106d693          	srli	a3,a3,0x10
    1a00:	00d786b3          	add	a3,a5,a3
    1a04:	ffffd7b7          	lui	a5,0xffffd
    1a08:	57e78793          	addi	a5,a5,1406 # ffffd57e <_sp+0xfffd343e>
    1a0c:	00f686b3          	add	a3,a3,a5
    1a10:	41f6d813          	srai	a6,a3,0x1f
    1a14:	02b80833          	mul	a6,a6,a1
    1a18:	02d30333          	mul	t1,t1,a3
    1a1c:	00680833          	add	a6,a6,t1
    1a20:	02b687b3          	mul	a5,a3,a1
    1a24:	02b6b6b3          	mulhu	a3,a3,a1
    1a28:	00d806b3          	add	a3,a6,a3
    1a2c:	01069693          	slli	a3,a3,0x10
    1a30:	0107d793          	srli	a5,a5,0x10
    1a34:	00f687b3          	add	a5,a3,a5
    1a38:	000106b7          	lui	a3,0x10
    1a3c:	00d787b3          	add	a5,a5,a3
    1a40:	41f7d693          	srai	a3,a5,0x1f
    1a44:	02e686b3          	mul	a3,a3,a4
    1a48:	02f888b3          	mul	a7,a7,a5
    1a4c:	011686b3          	add	a3,a3,a7
    1a50:	02e785b3          	mul	a1,a5,a4
    1a54:	02e7b7b3          	mulhu	a5,a5,a4
    1a58:	00f687b3          	add	a5,a3,a5
    1a5c:	01079793          	slli	a5,a5,0x10
    1a60:	0105d713          	srli	a4,a1,0x10
    1a64:	00e78733          	add	a4,a5,a4
    1a68:	02e50533          	mul	a0,a0,a4
    1a6c:	41f55793          	srai	a5,a0,0x1f
    1a70:	01055593          	srli	a1,a0,0x10
    1a74:	01079793          	slli	a5,a5,0x10
    1a78:	41f65693          	srai	a3,a2,0x1f
    1a7c:	01051513          	slli	a0,a0,0x10
    1a80:	00f585b3          	add	a1,a1,a5
    1a84:	768070ef          	jal	91ec <__divdi3>
    1a88:	00050613          	mv	a2,a0
    1a8c:	10c12623          	sw	a2,268(sp)
    1a90:	000107b7          	lui	a5,0x10
    1a94:	10f12823          	sw	a5,272(sp)
    1a98:	0144a703          	lw	a4,20(s1)
    1a9c:	000197b7          	lui	a5,0x19
    1aa0:	22078793          	addi	a5,a5,544 # 19220 <heap.cpp.6b15d6f6+0x70cf>
    1aa4:	40e787b3          	sub	a5,a5,a4
    1aa8:	517cd537          	lui	a0,0x517cd
    1aac:	c8350513          	addi	a0,a0,-893 # 517ccc83 <_sp+0x517a2b43>
    1ab0:	02a79533          	mulh	a0,a5,a0
    1ab4:	41155513          	srai	a0,a0,0x11
    1ab8:	41f7d713          	srai	a4,a5,0x1f
    1abc:	40e50533          	sub	a0,a0,a4
    1ac0:	00065737          	lui	a4,0x65
    1ac4:	87e70713          	addi	a4,a4,-1922 # 6487e <_sp+0x3a73e>
    1ac8:	02e50733          	mul	a4,a0,a4
    1acc:	40e78533          	sub	a0,a5,a4
    1ad0:	76054663          	bltz	a0,223c <T5_end+0xdc>
    1ad4:	fffe77b7          	lui	a5,0xfffe7
    1ad8:	ddf78793          	addi	a5,a5,-545 # fffe6ddf <_sp+0xfffbcc9f>
    1adc:	00f507b3          	add	a5,a0,a5
    1ae0:	00019737          	lui	a4,0x19
    1ae4:	21e70713          	addi	a4,a4,542 # 1921e <heap.cpp.6b15d6f6+0x70cd>
    1ae8:	76f76263          	bltu	a4,a5,224c <T5_end+0xec>
    1aec:	000327b7          	lui	a5,0x32
    1af0:	43f78793          	addi	a5,a5,1087 # 3243f <_sp+0x82ff>
    1af4:	40a78533          	sub	a0,a5,a0
    1af8:	00100593          	li	a1,1
    1afc:	41f55813          	srai	a6,a0,0x1f
    1b00:	02a807b3          	mul	a5,a6,a0
    1b04:	02a506b3          	mul	a3,a0,a0
    1b08:	02a53733          	mulhu	a4,a0,a0
    1b0c:	20e7a7b3          	sh1add	a5,a5,a4
    1b10:	01079793          	slli	a5,a5,0x10
    1b14:	0106d693          	srli	a3,a3,0x10
    1b18:	00d786b3          	add	a3,a5,a3
    1b1c:	41f6d893          	srai	a7,a3,0x1f
    1b20:	1f300613          	li	a2,499
    1b24:	02c887b3          	mul	a5,a7,a2
    1b28:	02c68733          	mul	a4,a3,a2
    1b2c:	02c6b633          	mulhu	a2,a3,a2
    1b30:	00c787b3          	add	a5,a5,a2
    1b34:	01079793          	slli	a5,a5,0x10
    1b38:	01075713          	srli	a4,a4,0x10
    1b3c:	00e78733          	add	a4,a5,a4
    1b40:	ffffd7b7          	lui	a5,0xffffd
    1b44:	57e78793          	addi	a5,a5,1406 # ffffd57e <_sp+0xfffd343e>
    1b48:	00f70733          	add	a4,a4,a5
    1b4c:	41f75613          	srai	a2,a4,0x1f
    1b50:	02d60633          	mul	a2,a2,a3
    1b54:	02e888b3          	mul	a7,a7,a4
    1b58:	01160633          	add	a2,a2,a7
    1b5c:	02d707b3          	mul	a5,a4,a3
    1b60:	02d73733          	mulhu	a4,a4,a3
    1b64:	00e60733          	add	a4,a2,a4
    1b68:	01071713          	slli	a4,a4,0x10
    1b6c:	0107d793          	srli	a5,a5,0x10
    1b70:	00f707b3          	add	a5,a4,a5
    1b74:	00892703          	lw	a4,8(s2)
    1b78:	00070c13          	mv	s8,a4
    1b7c:	00010737          	lui	a4,0x10
    1b80:	00e787b3          	add	a5,a5,a4
    1b84:	41f7d713          	srai	a4,a5,0x1f
    1b88:	02a70733          	mul	a4,a4,a0
    1b8c:	02f80833          	mul	a6,a6,a5
    1b90:	01070733          	add	a4,a4,a6
    1b94:	02a786b3          	mul	a3,a5,a0
    1b98:	02a7b7b3          	mulhu	a5,a5,a0
    1b9c:	00f707b3          	add	a5,a4,a5
    1ba0:	01079793          	slli	a5,a5,0x10
    1ba4:	0106d713          	srli	a4,a3,0x10
    1ba8:	00e78733          	add	a4,a5,a4
    1bac:	02e585b3          	mul	a1,a1,a4
    1bb0:	0b85e5b3          	max	a1,a1,s8
    1bb4:	10b12a23          	sw	a1,276(sp)
    1bb8:	00492783          	lw	a5,4(s2)
    1bbc:	00010737          	lui	a4,0x10
    1bc0:	18078e63          	beqz	a5,1d5c <T5_start+0x50c>
    1bc4:	40f00633          	neg	a2,a5
    1bc8:	0ac7e633          	max	a2,a5,a2
    1bcc:	41f65693          	srai	a3,a2,0x1f
    1bd0:	000175b7          	lui	a1,0x17
    1bd4:	15458593          	addi	a1,a1,340 # 17154 <heap.cpp.6b15d6f6+0x5003>
    1bd8:	02b686b3          	mul	a3,a3,a1
    1bdc:	02b60733          	mul	a4,a2,a1
    1be0:	02b63633          	mulhu	a2,a2,a1
    1be4:	00c686b3          	add	a3,a3,a2
    1be8:	01069693          	slli	a3,a3,0x10
    1bec:	01075713          	srli	a4,a4,0x10
    1bf0:	00e68733          	add	a4,a3,a4
    1bf4:	000086b7          	lui	a3,0x8
    1bf8:	00d70733          	add	a4,a4,a3
    1bfc:	ffff06b7          	lui	a3,0xffff0
    1c00:	00d77733          	and	a4,a4,a3
    1c04:	00070b93          	mv	s7,a4
    1c08:	6807ca63          	bltz	a5,229c <T5_end+0x13c>
    1c0c:	41fbd713          	srai	a4,s7,0x1f
    1c10:	0000b6b7          	lui	a3,0xb
    1c14:	17268693          	addi	a3,a3,370 # b172 <__power_manager_start+0x172>
    1c18:	02d70733          	mul	a4,a4,a3
    1c1c:	02db8633          	mul	a2,s7,a3
    1c20:	02dbb6b3          	mulhu	a3,s7,a3
    1c24:	00d70733          	add	a4,a4,a3
    1c28:	01071713          	slli	a4,a4,0x10
    1c2c:	01065693          	srli	a3,a2,0x10
    1c30:	00d706b3          	add	a3,a4,a3
    1c34:	40d787b3          	sub	a5,a5,a3
    1c38:	41f7d713          	srai	a4,a5,0x1f
    1c3c:	02f70733          	mul	a4,a4,a5
    1c40:	02f78633          	mul	a2,a5,a5
    1c44:	02f7b6b3          	mulhu	a3,a5,a5
    1c48:	20d72733          	sh1add	a4,a4,a3
    1c4c:	01071713          	slli	a4,a4,0x10
    1c50:	01065613          	srli	a2,a2,0x10
    1c54:	00c70633          	add	a2,a4,a2
    1c58:	41f65513          	srai	a0,a2,0x1f
    1c5c:	01e65713          	srli	a4,a2,0x1e
    1c60:	20e54733          	sh2add	a4,a0,a4
    1c64:	00261693          	slli	a3,a2,0x2
    1c68:	01071713          	slli	a4,a4,0x10
    1c6c:	0106d693          	srli	a3,a3,0x10
    1c70:	00d706b3          	add	a3,a4,a3
    1c74:	f4a68693          	addi	a3,a3,-182
    1c78:	41f6d593          	srai	a1,a3,0x1f
    1c7c:	02c585b3          	mul	a1,a1,a2
    1c80:	02d50733          	mul	a4,a0,a3
    1c84:	00e585b3          	add	a1,a1,a4
    1c88:	02c68733          	mul	a4,a3,a2
    1c8c:	02c6b6b3          	mulhu	a3,a3,a2
    1c90:	00d586b3          	add	a3,a1,a3
    1c94:	01069693          	slli	a3,a3,0x10
    1c98:	01075713          	srli	a4,a4,0x10
    1c9c:	00e68733          	add	a4,a3,a4
    1ca0:	000036b7          	lui	a3,0x3
    1ca4:	aab68693          	addi	a3,a3,-1365 # 2aab <T7_end+0x137>
    1ca8:	00d70733          	add	a4,a4,a3
    1cac:	41f75693          	srai	a3,a4,0x1f
    1cb0:	02c686b3          	mul	a3,a3,a2
    1cb4:	02e50533          	mul	a0,a0,a4
    1cb8:	00a686b3          	add	a3,a3,a0
    1cbc:	02c705b3          	mul	a1,a4,a2
    1cc0:	02c73733          	mulhu	a4,a4,a2
    1cc4:	00e68733          	add	a4,a3,a4
    1cc8:	01071713          	slli	a4,a4,0x10
    1ccc:	0105d693          	srli	a3,a1,0x10
    1cd0:	00d706b3          	add	a3,a4,a3
    1cd4:	00020737          	lui	a4,0x20
    1cd8:	00e686b3          	add	a3,a3,a4
    1cdc:	40f68633          	sub	a2,a3,a5
    1ce0:	02f68c63          	beq	a3,a5,1d18 <T5_start+0x4c8>
    1ce4:	00f7d713          	srli	a4,a5,0xf
    1ce8:	01179793          	slli	a5,a5,0x11
    1cec:	01071713          	slli	a4,a4,0x10
    1cf0:	0107d793          	srli	a5,a5,0x10
    1cf4:	00f707b3          	add	a5,a4,a5
    1cf8:	41f7d713          	srai	a4,a5,0x1f
    1cfc:	0107d593          	srli	a1,a5,0x10
    1d00:	01071713          	slli	a4,a4,0x10
    1d04:	41f65693          	srai	a3,a2,0x1f
    1d08:	01079513          	slli	a0,a5,0x10
    1d0c:	00e585b3          	add	a1,a1,a4
    1d10:	4dc070ef          	jal	91ec <__divdi3>
    1d14:	00050613          	mv	a2,a0
    1d18:	000107b7          	lui	a5,0x10
    1d1c:	00f606b3          	add	a3,a2,a5
    1d20:	580bc463          	bltz	s7,22a8 <T5_end+0x148>
    1d24:	410bd713          	srai	a4,s7,0x10
    1d28:	000107b7          	lui	a5,0x10
    1d2c:	00e797b3          	sll	a5,a5,a4
    1d30:	41f7d713          	srai	a4,a5,0x1f
    1d34:	41f6d613          	srai	a2,a3,0x1f
    1d38:	02d70733          	mul	a4,a4,a3
    1d3c:	02f60633          	mul	a2,a2,a5
    1d40:	00c70733          	add	a4,a4,a2
    1d44:	02d78633          	mul	a2,a5,a3
    1d48:	02d7b7b3          	mulhu	a5,a5,a3
    1d4c:	00f70733          	add	a4,a4,a5
    1d50:	01071713          	slli	a4,a4,0x10
    1d54:	01065793          	srli	a5,a2,0x10
    1d58:	00f70733          	add	a4,a4,a5
    1d5c:	10e12c23          	sw	a4,280(sp)
    1d60:	00092683          	lw	a3,0(s2)
    1d64:	00000593          	li	a1,0
    1d68:	2406c863          	bltz	a3,1fb8 <T5_start+0x768>
    1d6c:	54068c63          	beqz	a3,22c4 <T5_end+0x164>
    1d70:	15912423          	sw	s9,328(sp)
    1d74:	000207b7          	lui	a5,0x20
    1d78:	54d7d263          	bge	a5,a3,22bc <T5_end+0x15c>
    1d7c:	00000b93          	li	s7,0
    1d80:	4016d693          	srai	a3,a3,0x1
    1d84:	001b8713          	addi	a4,s7,1
    1d88:	00070b93          	mv	s7,a4
    1d8c:	fed7cae3          	blt	a5,a3,1d80 <T5_start+0x530>
    1d90:	ffff07b7          	lui	a5,0xffff0
    1d94:	00f687b3          	add	a5,a3,a5
    1d98:	00078c93          	mv	s9,a5
    1d9c:	41f7d793          	srai	a5,a5,0x1f
    1da0:	010cd593          	srli	a1,s9,0x10
    1da4:	01079793          	slli	a5,a5,0x10
    1da8:	00010737          	lui	a4,0x10
    1dac:	00e68633          	add	a2,a3,a4
    1db0:	41f65693          	srai	a3,a2,0x1f
    1db4:	010c9513          	slli	a0,s9,0x10
    1db8:	00f585b3          	add	a1,a1,a5
    1dbc:	430070ef          	jal	91ec <__divdi3>
    1dc0:	41f55613          	srai	a2,a0,0x1f
    1dc4:	02a607b3          	mul	a5,a2,a0
    1dc8:	02a506b3          	mul	a3,a0,a0
    1dcc:	02a53733          	mulhu	a4,a0,a0
    1dd0:	20e7a7b3          	sh1add	a5,a5,a4
    1dd4:	01079793          	slli	a5,a5,0x10
    1dd8:	0106d693          	srli	a3,a3,0x10
    1ddc:	00d786b3          	add	a3,a5,a3
    1de0:	41f6d313          	srai	t1,a3,0x1f
    1de4:	02d307b3          	mul	a5,t1,a3
    1de8:	02d68733          	mul	a4,a3,a3
    1dec:	02d6b5b3          	mulhu	a1,a3,a3
    1df0:	20b7a7b3          	sh1add	a5,a5,a1
    1df4:	01079793          	slli	a5,a5,0x10
    1df8:	01075713          	srli	a4,a4,0x10
    1dfc:	00e78733          	add	a4,a5,a4
    1e00:	41f75813          	srai	a6,a4,0x1f
    1e04:	010b9793          	slli	a5,s7,0x10
    1e08:	41f7d893          	srai	a7,a5,0x1f
    1e0c:	0000be37          	lui	t3,0xb
    1e10:	172e0e13          	addi	t3,t3,370 # b172 <__power_manager_start+0x172>
    1e14:	03c888b3          	mul	a7,a7,t3
    1e18:	03c785b3          	mul	a1,a5,t3
    1e1c:	03c7b7b3          	mulhu	a5,a5,t3
    1e20:	00f887b3          	add	a5,a7,a5
    1e24:	01079793          	slli	a5,a5,0x10
    1e28:	0105d593          	srli	a1,a1,0x10
    1e2c:	00b785b3          	add	a1,a5,a1
    1e30:	00bc85b3          	add	a1,s9,a1
    1e34:	000028b7          	lui	a7,0x2
    1e38:	5e288893          	addi	a7,a7,1506 # 25e2 <T7_start+0x6e>
    1e3c:	03180e33          	mul	t3,a6,a7
    1e40:	031707b3          	mul	a5,a4,a7
    1e44:	031738b3          	mulhu	a7,a4,a7
    1e48:	011e08b3          	add	a7,t3,a7
    1e4c:	01089893          	slli	a7,a7,0x10
    1e50:	0107d793          	srli	a5,a5,0x10
    1e54:	00f887b3          	add	a5,a7,a5
    1e58:	000038b7          	lui	a7,0x3
    1e5c:	e8d88893          	addi	a7,a7,-371 # 2e8d <T8_end+0x79>
    1e60:	011787b3          	add	a5,a5,a7
    1e64:	41f7de13          	srai	t3,a5,0x1f
    1e68:	02ee0e33          	mul	t3,t3,a4
    1e6c:	02f808b3          	mul	a7,a6,a5
    1e70:	011e0e33          	add	t3,t3,a7
    1e74:	02e788b3          	mul	a7,a5,a4
    1e78:	02e7b7b3          	mulhu	a5,a5,a4
    1e7c:	00fe07b3          	add	a5,t3,a5
    1e80:	01079793          	slli	a5,a5,0x10
    1e84:	0108d893          	srli	a7,a7,0x10
    1e88:	011788b3          	add	a7,a5,a7
    1e8c:	000057b7          	lui	a5,0x5
    1e90:	92578793          	addi	a5,a5,-1755 # 4925 <handler_irq_fast_timer_2+0x5d>
    1e94:	00f888b3          	add	a7,a7,a5
    1e98:	41f8de13          	srai	t3,a7,0x1f
    1e9c:	02ee0e33          	mul	t3,t3,a4
    1ea0:	031807b3          	mul	a5,a6,a7
    1ea4:	00fe0e33          	add	t3,t3,a5
    1ea8:	02e887b3          	mul	a5,a7,a4
    1eac:	02e8b8b3          	mulhu	a7,a7,a4
    1eb0:	011e08b3          	add	a7,t3,a7
    1eb4:	01089893          	slli	a7,a7,0x10
    1eb8:	0107d793          	srli	a5,a5,0x10
    1ebc:	00f887b3          	add	a5,a7,a5
    1ec0:	0000b8b7          	lui	a7,0xb
    1ec4:	aab88893          	addi	a7,a7,-1365 # aaab <main+0x103>
    1ec8:	011787b3          	add	a5,a5,a7
    1ecc:	41f7d893          	srai	a7,a5,0x1f
    1ed0:	02d888b3          	mul	a7,a7,a3
    1ed4:	02f30333          	mul	t1,t1,a5
    1ed8:	00688333          	add	t1,a7,t1
    1edc:	02d788b3          	mul	a7,a5,a3
    1ee0:	02d7b7b3          	mulhu	a5,a5,a3
    1ee4:	00f307b3          	add	a5,t1,a5
    1ee8:	01079793          	slli	a5,a5,0x10
    1eec:	0108d893          	srli	a7,a7,0x10
    1ef0:	011788b3          	add	a7,a5,a7
    1ef4:	000027b7          	lui	a5,0x2
    1ef8:	73478793          	addi	a5,a5,1844 # 2734 <T7_start+0x1c0>
    1efc:	02f80333          	mul	t1,a6,a5
    1f00:	02f706b3          	mul	a3,a4,a5
    1f04:	02f737b3          	mulhu	a5,a4,a5
    1f08:	00f307b3          	add	a5,t1,a5
    1f0c:	01079793          	slli	a5,a5,0x10
    1f10:	0106d693          	srli	a3,a3,0x10
    1f14:	00d786b3          	add	a3,a5,a3
    1f18:	000047b7          	lui	a5,0x4
    1f1c:	8e478793          	addi	a5,a5,-1820 # 38e4 <T13_end+0xb8>
    1f20:	00f686b3          	add	a3,a3,a5
    1f24:	41f6d313          	srai	t1,a3,0x1f
    1f28:	02e30333          	mul	t1,t1,a4
    1f2c:	02d807b3          	mul	a5,a6,a3
    1f30:	00f30333          	add	t1,t1,a5
    1f34:	02e687b3          	mul	a5,a3,a4
    1f38:	02e6b6b3          	mulhu	a3,a3,a4
    1f3c:	00d306b3          	add	a3,t1,a3
    1f40:	01069693          	slli	a3,a3,0x10
    1f44:	0107d793          	srli	a5,a5,0x10
    1f48:	00f687b3          	add	a5,a3,a5
    1f4c:	000066b7          	lui	a3,0x6
    1f50:	66668693          	addi	a3,a3,1638 # 6666 <__swsetup_r+0xc6>
    1f54:	00d787b3          	add	a5,a5,a3
    1f58:	41f7d693          	srai	a3,a5,0x1f
    1f5c:	02e686b3          	mul	a3,a3,a4
    1f60:	02f80833          	mul	a6,a6,a5
    1f64:	010686b3          	add	a3,a3,a6
    1f68:	02e78833          	mul	a6,a5,a4
    1f6c:	02e7b7b3          	mulhu	a5,a5,a4
    1f70:	00f687b3          	add	a5,a3,a5
    1f74:	01079793          	slli	a5,a5,0x10
    1f78:	01085713          	srli	a4,a6,0x10
    1f7c:	00e78733          	add	a4,a5,a4
    1f80:	00e888b3          	add	a7,a7,a4
    1f84:	411c87b3          	sub	a5,s9,a7
    1f88:	41f7d713          	srai	a4,a5,0x1f
    1f8c:	02a70733          	mul	a4,a4,a0
    1f90:	02f60633          	mul	a2,a2,a5
    1f94:	00c70733          	add	a4,a4,a2
    1f98:	02a786b3          	mul	a3,a5,a0
    1f9c:	02a7b7b3          	mulhu	a5,a5,a0
    1fa0:	00f707b3          	add	a5,a4,a5
    1fa4:	01079793          	slli	a5,a5,0x10
    1fa8:	0106d713          	srli	a4,a3,0x10
    1fac:	00e78733          	add	a4,a5,a4
    1fb0:	40e585b3          	sub	a1,a1,a4
    1fb4:	14812c83          	lw	s9,328(sp)
    1fb8:	10b12e23          	sw	a1,284(sp)
    1fbc:	000107b7          	lui	a5,0x10
    1fc0:	180c0e63          	beqz	s8,215c <T5_start+0x90c>
    1fc4:	418006b3          	neg	a3,s8
    1fc8:	0adc66b3          	max	a3,s8,a3
    1fcc:	41f6d713          	srai	a4,a3,0x1f
    1fd0:	00017637          	lui	a2,0x17
    1fd4:	15460613          	addi	a2,a2,340 # 17154 <heap.cpp.6b15d6f6+0x5003>
    1fd8:	02c70733          	mul	a4,a4,a2
    1fdc:	02c687b3          	mul	a5,a3,a2
    1fe0:	02c6b6b3          	mulhu	a3,a3,a2
    1fe4:	00d70733          	add	a4,a4,a3
    1fe8:	01071713          	slli	a4,a4,0x10
    1fec:	0107d793          	srli	a5,a5,0x10
    1ff0:	00f707b3          	add	a5,a4,a5
    1ff4:	00008737          	lui	a4,0x8
    1ff8:	00e787b3          	add	a5,a5,a4
    1ffc:	ffff0737          	lui	a4,0xffff0
    2000:	00e7f7b3          	and	a5,a5,a4
    2004:	00078b93          	mv	s7,a5
    2008:	2c0c4263          	bltz	s8,22cc <T5_end+0x16c>
    200c:	41fbd713          	srai	a4,s7,0x1f
    2010:	0000b6b7          	lui	a3,0xb
    2014:	17268693          	addi	a3,a3,370 # b172 <__power_manager_start+0x172>
    2018:	02d70733          	mul	a4,a4,a3
    201c:	02db87b3          	mul	a5,s7,a3
    2020:	02dbb6b3          	mulhu	a3,s7,a3
    2024:	00d70733          	add	a4,a4,a3
    2028:	01071713          	slli	a4,a4,0x10
    202c:	0107d793          	srli	a5,a5,0x10
    2030:	00f707b3          	add	a5,a4,a5
    2034:	40fc07b3          	sub	a5,s8,a5
    2038:	41f7d713          	srai	a4,a5,0x1f
    203c:	02f70733          	mul	a4,a4,a5
    2040:	02f78633          	mul	a2,a5,a5
    2044:	02f7b6b3          	mulhu	a3,a5,a5
    2048:	20d72733          	sh1add	a4,a4,a3
    204c:	01071713          	slli	a4,a4,0x10
    2050:	01065613          	srli	a2,a2,0x10
    2054:	00c70633          	add	a2,a4,a2
    2058:	41f65513          	srai	a0,a2,0x1f
    205c:	01e65713          	srli	a4,a2,0x1e
    2060:	20e54733          	sh2add	a4,a0,a4
    2064:	00261693          	slli	a3,a2,0x2
    2068:	01071713          	slli	a4,a4,0x10
    206c:	0106d693          	srli	a3,a3,0x10
    2070:	00d706b3          	add	a3,a4,a3
    2074:	f4a68693          	addi	a3,a3,-182
    2078:	41f6d593          	srai	a1,a3,0x1f
    207c:	02c585b3          	mul	a1,a1,a2
    2080:	02d50733          	mul	a4,a0,a3
    2084:	00e585b3          	add	a1,a1,a4
    2088:	02c68733          	mul	a4,a3,a2
    208c:	02c6b6b3          	mulhu	a3,a3,a2
    2090:	00d586b3          	add	a3,a1,a3
    2094:	01069693          	slli	a3,a3,0x10
    2098:	01075713          	srli	a4,a4,0x10
    209c:	00e68733          	add	a4,a3,a4
    20a0:	000036b7          	lui	a3,0x3
    20a4:	aab68693          	addi	a3,a3,-1365 # 2aab <T7_end+0x137>
    20a8:	00d70733          	add	a4,a4,a3
    20ac:	41f75693          	srai	a3,a4,0x1f
    20b0:	02c686b3          	mul	a3,a3,a2
    20b4:	02e50533          	mul	a0,a0,a4
    20b8:	00a686b3          	add	a3,a3,a0
    20bc:	02c705b3          	mul	a1,a4,a2
    20c0:	02c73733          	mulhu	a4,a4,a2
    20c4:	00e68733          	add	a4,a3,a4
    20c8:	01071713          	slli	a4,a4,0x10
    20cc:	0105d693          	srli	a3,a1,0x10
    20d0:	00d706b3          	add	a3,a4,a3
    20d4:	00020737          	lui	a4,0x20
    20d8:	00e686b3          	add	a3,a3,a4
    20dc:	40f68633          	sub	a2,a3,a5
    20e0:	02f68c63          	beq	a3,a5,2118 <T5_start+0x8c8>
    20e4:	00f7d713          	srli	a4,a5,0xf
    20e8:	01179793          	slli	a5,a5,0x11
    20ec:	01071713          	slli	a4,a4,0x10
    20f0:	0107d793          	srli	a5,a5,0x10
    20f4:	00f707b3          	add	a5,a4,a5
    20f8:	41f7d713          	srai	a4,a5,0x1f
    20fc:	0107d593          	srli	a1,a5,0x10
    2100:	01071713          	slli	a4,a4,0x10
    2104:	41f65693          	srai	a3,a2,0x1f
    2108:	01079513          	slli	a0,a5,0x10
    210c:	00e585b3          	add	a1,a1,a4
    2110:	0dc070ef          	jal	91ec <__divdi3>
    2114:	00050613          	mv	a2,a0
    2118:	000107b7          	lui	a5,0x10
    211c:	00f606b3          	add	a3,a2,a5
    2120:	1a0bcc63          	bltz	s7,22d8 <T5_end+0x178>
    2124:	410bd793          	srai	a5,s7,0x10
    2128:	00010737          	lui	a4,0x10
    212c:	00f71733          	sll	a4,a4,a5
    2130:	41f75793          	srai	a5,a4,0x1f
    2134:	41f6d613          	srai	a2,a3,0x1f
    2138:	02d787b3          	mul	a5,a5,a3
    213c:	02e60633          	mul	a2,a2,a4
    2140:	00c787b3          	add	a5,a5,a2
    2144:	02d70633          	mul	a2,a4,a3
    2148:	02d73733          	mulhu	a4,a4,a3
    214c:	00e787b3          	add	a5,a5,a4
    2150:	01079793          	slli	a5,a5,0x10
    2154:	01065713          	srli	a4,a2,0x10
    2158:	00e787b3          	add	a5,a5,a4
    215c:	12f12023          	sw	a5,288(sp)

00002160 <T5_end>:
    2160:	b00027f3          	csrr	a5,mcycle
    2164:	41a787b3          	sub	a5,a5,s10
    2168:	00f9aa23          	sw	a5,20(s3)
    216c:	10c12603          	lw	a2,268(sp)
    2170:	11010713          	addi	a4,sp,272
    2174:	00000513          	li	a0,0
    2178:	00100793          	li	a5,1
    217c:	00600593          	li	a1,6
    2180:	1780006f          	j	22f8 <T5_end+0x198>
    2184:	000657b7          	lui	a5,0x65
    2188:	87e78793          	addi	a5,a5,-1922 # 6487e <_sp+0x3a73e>
    218c:	00f70733          	add	a4,a4,a5
    2190:	ef8ff06f          	j	1888 <T5_start+0x38>
    2194:	fffce7b7          	lui	a5,0xfffce
    2198:	bc078793          	addi	a5,a5,-1088 # fffcdbc0 <_sp+0xfffa3a80>
    219c:	00f707b3          	add	a5,a4,a5
    21a0:	000196b7          	lui	a3,0x19
    21a4:	21f68693          	addi	a3,a3,543 # 1921f <heap.cpp.6b15d6f6+0x70ce>
    21a8:	00f6ec63          	bltu	a3,a5,21c0 <T5_end+0x60>
    21ac:	fffce7b7          	lui	a5,0xfffce
    21b0:	bc178793          	addi	a5,a5,-1087 # fffcdbc1 <_sp+0xfffa3a81>
    21b4:	00f70733          	add	a4,a4,a5
    21b8:	fff00513          	li	a0,-1
    21bc:	ef4ff06f          	j	18b0 <T5_start+0x60>
    21c0:	0004b7b7          	lui	a5,0x4b
    21c4:	65f78793          	addi	a5,a5,1631 # 4b65f <_sp+0x2151f>
    21c8:	00100513          	li	a0,1
    21cc:	eee7d263          	bge	a5,a4,18b0 <T5_start+0x60>
    21d0:	000657b7          	lui	a5,0x65
    21d4:	87e78793          	addi	a5,a5,-1922 # 6487e <_sp+0x3a73e>
    21d8:	40e78733          	sub	a4,a5,a4
    21dc:	fff00513          	li	a0,-1
    21e0:	ed0ff06f          	j	18b0 <T5_start+0x60>
    21e4:	00c787b3          	add	a5,a5,a2
    21e8:	f00ff06f          	j	18e8 <T5_start+0x98>
    21ec:	fffce6b7          	lui	a3,0xfffce
    21f0:	bc068693          	addi	a3,a3,-1088 # fffcdbc0 <_sp+0xfffa3a80>
    21f4:	00d786b3          	add	a3,a5,a3
    21f8:	00019637          	lui	a2,0x19
    21fc:	21f60613          	addi	a2,a2,543 # 1921f <heap.cpp.6b15d6f6+0x70ce>
    2200:	00d66c63          	bltu	a2,a3,2218 <T5_end+0xb8>
    2204:	fffce6b7          	lui	a3,0xfffce
    2208:	bc168693          	addi	a3,a3,-1087 # fffcdbc1 <_sp+0xfffa3a81>
    220c:	00d787b3          	add	a5,a5,a3
    2210:	fff00813          	li	a6,-1
    2214:	efcff06f          	j	1910 <T5_start+0xc0>
    2218:	0004b6b7          	lui	a3,0x4b
    221c:	65f68693          	addi	a3,a3,1631 # 4b65f <_sp+0x2151f>
    2220:	00100813          	li	a6,1
    2224:	eef6d663          	bge	a3,a5,1910 <T5_start+0xc0>
    2228:	000656b7          	lui	a3,0x65
    222c:	87e68693          	addi	a3,a3,-1922 # 6487e <_sp+0x3a73e>
    2230:	40f687b3          	sub	a5,a3,a5
    2234:	fff00813          	li	a6,-1
    2238:	ed8ff06f          	j	1910 <T5_start+0xc0>
    223c:	000657b7          	lui	a5,0x65
    2240:	87e78793          	addi	a5,a5,-1922 # 6487e <_sp+0x3a73e>
    2244:	00f50533          	add	a0,a0,a5
    2248:	88dff06f          	j	1ad4 <T5_start+0x284>
    224c:	fffce7b7          	lui	a5,0xfffce
    2250:	bc078793          	addi	a5,a5,-1088 # fffcdbc0 <_sp+0xfffa3a80>
    2254:	00f507b3          	add	a5,a0,a5
    2258:	00019737          	lui	a4,0x19
    225c:	21f70713          	addi	a4,a4,543 # 1921f <heap.cpp.6b15d6f6+0x70ce>
    2260:	00f76c63          	bltu	a4,a5,2278 <T5_end+0x118>
    2264:	fffce7b7          	lui	a5,0xfffce
    2268:	bc178793          	addi	a5,a5,-1087 # fffcdbc1 <_sp+0xfffa3a81>
    226c:	00f50533          	add	a0,a0,a5
    2270:	fff00593          	li	a1,-1
    2274:	889ff06f          	j	1afc <T5_start+0x2ac>
    2278:	0004b7b7          	lui	a5,0x4b
    227c:	65f78793          	addi	a5,a5,1631 # 4b65f <_sp+0x2151f>
    2280:	00100593          	li	a1,1
    2284:	86a7dce3          	bge	a5,a0,1afc <T5_start+0x2ac>
    2288:	000657b7          	lui	a5,0x65
    228c:	87e78793          	addi	a5,a5,-1922 # 6487e <_sp+0x3a73e>
    2290:	40a78533          	sub	a0,a5,a0
    2294:	fff00593          	li	a1,-1
    2298:	865ff06f          	j	1afc <T5_start+0x2ac>
    229c:	40e00733          	neg	a4,a4
    22a0:	00070b93          	mv	s7,a4
    22a4:	969ff06f          	j	1c0c <T5_start+0x3bc>
    22a8:	41700733          	neg	a4,s7
    22ac:	41075713          	srai	a4,a4,0x10
    22b0:	000107b7          	lui	a5,0x10
    22b4:	40e7d7b3          	sra	a5,a5,a4
    22b8:	a79ff06f          	j	1d30 <T5_start+0x4e0>
    22bc:	00000b93          	li	s7,0
    22c0:	ad1ff06f          	j	1d90 <T5_start+0x540>
    22c4:	fff00593          	li	a1,-1
    22c8:	cf1ff06f          	j	1fb8 <T5_start+0x768>
    22cc:	40f007b3          	neg	a5,a5
    22d0:	00078b93          	mv	s7,a5
    22d4:	d39ff06f          	j	200c <T5_start+0x7bc>
    22d8:	417007b3          	neg	a5,s7
    22dc:	4107d793          	srai	a5,a5,0x10
    22e0:	00010737          	lui	a4,0x10
    22e4:	40f75733          	sra	a4,a4,a5
    22e8:	e49ff06f          	j	2130 <T5_start+0x8e0>
    22ec:	00178793          	addi	a5,a5,1 # 10001 <syscalls.c.42d7056b+0xb1d>
    22f0:	00470713          	addi	a4,a4,4 # 10004 <syscalls.c.42d7056b+0xb20>
    22f4:	00b78c63          	beq	a5,a1,230c <T5_end+0x1ac>
    22f8:	00072683          	lw	a3,0(a4)
    22fc:	fec6c8e3          	blt	a3,a2,22ec <T5_end+0x18c>
    2300:	00068613          	mv	a2,a3
    2304:	00078513          	mv	a0,a5
    2308:	fe5ff06f          	j	22ec <T5_end+0x18c>
    230c:	00020737          	lui	a4,0x20
    2310:	000207b7          	lui	a5,0x20
    2314:	10878793          	addi	a5,a5,264 # 20108 <next.18>
    2318:	20f54533          	sh2add	a0,a0,a5
    231c:	00052783          	lw	a5,0(a0)
    2320:	14070713          	addi	a4,a4,320 # 20140 <jump_table.24>
    2324:	20e7c7b3          	sh2add	a5,a5,a4
    2328:	0007a803          	lw	a6,0(a5)
    232c:	14412d03          	lw	s10,324(sp)
    2330:	869fe06f          	j	b98 <inferenceTPG+0x48>

00002334 <T6_start>:
    2334:	b00027f3          	csrr	a5,mcycle
    2338:	00078c13          	mv	s8,a5
    233c:	008aa783          	lw	a5,8(s5)
    2340:	0a07e733          	max	a4,a5,zero
    2344:	02e12e23          	sw	a4,60(sp)
    2348:	004aa703          	lw	a4,4(s5)
    234c:	0a076733          	max	a4,a4,zero
    2350:	40e787b3          	sub	a5,a5,a4
    2354:	04f12023          	sw	a5,64(sp)
    2358:	00892783          	lw	a5,8(s2)
    235c:	00010737          	lui	a4,0x10
    2360:	18078e63          	beqz	a5,24fc <T6_start+0x1c8>
    2364:	40f00633          	neg	a2,a5
    2368:	0ac7e633          	max	a2,a5,a2
    236c:	41f65693          	srai	a3,a2,0x1f
    2370:	000175b7          	lui	a1,0x17
    2374:	15458593          	addi	a1,a1,340 # 17154 <heap.cpp.6b15d6f6+0x5003>
    2378:	02b686b3          	mul	a3,a3,a1
    237c:	02b60733          	mul	a4,a2,a1
    2380:	02b63633          	mulhu	a2,a2,a1
    2384:	00c686b3          	add	a3,a3,a2
    2388:	01069693          	slli	a3,a3,0x10
    238c:	01075713          	srli	a4,a4,0x10
    2390:	00e68733          	add	a4,a3,a4
    2394:	000086b7          	lui	a3,0x8
    2398:	00d70733          	add	a4,a4,a3
    239c:	ffff06b7          	lui	a3,0xffff0
    23a0:	00d77733          	and	a4,a4,a3
    23a4:	00070b93          	mv	s7,a4
    23a8:	1a07c663          	bltz	a5,2554 <T6_end+0x54>
    23ac:	41fbd713          	srai	a4,s7,0x1f
    23b0:	0000b6b7          	lui	a3,0xb
    23b4:	17268693          	addi	a3,a3,370 # b172 <__power_manager_start+0x172>
    23b8:	02d70733          	mul	a4,a4,a3
    23bc:	02db8633          	mul	a2,s7,a3
    23c0:	02dbb6b3          	mulhu	a3,s7,a3
    23c4:	00d70733          	add	a4,a4,a3
    23c8:	01071713          	slli	a4,a4,0x10
    23cc:	01065693          	srli	a3,a2,0x10
    23d0:	00d706b3          	add	a3,a4,a3
    23d4:	40d787b3          	sub	a5,a5,a3
    23d8:	41f7d713          	srai	a4,a5,0x1f
    23dc:	02f70733          	mul	a4,a4,a5
    23e0:	02f78633          	mul	a2,a5,a5
    23e4:	02f7b6b3          	mulhu	a3,a5,a5
    23e8:	20d72733          	sh1add	a4,a4,a3
    23ec:	01071713          	slli	a4,a4,0x10
    23f0:	01065613          	srli	a2,a2,0x10
    23f4:	00c70633          	add	a2,a4,a2
    23f8:	41f65513          	srai	a0,a2,0x1f
    23fc:	01e65713          	srli	a4,a2,0x1e
    2400:	20e54733          	sh2add	a4,a0,a4
    2404:	00261693          	slli	a3,a2,0x2
    2408:	01071713          	slli	a4,a4,0x10
    240c:	0106d693          	srli	a3,a3,0x10
    2410:	00d706b3          	add	a3,a4,a3
    2414:	f4a68693          	addi	a3,a3,-182
    2418:	41f6d593          	srai	a1,a3,0x1f
    241c:	02c585b3          	mul	a1,a1,a2
    2420:	02d50733          	mul	a4,a0,a3
    2424:	00e585b3          	add	a1,a1,a4
    2428:	02c68733          	mul	a4,a3,a2
    242c:	02c6b6b3          	mulhu	a3,a3,a2
    2430:	00d586b3          	add	a3,a1,a3
    2434:	01069693          	slli	a3,a3,0x10
    2438:	01075713          	srli	a4,a4,0x10
    243c:	00e68733          	add	a4,a3,a4
    2440:	000036b7          	lui	a3,0x3
    2444:	aab68693          	addi	a3,a3,-1365 # 2aab <T7_end+0x137>
    2448:	00d70733          	add	a4,a4,a3
    244c:	41f75693          	srai	a3,a4,0x1f
    2450:	02c686b3          	mul	a3,a3,a2
    2454:	02e50533          	mul	a0,a0,a4
    2458:	00a686b3          	add	a3,a3,a0
    245c:	02c705b3          	mul	a1,a4,a2
    2460:	02c73733          	mulhu	a4,a4,a2
    2464:	00e68733          	add	a4,a3,a4
    2468:	01071713          	slli	a4,a4,0x10
    246c:	0105d693          	srli	a3,a1,0x10
    2470:	00d706b3          	add	a3,a4,a3
    2474:	00020737          	lui	a4,0x20
    2478:	00e686b3          	add	a3,a3,a4
    247c:	40f68633          	sub	a2,a3,a5
    2480:	02f68c63          	beq	a3,a5,24b8 <T6_start+0x184>
    2484:	00f7d713          	srli	a4,a5,0xf
    2488:	01179793          	slli	a5,a5,0x11
    248c:	01071713          	slli	a4,a4,0x10
    2490:	0107d793          	srli	a5,a5,0x10
    2494:	00f707b3          	add	a5,a4,a5
    2498:	41f7d713          	srai	a4,a5,0x1f
    249c:	0107d593          	srli	a1,a5,0x10
    24a0:	01071713          	slli	a4,a4,0x10
    24a4:	41f65693          	srai	a3,a2,0x1f
    24a8:	01079513          	slli	a0,a5,0x10
    24ac:	00e585b3          	add	a1,a1,a4
    24b0:	53d060ef          	jal	91ec <__divdi3>
    24b4:	00050613          	mv	a2,a0
    24b8:	000107b7          	lui	a5,0x10
    24bc:	00f606b3          	add	a3,a2,a5
    24c0:	0a0bc063          	bltz	s7,2560 <T6_end+0x60>
    24c4:	410bd713          	srai	a4,s7,0x10
    24c8:	000107b7          	lui	a5,0x10
    24cc:	00e797b3          	sll	a5,a5,a4
    24d0:	41f7d713          	srai	a4,a5,0x1f
    24d4:	41f6d613          	srai	a2,a3,0x1f
    24d8:	02d70733          	mul	a4,a4,a3
    24dc:	02f60633          	mul	a2,a2,a5
    24e0:	00c70733          	add	a4,a4,a2
    24e4:	02d78633          	mul	a2,a5,a3
    24e8:	02d7b7b3          	mulhu	a5,a5,a3
    24ec:	00f70733          	add	a4,a4,a5
    24f0:	01071713          	slli	a4,a4,0x10
    24f4:	01065793          	srli	a5,a2,0x10
    24f8:	00f70733          	add	a4,a4,a5
    24fc:	04e12223          	sw	a4,68(sp)

00002500 <T6_end>:
    2500:	b00027f3          	csrr	a5,mcycle
    2504:	418787b3          	sub	a5,a5,s8
    2508:	00f9ac23          	sw	a5,24(s3)
    250c:	03c12683          	lw	a3,60(sp)
    2510:	04012703          	lw	a4,64(sp)
    2514:	00100793          	li	a5,1
    2518:	00d75663          	bge	a4,a3,2524 <T6_end+0x24>
    251c:	00068713          	mv	a4,a3
    2520:	00000793          	li	a5,0
    2524:	04412683          	lw	a3,68(sp)
    2528:	00e6c463          	blt	a3,a4,2530 <T6_end+0x30>
    252c:	00200793          	li	a5,2
    2530:	00020737          	lui	a4,0x20
    2534:	000206b7          	lui	a3,0x20
    2538:	0fc68693          	addi	a3,a3,252 # 200fc <next.17>
    253c:	20d7c7b3          	sh2add	a5,a5,a3
    2540:	0007a783          	lw	a5,0(a5) # 10000 <syscalls.c.42d7056b+0xb1c>
    2544:	14070713          	addi	a4,a4,320 # 20140 <jump_table.24>
    2548:	20e7c7b3          	sh2add	a5,a5,a4
    254c:	0007a803          	lw	a6,0(a5)
    2550:	e48fe06f          	j	b98 <inferenceTPG+0x48>
    2554:	40e00733          	neg	a4,a4
    2558:	00070b93          	mv	s7,a4
    255c:	e51ff06f          	j	23ac <T6_start+0x78>
    2560:	41700733          	neg	a4,s7
    2564:	41075713          	srai	a4,a4,0x10
    2568:	000107b7          	lui	a5,0x10
    256c:	40e7d7b3          	sra	a5,a5,a4
    2570:	f61ff06f          	j	24d0 <T6_start+0x19c>

00002574 <T7_start>:
    2574:	b00027f3          	csrr	a5,mcycle
    2578:	00078c13          	mv	s8,a5
    257c:	00892783          	lw	a5,8(s2)
    2580:	00078b93          	mv	s7,a5
    2584:	517cd737          	lui	a4,0x517cd
    2588:	c8370713          	addi	a4,a4,-893 # 517ccc83 <_sp+0x517a2b43>
    258c:	02e79733          	mulh	a4,a5,a4
    2590:	41175713          	srai	a4,a4,0x11
    2594:	41f7d793          	srai	a5,a5,0x1f
    2598:	40f70733          	sub	a4,a4,a5
    259c:	000657b7          	lui	a5,0x65
    25a0:	87e78793          	addi	a5,a5,-1922 # 6487e <_sp+0x3a73e>
    25a4:	02f707b3          	mul	a5,a4,a5
    25a8:	40fb8733          	sub	a4,s7,a5
    25ac:	42074463          	bltz	a4,29d4 <T7_end+0x60>
    25b0:	fffe77b7          	lui	a5,0xfffe7
    25b4:	ddf78793          	addi	a5,a5,-545 # fffe6ddf <_sp+0xfffbcc9f>
    25b8:	00f707b3          	add	a5,a4,a5
    25bc:	000196b7          	lui	a3,0x19
    25c0:	21e68693          	addi	a3,a3,542 # 1921e <heap.cpp.6b15d6f6+0x70cd>
    25c4:	42f6e063          	bltu	a3,a5,29e4 <T7_end+0x70>
    25c8:	000327b7          	lui	a5,0x32
    25cc:	43f78793          	addi	a5,a5,1087 # 3243f <_sp+0x82ff>
    25d0:	40e78733          	sub	a4,a5,a4
    25d4:	00100513          	li	a0,1
    25d8:	000196b7          	lui	a3,0x19
    25dc:	22068693          	addi	a3,a3,544 # 19220 <heap.cpp.6b15d6f6+0x70cf>
    25e0:	417686b3          	sub	a3,a3,s7
    25e4:	517cd7b7          	lui	a5,0x517cd
    25e8:	c8378793          	addi	a5,a5,-893 # 517ccc83 <_sp+0x517a2b43>
    25ec:	02f697b3          	mulh	a5,a3,a5
    25f0:	4117d793          	srai	a5,a5,0x11
    25f4:	41f6d613          	srai	a2,a3,0x1f
    25f8:	40c787b3          	sub	a5,a5,a2
    25fc:	00065637          	lui	a2,0x65
    2600:	87e60613          	addi	a2,a2,-1922 # 6487e <_sp+0x3a73e>
    2604:	02c787b3          	mul	a5,a5,a2
    2608:	40f687b3          	sub	a5,a3,a5
    260c:	4207c463          	bltz	a5,2a34 <T7_end+0xc0>
    2610:	fffe76b7          	lui	a3,0xfffe7
    2614:	ddf68693          	addi	a3,a3,-545 # fffe6ddf <_sp+0xfffbcc9f>
    2618:	00d786b3          	add	a3,a5,a3
    261c:	00019637          	lui	a2,0x19
    2620:	21e60613          	addi	a2,a2,542 # 1921e <heap.cpp.6b15d6f6+0x70cd>
    2624:	40d66c63          	bltu	a2,a3,2a3c <T7_end+0xc8>
    2628:	000326b7          	lui	a3,0x32
    262c:	43f68693          	addi	a3,a3,1087 # 3243f <_sp+0x82ff>
    2630:	40f687b3          	sub	a5,a3,a5
    2634:	00100813          	li	a6,1
    2638:	41f7d893          	srai	a7,a5,0x1f
    263c:	02f886b3          	mul	a3,a7,a5
    2640:	02f78333          	mul	t1,a5,a5
    2644:	02f7b633          	mulhu	a2,a5,a5
    2648:	20c6a6b3          	sh1add	a3,a3,a2
    264c:	01069693          	slli	a3,a3,0x10
    2650:	01035313          	srli	t1,t1,0x10
    2654:	00668333          	add	t1,a3,t1
    2658:	41f35e13          	srai	t3,t1,0x1f
    265c:	1f300593          	li	a1,499
    2660:	02be06b3          	mul	a3,t3,a1
    2664:	02b30633          	mul	a2,t1,a1
    2668:	02b335b3          	mulhu	a1,t1,a1
    266c:	00b686b3          	add	a3,a3,a1
    2670:	01069693          	slli	a3,a3,0x10
    2674:	01065613          	srli	a2,a2,0x10
    2678:	00c68633          	add	a2,a3,a2
    267c:	ffffd6b7          	lui	a3,0xffffd
    2680:	57e68693          	addi	a3,a3,1406 # ffffd57e <_sp+0xfffd343e>
    2684:	00d60633          	add	a2,a2,a3
    2688:	41f65593          	srai	a1,a2,0x1f
    268c:	026585b3          	mul	a1,a1,t1
    2690:	02ce0e33          	mul	t3,t3,a2
    2694:	01c585b3          	add	a1,a1,t3
    2698:	026606b3          	mul	a3,a2,t1
    269c:	02663633          	mulhu	a2,a2,t1
    26a0:	00c58633          	add	a2,a1,a2
    26a4:	01061613          	slli	a2,a2,0x10
    26a8:	0106d693          	srli	a3,a3,0x10
    26ac:	00d606b3          	add	a3,a2,a3
    26b0:	00010637          	lui	a2,0x10
    26b4:	00c686b3          	add	a3,a3,a2
    26b8:	41f6d593          	srai	a1,a3,0x1f
    26bc:	02f585b3          	mul	a1,a1,a5
    26c0:	02d888b3          	mul	a7,a7,a3
    26c4:	011585b3          	add	a1,a1,a7
    26c8:	02f68633          	mul	a2,a3,a5
    26cc:	02f6b6b3          	mulhu	a3,a3,a5
    26d0:	00d587b3          	add	a5,a1,a3
    26d4:	01079793          	slli	a5,a5,0x10
    26d8:	01065613          	srli	a2,a2,0x10
    26dc:	00c78633          	add	a2,a5,a2
    26e0:	02c80633          	mul	a2,a6,a2
    26e4:	0c060863          	beqz	a2,27b4 <T7_start+0x240>
    26e8:	41f75893          	srai	a7,a4,0x1f
    26ec:	02e887b3          	mul	a5,a7,a4
    26f0:	02e705b3          	mul	a1,a4,a4
    26f4:	02e736b3          	mulhu	a3,a4,a4
    26f8:	20d7a7b3          	sh1add	a5,a5,a3
    26fc:	01079793          	slli	a5,a5,0x10
    2700:	0105d593          	srli	a1,a1,0x10
    2704:	00b785b3          	add	a1,a5,a1
    2708:	41f5d313          	srai	t1,a1,0x1f
    270c:	1f300813          	li	a6,499
    2710:	030307b3          	mul	a5,t1,a6
    2714:	030586b3          	mul	a3,a1,a6
    2718:	0305b833          	mulhu	a6,a1,a6
    271c:	010787b3          	add	a5,a5,a6
    2720:	01079793          	slli	a5,a5,0x10
    2724:	0106d693          	srli	a3,a3,0x10
    2728:	00d786b3          	add	a3,a5,a3
    272c:	ffffd7b7          	lui	a5,0xffffd
    2730:	57e78793          	addi	a5,a5,1406 # ffffd57e <_sp+0xfffd343e>
    2734:	00f686b3          	add	a3,a3,a5
    2738:	41f6d813          	srai	a6,a3,0x1f
    273c:	02b80833          	mul	a6,a6,a1
    2740:	02d30333          	mul	t1,t1,a3
    2744:	00680833          	add	a6,a6,t1
    2748:	02b687b3          	mul	a5,a3,a1
    274c:	02b6b6b3          	mulhu	a3,a3,a1
    2750:	00d806b3          	add	a3,a6,a3
    2754:	01069693          	slli	a3,a3,0x10
    2758:	0107d793          	srli	a5,a5,0x10
    275c:	00f687b3          	add	a5,a3,a5
    2760:	000106b7          	lui	a3,0x10
    2764:	00d787b3          	add	a5,a5,a3
    2768:	41f7d693          	srai	a3,a5,0x1f
    276c:	02e686b3          	mul	a3,a3,a4
    2770:	02f888b3          	mul	a7,a7,a5
    2774:	011686b3          	add	a3,a3,a7
    2778:	02e785b3          	mul	a1,a5,a4
    277c:	02e7b7b3          	mulhu	a5,a5,a4
    2780:	00f687b3          	add	a5,a3,a5
    2784:	01079793          	slli	a5,a5,0x10
    2788:	0105d713          	srli	a4,a1,0x10
    278c:	00e78733          	add	a4,a5,a4
    2790:	02e50533          	mul	a0,a0,a4
    2794:	41f55793          	srai	a5,a0,0x1f
    2798:	01055593          	srli	a1,a0,0x10
    279c:	01079793          	slli	a5,a5,0x10
    27a0:	41f65693          	srai	a3,a2,0x1f
    27a4:	01051513          	slli	a0,a0,0x10
    27a8:	00f585b3          	add	a1,a1,a5
    27ac:	241060ef          	jal	91ec <__divdi3>
    27b0:	00050613          	mv	a2,a0
    27b4:	06c12623          	sw	a2,108(sp)
    27b8:	004aa783          	lw	a5,4(s5)
    27bc:	40fb87b3          	sub	a5,s7,a5
    27c0:	06f12823          	sw	a5,112(sp)
    27c4:	00492783          	lw	a5,4(s2)
    27c8:	00010737          	lui	a4,0x10
    27cc:	18078e63          	beqz	a5,2968 <T7_start+0x3f4>
    27d0:	40f00633          	neg	a2,a5
    27d4:	0ac7e633          	max	a2,a5,a2
    27d8:	41f65693          	srai	a3,a2,0x1f
    27dc:	000175b7          	lui	a1,0x17
    27e0:	15458593          	addi	a1,a1,340 # 17154 <heap.cpp.6b15d6f6+0x5003>
    27e4:	02b686b3          	mul	a3,a3,a1
    27e8:	02b60733          	mul	a4,a2,a1
    27ec:	02b63633          	mulhu	a2,a2,a1
    27f0:	00c686b3          	add	a3,a3,a2
    27f4:	01069693          	slli	a3,a3,0x10
    27f8:	01075713          	srli	a4,a4,0x10
    27fc:	00e68733          	add	a4,a3,a4
    2800:	000086b7          	lui	a3,0x8
    2804:	00d70733          	add	a4,a4,a3
    2808:	ffff06b7          	lui	a3,0xffff0
    280c:	00d77733          	and	a4,a4,a3
    2810:	00070b93          	mv	s7,a4
    2814:	2607cc63          	bltz	a5,2a8c <T7_end+0x118>
    2818:	41fbd713          	srai	a4,s7,0x1f
    281c:	0000b6b7          	lui	a3,0xb
    2820:	17268693          	addi	a3,a3,370 # b172 <__power_manager_start+0x172>
    2824:	02d70733          	mul	a4,a4,a3
    2828:	02db8633          	mul	a2,s7,a3
    282c:	02dbb6b3          	mulhu	a3,s7,a3
    2830:	00d70733          	add	a4,a4,a3
    2834:	01071713          	slli	a4,a4,0x10
    2838:	01065693          	srli	a3,a2,0x10
    283c:	00d706b3          	add	a3,a4,a3
    2840:	40d787b3          	sub	a5,a5,a3
    2844:	41f7d713          	srai	a4,a5,0x1f
    2848:	02f70733          	mul	a4,a4,a5
    284c:	02f78633          	mul	a2,a5,a5
    2850:	02f7b6b3          	mulhu	a3,a5,a5
    2854:	20d72733          	sh1add	a4,a4,a3
    2858:	01071713          	slli	a4,a4,0x10
    285c:	01065613          	srli	a2,a2,0x10
    2860:	00c70633          	add	a2,a4,a2
    2864:	41f65513          	srai	a0,a2,0x1f
    2868:	01e65713          	srli	a4,a2,0x1e
    286c:	20e54733          	sh2add	a4,a0,a4
    2870:	00261693          	slli	a3,a2,0x2
    2874:	01071713          	slli	a4,a4,0x10
    2878:	0106d693          	srli	a3,a3,0x10
    287c:	00d706b3          	add	a3,a4,a3
    2880:	f4a68693          	addi	a3,a3,-182
    2884:	41f6d593          	srai	a1,a3,0x1f
    2888:	02c585b3          	mul	a1,a1,a2
    288c:	02d50733          	mul	a4,a0,a3
    2890:	00e585b3          	add	a1,a1,a4
    2894:	02c68733          	mul	a4,a3,a2
    2898:	02c6b6b3          	mulhu	a3,a3,a2
    289c:	00d586b3          	add	a3,a1,a3
    28a0:	01069693          	slli	a3,a3,0x10
    28a4:	01075713          	srli	a4,a4,0x10
    28a8:	00e68733          	add	a4,a3,a4
    28ac:	000036b7          	lui	a3,0x3
    28b0:	aab68693          	addi	a3,a3,-1365 # 2aab <T7_end+0x137>
    28b4:	00d70733          	add	a4,a4,a3
    28b8:	41f75693          	srai	a3,a4,0x1f
    28bc:	02c686b3          	mul	a3,a3,a2
    28c0:	02e50533          	mul	a0,a0,a4
    28c4:	00a686b3          	add	a3,a3,a0
    28c8:	02c705b3          	mul	a1,a4,a2
    28cc:	02c73733          	mulhu	a4,a4,a2
    28d0:	00e68733          	add	a4,a3,a4
    28d4:	01071713          	slli	a4,a4,0x10
    28d8:	0105d693          	srli	a3,a1,0x10
    28dc:	00d706b3          	add	a3,a4,a3
    28e0:	00020737          	lui	a4,0x20
    28e4:	00e686b3          	add	a3,a3,a4
    28e8:	40f68633          	sub	a2,a3,a5
    28ec:	02f68c63          	beq	a3,a5,2924 <T7_start+0x3b0>
    28f0:	00f7d713          	srli	a4,a5,0xf
    28f4:	01179793          	slli	a5,a5,0x11
    28f8:	01071713          	slli	a4,a4,0x10
    28fc:	0107d793          	srli	a5,a5,0x10
    2900:	00f707b3          	add	a5,a4,a5
    2904:	41f7d713          	srai	a4,a5,0x1f
    2908:	0107d593          	srli	a1,a5,0x10
    290c:	01071713          	slli	a4,a4,0x10
    2910:	41f65693          	srai	a3,a2,0x1f
    2914:	01079513          	slli	a0,a5,0x10
    2918:	00e585b3          	add	a1,a1,a4
    291c:	0d1060ef          	jal	91ec <__divdi3>
    2920:	00050613          	mv	a2,a0
    2924:	000107b7          	lui	a5,0x10
    2928:	00f606b3          	add	a3,a2,a5
    292c:	160bc663          	bltz	s7,2a98 <T7_end+0x124>
    2930:	410bd713          	srai	a4,s7,0x10
    2934:	000107b7          	lui	a5,0x10
    2938:	00e797b3          	sll	a5,a5,a4
    293c:	41f7d713          	srai	a4,a5,0x1f
    2940:	41f6d613          	srai	a2,a3,0x1f
    2944:	02d70733          	mul	a4,a4,a3
    2948:	02f60633          	mul	a2,a2,a5
    294c:	00c70733          	add	a4,a4,a2
    2950:	02d78633          	mul	a2,a5,a3
    2954:	02d7b7b3          	mulhu	a5,a5,a3
    2958:	00f70733          	add	a4,a4,a5
    295c:	01071713          	slli	a4,a4,0x10
    2960:	01065793          	srli	a5,a2,0x10
    2964:	00f70733          	add	a4,a4,a5
    2968:	06e12a23          	sw	a4,116(sp)
    296c:	0004a783          	lw	a5,0(s1)
    2970:	06f12c23          	sw	a5,120(sp)

00002974 <T7_end>:
    2974:	b00027f3          	csrr	a5,mcycle
    2978:	418787b3          	sub	a5,a5,s8
    297c:	00f9ae23          	sw	a5,28(s3)
    2980:	06c12683          	lw	a3,108(sp)
    2984:	07012703          	lw	a4,112(sp)
    2988:	00100793          	li	a5,1
    298c:	00d75663          	bge	a4,a3,2998 <T7_end+0x24>
    2990:	00068713          	mv	a4,a3
    2994:	00000793          	li	a5,0
    2998:	07412683          	lw	a3,116(sp)
    299c:	10e6d863          	bge	a3,a4,2aac <T7_end+0x138>
    29a0:	00070693          	mv	a3,a4
    29a4:	07812703          	lw	a4,120(sp)
    29a8:	00d74463          	blt	a4,a3,29b0 <T7_end+0x3c>
    29ac:	00300793          	li	a5,3
    29b0:	00020737          	lui	a4,0x20
    29b4:	000206b7          	lui	a3,0x20
    29b8:	0ec68693          	addi	a3,a3,236 # 200ec <next.16>
    29bc:	20d7c7b3          	sh2add	a5,a5,a3
    29c0:	0007a783          	lw	a5,0(a5) # 10000 <syscalls.c.42d7056b+0xb1c>
    29c4:	14070713          	addi	a4,a4,320 # 20140 <jump_table.24>
    29c8:	20e7c7b3          	sh2add	a5,a5,a4
    29cc:	0007a803          	lw	a6,0(a5)
    29d0:	9c8fe06f          	j	b98 <inferenceTPG+0x48>
    29d4:	000657b7          	lui	a5,0x65
    29d8:	87e78793          	addi	a5,a5,-1922 # 6487e <_sp+0x3a73e>
    29dc:	00f70733          	add	a4,a4,a5
    29e0:	bd1ff06f          	j	25b0 <T7_start+0x3c>
    29e4:	fffce7b7          	lui	a5,0xfffce
    29e8:	bc078793          	addi	a5,a5,-1088 # fffcdbc0 <_sp+0xfffa3a80>
    29ec:	00f707b3          	add	a5,a4,a5
    29f0:	000196b7          	lui	a3,0x19
    29f4:	21f68693          	addi	a3,a3,543 # 1921f <heap.cpp.6b15d6f6+0x70ce>
    29f8:	00f6ec63          	bltu	a3,a5,2a10 <T7_end+0x9c>
    29fc:	fffce7b7          	lui	a5,0xfffce
    2a00:	bc178793          	addi	a5,a5,-1087 # fffcdbc1 <_sp+0xfffa3a81>
    2a04:	00f70733          	add	a4,a4,a5
    2a08:	fff00513          	li	a0,-1
    2a0c:	bcdff06f          	j	25d8 <T7_start+0x64>
    2a10:	0004b7b7          	lui	a5,0x4b
    2a14:	65f78793          	addi	a5,a5,1631 # 4b65f <_sp+0x2151f>
    2a18:	00100513          	li	a0,1
    2a1c:	bae7dee3          	bge	a5,a4,25d8 <T7_start+0x64>
    2a20:	000657b7          	lui	a5,0x65
    2a24:	87e78793          	addi	a5,a5,-1922 # 6487e <_sp+0x3a73e>
    2a28:	40e78733          	sub	a4,a5,a4
    2a2c:	fff00513          	li	a0,-1
    2a30:	ba9ff06f          	j	25d8 <T7_start+0x64>
    2a34:	00c787b3          	add	a5,a5,a2
    2a38:	bd9ff06f          	j	2610 <T7_start+0x9c>
    2a3c:	fffce6b7          	lui	a3,0xfffce
    2a40:	bc068693          	addi	a3,a3,-1088 # fffcdbc0 <_sp+0xfffa3a80>
    2a44:	00d786b3          	add	a3,a5,a3
    2a48:	00019637          	lui	a2,0x19
    2a4c:	21f60613          	addi	a2,a2,543 # 1921f <heap.cpp.6b15d6f6+0x70ce>
    2a50:	00d66c63          	bltu	a2,a3,2a68 <T7_end+0xf4>
    2a54:	fffce6b7          	lui	a3,0xfffce
    2a58:	bc168693          	addi	a3,a3,-1087 # fffcdbc1 <_sp+0xfffa3a81>
    2a5c:	00d787b3          	add	a5,a5,a3
    2a60:	fff00813          	li	a6,-1
    2a64:	bd5ff06f          	j	2638 <T7_start+0xc4>
    2a68:	0004b6b7          	lui	a3,0x4b
    2a6c:	65f68693          	addi	a3,a3,1631 # 4b65f <_sp+0x2151f>
    2a70:	00100813          	li	a6,1
    2a74:	bcf6d2e3          	bge	a3,a5,2638 <T7_start+0xc4>
    2a78:	000656b7          	lui	a3,0x65
    2a7c:	87e68693          	addi	a3,a3,-1922 # 6487e <_sp+0x3a73e>
    2a80:	40f687b3          	sub	a5,a3,a5
    2a84:	fff00813          	li	a6,-1
    2a88:	bb1ff06f          	j	2638 <T7_start+0xc4>
    2a8c:	40e00733          	neg	a4,a4
    2a90:	00070b93          	mv	s7,a4
    2a94:	d85ff06f          	j	2818 <T7_start+0x2a4>
    2a98:	41700733          	neg	a4,s7
    2a9c:	41075713          	srai	a4,a4,0x10
    2aa0:	000107b7          	lui	a5,0x10
    2aa4:	40e7d7b3          	sra	a5,a5,a4
    2aa8:	e95ff06f          	j	293c <T7_start+0x3c8>
    2aac:	00200793          	li	a5,2
    2ab0:	ef5ff06f          	j	29a4 <T7_end+0x30>

00002ab4 <T8_start>:
    2ab4:	b00027f3          	csrr	a5,mcycle
    2ab8:	00078c13          	mv	s8,a5
    2abc:	0004a783          	lw	a5,0(s1)
    2ac0:	04f12423          	sw	a5,72(sp)
    2ac4:	00892783          	lw	a5,8(s2)
    2ac8:	00010737          	lui	a4,0x10
    2acc:	18078e63          	beqz	a5,2c68 <T8_start+0x1b4>
    2ad0:	40f00633          	neg	a2,a5
    2ad4:	0ac7e633          	max	a2,a5,a2
    2ad8:	41f65693          	srai	a3,a2,0x1f
    2adc:	000175b7          	lui	a1,0x17
    2ae0:	15458593          	addi	a1,a1,340 # 17154 <heap.cpp.6b15d6f6+0x5003>
    2ae4:	02b686b3          	mul	a3,a3,a1
    2ae8:	02b60733          	mul	a4,a2,a1
    2aec:	02b63633          	mulhu	a2,a2,a1
    2af0:	00c686b3          	add	a3,a3,a2
    2af4:	01069693          	slli	a3,a3,0x10
    2af8:	01075713          	srli	a4,a4,0x10
    2afc:	00e68733          	add	a4,a3,a4
    2b00:	000086b7          	lui	a3,0x8
    2b04:	00d70733          	add	a4,a4,a3
    2b08:	ffff06b7          	lui	a3,0xffff0
    2b0c:	00d77733          	and	a4,a4,a3
    2b10:	00070b93          	mv	s7,a4
    2b14:	3407ca63          	bltz	a5,2e68 <T8_end+0x54>
    2b18:	41fbd713          	srai	a4,s7,0x1f
    2b1c:	0000b6b7          	lui	a3,0xb
    2b20:	17268693          	addi	a3,a3,370 # b172 <__power_manager_start+0x172>
    2b24:	02d70733          	mul	a4,a4,a3
    2b28:	02db8633          	mul	a2,s7,a3
    2b2c:	02dbb6b3          	mulhu	a3,s7,a3
    2b30:	00d70733          	add	a4,a4,a3
    2b34:	01071713          	slli	a4,a4,0x10
    2b38:	01065693          	srli	a3,a2,0x10
    2b3c:	00d706b3          	add	a3,a4,a3
    2b40:	40d787b3          	sub	a5,a5,a3
    2b44:	41f7d713          	srai	a4,a5,0x1f
    2b48:	02f70733          	mul	a4,a4,a5
    2b4c:	02f78633          	mul	a2,a5,a5
    2b50:	02f7b6b3          	mulhu	a3,a5,a5
    2b54:	20d72733          	sh1add	a4,a4,a3
    2b58:	01071713          	slli	a4,a4,0x10
    2b5c:	01065613          	srli	a2,a2,0x10
    2b60:	00c70633          	add	a2,a4,a2
    2b64:	41f65513          	srai	a0,a2,0x1f
    2b68:	01e65713          	srli	a4,a2,0x1e
    2b6c:	20e54733          	sh2add	a4,a0,a4
    2b70:	00261693          	slli	a3,a2,0x2
    2b74:	01071713          	slli	a4,a4,0x10
    2b78:	0106d693          	srli	a3,a3,0x10
    2b7c:	00d706b3          	add	a3,a4,a3
    2b80:	f4a68693          	addi	a3,a3,-182
    2b84:	41f6d593          	srai	a1,a3,0x1f
    2b88:	02c585b3          	mul	a1,a1,a2
    2b8c:	02d50733          	mul	a4,a0,a3
    2b90:	00e585b3          	add	a1,a1,a4
    2b94:	02c68733          	mul	a4,a3,a2
    2b98:	02c6b6b3          	mulhu	a3,a3,a2
    2b9c:	00d586b3          	add	a3,a1,a3
    2ba0:	01069693          	slli	a3,a3,0x10
    2ba4:	01075713          	srli	a4,a4,0x10
    2ba8:	00e68733          	add	a4,a3,a4
    2bac:	000036b7          	lui	a3,0x3
    2bb0:	aab68693          	addi	a3,a3,-1365 # 2aab <T7_end+0x137>
    2bb4:	00d70733          	add	a4,a4,a3
    2bb8:	41f75693          	srai	a3,a4,0x1f
    2bbc:	02c686b3          	mul	a3,a3,a2
    2bc0:	02e50533          	mul	a0,a0,a4
    2bc4:	00a686b3          	add	a3,a3,a0
    2bc8:	02c705b3          	mul	a1,a4,a2
    2bcc:	02c73733          	mulhu	a4,a4,a2
    2bd0:	00e68733          	add	a4,a3,a4
    2bd4:	01071713          	slli	a4,a4,0x10
    2bd8:	0105d693          	srli	a3,a1,0x10
    2bdc:	00d706b3          	add	a3,a4,a3
    2be0:	00020737          	lui	a4,0x20
    2be4:	00e686b3          	add	a3,a3,a4
    2be8:	40f68633          	sub	a2,a3,a5
    2bec:	02f68c63          	beq	a3,a5,2c24 <T8_start+0x170>
    2bf0:	00f7d713          	srli	a4,a5,0xf
    2bf4:	01179793          	slli	a5,a5,0x11
    2bf8:	01071713          	slli	a4,a4,0x10
    2bfc:	0107d793          	srli	a5,a5,0x10
    2c00:	00f707b3          	add	a5,a4,a5
    2c04:	41f7d713          	srai	a4,a5,0x1f
    2c08:	0107d593          	srli	a1,a5,0x10
    2c0c:	01071713          	slli	a4,a4,0x10
    2c10:	41f65693          	srai	a3,a2,0x1f
    2c14:	01079513          	slli	a0,a5,0x10
    2c18:	00e585b3          	add	a1,a1,a4
    2c1c:	5d0060ef          	jal	91ec <__divdi3>
    2c20:	00050613          	mv	a2,a0
    2c24:	000107b7          	lui	a5,0x10
    2c28:	00f606b3          	add	a3,a2,a5
    2c2c:	240bc463          	bltz	s7,2e74 <T8_end+0x60>
    2c30:	410bd713          	srai	a4,s7,0x10
    2c34:	000107b7          	lui	a5,0x10
    2c38:	00e797b3          	sll	a5,a5,a4
    2c3c:	41f7d713          	srai	a4,a5,0x1f
    2c40:	41f6d613          	srai	a2,a3,0x1f
    2c44:	02d70733          	mul	a4,a4,a3
    2c48:	02f60633          	mul	a2,a2,a5
    2c4c:	00c70733          	add	a4,a4,a2
    2c50:	02d78633          	mul	a2,a5,a3
    2c54:	02d7b7b3          	mulhu	a5,a5,a3
    2c58:	00f70733          	add	a4,a4,a5
    2c5c:	01071713          	slli	a4,a4,0x10
    2c60:	01065793          	srli	a5,a2,0x10
    2c64:	00f70733          	add	a4,a4,a5
    2c68:	04e12623          	sw	a4,76(sp)
    2c6c:	00092783          	lw	a5,0(s2)
    2c70:	00010737          	lui	a4,0x10
    2c74:	18078e63          	beqz	a5,2e10 <T8_start+0x35c>
    2c78:	40f00633          	neg	a2,a5
    2c7c:	0ac7e633          	max	a2,a5,a2
    2c80:	41f65693          	srai	a3,a2,0x1f
    2c84:	000175b7          	lui	a1,0x17
    2c88:	15458593          	addi	a1,a1,340 # 17154 <heap.cpp.6b15d6f6+0x5003>
    2c8c:	02b686b3          	mul	a3,a3,a1
    2c90:	02b60733          	mul	a4,a2,a1
    2c94:	02b63633          	mulhu	a2,a2,a1
    2c98:	00c686b3          	add	a3,a3,a2
    2c9c:	01069693          	slli	a3,a3,0x10
    2ca0:	01075713          	srli	a4,a4,0x10
    2ca4:	00e68733          	add	a4,a3,a4
    2ca8:	000086b7          	lui	a3,0x8
    2cac:	00d70733          	add	a4,a4,a3
    2cb0:	ffff06b7          	lui	a3,0xffff0
    2cb4:	00d77733          	and	a4,a4,a3
    2cb8:	00070b93          	mv	s7,a4
    2cbc:	1c07c663          	bltz	a5,2e88 <T8_end+0x74>
    2cc0:	41fbd713          	srai	a4,s7,0x1f
    2cc4:	0000b6b7          	lui	a3,0xb
    2cc8:	17268693          	addi	a3,a3,370 # b172 <__power_manager_start+0x172>
    2ccc:	02d70733          	mul	a4,a4,a3
    2cd0:	02db8633          	mul	a2,s7,a3
    2cd4:	02dbb6b3          	mulhu	a3,s7,a3
    2cd8:	00d70733          	add	a4,a4,a3
    2cdc:	01071713          	slli	a4,a4,0x10
    2ce0:	01065693          	srli	a3,a2,0x10
    2ce4:	00d706b3          	add	a3,a4,a3
    2ce8:	40d787b3          	sub	a5,a5,a3
    2cec:	41f7d713          	srai	a4,a5,0x1f
    2cf0:	02f70733          	mul	a4,a4,a5
    2cf4:	02f78633          	mul	a2,a5,a5
    2cf8:	02f7b6b3          	mulhu	a3,a5,a5
    2cfc:	20d72733          	sh1add	a4,a4,a3
    2d00:	01071713          	slli	a4,a4,0x10
    2d04:	01065613          	srli	a2,a2,0x10
    2d08:	00c70633          	add	a2,a4,a2
    2d0c:	41f65513          	srai	a0,a2,0x1f
    2d10:	01e65713          	srli	a4,a2,0x1e
    2d14:	20e54733          	sh2add	a4,a0,a4
    2d18:	00261693          	slli	a3,a2,0x2
    2d1c:	01071713          	slli	a4,a4,0x10
    2d20:	0106d693          	srli	a3,a3,0x10
    2d24:	00d706b3          	add	a3,a4,a3
    2d28:	f4a68693          	addi	a3,a3,-182
    2d2c:	41f6d593          	srai	a1,a3,0x1f
    2d30:	02c585b3          	mul	a1,a1,a2
    2d34:	02d50733          	mul	a4,a0,a3
    2d38:	00e585b3          	add	a1,a1,a4
    2d3c:	02c68733          	mul	a4,a3,a2
    2d40:	02c6b6b3          	mulhu	a3,a3,a2
    2d44:	00d586b3          	add	a3,a1,a3
    2d48:	01069693          	slli	a3,a3,0x10
    2d4c:	01075713          	srli	a4,a4,0x10
    2d50:	00e68733          	add	a4,a3,a4
    2d54:	000036b7          	lui	a3,0x3
    2d58:	aab68693          	addi	a3,a3,-1365 # 2aab <T7_end+0x137>
    2d5c:	00d70733          	add	a4,a4,a3
    2d60:	41f75693          	srai	a3,a4,0x1f
    2d64:	02c686b3          	mul	a3,a3,a2
    2d68:	02e50533          	mul	a0,a0,a4
    2d6c:	00a686b3          	add	a3,a3,a0
    2d70:	02c705b3          	mul	a1,a4,a2
    2d74:	02c73733          	mulhu	a4,a4,a2
    2d78:	00e68733          	add	a4,a3,a4
    2d7c:	01071713          	slli	a4,a4,0x10
    2d80:	0105d693          	srli	a3,a1,0x10
    2d84:	00d706b3          	add	a3,a4,a3
    2d88:	00020737          	lui	a4,0x20
    2d8c:	00e686b3          	add	a3,a3,a4
    2d90:	40f68633          	sub	a2,a3,a5
    2d94:	02f68c63          	beq	a3,a5,2dcc <T8_start+0x318>
    2d98:	00f7d713          	srli	a4,a5,0xf
    2d9c:	01179793          	slli	a5,a5,0x11
    2da0:	01071713          	slli	a4,a4,0x10
    2da4:	0107d793          	srli	a5,a5,0x10
    2da8:	00f707b3          	add	a5,a4,a5
    2dac:	41f7d713          	srai	a4,a5,0x1f
    2db0:	0107d593          	srli	a1,a5,0x10
    2db4:	01071713          	slli	a4,a4,0x10
    2db8:	41f65693          	srai	a3,a2,0x1f
    2dbc:	01079513          	slli	a0,a5,0x10
    2dc0:	00e585b3          	add	a1,a1,a4
    2dc4:	428060ef          	jal	91ec <__divdi3>
    2dc8:	00050613          	mv	a2,a0
    2dcc:	000107b7          	lui	a5,0x10
    2dd0:	00f606b3          	add	a3,a2,a5
    2dd4:	0c0bc063          	bltz	s7,2e94 <T8_end+0x80>
    2dd8:	410bd713          	srai	a4,s7,0x10
    2ddc:	000107b7          	lui	a5,0x10
    2de0:	00e797b3          	sll	a5,a5,a4
    2de4:	41f7d713          	srai	a4,a5,0x1f
    2de8:	41f6d613          	srai	a2,a3,0x1f
    2dec:	02d70733          	mul	a4,a4,a3
    2df0:	02f60633          	mul	a2,a2,a5
    2df4:	00c70733          	add	a4,a4,a2
    2df8:	02d78633          	mul	a2,a5,a3
    2dfc:	02d7b7b3          	mulhu	a5,a5,a3
    2e00:	00f70733          	add	a4,a4,a5
    2e04:	01071713          	slli	a4,a4,0x10
    2e08:	01065793          	srli	a5,a2,0x10
    2e0c:	00f70733          	add	a4,a4,a5
    2e10:	04e12823          	sw	a4,80(sp)

00002e14 <T8_end>:
    2e14:	b00027f3          	csrr	a5,mcycle
    2e18:	418787b3          	sub	a5,a5,s8
    2e1c:	02f9a023          	sw	a5,32(s3)
    2e20:	04812683          	lw	a3,72(sp)
    2e24:	04c12703          	lw	a4,76(sp)
    2e28:	00100793          	li	a5,1
    2e2c:	00d75663          	bge	a4,a3,2e38 <T8_end+0x24>
    2e30:	00068713          	mv	a4,a3
    2e34:	00000793          	li	a5,0
    2e38:	05012683          	lw	a3,80(sp)
    2e3c:	00e6c463          	blt	a3,a4,2e44 <T8_end+0x30>
    2e40:	00200793          	li	a5,2
    2e44:	00020737          	lui	a4,0x20
    2e48:	000206b7          	lui	a3,0x20
    2e4c:	0e068693          	addi	a3,a3,224 # 200e0 <next.15>
    2e50:	20d7c7b3          	sh2add	a5,a5,a3
    2e54:	0007a783          	lw	a5,0(a5) # 10000 <syscalls.c.42d7056b+0xb1c>
    2e58:	14070713          	addi	a4,a4,320 # 20140 <jump_table.24>
    2e5c:	20e7c7b3          	sh2add	a5,a5,a4
    2e60:	0007a803          	lw	a6,0(a5)
    2e64:	d35fd06f          	j	b98 <inferenceTPG+0x48>
    2e68:	40e00733          	neg	a4,a4
    2e6c:	00070b93          	mv	s7,a4
    2e70:	ca9ff06f          	j	2b18 <T8_start+0x64>
    2e74:	41700733          	neg	a4,s7
    2e78:	41075713          	srai	a4,a4,0x10
    2e7c:	000107b7          	lui	a5,0x10
    2e80:	40e7d7b3          	sra	a5,a5,a4
    2e84:	db9ff06f          	j	2c3c <T8_start+0x188>
    2e88:	40e00733          	neg	a4,a4
    2e8c:	00070b93          	mv	s7,a4
    2e90:	e31ff06f          	j	2cc0 <T8_start+0x20c>
    2e94:	41700733          	neg	a4,s7
    2e98:	41075713          	srai	a4,a4,0x10
    2e9c:	000107b7          	lui	a5,0x10
    2ea0:	40e7d7b3          	sra	a5,a5,a4
    2ea4:	f41ff06f          	j	2de4 <T8_start+0x330>

00002ea8 <T9_start>:
    2ea8:	b00025f3          	csrr	a1,mcycle
    2eac:	0144a703          	lw	a4,20(s1)
    2eb0:	41f75793          	srai	a5,a4,0x1f
    2eb4:	0044a603          	lw	a2,4(s1)
    2eb8:	41f65693          	srai	a3,a2,0x1f
    2ebc:	02c787b3          	mul	a5,a5,a2
    2ec0:	02e686b3          	mul	a3,a3,a4
    2ec4:	00d787b3          	add	a5,a5,a3
    2ec8:	02c706b3          	mul	a3,a4,a2
    2ecc:	02c73733          	mulhu	a4,a4,a2
    2ed0:	00e787b3          	add	a5,a5,a4
    2ed4:	01079793          	slli	a5,a5,0x10
    2ed8:	0106d713          	srli	a4,a3,0x10
    2edc:	00e78733          	add	a4,a5,a4
    2ee0:	04e12a23          	sw	a4,84(sp)
    2ee4:	0004a783          	lw	a5,0(s1)
    2ee8:	00892703          	lw	a4,8(s2)
    2eec:	00e787b3          	add	a5,a5,a4
    2ef0:	008a2703          	lw	a4,8(s4)
    2ef4:	00e787b3          	add	a5,a5,a4
    2ef8:	04f12c23          	sw	a5,88(sp)
    2efc:	00092783          	lw	a5,0(s2)
    2f00:	000aa703          	lw	a4,0(s5)
    2f04:	00e787b3          	add	a5,a5,a4
    2f08:	04f12e23          	sw	a5,92(sp)

00002f0c <T9_end>:
    2f0c:	b00027f3          	csrr	a5,mcycle
    2f10:	40b787b3          	sub	a5,a5,a1
    2f14:	02f9a223          	sw	a5,36(s3)
    2f18:	05412683          	lw	a3,84(sp)
    2f1c:	05812703          	lw	a4,88(sp)
    2f20:	00100793          	li	a5,1
    2f24:	00d75663          	bge	a4,a3,2f30 <T9_end+0x24>
    2f28:	00068713          	mv	a4,a3
    2f2c:	00000793          	li	a5,0
    2f30:	05c12683          	lw	a3,92(sp)
    2f34:	00e6c463          	blt	a3,a4,2f3c <T9_end+0x30>
    2f38:	00200793          	li	a5,2
    2f3c:	00020737          	lui	a4,0x20
    2f40:	000206b7          	lui	a3,0x20
    2f44:	0d468693          	addi	a3,a3,212 # 200d4 <next.14>
    2f48:	20d7c7b3          	sh2add	a5,a5,a3
    2f4c:	0007a783          	lw	a5,0(a5) # 10000 <syscalls.c.42d7056b+0xb1c>
    2f50:	14070713          	addi	a4,a4,320 # 20140 <jump_table.24>
    2f54:	20e7c7b3          	sh2add	a5,a5,a4
    2f58:	0007a803          	lw	a6,0(a5)
    2f5c:	c3dfd06f          	j	b98 <inferenceTPG+0x48>
    2f60:	15912423          	sw	s9,328(sp)
    2f64:	15a12223          	sw	s10,324(sp)

00002f68 <T10_start>:
    2f68:	b00027f3          	csrr	a5,mcycle
    2f6c:	00078d13          	mv	s10,a5
    2f70:	00492783          	lw	a5,4(s2)
    2f74:	00010737          	lui	a4,0x10
    2f78:	18078e63          	beqz	a5,3114 <T10_start+0x1ac>
    2f7c:	40f00633          	neg	a2,a5
    2f80:	0ac7e633          	max	a2,a5,a2
    2f84:	41f65693          	srai	a3,a2,0x1f
    2f88:	000175b7          	lui	a1,0x17
    2f8c:	15458593          	addi	a1,a1,340 # 17154 <heap.cpp.6b15d6f6+0x5003>
    2f90:	02b686b3          	mul	a3,a3,a1
    2f94:	02b60733          	mul	a4,a2,a1
    2f98:	02b63633          	mulhu	a2,a2,a1
    2f9c:	00c686b3          	add	a3,a3,a2
    2fa0:	01069693          	slli	a3,a3,0x10
    2fa4:	01075713          	srli	a4,a4,0x10
    2fa8:	00e68733          	add	a4,a3,a4
    2fac:	000086b7          	lui	a3,0x8
    2fb0:	00d70733          	add	a4,a4,a3
    2fb4:	ffff06b7          	lui	a3,0xffff0
    2fb8:	00d77733          	and	a4,a4,a3
    2fbc:	00070b93          	mv	s7,a4
    2fc0:	3a07cc63          	bltz	a5,3378 <T10_end+0x24>
    2fc4:	41fbd713          	srai	a4,s7,0x1f
    2fc8:	0000b6b7          	lui	a3,0xb
    2fcc:	17268693          	addi	a3,a3,370 # b172 <__power_manager_start+0x172>
    2fd0:	02d70733          	mul	a4,a4,a3
    2fd4:	02db8633          	mul	a2,s7,a3
    2fd8:	02dbb6b3          	mulhu	a3,s7,a3
    2fdc:	00d70733          	add	a4,a4,a3
    2fe0:	01071713          	slli	a4,a4,0x10
    2fe4:	01065693          	srli	a3,a2,0x10
    2fe8:	00d706b3          	add	a3,a4,a3
    2fec:	40d787b3          	sub	a5,a5,a3
    2ff0:	41f7d713          	srai	a4,a5,0x1f
    2ff4:	02f70733          	mul	a4,a4,a5
    2ff8:	02f78633          	mul	a2,a5,a5
    2ffc:	02f7b6b3          	mulhu	a3,a5,a5
    3000:	20d72733          	sh1add	a4,a4,a3
    3004:	01071713          	slli	a4,a4,0x10
    3008:	01065613          	srli	a2,a2,0x10
    300c:	00c70633          	add	a2,a4,a2
    3010:	41f65513          	srai	a0,a2,0x1f
    3014:	01e65713          	srli	a4,a2,0x1e
    3018:	20e54733          	sh2add	a4,a0,a4
    301c:	00261693          	slli	a3,a2,0x2
    3020:	01071713          	slli	a4,a4,0x10
    3024:	0106d693          	srli	a3,a3,0x10
    3028:	00d706b3          	add	a3,a4,a3
    302c:	f4a68693          	addi	a3,a3,-182
    3030:	41f6d593          	srai	a1,a3,0x1f
    3034:	02c585b3          	mul	a1,a1,a2
    3038:	02d50733          	mul	a4,a0,a3
    303c:	00e585b3          	add	a1,a1,a4
    3040:	02c68733          	mul	a4,a3,a2
    3044:	02c6b6b3          	mulhu	a3,a3,a2
    3048:	00d586b3          	add	a3,a1,a3
    304c:	01069693          	slli	a3,a3,0x10
    3050:	01075713          	srli	a4,a4,0x10
    3054:	00e68733          	add	a4,a3,a4
    3058:	000036b7          	lui	a3,0x3
    305c:	aab68693          	addi	a3,a3,-1365 # 2aab <T7_end+0x137>
    3060:	00d70733          	add	a4,a4,a3
    3064:	41f75693          	srai	a3,a4,0x1f
    3068:	02c686b3          	mul	a3,a3,a2
    306c:	02e50533          	mul	a0,a0,a4
    3070:	00a686b3          	add	a3,a3,a0
    3074:	02c705b3          	mul	a1,a4,a2
    3078:	02c73733          	mulhu	a4,a4,a2
    307c:	00e68733          	add	a4,a3,a4
    3080:	01071713          	slli	a4,a4,0x10
    3084:	0105d693          	srli	a3,a1,0x10
    3088:	00d706b3          	add	a3,a4,a3
    308c:	00020737          	lui	a4,0x20
    3090:	00e686b3          	add	a3,a3,a4
    3094:	40f68633          	sub	a2,a3,a5
    3098:	02f68c63          	beq	a3,a5,30d0 <T10_start+0x168>
    309c:	00f7d713          	srli	a4,a5,0xf
    30a0:	01179793          	slli	a5,a5,0x11
    30a4:	01071713          	slli	a4,a4,0x10
    30a8:	0107d793          	srli	a5,a5,0x10
    30ac:	00f707b3          	add	a5,a4,a5
    30b0:	41f7d713          	srai	a4,a5,0x1f
    30b4:	0107d593          	srli	a1,a5,0x10
    30b8:	01071713          	slli	a4,a4,0x10
    30bc:	41f65693          	srai	a3,a2,0x1f
    30c0:	01079513          	slli	a0,a5,0x10
    30c4:	00e585b3          	add	a1,a1,a4
    30c8:	124060ef          	jal	91ec <__divdi3>
    30cc:	00050613          	mv	a2,a0
    30d0:	000107b7          	lui	a5,0x10
    30d4:	00f606b3          	add	a3,a2,a5
    30d8:	2a0bc663          	bltz	s7,3384 <T10_end+0x30>
    30dc:	410bd713          	srai	a4,s7,0x10
    30e0:	000107b7          	lui	a5,0x10
    30e4:	00e797b3          	sll	a5,a5,a4
    30e8:	41f7d713          	srai	a4,a5,0x1f
    30ec:	41f6d613          	srai	a2,a3,0x1f
    30f0:	02d70733          	mul	a4,a4,a3
    30f4:	02f60633          	mul	a2,a2,a5
    30f8:	00c70733          	add	a4,a4,a2
    30fc:	02d78633          	mul	a2,a5,a3
    3100:	02d7b7b3          	mulhu	a5,a5,a3
    3104:	00f70733          	add	a4,a4,a5
    3108:	01071713          	slli	a4,a4,0x10
    310c:	01065793          	srli	a5,a2,0x10
    3110:	00f70733          	add	a4,a4,a5
    3114:	12e12223          	sw	a4,292(sp)
    3118:	008aa783          	lw	a5,8(s5)
    311c:	00078c93          	mv	s9,a5
    3120:	0a07e7b3          	max	a5,a5,zero
    3124:	12f12423          	sw	a5,296(sp)
    3128:	0004a783          	lw	a5,0(s1)
    312c:	12f12623          	sw	a5,300(sp)
    3130:	0144a703          	lw	a4,20(s1)
    3134:	41f75793          	srai	a5,a4,0x1f
    3138:	0044a603          	lw	a2,4(s1)
    313c:	41f65693          	srai	a3,a2,0x1f
    3140:	02c787b3          	mul	a5,a5,a2
    3144:	02e686b3          	mul	a3,a3,a4
    3148:	00d787b3          	add	a5,a5,a3
    314c:	02c706b3          	mul	a3,a4,a2
    3150:	02c73733          	mulhu	a4,a4,a2
    3154:	00e787b3          	add	a5,a5,a4
    3158:	01079793          	slli	a5,a5,0x10
    315c:	0106d713          	srli	a4,a3,0x10
    3160:	00e78733          	add	a4,a5,a4
    3164:	12e12823          	sw	a4,304(sp)
    3168:	00092783          	lw	a5,0(s2)
    316c:	00078b93          	mv	s7,a5
    3170:	000107b7          	lui	a5,0x10
    3174:	180b8e63          	beqz	s7,3310 <T10_start+0x3a8>
    3178:	417006b3          	neg	a3,s7
    317c:	0adbe6b3          	max	a3,s7,a3
    3180:	41f6d713          	srai	a4,a3,0x1f
    3184:	00017637          	lui	a2,0x17
    3188:	15460613          	addi	a2,a2,340 # 17154 <heap.cpp.6b15d6f6+0x5003>
    318c:	02c70733          	mul	a4,a4,a2
    3190:	02c687b3          	mul	a5,a3,a2
    3194:	02c6b6b3          	mulhu	a3,a3,a2
    3198:	00d70733          	add	a4,a4,a3
    319c:	01071713          	slli	a4,a4,0x10
    31a0:	0107d793          	srli	a5,a5,0x10
    31a4:	00f707b3          	add	a5,a4,a5
    31a8:	00008737          	lui	a4,0x8
    31ac:	00e787b3          	add	a5,a5,a4
    31b0:	ffff0737          	lui	a4,0xffff0
    31b4:	00e7f7b3          	and	a5,a5,a4
    31b8:	00078c13          	mv	s8,a5
    31bc:	1c0bce63          	bltz	s7,3398 <T10_end+0x44>
    31c0:	41fc5713          	srai	a4,s8,0x1f
    31c4:	0000b6b7          	lui	a3,0xb
    31c8:	17268693          	addi	a3,a3,370 # b172 <__power_manager_start+0x172>
    31cc:	02d70733          	mul	a4,a4,a3
    31d0:	02dc07b3          	mul	a5,s8,a3
    31d4:	02dc36b3          	mulhu	a3,s8,a3
    31d8:	00d70733          	add	a4,a4,a3
    31dc:	01071713          	slli	a4,a4,0x10
    31e0:	0107d793          	srli	a5,a5,0x10
    31e4:	00f707b3          	add	a5,a4,a5
    31e8:	40fb87b3          	sub	a5,s7,a5
    31ec:	41f7d713          	srai	a4,a5,0x1f
    31f0:	02f70733          	mul	a4,a4,a5
    31f4:	02f78633          	mul	a2,a5,a5
    31f8:	02f7b6b3          	mulhu	a3,a5,a5
    31fc:	20d72733          	sh1add	a4,a4,a3
    3200:	01071713          	slli	a4,a4,0x10
    3204:	01065613          	srli	a2,a2,0x10
    3208:	00c70633          	add	a2,a4,a2
    320c:	41f65513          	srai	a0,a2,0x1f
    3210:	01e65713          	srli	a4,a2,0x1e
    3214:	20e54733          	sh2add	a4,a0,a4
    3218:	00261693          	slli	a3,a2,0x2
    321c:	01071713          	slli	a4,a4,0x10
    3220:	0106d693          	srli	a3,a3,0x10
    3224:	00d706b3          	add	a3,a4,a3
    3228:	f4a68693          	addi	a3,a3,-182
    322c:	41f6d593          	srai	a1,a3,0x1f
    3230:	02c585b3          	mul	a1,a1,a2
    3234:	02d50733          	mul	a4,a0,a3
    3238:	00e585b3          	add	a1,a1,a4
    323c:	02c68733          	mul	a4,a3,a2
    3240:	02c6b6b3          	mulhu	a3,a3,a2
    3244:	00d586b3          	add	a3,a1,a3
    3248:	01069693          	slli	a3,a3,0x10
    324c:	01075713          	srli	a4,a4,0x10
    3250:	00e68733          	add	a4,a3,a4
    3254:	000036b7          	lui	a3,0x3
    3258:	aab68693          	addi	a3,a3,-1365 # 2aab <T7_end+0x137>
    325c:	00d70733          	add	a4,a4,a3
    3260:	41f75693          	srai	a3,a4,0x1f
    3264:	02c686b3          	mul	a3,a3,a2
    3268:	02e50533          	mul	a0,a0,a4
    326c:	00a686b3          	add	a3,a3,a0
    3270:	02c705b3          	mul	a1,a4,a2
    3274:	02c73733          	mulhu	a4,a4,a2
    3278:	00e68733          	add	a4,a3,a4
    327c:	01071713          	slli	a4,a4,0x10
    3280:	0105d693          	srli	a3,a1,0x10
    3284:	00d706b3          	add	a3,a4,a3
    3288:	00020737          	lui	a4,0x20
    328c:	00e686b3          	add	a3,a3,a4
    3290:	40f68633          	sub	a2,a3,a5
    3294:	02f68c63          	beq	a3,a5,32cc <T10_start+0x364>
    3298:	00f7d713          	srli	a4,a5,0xf
    329c:	01179793          	slli	a5,a5,0x11
    32a0:	01071713          	slli	a4,a4,0x10
    32a4:	0107d793          	srli	a5,a5,0x10
    32a8:	00f707b3          	add	a5,a4,a5
    32ac:	41f7d713          	srai	a4,a5,0x1f
    32b0:	0107d593          	srli	a1,a5,0x10
    32b4:	01071713          	slli	a4,a4,0x10
    32b8:	41f65693          	srai	a3,a2,0x1f
    32bc:	01079513          	slli	a0,a5,0x10
    32c0:	00e585b3          	add	a1,a1,a4
    32c4:	729050ef          	jal	91ec <__divdi3>
    32c8:	00050613          	mv	a2,a0
    32cc:	000107b7          	lui	a5,0x10
    32d0:	00f606b3          	add	a3,a2,a5
    32d4:	0c0c4863          	bltz	s8,33a4 <T10_end+0x50>
    32d8:	410c5793          	srai	a5,s8,0x10
    32dc:	00010737          	lui	a4,0x10
    32e0:	00f71733          	sll	a4,a4,a5
    32e4:	41f75793          	srai	a5,a4,0x1f
    32e8:	41f6d613          	srai	a2,a3,0x1f
    32ec:	02d787b3          	mul	a5,a5,a3
    32f0:	02e60633          	mul	a2,a2,a4
    32f4:	00c787b3          	add	a5,a5,a2
    32f8:	02d70633          	mul	a2,a4,a3
    32fc:	02d73733          	mulhu	a4,a4,a3
    3300:	00e787b3          	add	a5,a5,a4
    3304:	01079793          	slli	a5,a5,0x10
    3308:	01065713          	srli	a4,a2,0x10
    330c:	00e787b3          	add	a5,a5,a4
    3310:	12f12a23          	sw	a5,308(sp)
    3314:	004a2703          	lw	a4,4(s4)
    3318:	41f75793          	srai	a5,a4,0x1f
    331c:	41fbd693          	srai	a3,s7,0x1f
    3320:	037787b3          	mul	a5,a5,s7
    3324:	02e686b3          	mul	a3,a3,a4
    3328:	00d787b3          	add	a5,a5,a3
    332c:	037706b3          	mul	a3,a4,s7
    3330:	03773733          	mulhu	a4,a4,s7
    3334:	00e787b3          	add	a5,a5,a4
    3338:	01079793          	slli	a5,a5,0x10
    333c:	0106d713          	srli	a4,a3,0x10
    3340:	00e78733          	add	a4,a5,a4
    3344:	12e12c23          	sw	a4,312(sp)
    3348:	000aa783          	lw	a5,0(s5)
    334c:	019787b3          	add	a5,a5,s9
    3350:	12f12e23          	sw	a5,316(sp)

00003354 <T10_end>:
    3354:	b00027f3          	csrr	a5,mcycle
    3358:	41a787b3          	sub	a5,a5,s10
    335c:	02f9a423          	sw	a5,40(s3)
    3360:	12412603          	lw	a2,292(sp)
    3364:	12410713          	addi	a4,sp,292
    3368:	00000513          	li	a0,0
    336c:	00100793          	li	a5,1
    3370:	00700593          	li	a1,7
    3374:	0500006f          	j	33c4 <T10_end+0x70>
    3378:	40e00733          	neg	a4,a4
    337c:	00070b93          	mv	s7,a4
    3380:	c45ff06f          	j	2fc4 <T10_start+0x5c>
    3384:	41700733          	neg	a4,s7
    3388:	41075713          	srai	a4,a4,0x10
    338c:	000107b7          	lui	a5,0x10
    3390:	40e7d7b3          	sra	a5,a5,a4
    3394:	d55ff06f          	j	30e8 <T10_start+0x180>
    3398:	40f007b3          	neg	a5,a5
    339c:	00078c13          	mv	s8,a5
    33a0:	e21ff06f          	j	31c0 <T10_start+0x258>
    33a4:	418007b3          	neg	a5,s8
    33a8:	4107d793          	srai	a5,a5,0x10
    33ac:	00010737          	lui	a4,0x10
    33b0:	40f75733          	sra	a4,a4,a5
    33b4:	f31ff06f          	j	32e4 <T10_start+0x37c>
    33b8:	00178793          	addi	a5,a5,1 # 10001 <syscalls.c.42d7056b+0xb1d>
    33bc:	00470713          	addi	a4,a4,4 # 10004 <syscalls.c.42d7056b+0xb20>
    33c0:	00b78c63          	beq	a5,a1,33d8 <T10_end+0x84>
    33c4:	00472683          	lw	a3,4(a4)
    33c8:	fec6c8e3          	blt	a3,a2,33b8 <T10_end+0x64>
    33cc:	00068613          	mv	a2,a3
    33d0:	00078513          	mv	a0,a5
    33d4:	fe5ff06f          	j	33b8 <T10_end+0x64>
    33d8:	00020737          	lui	a4,0x20
    33dc:	000207b7          	lui	a5,0x20
    33e0:	0b878793          	addi	a5,a5,184 # 200b8 <next.13>
    33e4:	20f54533          	sh2add	a0,a0,a5
    33e8:	00052783          	lw	a5,0(a0)
    33ec:	14070713          	addi	a4,a4,320 # 20140 <jump_table.24>
    33f0:	20e7c7b3          	sh2add	a5,a5,a4
    33f4:	0007a803          	lw	a6,0(a5)
    33f8:	14812c83          	lw	s9,328(sp)
    33fc:	14412d03          	lw	s10,324(sp)
    3400:	f98fd06f          	j	b98 <inferenceTPG+0x48>

00003404 <T11_start>:
    3404:	b00026f3          	csrr	a3,mcycle
    3408:	0004a783          	lw	a5,0(s1)
    340c:	000aa703          	lw	a4,0(s5)
    3410:	40e78733          	sub	a4,a5,a4
    3414:	00e12a23          	sw	a4,20(sp)
    3418:	00892703          	lw	a4,8(s2)
    341c:	00e787b3          	add	a5,a5,a4
    3420:	008a2703          	lw	a4,8(s4)
    3424:	00e787b3          	add	a5,a5,a4
    3428:	00f12c23          	sw	a5,24(sp)

0000342c <T11_end>:
    342c:	b00027f3          	csrr	a5,mcycle
    3430:	40d787b3          	sub	a5,a5,a3
    3434:	02f9a623          	sw	a5,44(s3)
    3438:	00020737          	lui	a4,0x20
    343c:	01412783          	lw	a5,20(sp)
    3440:	01812603          	lw	a2,24(sp)
    3444:	00f627b3          	slt	a5,a2,a5
    3448:	0017b793          	seqz	a5,a5
    344c:	93c18693          	addi	a3,gp,-1732 # 21eb0 <next.12>
    3450:	20d7c7b3          	sh2add	a5,a5,a3
    3454:	0007a783          	lw	a5,0(a5)
    3458:	14070713          	addi	a4,a4,320 # 20140 <jump_table.24>
    345c:	20e7c7b3          	sh2add	a5,a5,a4
    3460:	0007a803          	lw	a6,0(a5)
    3464:	f34fd06f          	j	b98 <inferenceTPG+0x48>

00003468 <T12_start>:
    3468:	b0002873          	csrr	a6,mcycle
    346c:	00892503          	lw	a0,8(s2)
    3470:	000a2703          	lw	a4,0(s4)
    3474:	41f75793          	srai	a5,a4,0x1f
    3478:	41f55693          	srai	a3,a0,0x1f
    347c:	02a787b3          	mul	a5,a5,a0
    3480:	02e686b3          	mul	a3,a3,a4
    3484:	00d787b3          	add	a5,a5,a3
    3488:	02a706b3          	mul	a3,a4,a0
    348c:	02a73733          	mulhu	a4,a4,a0
    3490:	00e787b3          	add	a5,a5,a4
    3494:	01079793          	slli	a5,a5,0x10
    3498:	0106d713          	srli	a4,a3,0x10
    349c:	00e78733          	add	a4,a5,a4
    34a0:	06e12e23          	sw	a4,124(sp)
    34a4:	0004a603          	lw	a2,0(s1)
    34a8:	000aa783          	lw	a5,0(s5)
    34ac:	40f607b3          	sub	a5,a2,a5
    34b0:	08f12023          	sw	a5,128(sp)
    34b4:	0044a683          	lw	a3,4(s1)
    34b8:	517cd7b7          	lui	a5,0x517cd
    34bc:	c8378793          	addi	a5,a5,-893 # 517ccc83 <_sp+0x517a2b43>
    34c0:	02f697b3          	mulh	a5,a3,a5
    34c4:	4117d793          	srai	a5,a5,0x11
    34c8:	41f6d713          	srai	a4,a3,0x1f
    34cc:	40e787b3          	sub	a5,a5,a4
    34d0:	00065737          	lui	a4,0x65
    34d4:	87e70713          	addi	a4,a4,-1922 # 6487e <_sp+0x3a73e>
    34d8:	02e787b3          	mul	a5,a5,a4
    34dc:	40f687b3          	sub	a5,a3,a5
    34e0:	1407ca63          	bltz	a5,3634 <T12_end+0x60>
    34e4:	fffe7737          	lui	a4,0xfffe7
    34e8:	ddf70713          	addi	a4,a4,-545 # fffe6ddf <_sp+0xfffbcc9f>
    34ec:	00e78733          	add	a4,a5,a4
    34f0:	000196b7          	lui	a3,0x19
    34f4:	21e68693          	addi	a3,a3,542 # 1921e <heap.cpp.6b15d6f6+0x70cd>
    34f8:	14e6e663          	bltu	a3,a4,3644 <T12_end+0x70>
    34fc:	00032737          	lui	a4,0x32
    3500:	43f70713          	addi	a4,a4,1087 # 3243f <_sp+0x82ff>
    3504:	40f707b3          	sub	a5,a4,a5
    3508:	00100593          	li	a1,1
    350c:	41f7d313          	srai	t1,a5,0x1f
    3510:	02f30733          	mul	a4,t1,a5
    3514:	02f78e33          	mul	t3,a5,a5
    3518:	02f7b6b3          	mulhu	a3,a5,a5
    351c:	20d72733          	sh1add	a4,a4,a3
    3520:	01071713          	slli	a4,a4,0x10
    3524:	010e5e13          	srli	t3,t3,0x10
    3528:	01c70e33          	add	t3,a4,t3
    352c:	41fe5e93          	srai	t4,t3,0x1f
    3530:	1f300893          	li	a7,499
    3534:	031e8733          	mul	a4,t4,a7
    3538:	031e06b3          	mul	a3,t3,a7
    353c:	031e38b3          	mulhu	a7,t3,a7
    3540:	01170733          	add	a4,a4,a7
    3544:	01071713          	slli	a4,a4,0x10
    3548:	0106d693          	srli	a3,a3,0x10
    354c:	00d706b3          	add	a3,a4,a3
    3550:	ffffd737          	lui	a4,0xffffd
    3554:	57e70713          	addi	a4,a4,1406 # ffffd57e <_sp+0xfffd343e>
    3558:	00e686b3          	add	a3,a3,a4
    355c:	41f6d893          	srai	a7,a3,0x1f
    3560:	03c888b3          	mul	a7,a7,t3
    3564:	02de8eb3          	mul	t4,t4,a3
    3568:	01d888b3          	add	a7,a7,t4
    356c:	03c68733          	mul	a4,a3,t3
    3570:	03c6b6b3          	mulhu	a3,a3,t3
    3574:	00d886b3          	add	a3,a7,a3
    3578:	01069693          	slli	a3,a3,0x10
    357c:	01075713          	srli	a4,a4,0x10
    3580:	00e68733          	add	a4,a3,a4
    3584:	000106b7          	lui	a3,0x10
    3588:	00d70733          	add	a4,a4,a3
    358c:	41f75693          	srai	a3,a4,0x1f
    3590:	02f686b3          	mul	a3,a3,a5
    3594:	02e30333          	mul	t1,t1,a4
    3598:	006686b3          	add	a3,a3,t1
    359c:	02f708b3          	mul	a7,a4,a5
    35a0:	02f73733          	mulhu	a4,a4,a5
    35a4:	00e687b3          	add	a5,a3,a4
    35a8:	01079793          	slli	a5,a5,0x10
    35ac:	0108d713          	srli	a4,a7,0x10
    35b0:	00e78733          	add	a4,a5,a4
    35b4:	02e585b3          	mul	a1,a1,a4
    35b8:	0084a783          	lw	a5,8(s1)
    35bc:	00f585b3          	add	a1,a1,a5
    35c0:	08b12223          	sw	a1,132(sp)
    35c4:	00a60633          	add	a2,a2,a0
    35c8:	008a2783          	lw	a5,8(s4)
    35cc:	00f60633          	add	a2,a2,a5
    35d0:	08c12423          	sw	a2,136(sp)

000035d4 <T12_end>:
    35d4:	b00027f3          	csrr	a5,mcycle
    35d8:	410787b3          	sub	a5,a5,a6
    35dc:	02f9a823          	sw	a5,48(s3)
    35e0:	07c12683          	lw	a3,124(sp)
    35e4:	08012703          	lw	a4,128(sp)
    35e8:	00100793          	li	a5,1
    35ec:	00d75663          	bge	a4,a3,35f8 <T12_end+0x24>
    35f0:	00068713          	mv	a4,a3
    35f4:	00000793          	li	a5,0
    35f8:	08412683          	lw	a3,132(sp)
    35fc:	08e6dc63          	bge	a3,a4,3694 <T12_end+0xc0>
    3600:	00070693          	mv	a3,a4
    3604:	08812703          	lw	a4,136(sp)
    3608:	00d74463          	blt	a4,a3,3610 <T12_end+0x3c>
    360c:	00300793          	li	a5,3
    3610:	00020737          	lui	a4,0x20
    3614:	000206b7          	lui	a3,0x20
    3618:	0a868693          	addi	a3,a3,168 # 200a8 <next.11>
    361c:	20d7c7b3          	sh2add	a5,a5,a3
    3620:	0007a783          	lw	a5,0(a5)
    3624:	14070713          	addi	a4,a4,320 # 20140 <jump_table.24>
    3628:	20e7c7b3          	sh2add	a5,a5,a4
    362c:	0007a803          	lw	a6,0(a5)
    3630:	d68fd06f          	j	b98 <inferenceTPG+0x48>
    3634:	00065737          	lui	a4,0x65
    3638:	87e70713          	addi	a4,a4,-1922 # 6487e <_sp+0x3a73e>
    363c:	00e787b3          	add	a5,a5,a4
    3640:	ea5ff06f          	j	34e4 <T12_start+0x7c>
    3644:	fffce737          	lui	a4,0xfffce
    3648:	bc070713          	addi	a4,a4,-1088 # fffcdbc0 <_sp+0xfffa3a80>
    364c:	00e78733          	add	a4,a5,a4
    3650:	000196b7          	lui	a3,0x19
    3654:	21f68693          	addi	a3,a3,543 # 1921f <heap.cpp.6b15d6f6+0x70ce>
    3658:	00e6ec63          	bltu	a3,a4,3670 <T12_end+0x9c>
    365c:	fffce737          	lui	a4,0xfffce
    3660:	bc170713          	addi	a4,a4,-1087 # fffcdbc1 <_sp+0xfffa3a81>
    3664:	00e787b3          	add	a5,a5,a4
    3668:	fff00593          	li	a1,-1
    366c:	ea1ff06f          	j	350c <T12_start+0xa4>
    3670:	0004b737          	lui	a4,0x4b
    3674:	65f70713          	addi	a4,a4,1631 # 4b65f <_sp+0x2151f>
    3678:	00100593          	li	a1,1
    367c:	e8f758e3          	bge	a4,a5,350c <T12_start+0xa4>
    3680:	00065737          	lui	a4,0x65
    3684:	87e70713          	addi	a4,a4,-1922 # 6487e <_sp+0x3a73e>
    3688:	40f707b3          	sub	a5,a4,a5
    368c:	fff00593          	li	a1,-1
    3690:	e7dff06f          	j	350c <T12_start+0xa4>
    3694:	00200793          	li	a5,2
    3698:	f6dff06f          	j	3604 <T12_end+0x30>

0000369c <T13_start>:
    369c:	b00025f3          	csrr	a1,mcycle
    36a0:	00892603          	lw	a2,8(s2)
    36a4:	000a2703          	lw	a4,0(s4)
    36a8:	41f75793          	srai	a5,a4,0x1f
    36ac:	41f65693          	srai	a3,a2,0x1f
    36b0:	02c787b3          	mul	a5,a5,a2
    36b4:	02e686b3          	mul	a3,a3,a4
    36b8:	00d787b3          	add	a5,a5,a3
    36bc:	02c706b3          	mul	a3,a4,a2
    36c0:	02c73733          	mulhu	a4,a4,a2
    36c4:	00e787b3          	add	a5,a5,a4
    36c8:	01079793          	slli	a5,a5,0x10
    36cc:	0106d713          	srli	a4,a3,0x10
    36d0:	00e78733          	add	a4,a5,a4
    36d4:	08e12623          	sw	a4,140(sp)
    36d8:	0044a703          	lw	a4,4(s1)
    36dc:	0144a683          	lw	a3,20(s1)
    36e0:	41f6d793          	srai	a5,a3,0x1f
    36e4:	41f75813          	srai	a6,a4,0x1f
    36e8:	02e787b3          	mul	a5,a5,a4
    36ec:	02d80533          	mul	a0,a6,a3
    36f0:	00a787b3          	add	a5,a5,a0
    36f4:	02e68533          	mul	a0,a3,a4
    36f8:	02e6b6b3          	mulhu	a3,a3,a4
    36fc:	00d787b3          	add	a5,a5,a3
    3700:	01079793          	slli	a5,a5,0x10
    3704:	01055693          	srli	a3,a0,0x10
    3708:	00d786b3          	add	a3,a5,a3
    370c:	08d12823          	sw	a3,144(sp)
    3710:	517cd7b7          	lui	a5,0x517cd
    3714:	c8378793          	addi	a5,a5,-893 # 517ccc83 <_sp+0x517a2b43>
    3718:	02f717b3          	mulh	a5,a4,a5
    371c:	4117d793          	srai	a5,a5,0x11
    3720:	410787b3          	sub	a5,a5,a6
    3724:	000656b7          	lui	a3,0x65
    3728:	87e68693          	addi	a3,a3,-1922 # 6487e <_sp+0x3a73e>
    372c:	02d787b3          	mul	a5,a5,a3
    3730:	40f707b3          	sub	a5,a4,a5
    3734:	1407cc63          	bltz	a5,388c <T13_end+0x60>
    3738:	fffe7737          	lui	a4,0xfffe7
    373c:	ddf70713          	addi	a4,a4,-545 # fffe6ddf <_sp+0xfffbcc9f>
    3740:	00e78733          	add	a4,a5,a4
    3744:	000196b7          	lui	a3,0x19
    3748:	21e68693          	addi	a3,a3,542 # 1921e <heap.cpp.6b15d6f6+0x70cd>
    374c:	14e6e463          	bltu	a3,a4,3894 <T13_end+0x68>
    3750:	00032737          	lui	a4,0x32
    3754:	43f70713          	addi	a4,a4,1087 # 3243f <_sp+0x82ff>
    3758:	40f707b3          	sub	a5,a4,a5
    375c:	00100813          	li	a6,1
    3760:	41f7d893          	srai	a7,a5,0x1f
    3764:	02f88733          	mul	a4,a7,a5
    3768:	02f78333          	mul	t1,a5,a5
    376c:	02f7b6b3          	mulhu	a3,a5,a5
    3770:	20d72733          	sh1add	a4,a4,a3
    3774:	01071713          	slli	a4,a4,0x10
    3778:	01035313          	srli	t1,t1,0x10
    377c:	00670333          	add	t1,a4,t1
    3780:	41f35e13          	srai	t3,t1,0x1f
    3784:	1f300513          	li	a0,499
    3788:	02ae0733          	mul	a4,t3,a0
    378c:	02a306b3          	mul	a3,t1,a0
    3790:	02a33533          	mulhu	a0,t1,a0
    3794:	00a70733          	add	a4,a4,a0
    3798:	01071713          	slli	a4,a4,0x10
    379c:	0106d693          	srli	a3,a3,0x10
    37a0:	00d706b3          	add	a3,a4,a3
    37a4:	ffffd737          	lui	a4,0xffffd
    37a8:	57e70713          	addi	a4,a4,1406 # ffffd57e <_sp+0xfffd343e>
    37ac:	00e686b3          	add	a3,a3,a4
    37b0:	41f6d513          	srai	a0,a3,0x1f
    37b4:	02650533          	mul	a0,a0,t1
    37b8:	02de0e33          	mul	t3,t3,a3
    37bc:	01c50533          	add	a0,a0,t3
    37c0:	02668733          	mul	a4,a3,t1
    37c4:	0266b6b3          	mulhu	a3,a3,t1
    37c8:	00d506b3          	add	a3,a0,a3
    37cc:	01069693          	slli	a3,a3,0x10
    37d0:	01075713          	srli	a4,a4,0x10
    37d4:	00e68733          	add	a4,a3,a4
    37d8:	000106b7          	lui	a3,0x10
    37dc:	00d70733          	add	a4,a4,a3
    37e0:	41f75693          	srai	a3,a4,0x1f
    37e4:	02f686b3          	mul	a3,a3,a5
    37e8:	02e888b3          	mul	a7,a7,a4
    37ec:	011686b3          	add	a3,a3,a7
    37f0:	02f70533          	mul	a0,a4,a5
    37f4:	02f73733          	mulhu	a4,a4,a5
    37f8:	00e687b3          	add	a5,a3,a4
    37fc:	01079793          	slli	a5,a5,0x10
    3800:	01055713          	srli	a4,a0,0x10
    3804:	00e78733          	add	a4,a5,a4
    3808:	02e80833          	mul	a6,a6,a4
    380c:	0084a783          	lw	a5,8(s1)
    3810:	00f80833          	add	a6,a6,a5
    3814:	09012a23          	sw	a6,148(sp)
    3818:	0004a783          	lw	a5,0(s1)
    381c:	00f60633          	add	a2,a2,a5
    3820:	008a2783          	lw	a5,8(s4)
    3824:	00f60633          	add	a2,a2,a5
    3828:	08c12c23          	sw	a2,152(sp)

0000382c <T13_end>:
    382c:	b00027f3          	csrr	a5,mcycle
    3830:	40b787b3          	sub	a5,a5,a1
    3834:	02f9aa23          	sw	a5,52(s3)
    3838:	08c12683          	lw	a3,140(sp)
    383c:	09012703          	lw	a4,144(sp)
    3840:	00100793          	li	a5,1
    3844:	00d75663          	bge	a4,a3,3850 <T13_end+0x24>
    3848:	00068713          	mv	a4,a3
    384c:	00000793          	li	a5,0
    3850:	09412683          	lw	a3,148(sp)
    3854:	08e6d863          	bge	a3,a4,38e4 <T13_end+0xb8>
    3858:	00070693          	mv	a3,a4
    385c:	09812703          	lw	a4,152(sp)
    3860:	00d74463          	blt	a4,a3,3868 <T13_end+0x3c>
    3864:	00300793          	li	a5,3
    3868:	00020737          	lui	a4,0x20
    386c:	000206b7          	lui	a3,0x20
    3870:	09868693          	addi	a3,a3,152 # 20098 <next.10>
    3874:	20d7c7b3          	sh2add	a5,a5,a3
    3878:	0007a783          	lw	a5,0(a5)
    387c:	14070713          	addi	a4,a4,320 # 20140 <jump_table.24>
    3880:	20e7c7b3          	sh2add	a5,a5,a4
    3884:	0007a803          	lw	a6,0(a5)
    3888:	b10fd06f          	j	b98 <inferenceTPG+0x48>
    388c:	00d787b3          	add	a5,a5,a3
    3890:	ea9ff06f          	j	3738 <T13_start+0x9c>
    3894:	fffce737          	lui	a4,0xfffce
    3898:	bc070713          	addi	a4,a4,-1088 # fffcdbc0 <_sp+0xfffa3a80>
    389c:	00e78733          	add	a4,a5,a4
    38a0:	000196b7          	lui	a3,0x19
    38a4:	21f68693          	addi	a3,a3,543 # 1921f <heap.cpp.6b15d6f6+0x70ce>
    38a8:	00e6ec63          	bltu	a3,a4,38c0 <T13_end+0x94>
    38ac:	fffce737          	lui	a4,0xfffce
    38b0:	bc170713          	addi	a4,a4,-1087 # fffcdbc1 <_sp+0xfffa3a81>
    38b4:	00e787b3          	add	a5,a5,a4
    38b8:	fff00813          	li	a6,-1
    38bc:	ea5ff06f          	j	3760 <T13_start+0xc4>
    38c0:	0004b737          	lui	a4,0x4b
    38c4:	65f70713          	addi	a4,a4,1631 # 4b65f <_sp+0x2151f>
    38c8:	00100813          	li	a6,1
    38cc:	e8f75ae3          	bge	a4,a5,3760 <T13_start+0xc4>
    38d0:	00065737          	lui	a4,0x65
    38d4:	87e70713          	addi	a4,a4,-1922 # 6487e <_sp+0x3a73e>
    38d8:	40f707b3          	sub	a5,a4,a5
    38dc:	fff00813          	li	a6,-1
    38e0:	e81ff06f          	j	3760 <T13_start+0xc4>
    38e4:	00200793          	li	a5,2
    38e8:	f75ff06f          	j	385c <T13_end+0x30>

000038ec <T14_start>:
    38ec:	b00025f3          	csrr	a1,mcycle
    38f0:	0004a603          	lw	a2,0(s1)
    38f4:	0cc12823          	sw	a2,208(sp)
    38f8:	0144a703          	lw	a4,20(s1)
    38fc:	0044a503          	lw	a0,4(s1)
    3900:	00a707b3          	add	a5,a4,a0
    3904:	0cf12a23          	sw	a5,212(sp)
    3908:	41f75793          	srai	a5,a4,0x1f
    390c:	41f55693          	srai	a3,a0,0x1f
    3910:	02a787b3          	mul	a5,a5,a0
    3914:	02e686b3          	mul	a3,a3,a4
    3918:	00d787b3          	add	a5,a5,a3
    391c:	02a706b3          	mul	a3,a4,a0
    3920:	02a73733          	mulhu	a4,a4,a0
    3924:	00e787b3          	add	a5,a5,a4
    3928:	01079793          	slli	a5,a5,0x10
    392c:	0106d713          	srli	a4,a3,0x10
    3930:	00e78733          	add	a4,a5,a4
    3934:	0ce12c23          	sw	a4,216(sp)
    3938:	000a2703          	lw	a4,0(s4)
    393c:	41f75793          	srai	a5,a4,0x1f
    3940:	00892503          	lw	a0,8(s2)
    3944:	41f55693          	srai	a3,a0,0x1f
    3948:	02a787b3          	mul	a5,a5,a0
    394c:	02e686b3          	mul	a3,a3,a4
    3950:	00d787b3          	add	a5,a5,a3
    3954:	02a706b3          	mul	a3,a4,a0
    3958:	02a73733          	mulhu	a4,a4,a0
    395c:	00e787b3          	add	a5,a5,a4
    3960:	01079793          	slli	a5,a5,0x10
    3964:	0106d713          	srli	a4,a3,0x10
    3968:	00e78733          	add	a4,a5,a4
    396c:	0ce12e23          	sw	a4,220(sp)
    3970:	000aa783          	lw	a5,0(s5)
    3974:	40f60633          	sub	a2,a2,a5
    3978:	0ec12023          	sw	a2,224(sp)

0000397c <T14_end>:
    397c:	b00027f3          	csrr	a5,mcycle
    3980:	40b787b3          	sub	a5,a5,a1
    3984:	02f9ac23          	sw	a5,56(s3)
    3988:	0d012603          	lw	a2,208(sp)
    398c:	0d010713          	addi	a4,sp,208
    3990:	00000513          	li	a0,0
    3994:	00100793          	li	a5,1
    3998:	00500593          	li	a1,5
    399c:	0100006f          	j	39ac <T14_end+0x30>
    39a0:	00178793          	addi	a5,a5,1
    39a4:	00470713          	addi	a4,a4,4
    39a8:	00b78c63          	beq	a5,a1,39c0 <T14_end+0x44>
    39ac:	00472683          	lw	a3,4(a4)
    39b0:	fec6c8e3          	blt	a3,a2,39a0 <T14_end+0x24>
    39b4:	00068613          	mv	a2,a3
    39b8:	00078513          	mv	a0,a5
    39bc:	fe5ff06f          	j	39a0 <T14_end+0x24>
    39c0:	00020737          	lui	a4,0x20
    39c4:	000207b7          	lui	a5,0x20
    39c8:	08478793          	addi	a5,a5,132 # 20084 <next.9>
    39cc:	20f54533          	sh2add	a0,a0,a5
    39d0:	00052783          	lw	a5,0(a0)
    39d4:	14070713          	addi	a4,a4,320 # 20140 <jump_table.24>
    39d8:	20e7c7b3          	sh2add	a5,a5,a4
    39dc:	0007a803          	lw	a6,0(a5)
    39e0:	9b8fd06f          	j	b98 <inferenceTPG+0x48>

000039e4 <T15_start>:
    39e4:	b00026f3          	csrr	a3,mcycle
    39e8:	0004a783          	lw	a5,0(s1)
    39ec:	004a2703          	lw	a4,4(s4)
    39f0:	00f70733          	add	a4,a4,a5
    39f4:	00e12e23          	sw	a4,28(sp)
    39f8:	00892703          	lw	a4,8(s2)
    39fc:	00e787b3          	add	a5,a5,a4
    3a00:	008a2703          	lw	a4,8(s4)
    3a04:	00e787b3          	add	a5,a5,a4
    3a08:	02f12023          	sw	a5,32(sp)

00003a0c <T15_end>:
    3a0c:	b00027f3          	csrr	a5,mcycle
    3a10:	40d787b3          	sub	a5,a5,a3
    3a14:	02f9ae23          	sw	a5,60(s3)
    3a18:	00020737          	lui	a4,0x20
    3a1c:	01c12783          	lw	a5,28(sp)
    3a20:	02012603          	lw	a2,32(sp)
    3a24:	00f627b3          	slt	a5,a2,a5
    3a28:	0017b793          	seqz	a5,a5
    3a2c:	93418693          	addi	a3,gp,-1740 # 21ea8 <next.8>
    3a30:	20d7c7b3          	sh2add	a5,a5,a3
    3a34:	0007a783          	lw	a5,0(a5)
    3a38:	14070713          	addi	a4,a4,320 # 20140 <jump_table.24>
    3a3c:	20e7c7b3          	sh2add	a5,a5,a4
    3a40:	0007a803          	lw	a6,0(a5)
    3a44:	954fd06f          	j	b98 <inferenceTPG+0x48>

00003a48 <T16_start>:
    3a48:	b00027f3          	csrr	a5,mcycle
    3a4c:	00078c13          	mv	s8,a5
    3a50:	00492603          	lw	a2,4(s2)
    3a54:	00c4a783          	lw	a5,12(s1)
    3a58:	0ac7e7b3          	max	a5,a5,a2
    3a5c:	08f12e23          	sw	a5,156(sp)
    3a60:	0044a683          	lw	a3,4(s1)
    3a64:	517cd7b7          	lui	a5,0x517cd
    3a68:	c8378793          	addi	a5,a5,-893 # 517ccc83 <_sp+0x517a2b43>
    3a6c:	02f697b3          	mulh	a5,a3,a5
    3a70:	4117d793          	srai	a5,a5,0x11
    3a74:	41f6d713          	srai	a4,a3,0x1f
    3a78:	40e787b3          	sub	a5,a5,a4
    3a7c:	00065737          	lui	a4,0x65
    3a80:	87e70713          	addi	a4,a4,-1922 # 6487e <_sp+0x3a73e>
    3a84:	02e787b3          	mul	a5,a5,a4
    3a88:	40f687b3          	sub	a5,a3,a5
    3a8c:	3207c063          	bltz	a5,3dac <T16_end+0x60>
    3a90:	fffe7737          	lui	a4,0xfffe7
    3a94:	ddf70713          	addi	a4,a4,-545 # fffe6ddf <_sp+0xfffbcc9f>
    3a98:	00e78733          	add	a4,a5,a4
    3a9c:	000196b7          	lui	a3,0x19
    3aa0:	21e68693          	addi	a3,a3,542 # 1921e <heap.cpp.6b15d6f6+0x70cd>
    3aa4:	30e6ec63          	bltu	a3,a4,3dbc <T16_end+0x70>
    3aa8:	00032737          	lui	a4,0x32
    3aac:	43f70713          	addi	a4,a4,1087 # 3243f <_sp+0x82ff>
    3ab0:	40f707b3          	sub	a5,a4,a5
    3ab4:	00100513          	li	a0,1
    3ab8:	41f7d813          	srai	a6,a5,0x1f
    3abc:	02f80733          	mul	a4,a6,a5
    3ac0:	02f788b3          	mul	a7,a5,a5
    3ac4:	02f7b6b3          	mulhu	a3,a5,a5
    3ac8:	20d72733          	sh1add	a4,a4,a3
    3acc:	01071713          	slli	a4,a4,0x10
    3ad0:	0108d893          	srli	a7,a7,0x10
    3ad4:	011708b3          	add	a7,a4,a7
    3ad8:	41f8d313          	srai	t1,a7,0x1f
    3adc:	1f300593          	li	a1,499
    3ae0:	02b30733          	mul	a4,t1,a1
    3ae4:	02b886b3          	mul	a3,a7,a1
    3ae8:	02b8b5b3          	mulhu	a1,a7,a1
    3aec:	00b70733          	add	a4,a4,a1
    3af0:	01071713          	slli	a4,a4,0x10
    3af4:	0106d693          	srli	a3,a3,0x10
    3af8:	00d706b3          	add	a3,a4,a3
    3afc:	ffffd737          	lui	a4,0xffffd
    3b00:	57e70713          	addi	a4,a4,1406 # ffffd57e <_sp+0xfffd343e>
    3b04:	00e686b3          	add	a3,a3,a4
    3b08:	41f6d593          	srai	a1,a3,0x1f
    3b0c:	031585b3          	mul	a1,a1,a7
    3b10:	02d30333          	mul	t1,t1,a3
    3b14:	006585b3          	add	a1,a1,t1
    3b18:	03168733          	mul	a4,a3,a7
    3b1c:	0316b6b3          	mulhu	a3,a3,a7
    3b20:	00d586b3          	add	a3,a1,a3
    3b24:	01069693          	slli	a3,a3,0x10
    3b28:	01075713          	srli	a4,a4,0x10
    3b2c:	00e68733          	add	a4,a3,a4
    3b30:	000106b7          	lui	a3,0x10
    3b34:	00d70733          	add	a4,a4,a3
    3b38:	41f75693          	srai	a3,a4,0x1f
    3b3c:	02f686b3          	mul	a3,a3,a5
    3b40:	02e80833          	mul	a6,a6,a4
    3b44:	010686b3          	add	a3,a3,a6
    3b48:	02f705b3          	mul	a1,a4,a5
    3b4c:	02f73733          	mulhu	a4,a4,a5
    3b50:	00e687b3          	add	a5,a3,a4
    3b54:	01079793          	slli	a5,a5,0x10
    3b58:	0105d713          	srli	a4,a1,0x10
    3b5c:	00e78733          	add	a4,a5,a4
    3b60:	02e50533          	mul	a0,a0,a4
    3b64:	0084a783          	lw	a5,8(s1)
    3b68:	00f50533          	add	a0,a0,a5
    3b6c:	0aa12023          	sw	a0,160(sp)
    3b70:	000107b7          	lui	a5,0x10
    3b74:	18060e63          	beqz	a2,3d10 <T16_start+0x2c8>
    3b78:	40c006b3          	neg	a3,a2
    3b7c:	0ad666b3          	max	a3,a2,a3
    3b80:	41f6d713          	srai	a4,a3,0x1f
    3b84:	000175b7          	lui	a1,0x17
    3b88:	15458593          	addi	a1,a1,340 # 17154 <heap.cpp.6b15d6f6+0x5003>
    3b8c:	02b70733          	mul	a4,a4,a1
    3b90:	02b687b3          	mul	a5,a3,a1
    3b94:	02b6b6b3          	mulhu	a3,a3,a1
    3b98:	00d70733          	add	a4,a4,a3
    3b9c:	01071713          	slli	a4,a4,0x10
    3ba0:	0107d793          	srli	a5,a5,0x10
    3ba4:	00f707b3          	add	a5,a4,a5
    3ba8:	00008737          	lui	a4,0x8
    3bac:	00e787b3          	add	a5,a5,a4
    3bb0:	ffff0737          	lui	a4,0xffff0
    3bb4:	00e7f7b3          	and	a5,a5,a4
    3bb8:	00078b93          	mv	s7,a5
    3bbc:	24064863          	bltz	a2,3e0c <T16_end+0xc0>
    3bc0:	41fbd713          	srai	a4,s7,0x1f
    3bc4:	0000b6b7          	lui	a3,0xb
    3bc8:	17268693          	addi	a3,a3,370 # b172 <__power_manager_start+0x172>
    3bcc:	02d70733          	mul	a4,a4,a3
    3bd0:	02db87b3          	mul	a5,s7,a3
    3bd4:	02dbb6b3          	mulhu	a3,s7,a3
    3bd8:	00d70733          	add	a4,a4,a3
    3bdc:	01071713          	slli	a4,a4,0x10
    3be0:	0107d793          	srli	a5,a5,0x10
    3be4:	00f707b3          	add	a5,a4,a5
    3be8:	40f607b3          	sub	a5,a2,a5
    3bec:	41f7d713          	srai	a4,a5,0x1f
    3bf0:	02f70733          	mul	a4,a4,a5
    3bf4:	02f78633          	mul	a2,a5,a5
    3bf8:	02f7b6b3          	mulhu	a3,a5,a5
    3bfc:	20d72733          	sh1add	a4,a4,a3
    3c00:	01071713          	slli	a4,a4,0x10
    3c04:	01065613          	srli	a2,a2,0x10
    3c08:	00c70633          	add	a2,a4,a2
    3c0c:	41f65513          	srai	a0,a2,0x1f
    3c10:	01e65713          	srli	a4,a2,0x1e
    3c14:	20e54733          	sh2add	a4,a0,a4
    3c18:	00261693          	slli	a3,a2,0x2
    3c1c:	01071713          	slli	a4,a4,0x10
    3c20:	0106d693          	srli	a3,a3,0x10
    3c24:	00d706b3          	add	a3,a4,a3
    3c28:	f4a68693          	addi	a3,a3,-182
    3c2c:	41f6d593          	srai	a1,a3,0x1f
    3c30:	02c585b3          	mul	a1,a1,a2
    3c34:	02d50733          	mul	a4,a0,a3
    3c38:	00e585b3          	add	a1,a1,a4
    3c3c:	02c68733          	mul	a4,a3,a2
    3c40:	02c6b6b3          	mulhu	a3,a3,a2
    3c44:	00d586b3          	add	a3,a1,a3
    3c48:	01069693          	slli	a3,a3,0x10
    3c4c:	01075713          	srli	a4,a4,0x10
    3c50:	00e68733          	add	a4,a3,a4
    3c54:	000036b7          	lui	a3,0x3
    3c58:	aab68693          	addi	a3,a3,-1365 # 2aab <T7_end+0x137>
    3c5c:	00d70733          	add	a4,a4,a3
    3c60:	41f75693          	srai	a3,a4,0x1f
    3c64:	02c686b3          	mul	a3,a3,a2
    3c68:	02e50533          	mul	a0,a0,a4
    3c6c:	00a686b3          	add	a3,a3,a0
    3c70:	02c705b3          	mul	a1,a4,a2
    3c74:	02c73733          	mulhu	a4,a4,a2
    3c78:	00e68733          	add	a4,a3,a4
    3c7c:	01071713          	slli	a4,a4,0x10
    3c80:	0105d693          	srli	a3,a1,0x10
    3c84:	00d706b3          	add	a3,a4,a3
    3c88:	00020737          	lui	a4,0x20
    3c8c:	00e686b3          	add	a3,a3,a4
    3c90:	40f68633          	sub	a2,a3,a5
    3c94:	02f68c63          	beq	a3,a5,3ccc <T16_start+0x284>
    3c98:	00f7d713          	srli	a4,a5,0xf
    3c9c:	01179793          	slli	a5,a5,0x11
    3ca0:	01071713          	slli	a4,a4,0x10
    3ca4:	0107d793          	srli	a5,a5,0x10
    3ca8:	00f707b3          	add	a5,a4,a5
    3cac:	41f7d713          	srai	a4,a5,0x1f
    3cb0:	0107d593          	srli	a1,a5,0x10
    3cb4:	01071713          	slli	a4,a4,0x10
    3cb8:	41f65693          	srai	a3,a2,0x1f
    3cbc:	01079513          	slli	a0,a5,0x10
    3cc0:	00e585b3          	add	a1,a1,a4
    3cc4:	528050ef          	jal	91ec <__divdi3>
    3cc8:	00050613          	mv	a2,a0
    3ccc:	000107b7          	lui	a5,0x10
    3cd0:	00f606b3          	add	a3,a2,a5
    3cd4:	140bc263          	bltz	s7,3e18 <T16_end+0xcc>
    3cd8:	410bd793          	srai	a5,s7,0x10
    3cdc:	00010737          	lui	a4,0x10
    3ce0:	00f71733          	sll	a4,a4,a5
    3ce4:	41f75793          	srai	a5,a4,0x1f
    3ce8:	41f6d613          	srai	a2,a3,0x1f
    3cec:	02d787b3          	mul	a5,a5,a3
    3cf0:	02e60633          	mul	a2,a2,a4
    3cf4:	00c787b3          	add	a5,a5,a2
    3cf8:	02d70633          	mul	a2,a4,a3
    3cfc:	02d73733          	mulhu	a4,a4,a3
    3d00:	00e787b3          	add	a5,a5,a4
    3d04:	01079793          	slli	a5,a5,0x10
    3d08:	01065713          	srli	a4,a2,0x10
    3d0c:	00e787b3          	add	a5,a5,a4
    3d10:	0af12223          	sw	a5,164(sp)
    3d14:	0004a703          	lw	a4,0(s1)
    3d18:	41f75793          	srai	a5,a4,0x1f
    3d1c:	008a2603          	lw	a2,8(s4)
    3d20:	41f65693          	srai	a3,a2,0x1f
    3d24:	02c787b3          	mul	a5,a5,a2
    3d28:	02e686b3          	mul	a3,a3,a4
    3d2c:	00d787b3          	add	a5,a5,a3
    3d30:	02c706b3          	mul	a3,a4,a2
    3d34:	02c73733          	mulhu	a4,a4,a2
    3d38:	00e787b3          	add	a5,a5,a4
    3d3c:	01079793          	slli	a5,a5,0x10
    3d40:	0106d713          	srli	a4,a3,0x10
    3d44:	00e78733          	add	a4,a5,a4
    3d48:	0ae12423          	sw	a4,168(sp)

00003d4c <T16_end>:
    3d4c:	b00027f3          	csrr	a5,mcycle
    3d50:	418787b3          	sub	a5,a5,s8
    3d54:	04f9a023          	sw	a5,64(s3)
    3d58:	09c12683          	lw	a3,156(sp)
    3d5c:	0a012703          	lw	a4,160(sp)
    3d60:	00100793          	li	a5,1
    3d64:	00d75663          	bge	a4,a3,3d70 <T16_end+0x24>
    3d68:	00068713          	mv	a4,a3
    3d6c:	00000793          	li	a5,0
    3d70:	0a412683          	lw	a3,164(sp)
    3d74:	0ae6dc63          	bge	a3,a4,3e2c <T16_end+0xe0>
    3d78:	00070693          	mv	a3,a4
    3d7c:	0a812703          	lw	a4,168(sp)
    3d80:	00d74463          	blt	a4,a3,3d88 <T16_end+0x3c>
    3d84:	00300793          	li	a5,3
    3d88:	00020737          	lui	a4,0x20
    3d8c:	000206b7          	lui	a3,0x20
    3d90:	07468693          	addi	a3,a3,116 # 20074 <next.7>
    3d94:	20d7c7b3          	sh2add	a5,a5,a3
    3d98:	0007a783          	lw	a5,0(a5) # 10000 <syscalls.c.42d7056b+0xb1c>
    3d9c:	14070713          	addi	a4,a4,320 # 20140 <jump_table.24>
    3da0:	20e7c7b3          	sh2add	a5,a5,a4
    3da4:	0007a803          	lw	a6,0(a5)
    3da8:	df1fc06f          	j	b98 <inferenceTPG+0x48>
    3dac:	00065737          	lui	a4,0x65
    3db0:	87e70713          	addi	a4,a4,-1922 # 6487e <_sp+0x3a73e>
    3db4:	00e787b3          	add	a5,a5,a4
    3db8:	cd9ff06f          	j	3a90 <T16_start+0x48>
    3dbc:	fffce737          	lui	a4,0xfffce
    3dc0:	bc070713          	addi	a4,a4,-1088 # fffcdbc0 <_sp+0xfffa3a80>
    3dc4:	00e78733          	add	a4,a5,a4
    3dc8:	000196b7          	lui	a3,0x19
    3dcc:	21f68693          	addi	a3,a3,543 # 1921f <heap.cpp.6b15d6f6+0x70ce>
    3dd0:	00e6ec63          	bltu	a3,a4,3de8 <T16_end+0x9c>
    3dd4:	fffce737          	lui	a4,0xfffce
    3dd8:	bc170713          	addi	a4,a4,-1087 # fffcdbc1 <_sp+0xfffa3a81>
    3ddc:	00e787b3          	add	a5,a5,a4
    3de0:	fff00513          	li	a0,-1
    3de4:	cd5ff06f          	j	3ab8 <T16_start+0x70>
    3de8:	0004b737          	lui	a4,0x4b
    3dec:	65f70713          	addi	a4,a4,1631 # 4b65f <_sp+0x2151f>
    3df0:	00100513          	li	a0,1
    3df4:	ccf752e3          	bge	a4,a5,3ab8 <T16_start+0x70>
    3df8:	00065737          	lui	a4,0x65
    3dfc:	87e70713          	addi	a4,a4,-1922 # 6487e <_sp+0x3a73e>
    3e00:	40f707b3          	sub	a5,a4,a5
    3e04:	fff00513          	li	a0,-1
    3e08:	cb1ff06f          	j	3ab8 <T16_start+0x70>
    3e0c:	40f007b3          	neg	a5,a5
    3e10:	00078b93          	mv	s7,a5
    3e14:	dadff06f          	j	3bc0 <T16_start+0x178>
    3e18:	417007b3          	neg	a5,s7
    3e1c:	4107d793          	srai	a5,a5,0x10
    3e20:	00010737          	lui	a4,0x10
    3e24:	40f75733          	sra	a4,a4,a5
    3e28:	ebdff06f          	j	3ce4 <T16_start+0x29c>
    3e2c:	00200793          	li	a5,2
    3e30:	f4dff06f          	j	3d7c <T16_end+0x30>

00003e34 <T17_start>:
    3e34:	b0002873          	csrr	a6,mcycle
    3e38:	00492783          	lw	a5,4(s2)
    3e3c:	00c4a703          	lw	a4,12(s1)
    3e40:	0af76733          	max	a4,a4,a5
    3e44:	06e12023          	sw	a4,96(sp)
    3e48:	0004a703          	lw	a4,0(s1)
    3e4c:	00e787b3          	add	a5,a5,a4
    3e50:	008a2703          	lw	a4,8(s4)
    3e54:	00e787b3          	add	a5,a5,a4
    3e58:	06f12223          	sw	a5,100(sp)
    3e5c:	0044a683          	lw	a3,4(s1)
    3e60:	517cd7b7          	lui	a5,0x517cd
    3e64:	c8378793          	addi	a5,a5,-893 # 517ccc83 <_sp+0x517a2b43>
    3e68:	02f697b3          	mulh	a5,a3,a5
    3e6c:	4117d793          	srai	a5,a5,0x11
    3e70:	41f6d713          	srai	a4,a3,0x1f
    3e74:	40e787b3          	sub	a5,a5,a4
    3e78:	00065737          	lui	a4,0x65
    3e7c:	87e70713          	addi	a4,a4,-1922 # 6487e <_sp+0x3a73e>
    3e80:	02e787b3          	mul	a5,a5,a4
    3e84:	40f687b3          	sub	a5,a3,a5
    3e88:	1207cc63          	bltz	a5,3fc0 <T17_end+0x54>
    3e8c:	fffe7737          	lui	a4,0xfffe7
    3e90:	ddf70713          	addi	a4,a4,-545 # fffe6ddf <_sp+0xfffbcc9f>
    3e94:	00e78733          	add	a4,a5,a4
    3e98:	000196b7          	lui	a3,0x19
    3e9c:	21e68693          	addi	a3,a3,542 # 1921e <heap.cpp.6b15d6f6+0x70cd>
    3ea0:	12e6e863          	bltu	a3,a4,3fd0 <T17_end+0x64>
    3ea4:	00032737          	lui	a4,0x32
    3ea8:	43f70713          	addi	a4,a4,1087 # 3243f <_sp+0x82ff>
    3eac:	40f707b3          	sub	a5,a4,a5
    3eb0:	00100513          	li	a0,1
    3eb4:	41f7d893          	srai	a7,a5,0x1f
    3eb8:	02f88733          	mul	a4,a7,a5
    3ebc:	02f78633          	mul	a2,a5,a5
    3ec0:	02f7b6b3          	mulhu	a3,a5,a5
    3ec4:	20d72733          	sh1add	a4,a4,a3
    3ec8:	01071713          	slli	a4,a4,0x10
    3ecc:	01065613          	srli	a2,a2,0x10
    3ed0:	00c70633          	add	a2,a4,a2
    3ed4:	41f65313          	srai	t1,a2,0x1f
    3ed8:	1f300593          	li	a1,499
    3edc:	02b30733          	mul	a4,t1,a1
    3ee0:	02b606b3          	mul	a3,a2,a1
    3ee4:	02b635b3          	mulhu	a1,a2,a1
    3ee8:	00b70733          	add	a4,a4,a1
    3eec:	01071713          	slli	a4,a4,0x10
    3ef0:	0106d693          	srli	a3,a3,0x10
    3ef4:	00d706b3          	add	a3,a4,a3
    3ef8:	ffffd737          	lui	a4,0xffffd
    3efc:	57e70713          	addi	a4,a4,1406 # ffffd57e <_sp+0xfffd343e>
    3f00:	00e686b3          	add	a3,a3,a4
    3f04:	41f6d593          	srai	a1,a3,0x1f
    3f08:	02c585b3          	mul	a1,a1,a2
    3f0c:	02d30333          	mul	t1,t1,a3
    3f10:	006585b3          	add	a1,a1,t1
    3f14:	02c68733          	mul	a4,a3,a2
    3f18:	02c6b6b3          	mulhu	a3,a3,a2
    3f1c:	00d586b3          	add	a3,a1,a3
    3f20:	01069693          	slli	a3,a3,0x10
    3f24:	01075713          	srli	a4,a4,0x10
    3f28:	00e68733          	add	a4,a3,a4
    3f2c:	000106b7          	lui	a3,0x10
    3f30:	00d70733          	add	a4,a4,a3
    3f34:	41f75693          	srai	a3,a4,0x1f
    3f38:	02f686b3          	mul	a3,a3,a5
    3f3c:	02e888b3          	mul	a7,a7,a4
    3f40:	011686b3          	add	a3,a3,a7
    3f44:	02f70633          	mul	a2,a4,a5
    3f48:	02f73733          	mulhu	a4,a4,a5
    3f4c:	00e687b3          	add	a5,a3,a4
    3f50:	01079793          	slli	a5,a5,0x10
    3f54:	01065713          	srli	a4,a2,0x10
    3f58:	00e78733          	add	a4,a5,a4
    3f5c:	02e50533          	mul	a0,a0,a4
    3f60:	0084a783          	lw	a5,8(s1)
    3f64:	00f50533          	add	a0,a0,a5
    3f68:	06a12423          	sw	a0,104(sp)

00003f6c <T17_end>:
    3f6c:	b00027f3          	csrr	a5,mcycle
    3f70:	410787b3          	sub	a5,a5,a6
    3f74:	04f9a223          	sw	a5,68(s3)
    3f78:	06012683          	lw	a3,96(sp)
    3f7c:	06412703          	lw	a4,100(sp)
    3f80:	00100793          	li	a5,1
    3f84:	00d75663          	bge	a4,a3,3f90 <T17_end+0x24>
    3f88:	00068713          	mv	a4,a3
    3f8c:	00000793          	li	a5,0
    3f90:	06812683          	lw	a3,104(sp)
    3f94:	00e6c463          	blt	a3,a4,3f9c <T17_end+0x30>
    3f98:	00200793          	li	a5,2
    3f9c:	00020737          	lui	a4,0x20
    3fa0:	000206b7          	lui	a3,0x20
    3fa4:	06868693          	addi	a3,a3,104 # 20068 <next.6>
    3fa8:	20d7c7b3          	sh2add	a5,a5,a3
    3fac:	0007a783          	lw	a5,0(a5)
    3fb0:	14070713          	addi	a4,a4,320 # 20140 <jump_table.24>
    3fb4:	20e7c7b3          	sh2add	a5,a5,a4
    3fb8:	0007a803          	lw	a6,0(a5)
    3fbc:	bddfc06f          	j	b98 <inferenceTPG+0x48>
    3fc0:	00065737          	lui	a4,0x65
    3fc4:	87e70713          	addi	a4,a4,-1922 # 6487e <_sp+0x3a73e>
    3fc8:	00e787b3          	add	a5,a5,a4
    3fcc:	ec1ff06f          	j	3e8c <T17_start+0x58>
    3fd0:	fffce737          	lui	a4,0xfffce
    3fd4:	bc070713          	addi	a4,a4,-1088 # fffcdbc0 <_sp+0xfffa3a80>
    3fd8:	00e78733          	add	a4,a5,a4
    3fdc:	000196b7          	lui	a3,0x19
    3fe0:	21f68693          	addi	a3,a3,543 # 1921f <heap.cpp.6b15d6f6+0x70ce>
    3fe4:	00e6ec63          	bltu	a3,a4,3ffc <T17_end+0x90>
    3fe8:	fffce737          	lui	a4,0xfffce
    3fec:	bc170713          	addi	a4,a4,-1087 # fffcdbc1 <_sp+0xfffa3a81>
    3ff0:	00e787b3          	add	a5,a5,a4
    3ff4:	fff00513          	li	a0,-1
    3ff8:	ebdff06f          	j	3eb4 <T17_start+0x80>
    3ffc:	0004b737          	lui	a4,0x4b
    4000:	65f70713          	addi	a4,a4,1631 # 4b65f <_sp+0x2151f>
    4004:	00100513          	li	a0,1
    4008:	eaf756e3          	bge	a4,a5,3eb4 <T17_start+0x80>
    400c:	00065737          	lui	a4,0x65
    4010:	87e70713          	addi	a4,a4,-1922 # 6487e <_sp+0x3a73e>
    4014:	40f707b3          	sub	a5,a4,a5
    4018:	fff00513          	li	a0,-1
    401c:	e99ff06f          	j	3eb4 <T17_start+0x80>
    4020:	15912423          	sw	s9,328(sp)

00004024 <T18_start>:
    4024:	b00027f3          	csrr	a5,mcycle
    4028:	00078c93          	mv	s9,a5
    402c:	0044a783          	lw	a5,4(s1)
    4030:	00078b93          	mv	s7,a5
    4034:	000107b7          	lui	a5,0x10
    4038:	180b8e63          	beqz	s7,41d4 <T18_start+0x1b0>
    403c:	417006b3          	neg	a3,s7
    4040:	0adbe6b3          	max	a3,s7,a3
    4044:	41f6d713          	srai	a4,a3,0x1f
    4048:	00017637          	lui	a2,0x17
    404c:	15460613          	addi	a2,a2,340 # 17154 <heap.cpp.6b15d6f6+0x5003>
    4050:	02c70733          	mul	a4,a4,a2
    4054:	02c687b3          	mul	a5,a3,a2
    4058:	02c6b6b3          	mulhu	a3,a3,a2
    405c:	00d70733          	add	a4,a4,a3
    4060:	01071713          	slli	a4,a4,0x10
    4064:	0107d793          	srli	a5,a5,0x10
    4068:	00f707b3          	add	a5,a4,a5
    406c:	00008737          	lui	a4,0x8
    4070:	00e787b3          	add	a5,a5,a4
    4074:	ffff0737          	lui	a4,0xffff0
    4078:	00e7f7b3          	and	a5,a5,a4
    407c:	00078c13          	mv	s8,a5
    4080:	320bc063          	bltz	s7,43a0 <T18_end+0x64>
    4084:	41fc5713          	srai	a4,s8,0x1f
    4088:	0000b6b7          	lui	a3,0xb
    408c:	17268693          	addi	a3,a3,370 # b172 <__power_manager_start+0x172>
    4090:	02d70733          	mul	a4,a4,a3
    4094:	02dc07b3          	mul	a5,s8,a3
    4098:	02dc36b3          	mulhu	a3,s8,a3
    409c:	00d70733          	add	a4,a4,a3
    40a0:	01071713          	slli	a4,a4,0x10
    40a4:	0107d793          	srli	a5,a5,0x10
    40a8:	00f707b3          	add	a5,a4,a5
    40ac:	40fb87b3          	sub	a5,s7,a5
    40b0:	41f7d713          	srai	a4,a5,0x1f
    40b4:	02f70733          	mul	a4,a4,a5
    40b8:	02f78633          	mul	a2,a5,a5
    40bc:	02f7b6b3          	mulhu	a3,a5,a5
    40c0:	20d72733          	sh1add	a4,a4,a3
    40c4:	01071713          	slli	a4,a4,0x10
    40c8:	01065613          	srli	a2,a2,0x10
    40cc:	00c70633          	add	a2,a4,a2
    40d0:	41f65513          	srai	a0,a2,0x1f
    40d4:	01e65713          	srli	a4,a2,0x1e
    40d8:	20e54733          	sh2add	a4,a0,a4
    40dc:	00261693          	slli	a3,a2,0x2
    40e0:	01071713          	slli	a4,a4,0x10
    40e4:	0106d693          	srli	a3,a3,0x10
    40e8:	00d706b3          	add	a3,a4,a3
    40ec:	f4a68693          	addi	a3,a3,-182
    40f0:	41f6d593          	srai	a1,a3,0x1f
    40f4:	02c585b3          	mul	a1,a1,a2
    40f8:	02d50733          	mul	a4,a0,a3
    40fc:	00e585b3          	add	a1,a1,a4
    4100:	02c68733          	mul	a4,a3,a2
    4104:	02c6b6b3          	mulhu	a3,a3,a2
    4108:	00d586b3          	add	a3,a1,a3
    410c:	01069693          	slli	a3,a3,0x10
    4110:	01075713          	srli	a4,a4,0x10
    4114:	00e68733          	add	a4,a3,a4
    4118:	000036b7          	lui	a3,0x3
    411c:	aab68693          	addi	a3,a3,-1365 # 2aab <T7_end+0x137>
    4120:	00d70733          	add	a4,a4,a3
    4124:	41f75693          	srai	a3,a4,0x1f
    4128:	02c686b3          	mul	a3,a3,a2
    412c:	02e50533          	mul	a0,a0,a4
    4130:	00a686b3          	add	a3,a3,a0
    4134:	02c705b3          	mul	a1,a4,a2
    4138:	02c73733          	mulhu	a4,a4,a2
    413c:	00e68733          	add	a4,a3,a4
    4140:	01071713          	slli	a4,a4,0x10
    4144:	0105d693          	srli	a3,a1,0x10
    4148:	00d706b3          	add	a3,a4,a3
    414c:	00020737          	lui	a4,0x20
    4150:	00e686b3          	add	a3,a3,a4
    4154:	40f68633          	sub	a2,a3,a5
    4158:	02f68c63          	beq	a3,a5,4190 <T18_start+0x16c>
    415c:	00f7d713          	srli	a4,a5,0xf
    4160:	01179793          	slli	a5,a5,0x11
    4164:	01071713          	slli	a4,a4,0x10
    4168:	0107d793          	srli	a5,a5,0x10
    416c:	00f707b3          	add	a5,a4,a5
    4170:	41f7d713          	srai	a4,a5,0x1f
    4174:	0107d593          	srli	a1,a5,0x10
    4178:	01071713          	slli	a4,a4,0x10
    417c:	41f65693          	srai	a3,a2,0x1f
    4180:	01079513          	slli	a0,a5,0x10
    4184:	00e585b3          	add	a1,a1,a4
    4188:	064050ef          	jal	91ec <__divdi3>
    418c:	00050613          	mv	a2,a0
    4190:	000107b7          	lui	a5,0x10
    4194:	00f606b3          	add	a3,a2,a5
    4198:	200c4a63          	bltz	s8,43ac <T18_end+0x70>
    419c:	410c5793          	srai	a5,s8,0x10
    41a0:	00010737          	lui	a4,0x10
    41a4:	00f71733          	sll	a4,a4,a5
    41a8:	41f75793          	srai	a5,a4,0x1f
    41ac:	41f6d613          	srai	a2,a3,0x1f
    41b0:	02d787b3          	mul	a5,a5,a3
    41b4:	02e60633          	mul	a2,a2,a4
    41b8:	00c787b3          	add	a5,a5,a2
    41bc:	02d70633          	mul	a2,a4,a3
    41c0:	02d73733          	mulhu	a4,a4,a3
    41c4:	00e787b3          	add	a5,a5,a4
    41c8:	01079793          	slli	a5,a5,0x10
    41cc:	01065713          	srli	a4,a2,0x10
    41d0:	00e787b3          	add	a5,a5,a4
    41d4:	00092703          	lw	a4,0(s2)
    41d8:	40e787b3          	sub	a5,a5,a4
    41dc:	008a2703          	lw	a4,8(s4)
    41e0:	00e787b3          	add	a5,a5,a4
    41e4:	0af12623          	sw	a5,172(sp)
    41e8:	000a2703          	lw	a4,0(s4)
    41ec:	41f75793          	srai	a5,a4,0x1f
    41f0:	00892603          	lw	a2,8(s2)
    41f4:	41f65693          	srai	a3,a2,0x1f
    41f8:	02c787b3          	mul	a5,a5,a2
    41fc:	02e686b3          	mul	a3,a3,a4
    4200:	00d787b3          	add	a5,a5,a3
    4204:	02c706b3          	mul	a3,a4,a2
    4208:	02c73733          	mulhu	a4,a4,a2
    420c:	00e787b3          	add	a5,a5,a4
    4210:	01079793          	slli	a5,a5,0x10
    4214:	0106d713          	srli	a4,a3,0x10
    4218:	00e78733          	add	a4,a5,a4
    421c:	0ae12823          	sw	a4,176(sp)
    4220:	004a2783          	lw	a5,4(s4)
    4224:	0004a703          	lw	a4,0(s1)
    4228:	00e787b3          	add	a5,a5,a4
    422c:	0af12a23          	sw	a5,180(sp)
    4230:	517cd7b7          	lui	a5,0x517cd
    4234:	c8378793          	addi	a5,a5,-893 # 517ccc83 <_sp+0x517a2b43>
    4238:	02fb97b3          	mulh	a5,s7,a5
    423c:	4117d793          	srai	a5,a5,0x11
    4240:	41fbd713          	srai	a4,s7,0x1f
    4244:	40e787b3          	sub	a5,a5,a4
    4248:	00065737          	lui	a4,0x65
    424c:	87e70713          	addi	a4,a4,-1922 # 6487e <_sp+0x3a73e>
    4250:	02e787b3          	mul	a5,a5,a4
    4254:	40fb87b3          	sub	a5,s7,a5
    4258:	1607c463          	bltz	a5,43c0 <T18_end+0x84>
    425c:	fffe7737          	lui	a4,0xfffe7
    4260:	ddf70713          	addi	a4,a4,-545 # fffe6ddf <_sp+0xfffbcc9f>
    4264:	00e78733          	add	a4,a5,a4
    4268:	000196b7          	lui	a3,0x19
    426c:	21e68693          	addi	a3,a3,542 # 1921e <heap.cpp.6b15d6f6+0x70cd>
    4270:	16e6e063          	bltu	a3,a4,43d0 <T18_end+0x94>
    4274:	00032737          	lui	a4,0x32
    4278:	43f70713          	addi	a4,a4,1087 # 3243f <_sp+0x82ff>
    427c:	40f707b3          	sub	a5,a4,a5
    4280:	00100513          	li	a0,1
    4284:	41f7d813          	srai	a6,a5,0x1f
    4288:	02f80733          	mul	a4,a6,a5
    428c:	02f78633          	mul	a2,a5,a5
    4290:	02f7b6b3          	mulhu	a3,a5,a5
    4294:	20d72733          	sh1add	a4,a4,a3
    4298:	01071713          	slli	a4,a4,0x10
    429c:	01065613          	srli	a2,a2,0x10
    42a0:	00c70633          	add	a2,a4,a2
    42a4:	41f65893          	srai	a7,a2,0x1f
    42a8:	1f300593          	li	a1,499
    42ac:	02b88733          	mul	a4,a7,a1
    42b0:	02b606b3          	mul	a3,a2,a1
    42b4:	02b635b3          	mulhu	a1,a2,a1
    42b8:	00b70733          	add	a4,a4,a1
    42bc:	01071713          	slli	a4,a4,0x10
    42c0:	0106d693          	srli	a3,a3,0x10
    42c4:	00d706b3          	add	a3,a4,a3
    42c8:	ffffd737          	lui	a4,0xffffd
    42cc:	57e70713          	addi	a4,a4,1406 # ffffd57e <_sp+0xfffd343e>
    42d0:	00e686b3          	add	a3,a3,a4
    42d4:	41f6d593          	srai	a1,a3,0x1f
    42d8:	02c585b3          	mul	a1,a1,a2
    42dc:	02d888b3          	mul	a7,a7,a3
    42e0:	011585b3          	add	a1,a1,a7
    42e4:	02c68733          	mul	a4,a3,a2
    42e8:	02c6b6b3          	mulhu	a3,a3,a2
    42ec:	00d586b3          	add	a3,a1,a3
    42f0:	01069693          	slli	a3,a3,0x10
    42f4:	01075713          	srli	a4,a4,0x10
    42f8:	00e68733          	add	a4,a3,a4
    42fc:	000106b7          	lui	a3,0x10
    4300:	00d70733          	add	a4,a4,a3
    4304:	41f75693          	srai	a3,a4,0x1f
    4308:	02f686b3          	mul	a3,a3,a5
    430c:	02e80833          	mul	a6,a6,a4
    4310:	010686b3          	add	a3,a3,a6
    4314:	02f70633          	mul	a2,a4,a5
    4318:	02f73733          	mulhu	a4,a4,a5
    431c:	00e687b3          	add	a5,a3,a4
    4320:	01079793          	slli	a5,a5,0x10
    4324:	01065713          	srli	a4,a2,0x10
    4328:	00e78733          	add	a4,a5,a4
    432c:	02e50533          	mul	a0,a0,a4
    4330:	0084a783          	lw	a5,8(s1)
    4334:	00f50533          	add	a0,a0,a5
    4338:	0aa12c23          	sw	a0,184(sp)

0000433c <T18_end>:
    433c:	b00027f3          	csrr	a5,mcycle
    4340:	419787b3          	sub	a5,a5,s9
    4344:	04f9a423          	sw	a5,72(s3)
    4348:	0ac12683          	lw	a3,172(sp)
    434c:	0b012703          	lw	a4,176(sp)
    4350:	00100793          	li	a5,1
    4354:	00d75663          	bge	a4,a3,4360 <T18_end+0x24>
    4358:	00068713          	mv	a4,a3
    435c:	00000793          	li	a5,0
    4360:	0b412683          	lw	a3,180(sp)
    4364:	0ae6de63          	bge	a3,a4,4420 <T18_end+0xe4>
    4368:	00070693          	mv	a3,a4
    436c:	0b812703          	lw	a4,184(sp)
    4370:	00d74463          	blt	a4,a3,4378 <T18_end+0x3c>
    4374:	00300793          	li	a5,3
    4378:	00020737          	lui	a4,0x20
    437c:	000206b7          	lui	a3,0x20
    4380:	05868693          	addi	a3,a3,88 # 20058 <next.5>
    4384:	20d7c7b3          	sh2add	a5,a5,a3
    4388:	0007a783          	lw	a5,0(a5)
    438c:	14070713          	addi	a4,a4,320 # 20140 <jump_table.24>
    4390:	20e7c7b3          	sh2add	a5,a5,a4
    4394:	0007a803          	lw	a6,0(a5)
    4398:	14812c83          	lw	s9,328(sp)
    439c:	ffcfc06f          	j	b98 <inferenceTPG+0x48>
    43a0:	40f007b3          	neg	a5,a5
    43a4:	00078c13          	mv	s8,a5
    43a8:	cddff06f          	j	4084 <T18_start+0x60>
    43ac:	418007b3          	neg	a5,s8
    43b0:	4107d793          	srai	a5,a5,0x10
    43b4:	00010737          	lui	a4,0x10
    43b8:	40f75733          	sra	a4,a4,a5
    43bc:	dedff06f          	j	41a8 <T18_start+0x184>
    43c0:	00065737          	lui	a4,0x65
    43c4:	87e70713          	addi	a4,a4,-1922 # 6487e <_sp+0x3a73e>
    43c8:	00e787b3          	add	a5,a5,a4
    43cc:	e91ff06f          	j	425c <T18_start+0x238>
    43d0:	fffce737          	lui	a4,0xfffce
    43d4:	bc070713          	addi	a4,a4,-1088 # fffcdbc0 <_sp+0xfffa3a80>
    43d8:	00e78733          	add	a4,a5,a4
    43dc:	000196b7          	lui	a3,0x19
    43e0:	21f68693          	addi	a3,a3,543 # 1921f <heap.cpp.6b15d6f6+0x70ce>
    43e4:	00e6ec63          	bltu	a3,a4,43fc <T18_end+0xc0>
    43e8:	fffce737          	lui	a4,0xfffce
    43ec:	bc170713          	addi	a4,a4,-1087 # fffcdbc1 <_sp+0xfffa3a81>
    43f0:	00e787b3          	add	a5,a5,a4
    43f4:	fff00513          	li	a0,-1
    43f8:	e8dff06f          	j	4284 <T18_start+0x260>
    43fc:	0004b737          	lui	a4,0x4b
    4400:	65f70713          	addi	a4,a4,1631 # 4b65f <_sp+0x2151f>
    4404:	00100513          	li	a0,1
    4408:	e6f75ee3          	bge	a4,a5,4284 <T18_start+0x260>
    440c:	00065737          	lui	a4,0x65
    4410:	87e70713          	addi	a4,a4,-1922 # 6487e <_sp+0x3a73e>
    4414:	40f707b3          	sub	a5,a4,a5
    4418:	fff00513          	li	a0,-1
    441c:	e69ff06f          	j	4284 <T18_start+0x260>
    4420:	00200793          	li	a5,2
    4424:	f49ff06f          	j	436c <T18_end+0x30>

00004428 <T19_start>:
    4428:	b00025f3          	csrr	a1,mcycle
    442c:	00892683          	lw	a3,8(s2)
    4430:	0004a803          	lw	a6,0(s1)
    4434:	008a2503          	lw	a0,8(s4)
    4438:	010687b3          	add	a5,a3,a6
    443c:	00a787b3          	add	a5,a5,a0
    4440:	0ef12223          	sw	a5,228(sp)
    4444:	0144a703          	lw	a4,20(s1)
    4448:	41f75793          	srai	a5,a4,0x1f
    444c:	0044a883          	lw	a7,4(s1)
    4450:	41f8d613          	srai	a2,a7,0x1f
    4454:	031787b3          	mul	a5,a5,a7
    4458:	02e60633          	mul	a2,a2,a4
    445c:	00c787b3          	add	a5,a5,a2
    4460:	03170633          	mul	a2,a4,a7
    4464:	03173733          	mulhu	a4,a4,a7
    4468:	00e787b3          	add	a5,a5,a4
    446c:	01079793          	slli	a5,a5,0x10
    4470:	01065713          	srli	a4,a2,0x10
    4474:	00e78733          	add	a4,a5,a4
    4478:	0ee12423          	sw	a4,232(sp)
    447c:	00492783          	lw	a5,4(s2)
    4480:	41f6d713          	srai	a4,a3,0x1f
    4484:	41f7d613          	srai	a2,a5,0x1f
    4488:	02f70733          	mul	a4,a4,a5
    448c:	02d60633          	mul	a2,a2,a3
    4490:	00c70733          	add	a4,a4,a2
    4494:	02f68633          	mul	a2,a3,a5
    4498:	02f6b6b3          	mulhu	a3,a3,a5
    449c:	00d70733          	add	a4,a4,a3
    44a0:	01071713          	slli	a4,a4,0x10
    44a4:	01065693          	srli	a3,a2,0x10
    44a8:	00d706b3          	add	a3,a4,a3
    44ac:	008aa703          	lw	a4,8(s5)
    44b0:	00d70733          	add	a4,a4,a3
    44b4:	0ee12623          	sw	a4,236(sp)
    44b8:	004a2703          	lw	a4,4(s4)
    44bc:	01070733          	add	a4,a4,a6
    44c0:	0ee12823          	sw	a4,240(sp)
    44c4:	0b07e7b3          	max	a5,a5,a6
    44c8:	00a787b3          	add	a5,a5,a0
    44cc:	0ef12a23          	sw	a5,244(sp)

000044d0 <T19_end>:
    44d0:	b00027f3          	csrr	a5,mcycle
    44d4:	40b787b3          	sub	a5,a5,a1
    44d8:	04f9a623          	sw	a5,76(s3)
    44dc:	0e412603          	lw	a2,228(sp)
    44e0:	0e410713          	addi	a4,sp,228
    44e4:	00000513          	li	a0,0
    44e8:	00100793          	li	a5,1
    44ec:	00500593          	li	a1,5
    44f0:	0100006f          	j	4500 <T19_end+0x30>
    44f4:	00178793          	addi	a5,a5,1
    44f8:	00470713          	addi	a4,a4,4
    44fc:	00b78c63          	beq	a5,a1,4514 <T19_end+0x44>
    4500:	00472683          	lw	a3,4(a4)
    4504:	fec6c8e3          	blt	a3,a2,44f4 <T19_end+0x24>
    4508:	00068613          	mv	a2,a3
    450c:	00078513          	mv	a0,a5
    4510:	fe5ff06f          	j	44f4 <T19_end+0x24>
    4514:	00020737          	lui	a4,0x20
    4518:	000207b7          	lui	a5,0x20
    451c:	04478793          	addi	a5,a5,68 # 20044 <next.4>
    4520:	20f54533          	sh2add	a0,a0,a5
    4524:	00052783          	lw	a5,0(a0)
    4528:	14070713          	addi	a4,a4,320 # 20140 <jump_table.24>
    452c:	20e7c7b3          	sh2add	a5,a5,a4
    4530:	0007a803          	lw	a6,0(a5)
    4534:	e64fc06f          	j	b98 <inferenceTPG+0x48>
    4538:	15912423          	sw	s9,328(sp)
    453c:	15a12223          	sw	s10,324(sp)

00004540 <T20_start>:
    4540:	b00027f3          	csrr	a5,mcycle
    4544:	00078d13          	mv	s10,a5
    4548:	00492783          	lw	a5,4(s2)
    454c:	0004a703          	lw	a4,0(s1)
    4550:	00070c93          	mv	s9,a4
    4554:	008a2703          	lw	a4,8(s4)
    4558:	00070c13          	mv	s8,a4
    455c:	01978733          	add	a4,a5,s9
    4560:	01870733          	add	a4,a4,s8
    4564:	0ee12c23          	sw	a4,248(sp)
    4568:	00010737          	lui	a4,0x10
    456c:	18078e63          	beqz	a5,4708 <T20_start+0x1c8>
    4570:	40f00633          	neg	a2,a5
    4574:	0ac7e633          	max	a2,a5,a2
    4578:	41f65693          	srai	a3,a2,0x1f
    457c:	000175b7          	lui	a1,0x17
    4580:	15458593          	addi	a1,a1,340 # 17154 <heap.cpp.6b15d6f6+0x5003>
    4584:	02b686b3          	mul	a3,a3,a1
    4588:	02b60733          	mul	a4,a2,a1
    458c:	02b63633          	mulhu	a2,a2,a1
    4590:	00c686b3          	add	a3,a3,a2
    4594:	01069693          	slli	a3,a3,0x10
    4598:	01075713          	srli	a4,a4,0x10
    459c:	00e68733          	add	a4,a3,a4
    45a0:	000086b7          	lui	a3,0x8
    45a4:	00d70733          	add	a4,a4,a3
    45a8:	ffff06b7          	lui	a3,0xffff0
    45ac:	00d77733          	and	a4,a4,a3
    45b0:	00070b93          	mv	s7,a4
    45b4:	1a07c063          	bltz	a5,4754 <T20_end+0x24>
    45b8:	41fbd713          	srai	a4,s7,0x1f
    45bc:	0000b6b7          	lui	a3,0xb
    45c0:	17268693          	addi	a3,a3,370 # b172 <__power_manager_start+0x172>
    45c4:	02d70733          	mul	a4,a4,a3
    45c8:	02db8633          	mul	a2,s7,a3
    45cc:	02dbb6b3          	mulhu	a3,s7,a3
    45d0:	00d70733          	add	a4,a4,a3
    45d4:	01071713          	slli	a4,a4,0x10
    45d8:	01065693          	srli	a3,a2,0x10
    45dc:	00d706b3          	add	a3,a4,a3
    45e0:	40d787b3          	sub	a5,a5,a3
    45e4:	41f7d713          	srai	a4,a5,0x1f
    45e8:	02f70733          	mul	a4,a4,a5
    45ec:	02f78633          	mul	a2,a5,a5
    45f0:	02f7b6b3          	mulhu	a3,a5,a5
    45f4:	20d72733          	sh1add	a4,a4,a3
    45f8:	01071713          	slli	a4,a4,0x10
    45fc:	01065613          	srli	a2,a2,0x10
    4600:	00c70633          	add	a2,a4,a2
    4604:	41f65513          	srai	a0,a2,0x1f
    4608:	01e65713          	srli	a4,a2,0x1e
    460c:	20e54733          	sh2add	a4,a0,a4
    4610:	00261693          	slli	a3,a2,0x2
    4614:	01071713          	slli	a4,a4,0x10
    4618:	0106d693          	srli	a3,a3,0x10
    461c:	00d706b3          	add	a3,a4,a3
    4620:	f4a68693          	addi	a3,a3,-182
    4624:	41f6d593          	srai	a1,a3,0x1f
    4628:	02c585b3          	mul	a1,a1,a2
    462c:	02d50733          	mul	a4,a0,a3
    4630:	00e585b3          	add	a1,a1,a4
    4634:	02c68733          	mul	a4,a3,a2
    4638:	02c6b6b3          	mulhu	a3,a3,a2
    463c:	00d586b3          	add	a3,a1,a3
    4640:	01069693          	slli	a3,a3,0x10
    4644:	01075713          	srli	a4,a4,0x10
    4648:	00e68733          	add	a4,a3,a4
    464c:	000036b7          	lui	a3,0x3
    4650:	aab68693          	addi	a3,a3,-1365 # 2aab <T7_end+0x137>
    4654:	00d70733          	add	a4,a4,a3
    4658:	41f75693          	srai	a3,a4,0x1f
    465c:	02c686b3          	mul	a3,a3,a2
    4660:	02e50533          	mul	a0,a0,a4
    4664:	00a686b3          	add	a3,a3,a0
    4668:	02c705b3          	mul	a1,a4,a2
    466c:	02c73733          	mulhu	a4,a4,a2
    4670:	00e68733          	add	a4,a3,a4
    4674:	01071713          	slli	a4,a4,0x10
    4678:	0105d693          	srli	a3,a1,0x10
    467c:	00d706b3          	add	a3,a4,a3
    4680:	00020737          	lui	a4,0x20
    4684:	00e686b3          	add	a3,a3,a4
    4688:	40f68633          	sub	a2,a3,a5
    468c:	02f68c63          	beq	a3,a5,46c4 <T20_start+0x184>
    4690:	00f7d713          	srli	a4,a5,0xf
    4694:	01179793          	slli	a5,a5,0x11
    4698:	01071713          	slli	a4,a4,0x10
    469c:	0107d793          	srli	a5,a5,0x10
    46a0:	00f707b3          	add	a5,a4,a5
    46a4:	41f7d713          	srai	a4,a5,0x1f
    46a8:	0107d593          	srli	a1,a5,0x10
    46ac:	01071713          	slli	a4,a4,0x10
    46b0:	41f65693          	srai	a3,a2,0x1f
    46b4:	01079513          	slli	a0,a5,0x10
    46b8:	00e585b3          	add	a1,a1,a4
    46bc:	331040ef          	jal	91ec <__divdi3>
    46c0:	00050613          	mv	a2,a0
    46c4:	000107b7          	lui	a5,0x10
    46c8:	00f606b3          	add	a3,a2,a5
    46cc:	080bca63          	bltz	s7,4760 <T20_end+0x30>
    46d0:	410bd713          	srai	a4,s7,0x10
    46d4:	000107b7          	lui	a5,0x10
    46d8:	00e797b3          	sll	a5,a5,a4
    46dc:	41f7d713          	srai	a4,a5,0x1f
    46e0:	41f6d613          	srai	a2,a3,0x1f
    46e4:	02d70733          	mul	a4,a4,a3
    46e8:	02f60633          	mul	a2,a2,a5
    46ec:	00c70733          	add	a4,a4,a2
    46f0:	02d78633          	mul	a2,a5,a3
    46f4:	02d7b7b3          	mulhu	a5,a5,a3
    46f8:	00f70733          	add	a4,a4,a5
    46fc:	01071713          	slli	a4,a4,0x10
    4700:	01065793          	srli	a5,a2,0x10
    4704:	00f70733          	add	a4,a4,a5
    4708:	0ee12e23          	sw	a4,252(sp)
    470c:	008aa783          	lw	a5,8(s5)
    4710:	000aa703          	lw	a4,0(s5)
    4714:	00e787b3          	add	a5,a5,a4
    4718:	10f12023          	sw	a5,256(sp)
    471c:	00892783          	lw	a5,8(s2)
    4720:	00fc87b3          	add	a5,s9,a5
    4724:	018787b3          	add	a5,a5,s8
    4728:	10f12223          	sw	a5,260(sp)
    472c:	11812423          	sw	s8,264(sp)

00004730 <T20_end>:
    4730:	b00027f3          	csrr	a5,mcycle
    4734:	41a787b3          	sub	a5,a5,s10
    4738:	04f9a823          	sw	a5,80(s3)
    473c:	0f812603          	lw	a2,248(sp)
    4740:	0f810713          	addi	a4,sp,248
    4744:	00000513          	li	a0,0
    4748:	00100793          	li	a5,1
    474c:	00500593          	li	a1,5
    4750:	0300006f          	j	4780 <T20_end+0x50>
    4754:	40e00733          	neg	a4,a4
    4758:	00070b93          	mv	s7,a4
    475c:	e5dff06f          	j	45b8 <T20_start+0x78>
    4760:	41700733          	neg	a4,s7
    4764:	41075713          	srai	a4,a4,0x10
    4768:	000107b7          	lui	a5,0x10
    476c:	40e7d7b3          	sra	a5,a5,a4
    4770:	f6dff06f          	j	46dc <T20_start+0x19c>
    4774:	00178793          	addi	a5,a5,1 # 10001 <syscalls.c.42d7056b+0xb1d>
    4778:	00470713          	addi	a4,a4,4 # 20004 <heap.cpp.6b15d6f6+0xdeb3>
    477c:	00b78c63          	beq	a5,a1,4794 <T20_end+0x64>
    4780:	00472683          	lw	a3,4(a4)
    4784:	fec6c8e3          	blt	a3,a2,4774 <T20_end+0x44>
    4788:	00068613          	mv	a2,a3
    478c:	00078513          	mv	a0,a5
    4790:	fe5ff06f          	j	4774 <T20_end+0x44>
    4794:	00020737          	lui	a4,0x20
    4798:	000207b7          	lui	a5,0x20
    479c:	03078793          	addi	a5,a5,48 # 20030 <next.3>
    47a0:	20f54533          	sh2add	a0,a0,a5
    47a4:	00052783          	lw	a5,0(a0)
    47a8:	14070713          	addi	a4,a4,320 # 20140 <jump_table.24>
    47ac:	20e7c7b3          	sh2add	a5,a5,a4
    47b0:	0007a803          	lw	a6,0(a5)
    47b4:	14812c83          	lw	s9,328(sp)
    47b8:	14412d03          	lw	s10,324(sp)
    47bc:	bdcfc06f          	j	b98 <inferenceTPG+0x48>
    47c0:	00500793          	li	a5,5
    47c4:	00fb2023          	sw	a5,0(s6)
    47c8:	16c12083          	lw	ra,364(sp)
    47cc:	16812483          	lw	s1,360(sp)
    47d0:	16412903          	lw	s2,356(sp)
    47d4:	16012983          	lw	s3,352(sp)
    47d8:	15c12a03          	lw	s4,348(sp)
    47dc:	15812a83          	lw	s5,344(sp)
    47e0:	15412b03          	lw	s6,340(sp)
    47e4:	15012b83          	lw	s7,336(sp)
    47e8:	14c12c03          	lw	s8,332(sp)
    47ec:	17010113          	addi	sp,sp,368
    47f0:	00008067          	ret
    47f4:	00600793          	li	a5,6
    47f8:	fcdff06f          	j	47c4 <T20_end+0x94>
    47fc:	00700793          	li	a5,7
    4800:	fc5ff06f          	j	47c4 <T20_end+0x94>
    4804:	00800793          	li	a5,8
    4808:	fbdff06f          	j	47c4 <T20_end+0x94>
    480c:	00300793          	li	a5,3
    4810:	fb5ff06f          	j	47c4 <T20_end+0x94>
    4814:	00400793          	li	a5,4
    4818:	fadff06f          	j	47c4 <T20_end+0x94>
    481c:	00000793          	li	a5,0
    4820:	fa5ff06f          	j	47c4 <T20_end+0x94>
    4824:	00200793          	li	a5,2
    4828:	f9dff06f          	j	47c4 <T20_end+0x94>

0000482c <handler_irq_fast_timer_1>:
    482c:	fc010113          	addi	sp,sp,-64
    4830:	02112e23          	sw	ra,60(sp)
    4834:	02512c23          	sw	t0,56(sp)
    4838:	02612a23          	sw	t1,52(sp)
    483c:	02712823          	sw	t2,48(sp)
    4840:	02a12623          	sw	a0,44(sp)
    4844:	02b12423          	sw	a1,40(sp)
    4848:	02c12223          	sw	a2,36(sp)
    484c:	02d12023          	sw	a3,32(sp)
    4850:	00e12e23          	sw	a4,28(sp)
    4854:	00f12c23          	sw	a5,24(sp)
    4858:	01012a23          	sw	a6,20(sp)
    485c:	01112823          	sw	a7,16(sp)
    4860:	01c12623          	sw	t3,12(sp)
    4864:	01d12423          	sw	t4,8(sp)
    4868:	01e12223          	sw	t5,4(sp)
    486c:	01f12023          	sw	t6,0(sp)
    4870:	200607b7          	lui	a5,0x20060
    4874:	00100713          	li	a4,1
    4878:	00e7a223          	sw	a4,4(a5) # 20060004 <_sp+0x20035ec4>
    487c:	b35fb0ef          	jal	3b0 <fic_irq_timer_1>
    4880:	03c12083          	lw	ra,60(sp)
    4884:	03812283          	lw	t0,56(sp)
    4888:	03412303          	lw	t1,52(sp)
    488c:	03012383          	lw	t2,48(sp)
    4890:	02c12503          	lw	a0,44(sp)
    4894:	02812583          	lw	a1,40(sp)
    4898:	02412603          	lw	a2,36(sp)
    489c:	02012683          	lw	a3,32(sp)
    48a0:	01c12703          	lw	a4,28(sp)
    48a4:	01812783          	lw	a5,24(sp)
    48a8:	01412803          	lw	a6,20(sp)
    48ac:	01012883          	lw	a7,16(sp)
    48b0:	00c12e03          	lw	t3,12(sp)
    48b4:	00812e83          	lw	t4,8(sp)
    48b8:	00412f03          	lw	t5,4(sp)
    48bc:	00012f83          	lw	t6,0(sp)
    48c0:	04010113          	addi	sp,sp,64
    48c4:	30200073          	mret

000048c8 <handler_irq_fast_timer_2>:
    48c8:	fc010113          	addi	sp,sp,-64
    48cc:	02112e23          	sw	ra,60(sp)
    48d0:	02512c23          	sw	t0,56(sp)
    48d4:	02612a23          	sw	t1,52(sp)
    48d8:	02712823          	sw	t2,48(sp)
    48dc:	02a12623          	sw	a0,44(sp)
    48e0:	02b12423          	sw	a1,40(sp)
    48e4:	02c12223          	sw	a2,36(sp)
    48e8:	02d12023          	sw	a3,32(sp)
    48ec:	00e12e23          	sw	a4,28(sp)
    48f0:	00f12c23          	sw	a5,24(sp)
    48f4:	01012a23          	sw	a6,20(sp)
    48f8:	01112823          	sw	a7,16(sp)
    48fc:	01c12623          	sw	t3,12(sp)
    4900:	01d12423          	sw	t4,8(sp)
    4904:	01e12223          	sw	t5,4(sp)
    4908:	01f12023          	sw	t6,0(sp)
    490c:	200607b7          	lui	a5,0x20060
    4910:	00200713          	li	a4,2
    4914:	00e7a223          	sw	a4,4(a5) # 20060004 <_sp+0x20035ec4>
    4918:	abdfb0ef          	jal	3d4 <fic_irq_timer_2>
    491c:	03c12083          	lw	ra,60(sp)
    4920:	03812283          	lw	t0,56(sp)
    4924:	03412303          	lw	t1,52(sp)
    4928:	03012383          	lw	t2,48(sp)
    492c:	02c12503          	lw	a0,44(sp)
    4930:	02812583          	lw	a1,40(sp)
    4934:	02412603          	lw	a2,36(sp)
    4938:	02012683          	lw	a3,32(sp)
    493c:	01c12703          	lw	a4,28(sp)
    4940:	01812783          	lw	a5,24(sp)
    4944:	01412803          	lw	a6,20(sp)
    4948:	01012883          	lw	a7,16(sp)
    494c:	00c12e03          	lw	t3,12(sp)
    4950:	00812e83          	lw	t4,8(sp)
    4954:	00412f03          	lw	t5,4(sp)
    4958:	00012f83          	lw	t6,0(sp)
    495c:	04010113          	addi	sp,sp,64
    4960:	30200073          	mret

00004964 <handler_irq_fast_timer_3>:
    4964:	fc010113          	addi	sp,sp,-64
    4968:	02112e23          	sw	ra,60(sp)
    496c:	02512c23          	sw	t0,56(sp)
    4970:	02612a23          	sw	t1,52(sp)
    4974:	02712823          	sw	t2,48(sp)
    4978:	02a12623          	sw	a0,44(sp)
    497c:	02b12423          	sw	a1,40(sp)
    4980:	02c12223          	sw	a2,36(sp)
    4984:	02d12023          	sw	a3,32(sp)
    4988:	00e12e23          	sw	a4,28(sp)
    498c:	00f12c23          	sw	a5,24(sp)
    4990:	01012a23          	sw	a6,20(sp)
    4994:	01112823          	sw	a7,16(sp)
    4998:	01c12623          	sw	t3,12(sp)
    499c:	01d12423          	sw	t4,8(sp)
    49a0:	01e12223          	sw	t5,4(sp)
    49a4:	01f12023          	sw	t6,0(sp)
    49a8:	200607b7          	lui	a5,0x20060
    49ac:	00400713          	li	a4,4
    49b0:	00e7a223          	sw	a4,4(a5) # 20060004 <_sp+0x20035ec4>
    49b4:	a45fb0ef          	jal	3f8 <fic_irq_timer_3>
    49b8:	03c12083          	lw	ra,60(sp)
    49bc:	03812283          	lw	t0,56(sp)
    49c0:	03412303          	lw	t1,52(sp)
    49c4:	03012383          	lw	t2,48(sp)
    49c8:	02c12503          	lw	a0,44(sp)
    49cc:	02812583          	lw	a1,40(sp)
    49d0:	02412603          	lw	a2,36(sp)
    49d4:	02012683          	lw	a3,32(sp)
    49d8:	01c12703          	lw	a4,28(sp)
    49dc:	01812783          	lw	a5,24(sp)
    49e0:	01412803          	lw	a6,20(sp)
    49e4:	01012883          	lw	a7,16(sp)
    49e8:	00c12e03          	lw	t3,12(sp)
    49ec:	00812e83          	lw	t4,8(sp)
    49f0:	00412f03          	lw	t5,4(sp)
    49f4:	00012f83          	lw	t6,0(sp)
    49f8:	04010113          	addi	sp,sp,64
    49fc:	30200073          	mret

00004a00 <handler_irq_fast_dma_done>:
    4a00:	fc010113          	addi	sp,sp,-64
    4a04:	02112e23          	sw	ra,60(sp)
    4a08:	02512c23          	sw	t0,56(sp)
    4a0c:	02612a23          	sw	t1,52(sp)
    4a10:	02712823          	sw	t2,48(sp)
    4a14:	02a12623          	sw	a0,44(sp)
    4a18:	02b12423          	sw	a1,40(sp)
    4a1c:	02c12223          	sw	a2,36(sp)
    4a20:	02d12023          	sw	a3,32(sp)
    4a24:	00e12e23          	sw	a4,28(sp)
    4a28:	00f12c23          	sw	a5,24(sp)
    4a2c:	01012a23          	sw	a6,20(sp)
    4a30:	01112823          	sw	a7,16(sp)
    4a34:	01c12623          	sw	t3,12(sp)
    4a38:	01d12423          	sw	t4,8(sp)
    4a3c:	01e12223          	sw	t5,4(sp)
    4a40:	01f12023          	sw	t6,0(sp)
    4a44:	200607b7          	lui	a5,0x20060
    4a48:	00800713          	li	a4,8
    4a4c:	00e7a223          	sw	a4,4(a5) # 20060004 <_sp+0x20035ec4>
    4a50:	865fb0ef          	jal	2b4 <fic_irq_dma_done>
    4a54:	03c12083          	lw	ra,60(sp)
    4a58:	03812283          	lw	t0,56(sp)
    4a5c:	03412303          	lw	t1,52(sp)
    4a60:	03012383          	lw	t2,48(sp)
    4a64:	02c12503          	lw	a0,44(sp)
    4a68:	02812583          	lw	a1,40(sp)
    4a6c:	02412603          	lw	a2,36(sp)
    4a70:	02012683          	lw	a3,32(sp)
    4a74:	01c12703          	lw	a4,28(sp)
    4a78:	01812783          	lw	a5,24(sp)
    4a7c:	01412803          	lw	a6,20(sp)
    4a80:	01012883          	lw	a7,16(sp)
    4a84:	00c12e03          	lw	t3,12(sp)
    4a88:	00812e83          	lw	t4,8(sp)
    4a8c:	00412f03          	lw	t5,4(sp)
    4a90:	00012f83          	lw	t6,0(sp)
    4a94:	04010113          	addi	sp,sp,64
    4a98:	30200073          	mret

00004a9c <handler_irq_fast_dma_window>:
    4a9c:	fc010113          	addi	sp,sp,-64
    4aa0:	02112e23          	sw	ra,60(sp)
    4aa4:	02512c23          	sw	t0,56(sp)
    4aa8:	02612a23          	sw	t1,52(sp)
    4aac:	02712823          	sw	t2,48(sp)
    4ab0:	02a12623          	sw	a0,44(sp)
    4ab4:	02b12423          	sw	a1,40(sp)
    4ab8:	02c12223          	sw	a2,36(sp)
    4abc:	02d12023          	sw	a3,32(sp)
    4ac0:	00e12e23          	sw	a4,28(sp)
    4ac4:	00f12c23          	sw	a5,24(sp)
    4ac8:	01012a23          	sw	a6,20(sp)
    4acc:	01112823          	sw	a7,16(sp)
    4ad0:	01c12623          	sw	t3,12(sp)
    4ad4:	01d12423          	sw	t4,8(sp)
    4ad8:	01e12223          	sw	t5,4(sp)
    4adc:	01f12023          	sw	t6,0(sp)
    4ae0:	200607b7          	lui	a5,0x20060
    4ae4:	00004737          	lui	a4,0x4
    4ae8:	00e7a223          	sw	a4,4(a5) # 20060004 <_sp+0x20035ec4>
    4aec:	f48fb0ef          	jal	234 <fic_irq_dma_window>
    4af0:	03c12083          	lw	ra,60(sp)
    4af4:	03812283          	lw	t0,56(sp)
    4af8:	03412303          	lw	t1,52(sp)
    4afc:	03012383          	lw	t2,48(sp)
    4b00:	02c12503          	lw	a0,44(sp)
    4b04:	02812583          	lw	a1,40(sp)
    4b08:	02412603          	lw	a2,36(sp)
    4b0c:	02012683          	lw	a3,32(sp)
    4b10:	01c12703          	lw	a4,28(sp)
    4b14:	01812783          	lw	a5,24(sp)
    4b18:	01412803          	lw	a6,20(sp)
    4b1c:	01012883          	lw	a7,16(sp)
    4b20:	00c12e03          	lw	t3,12(sp)
    4b24:	00812e83          	lw	t4,8(sp)
    4b28:	00412f03          	lw	t5,4(sp)
    4b2c:	00012f83          	lw	t6,0(sp)
    4b30:	04010113          	addi	sp,sp,64
    4b34:	30200073          	mret

00004b38 <handler_irq_fast_external_peripheral>:
    4b38:	fc010113          	addi	sp,sp,-64
    4b3c:	02112e23          	sw	ra,60(sp)
    4b40:	02512c23          	sw	t0,56(sp)
    4b44:	02612a23          	sw	t1,52(sp)
    4b48:	02712823          	sw	t2,48(sp)
    4b4c:	02a12623          	sw	a0,44(sp)
    4b50:	02b12423          	sw	a1,40(sp)
    4b54:	02c12223          	sw	a2,36(sp)
    4b58:	02d12023          	sw	a3,32(sp)
    4b5c:	00e12e23          	sw	a4,28(sp)
    4b60:	00f12c23          	sw	a5,24(sp)
    4b64:	01012a23          	sw	a6,20(sp)
    4b68:	01112823          	sw	a7,16(sp)
    4b6c:	01c12623          	sw	t3,12(sp)
    4b70:	01d12423          	sw	t4,8(sp)
    4b74:	01e12223          	sw	t5,4(sp)
    4b78:	01f12023          	sw	t6,0(sp)
    4b7c:	200607b7          	lui	a5,0x20060
    4b80:	00008737          	lui	a4,0x8
    4b84:	00e7a223          	sw	a4,4(a5) # 20060004 <_sp+0x20035ec4>
    4b88:	895fb0ef          	jal	41c <fic_irq_ext_peripheral>
    4b8c:	03c12083          	lw	ra,60(sp)
    4b90:	03812283          	lw	t0,56(sp)
    4b94:	03412303          	lw	t1,52(sp)
    4b98:	03012383          	lw	t2,48(sp)
    4b9c:	02c12503          	lw	a0,44(sp)
    4ba0:	02812583          	lw	a1,40(sp)
    4ba4:	02412603          	lw	a2,36(sp)
    4ba8:	02012683          	lw	a3,32(sp)
    4bac:	01c12703          	lw	a4,28(sp)
    4bb0:	01812783          	lw	a5,24(sp)
    4bb4:	01412803          	lw	a6,20(sp)
    4bb8:	01012883          	lw	a7,16(sp)
    4bbc:	00c12e03          	lw	t3,12(sp)
    4bc0:	00812e83          	lw	t4,8(sp)
    4bc4:	00412f03          	lw	t5,4(sp)
    4bc8:	00012f83          	lw	t6,0(sp)
    4bcc:	04010113          	addi	sp,sp,64
    4bd0:	30200073          	mret

00004bd4 <handler_irq_fast_gpio_0>:
    4bd4:	fc010113          	addi	sp,sp,-64
    4bd8:	02112e23          	sw	ra,60(sp)
    4bdc:	02512c23          	sw	t0,56(sp)
    4be0:	02612a23          	sw	t1,52(sp)
    4be4:	02712823          	sw	t2,48(sp)
    4be8:	02a12623          	sw	a0,44(sp)
    4bec:	02b12423          	sw	a1,40(sp)
    4bf0:	02c12223          	sw	a2,36(sp)
    4bf4:	02d12023          	sw	a3,32(sp)
    4bf8:	00e12e23          	sw	a4,28(sp)
    4bfc:	00f12c23          	sw	a5,24(sp)
    4c00:	01012a23          	sw	a6,20(sp)
    4c04:	01112823          	sw	a7,16(sp)
    4c08:	01c12623          	sw	t3,12(sp)
    4c0c:	01d12423          	sw	t4,8(sp)
    4c10:	01e12223          	sw	t5,4(sp)
    4c14:	01f12023          	sw	t6,0(sp)
    4c18:	200607b7          	lui	a5,0x20060
    4c1c:	04000713          	li	a4,64
    4c20:	00e7a223          	sw	a4,4(a5) # 20060004 <_sp+0x20035ec4>
    4c24:	81dfb0ef          	jal	440 <fic_irq_gpio_0>
    4c28:	03c12083          	lw	ra,60(sp)
    4c2c:	03812283          	lw	t0,56(sp)
    4c30:	03412303          	lw	t1,52(sp)
    4c34:	03012383          	lw	t2,48(sp)
    4c38:	02c12503          	lw	a0,44(sp)
    4c3c:	02812583          	lw	a1,40(sp)
    4c40:	02412603          	lw	a2,36(sp)
    4c44:	02012683          	lw	a3,32(sp)
    4c48:	01c12703          	lw	a4,28(sp)
    4c4c:	01812783          	lw	a5,24(sp)
    4c50:	01412803          	lw	a6,20(sp)
    4c54:	01012883          	lw	a7,16(sp)
    4c58:	00c12e03          	lw	t3,12(sp)
    4c5c:	00812e83          	lw	t4,8(sp)
    4c60:	00412f03          	lw	t5,4(sp)
    4c64:	00012f83          	lw	t6,0(sp)
    4c68:	04010113          	addi	sp,sp,64
    4c6c:	30200073          	mret

00004c70 <handler_irq_fast_gpio_1>:
    4c70:	fc010113          	addi	sp,sp,-64
    4c74:	02112e23          	sw	ra,60(sp)
    4c78:	02512c23          	sw	t0,56(sp)
    4c7c:	02612a23          	sw	t1,52(sp)
    4c80:	02712823          	sw	t2,48(sp)
    4c84:	02a12623          	sw	a0,44(sp)
    4c88:	02b12423          	sw	a1,40(sp)
    4c8c:	02c12223          	sw	a2,36(sp)
    4c90:	02d12023          	sw	a3,32(sp)
    4c94:	00e12e23          	sw	a4,28(sp)
    4c98:	00f12c23          	sw	a5,24(sp)
    4c9c:	01012a23          	sw	a6,20(sp)
    4ca0:	01112823          	sw	a7,16(sp)
    4ca4:	01c12623          	sw	t3,12(sp)
    4ca8:	01d12423          	sw	t4,8(sp)
    4cac:	01e12223          	sw	t5,4(sp)
    4cb0:	01f12023          	sw	t6,0(sp)
    4cb4:	200607b7          	lui	a5,0x20060
    4cb8:	08000713          	li	a4,128
    4cbc:	00e7a223          	sw	a4,4(a5) # 20060004 <_sp+0x20035ec4>
    4cc0:	fa4fb0ef          	jal	464 <fic_irq_gpio_1>
    4cc4:	03c12083          	lw	ra,60(sp)
    4cc8:	03812283          	lw	t0,56(sp)
    4ccc:	03412303          	lw	t1,52(sp)
    4cd0:	03012383          	lw	t2,48(sp)
    4cd4:	02c12503          	lw	a0,44(sp)
    4cd8:	02812583          	lw	a1,40(sp)
    4cdc:	02412603          	lw	a2,36(sp)
    4ce0:	02012683          	lw	a3,32(sp)
    4ce4:	01c12703          	lw	a4,28(sp)
    4ce8:	01812783          	lw	a5,24(sp)
    4cec:	01412803          	lw	a6,20(sp)
    4cf0:	01012883          	lw	a7,16(sp)
    4cf4:	00c12e03          	lw	t3,12(sp)
    4cf8:	00812e83          	lw	t4,8(sp)
    4cfc:	00412f03          	lw	t5,4(sp)
    4d00:	00012f83          	lw	t6,0(sp)
    4d04:	04010113          	addi	sp,sp,64
    4d08:	30200073          	mret

00004d0c <handler_irq_fast_gpio_2>:
    4d0c:	fc010113          	addi	sp,sp,-64
    4d10:	02112e23          	sw	ra,60(sp)
    4d14:	02512c23          	sw	t0,56(sp)
    4d18:	02612a23          	sw	t1,52(sp)
    4d1c:	02712823          	sw	t2,48(sp)
    4d20:	02a12623          	sw	a0,44(sp)
    4d24:	02b12423          	sw	a1,40(sp)
    4d28:	02c12223          	sw	a2,36(sp)
    4d2c:	02d12023          	sw	a3,32(sp)
    4d30:	00e12e23          	sw	a4,28(sp)
    4d34:	00f12c23          	sw	a5,24(sp)
    4d38:	01012a23          	sw	a6,20(sp)
    4d3c:	01112823          	sw	a7,16(sp)
    4d40:	01c12623          	sw	t3,12(sp)
    4d44:	01d12423          	sw	t4,8(sp)
    4d48:	01e12223          	sw	t5,4(sp)
    4d4c:	01f12023          	sw	t6,0(sp)
    4d50:	200607b7          	lui	a5,0x20060
    4d54:	10000713          	li	a4,256
    4d58:	00e7a223          	sw	a4,4(a5) # 20060004 <_sp+0x20035ec4>
    4d5c:	f2cfb0ef          	jal	488 <fic_irq_gpio_2>
    4d60:	03c12083          	lw	ra,60(sp)
    4d64:	03812283          	lw	t0,56(sp)
    4d68:	03412303          	lw	t1,52(sp)
    4d6c:	03012383          	lw	t2,48(sp)
    4d70:	02c12503          	lw	a0,44(sp)
    4d74:	02812583          	lw	a1,40(sp)
    4d78:	02412603          	lw	a2,36(sp)
    4d7c:	02012683          	lw	a3,32(sp)
    4d80:	01c12703          	lw	a4,28(sp)
    4d84:	01812783          	lw	a5,24(sp)
    4d88:	01412803          	lw	a6,20(sp)
    4d8c:	01012883          	lw	a7,16(sp)
    4d90:	00c12e03          	lw	t3,12(sp)
    4d94:	00812e83          	lw	t4,8(sp)
    4d98:	00412f03          	lw	t5,4(sp)
    4d9c:	00012f83          	lw	t6,0(sp)
    4da0:	04010113          	addi	sp,sp,64
    4da4:	30200073          	mret

00004da8 <handler_irq_fast_gpio_3>:
    4da8:	fc010113          	addi	sp,sp,-64
    4dac:	02112e23          	sw	ra,60(sp)
    4db0:	02512c23          	sw	t0,56(sp)
    4db4:	02612a23          	sw	t1,52(sp)
    4db8:	02712823          	sw	t2,48(sp)
    4dbc:	02a12623          	sw	a0,44(sp)
    4dc0:	02b12423          	sw	a1,40(sp)
    4dc4:	02c12223          	sw	a2,36(sp)
    4dc8:	02d12023          	sw	a3,32(sp)
    4dcc:	00e12e23          	sw	a4,28(sp)
    4dd0:	00f12c23          	sw	a5,24(sp)
    4dd4:	01012a23          	sw	a6,20(sp)
    4dd8:	01112823          	sw	a7,16(sp)
    4ddc:	01c12623          	sw	t3,12(sp)
    4de0:	01d12423          	sw	t4,8(sp)
    4de4:	01e12223          	sw	t5,4(sp)
    4de8:	01f12023          	sw	t6,0(sp)
    4dec:	200607b7          	lui	a5,0x20060
    4df0:	20000713          	li	a4,512
    4df4:	00e7a223          	sw	a4,4(a5) # 20060004 <_sp+0x20035ec4>
    4df8:	eb4fb0ef          	jal	4ac <fic_irq_gpio_3>
    4dfc:	03c12083          	lw	ra,60(sp)
    4e00:	03812283          	lw	t0,56(sp)
    4e04:	03412303          	lw	t1,52(sp)
    4e08:	03012383          	lw	t2,48(sp)
    4e0c:	02c12503          	lw	a0,44(sp)
    4e10:	02812583          	lw	a1,40(sp)
    4e14:	02412603          	lw	a2,36(sp)
    4e18:	02012683          	lw	a3,32(sp)
    4e1c:	01c12703          	lw	a4,28(sp)
    4e20:	01812783          	lw	a5,24(sp)
    4e24:	01412803          	lw	a6,20(sp)
    4e28:	01012883          	lw	a7,16(sp)
    4e2c:	00c12e03          	lw	t3,12(sp)
    4e30:	00812e83          	lw	t4,8(sp)
    4e34:	00412f03          	lw	t5,4(sp)
    4e38:	00012f83          	lw	t6,0(sp)
    4e3c:	04010113          	addi	sp,sp,64
    4e40:	30200073          	mret

00004e44 <handler_irq_fast_gpio_4>:
    4e44:	fc010113          	addi	sp,sp,-64
    4e48:	02112e23          	sw	ra,60(sp)
    4e4c:	02512c23          	sw	t0,56(sp)
    4e50:	02612a23          	sw	t1,52(sp)
    4e54:	02712823          	sw	t2,48(sp)
    4e58:	02a12623          	sw	a0,44(sp)
    4e5c:	02b12423          	sw	a1,40(sp)
    4e60:	02c12223          	sw	a2,36(sp)
    4e64:	02d12023          	sw	a3,32(sp)
    4e68:	00e12e23          	sw	a4,28(sp)
    4e6c:	00f12c23          	sw	a5,24(sp)
    4e70:	01012a23          	sw	a6,20(sp)
    4e74:	01112823          	sw	a7,16(sp)
    4e78:	01c12623          	sw	t3,12(sp)
    4e7c:	01d12423          	sw	t4,8(sp)
    4e80:	01e12223          	sw	t5,4(sp)
    4e84:	01f12023          	sw	t6,0(sp)
    4e88:	200607b7          	lui	a5,0x20060
    4e8c:	40000713          	li	a4,1024
    4e90:	00e7a223          	sw	a4,4(a5) # 20060004 <_sp+0x20035ec4>
    4e94:	e3cfb0ef          	jal	4d0 <fic_irq_gpio_4>
    4e98:	03c12083          	lw	ra,60(sp)
    4e9c:	03812283          	lw	t0,56(sp)
    4ea0:	03412303          	lw	t1,52(sp)
    4ea4:	03012383          	lw	t2,48(sp)
    4ea8:	02c12503          	lw	a0,44(sp)
    4eac:	02812583          	lw	a1,40(sp)
    4eb0:	02412603          	lw	a2,36(sp)
    4eb4:	02012683          	lw	a3,32(sp)
    4eb8:	01c12703          	lw	a4,28(sp)
    4ebc:	01812783          	lw	a5,24(sp)
    4ec0:	01412803          	lw	a6,20(sp)
    4ec4:	01012883          	lw	a7,16(sp)
    4ec8:	00c12e03          	lw	t3,12(sp)
    4ecc:	00812e83          	lw	t4,8(sp)
    4ed0:	00412f03          	lw	t5,4(sp)
    4ed4:	00012f83          	lw	t6,0(sp)
    4ed8:	04010113          	addi	sp,sp,64
    4edc:	30200073          	mret

00004ee0 <handler_irq_fast_gpio_5>:
    4ee0:	fc010113          	addi	sp,sp,-64
    4ee4:	02112e23          	sw	ra,60(sp)
    4ee8:	02512c23          	sw	t0,56(sp)
    4eec:	02612a23          	sw	t1,52(sp)
    4ef0:	02712823          	sw	t2,48(sp)
    4ef4:	02a12623          	sw	a0,44(sp)
    4ef8:	02b12423          	sw	a1,40(sp)
    4efc:	02c12223          	sw	a2,36(sp)
    4f00:	02d12023          	sw	a3,32(sp)
    4f04:	00e12e23          	sw	a4,28(sp)
    4f08:	00f12c23          	sw	a5,24(sp)
    4f0c:	01012a23          	sw	a6,20(sp)
    4f10:	01112823          	sw	a7,16(sp)
    4f14:	01c12623          	sw	t3,12(sp)
    4f18:	01d12423          	sw	t4,8(sp)
    4f1c:	01e12223          	sw	t5,4(sp)
    4f20:	01f12023          	sw	t6,0(sp)
    4f24:	20060737          	lui	a4,0x20060
    4f28:	000017b7          	lui	a5,0x1
    4f2c:	80078793          	addi	a5,a5,-2048 # 800 <spi_event_handler+0x110>
    4f30:	00f72223          	sw	a5,4(a4) # 20060004 <_sp+0x20035ec4>
    4f34:	dc0fb0ef          	jal	4f4 <fic_irq_gpio_5>
    4f38:	03c12083          	lw	ra,60(sp)
    4f3c:	03812283          	lw	t0,56(sp)
    4f40:	03412303          	lw	t1,52(sp)
    4f44:	03012383          	lw	t2,48(sp)
    4f48:	02c12503          	lw	a0,44(sp)
    4f4c:	02812583          	lw	a1,40(sp)
    4f50:	02412603          	lw	a2,36(sp)
    4f54:	02012683          	lw	a3,32(sp)
    4f58:	01c12703          	lw	a4,28(sp)
    4f5c:	01812783          	lw	a5,24(sp)
    4f60:	01412803          	lw	a6,20(sp)
    4f64:	01012883          	lw	a7,16(sp)
    4f68:	00c12e03          	lw	t3,12(sp)
    4f6c:	00812e83          	lw	t4,8(sp)
    4f70:	00412f03          	lw	t5,4(sp)
    4f74:	00012f83          	lw	t6,0(sp)
    4f78:	04010113          	addi	sp,sp,64
    4f7c:	30200073          	mret

00004f80 <handler_irq_fast_gpio_6>:
    4f80:	fc010113          	addi	sp,sp,-64
    4f84:	02112e23          	sw	ra,60(sp)
    4f88:	02512c23          	sw	t0,56(sp)
    4f8c:	02612a23          	sw	t1,52(sp)
    4f90:	02712823          	sw	t2,48(sp)
    4f94:	02a12623          	sw	a0,44(sp)
    4f98:	02b12423          	sw	a1,40(sp)
    4f9c:	02c12223          	sw	a2,36(sp)
    4fa0:	02d12023          	sw	a3,32(sp)
    4fa4:	00e12e23          	sw	a4,28(sp)
    4fa8:	00f12c23          	sw	a5,24(sp)
    4fac:	01012a23          	sw	a6,20(sp)
    4fb0:	01112823          	sw	a7,16(sp)
    4fb4:	01c12623          	sw	t3,12(sp)
    4fb8:	01d12423          	sw	t4,8(sp)
    4fbc:	01e12223          	sw	t5,4(sp)
    4fc0:	01f12023          	sw	t6,0(sp)
    4fc4:	200607b7          	lui	a5,0x20060
    4fc8:	00001737          	lui	a4,0x1
    4fcc:	00e7a223          	sw	a4,4(a5) # 20060004 <_sp+0x20035ec4>
    4fd0:	d48fb0ef          	jal	518 <fic_irq_gpio_6>
    4fd4:	03c12083          	lw	ra,60(sp)
    4fd8:	03812283          	lw	t0,56(sp)
    4fdc:	03412303          	lw	t1,52(sp)
    4fe0:	03012383          	lw	t2,48(sp)
    4fe4:	02c12503          	lw	a0,44(sp)
    4fe8:	02812583          	lw	a1,40(sp)
    4fec:	02412603          	lw	a2,36(sp)
    4ff0:	02012683          	lw	a3,32(sp)
    4ff4:	01c12703          	lw	a4,28(sp)
    4ff8:	01812783          	lw	a5,24(sp)
    4ffc:	01412803          	lw	a6,20(sp)
    5000:	01012883          	lw	a7,16(sp)
    5004:	00c12e03          	lw	t3,12(sp)
    5008:	00812e83          	lw	t4,8(sp)
    500c:	00412f03          	lw	t5,4(sp)
    5010:	00012f83          	lw	t6,0(sp)
    5014:	04010113          	addi	sp,sp,64
    5018:	30200073          	mret

0000501c <handler_irq_fast_gpio_7>:
    501c:	fc010113          	addi	sp,sp,-64
    5020:	02112e23          	sw	ra,60(sp)
    5024:	02512c23          	sw	t0,56(sp)
    5028:	02612a23          	sw	t1,52(sp)
    502c:	02712823          	sw	t2,48(sp)
    5030:	02a12623          	sw	a0,44(sp)
    5034:	02b12423          	sw	a1,40(sp)
    5038:	02c12223          	sw	a2,36(sp)
    503c:	02d12023          	sw	a3,32(sp)
    5040:	00e12e23          	sw	a4,28(sp)
    5044:	00f12c23          	sw	a5,24(sp)
    5048:	01012a23          	sw	a6,20(sp)
    504c:	01112823          	sw	a7,16(sp)
    5050:	01c12623          	sw	t3,12(sp)
    5054:	01d12423          	sw	t4,8(sp)
    5058:	01e12223          	sw	t5,4(sp)
    505c:	01f12023          	sw	t6,0(sp)
    5060:	200607b7          	lui	a5,0x20060
    5064:	00002737          	lui	a4,0x2
    5068:	00e7a223          	sw	a4,4(a5) # 20060004 <_sp+0x20035ec4>
    506c:	cd0fb0ef          	jal	53c <fic_irq_gpio_7>
    5070:	03c12083          	lw	ra,60(sp)
    5074:	03812283          	lw	t0,56(sp)
    5078:	03412303          	lw	t1,52(sp)
    507c:	03012383          	lw	t2,48(sp)
    5080:	02c12503          	lw	a0,44(sp)
    5084:	02812583          	lw	a1,40(sp)
    5088:	02412603          	lw	a2,36(sp)
    508c:	02012683          	lw	a3,32(sp)
    5090:	01c12703          	lw	a4,28(sp)
    5094:	01812783          	lw	a5,24(sp)
    5098:	01412803          	lw	a6,20(sp)
    509c:	01012883          	lw	a7,16(sp)
    50a0:	00c12e03          	lw	t3,12(sp)
    50a4:	00812e83          	lw	t4,8(sp)
    50a8:	00412f03          	lw	t5,4(sp)
    50ac:	00012f83          	lw	t6,0(sp)
    50b0:	04010113          	addi	sp,sp,64
    50b4:	30200073          	mret

000050b8 <handler_irq_external>:
    50b8:	fb010113          	addi	sp,sp,-80
    50bc:	04112623          	sw	ra,76(sp)
    50c0:	04512423          	sw	t0,72(sp)
    50c4:	04612223          	sw	t1,68(sp)
    50c8:	04712023          	sw	t2,64(sp)
    50cc:	02912e23          	sw	s1,60(sp)
    50d0:	02a12c23          	sw	a0,56(sp)
    50d4:	02b12a23          	sw	a1,52(sp)
    50d8:	02c12823          	sw	a2,48(sp)
    50dc:	02d12623          	sw	a3,44(sp)
    50e0:	02e12423          	sw	a4,40(sp)
    50e4:	02f12223          	sw	a5,36(sp)
    50e8:	03012023          	sw	a6,32(sp)
    50ec:	01112e23          	sw	a7,28(sp)
    50f0:	01212c23          	sw	s2,24(sp)
    50f4:	01c12a23          	sw	t3,20(sp)
    50f8:	01d12823          	sw	t4,16(sp)
    50fc:	01e12623          	sw	t5,12(sp)
    5100:	01f12423          	sw	t6,8(sp)
    5104:	300004b7          	lui	s1,0x30000
    5108:	20c4a903          	lw	s2,524(s1) # 3000020c <_sp+0x2ffd60cc>
    510c:	00090513          	mv	a0,s2
    5110:	00000793          	li	a5,0
    5114:	000780e7          	jalr	a5
    5118:	2124a623          	sw	s2,524(s1)
    511c:	04c12083          	lw	ra,76(sp)
    5120:	04812283          	lw	t0,72(sp)
    5124:	04412303          	lw	t1,68(sp)
    5128:	04012383          	lw	t2,64(sp)
    512c:	03c12483          	lw	s1,60(sp)
    5130:	03812503          	lw	a0,56(sp)
    5134:	03412583          	lw	a1,52(sp)
    5138:	03012603          	lw	a2,48(sp)
    513c:	02c12683          	lw	a3,44(sp)
    5140:	02812703          	lw	a4,40(sp)
    5144:	02412783          	lw	a5,36(sp)
    5148:	02012803          	lw	a6,32(sp)
    514c:	01c12883          	lw	a7,28(sp)
    5150:	01812903          	lw	s2,24(sp)
    5154:	01412e03          	lw	t3,20(sp)
    5158:	01012e83          	lw	t4,16(sp)
    515c:	00c12f03          	lw	t5,12(sp)
    5160:	00812f83          	lw	t6,8(sp)
    5164:	05010113          	addi	sp,sp,80
    5168:	30200073          	mret

0000516c <handler_exception>:
    516c:	fc010113          	addi	sp,sp,-64
    5170:	02112e23          	sw	ra,60(sp)
    5174:	02512c23          	sw	t0,56(sp)
    5178:	02612a23          	sw	t1,52(sp)
    517c:	02712823          	sw	t2,48(sp)
    5180:	02a12623          	sw	a0,44(sp)
    5184:	02b12423          	sw	a1,40(sp)
    5188:	02c12223          	sw	a2,36(sp)
    518c:	02d12023          	sw	a3,32(sp)
    5190:	00e12e23          	sw	a4,28(sp)
    5194:	00f12c23          	sw	a5,24(sp)
    5198:	01012a23          	sw	a6,20(sp)
    519c:	01112823          	sw	a7,16(sp)
    51a0:	01c12623          	sw	t3,12(sp)
    51a4:	01d12423          	sw	t4,8(sp)
    51a8:	01e12223          	sw	t5,4(sp)
    51ac:	01f12023          	sw	t6,0(sp)
    51b0:	342027f3          	csrr	a5,mcause
    51b4:	01f7f793          	andi	a5,a5,31
    51b8:	00b00713          	li	a4,11
    51bc:	06f76863          	bltu	a4,a5,522c <handler_exception+0xc0>
    51c0:	00020737          	lui	a4,0x20
    51c4:	00070713          	mv	a4,a4
    51c8:	20e7c7b3          	sh2add	a5,a5,a4
    51cc:	0007a783          	lw	a5,0(a5)
    51d0:	00078067          	jr	a5
    51d4:	00020537          	lui	a0,0x20
    51d8:	3f050513          	addi	a0,a0,1008 # 203f0 <__clz_tab+0x1c0>
    51dc:	921fb0ef          	jal	afc <print_exc_msg>
    51e0:	00020537          	lui	a0,0x20
    51e4:	3f050513          	addi	a0,a0,1008 # 203f0 <__clz_tab+0x1c0>
    51e8:	915fb0ef          	jal	afc <print_exc_msg>
    51ec:	00020537          	lui	a0,0x20
    51f0:	42850513          	addi	a0,a0,1064 # 20428 <__clz_tab+0x1f8>
    51f4:	909fb0ef          	jal	afc <print_exc_msg>
    51f8:	00020537          	lui	a0,0x20
    51fc:	46450513          	addi	a0,a0,1124 # 20464 <__clz_tab+0x234>
    5200:	8fdfb0ef          	jal	afc <print_exc_msg>
    5204:	00020537          	lui	a0,0x20
    5208:	4a050513          	addi	a0,a0,1184 # 204a0 <__clz_tab+0x270>
    520c:	8f1fb0ef          	jal	afc <print_exc_msg>
    5210:	00020537          	lui	a0,0x20
    5214:	4a050513          	addi	a0,a0,1184 # 204a0 <__clz_tab+0x270>
    5218:	8e5fb0ef          	jal	afc <print_exc_msg>
    521c:	00020537          	lui	a0,0x20
    5220:	4d450513          	addi	a0,a0,1236 # 204d4 <__clz_tab+0x2a4>
    5224:	8a5fb0ef          	jal	ac8 <_writestr>
    5228:	0000006f          	j	5228 <handler_exception+0xbc>
    522c:	0000006f          	j	522c <handler_exception+0xc0>

00005230 <handler_irq_software>:
    5230:	fc010113          	addi	sp,sp,-64
    5234:	02112e23          	sw	ra,60(sp)
    5238:	02512c23          	sw	t0,56(sp)
    523c:	02612a23          	sw	t1,52(sp)
    5240:	02712823          	sw	t2,48(sp)
    5244:	02a12623          	sw	a0,44(sp)
    5248:	02b12423          	sw	a1,40(sp)
    524c:	02c12223          	sw	a2,36(sp)
    5250:	02d12023          	sw	a3,32(sp)
    5254:	00e12e23          	sw	a4,28(sp)
    5258:	00f12c23          	sw	a5,24(sp)
    525c:	01012a23          	sw	a6,20(sp)
    5260:	01112823          	sw	a7,16(sp)
    5264:	01c12623          	sw	t3,12(sp)
    5268:	01d12423          	sw	t4,8(sp)
    526c:	01e12223          	sw	t5,4(sp)
    5270:	01f12023          	sw	t6,0(sp)
    5274:	00020537          	lui	a0,0x20
    5278:	4f450513          	addi	a0,a0,1268 # 204f4 <__clz_tab+0x2c4>
    527c:	84dfb0ef          	jal	ac8 <_writestr>
    5280:	0000006f          	j	5280 <handler_irq_software+0x50>

00005284 <handler_irq_timer>:
    5284:	fc010113          	addi	sp,sp,-64
    5288:	02112e23          	sw	ra,60(sp)
    528c:	02512c23          	sw	t0,56(sp)
    5290:	02612a23          	sw	t1,52(sp)
    5294:	02712823          	sw	t2,48(sp)
    5298:	02a12623          	sw	a0,44(sp)
    529c:	02b12423          	sw	a1,40(sp)
    52a0:	02c12223          	sw	a2,36(sp)
    52a4:	02d12023          	sw	a3,32(sp)
    52a8:	00e12e23          	sw	a4,28(sp)
    52ac:	00f12c23          	sw	a5,24(sp)
    52b0:	01012a23          	sw	a6,20(sp)
    52b4:	01112823          	sw	a7,16(sp)
    52b8:	01c12623          	sw	t3,12(sp)
    52bc:	01d12423          	sw	t4,8(sp)
    52c0:	01e12223          	sw	t5,4(sp)
    52c4:	01f12023          	sw	t6,0(sp)
    52c8:	00020537          	lui	a0,0x20
    52cc:	51050513          	addi	a0,a0,1296 # 20510 <__clz_tab+0x2e0>
    52d0:	ff8fb0ef          	jal	ac8 <_writestr>
    52d4:	0000006f          	j	52d4 <handler_irq_timer+0x50>

000052d8 <init>:
    52d8:	00000513          	li	a0,0
    52dc:	00008067          	ret

000052e0 <_close>:
    52e0:	fff00513          	li	a0,-1
    52e4:	00008067          	ret

000052e8 <_exit>:
    52e8:	200007b7          	lui	a5,0x20000
    52ec:	00a7a223          	sw	a0,4(a5) # 20000004 <_sp+0x1ffd5ec4>
    52f0:	00100713          	li	a4,1
    52f4:	00e78023          	sb	a4,0(a5)
    52f8:	10500073          	wfi

000052fc <_fstat>:
    52fc:	000027b7          	lui	a5,0x2
    5300:	00f5a223          	sw	a5,4(a1)
    5304:	00000513          	li	a0,0
    5308:	00008067          	ret

0000530c <_isatty>:
    530c:	fff50513          	addi	a0,a0,-1
    5310:	00153513          	seqz	a0,a0
    5314:	00008067          	ret

00005318 <_lseek>:
    5318:	00000513          	li	a0,0
    531c:	00008067          	ret

00005320 <_read>:
    5320:	00000513          	li	a0,0
    5324:	00008067          	ret

00005328 <_write_r>:
    5328:	ff010113          	addi	sp,sp,-16
    532c:	00112623          	sw	ra,12(sp)
    5330:	00058513          	mv	a0,a1
    5334:	00060593          	mv	a1,a2
    5338:	00068613          	mv	a2,a3
    533c:	ab4fb0ef          	jal	5f0 <_write>
    5340:	00c12083          	lw	ra,12(sp)
    5344:	01010113          	addi	sp,sp,16
    5348:	00008067          	ret

0000534c <_sbrk>:
    534c:	00050713          	mv	a4,a0
    5350:	bc018693          	addi	a3,gp,-1088 # 22134 <__BSS_END__>
    5354:	000267b7          	lui	a5,0x26
    5358:	13478793          	addi	a5,a5,308 # 26134 <__heap_end>
    535c:	02f68c63          	beq	a3,a5,5394 <_sbrk+0x48>
    5360:	9641a503          	lw	a0,-1692(gp) # 21ed8 <brk>
    5364:	00e50733          	add	a4,a0,a4
    5368:	00d737b3          	sltu	a5,a4,a3
    536c:	0017b793          	seqz	a5,a5
    5370:	000266b7          	lui	a3,0x26
    5374:	13468693          	addi	a3,a3,308 # 26134 <__heap_end>
    5378:	00d736b3          	sltu	a3,a4,a3
    537c:	00d7f7b3          	and	a5,a5,a3
    5380:	00079663          	bnez	a5,538c <_sbrk+0x40>
    5384:	fff00513          	li	a0,-1
    5388:	00008067          	ret
    538c:	96e1a223          	sw	a4,-1692(gp) # 21ed8 <brk>
    5390:	00008067          	ret
    5394:	00000513          	li	a0,0
    5398:	00008067          	ret

0000539c <spi_intr_handler_event_flash>:
    539c:	000227b7          	lui	a5,0x22
    53a0:	d847a703          	lw	a4,-636(a5) # 21d84 <peripherals+0x10>
    53a4:	00200793          	li	a5,2
    53a8:	00f70463          	beq	a4,a5,53b0 <spi_intr_handler_event_flash+0x14>
    53ac:	00008067          	ret
    53b0:	ff010113          	addi	sp,sp,-16
    53b4:	00112623          	sw	ra,12(sp)
    53b8:	00050593          	mv	a1,a0
    53bc:	00022537          	lui	a0,0x22
    53c0:	d7450513          	addi	a0,a0,-652 # 21d74 <peripherals>
    53c4:	b2cfb0ef          	jal	6f0 <spi_event_handler>
    53c8:	00c12083          	lw	ra,12(sp)
    53cc:	01010113          	addi	sp,sp,16
    53d0:	00008067          	ret

000053d4 <spi_intr_handler_error_flash>:
    53d4:	000227b7          	lui	a5,0x22
    53d8:	d847a703          	lw	a4,-636(a5) # 21d84 <peripherals+0x10>
    53dc:	00200793          	li	a5,2
    53e0:	00f70463          	beq	a4,a5,53e8 <spi_intr_handler_error_flash+0x14>
    53e4:	00008067          	ret
    53e8:	ff010113          	addi	sp,sp,-16
    53ec:	00112623          	sw	ra,12(sp)
    53f0:	00050593          	mv	a1,a0
    53f4:	00022537          	lui	a0,0x22
    53f8:	d7450513          	addi	a0,a0,-652 # 21d74 <peripherals>
    53fc:	d1cfb0ef          	jal	918 <spi_error_handler>
    5400:	00c12083          	lw	ra,12(sp)
    5404:	01010113          	addi	sp,sp,16
    5408:	00008067          	ret

0000540c <fic_irq_spi_flash>:
    540c:	fe010113          	addi	sp,sp,-32
    5410:	00112e23          	sw	ra,28(sp)
    5414:	200207b7          	lui	a5,0x20020
    5418:	0347a503          	lw	a0,52(a5) # 20020034 <_sp+0x1fff5ef4>
    541c:	03f57513          	andi	a0,a0,63
    5420:	00050a63          	beqz	a0,5434 <fic_irq_spi_flash+0x28>
    5424:	fb1ff0ef          	jal	53d4 <spi_intr_handler_error_flash>
    5428:	01c12083          	lw	ra,28(sp)
    542c:	02010113          	addi	sp,sp,32
    5430:	00008067          	ret
    5434:	20020737          	lui	a4,0x20020
    5438:	00072783          	lw	a5,0(a4) # 20020000 <_sp+0x1fff5ec0>
    543c:	0027e793          	ori	a5,a5,2
    5440:	00f72023          	sw	a5,0(a4)
    5444:	00c10593          	addi	a1,sp,12
    5448:	00070513          	mv	a0,a4
    544c:	914fb0ef          	jal	560 <spi_get_events>
    5450:	00c12503          	lw	a0,12(sp)
    5454:	f49ff0ef          	jal	539c <spi_intr_handler_event_flash>
    5458:	fd1ff06f          	j	5428 <fic_irq_spi_flash+0x1c>

0000545c <handler_irq_fast_spi_flash>:
    545c:	fc010113          	addi	sp,sp,-64
    5460:	02112e23          	sw	ra,60(sp)
    5464:	02512c23          	sw	t0,56(sp)
    5468:	02612a23          	sw	t1,52(sp)
    546c:	02712823          	sw	t2,48(sp)
    5470:	02a12623          	sw	a0,44(sp)
    5474:	02b12423          	sw	a1,40(sp)
    5478:	02c12223          	sw	a2,36(sp)
    547c:	02d12023          	sw	a3,32(sp)
    5480:	00e12e23          	sw	a4,28(sp)
    5484:	00f12c23          	sw	a5,24(sp)
    5488:	01012a23          	sw	a6,20(sp)
    548c:	01112823          	sw	a7,16(sp)
    5490:	01c12623          	sw	t3,12(sp)
    5494:	01d12423          	sw	t4,8(sp)
    5498:	01e12223          	sw	t5,4(sp)
    549c:	01f12023          	sw	t6,0(sp)
    54a0:	200607b7          	lui	a5,0x20060
    54a4:	02000713          	li	a4,32
    54a8:	00e7a223          	sw	a4,4(a5) # 20060004 <_sp+0x20035ec4>
    54ac:	f61ff0ef          	jal	540c <fic_irq_spi_flash>
    54b0:	03c12083          	lw	ra,60(sp)
    54b4:	03812283          	lw	t0,56(sp)
    54b8:	03412303          	lw	t1,52(sp)
    54bc:	03012383          	lw	t2,48(sp)
    54c0:	02c12503          	lw	a0,44(sp)
    54c4:	02812583          	lw	a1,40(sp)
    54c8:	02412603          	lw	a2,36(sp)
    54cc:	02012683          	lw	a3,32(sp)
    54d0:	01c12703          	lw	a4,28(sp)
    54d4:	01812783          	lw	a5,24(sp)
    54d8:	01412803          	lw	a6,20(sp)
    54dc:	01012883          	lw	a7,16(sp)
    54e0:	00c12e03          	lw	t3,12(sp)
    54e4:	00812e83          	lw	t4,8(sp)
    54e8:	00412f03          	lw	t5,4(sp)
    54ec:	00012f83          	lw	t6,0(sp)
    54f0:	04010113          	addi	sp,sp,64
    54f4:	30200073          	mret

000054f8 <spi_intr_handler_event_host>:
    54f8:	000227b7          	lui	a5,0x22
    54fc:	dcc7a703          	lw	a4,-564(a5) # 21dcc <peripherals+0x58>
    5500:	00200793          	li	a5,2
    5504:	00f70463          	beq	a4,a5,550c <spi_intr_handler_event_host+0x14>
    5508:	00008067          	ret
    550c:	ff010113          	addi	sp,sp,-16
    5510:	00112623          	sw	ra,12(sp)
    5514:	00050593          	mv	a1,a0
    5518:	00022537          	lui	a0,0x22
    551c:	dbc50513          	addi	a0,a0,-580 # 21dbc <peripherals+0x48>
    5520:	9d0fb0ef          	jal	6f0 <spi_event_handler>
    5524:	00c12083          	lw	ra,12(sp)
    5528:	01010113          	addi	sp,sp,16
    552c:	00008067          	ret

00005530 <spi_intr_handler_error_host>:
    5530:	000227b7          	lui	a5,0x22
    5534:	dcc7a703          	lw	a4,-564(a5) # 21dcc <peripherals+0x58>
    5538:	00200793          	li	a5,2
    553c:	00f70463          	beq	a4,a5,5544 <spi_intr_handler_error_host+0x14>
    5540:	00008067          	ret
    5544:	ff010113          	addi	sp,sp,-16
    5548:	00112623          	sw	ra,12(sp)
    554c:	00050593          	mv	a1,a0
    5550:	00022537          	lui	a0,0x22
    5554:	dbc50513          	addi	a0,a0,-580 # 21dbc <peripherals+0x48>
    5558:	bc0fb0ef          	jal	918 <spi_error_handler>
    555c:	00c12083          	lw	ra,12(sp)
    5560:	01010113          	addi	sp,sp,16
    5564:	00008067          	ret

00005568 <fic_irq_spi>:
    5568:	fe010113          	addi	sp,sp,-32
    556c:	00112e23          	sw	ra,28(sp)
    5570:	300107b7          	lui	a5,0x30010
    5574:	0347a503          	lw	a0,52(a5) # 30010034 <_sp+0x2ffe5ef4>
    5578:	03f57513          	andi	a0,a0,63
    557c:	00050a63          	beqz	a0,5590 <fic_irq_spi+0x28>
    5580:	fb1ff0ef          	jal	5530 <spi_intr_handler_error_host>
    5584:	01c12083          	lw	ra,28(sp)
    5588:	02010113          	addi	sp,sp,32
    558c:	00008067          	ret
    5590:	30010737          	lui	a4,0x30010
    5594:	00072783          	lw	a5,0(a4) # 30010000 <_sp+0x2ffe5ec0>
    5598:	0027e793          	ori	a5,a5,2
    559c:	00f72023          	sw	a5,0(a4)
    55a0:	00c10593          	addi	a1,sp,12
    55a4:	00070513          	mv	a0,a4
    55a8:	fb9fa0ef          	jal	560 <spi_get_events>
    55ac:	00c12503          	lw	a0,12(sp)
    55b0:	f49ff0ef          	jal	54f8 <spi_intr_handler_event_host>
    55b4:	fd1ff06f          	j	5584 <fic_irq_spi+0x1c>

000055b8 <handler_irq_fast_spi>:
    55b8:	fc010113          	addi	sp,sp,-64
    55bc:	02112e23          	sw	ra,60(sp)
    55c0:	02512c23          	sw	t0,56(sp)
    55c4:	02612a23          	sw	t1,52(sp)
    55c8:	02712823          	sw	t2,48(sp)
    55cc:	02a12623          	sw	a0,44(sp)
    55d0:	02b12423          	sw	a1,40(sp)
    55d4:	02c12223          	sw	a2,36(sp)
    55d8:	02d12023          	sw	a3,32(sp)
    55dc:	00e12e23          	sw	a4,28(sp)
    55e0:	00f12c23          	sw	a5,24(sp)
    55e4:	01012a23          	sw	a6,20(sp)
    55e8:	01112823          	sw	a7,16(sp)
    55ec:	01c12623          	sw	t3,12(sp)
    55f0:	01d12423          	sw	t4,8(sp)
    55f4:	01e12223          	sw	t5,4(sp)
    55f8:	01f12023          	sw	t6,0(sp)
    55fc:	200607b7          	lui	a5,0x20060
    5600:	01000713          	li	a4,16
    5604:	00e7a223          	sw	a4,4(a5) # 20060004 <_sp+0x20035ec4>
    5608:	f61ff0ef          	jal	5568 <fic_irq_spi>
    560c:	03c12083          	lw	ra,60(sp)
    5610:	03812283          	lw	t0,56(sp)
    5614:	03412303          	lw	t1,52(sp)
    5618:	03012383          	lw	t2,48(sp)
    561c:	02c12503          	lw	a0,44(sp)
    5620:	02812583          	lw	a1,40(sp)
    5624:	02412603          	lw	a2,36(sp)
    5628:	02012683          	lw	a3,32(sp)
    562c:	01c12703          	lw	a4,28(sp)
    5630:	01812783          	lw	a5,24(sp)
    5634:	01412803          	lw	a6,20(sp)
    5638:	01012883          	lw	a7,16(sp)
    563c:	00c12e03          	lw	t3,12(sp)
    5640:	00812e83          	lw	t4,8(sp)
    5644:	00412f03          	lw	t5,4(sp)
    5648:	00012f83          	lw	t6,0(sp)
    564c:	04010113          	addi	sp,sp,64
    5650:	30200073          	mret

00005654 <atexit>:
    5654:	00050593          	mv	a1,a0
    5658:	00000693          	li	a3,0
    565c:	00000613          	li	a2,0
    5660:	00000513          	li	a0,0
    5664:	5400006f          	j	5ba4 <__register_exitproc>

00005668 <std>:
    5668:	ff010113          	addi	sp,sp,-16
    566c:	00812423          	sw	s0,8(sp)
    5670:	00112623          	sw	ra,12(sp)
    5674:	00050413          	mv	s0,a0
    5678:	00b51623          	sh	a1,12(a0)
    567c:	00c51723          	sh	a2,14(a0)
    5680:	00052023          	sw	zero,0(a0)
    5684:	00052223          	sw	zero,4(a0)
    5688:	00052423          	sw	zero,8(a0)
    568c:	06052223          	sw	zero,100(a0)
    5690:	00052823          	sw	zero,16(a0)
    5694:	00052a23          	sw	zero,20(a0)
    5698:	00052c23          	sw	zero,24(a0)
    569c:	00800613          	li	a2,8
    56a0:	00000593          	li	a1,0
    56a4:	05c50513          	addi	a0,a0,92
    56a8:	4e0000ef          	jal	5b88 <memset>
    56ac:	000067b7          	lui	a5,0x6
    56b0:	88078793          	addi	a5,a5,-1920 # 5880 <__sread>
    56b4:	02f42223          	sw	a5,36(s0)
