
sw/build/main.elf:     file format elf32-littleriscv


Disassembly of section .vectors:

00000000 <__vector_start>:
   0:	6f10106f          	j	1ef0 <handler_exception>
   4:	22c0006f          	j	230 <__no_irq_handler>
   8:	2280006f          	j	230 <__no_irq_handler>
   c:	7a90106f          	j	1fb4 <handler_irq_software>
  10:	2200006f          	j	230 <__no_irq_handler>
  14:	21c0006f          	j	230 <__no_irq_handler>
  18:	2180006f          	j	230 <__no_irq_handler>
  1c:	7ed0106f          	j	2008 <handler_irq_timer>
  20:	2100006f          	j	230 <__no_irq_handler>
  24:	20c0006f          	j	230 <__no_irq_handler>
  28:	2080006f          	j	230 <__no_irq_handler>
  2c:	6110106f          	j	1e3c <handler_irq_external>
  30:	2000006f          	j	230 <__no_irq_handler>
  34:	1fc0006f          	j	230 <__no_irq_handler>
  38:	1f80006f          	j	230 <__no_irq_handler>
  3c:	1f40006f          	j	230 <__no_irq_handler>
  40:	5700106f          	j	15b0 <handler_irq_fast_timer_1>
  44:	6080106f          	j	164c <handler_irq_fast_timer_2>
  48:	6a00106f          	j	16e8 <handler_irq_fast_timer_3>
  4c:	7380106f          	j	1784 <handler_irq_fast_dma_done>
  50:	2ec0206f          	j	233c <handler_irq_fast_spi>
  54:	18c0206f          	j	21e0 <handler_irq_fast_spi_flash>
  58:	1010106f          	j	1958 <handler_irq_fast_gpio_0>
  5c:	1990106f          	j	19f4 <handler_irq_fast_gpio_1>
  60:	2310106f          	j	1a90 <handler_irq_fast_gpio_2>
  64:	2c90106f          	j	1b2c <handler_irq_fast_gpio_3>
  68:	3610106f          	j	1bc8 <handler_irq_fast_gpio_4>
  6c:	3f90106f          	j	1c64 <handler_irq_fast_gpio_5>
  70:	4950106f          	j	1d04 <handler_irq_fast_gpio_6>
  74:	52d0106f          	j	1da0 <handler_irq_fast_gpio_7>
  78:	7a80106f          	j	1820 <handler_irq_fast_dma_window>
  7c:	0410106f          	j	18bc <handler_irq_fast_external_peripheral>

Disassembly of section .init:

00000180 <_start>:
 180:	00023197          	auipc	gp,0x23
 184:	d2018193          	addi	gp,gp,-736 # 22ea0 <__global_pointer$>
 188:	0002b117          	auipc	sp,0x2b
 18c:	8d810113          	addi	sp,sp,-1832 # 2aa60 <_sp>
 190:	20000537          	lui	a0,0x20000
 194:	05f5e637          	lui	a2,0x5f5e
 198:	10060613          	addi	a2,a2,256 # 5f5e100 <_sp+0x5f336a0>
 19c:	00c52e23          	sw	a2,28(a0) # 2000001c <_sp+0x1ffd55bc>

000001a0 <_init_bss>:
 1a0:	00022517          	auipc	a0,0x22
 1a4:	66850513          	addi	a0,a0,1640 # 22808 <__stdio_exit_handler>
 1a8:	00023617          	auipc	a2,0x23
 1ac:	8b460613          	addi	a2,a2,-1868 # 22a5c <__BSS_END__>
 1b0:	40a60633          	sub	a2,a2,a0
 1b4:	00000593          	li	a1,0
 1b8:	754020ef          	jal	290c <memset>
 1bc:	00000517          	auipc	a0,0x0
 1c0:	e4450513          	addi	a0,a0,-444 # 0 <__vector_start>
 1c4:	00156513          	ori	a0,a0,1
 1c8:	30551073          	csrw	mtvec,a0
 1cc:	00002517          	auipc	a0,0x2
 1d0:	6e850513          	addi	a0,a0,1768 # 28b4 <__libc_fini_array>
 1d4:	204020ef          	jal	23d8 <atexit>
 1d8:	648020ef          	jal	2820 <__libc_init_array>
 1dc:	00012503          	lw	a0,0(sp)
 1e0:	00410593          	addi	a1,sp,4
 1e4:	00000613          	li	a2,0
 1e8:	544070ef          	jal	772c <main>
 1ec:	00c0006f          	j	1f8 <exit>

000001f0 <_init>:
 1f0:	66d010ef          	jal	205c <init>

000001f4 <_fini>:
 1f4:	00008067          	ret

Disassembly of section .text:

000001f8 <exit>:
     1f8:	ff010113          	addi	sp,sp,-16
     1fc:	000037b7          	lui	a5,0x3
     200:	00812423          	sw	s0,8(sp)
     204:	00112623          	sw	ra,12(sp)
     208:	9bc78793          	addi	a5,a5,-1604 # 29bc <__call_exitprocs>
     20c:	00050413          	mv	s0,a0
     210:	00078663          	beqz	a5,21c <exit+0x24>
     214:	00000593          	li	a1,0
     218:	7a4020ef          	jal	29bc <__call_exitprocs>
     21c:	9681a783          	lw	a5,-1688(gp) # 22808 <__stdio_exit_handler>
     220:	00078463          	beqz	a5,228 <exit+0x30>
     224:	000780e7          	jalr	a5
     228:	00040513          	mv	a0,s0
     22c:	641010ef          	jal	206c <_exit>

00000230 <__no_irq_handler>:
     230:	0000006f          	j	230 <__no_irq_handler>

00000234 <fic_irq_dma_window>:
     234:	fe010113          	addi	sp,sp,-32
     238:	00112e23          	sw	ra,28(sp)
     23c:	00812c23          	sw	s0,24(sp)
     240:	02010413          	addi	s0,sp,32
     244:	fe042623          	sw	zero,-20(s0)
     248:	04c0006f          	j	294 <fic_irq_dma_window+0x60>
     24c:	98c18693          	addi	a3,gp,-1652 # 2282c <dma_subsys_per>
     250:	fec42703          	lw	a4,-20(s0)
     254:	00070793          	mv	a5,a4
     258:	00179793          	slli	a5,a5,0x1
     25c:	00e787b3          	add	a5,a5,a4
     260:	00279793          	slli	a5,a5,0x2
     264:	00f687b3          	add	a5,a3,a5
     268:	0087a783          	lw	a5,8(a5)
     26c:	0687a703          	lw	a4,104(a5)
     270:	00100793          	li	a5,1
     274:	00f71a63          	bne	a4,a5,288 <fic_irq_dma_window+0x54>
     278:	fec42783          	lw	a5,-20(s0)
     27c:	0ff7f793          	zext.b	a5,a5
     280:	00078513          	mv	a0,a5
     284:	100000ef          	jal	384 <dma_intr_handler_window_done>
     288:	fec42783          	lw	a5,-20(s0)
     28c:	00178793          	addi	a5,a5,1
     290:	fef42623          	sw	a5,-20(s0)
     294:	fec42703          	lw	a4,-20(s0)
     298:	00300793          	li	a5,3
     29c:	fae7d8e3          	bge	a5,a4,24c <fic_irq_dma_window+0x18>
     2a0:	00000013          	nop
     2a4:	01c12083          	lw	ra,28(sp)
     2a8:	01812403          	lw	s0,24(sp)
     2ac:	02010113          	addi	sp,sp,32
     2b0:	00008067          	ret

000002b4 <fic_irq_dma_done>:
     2b4:	fe010113          	addi	sp,sp,-32
     2b8:	00112e23          	sw	ra,28(sp)
     2bc:	00812c23          	sw	s0,24(sp)
     2c0:	02010413          	addi	s0,sp,32
     2c4:	fe042623          	sw	zero,-20(s0)
     2c8:	0700006f          	j	338 <fic_irq_dma_done+0x84>
     2cc:	98c18693          	addi	a3,gp,-1652 # 2282c <dma_subsys_per>
     2d0:	fec42703          	lw	a4,-20(s0)
     2d4:	00070793          	mv	a5,a4
     2d8:	00179793          	slli	a5,a5,0x1
     2dc:	00e787b3          	add	a5,a5,a4
     2e0:	00279793          	slli	a5,a5,0x2
     2e4:	00f687b3          	add	a5,a3,a5
     2e8:	0087a783          	lw	a5,8(a5)
     2ec:	0647a703          	lw	a4,100(a5)
     2f0:	00100793          	li	a5,1
     2f4:	02f71c63          	bne	a4,a5,32c <fic_irq_dma_done+0x78>
     2f8:	98c18693          	addi	a3,gp,-1652 # 2282c <dma_subsys_per>
     2fc:	fec42703          	lw	a4,-20(s0)
     300:	00070793          	mv	a5,a4
     304:	00179793          	slli	a5,a5,0x1
     308:	00e787b3          	add	a5,a5,a4
     30c:	00279793          	slli	a5,a5,0x2
     310:	00f687b3          	add	a5,a3,a5
     314:	00100713          	li	a4,1
     318:	00e78223          	sb	a4,4(a5)
     31c:	fec42783          	lw	a5,-20(s0)
     320:	0ff7f793          	zext.b	a5,a5
     324:	00078513          	mv	a0,a5
     328:	030000ef          	jal	358 <dma_intr_handler_trans_done>
     32c:	fec42783          	lw	a5,-20(s0)
     330:	00178793          	addi	a5,a5,1
     334:	fef42623          	sw	a5,-20(s0)
     338:	fec42703          	lw	a4,-20(s0)
     33c:	00300793          	li	a5,3
     340:	f8e7d6e3          	bge	a5,a4,2cc <fic_irq_dma_done+0x18>
     344:	00000013          	nop
     348:	01c12083          	lw	ra,28(sp)
     34c:	01812403          	lw	s0,24(sp)
     350:	02010113          	addi	sp,sp,32
     354:	00008067          	ret

00000358 <dma_intr_handler_trans_done>:
     358:	fe010113          	addi	sp,sp,-32
     35c:	00112e23          	sw	ra,28(sp)
     360:	00812c23          	sw	s0,24(sp)
     364:	02010413          	addi	s0,sp,32
     368:	00050793          	mv	a5,a0
     36c:	fef407a3          	sb	a5,-17(s0)
     370:	00000013          	nop
     374:	01c12083          	lw	ra,28(sp)
     378:	01812403          	lw	s0,24(sp)
     37c:	02010113          	addi	sp,sp,32
     380:	00008067          	ret

00000384 <dma_intr_handler_window_done>:
     384:	fe010113          	addi	sp,sp,-32
     388:	00112e23          	sw	ra,28(sp)
     38c:	00812c23          	sw	s0,24(sp)
     390:	02010413          	addi	s0,sp,32
     394:	00050793          	mv	a5,a0
     398:	fef407a3          	sb	a5,-17(s0)
     39c:	00000013          	nop
     3a0:	01c12083          	lw	ra,28(sp)
     3a4:	01812403          	lw	s0,24(sp)
     3a8:	02010113          	addi	sp,sp,32
     3ac:	00008067          	ret

000003b0 <fic_irq_timer_1>:
     3b0:	ff010113          	addi	sp,sp,-16
     3b4:	00112623          	sw	ra,12(sp)
     3b8:	00812423          	sw	s0,8(sp)
     3bc:	01010413          	addi	s0,sp,16
     3c0:	00000013          	nop
     3c4:	00c12083          	lw	ra,12(sp)
     3c8:	00812403          	lw	s0,8(sp)
     3cc:	01010113          	addi	sp,sp,16
     3d0:	00008067          	ret

000003d4 <fic_irq_timer_2>:
     3d4:	ff010113          	addi	sp,sp,-16
     3d8:	00112623          	sw	ra,12(sp)
     3dc:	00812423          	sw	s0,8(sp)
     3e0:	01010413          	addi	s0,sp,16
     3e4:	00000013          	nop
     3e8:	00c12083          	lw	ra,12(sp)
     3ec:	00812403          	lw	s0,8(sp)
     3f0:	01010113          	addi	sp,sp,16
     3f4:	00008067          	ret

000003f8 <fic_irq_timer_3>:
     3f8:	ff010113          	addi	sp,sp,-16
     3fc:	00112623          	sw	ra,12(sp)
     400:	00812423          	sw	s0,8(sp)
     404:	01010413          	addi	s0,sp,16
     408:	00000013          	nop
     40c:	00c12083          	lw	ra,12(sp)
     410:	00812403          	lw	s0,8(sp)
     414:	01010113          	addi	sp,sp,16
     418:	00008067          	ret

0000041c <fic_irq_ext_peripheral>:
     41c:	ff010113          	addi	sp,sp,-16
     420:	00112623          	sw	ra,12(sp)
     424:	00812423          	sw	s0,8(sp)
     428:	01010413          	addi	s0,sp,16
     42c:	00000013          	nop
     430:	00c12083          	lw	ra,12(sp)
     434:	00812403          	lw	s0,8(sp)
     438:	01010113          	addi	sp,sp,16
     43c:	00008067          	ret

00000440 <fic_irq_gpio_0>:
     440:	ff010113          	addi	sp,sp,-16
     444:	00112623          	sw	ra,12(sp)
     448:	00812423          	sw	s0,8(sp)
     44c:	01010413          	addi	s0,sp,16
     450:	00000013          	nop
     454:	00c12083          	lw	ra,12(sp)
     458:	00812403          	lw	s0,8(sp)
     45c:	01010113          	addi	sp,sp,16
     460:	00008067          	ret

00000464 <fic_irq_gpio_1>:
     464:	ff010113          	addi	sp,sp,-16
     468:	00112623          	sw	ra,12(sp)
     46c:	00812423          	sw	s0,8(sp)
     470:	01010413          	addi	s0,sp,16
     474:	00000013          	nop
     478:	00c12083          	lw	ra,12(sp)
     47c:	00812403          	lw	s0,8(sp)
     480:	01010113          	addi	sp,sp,16
     484:	00008067          	ret

00000488 <fic_irq_gpio_2>:
     488:	ff010113          	addi	sp,sp,-16
     48c:	00112623          	sw	ra,12(sp)
     490:	00812423          	sw	s0,8(sp)
     494:	01010413          	addi	s0,sp,16
     498:	00000013          	nop
     49c:	00c12083          	lw	ra,12(sp)
     4a0:	00812403          	lw	s0,8(sp)
     4a4:	01010113          	addi	sp,sp,16
     4a8:	00008067          	ret

000004ac <fic_irq_gpio_3>:
     4ac:	ff010113          	addi	sp,sp,-16
     4b0:	00112623          	sw	ra,12(sp)
     4b4:	00812423          	sw	s0,8(sp)
     4b8:	01010413          	addi	s0,sp,16
     4bc:	00000013          	nop
     4c0:	00c12083          	lw	ra,12(sp)
     4c4:	00812403          	lw	s0,8(sp)
     4c8:	01010113          	addi	sp,sp,16
     4cc:	00008067          	ret

000004d0 <fic_irq_gpio_4>:
     4d0:	ff010113          	addi	sp,sp,-16
     4d4:	00112623          	sw	ra,12(sp)
     4d8:	00812423          	sw	s0,8(sp)
     4dc:	01010413          	addi	s0,sp,16
     4e0:	00000013          	nop
     4e4:	00c12083          	lw	ra,12(sp)
     4e8:	00812403          	lw	s0,8(sp)
     4ec:	01010113          	addi	sp,sp,16
     4f0:	00008067          	ret

000004f4 <fic_irq_gpio_5>:
     4f4:	ff010113          	addi	sp,sp,-16
     4f8:	00112623          	sw	ra,12(sp)
     4fc:	00812423          	sw	s0,8(sp)
     500:	01010413          	addi	s0,sp,16
     504:	00000013          	nop
     508:	00c12083          	lw	ra,12(sp)
     50c:	00812403          	lw	s0,8(sp)
     510:	01010113          	addi	sp,sp,16
     514:	00008067          	ret

00000518 <fic_irq_gpio_6>:
     518:	ff010113          	addi	sp,sp,-16
     51c:	00112623          	sw	ra,12(sp)
     520:	00812423          	sw	s0,8(sp)
     524:	01010413          	addi	s0,sp,16
     528:	00000013          	nop
     52c:	00c12083          	lw	ra,12(sp)
     530:	00812403          	lw	s0,8(sp)
     534:	01010113          	addi	sp,sp,16
     538:	00008067          	ret

0000053c <fic_irq_gpio_7>:
     53c:	ff010113          	addi	sp,sp,-16
     540:	00112623          	sw	ra,12(sp)
     544:	00812423          	sw	s0,8(sp)
     548:	01010413          	addi	s0,sp,16
     54c:	00000013          	nop
     550:	00c12083          	lw	ra,12(sp)
     554:	00812403          	lw	s0,8(sp)
     558:	01010113          	addi	sp,sp,16
     55c:	00008067          	ret

00000560 <spi_get_events>:
     560:	ff010113          	addi	sp,sp,-16
     564:	01452783          	lw	a5,20(a0)
     568:	00f12623          	sw	a5,12(sp)
     56c:	00c12683          	lw	a3,12(sp)
     570:	0196d693          	srli	a3,a3,0x19
     574:	0016f693          	andi	a3,a3,1
     578:	0005a783          	lw	a5,0(a1)
     57c:	00c12703          	lw	a4,12(sp)
     580:	01b75713          	srli	a4,a4,0x1b
     584:	ffc7f793          	andi	a5,a5,-4
     588:	00d7e7b3          	or	a5,a5,a3
     58c:	00c12683          	lw	a3,12(sp)
     590:	0126d693          	srli	a3,a3,0x12
     594:	00277713          	andi	a4,a4,2
     598:	00f76733          	or	a4,a4,a5
     59c:	00c12783          	lw	a5,12(sp)
     5a0:	0177d793          	srli	a5,a5,0x17
     5a4:	0046f693          	andi	a3,a3,4
     5a8:	ff377713          	andi	a4,a4,-13
     5ac:	00d76733          	or	a4,a4,a3
     5b0:	00c12683          	lw	a3,12(sp)
     5b4:	01f6d693          	srli	a3,a3,0x1f
     5b8:	0087f793          	andi	a5,a5,8
     5bc:	00e7e7b3          	or	a5,a5,a4
     5c0:	00c12703          	lw	a4,12(sp)
     5c4:	01975713          	srli	a4,a4,0x19
     5c8:	00469693          	slli	a3,a3,0x4
     5cc:	fcf7f793          	andi	a5,a5,-49
     5d0:	00d7e7b3          	or	a5,a5,a3
     5d4:	02077713          	andi	a4,a4,32
     5d8:	02074713          	xori	a4,a4,32
     5dc:	00f767b3          	or	a5,a4,a5
     5e0:	00f5a023          	sw	a5,0(a1)
     5e4:	00000513          	li	a0,0
     5e8:	01010113          	addi	sp,sp,16
     5ec:	00008067          	ret

000005f0 <_write>:
     5f0:	00100793          	li	a5,1
     5f4:	08f51063          	bne	a0,a5,674 <_write+0x84>
     5f8:	200007b7          	lui	a5,0x20000
     5fc:	01c7a783          	lw	a5,28(a5) # 2000001c <_sp+0x1ffd55bc>
     600:	08078263          	beqz	a5,684 <_write+0x94>
     604:	300807b7          	lui	a5,0x30080
     608:	0007a623          	sw	zero,12(a5) # 3008000c <_sp+0x300555ac>
     60c:	00300713          	li	a4,3
     610:	00e7ae23          	sw	a4,28(a5)
     614:	0207a223          	sw	zero,36(a5)
     618:	0207a623          	sw	zero,44(a5)
     61c:	0007a223          	sw	zero,4(a5)
     620:	fff00713          	li	a4,-1
     624:	00e7a023          	sw	a4,0(a5)
     628:	0a7c0737          	lui	a4,0xa7c0
     62c:	00370713          	addi	a4,a4,3 # a7c0003 <_sp+0xa7955a3>
     630:	00e7a623          	sw	a4,12(a5)
     634:	0007a223          	sw	zero,4(a5)
     638:	02060a63          	beqz	a2,66c <_write+0x7c>
     63c:	00c58833          	add	a6,a1,a2
     640:	00078713          	mv	a4,a5
     644:	0005c683          	lbu	a3,0(a1)
     648:	01072783          	lw	a5,16(a4)
     64c:	0017f793          	andi	a5,a5,1
     650:	fe079ce3          	bnez	a5,648 <_write+0x58>
     654:	00d72c23          	sw	a3,24(a4)
     658:	01072783          	lw	a5,16(a4)
     65c:	0087f793          	andi	a5,a5,8
     660:	fe078ce3          	beqz	a5,658 <_write+0x68>
     664:	00158593          	addi	a1,a1,1
     668:	fd059ee3          	bne	a1,a6,644 <_write+0x54>
     66c:	00060513          	mv	a0,a2
     670:	00008067          	ret
     674:	05800713          	li	a4,88
     678:	96e1a623          	sw	a4,-1684(gp) # 2280c <errno>
     67c:	fff00613          	li	a2,-1
     680:	fedff06f          	j	66c <_write+0x7c>
     684:	05800713          	li	a4,88
     688:	96e1a623          	sw	a4,-1684(gp) # 2280c <errno>
     68c:	ff1ff06f          	j	67c <_write+0x8c>

00000690 <spi_empty_rx>:
     690:	02452783          	lw	a5,36(a0)
     694:	00078863          	beqz	a5,6a4 <spi_empty_rx+0x14>
     698:	03452783          	lw	a5,52(a0)
     69c:	02852703          	lw	a4,40(a0)
     6a0:	02e7e863          	bltu	a5,a4,6d0 <spi_empty_rx+0x40>
     6a4:	00000513          	li	a0,0
     6a8:	00008067          	ret
     6ac:	0286a703          	lw	a4,40(a3)
     6b0:	02452683          	lw	a3,36(a0)
     6b4:	20d7c7b3          	sh2add	a5,a5,a3
     6b8:	00e7a023          	sw	a4,0(a5)
     6bc:	03452783          	lw	a5,52(a0)
     6c0:	00178793          	addi	a5,a5,1
     6c4:	02f52a23          	sw	a5,52(a0)
     6c8:	02852703          	lw	a4,40(a0)
     6cc:	00e7fe63          	bgeu	a5,a4,6e8 <spi_empty_rx+0x58>
     6d0:	00052683          	lw	a3,0(a0)
     6d4:	00068a63          	beqz	a3,6e8 <spi_empty_rx+0x58>
     6d8:	0146a703          	lw	a4,20(a3)
     6dc:	00875713          	srli	a4,a4,0x8
     6e0:	0ff77713          	zext.b	a4,a4
     6e4:	fc0714e3          	bnez	a4,6ac <spi_empty_rx+0x1c>
     6e8:	00100513          	li	a0,1
     6ec:	00008067          	ret

000006f0 <spi_event_handler>:
     6f0:	ff010113          	addi	sp,sp,-16
     6f4:	00112623          	sw	ra,12(sp)
     6f8:	00912423          	sw	s1,8(sp)
     6fc:	01212223          	sw	s2,4(sp)
     700:	00050493          	mv	s1,a0
     704:	00058913          	mv	s2,a1
     708:	0105f793          	andi	a5,a1,16
     70c:	02078063          	beqz	a5,72c <spi_event_handler+0x3c>
     710:	01452703          	lw	a4,20(a0)
     714:	00070863          	beqz	a4,724 <spi_event_handler+0x34>
     718:	02c52683          	lw	a3,44(a0)
     71c:	01854783          	lbu	a5,24(a0)
     720:	02f6e863          	bltu	a3,a5,750 <spi_event_handler+0x60>
     724:	02097793          	andi	a5,s2,32
     728:	0a079e63          	bnez	a5,7e4 <spi_event_handler+0xf4>
     72c:	00897793          	andi	a5,s2,8
     730:	14079063          	bnez	a5,870 <spi_event_handler+0x180>
     734:	00497913          	andi	s2,s2,4
     738:	1a091663          	bnez	s2,8e4 <spi_event_handler+0x1f4>
     73c:	00c12083          	lw	ra,12(sp)
     740:	00812483          	lw	s1,8(sp)
     744:	00412903          	lw	s2,4(sp)
     748:	01010113          	addi	sp,sp,16
     74c:	00008067          	ret
     750:	20e6c733          	sh2add	a4,a3,a4
     754:	00072703          	lw	a4,0(a4)
     758:	00871613          	slli	a2,a4,0x8
     75c:	00865593          	srli	a1,a2,0x8
     760:	01875713          	srli	a4,a4,0x18
     764:	00f77613          	andi	a2,a4,15
     768:	00168693          	addi	a3,a3,1
     76c:	02d52623          	sw	a3,44(a0)
     770:	00052503          	lw	a0,0(a0)
     774:	fa050ce3          	beqz	a0,72c <spi_event_handler+0x3c>
     778:	00265713          	srli	a4,a2,0x2
     77c:	01971713          	slli	a4,a4,0x19
     780:	00367613          	andi	a2,a2,3
     784:	01b61613          	slli	a2,a2,0x1b
     788:	00c76733          	or	a4,a4,a2
     78c:	40d787b3          	sub	a5,a5,a3
     790:	00f037b3          	snez	a5,a5
     794:	01879793          	slli	a5,a5,0x18
     798:	00f767b3          	or	a5,a4,a5
     79c:	fff58613          	addi	a2,a1,-1
     7a0:	00861613          	slli	a2,a2,0x8
     7a4:	00865613          	srli	a2,a2,0x8
     7a8:	00c7e633          	or	a2,a5,a2
     7ac:	0197d793          	srli	a5,a5,0x19
     7b0:	0037f793          	andi	a5,a5,3
     7b4:	00200713          	li	a4,2
     7b8:	14f76c63          	bltu	a4,a5,910 <spi_event_handler+0x220>
     7bc:	01452703          	lw	a4,20(a0)
     7c0:	f60756e3          	bgez	a4,72c <spi_event_handler+0x3c>
     7c4:	01b65713          	srli	a4,a2,0x1b
     7c8:	ffd70713          	addi	a4,a4,-3
     7cc:	00173713          	seqz	a4,a4
     7d0:	00f037b3          	snez	a5,a5
     7d4:	00f777b3          	and	a5,a4,a5
     7d8:	f4079ae3          	bnez	a5,72c <spi_event_handler+0x3c>
     7dc:	02c52223          	sw	a2,36(a0)
     7e0:	f4dff06f          	j	72c <spi_event_handler+0x3c>
     7e4:	0004a783          	lw	a5,0(s1)
     7e8:	02078263          	beqz	a5,80c <spi_event_handler+0x11c>
     7ec:	0387a703          	lw	a4,56(a5)
     7f0:	fc077713          	andi	a4,a4,-64
     7f4:	02e7ac23          	sw	a4,56(a5)
     7f8:	0004a783          	lw	a5,0(s1)
     7fc:	00078863          	beqz	a5,80c <spi_event_handler+0x11c>
     800:	0047a703          	lw	a4,4(a5)
     804:	ffd77713          	andi	a4,a4,-3
     808:	00e7a223          	sw	a4,4(a5)
     80c:	00048513          	mv	a0,s1
     810:	e81ff0ef          	jal	690 <spi_empty_rx>
     814:	00400793          	li	a5,4
     818:	00f4a823          	sw	a5,16(s1)
     81c:	0384a783          	lw	a5,56(s1)
     820:	00078c63          	beqz	a5,838 <spi_event_handler+0x148>
     824:	0344a683          	lw	a3,52(s1)
     828:	0244a603          	lw	a2,36(s1)
     82c:	0304a583          	lw	a1,48(s1)
     830:	01c4a503          	lw	a0,28(s1)
     834:	000780e7          	jalr	a5
     838:	0204a623          	sw	zero,44(s1)
     83c:	0204a823          	sw	zero,48(s1)
     840:	0204aa23          	sw	zero,52(s1)
     844:	0004aa23          	sw	zero,20(s1)
     848:	0004ac23          	sw	zero,24(s1)
     84c:	0004ae23          	sw	zero,28(s1)
     850:	0204a023          	sw	zero,32(s1)
     854:	0204a223          	sw	zero,36(s1)
     858:	0204a423          	sw	zero,40(s1)
     85c:	0204ac23          	sw	zero,56(s1)
     860:	0204ae23          	sw	zero,60(s1)
     864:	0404a023          	sw	zero,64(s1)
     868:	0404a223          	sw	zero,68(s1)
     86c:	ed1ff06f          	j	73c <spi_event_handler+0x4c>
     870:	01c4a783          	lw	a5,28(s1)
     874:	ec0780e3          	beqz	a5,734 <spi_event_handler+0x44>
     878:	0304a783          	lw	a5,48(s1)
     87c:	0204a703          	lw	a4,32(s1)
     880:	eae7fae3          	bgeu	a5,a4,734 <spi_event_handler+0x44>
     884:	04700613          	li	a2,71
     888:	0280006f          	j	8b0 <spi_event_handler+0x1c0>
     88c:	01c4a683          	lw	a3,28(s1)
     890:	20d7c7b3          	sh2add	a5,a5,a3
     894:	0007a783          	lw	a5,0(a5)
     898:	02f72623          	sw	a5,44(a4)
     89c:	0304a783          	lw	a5,48(s1)
     8a0:	00178793          	addi	a5,a5,1
     8a4:	02f4a823          	sw	a5,48(s1)
     8a8:	0204a703          	lw	a4,32(s1)
     8ac:	00e7fc63          	bgeu	a5,a4,8c4 <spi_event_handler+0x1d4>
     8b0:	0004a703          	lw	a4,0(s1)
     8b4:	00070863          	beqz	a4,8c4 <spi_event_handler+0x1d4>
     8b8:	01472683          	lw	a3,20(a4)
     8bc:	0ff6f693          	zext.b	a3,a3
     8c0:	fcd676e3          	bgeu	a2,a3,88c <spi_event_handler+0x19c>
     8c4:	03c4a783          	lw	a5,60(s1)
     8c8:	e60786e3          	beqz	a5,734 <spi_event_handler+0x44>
     8cc:	0344a683          	lw	a3,52(s1)
     8d0:	0244a603          	lw	a2,36(s1)
     8d4:	0304a583          	lw	a1,48(s1)
     8d8:	01c4a503          	lw	a0,28(s1)
     8dc:	000780e7          	jalr	a5
     8e0:	e55ff06f          	j	734 <spi_event_handler+0x44>
     8e4:	00048513          	mv	a0,s1
     8e8:	da9ff0ef          	jal	690 <spi_empty_rx>
     8ec:	e40508e3          	beqz	a0,73c <spi_event_handler+0x4c>
     8f0:	0404a783          	lw	a5,64(s1)
     8f4:	e40784e3          	beqz	a5,73c <spi_event_handler+0x4c>
     8f8:	0344a683          	lw	a3,52(s1)
     8fc:	0244a603          	lw	a2,36(s1)
     900:	0304a583          	lw	a1,48(s1)
     904:	01c4a503          	lw	a0,28(s1)
     908:	000780e7          	jalr	a5
     90c:	e31ff06f          	j	73c <spi_event_handler+0x4c>
     910:	01452783          	lw	a5,20(a0)
     914:	e19ff06f          	j	72c <spi_event_handler+0x3c>

00000918 <spi_error_handler>:
     918:	fe010113          	addi	sp,sp,-32
     91c:	00112e23          	sw	ra,28(sp)
     920:	00912c23          	sw	s1,24(sp)
     924:	00050493          	mv	s1,a0
     928:	00052783          	lw	a5,0(a0)
     92c:	02078263          	beqz	a5,950 <spi_error_handler+0x38>
     930:	0387a703          	lw	a4,56(a5)
     934:	fc077713          	andi	a4,a4,-64
     938:	02e7ac23          	sw	a4,56(a5)
     93c:	00052783          	lw	a5,0(a0)
     940:	00078863          	beqz	a5,950 <spi_error_handler+0x38>
     944:	0047a703          	lw	a4,4(a5)
     948:	ffd77713          	andi	a4,a4,-3
     94c:	00e7a223          	sw	a4,4(a5)
     950:	0444a783          	lw	a5,68(s1)
     954:	00078c63          	beqz	a5,96c <spi_error_handler+0x54>
     958:	0344a683          	lw	a3,52(s1)
     95c:	0244a603          	lw	a2,36(s1)
     960:	0304a583          	lw	a1,48(s1)
     964:	01c4a503          	lw	a0,28(s1)
     968:	000780e7          	jalr	a5
     96c:	0204a623          	sw	zero,44(s1)
     970:	0204a823          	sw	zero,48(s1)
     974:	0204aa23          	sw	zero,52(s1)
     978:	0004aa23          	sw	zero,20(s1)
     97c:	0004ac23          	sw	zero,24(s1)
     980:	0004ae23          	sw	zero,28(s1)
     984:	0204a023          	sw	zero,32(s1)
     988:	0204a223          	sw	zero,36(s1)
     98c:	0204a423          	sw	zero,40(s1)
     990:	0204ac23          	sw	zero,56(s1)
     994:	0204ae23          	sw	zero,60(s1)
     998:	0404a023          	sw	zero,64(s1)
     99c:	0404a223          	sw	zero,68(s1)
     9a0:	0004a683          	lw	a3,0(s1)
     9a4:	10068463          	beqz	a3,aac <spi_error_handler+0x194>
     9a8:	0106a783          	lw	a5,16(a3)
     9ac:	40000737          	lui	a4,0x40000
     9b0:	00e7e7b3          	or	a5,a5,a4
     9b4:	00f6a823          	sw	a5,16(a3)
     9b8:	0146a783          	lw	a5,20(a3)
     9bc:	00f12623          	sw	a5,12(sp)
     9c0:	00c12783          	lw	a5,12(sp)
     9c4:	00179713          	slli	a4,a5,0x1
     9c8:	fe074ce3          	bltz	a4,9c0 <spi_error_handler+0xa8>
     9cc:	00c14783          	lbu	a5,12(sp)
     9d0:	fe0798e3          	bnez	a5,9c0 <spi_error_handler+0xa8>
     9d4:	00d14783          	lbu	a5,13(sp)
     9d8:	fe0794e3          	bnez	a5,9c0 <spi_error_handler+0xa8>
     9dc:	0106a783          	lw	a5,16(a3)
     9e0:	c0000737          	lui	a4,0xc0000
     9e4:	fff70713          	addi	a4,a4,-1 # bfffffff <_sp+0xbffd559f>
     9e8:	00e7f7b3          	and	a5,a5,a4
     9ec:	00f6a823          	sw	a5,16(a3)
     9f0:	0004a783          	lw	a5,0(s1)
     9f4:	0a078c63          	beqz	a5,aac <spi_error_handler+0x194>
     9f8:	0107a703          	lw	a4,16(a5)
     9fc:	800006b7          	lui	a3,0x80000
     a00:	00d76733          	or	a4,a4,a3
     a04:	00e7a823          	sw	a4,16(a5)
     a08:	0004a783          	lw	a5,0(s1)
     a0c:	0a078063          	beqz	a5,aac <spi_error_handler+0x194>
     a10:	0107a703          	lw	a4,16(a5)
     a14:	200006b7          	lui	a3,0x20000
     a18:	00d76733          	or	a4,a4,a3
     a1c:	00e7a823          	sw	a4,16(a5)
     a20:	0004a783          	lw	a5,0(s1)
     a24:	08078463          	beqz	a5,aac <spi_error_handler+0x194>
     a28:	0307a703          	lw	a4,48(a5)
     a2c:	01f76713          	ori	a4,a4,31
     a30:	02e7a823          	sw	a4,48(a5)
     a34:	0004a783          	lw	a5,0(s1)
     a38:	06078a63          	beqz	a5,aac <spi_error_handler+0x194>
     a3c:	0047a703          	lw	a4,4(a5)
     a40:	00176713          	ori	a4,a4,1
     a44:	00e7a223          	sw	a4,4(a5)
     a48:	0004a703          	lw	a4,0(s1)
     a4c:	0044c783          	lbu	a5,4(s1)
     a50:	00173693          	seqz	a3,a4
     a54:	0497b613          	sltiu	a2,a5,73
     a58:	00163613          	seqz	a2,a2
     a5c:	00c6e6b3          	or	a3,a3,a2
     a60:	02069063          	bnez	a3,a80 <spi_error_handler+0x168>
     a64:	01072683          	lw	a3,16(a4)
     a68:	ffff0637          	lui	a2,0xffff0
     a6c:	0ff60613          	addi	a2,a2,255 # ffff00ff <_sp+0xfffc569f>
     a70:	00c6f6b3          	and	a3,a3,a2
     a74:	00879793          	slli	a5,a5,0x8
     a78:	00d7e7b3          	or	a5,a5,a3
     a7c:	00f72823          	sw	a5,16(a4)
     a80:	0004a683          	lw	a3,0(s1)
     a84:	0054c703          	lbu	a4,5(s1)
     a88:	04173793          	sltiu	a5,a4,65
     a8c:	0017b793          	seqz	a5,a5
     a90:	0016b613          	seqz	a2,a3
     a94:	00c7e7b3          	or	a5,a5,a2
     a98:	00079a63          	bnez	a5,aac <spi_error_handler+0x194>
     a9c:	0106a783          	lw	a5,16(a3) # 20000010 <_sp+0x1ffd55b0>
     aa0:	f007f793          	andi	a5,a5,-256
     aa4:	00f76733          	or	a4,a4,a5
     aa8:	00e6a823          	sw	a4,16(a3)
     aac:	0004a423          	sw	zero,8(s1)
     ab0:	00800793          	li	a5,8
     ab4:	00f4a823          	sw	a5,16(s1)
     ab8:	01c12083          	lw	ra,28(sp)
     abc:	01812483          	lw	s1,24(sp)
     ac0:	02010113          	addi	sp,sp,32
     ac4:	00008067          	ret

00000ac8 <_writestr>:
     ac8:	ff010113          	addi	sp,sp,-16
     acc:	00112623          	sw	ra,12(sp)
     ad0:	00912423          	sw	s1,8(sp)
     ad4:	00050493          	mv	s1,a0
     ad8:	171020ef          	jal	3448 <strlen>
     adc:	00150613          	addi	a2,a0,1
     ae0:	00048593          	mv	a1,s1
     ae4:	00100513          	li	a0,1
     ae8:	b09ff0ef          	jal	5f0 <_write>
     aec:	00c12083          	lw	ra,12(sp)
     af0:	00812483          	lw	s1,8(sp)
     af4:	01010113          	addi	sp,sp,16
     af8:	00008067          	ret

00000afc <print_exc_msg>:
     afc:	fe010113          	addi	sp,sp,-32
     b00:	00112e23          	sw	ra,28(sp)
     b04:	00912c23          	sw	s1,24(sp)
     b08:	fc1ff0ef          	jal	ac8 <_writestr>
     b0c:	343024f3          	csrr	s1,mtval
     b10:	00020537          	lui	a0,0x20
     b14:	33450513          	addi	a0,a0,820 # 20334 <__clz_tab+0x1b0>
     b18:	fb1ff0ef          	jal	ac8 <_writestr>
     b1c:	0184d793          	srli	a5,s1,0x18
     b20:	00f10423          	sb	a5,8(sp)
     b24:	0104d793          	srli	a5,s1,0x10
     b28:	00f104a3          	sb	a5,9(sp)
     b2c:	0084d793          	srli	a5,s1,0x8
     b30:	00f10523          	sb	a5,10(sp)
     b34:	009105a3          	sb	s1,11(sp)
     b38:	00a00793          	li	a5,10
     b3c:	00f10623          	sb	a5,12(sp)
     b40:	000106a3          	sb	zero,13(sp)
     b44:	00810513          	addi	a0,sp,8
     b48:	f81ff0ef          	jal	ac8 <_writestr>
     b4c:	0000006f          	j	b4c <print_exc_msg+0x50>

00000b50 <inferenceTPG>:
     b50:	f0010113          	addi	sp,sp,-256
     b54:	0e112e23          	sw	ra,252(sp)
     b58:	0e912c23          	sw	s1,248(sp)
     b5c:	0f212a23          	sw	s2,244(sp)
     b60:	0f312823          	sw	s3,240(sp)
     b64:	0f412623          	sw	s4,236(sp)
     b68:	0f512423          	sw	s5,232(sp)
     b6c:	0f612223          	sw	s6,228(sp)
     b70:	00050b13          	mv	s6,a0
     b74:	00058a13          	mv	s4,a1
     b78:	00060a93          	mv	s5,a2
     b7c:	00068493          	mv	s1,a3
     b80:	00070913          	mv	s2,a4
     b84:	00078993          	mv	s3,a5
     b88:	000017b7          	lui	a5,0x1
     b8c:	45078793          	addi	a5,a5,1104 # 1450 <T12_start>
     b90:	00078067          	jr	a5
     b94:	0f712023          	sw	s7,224(sp)

00000b98 <T0_start>:
     b98:	b00027f3          	csrr	a5,mcycle
     b9c:	00078b93          	mv	s7,a5
     ba0:	000a2603          	lw	a2,0(s4)
     ba4:	02060463          	beqz	a2,bcc <T0_start+0x34>
     ba8:	0044a503          	lw	a0,4(s1)
     bac:	41f55793          	srai	a5,a0,0x1f
     bb0:	01055593          	srli	a1,a0,0x10
     bb4:	01079793          	slli	a5,a5,0x10
     bb8:	41f65693          	srai	a3,a2,0x1f
     bbc:	01051513          	slli	a0,a0,0x10
     bc0:	00f585b3          	add	a1,a1,a5
     bc4:	3ac050ef          	jal	5f70 <__divdi3>
     bc8:	00050613          	mv	a2,a0
     bcc:	02c12e23          	sw	a2,60(sp)
     bd0:	0084a783          	lw	a5,8(s1)
     bd4:	04f12023          	sw	a5,64(sp)
     bd8:	04012223          	sw	zero,68(sp)

00000bdc <T0_end>:
     bdc:	b00027f3          	csrr	a5,mcycle
     be0:	417787b3          	sub	a5,a5,s7
     be4:	00f9a023          	sw	a5,0(s3)
     be8:	03c12683          	lw	a3,60(sp)
     bec:	04012703          	lw	a4,64(sp)
     bf0:	00100793          	li	a5,1
     bf4:	00d75663          	bge	a4,a3,c00 <T0_end+0x24>
     bf8:	00068713          	mv	a4,a3
     bfc:	00000793          	li	a5,0
     c00:	04412683          	lw	a3,68(sp)
     c04:	00e6c463          	blt	a3,a4,c0c <T0_end+0x30>
     c08:	00200793          	li	a5,2
     c0c:	00020737          	lui	a4,0x20
     c10:	000206b7          	lui	a3,0x20
     c14:	10868693          	addi	a3,a3,264 # 20108 <next.12>
     c18:	20d7c7b3          	sh2add	a5,a5,a3
     c1c:	0007a783          	lw	a5,0(a5)
     c20:	0b870713          	addi	a4,a4,184 # 200b8 <jump_table.13>
     c24:	20e7c7b3          	sh2add	a5,a5,a4
     c28:	0007a783          	lw	a5,0(a5)
     c2c:	0e012b83          	lw	s7,224(sp)
     c30:	f61ff06f          	j	b90 <inferenceTPG+0x40>

00000c34 <T1_start>:
     c34:	b0002773          	csrr	a4,mcycle
     c38:	004aa783          	lw	a5,4(s5)
     c3c:	004a2683          	lw	a3,4(s4)
     c40:	40d787b3          	sub	a5,a5,a3
     c44:	04f12423          	sw	a5,72(sp)
     c48:	0084a783          	lw	a5,8(s1)
     c4c:	04f12623          	sw	a5,76(sp)
     c50:	04012823          	sw	zero,80(sp)

00000c54 <T1_end>:
     c54:	b00027f3          	csrr	a5,mcycle
     c58:	40e787b3          	sub	a5,a5,a4
     c5c:	00f9a223          	sw	a5,4(s3)
     c60:	04812683          	lw	a3,72(sp)
     c64:	04c12703          	lw	a4,76(sp)
     c68:	00100793          	li	a5,1
     c6c:	00d75663          	bge	a4,a3,c78 <T1_end+0x24>
     c70:	00068713          	mv	a4,a3
     c74:	00000793          	li	a5,0
     c78:	05012683          	lw	a3,80(sp)
     c7c:	00e6c463          	blt	a3,a4,c84 <T1_end+0x30>
     c80:	00200793          	li	a5,2
     c84:	00020737          	lui	a4,0x20
     c88:	000206b7          	lui	a3,0x20
     c8c:	0ac68693          	addi	a3,a3,172 # 200ac <next.11>
     c90:	20d7c7b3          	sh2add	a5,a5,a3
     c94:	0007a783          	lw	a5,0(a5)
     c98:	0b870713          	addi	a4,a4,184 # 200b8 <jump_table.13>
     c9c:	20e7c7b3          	sh2add	a5,a5,a4
     ca0:	0007a783          	lw	a5,0(a5)
     ca4:	eedff06f          	j	b90 <inferenceTPG+0x40>

00000ca8 <T2_start>:
     ca8:	b0002773          	csrr	a4,mcycle
     cac:	04012a23          	sw	zero,84(sp)
     cb0:	0084a783          	lw	a5,8(s1)
     cb4:	04f12c23          	sw	a5,88(sp)
     cb8:	004aa783          	lw	a5,4(s5)
     cbc:	004a2683          	lw	a3,4(s4)
     cc0:	40d787b3          	sub	a5,a5,a3
     cc4:	04f12e23          	sw	a5,92(sp)

00000cc8 <T2_end>:
     cc8:	b00027f3          	csrr	a5,mcycle
     ccc:	40e787b3          	sub	a5,a5,a4
     cd0:	00f9a423          	sw	a5,8(s3)
     cd4:	05412683          	lw	a3,84(sp)
     cd8:	05812703          	lw	a4,88(sp)
     cdc:	00100793          	li	a5,1
     ce0:	00d75663          	bge	a4,a3,cec <T2_end+0x24>
     ce4:	00068713          	mv	a4,a3
     ce8:	00000793          	li	a5,0
     cec:	05c12683          	lw	a3,92(sp)
     cf0:	00e6c463          	blt	a3,a4,cf8 <T2_end+0x30>
     cf4:	00200793          	li	a5,2
     cf8:	00020737          	lui	a4,0x20
     cfc:	000206b7          	lui	a3,0x20
     d00:	0a068693          	addi	a3,a3,160 # 200a0 <next.10>
     d04:	20d7c7b3          	sh2add	a5,a5,a3
     d08:	0007a783          	lw	a5,0(a5)
     d0c:	0b870713          	addi	a4,a4,184 # 200b8 <jump_table.13>
     d10:	20e7c7b3          	sh2add	a5,a5,a4
     d14:	0007a783          	lw	a5,0(a5)
     d18:	e79ff06f          	j	b90 <inferenceTPG+0x40>

00000d1c <T3_start>:
     d1c:	b0002773          	csrr	a4,mcycle
     d20:	01092783          	lw	a5,16(s2)
     d24:	000aa683          	lw	a3,0(s5)
     d28:	0ad7e7b3          	max	a5,a5,a3
     d2c:	00f12e23          	sw	a5,28(sp)
     d30:	004aa783          	lw	a5,4(s5)
     d34:	004a2683          	lw	a3,4(s4)
     d38:	40d787b3          	sub	a5,a5,a3
     d3c:	02f12023          	sw	a5,32(sp)

00000d40 <T3_end>:
     d40:	b00027f3          	csrr	a5,mcycle
     d44:	40e787b3          	sub	a5,a5,a4
     d48:	00f9a623          	sw	a5,12(s3)
     d4c:	00020737          	lui	a4,0x20
     d50:	01c12783          	lw	a5,28(sp)
     d54:	02012603          	lw	a2,32(sp)
     d58:	00f627b3          	slt	a5,a2,a5
     d5c:	0017b793          	seqz	a5,a5
     d60:	94818693          	addi	a3,gp,-1720 # 227e8 <next.9>
     d64:	20d7c7b3          	sh2add	a5,a5,a3
     d68:	0007a783          	lw	a5,0(a5)
     d6c:	0b870713          	addi	a4,a4,184 # 200b8 <jump_table.13>
     d70:	20e7c7b3          	sh2add	a5,a5,a4
     d74:	0007a783          	lw	a5,0(a5)
     d78:	e19ff06f          	j	b90 <inferenceTPG+0x40>

00000d7c <T4_start>:
     d7c:	b00025f3          	csrr	a1,mcycle
     d80:	0004a703          	lw	a4,0(s1)
     d84:	41f75793          	srai	a5,a4,0x1f
     d88:	000a2603          	lw	a2,0(s4)
     d8c:	41f65693          	srai	a3,a2,0x1f
     d90:	02c787b3          	mul	a5,a5,a2
     d94:	02e686b3          	mul	a3,a3,a4
     d98:	00d787b3          	add	a5,a5,a3
     d9c:	02c706b3          	mul	a3,a4,a2
     da0:	02c73733          	mulhu	a4,a4,a2
     da4:	00e787b3          	add	a5,a5,a4
     da8:	01079793          	slli	a5,a5,0x10
     dac:	0106d713          	srli	a4,a3,0x10
     db0:	00e78733          	add	a4,a5,a4
     db4:	06e12023          	sw	a4,96(sp)
     db8:	0044a703          	lw	a4,4(s1)
     dbc:	41f75793          	srai	a5,a4,0x1f
     dc0:	008aa603          	lw	a2,8(s5)
     dc4:	41f65693          	srai	a3,a2,0x1f
     dc8:	02c787b3          	mul	a5,a5,a2
     dcc:	02e686b3          	mul	a3,a3,a4
     dd0:	00d787b3          	add	a5,a5,a3
     dd4:	02c706b3          	mul	a3,a4,a2
     dd8:	02c73733          	mulhu	a4,a4,a2
     ddc:	00e787b3          	add	a5,a5,a4
     de0:	01079793          	slli	a5,a5,0x10
     de4:	0106d713          	srli	a4,a3,0x10
     de8:	00e78733          	add	a4,a5,a4
     dec:	06e12223          	sw	a4,100(sp)
     df0:	00492783          	lw	a5,4(s2)
     df4:	06f12423          	sw	a5,104(sp)

00000df8 <T4_end>:
     df8:	b00027f3          	csrr	a5,mcycle
     dfc:	40b787b3          	sub	a5,a5,a1
     e00:	00f9a823          	sw	a5,16(s3)
     e04:	06012683          	lw	a3,96(sp)
     e08:	06412703          	lw	a4,100(sp)
     e0c:	00100793          	li	a5,1
     e10:	00d75663          	bge	a4,a3,e1c <T4_end+0x24>
     e14:	00068713          	mv	a4,a3
     e18:	00000793          	li	a5,0
     e1c:	06812683          	lw	a3,104(sp)
     e20:	00e6c463          	blt	a3,a4,e28 <T4_end+0x30>
     e24:	00200793          	li	a5,2
     e28:	00020737          	lui	a4,0x20
     e2c:	000206b7          	lui	a3,0x20
     e30:	09468693          	addi	a3,a3,148 # 20094 <next.8>
     e34:	20d7c7b3          	sh2add	a5,a5,a3
     e38:	0007a783          	lw	a5,0(a5)
     e3c:	0b870713          	addi	a4,a4,184 # 200b8 <jump_table.13>
     e40:	20e7c7b3          	sh2add	a5,a5,a4
     e44:	0007a783          	lw	a5,0(a5)
     e48:	d49ff06f          	j	b90 <inferenceTPG+0x40>

00000e4c <T5_start>:
     e4c:	b00025f3          	csrr	a1,mcycle
     e50:	0004a783          	lw	a5,0(s1)
     e54:	000a2683          	lw	a3,0(s4)
     e58:	41f6d713          	srai	a4,a3,0x1f
     e5c:	41f7d613          	srai	a2,a5,0x1f
     e60:	02f70733          	mul	a4,a4,a5
     e64:	02d60633          	mul	a2,a2,a3
     e68:	00c70733          	add	a4,a4,a2
     e6c:	02f68633          	mul	a2,a3,a5
     e70:	02f6b6b3          	mulhu	a3,a3,a5
     e74:	00d70733          	add	a4,a4,a3
     e78:	01071713          	slli	a4,a4,0x10
     e7c:	01065693          	srli	a3,a2,0x10
     e80:	00d706b3          	add	a3,a4,a3
     e84:	02d12223          	sw	a3,36(sp)
     e88:	0044a703          	lw	a4,4(s1)
     e8c:	00e787b3          	add	a5,a5,a4
     e90:	00492703          	lw	a4,4(s2)
     e94:	00e787b3          	add	a5,a5,a4
     e98:	02f12423          	sw	a5,40(sp)

00000e9c <T5_end>:
     e9c:	b00027f3          	csrr	a5,mcycle
     ea0:	40b787b3          	sub	a5,a5,a1
     ea4:	00f9aa23          	sw	a5,20(s3)
     ea8:	00020737          	lui	a4,0x20
     eac:	02412783          	lw	a5,36(sp)
     eb0:	02812603          	lw	a2,40(sp)
     eb4:	00f627b3          	slt	a5,a2,a5
     eb8:	0017b793          	seqz	a5,a5
     ebc:	94018693          	addi	a3,gp,-1728 # 227e0 <next.7>
     ec0:	20d7c7b3          	sh2add	a5,a5,a3
     ec4:	0007a783          	lw	a5,0(a5)
     ec8:	0b870713          	addi	a4,a4,184 # 200b8 <jump_table.13>
     ecc:	20e7c7b3          	sh2add	a5,a5,a4
     ed0:	0007a783          	lw	a5,0(a5)
     ed4:	cbdff06f          	j	b90 <inferenceTPG+0x40>

00000ed8 <T6_start>:
     ed8:	b00025f3          	csrr	a1,mcycle
     edc:	01092783          	lw	a5,16(s2)
     ee0:	00492703          	lw	a4,4(s2)
     ee4:	00e787b3          	add	a5,a5,a4
     ee8:	02f12623          	sw	a5,44(sp)
     eec:	0044a703          	lw	a4,4(s1)
     ef0:	41f75793          	srai	a5,a4,0x1f
     ef4:	008aa603          	lw	a2,8(s5)
     ef8:	41f65693          	srai	a3,a2,0x1f
     efc:	02c787b3          	mul	a5,a5,a2
     f00:	02e686b3          	mul	a3,a3,a4
     f04:	00d787b3          	add	a5,a5,a3
     f08:	02c706b3          	mul	a3,a4,a2
     f0c:	02c73733          	mulhu	a4,a4,a2
     f10:	00e787b3          	add	a5,a5,a4
     f14:	01079793          	slli	a5,a5,0x10
     f18:	0106d713          	srli	a4,a3,0x10
     f1c:	00e78733          	add	a4,a5,a4
     f20:	02e12823          	sw	a4,48(sp)

00000f24 <T6_end>:
     f24:	b00027f3          	csrr	a5,mcycle
     f28:	40b787b3          	sub	a5,a5,a1
     f2c:	00f9ac23          	sw	a5,24(s3)
     f30:	00020737          	lui	a4,0x20
     f34:	02c12783          	lw	a5,44(sp)
     f38:	03012603          	lw	a2,48(sp)
     f3c:	00f627b3          	slt	a5,a2,a5
     f40:	0017b793          	seqz	a5,a5
     f44:	93818693          	addi	a3,gp,-1736 # 227d8 <next.6>
     f48:	20d7c7b3          	sh2add	a5,a5,a3
     f4c:	0007a783          	lw	a5,0(a5)
     f50:	0b870713          	addi	a4,a4,184 # 200b8 <jump_table.13>
     f54:	20e7c7b3          	sh2add	a5,a5,a4
     f58:	0007a783          	lw	a5,0(a5)
     f5c:	c35ff06f          	j	b90 <inferenceTPG+0x40>
     f60:	0f712023          	sw	s7,224(sp)
     f64:	0d812e23          	sw	s8,220(sp)
     f68:	0d912c23          	sw	s9,216(sp)

00000f6c <T7_start>:
     f6c:	b00027f3          	csrr	a5,mcycle
     f70:	00078c93          	mv	s9,a5
     f74:	01092783          	lw	a5,16(s2)
     f78:	00078c13          	mv	s8,a5
     f7c:	0004a783          	lw	a5,0(s1)
     f80:	00078b93          	mv	s7,a5
     f84:	00078513          	mv	a0,a5
     f88:	02078263          	beqz	a5,fac <T7_start+0x40>
     f8c:	41fc5793          	srai	a5,s8,0x1f
     f90:	010c5593          	srli	a1,s8,0x10
     f94:	01079793          	slli	a5,a5,0x10
     f98:	00050613          	mv	a2,a0
     f9c:	41fbd693          	srai	a3,s7,0x1f
     fa0:	010c1513          	slli	a0,s8,0x10
     fa4:	00f585b3          	add	a1,a1,a5
     fa8:	7c9040ef          	jal	5f70 <__divdi3>
     fac:	06a12623          	sw	a0,108(sp)
     fb0:	000a2783          	lw	a5,0(s4)
     fb4:	41f7d713          	srai	a4,a5,0x1f
     fb8:	41fbd693          	srai	a3,s7,0x1f
     fbc:	03770733          	mul	a4,a4,s7
     fc0:	02f686b3          	mul	a3,a3,a5
     fc4:	00d70733          	add	a4,a4,a3
     fc8:	03778633          	mul	a2,a5,s7
     fcc:	0377b6b3          	mulhu	a3,a5,s7
     fd0:	00d70733          	add	a4,a4,a3
     fd4:	01071713          	slli	a4,a4,0x10
     fd8:	01065693          	srli	a3,a2,0x10
     fdc:	00d706b3          	add	a3,a4,a3
     fe0:	06d12823          	sw	a3,112(sp)
     fe4:	018787b3          	add	a5,a5,s8
     fe8:	00492703          	lw	a4,4(s2)
     fec:	00e787b3          	add	a5,a5,a4
     ff0:	06f12a23          	sw	a5,116(sp)

00000ff4 <T7_end>:
     ff4:	b00027f3          	csrr	a5,mcycle
     ff8:	419787b3          	sub	a5,a5,s9
     ffc:	00f9ae23          	sw	a5,28(s3)
    1000:	06c12683          	lw	a3,108(sp)
    1004:	07012703          	lw	a4,112(sp)
    1008:	00100793          	li	a5,1
    100c:	00d75663          	bge	a4,a3,1018 <T7_end+0x24>
    1010:	00068713          	mv	a4,a3
    1014:	00000793          	li	a5,0
    1018:	07412683          	lw	a3,116(sp)
    101c:	00e6c463          	blt	a3,a4,1024 <T7_end+0x30>
    1020:	00200793          	li	a5,2
    1024:	00020737          	lui	a4,0x20
    1028:	000206b7          	lui	a3,0x20
    102c:	08868693          	addi	a3,a3,136 # 20088 <next.5>
    1030:	20d7c7b3          	sh2add	a5,a5,a3
    1034:	0007a783          	lw	a5,0(a5)
    1038:	0b870713          	addi	a4,a4,184 # 200b8 <jump_table.13>
    103c:	20e7c7b3          	sh2add	a5,a5,a4
    1040:	0007a783          	lw	a5,0(a5)
    1044:	0e012b83          	lw	s7,224(sp)
    1048:	0dc12c03          	lw	s8,220(sp)
    104c:	0d812c83          	lw	s9,216(sp)
    1050:	b41ff06f          	j	b90 <inferenceTPG+0x40>

00001054 <T8_start>:
    1054:	b00025f3          	csrr	a1,mcycle
    1058:	000a2783          	lw	a5,0(s4)
    105c:	00c92703          	lw	a4,12(s2)
    1060:	00e787b3          	add	a5,a5,a4
    1064:	00492703          	lw	a4,4(s2)
    1068:	00e787b3          	add	a5,a5,a4
    106c:	02f12a23          	sw	a5,52(sp)
    1070:	008aa703          	lw	a4,8(s5)
    1074:	41f75793          	srai	a5,a4,0x1f
    1078:	0044a603          	lw	a2,4(s1)
    107c:	41f65693          	srai	a3,a2,0x1f
    1080:	02c787b3          	mul	a5,a5,a2
    1084:	02e686b3          	mul	a3,a3,a4
    1088:	00d787b3          	add	a5,a5,a3
    108c:	02c706b3          	mul	a3,a4,a2
    1090:	02c73733          	mulhu	a4,a4,a2
    1094:	00e787b3          	add	a5,a5,a4
    1098:	01079793          	slli	a5,a5,0x10
    109c:	0106d713          	srli	a4,a3,0x10
    10a0:	00e78733          	add	a4,a5,a4
    10a4:	02e12c23          	sw	a4,56(sp)

000010a8 <T8_end>:
    10a8:	b00027f3          	csrr	a5,mcycle
    10ac:	40b787b3          	sub	a5,a5,a1
    10b0:	02f9a023          	sw	a5,32(s3)
    10b4:	00020737          	lui	a4,0x20
    10b8:	03412783          	lw	a5,52(sp)
    10bc:	03812603          	lw	a2,56(sp)
    10c0:	00f627b3          	slt	a5,a2,a5
    10c4:	0017b793          	seqz	a5,a5
    10c8:	93018693          	addi	a3,gp,-1744 # 227d0 <next.4>
    10cc:	20d7c7b3          	sh2add	a5,a5,a3
    10d0:	0007a783          	lw	a5,0(a5)
    10d4:	0b870713          	addi	a4,a4,184 # 200b8 <jump_table.13>
    10d8:	20e7c7b3          	sh2add	a5,a5,a4
    10dc:	0007a783          	lw	a5,0(a5)
    10e0:	ab1ff06f          	j	b90 <inferenceTPG+0x40>
    10e4:	0f712023          	sw	s7,224(sp)
    10e8:	0d812e23          	sw	s8,220(sp)
    10ec:	0d912c23          	sw	s9,216(sp)
    10f0:	0da12a23          	sw	s10,212(sp)
    10f4:	0db12823          	sw	s11,208(sp)

000010f8 <T9_start>:
    10f8:	b00027f3          	csrr	a5,mcycle
    10fc:	00f12423          	sw	a5,8(sp)
    1100:	0084a783          	lw	a5,8(s1)
    1104:	00078b93          	mv	s7,a5
    1108:	00f12623          	sw	a5,12(sp)
    110c:	41f7d793          	srai	a5,a5,0x1f
    1110:	00078d93          	mv	s11,a5
    1114:	008a2703          	lw	a4,8(s4)
    1118:	41f75793          	srai	a5,a4,0x1f
    111c:	037787b3          	mul	a5,a5,s7
    1120:	02ed86b3          	mul	a3,s11,a4
    1124:	00d787b3          	add	a5,a5,a3
    1128:	037706b3          	mul	a3,a4,s7
    112c:	000b8613          	mv	a2,s7
    1130:	03773733          	mulhu	a4,a4,s7
    1134:	00e787b3          	add	a5,a5,a4
    1138:	01079793          	slli	a5,a5,0x10
    113c:	0106d713          	srli	a4,a3,0x10
    1140:	00e78733          	add	a4,a5,a4
    1144:	0ae12823          	sw	a4,176(sp)
    1148:	008aa783          	lw	a5,8(s5)
    114c:	00078c93          	mv	s9,a5
    1150:	000b8513          	mv	a0,s7
    1154:	020b8063          	beqz	s7,1174 <T9_start+0x7c>
    1158:	41f7d793          	srai	a5,a5,0x1f
    115c:	010cd593          	srli	a1,s9,0x10
    1160:	01079793          	slli	a5,a5,0x10
    1164:	000d8693          	mv	a3,s11
    1168:	010c9513          	slli	a0,s9,0x10
    116c:	00f585b3          	add	a1,a1,a5
    1170:	601040ef          	jal	5f70 <__divdi3>
    1174:	0aa12a23          	sw	a0,180(sp)
    1178:	0044a783          	lw	a5,4(s1)
    117c:	00078c13          	mv	s8,a5
    1180:	000aa503          	lw	a0,0(s5)
    1184:	41f55693          	srai	a3,a0,0x1f
    1188:	41f7d793          	srai	a5,a5,0x1f
    118c:	00078d13          	mv	s10,a5
    1190:	038687b3          	mul	a5,a3,s8
    1194:	02ad0733          	mul	a4,s10,a0
    1198:	00e787b3          	add	a5,a5,a4
    119c:	03850733          	mul	a4,a0,s8
    11a0:	03853633          	mulhu	a2,a0,s8
    11a4:	00c787b3          	add	a5,a5,a2
    11a8:	01079793          	slli	a5,a5,0x10
    11ac:	01075713          	srli	a4,a4,0x10
    11b0:	00e78733          	add	a4,a5,a4
    11b4:	0ae12c23          	sw	a4,184(sp)
    11b8:	00092783          	lw	a5,0(s2)
    11bc:	01092703          	lw	a4,16(s2)
    11c0:	00e787b3          	add	a5,a5,a4
    11c4:	019787b3          	add	a5,a5,s9
    11c8:	0af12e23          	sw	a5,188(sp)
    11cc:	0004a783          	lw	a5,0(s1)
    11d0:	00078c93          	mv	s9,a5
    11d4:	00492703          	lw	a4,4(s2)
    11d8:	018787b3          	add	a5,a5,s8
    11dc:	00e787b3          	add	a5,a5,a4
    11e0:	0cf12023          	sw	a5,192(sp)
    11e4:	0ce12223          	sw	a4,196(sp)
    11e8:	020b8263          	beqz	s7,120c <T9_start+0x114>
    11ec:	01055793          	srli	a5,a0,0x10
    11f0:	01069593          	slli	a1,a3,0x10
    11f4:	00c12603          	lw	a2,12(sp)
    11f8:	000d8693          	mv	a3,s11
    11fc:	01051513          	slli	a0,a0,0x10
    1200:	00b785b3          	add	a1,a5,a1
    1204:	56d040ef          	jal	5f70 <__divdi3>
    1208:	00050b93          	mv	s7,a0
    120c:	0d712423          	sw	s7,200(sp)
    1210:	020c8663          	beqz	s9,123c <T9_start+0x144>
    1214:	004a2503          	lw	a0,4(s4)
    1218:	41f55793          	srai	a5,a0,0x1f
    121c:	01055593          	srli	a1,a0,0x10
    1220:	01079793          	slli	a5,a5,0x10
    1224:	000c8613          	mv	a2,s9
    1228:	41fcd693          	srai	a3,s9,0x1f
    122c:	01051513          	slli	a0,a0,0x10
    1230:	00f585b3          	add	a1,a1,a5
    1234:	53d040ef          	jal	5f70 <__divdi3>
    1238:	00050c93          	mv	s9,a0
    123c:	41fcd793          	srai	a5,s9,0x1f
    1240:	038787b3          	mul	a5,a5,s8
    1244:	039d0733          	mul	a4,s10,s9
    1248:	00e78733          	add	a4,a5,a4
    124c:	038c86b3          	mul	a3,s9,s8
    1250:	038cb7b3          	mulhu	a5,s9,s8
    1254:	00f707b3          	add	a5,a4,a5
    1258:	01079793          	slli	a5,a5,0x10
    125c:	0106d713          	srli	a4,a3,0x10
    1260:	00e78733          	add	a4,a5,a4
    1264:	0ce12623          	sw	a4,204(sp)

00001268 <T9_end>:
    1268:	b00027f3          	csrr	a5,mcycle
    126c:	00812703          	lw	a4,8(sp)
    1270:	40e787b3          	sub	a5,a5,a4
    1274:	02f9a223          	sw	a5,36(s3)
    1278:	0b012603          	lw	a2,176(sp)
    127c:	0b010713          	addi	a4,sp,176
    1280:	00000513          	li	a0,0
    1284:	00100793          	li	a5,1
    1288:	00800593          	li	a1,8
    128c:	0100006f          	j	129c <T9_end+0x34>
    1290:	00178793          	addi	a5,a5,1
    1294:	00470713          	addi	a4,a4,4
    1298:	00b78c63          	beq	a5,a1,12b0 <T9_end+0x48>
    129c:	00472683          	lw	a3,4(a4)
    12a0:	fec6c8e3          	blt	a3,a2,1290 <T9_end+0x28>
    12a4:	00068613          	mv	a2,a3
    12a8:	00078513          	mv	a0,a5
    12ac:	fe5ff06f          	j	1290 <T9_end+0x28>
    12b0:	00020737          	lui	a4,0x20
    12b4:	000207b7          	lui	a5,0x20
    12b8:	06878793          	addi	a5,a5,104 # 20068 <next.3>
    12bc:	20f54533          	sh2add	a0,a0,a5
    12c0:	00052783          	lw	a5,0(a0)
    12c4:	0b870713          	addi	a4,a4,184 # 200b8 <jump_table.13>
    12c8:	20e7c7b3          	sh2add	a5,a5,a4
    12cc:	0007a783          	lw	a5,0(a5)
    12d0:	0e012b83          	lw	s7,224(sp)
    12d4:	0dc12c03          	lw	s8,220(sp)
    12d8:	0d812c83          	lw	s9,216(sp)
    12dc:	0d412d03          	lw	s10,212(sp)
    12e0:	0d012d83          	lw	s11,208(sp)
    12e4:	8adff06f          	j	b90 <inferenceTPG+0x40>

000012e8 <T10_start>:
    12e8:	b0002673          	csrr	a2,mcycle
    12ec:	0004a703          	lw	a4,0(s1)
    12f0:	00492683          	lw	a3,4(s2)
    12f4:	20d727b3          	sh1add	a5,a4,a3
    12f8:	06f12c23          	sw	a5,120(sp)
    12fc:	0044a783          	lw	a5,4(s1)
    1300:	00e78733          	add	a4,a5,a4
    1304:	00d70733          	add	a4,a4,a3
    1308:	06e12e23          	sw	a4,124(sp)
    130c:	0084a703          	lw	a4,8(s1)
    1310:	00e787b3          	add	a5,a5,a4
    1314:	00d787b3          	add	a5,a5,a3
    1318:	08f12023          	sw	a5,128(sp)

0000131c <T10_end>:
    131c:	b00027f3          	csrr	a5,mcycle
    1320:	40c787b3          	sub	a5,a5,a2
    1324:	02f9a423          	sw	a5,40(s3)
    1328:	07812683          	lw	a3,120(sp)
    132c:	07c12703          	lw	a4,124(sp)
    1330:	00100793          	li	a5,1
    1334:	00d75663          	bge	a4,a3,1340 <T10_end+0x24>
    1338:	00068713          	mv	a4,a3
    133c:	00000793          	li	a5,0
    1340:	08012683          	lw	a3,128(sp)
    1344:	00e6c463          	blt	a3,a4,134c <T10_end+0x30>
    1348:	00200793          	li	a5,2
    134c:	00020737          	lui	a4,0x20
    1350:	000206b7          	lui	a3,0x20
    1354:	05c68693          	addi	a3,a3,92 # 2005c <next.2>
    1358:	20d7c7b3          	sh2add	a5,a5,a3
    135c:	0007a783          	lw	a5,0(a5)
    1360:	0b870713          	addi	a4,a4,184 # 200b8 <jump_table.13>
    1364:	20e7c7b3          	sh2add	a5,a5,a4
    1368:	0007a783          	lw	a5,0(a5)
    136c:	825ff06f          	j	b90 <inferenceTPG+0x40>

00001370 <T11_start>:
    1370:	b0002573          	csrr	a0,mcycle
    1374:	0004a703          	lw	a4,0(s1)
    1378:	00492603          	lw	a2,4(s2)
    137c:	20c727b3          	sh1add	a5,a4,a2
    1380:	08f12c23          	sw	a5,152(sp)
    1384:	0044a783          	lw	a5,4(s1)
    1388:	00e78733          	add	a4,a5,a4
    138c:	00c70733          	add	a4,a4,a2
    1390:	08e12e23          	sw	a4,156(sp)
    1394:	0084a703          	lw	a4,8(s1)
    1398:	00c706b3          	add	a3,a4,a2
    139c:	0ad12023          	sw	a3,160(sp)
    13a0:	00f707b3          	add	a5,a4,a5
    13a4:	00c787b3          	add	a5,a5,a2
    13a8:	0af12223          	sw	a5,164(sp)
    13ac:	008a2583          	lw	a1,8(s4)
    13b0:	41f5d793          	srai	a5,a1,0x1f
    13b4:	41f75693          	srai	a3,a4,0x1f
    13b8:	02e787b3          	mul	a5,a5,a4
    13bc:	02b686b3          	mul	a3,a3,a1
    13c0:	00d787b3          	add	a5,a5,a3
    13c4:	02e586b3          	mul	a3,a1,a4
    13c8:	02e5b733          	mulhu	a4,a1,a4
    13cc:	00e787b3          	add	a5,a5,a4
    13d0:	01079793          	slli	a5,a5,0x10
    13d4:	0106d713          	srli	a4,a3,0x10
    13d8:	00e78733          	add	a4,a5,a4
    13dc:	40b70733          	sub	a4,a4,a1
    13e0:	0ae12423          	sw	a4,168(sp)
    13e4:	0ac12623          	sw	a2,172(sp)

000013e8 <T11_end>:
    13e8:	b00027f3          	csrr	a5,mcycle
    13ec:	40a787b3          	sub	a5,a5,a0
    13f0:	02f9a623          	sw	a5,44(s3)
    13f4:	09812603          	lw	a2,152(sp)
    13f8:	09c10713          	addi	a4,sp,156
    13fc:	00000513          	li	a0,0
    1400:	00100793          	li	a5,1
    1404:	00600593          	li	a1,6
    1408:	0100006f          	j	1418 <T11_end+0x30>
    140c:	00178793          	addi	a5,a5,1
    1410:	00470713          	addi	a4,a4,4
    1414:	00b78c63          	beq	a5,a1,142c <T11_end+0x44>
    1418:	00072683          	lw	a3,0(a4)
    141c:	fec6c8e3          	blt	a3,a2,140c <T11_end+0x24>
    1420:	00068613          	mv	a2,a3
    1424:	00078513          	mv	a0,a5
    1428:	fe5ff06f          	j	140c <T11_end+0x24>
    142c:	00020737          	lui	a4,0x20
    1430:	000207b7          	lui	a5,0x20
    1434:	04478793          	addi	a5,a5,68 # 20044 <next.1>
    1438:	20f54533          	sh2add	a0,a0,a5
    143c:	00052783          	lw	a5,0(a0)
    1440:	0b870713          	addi	a4,a4,184 # 200b8 <jump_table.13>
    1444:	20e7c7b3          	sh2add	a5,a5,a4
    1448:	0007a783          	lw	a5,0(a5)
    144c:	f44ff06f          	j	b90 <inferenceTPG+0x40>

00001450 <T12_start>:
    1450:	b00025f3          	csrr	a1,mcycle
    1454:	0004a783          	lw	a5,0(s1)
    1458:	00492503          	lw	a0,4(s2)
    145c:	20a7a733          	sh1add	a4,a5,a0
    1460:	08e12223          	sw	a4,132(sp)
    1464:	0044a683          	lw	a3,4(s1)
    1468:	00f687b3          	add	a5,a3,a5
    146c:	00a787b3          	add	a5,a5,a0
    1470:	08f12423          	sw	a5,136(sp)
    1474:	008a2803          	lw	a6,8(s4)
    1478:	0084a603          	lw	a2,8(s1)
    147c:	41f65793          	srai	a5,a2,0x1f
    1480:	41f85713          	srai	a4,a6,0x1f
    1484:	030787b3          	mul	a5,a5,a6
    1488:	02c70733          	mul	a4,a4,a2
    148c:	00e787b3          	add	a5,a5,a4
    1490:	03060733          	mul	a4,a2,a6
    1494:	03063633          	mulhu	a2,a2,a6
    1498:	00c787b3          	add	a5,a5,a2
    149c:	01079793          	slli	a5,a5,0x10
    14a0:	01075713          	srli	a4,a4,0x10
    14a4:	00e78733          	add	a4,a5,a4
    14a8:	41070733          	sub	a4,a4,a6
    14ac:	08e12623          	sw	a4,140(sp)
    14b0:	000aa703          	lw	a4,0(s5)
    14b4:	41f75793          	srai	a5,a4,0x1f
    14b8:	41f6d613          	srai	a2,a3,0x1f
    14bc:	02d787b3          	mul	a5,a5,a3
    14c0:	02e60633          	mul	a2,a2,a4
    14c4:	00c787b3          	add	a5,a5,a2
    14c8:	02d70633          	mul	a2,a4,a3
    14cc:	02d736b3          	mulhu	a3,a4,a3
    14d0:	00d787b3          	add	a5,a5,a3
    14d4:	01079793          	slli	a5,a5,0x10
    14d8:	01065693          	srli	a3,a2,0x10
    14dc:	00d786b3          	add	a3,a5,a3
    14e0:	08d12823          	sw	a3,144(sp)
    14e4:	00a70733          	add	a4,a4,a0
    14e8:	08e12a23          	sw	a4,148(sp)

000014ec <T12_end>:
    14ec:	b00027f3          	csrr	a5,mcycle
    14f0:	40b787b3          	sub	a5,a5,a1
    14f4:	02f9a823          	sw	a5,48(s3)
    14f8:	08412603          	lw	a2,132(sp)
    14fc:	08410713          	addi	a4,sp,132
    1500:	00000513          	li	a0,0
    1504:	00100793          	li	a5,1
    1508:	00500593          	li	a1,5
    150c:	0100006f          	j	151c <T12_end+0x30>
    1510:	00178793          	addi	a5,a5,1
    1514:	00470713          	addi	a4,a4,4
    1518:	00b78c63          	beq	a5,a1,1530 <T12_end+0x44>
    151c:	00472683          	lw	a3,4(a4)
    1520:	fec6c8e3          	blt	a3,a2,1510 <T12_end+0x24>
    1524:	00068613          	mv	a2,a3
    1528:	00078513          	mv	a0,a5
    152c:	fe5ff06f          	j	1510 <T12_end+0x24>
    1530:	00020737          	lui	a4,0x20
    1534:	000207b7          	lui	a5,0x20
    1538:	03078793          	addi	a5,a5,48 # 20030 <next.0>
    153c:	20f54533          	sh2add	a0,a0,a5
    1540:	00052783          	lw	a5,0(a0)
    1544:	0b870713          	addi	a4,a4,184 # 200b8 <jump_table.13>
    1548:	20e7c7b3          	sh2add	a5,a5,a4
    154c:	0007a783          	lw	a5,0(a5)
    1550:	e40ff06f          	j	b90 <inferenceTPG+0x40>
    1554:	00600793          	li	a5,6
    1558:	00fb2023          	sw	a5,0(s6)
    155c:	0fc12083          	lw	ra,252(sp)
    1560:	0f812483          	lw	s1,248(sp)
    1564:	0f412903          	lw	s2,244(sp)
    1568:	0f012983          	lw	s3,240(sp)
    156c:	0ec12a03          	lw	s4,236(sp)
    1570:	0e812a83          	lw	s5,232(sp)
    1574:	0e412b03          	lw	s6,228(sp)
    1578:	10010113          	addi	sp,sp,256
    157c:	00008067          	ret
    1580:	00700793          	li	a5,7
    1584:	fd5ff06f          	j	1558 <T12_end+0x6c>
    1588:	00000793          	li	a5,0
    158c:	fcdff06f          	j	1558 <T12_end+0x6c>
    1590:	00500793          	li	a5,5
    1594:	fc5ff06f          	j	1558 <T12_end+0x6c>
    1598:	00400793          	li	a5,4
    159c:	fbdff06f          	j	1558 <T12_end+0x6c>
    15a0:	00200793          	li	a5,2
    15a4:	fb5ff06f          	j	1558 <T12_end+0x6c>
    15a8:	00100793          	li	a5,1
    15ac:	fadff06f          	j	1558 <T12_end+0x6c>

000015b0 <handler_irq_fast_timer_1>:
    15b0:	fc010113          	addi	sp,sp,-64
    15b4:	02112e23          	sw	ra,60(sp)
    15b8:	02512c23          	sw	t0,56(sp)
    15bc:	02612a23          	sw	t1,52(sp)
    15c0:	02712823          	sw	t2,48(sp)
    15c4:	02a12623          	sw	a0,44(sp)
    15c8:	02b12423          	sw	a1,40(sp)
    15cc:	02c12223          	sw	a2,36(sp)
    15d0:	02d12023          	sw	a3,32(sp)
    15d4:	00e12e23          	sw	a4,28(sp)
    15d8:	00f12c23          	sw	a5,24(sp)
    15dc:	01012a23          	sw	a6,20(sp)
    15e0:	01112823          	sw	a7,16(sp)
    15e4:	01c12623          	sw	t3,12(sp)
    15e8:	01d12423          	sw	t4,8(sp)
    15ec:	01e12223          	sw	t5,4(sp)
    15f0:	01f12023          	sw	t6,0(sp)
    15f4:	200607b7          	lui	a5,0x20060
    15f8:	00100713          	li	a4,1
    15fc:	00e7a223          	sw	a4,4(a5) # 20060004 <_sp+0x200355a4>
    1600:	db1fe0ef          	jal	3b0 <fic_irq_timer_1>
    1604:	03c12083          	lw	ra,60(sp)
    1608:	03812283          	lw	t0,56(sp)
    160c:	03412303          	lw	t1,52(sp)
    1610:	03012383          	lw	t2,48(sp)
    1614:	02c12503          	lw	a0,44(sp)
    1618:	02812583          	lw	a1,40(sp)
    161c:	02412603          	lw	a2,36(sp)
    1620:	02012683          	lw	a3,32(sp)
    1624:	01c12703          	lw	a4,28(sp)
    1628:	01812783          	lw	a5,24(sp)
    162c:	01412803          	lw	a6,20(sp)
    1630:	01012883          	lw	a7,16(sp)
    1634:	00c12e03          	lw	t3,12(sp)
    1638:	00812e83          	lw	t4,8(sp)
    163c:	00412f03          	lw	t5,4(sp)
    1640:	00012f83          	lw	t6,0(sp)
    1644:	04010113          	addi	sp,sp,64
    1648:	30200073          	mret

0000164c <handler_irq_fast_timer_2>:
    164c:	fc010113          	addi	sp,sp,-64
    1650:	02112e23          	sw	ra,60(sp)
    1654:	02512c23          	sw	t0,56(sp)
    1658:	02612a23          	sw	t1,52(sp)
    165c:	02712823          	sw	t2,48(sp)
    1660:	02a12623          	sw	a0,44(sp)
    1664:	02b12423          	sw	a1,40(sp)
    1668:	02c12223          	sw	a2,36(sp)
    166c:	02d12023          	sw	a3,32(sp)
    1670:	00e12e23          	sw	a4,28(sp)
    1674:	00f12c23          	sw	a5,24(sp)
    1678:	01012a23          	sw	a6,20(sp)
    167c:	01112823          	sw	a7,16(sp)
    1680:	01c12623          	sw	t3,12(sp)
    1684:	01d12423          	sw	t4,8(sp)
    1688:	01e12223          	sw	t5,4(sp)
    168c:	01f12023          	sw	t6,0(sp)
    1690:	200607b7          	lui	a5,0x20060
    1694:	00200713          	li	a4,2
    1698:	00e7a223          	sw	a4,4(a5) # 20060004 <_sp+0x200355a4>
    169c:	d39fe0ef          	jal	3d4 <fic_irq_timer_2>
    16a0:	03c12083          	lw	ra,60(sp)
    16a4:	03812283          	lw	t0,56(sp)
    16a8:	03412303          	lw	t1,52(sp)
    16ac:	03012383          	lw	t2,48(sp)
    16b0:	02c12503          	lw	a0,44(sp)
    16b4:	02812583          	lw	a1,40(sp)
    16b8:	02412603          	lw	a2,36(sp)
    16bc:	02012683          	lw	a3,32(sp)
    16c0:	01c12703          	lw	a4,28(sp)
    16c4:	01812783          	lw	a5,24(sp)
    16c8:	01412803          	lw	a6,20(sp)
    16cc:	01012883          	lw	a7,16(sp)
    16d0:	00c12e03          	lw	t3,12(sp)
    16d4:	00812e83          	lw	t4,8(sp)
    16d8:	00412f03          	lw	t5,4(sp)
    16dc:	00012f83          	lw	t6,0(sp)
    16e0:	04010113          	addi	sp,sp,64
    16e4:	30200073          	mret

000016e8 <handler_irq_fast_timer_3>:
    16e8:	fc010113          	addi	sp,sp,-64
    16ec:	02112e23          	sw	ra,60(sp)
    16f0:	02512c23          	sw	t0,56(sp)
    16f4:	02612a23          	sw	t1,52(sp)
    16f8:	02712823          	sw	t2,48(sp)
    16fc:	02a12623          	sw	a0,44(sp)
    1700:	02b12423          	sw	a1,40(sp)
    1704:	02c12223          	sw	a2,36(sp)
    1708:	02d12023          	sw	a3,32(sp)
    170c:	00e12e23          	sw	a4,28(sp)
    1710:	00f12c23          	sw	a5,24(sp)
    1714:	01012a23          	sw	a6,20(sp)
    1718:	01112823          	sw	a7,16(sp)
    171c:	01c12623          	sw	t3,12(sp)
    1720:	01d12423          	sw	t4,8(sp)
    1724:	01e12223          	sw	t5,4(sp)
    1728:	01f12023          	sw	t6,0(sp)
    172c:	200607b7          	lui	a5,0x20060
    1730:	00400713          	li	a4,4
    1734:	00e7a223          	sw	a4,4(a5) # 20060004 <_sp+0x200355a4>
    1738:	cc1fe0ef          	jal	3f8 <fic_irq_timer_3>
    173c:	03c12083          	lw	ra,60(sp)
    1740:	03812283          	lw	t0,56(sp)
    1744:	03412303          	lw	t1,52(sp)
    1748:	03012383          	lw	t2,48(sp)
    174c:	02c12503          	lw	a0,44(sp)
    1750:	02812583          	lw	a1,40(sp)
    1754:	02412603          	lw	a2,36(sp)
    1758:	02012683          	lw	a3,32(sp)
    175c:	01c12703          	lw	a4,28(sp)
    1760:	01812783          	lw	a5,24(sp)
    1764:	01412803          	lw	a6,20(sp)
    1768:	01012883          	lw	a7,16(sp)
    176c:	00c12e03          	lw	t3,12(sp)
    1770:	00812e83          	lw	t4,8(sp)
    1774:	00412f03          	lw	t5,4(sp)
    1778:	00012f83          	lw	t6,0(sp)
    177c:	04010113          	addi	sp,sp,64
    1780:	30200073          	mret

00001784 <handler_irq_fast_dma_done>:
    1784:	fc010113          	addi	sp,sp,-64
    1788:	02112e23          	sw	ra,60(sp)
    178c:	02512c23          	sw	t0,56(sp)
    1790:	02612a23          	sw	t1,52(sp)
    1794:	02712823          	sw	t2,48(sp)
    1798:	02a12623          	sw	a0,44(sp)
    179c:	02b12423          	sw	a1,40(sp)
    17a0:	02c12223          	sw	a2,36(sp)
    17a4:	02d12023          	sw	a3,32(sp)
    17a8:	00e12e23          	sw	a4,28(sp)
    17ac:	00f12c23          	sw	a5,24(sp)
    17b0:	01012a23          	sw	a6,20(sp)
    17b4:	01112823          	sw	a7,16(sp)
    17b8:	01c12623          	sw	t3,12(sp)
    17bc:	01d12423          	sw	t4,8(sp)
    17c0:	01e12223          	sw	t5,4(sp)
    17c4:	01f12023          	sw	t6,0(sp)
    17c8:	200607b7          	lui	a5,0x20060
    17cc:	00800713          	li	a4,8
    17d0:	00e7a223          	sw	a4,4(a5) # 20060004 <_sp+0x200355a4>
    17d4:	ae1fe0ef          	jal	2b4 <fic_irq_dma_done>
    17d8:	03c12083          	lw	ra,60(sp)
    17dc:	03812283          	lw	t0,56(sp)
    17e0:	03412303          	lw	t1,52(sp)
    17e4:	03012383          	lw	t2,48(sp)
    17e8:	02c12503          	lw	a0,44(sp)
    17ec:	02812583          	lw	a1,40(sp)
    17f0:	02412603          	lw	a2,36(sp)
    17f4:	02012683          	lw	a3,32(sp)
    17f8:	01c12703          	lw	a4,28(sp)
    17fc:	01812783          	lw	a5,24(sp)
    1800:	01412803          	lw	a6,20(sp)
    1804:	01012883          	lw	a7,16(sp)
    1808:	00c12e03          	lw	t3,12(sp)
    180c:	00812e83          	lw	t4,8(sp)
    1810:	00412f03          	lw	t5,4(sp)
    1814:	00012f83          	lw	t6,0(sp)
    1818:	04010113          	addi	sp,sp,64
    181c:	30200073          	mret

00001820 <handler_irq_fast_dma_window>:
    1820:	fc010113          	addi	sp,sp,-64
    1824:	02112e23          	sw	ra,60(sp)
    1828:	02512c23          	sw	t0,56(sp)
    182c:	02612a23          	sw	t1,52(sp)
    1830:	02712823          	sw	t2,48(sp)
    1834:	02a12623          	sw	a0,44(sp)
    1838:	02b12423          	sw	a1,40(sp)
    183c:	02c12223          	sw	a2,36(sp)
    1840:	02d12023          	sw	a3,32(sp)
    1844:	00e12e23          	sw	a4,28(sp)
    1848:	00f12c23          	sw	a5,24(sp)
    184c:	01012a23          	sw	a6,20(sp)
    1850:	01112823          	sw	a7,16(sp)
    1854:	01c12623          	sw	t3,12(sp)
    1858:	01d12423          	sw	t4,8(sp)
    185c:	01e12223          	sw	t5,4(sp)
    1860:	01f12023          	sw	t6,0(sp)
    1864:	200607b7          	lui	a5,0x20060
    1868:	00004737          	lui	a4,0x4
    186c:	00e7a223          	sw	a4,4(a5) # 20060004 <_sp+0x200355a4>
    1870:	9c5fe0ef          	jal	234 <fic_irq_dma_window>
    1874:	03c12083          	lw	ra,60(sp)
    1878:	03812283          	lw	t0,56(sp)
    187c:	03412303          	lw	t1,52(sp)
    1880:	03012383          	lw	t2,48(sp)
    1884:	02c12503          	lw	a0,44(sp)
    1888:	02812583          	lw	a1,40(sp)
    188c:	02412603          	lw	a2,36(sp)
    1890:	02012683          	lw	a3,32(sp)
    1894:	01c12703          	lw	a4,28(sp)
    1898:	01812783          	lw	a5,24(sp)
    189c:	01412803          	lw	a6,20(sp)
    18a0:	01012883          	lw	a7,16(sp)
    18a4:	00c12e03          	lw	t3,12(sp)
    18a8:	00812e83          	lw	t4,8(sp)
    18ac:	00412f03          	lw	t5,4(sp)
    18b0:	00012f83          	lw	t6,0(sp)
    18b4:	04010113          	addi	sp,sp,64
    18b8:	30200073          	mret

000018bc <handler_irq_fast_external_peripheral>:
    18bc:	fc010113          	addi	sp,sp,-64
    18c0:	02112e23          	sw	ra,60(sp)
    18c4:	02512c23          	sw	t0,56(sp)
    18c8:	02612a23          	sw	t1,52(sp)
    18cc:	02712823          	sw	t2,48(sp)
    18d0:	02a12623          	sw	a0,44(sp)
    18d4:	02b12423          	sw	a1,40(sp)
    18d8:	02c12223          	sw	a2,36(sp)
    18dc:	02d12023          	sw	a3,32(sp)
    18e0:	00e12e23          	sw	a4,28(sp)
    18e4:	00f12c23          	sw	a5,24(sp)
    18e8:	01012a23          	sw	a6,20(sp)
    18ec:	01112823          	sw	a7,16(sp)
    18f0:	01c12623          	sw	t3,12(sp)
    18f4:	01d12423          	sw	t4,8(sp)
    18f8:	01e12223          	sw	t5,4(sp)
    18fc:	01f12023          	sw	t6,0(sp)
    1900:	200607b7          	lui	a5,0x20060
    1904:	00008737          	lui	a4,0x8
    1908:	00e7a223          	sw	a4,4(a5) # 20060004 <_sp+0x200355a4>
    190c:	b11fe0ef          	jal	41c <fic_irq_ext_peripheral>
    1910:	03c12083          	lw	ra,60(sp)
    1914:	03812283          	lw	t0,56(sp)
    1918:	03412303          	lw	t1,52(sp)
    191c:	03012383          	lw	t2,48(sp)
    1920:	02c12503          	lw	a0,44(sp)
    1924:	02812583          	lw	a1,40(sp)
    1928:	02412603          	lw	a2,36(sp)
    192c:	02012683          	lw	a3,32(sp)
    1930:	01c12703          	lw	a4,28(sp)
    1934:	01812783          	lw	a5,24(sp)
    1938:	01412803          	lw	a6,20(sp)
    193c:	01012883          	lw	a7,16(sp)
    1940:	00c12e03          	lw	t3,12(sp)
    1944:	00812e83          	lw	t4,8(sp)
    1948:	00412f03          	lw	t5,4(sp)
    194c:	00012f83          	lw	t6,0(sp)
    1950:	04010113          	addi	sp,sp,64
    1954:	30200073          	mret

00001958 <handler_irq_fast_gpio_0>:
    1958:	fc010113          	addi	sp,sp,-64
    195c:	02112e23          	sw	ra,60(sp)
    1960:	02512c23          	sw	t0,56(sp)
    1964:	02612a23          	sw	t1,52(sp)
    1968:	02712823          	sw	t2,48(sp)
    196c:	02a12623          	sw	a0,44(sp)
    1970:	02b12423          	sw	a1,40(sp)
    1974:	02c12223          	sw	a2,36(sp)
    1978:	02d12023          	sw	a3,32(sp)
    197c:	00e12e23          	sw	a4,28(sp)
    1980:	00f12c23          	sw	a5,24(sp)
    1984:	01012a23          	sw	a6,20(sp)
    1988:	01112823          	sw	a7,16(sp)
    198c:	01c12623          	sw	t3,12(sp)
    1990:	01d12423          	sw	t4,8(sp)
    1994:	01e12223          	sw	t5,4(sp)
    1998:	01f12023          	sw	t6,0(sp)
    199c:	200607b7          	lui	a5,0x20060
    19a0:	04000713          	li	a4,64
    19a4:	00e7a223          	sw	a4,4(a5) # 20060004 <_sp+0x200355a4>
    19a8:	a99fe0ef          	jal	440 <fic_irq_gpio_0>
    19ac:	03c12083          	lw	ra,60(sp)
    19b0:	03812283          	lw	t0,56(sp)
    19b4:	03412303          	lw	t1,52(sp)
    19b8:	03012383          	lw	t2,48(sp)
    19bc:	02c12503          	lw	a0,44(sp)
    19c0:	02812583          	lw	a1,40(sp)
    19c4:	02412603          	lw	a2,36(sp)
    19c8:	02012683          	lw	a3,32(sp)
    19cc:	01c12703          	lw	a4,28(sp)
    19d0:	01812783          	lw	a5,24(sp)
    19d4:	01412803          	lw	a6,20(sp)
    19d8:	01012883          	lw	a7,16(sp)
    19dc:	00c12e03          	lw	t3,12(sp)
    19e0:	00812e83          	lw	t4,8(sp)
    19e4:	00412f03          	lw	t5,4(sp)
    19e8:	00012f83          	lw	t6,0(sp)
    19ec:	04010113          	addi	sp,sp,64
    19f0:	30200073          	mret

000019f4 <handler_irq_fast_gpio_1>:
    19f4:	fc010113          	addi	sp,sp,-64
    19f8:	02112e23          	sw	ra,60(sp)
    19fc:	02512c23          	sw	t0,56(sp)
    1a00:	02612a23          	sw	t1,52(sp)
    1a04:	02712823          	sw	t2,48(sp)
    1a08:	02a12623          	sw	a0,44(sp)
    1a0c:	02b12423          	sw	a1,40(sp)
    1a10:	02c12223          	sw	a2,36(sp)
    1a14:	02d12023          	sw	a3,32(sp)
    1a18:	00e12e23          	sw	a4,28(sp)
    1a1c:	00f12c23          	sw	a5,24(sp)
    1a20:	01012a23          	sw	a6,20(sp)
    1a24:	01112823          	sw	a7,16(sp)
    1a28:	01c12623          	sw	t3,12(sp)
    1a2c:	01d12423          	sw	t4,8(sp)
    1a30:	01e12223          	sw	t5,4(sp)
    1a34:	01f12023          	sw	t6,0(sp)
    1a38:	200607b7          	lui	a5,0x20060
    1a3c:	08000713          	li	a4,128
    1a40:	00e7a223          	sw	a4,4(a5) # 20060004 <_sp+0x200355a4>
    1a44:	a21fe0ef          	jal	464 <fic_irq_gpio_1>
    1a48:	03c12083          	lw	ra,60(sp)
    1a4c:	03812283          	lw	t0,56(sp)
    1a50:	03412303          	lw	t1,52(sp)
    1a54:	03012383          	lw	t2,48(sp)
    1a58:	02c12503          	lw	a0,44(sp)
    1a5c:	02812583          	lw	a1,40(sp)
    1a60:	02412603          	lw	a2,36(sp)
    1a64:	02012683          	lw	a3,32(sp)
    1a68:	01c12703          	lw	a4,28(sp)
    1a6c:	01812783          	lw	a5,24(sp)
    1a70:	01412803          	lw	a6,20(sp)
    1a74:	01012883          	lw	a7,16(sp)
    1a78:	00c12e03          	lw	t3,12(sp)
    1a7c:	00812e83          	lw	t4,8(sp)
    1a80:	00412f03          	lw	t5,4(sp)
    1a84:	00012f83          	lw	t6,0(sp)
    1a88:	04010113          	addi	sp,sp,64
    1a8c:	30200073          	mret

00001a90 <handler_irq_fast_gpio_2>:
    1a90:	fc010113          	addi	sp,sp,-64
    1a94:	02112e23          	sw	ra,60(sp)
    1a98:	02512c23          	sw	t0,56(sp)
    1a9c:	02612a23          	sw	t1,52(sp)
    1aa0:	02712823          	sw	t2,48(sp)
    1aa4:	02a12623          	sw	a0,44(sp)
    1aa8:	02b12423          	sw	a1,40(sp)
    1aac:	02c12223          	sw	a2,36(sp)
    1ab0:	02d12023          	sw	a3,32(sp)
    1ab4:	00e12e23          	sw	a4,28(sp)
    1ab8:	00f12c23          	sw	a5,24(sp)
    1abc:	01012a23          	sw	a6,20(sp)
    1ac0:	01112823          	sw	a7,16(sp)
    1ac4:	01c12623          	sw	t3,12(sp)
    1ac8:	01d12423          	sw	t4,8(sp)
    1acc:	01e12223          	sw	t5,4(sp)
    1ad0:	01f12023          	sw	t6,0(sp)
    1ad4:	200607b7          	lui	a5,0x20060
    1ad8:	10000713          	li	a4,256
    1adc:	00e7a223          	sw	a4,4(a5) # 20060004 <_sp+0x200355a4>
    1ae0:	9a9fe0ef          	jal	488 <fic_irq_gpio_2>
    1ae4:	03c12083          	lw	ra,60(sp)
    1ae8:	03812283          	lw	t0,56(sp)
    1aec:	03412303          	lw	t1,52(sp)
    1af0:	03012383          	lw	t2,48(sp)
    1af4:	02c12503          	lw	a0,44(sp)
    1af8:	02812583          	lw	a1,40(sp)
    1afc:	02412603          	lw	a2,36(sp)
    1b00:	02012683          	lw	a3,32(sp)
    1b04:	01c12703          	lw	a4,28(sp)
    1b08:	01812783          	lw	a5,24(sp)
    1b0c:	01412803          	lw	a6,20(sp)
    1b10:	01012883          	lw	a7,16(sp)
    1b14:	00c12e03          	lw	t3,12(sp)
    1b18:	00812e83          	lw	t4,8(sp)
    1b1c:	00412f03          	lw	t5,4(sp)
    1b20:	00012f83          	lw	t6,0(sp)
    1b24:	04010113          	addi	sp,sp,64
    1b28:	30200073          	mret

00001b2c <handler_irq_fast_gpio_3>:
    1b2c:	fc010113          	addi	sp,sp,-64
    1b30:	02112e23          	sw	ra,60(sp)
    1b34:	02512c23          	sw	t0,56(sp)
    1b38:	02612a23          	sw	t1,52(sp)
    1b3c:	02712823          	sw	t2,48(sp)
    1b40:	02a12623          	sw	a0,44(sp)
    1b44:	02b12423          	sw	a1,40(sp)
    1b48:	02c12223          	sw	a2,36(sp)
    1b4c:	02d12023          	sw	a3,32(sp)
    1b50:	00e12e23          	sw	a4,28(sp)
    1b54:	00f12c23          	sw	a5,24(sp)
    1b58:	01012a23          	sw	a6,20(sp)
    1b5c:	01112823          	sw	a7,16(sp)
    1b60:	01c12623          	sw	t3,12(sp)
    1b64:	01d12423          	sw	t4,8(sp)
    1b68:	01e12223          	sw	t5,4(sp)
    1b6c:	01f12023          	sw	t6,0(sp)
    1b70:	200607b7          	lui	a5,0x20060
    1b74:	20000713          	li	a4,512
    1b78:	00e7a223          	sw	a4,4(a5) # 20060004 <_sp+0x200355a4>
    1b7c:	931fe0ef          	jal	4ac <fic_irq_gpio_3>
    1b80:	03c12083          	lw	ra,60(sp)
    1b84:	03812283          	lw	t0,56(sp)
    1b88:	03412303          	lw	t1,52(sp)
    1b8c:	03012383          	lw	t2,48(sp)
    1b90:	02c12503          	lw	a0,44(sp)
    1b94:	02812583          	lw	a1,40(sp)
    1b98:	02412603          	lw	a2,36(sp)
    1b9c:	02012683          	lw	a3,32(sp)
    1ba0:	01c12703          	lw	a4,28(sp)
    1ba4:	01812783          	lw	a5,24(sp)
    1ba8:	01412803          	lw	a6,20(sp)
    1bac:	01012883          	lw	a7,16(sp)
    1bb0:	00c12e03          	lw	t3,12(sp)
    1bb4:	00812e83          	lw	t4,8(sp)
    1bb8:	00412f03          	lw	t5,4(sp)
    1bbc:	00012f83          	lw	t6,0(sp)
    1bc0:	04010113          	addi	sp,sp,64
    1bc4:	30200073          	mret

00001bc8 <handler_irq_fast_gpio_4>:
    1bc8:	fc010113          	addi	sp,sp,-64
    1bcc:	02112e23          	sw	ra,60(sp)
    1bd0:	02512c23          	sw	t0,56(sp)
    1bd4:	02612a23          	sw	t1,52(sp)
    1bd8:	02712823          	sw	t2,48(sp)
    1bdc:	02a12623          	sw	a0,44(sp)
    1be0:	02b12423          	sw	a1,40(sp)
    1be4:	02c12223          	sw	a2,36(sp)
    1be8:	02d12023          	sw	a3,32(sp)
    1bec:	00e12e23          	sw	a4,28(sp)
    1bf0:	00f12c23          	sw	a5,24(sp)
    1bf4:	01012a23          	sw	a6,20(sp)
    1bf8:	01112823          	sw	a7,16(sp)
    1bfc:	01c12623          	sw	t3,12(sp)
    1c00:	01d12423          	sw	t4,8(sp)
    1c04:	01e12223          	sw	t5,4(sp)
    1c08:	01f12023          	sw	t6,0(sp)
    1c0c:	200607b7          	lui	a5,0x20060
    1c10:	40000713          	li	a4,1024
    1c14:	00e7a223          	sw	a4,4(a5) # 20060004 <_sp+0x200355a4>
    1c18:	8b9fe0ef          	jal	4d0 <fic_irq_gpio_4>
    1c1c:	03c12083          	lw	ra,60(sp)
    1c20:	03812283          	lw	t0,56(sp)
    1c24:	03412303          	lw	t1,52(sp)
    1c28:	03012383          	lw	t2,48(sp)
    1c2c:	02c12503          	lw	a0,44(sp)
    1c30:	02812583          	lw	a1,40(sp)
    1c34:	02412603          	lw	a2,36(sp)
    1c38:	02012683          	lw	a3,32(sp)
    1c3c:	01c12703          	lw	a4,28(sp)
    1c40:	01812783          	lw	a5,24(sp)
    1c44:	01412803          	lw	a6,20(sp)
    1c48:	01012883          	lw	a7,16(sp)
    1c4c:	00c12e03          	lw	t3,12(sp)
    1c50:	00812e83          	lw	t4,8(sp)
    1c54:	00412f03          	lw	t5,4(sp)
    1c58:	00012f83          	lw	t6,0(sp)
    1c5c:	04010113          	addi	sp,sp,64
    1c60:	30200073          	mret

00001c64 <handler_irq_fast_gpio_5>:
    1c64:	fc010113          	addi	sp,sp,-64
    1c68:	02112e23          	sw	ra,60(sp)
    1c6c:	02512c23          	sw	t0,56(sp)
    1c70:	02612a23          	sw	t1,52(sp)
    1c74:	02712823          	sw	t2,48(sp)
    1c78:	02a12623          	sw	a0,44(sp)
    1c7c:	02b12423          	sw	a1,40(sp)
    1c80:	02c12223          	sw	a2,36(sp)
    1c84:	02d12023          	sw	a3,32(sp)
    1c88:	00e12e23          	sw	a4,28(sp)
    1c8c:	00f12c23          	sw	a5,24(sp)
    1c90:	01012a23          	sw	a6,20(sp)
    1c94:	01112823          	sw	a7,16(sp)
    1c98:	01c12623          	sw	t3,12(sp)
    1c9c:	01d12423          	sw	t4,8(sp)
    1ca0:	01e12223          	sw	t5,4(sp)
    1ca4:	01f12023          	sw	t6,0(sp)
    1ca8:	20060737          	lui	a4,0x20060
    1cac:	000017b7          	lui	a5,0x1
    1cb0:	80078793          	addi	a5,a5,-2048 # 800 <spi_event_handler+0x110>
    1cb4:	00f72223          	sw	a5,4(a4) # 20060004 <_sp+0x200355a4>
    1cb8:	83dfe0ef          	jal	4f4 <fic_irq_gpio_5>
    1cbc:	03c12083          	lw	ra,60(sp)
    1cc0:	03812283          	lw	t0,56(sp)
    1cc4:	03412303          	lw	t1,52(sp)
    1cc8:	03012383          	lw	t2,48(sp)
    1ccc:	02c12503          	lw	a0,44(sp)
    1cd0:	02812583          	lw	a1,40(sp)
    1cd4:	02412603          	lw	a2,36(sp)
    1cd8:	02012683          	lw	a3,32(sp)
    1cdc:	01c12703          	lw	a4,28(sp)
    1ce0:	01812783          	lw	a5,24(sp)
    1ce4:	01412803          	lw	a6,20(sp)
    1ce8:	01012883          	lw	a7,16(sp)
    1cec:	00c12e03          	lw	t3,12(sp)
    1cf0:	00812e83          	lw	t4,8(sp)
    1cf4:	00412f03          	lw	t5,4(sp)
    1cf8:	00012f83          	lw	t6,0(sp)
    1cfc:	04010113          	addi	sp,sp,64
    1d00:	30200073          	mret

00001d04 <handler_irq_fast_gpio_6>:
    1d04:	fc010113          	addi	sp,sp,-64
    1d08:	02112e23          	sw	ra,60(sp)
    1d0c:	02512c23          	sw	t0,56(sp)
    1d10:	02612a23          	sw	t1,52(sp)
    1d14:	02712823          	sw	t2,48(sp)
    1d18:	02a12623          	sw	a0,44(sp)
    1d1c:	02b12423          	sw	a1,40(sp)
    1d20:	02c12223          	sw	a2,36(sp)
    1d24:	02d12023          	sw	a3,32(sp)
    1d28:	00e12e23          	sw	a4,28(sp)
    1d2c:	00f12c23          	sw	a5,24(sp)
    1d30:	01012a23          	sw	a6,20(sp)
    1d34:	01112823          	sw	a7,16(sp)
    1d38:	01c12623          	sw	t3,12(sp)
    1d3c:	01d12423          	sw	t4,8(sp)
    1d40:	01e12223          	sw	t5,4(sp)
    1d44:	01f12023          	sw	t6,0(sp)
    1d48:	200607b7          	lui	a5,0x20060
    1d4c:	00001737          	lui	a4,0x1
    1d50:	00e7a223          	sw	a4,4(a5) # 20060004 <_sp+0x200355a4>
    1d54:	fc4fe0ef          	jal	518 <fic_irq_gpio_6>
    1d58:	03c12083          	lw	ra,60(sp)
    1d5c:	03812283          	lw	t0,56(sp)
    1d60:	03412303          	lw	t1,52(sp)
    1d64:	03012383          	lw	t2,48(sp)
    1d68:	02c12503          	lw	a0,44(sp)
    1d6c:	02812583          	lw	a1,40(sp)
    1d70:	02412603          	lw	a2,36(sp)
    1d74:	02012683          	lw	a3,32(sp)
    1d78:	01c12703          	lw	a4,28(sp)
    1d7c:	01812783          	lw	a5,24(sp)
    1d80:	01412803          	lw	a6,20(sp)
    1d84:	01012883          	lw	a7,16(sp)
    1d88:	00c12e03          	lw	t3,12(sp)
    1d8c:	00812e83          	lw	t4,8(sp)
    1d90:	00412f03          	lw	t5,4(sp)
    1d94:	00012f83          	lw	t6,0(sp)
    1d98:	04010113          	addi	sp,sp,64
    1d9c:	30200073          	mret

00001da0 <handler_irq_fast_gpio_7>:
    1da0:	fc010113          	addi	sp,sp,-64
    1da4:	02112e23          	sw	ra,60(sp)
    1da8:	02512c23          	sw	t0,56(sp)
    1dac:	02612a23          	sw	t1,52(sp)
    1db0:	02712823          	sw	t2,48(sp)
    1db4:	02a12623          	sw	a0,44(sp)
    1db8:	02b12423          	sw	a1,40(sp)
    1dbc:	02c12223          	sw	a2,36(sp)
    1dc0:	02d12023          	sw	a3,32(sp)
    1dc4:	00e12e23          	sw	a4,28(sp)
    1dc8:	00f12c23          	sw	a5,24(sp)
    1dcc:	01012a23          	sw	a6,20(sp)
    1dd0:	01112823          	sw	a7,16(sp)
    1dd4:	01c12623          	sw	t3,12(sp)
    1dd8:	01d12423          	sw	t4,8(sp)
    1ddc:	01e12223          	sw	t5,4(sp)
    1de0:	01f12023          	sw	t6,0(sp)
    1de4:	200607b7          	lui	a5,0x20060
    1de8:	00002737          	lui	a4,0x2
    1dec:	00e7a223          	sw	a4,4(a5) # 20060004 <_sp+0x200355a4>
    1df0:	f4cfe0ef          	jal	53c <fic_irq_gpio_7>
    1df4:	03c12083          	lw	ra,60(sp)
    1df8:	03812283          	lw	t0,56(sp)
    1dfc:	03412303          	lw	t1,52(sp)
    1e00:	03012383          	lw	t2,48(sp)
    1e04:	02c12503          	lw	a0,44(sp)
    1e08:	02812583          	lw	a1,40(sp)
    1e0c:	02412603          	lw	a2,36(sp)
    1e10:	02012683          	lw	a3,32(sp)
    1e14:	01c12703          	lw	a4,28(sp)
    1e18:	01812783          	lw	a5,24(sp)
    1e1c:	01412803          	lw	a6,20(sp)
    1e20:	01012883          	lw	a7,16(sp)
    1e24:	00c12e03          	lw	t3,12(sp)
    1e28:	00812e83          	lw	t4,8(sp)
    1e2c:	00412f03          	lw	t5,4(sp)
    1e30:	00012f83          	lw	t6,0(sp)
    1e34:	04010113          	addi	sp,sp,64
    1e38:	30200073          	mret

00001e3c <handler_irq_external>:
    1e3c:	fb010113          	addi	sp,sp,-80
    1e40:	04112623          	sw	ra,76(sp)
    1e44:	04512423          	sw	t0,72(sp)
    1e48:	04612223          	sw	t1,68(sp)
    1e4c:	04712023          	sw	t2,64(sp)
    1e50:	02912e23          	sw	s1,60(sp)
    1e54:	02a12c23          	sw	a0,56(sp)
    1e58:	02b12a23          	sw	a1,52(sp)
    1e5c:	02c12823          	sw	a2,48(sp)
    1e60:	02d12623          	sw	a3,44(sp)
    1e64:	02e12423          	sw	a4,40(sp)
    1e68:	02f12223          	sw	a5,36(sp)
    1e6c:	03012023          	sw	a6,32(sp)
    1e70:	01112e23          	sw	a7,28(sp)
    1e74:	01212c23          	sw	s2,24(sp)
    1e78:	01c12a23          	sw	t3,20(sp)
    1e7c:	01d12823          	sw	t4,16(sp)
    1e80:	01e12623          	sw	t5,12(sp)
    1e84:	01f12423          	sw	t6,8(sp)
    1e88:	300004b7          	lui	s1,0x30000
    1e8c:	20c4a903          	lw	s2,524(s1) # 3000020c <_sp+0x2ffd57ac>
    1e90:	00090513          	mv	a0,s2
    1e94:	00000793          	li	a5,0
    1e98:	000780e7          	jalr	a5
    1e9c:	2124a623          	sw	s2,524(s1)
    1ea0:	04c12083          	lw	ra,76(sp)
    1ea4:	04812283          	lw	t0,72(sp)
    1ea8:	04412303          	lw	t1,68(sp)
    1eac:	04012383          	lw	t2,64(sp)
    1eb0:	03c12483          	lw	s1,60(sp)
    1eb4:	03812503          	lw	a0,56(sp)
    1eb8:	03412583          	lw	a1,52(sp)
    1ebc:	03012603          	lw	a2,48(sp)
    1ec0:	02c12683          	lw	a3,44(sp)
    1ec4:	02812703          	lw	a4,40(sp)
    1ec8:	02412783          	lw	a5,36(sp)
    1ecc:	02012803          	lw	a6,32(sp)
    1ed0:	01c12883          	lw	a7,28(sp)
    1ed4:	01812903          	lw	s2,24(sp)
    1ed8:	01412e03          	lw	t3,20(sp)
    1edc:	01012e83          	lw	t4,16(sp)
    1ee0:	00c12f03          	lw	t5,12(sp)
    1ee4:	00812f83          	lw	t6,8(sp)
    1ee8:	05010113          	addi	sp,sp,80
    1eec:	30200073          	mret

00001ef0 <handler_exception>:
    1ef0:	fc010113          	addi	sp,sp,-64
    1ef4:	02112e23          	sw	ra,60(sp)
    1ef8:	02512c23          	sw	t0,56(sp)
    1efc:	02612a23          	sw	t1,52(sp)
    1f00:	02712823          	sw	t2,48(sp)
    1f04:	02a12623          	sw	a0,44(sp)
    1f08:	02b12423          	sw	a1,40(sp)
    1f0c:	02c12223          	sw	a2,36(sp)
    1f10:	02d12023          	sw	a3,32(sp)
    1f14:	00e12e23          	sw	a4,28(sp)
    1f18:	00f12c23          	sw	a5,24(sp)
    1f1c:	01012a23          	sw	a6,20(sp)
    1f20:	01112823          	sw	a7,16(sp)
    1f24:	01c12623          	sw	t3,12(sp)
    1f28:	01d12423          	sw	t4,8(sp)
    1f2c:	01e12223          	sw	t5,4(sp)
    1f30:	01f12023          	sw	t6,0(sp)
    1f34:	342027f3          	csrr	a5,mcause
    1f38:	01f7f793          	andi	a5,a5,31
    1f3c:	00b00713          	li	a4,11
    1f40:	06f76863          	bltu	a4,a5,1fb0 <handler_exception+0xc0>
    1f44:	00020737          	lui	a4,0x20
    1f48:	00070713          	mv	a4,a4
    1f4c:	20e7c7b3          	sh2add	a5,a5,a4
    1f50:	0007a783          	lw	a5,0(a5)
    1f54:	00078067          	jr	a5
    1f58:	00020537          	lui	a0,0x20
    1f5c:	34450513          	addi	a0,a0,836 # 20344 <__clz_tab+0x1c0>
    1f60:	b9dfe0ef          	jal	afc <print_exc_msg>
    1f64:	00020537          	lui	a0,0x20
    1f68:	34450513          	addi	a0,a0,836 # 20344 <__clz_tab+0x1c0>
    1f6c:	b91fe0ef          	jal	afc <print_exc_msg>
    1f70:	00020537          	lui	a0,0x20
    1f74:	37c50513          	addi	a0,a0,892 # 2037c <__clz_tab+0x1f8>
    1f78:	b85fe0ef          	jal	afc <print_exc_msg>
    1f7c:	00020537          	lui	a0,0x20
    1f80:	3b850513          	addi	a0,a0,952 # 203b8 <__clz_tab+0x234>
    1f84:	b79fe0ef          	jal	afc <print_exc_msg>
    1f88:	00020537          	lui	a0,0x20
    1f8c:	3f450513          	addi	a0,a0,1012 # 203f4 <__clz_tab+0x270>
    1f90:	b6dfe0ef          	jal	afc <print_exc_msg>
    1f94:	00020537          	lui	a0,0x20
    1f98:	3f450513          	addi	a0,a0,1012 # 203f4 <__clz_tab+0x270>
    1f9c:	b61fe0ef          	jal	afc <print_exc_msg>
    1fa0:	00020537          	lui	a0,0x20
    1fa4:	42850513          	addi	a0,a0,1064 # 20428 <__clz_tab+0x2a4>
    1fa8:	b21fe0ef          	jal	ac8 <_writestr>
    1fac:	0000006f          	j	1fac <handler_exception+0xbc>
    1fb0:	0000006f          	j	1fb0 <handler_exception+0xc0>

00001fb4 <handler_irq_software>:
    1fb4:	fc010113          	addi	sp,sp,-64
    1fb8:	02112e23          	sw	ra,60(sp)
    1fbc:	02512c23          	sw	t0,56(sp)
    1fc0:	02612a23          	sw	t1,52(sp)
    1fc4:	02712823          	sw	t2,48(sp)
    1fc8:	02a12623          	sw	a0,44(sp)
    1fcc:	02b12423          	sw	a1,40(sp)
    1fd0:	02c12223          	sw	a2,36(sp)
    1fd4:	02d12023          	sw	a3,32(sp)
    1fd8:	00e12e23          	sw	a4,28(sp)
    1fdc:	00f12c23          	sw	a5,24(sp)
    1fe0:	01012a23          	sw	a6,20(sp)
    1fe4:	01112823          	sw	a7,16(sp)
    1fe8:	01c12623          	sw	t3,12(sp)
    1fec:	01d12423          	sw	t4,8(sp)
    1ff0:	01e12223          	sw	t5,4(sp)
    1ff4:	01f12023          	sw	t6,0(sp)
    1ff8:	00020537          	lui	a0,0x20
    1ffc:	44850513          	addi	a0,a0,1096 # 20448 <__clz_tab+0x2c4>
    2000:	ac9fe0ef          	jal	ac8 <_writestr>
    2004:	0000006f          	j	2004 <handler_irq_software+0x50>

00002008 <handler_irq_timer>:
    2008:	fc010113          	addi	sp,sp,-64
    200c:	02112e23          	sw	ra,60(sp)
    2010:	02512c23          	sw	t0,56(sp)
    2014:	02612a23          	sw	t1,52(sp)
    2018:	02712823          	sw	t2,48(sp)
    201c:	02a12623          	sw	a0,44(sp)
    2020:	02b12423          	sw	a1,40(sp)
    2024:	02c12223          	sw	a2,36(sp)
    2028:	02d12023          	sw	a3,32(sp)
    202c:	00e12e23          	sw	a4,28(sp)
    2030:	00f12c23          	sw	a5,24(sp)
    2034:	01012a23          	sw	a6,20(sp)
    2038:	01112823          	sw	a7,16(sp)
    203c:	01c12623          	sw	t3,12(sp)
    2040:	01d12423          	sw	t4,8(sp)
    2044:	01e12223          	sw	t5,4(sp)
    2048:	01f12023          	sw	t6,0(sp)
    204c:	00020537          	lui	a0,0x20
    2050:	46450513          	addi	a0,a0,1124 # 20464 <__clz_tab+0x2e0>
    2054:	a75fe0ef          	jal	ac8 <_writestr>
    2058:	0000006f          	j	2058 <handler_irq_timer+0x50>

0000205c <init>:
    205c:	00000513          	li	a0,0
    2060:	00008067          	ret

00002064 <_close>:
    2064:	fff00513          	li	a0,-1
    2068:	00008067          	ret

0000206c <_exit>:
    206c:	200007b7          	lui	a5,0x20000
    2070:	00a7a223          	sw	a0,4(a5) # 20000004 <_sp+0x1ffd55a4>
    2074:	00100713          	li	a4,1
    2078:	00e78023          	sb	a4,0(a5)
    207c:	10500073          	wfi

00002080 <_fstat>:
    2080:	000027b7          	lui	a5,0x2
    2084:	00f5a223          	sw	a5,4(a1)
    2088:	00000513          	li	a0,0
    208c:	00008067          	ret

00002090 <_isatty>:
    2090:	fff50513          	addi	a0,a0,-1
    2094:	00153513          	seqz	a0,a0
    2098:	00008067          	ret

0000209c <_lseek>:
    209c:	00000513          	li	a0,0
    20a0:	00008067          	ret

000020a4 <_read>:
    20a4:	00000513          	li	a0,0
    20a8:	00008067          	ret

000020ac <_write_r>:
    20ac:	ff010113          	addi	sp,sp,-16
    20b0:	00112623          	sw	ra,12(sp)
    20b4:	00058513          	mv	a0,a1
    20b8:	00060593          	mv	a1,a2
    20bc:	00068613          	mv	a2,a3
    20c0:	d30fe0ef          	jal	5f0 <_write>
    20c4:	00c12083          	lw	ra,12(sp)
    20c8:	01010113          	addi	sp,sp,16
    20cc:	00008067          	ret

000020d0 <_sbrk>:
    20d0:	00050713          	mv	a4,a0
    20d4:	bbc18693          	addi	a3,gp,-1092 # 22a5c <__BSS_END__>
    20d8:	000277b7          	lui	a5,0x27
    20dc:	a5c78793          	addi	a5,a5,-1444 # 26a5c <__heap_end>
    20e0:	02f68c63          	beq	a3,a5,2118 <_sbrk+0x48>
    20e4:	9601a503          	lw	a0,-1696(gp) # 22800 <brk>
    20e8:	00e50733          	add	a4,a0,a4
    20ec:	00d737b3          	sltu	a5,a4,a3
    20f0:	0017b793          	seqz	a5,a5
    20f4:	000276b7          	lui	a3,0x27
    20f8:	a5c68693          	addi	a3,a3,-1444 # 26a5c <__heap_end>
    20fc:	00d736b3          	sltu	a3,a4,a3
    2100:	00d7f7b3          	and	a5,a5,a3
    2104:	00079663          	bnez	a5,2110 <_sbrk+0x40>
    2108:	fff00513          	li	a0,-1
    210c:	00008067          	ret
    2110:	96e1a023          	sw	a4,-1696(gp) # 22800 <brk>
    2114:	00008067          	ret
    2118:	00000513          	li	a0,0
    211c:	00008067          	ret

00002120 <spi_intr_handler_event_flash>:
    2120:	000227b7          	lui	a5,0x22
    2124:	6b07a703          	lw	a4,1712(a5) # 226b0 <peripherals+0x10>
    2128:	00200793          	li	a5,2
    212c:	00f70463          	beq	a4,a5,2134 <spi_intr_handler_event_flash+0x14>
    2130:	00008067          	ret
    2134:	ff010113          	addi	sp,sp,-16
    2138:	00112623          	sw	ra,12(sp)
    213c:	00050593          	mv	a1,a0
    2140:	00022537          	lui	a0,0x22
    2144:	6a050513          	addi	a0,a0,1696 # 226a0 <peripherals>
    2148:	da8fe0ef          	jal	6f0 <spi_event_handler>
    214c:	00c12083          	lw	ra,12(sp)
    2150:	01010113          	addi	sp,sp,16
    2154:	00008067          	ret

00002158 <spi_intr_handler_error_flash>:
    2158:	000227b7          	lui	a5,0x22
    215c:	6b07a703          	lw	a4,1712(a5) # 226b0 <peripherals+0x10>
    2160:	00200793          	li	a5,2
    2164:	00f70463          	beq	a4,a5,216c <spi_intr_handler_error_flash+0x14>
    2168:	00008067          	ret
    216c:	ff010113          	addi	sp,sp,-16
    2170:	00112623          	sw	ra,12(sp)
    2174:	00050593          	mv	a1,a0
    2178:	00022537          	lui	a0,0x22
    217c:	6a050513          	addi	a0,a0,1696 # 226a0 <peripherals>
    2180:	f98fe0ef          	jal	918 <spi_error_handler>
    2184:	00c12083          	lw	ra,12(sp)
    2188:	01010113          	addi	sp,sp,16
    218c:	00008067          	ret

00002190 <fic_irq_spi_flash>:
    2190:	fe010113          	addi	sp,sp,-32
    2194:	00112e23          	sw	ra,28(sp)
    2198:	200207b7          	lui	a5,0x20020
    219c:	0347a503          	lw	a0,52(a5) # 20020034 <_sp+0x1fff55d4>
    21a0:	03f57513          	andi	a0,a0,63
    21a4:	00050a63          	beqz	a0,21b8 <fic_irq_spi_flash+0x28>
    21a8:	fb1ff0ef          	jal	2158 <spi_intr_handler_error_flash>
    21ac:	01c12083          	lw	ra,28(sp)
    21b0:	02010113          	addi	sp,sp,32
    21b4:	00008067          	ret
    21b8:	20020737          	lui	a4,0x20020
    21bc:	00072783          	lw	a5,0(a4) # 20020000 <_sp+0x1fff55a0>
    21c0:	0027e793          	ori	a5,a5,2
    21c4:	00f72023          	sw	a5,0(a4)
    21c8:	00c10593          	addi	a1,sp,12
    21cc:	00070513          	mv	a0,a4
    21d0:	b90fe0ef          	jal	560 <spi_get_events>
    21d4:	00c12503          	lw	a0,12(sp)
    21d8:	f49ff0ef          	jal	2120 <spi_intr_handler_event_flash>
    21dc:	fd1ff06f          	j	21ac <fic_irq_spi_flash+0x1c>

000021e0 <handler_irq_fast_spi_flash>:
    21e0:	fc010113          	addi	sp,sp,-64
    21e4:	02112e23          	sw	ra,60(sp)
    21e8:	02512c23          	sw	t0,56(sp)
    21ec:	02612a23          	sw	t1,52(sp)
    21f0:	02712823          	sw	t2,48(sp)
    21f4:	02a12623          	sw	a0,44(sp)
    21f8:	02b12423          	sw	a1,40(sp)
    21fc:	02c12223          	sw	a2,36(sp)
    2200:	02d12023          	sw	a3,32(sp)
    2204:	00e12e23          	sw	a4,28(sp)
    2208:	00f12c23          	sw	a5,24(sp)
    220c:	01012a23          	sw	a6,20(sp)
    2210:	01112823          	sw	a7,16(sp)
    2214:	01c12623          	sw	t3,12(sp)
    2218:	01d12423          	sw	t4,8(sp)
    221c:	01e12223          	sw	t5,4(sp)
    2220:	01f12023          	sw	t6,0(sp)
    2224:	200607b7          	lui	a5,0x20060
    2228:	02000713          	li	a4,32
    222c:	00e7a223          	sw	a4,4(a5) # 20060004 <_sp+0x200355a4>
    2230:	f61ff0ef          	jal	2190 <fic_irq_spi_flash>
    2234:	03c12083          	lw	ra,60(sp)
    2238:	03812283          	lw	t0,56(sp)
    223c:	03412303          	lw	t1,52(sp)
    2240:	03012383          	lw	t2,48(sp)
    2244:	02c12503          	lw	a0,44(sp)
    2248:	02812583          	lw	a1,40(sp)
    224c:	02412603          	lw	a2,36(sp)
    2250:	02012683          	lw	a3,32(sp)
    2254:	01c12703          	lw	a4,28(sp)
    2258:	01812783          	lw	a5,24(sp)
    225c:	01412803          	lw	a6,20(sp)
    2260:	01012883          	lw	a7,16(sp)
    2264:	00c12e03          	lw	t3,12(sp)
    2268:	00812e83          	lw	t4,8(sp)
    226c:	00412f03          	lw	t5,4(sp)
    2270:	00012f83          	lw	t6,0(sp)
    2274:	04010113          	addi	sp,sp,64
    2278:	30200073          	mret

0000227c <spi_intr_handler_event_host>:
    227c:	000227b7          	lui	a5,0x22
    2280:	6f87a703          	lw	a4,1784(a5) # 226f8 <peripherals+0x58>
    2284:	00200793          	li	a5,2
    2288:	00f70463          	beq	a4,a5,2290 <spi_intr_handler_event_host+0x14>
    228c:	00008067          	ret
    2290:	ff010113          	addi	sp,sp,-16
    2294:	00112623          	sw	ra,12(sp)
    2298:	00050593          	mv	a1,a0
    229c:	00022537          	lui	a0,0x22
    22a0:	6e850513          	addi	a0,a0,1768 # 226e8 <peripherals+0x48>
    22a4:	c4cfe0ef          	jal	6f0 <spi_event_handler>
    22a8:	00c12083          	lw	ra,12(sp)
    22ac:	01010113          	addi	sp,sp,16
    22b0:	00008067          	ret

000022b4 <spi_intr_handler_error_host>:
    22b4:	000227b7          	lui	a5,0x22
    22b8:	6f87a703          	lw	a4,1784(a5) # 226f8 <peripherals+0x58>
    22bc:	00200793          	li	a5,2
    22c0:	00f70463          	beq	a4,a5,22c8 <spi_intr_handler_error_host+0x14>
    22c4:	00008067          	ret
    22c8:	ff010113          	addi	sp,sp,-16
    22cc:	00112623          	sw	ra,12(sp)
    22d0:	00050593          	mv	a1,a0
    22d4:	00022537          	lui	a0,0x22
    22d8:	6e850513          	addi	a0,a0,1768 # 226e8 <peripherals+0x48>
    22dc:	e3cfe0ef          	jal	918 <spi_error_handler>
    22e0:	00c12083          	lw	ra,12(sp)
    22e4:	01010113          	addi	sp,sp,16
    22e8:	00008067          	ret

000022ec <fic_irq_spi>:
    22ec:	fe010113          	addi	sp,sp,-32
    22f0:	00112e23          	sw	ra,28(sp)
    22f4:	300107b7          	lui	a5,0x30010
    22f8:	0347a503          	lw	a0,52(a5) # 30010034 <_sp+0x2ffe55d4>
    22fc:	03f57513          	andi	a0,a0,63
    2300:	00050a63          	beqz	a0,2314 <fic_irq_spi+0x28>
    2304:	fb1ff0ef          	jal	22b4 <spi_intr_handler_error_host>
    2308:	01c12083          	lw	ra,28(sp)
    230c:	02010113          	addi	sp,sp,32
    2310:	00008067          	ret
    2314:	30010737          	lui	a4,0x30010
    2318:	00072783          	lw	a5,0(a4) # 30010000 <_sp+0x2ffe55a0>
    231c:	0027e793          	ori	a5,a5,2
    2320:	00f72023          	sw	a5,0(a4)
    2324:	00c10593          	addi	a1,sp,12
    2328:	00070513          	mv	a0,a4
    232c:	a34fe0ef          	jal	560 <spi_get_events>
    2330:	00c12503          	lw	a0,12(sp)
    2334:	f49ff0ef          	jal	227c <spi_intr_handler_event_host>
    2338:	fd1ff06f          	j	2308 <fic_irq_spi+0x1c>

0000233c <handler_irq_fast_spi>:
    233c:	fc010113          	addi	sp,sp,-64
    2340:	02112e23          	sw	ra,60(sp)
    2344:	02512c23          	sw	t0,56(sp)
    2348:	02612a23          	sw	t1,52(sp)
    234c:	02712823          	sw	t2,48(sp)
    2350:	02a12623          	sw	a0,44(sp)
    2354:	02b12423          	sw	a1,40(sp)
    2358:	02c12223          	sw	a2,36(sp)
    235c:	02d12023          	sw	a3,32(sp)
    2360:	00e12e23          	sw	a4,28(sp)
    2364:	00f12c23          	sw	a5,24(sp)
    2368:	01012a23          	sw	a6,20(sp)
    236c:	01112823          	sw	a7,16(sp)
    2370:	01c12623          	sw	t3,12(sp)
    2374:	01d12423          	sw	t4,8(sp)
    2378:	01e12223          	sw	t5,4(sp)
    237c:	01f12023          	sw	t6,0(sp)
    2380:	200607b7          	lui	a5,0x20060
    2384:	01000713          	li	a4,16
    2388:	00e7a223          	sw	a4,4(a5) # 20060004 <_sp+0x200355a4>
    238c:	f61ff0ef          	jal	22ec <fic_irq_spi>
    2390:	03c12083          	lw	ra,60(sp)
    2394:	03812283          	lw	t0,56(sp)
    2398:	03412303          	lw	t1,52(sp)
    239c:	03012383          	lw	t2,48(sp)
    23a0:	02c12503          	lw	a0,44(sp)
    23a4:	02812583          	lw	a1,40(sp)
    23a8:	02412603          	lw	a2,36(sp)
    23ac:	02012683          	lw	a3,32(sp)
    23b0:	01c12703          	lw	a4,28(sp)
    23b4:	01812783          	lw	a5,24(sp)
    23b8:	01412803          	lw	a6,20(sp)
    23bc:	01012883          	lw	a7,16(sp)
    23c0:	00c12e03          	lw	t3,12(sp)
    23c4:	00812e83          	lw	t4,8(sp)
    23c8:	00412f03          	lw	t5,4(sp)
    23cc:	00012f83          	lw	t6,0(sp)
    23d0:	04010113          	addi	sp,sp,64
    23d4:	30200073          	mret

000023d8 <atexit>:
    23d8:	00050593          	mv	a1,a0
    23dc:	00000693          	li	a3,0
    23e0:	00000613          	li	a2,0
    23e4:	00000513          	li	a0,0
    23e8:	5400006f          	j	2928 <__register_exitproc>

000023ec <std>:
    23ec:	ff010113          	addi	sp,sp,-16
    23f0:	00812423          	sw	s0,8(sp)
    23f4:	00112623          	sw	ra,12(sp)
    23f8:	00050413          	mv	s0,a0
    23fc:	00b51623          	sh	a1,12(a0)
    2400:	00c51723          	sh	a2,14(a0)
    2404:	00052023          	sw	zero,0(a0)
    2408:	00052223          	sw	zero,4(a0)
    240c:	00052423          	sw	zero,8(a0)
    2410:	06052223          	sw	zero,100(a0)
    2414:	00052823          	sw	zero,16(a0)
    2418:	00052a23          	sw	zero,20(a0)
    241c:	00052c23          	sw	zero,24(a0)
    2420:	00800613          	li	a2,8
    2424:	00000593          	li	a1,0
    2428:	05c50513          	addi	a0,a0,92
    242c:	4e0000ef          	jal	290c <memset>
    2430:	000027b7          	lui	a5,0x2
    2434:	60478793          	addi	a5,a5,1540 # 2604 <__sread>
    2438:	02f42223          	sw	a5,36(s0)
    243c:	000027b7          	lui	a5,0x2
    2440:	65478793          	addi	a5,a5,1620 # 2654 <__swrite>
    2444:	02f42423          	sw	a5,40(s0)
    2448:	000027b7          	lui	a5,0x2
    244c:	6d878793          	addi	a5,a5,1752 # 26d8 <__sseek>
    2450:	02f42623          	sw	a5,44(s0)
    2454:	000027b7          	lui	a5,0x2
    2458:	73078793          	addi	a5,a5,1840 # 2730 <__sclose>
    245c:	00c12083          	lw	ra,12(sp)
    2460:	02842023          	sw	s0,32(s0)
    2464:	02f42823          	sw	a5,48(s0)
    2468:	00812403          	lw	s0,8(sp)
    246c:	01010113          	addi	sp,sp,16
    2470:	00008067          	ret

00002474 <stdio_exit_handler>:
    2474:	000035b7          	lui	a1,0x3
    2478:	8d818613          	addi	a2,gp,-1832 # 22778 <__sglue>
    247c:	01458593          	addi	a1,a1,20 # 3014 <_fflush_r>
    2480:	8e418513          	addi	a0,gp,-1820 # 22784 <_impure_data>
    2484:	0d80006f          	j	255c <_fwalk_sglue>

00002488 <cleanup_stdio>:
    2488:	00452583          	lw	a1,4(a0)
    248c:	ff010113          	addi	sp,sp,-16
    2490:	00812423          	sw	s0,8(sp)
    2494:	00112623          	sw	ra,12(sp)
    2498:	9bc18793          	addi	a5,gp,-1604 # 2285c <__sf>
    249c:	00050413          	mv	s0,a0
    24a0:	00f58463          	beq	a1,a5,24a8 <cleanup_stdio+0x20>
    24a4:	371000ef          	jal	3014 <_fflush_r>
    24a8:	00842583          	lw	a1,8(s0)
    24ac:	a2418793          	addi	a5,gp,-1500 # 228c4 <__sf+0x68>
    24b0:	00f58663          	beq	a1,a5,24bc <cleanup_stdio+0x34>
    24b4:	00040513          	mv	a0,s0
    24b8:	35d000ef          	jal	3014 <_fflush_r>
    24bc:	00c42583          	lw	a1,12(s0)
    24c0:	a8c18793          	addi	a5,gp,-1396 # 2292c <__sf+0xd0>
    24c4:	00f58c63          	beq	a1,a5,24dc <cleanup_stdio+0x54>
    24c8:	00040513          	mv	a0,s0
    24cc:	00812403          	lw	s0,8(sp)
    24d0:	00c12083          	lw	ra,12(sp)
    24d4:	01010113          	addi	sp,sp,16
    24d8:	33d0006f          	j	3014 <_fflush_r>
    24dc:	00c12083          	lw	ra,12(sp)
    24e0:	00812403          	lw	s0,8(sp)
    24e4:	01010113          	addi	sp,sp,16
    24e8:	00008067          	ret

000024ec <global_stdio_init.part.0>:
    24ec:	000027b7          	lui	a5,0x2
    24f0:	ff010113          	addi	sp,sp,-16
    24f4:	47478793          	addi	a5,a5,1140 # 2474 <stdio_exit_handler>
    24f8:	00000613          	li	a2,0
    24fc:	00400593          	li	a1,4
    2500:	9bc18513          	addi	a0,gp,-1604 # 2285c <__sf>
    2504:	00112623          	sw	ra,12(sp)
    2508:	96f1a423          	sw	a5,-1688(gp) # 22808 <__stdio_exit_handler>
    250c:	ee1ff0ef          	jal	23ec <std>
    2510:	00100613          	li	a2,1
    2514:	00900593          	li	a1,9
    2518:	a2418513          	addi	a0,gp,-1500 # 228c4 <__sf+0x68>
    251c:	ed1ff0ef          	jal	23ec <std>
    2520:	00c12083          	lw	ra,12(sp)
    2524:	00200613          	li	a2,2
    2528:	01200593          	li	a1,18
    252c:	a8c18513          	addi	a0,gp,-1396 # 2292c <__sf+0xd0>
    2530:	01010113          	addi	sp,sp,16
    2534:	eb9ff06f          	j	23ec <std>

00002538 <__sinit>:
    2538:	02052783          	lw	a5,32(a0)
    253c:	00079e63          	bnez	a5,2558 <__sinit+0x20>
    2540:	000027b7          	lui	a5,0x2
    2544:	48878793          	addi	a5,a5,1160 # 2488 <cleanup_stdio>
    2548:	02f52023          	sw	a5,32(a0)
    254c:	9681a783          	lw	a5,-1688(gp) # 22808 <__stdio_exit_handler>
    2550:	00079463          	bnez	a5,2558 <__sinit+0x20>
    2554:	f99ff06f          	j	24ec <global_stdio_init.part.0>
    2558:	00008067          	ret

0000255c <_fwalk_sglue>:
    255c:	fd010113          	addi	sp,sp,-48
    2560:	02812423          	sw	s0,40(sp)
    2564:	03212023          	sw	s2,32(sp)
    2568:	01312e23          	sw	s3,28(sp)
    256c:	01412c23          	sw	s4,24(sp)
    2570:	01512a23          	sw	s5,20(sp)
    2574:	02112623          	sw	ra,44(sp)
    2578:	02912223          	sw	s1,36(sp)
    257c:	00050a13          	mv	s4,a0
    2580:	00058a93          	mv	s5,a1
    2584:	00000413          	li	s0,0
    2588:	00100913          	li	s2,1
    258c:	fff00993          	li	s3,-1
    2590:	00862583          	lw	a1,8(a2)
    2594:	00462483          	lw	s1,4(a2)
    2598:	fff48493          	addi	s1,s1,-1
    259c:	0204da63          	bgez	s1,25d0 <_fwalk_sglue+0x74>
    25a0:	00062603          	lw	a2,0(a2)
    25a4:	fe0616e3          	bnez	a2,2590 <_fwalk_sglue+0x34>
    25a8:	02c12083          	lw	ra,44(sp)
    25ac:	00040513          	mv	a0,s0
    25b0:	02812403          	lw	s0,40(sp)
    25b4:	02412483          	lw	s1,36(sp)
    25b8:	02012903          	lw	s2,32(sp)
    25bc:	01c12983          	lw	s3,28(sp)
    25c0:	01812a03          	lw	s4,24(sp)
    25c4:	01412a83          	lw	s5,20(sp)
    25c8:	03010113          	addi	sp,sp,48
    25cc:	00008067          	ret
    25d0:	00c5d783          	lhu	a5,12(a1)
    25d4:	02f97463          	bgeu	s2,a5,25fc <_fwalk_sglue+0xa0>
    25d8:	00e59783          	lh	a5,14(a1)
    25dc:	03378063          	beq	a5,s3,25fc <_fwalk_sglue+0xa0>
    25e0:	000a0513          	mv	a0,s4
    25e4:	00c12623          	sw	a2,12(sp)
    25e8:	00b12423          	sw	a1,8(sp)
    25ec:	000a80e7          	jalr	s5
    25f0:	00c12603          	lw	a2,12(sp)
    25f4:	00812583          	lw	a1,8(sp)
    25f8:	00a46433          	or	s0,s0,a0
    25fc:	06858593          	addi	a1,a1,104
    2600:	f99ff06f          	j	2598 <_fwalk_sglue+0x3c>

00002604 <__sread>:
    2604:	ff010113          	addi	sp,sp,-16
    2608:	00812423          	sw	s0,8(sp)
    260c:	00058413          	mv	s0,a1
    2610:	00e59583          	lh	a1,14(a1)
    2614:	00112623          	sw	ra,12(sp)
    2618:	1b8000ef          	jal	27d0 <_read_r>
    261c:	02054063          	bltz	a0,263c <__sread+0x38>
    2620:	05442783          	lw	a5,84(s0)
    2624:	00a787b3          	add	a5,a5,a0
    2628:	04f42a23          	sw	a5,84(s0)
    262c:	00c12083          	lw	ra,12(sp)
    2630:	00812403          	lw	s0,8(sp)
    2634:	01010113          	addi	sp,sp,16
    2638:	00008067          	ret
    263c:	00c45783          	lhu	a5,12(s0)
    2640:	fffff737          	lui	a4,0xfffff
    2644:	fff70713          	addi	a4,a4,-1 # ffffefff <_sp+0xfffd459f>
    2648:	00e7f7b3          	and	a5,a5,a4
    264c:	00f41623          	sh	a5,12(s0)
    2650:	fddff06f          	j	262c <__sread+0x28>

00002654 <__swrite>:
    2654:	00c5d783          	lhu	a5,12(a1)
    2658:	fe010113          	addi	sp,sp,-32
    265c:	00812c23          	sw	s0,24(sp)
    2660:	00912a23          	sw	s1,20(sp)
    2664:	01212823          	sw	s2,16(sp)
    2668:	01312623          	sw	s3,12(sp)
    266c:	00112e23          	sw	ra,28(sp)
    2670:	1007f793          	andi	a5,a5,256
    2674:	00050493          	mv	s1,a0
    2678:	00058413          	mv	s0,a1
    267c:	00060913          	mv	s2,a2
    2680:	00068993          	mv	s3,a3
    2684:	00078a63          	beqz	a5,2698 <__swrite+0x44>
    2688:	00e59583          	lh	a1,14(a1)
    268c:	00200693          	li	a3,2
    2690:	00000613          	li	a2,0
    2694:	0ec000ef          	jal	2780 <_lseek_r>
    2698:	00c45783          	lhu	a5,12(s0)
    269c:	fffff737          	lui	a4,0xfffff
    26a0:	fff70713          	addi	a4,a4,-1 # ffffefff <_sp+0xfffd459f>
    26a4:	00e7f7b3          	and	a5,a5,a4
    26a8:	00e41583          	lh	a1,14(s0)
    26ac:	00f41623          	sh	a5,12(s0)
    26b0:	01812403          	lw	s0,24(sp)
    26b4:	01c12083          	lw	ra,28(sp)
    26b8:	00098693          	mv	a3,s3
    26bc:	00090613          	mv	a2,s2
    26c0:	00c12983          	lw	s3,12(sp)
    26c4:	01012903          	lw	s2,16(sp)
    26c8:	00048513          	mv	a0,s1
    26cc:	01412483          	lw	s1,20(sp)
    26d0:	02010113          	addi	sp,sp,32
    26d4:	9d9ff06f          	j	20ac <_write_r>

000026d8 <__sseek>:
    26d8:	ff010113          	addi	sp,sp,-16
    26dc:	00812423          	sw	s0,8(sp)
    26e0:	00058413          	mv	s0,a1
    26e4:	00e59583          	lh	a1,14(a1)
    26e8:	00112623          	sw	ra,12(sp)
    26ec:	094000ef          	jal	2780 <_lseek_r>
    26f0:	fff00713          	li	a4,-1
    26f4:	00c41783          	lh	a5,12(s0)
    26f8:	02e51263          	bne	a0,a4,271c <__sseek+0x44>
    26fc:	fffff737          	lui	a4,0xfffff
    2700:	00a70733          	add	a4,a4,a0
    2704:	00e7f7b3          	and	a5,a5,a4
    2708:	00f41623          	sh	a5,12(s0)
    270c:	00c12083          	lw	ra,12(sp)
    2710:	00812403          	lw	s0,8(sp)
    2714:	01010113          	addi	sp,sp,16
    2718:	00008067          	ret
    271c:	00001737          	lui	a4,0x1
    2720:	00e7e7b3          	or	a5,a5,a4
    2724:	00f41623          	sh	a5,12(s0)
    2728:	04a42a23          	sw	a0,84(s0)
    272c:	fe1ff06f          	j	270c <__sseek+0x34>

00002730 <__sclose>:
    2730:	00e59583          	lh	a1,14(a1)
    2734:	0040006f          	j	2738 <_close_r>

00002738 <_close_r>:
    2738:	ff010113          	addi	sp,sp,-16
    273c:	00812423          	sw	s0,8(sp)
    2740:	00912223          	sw	s1,4(sp)
    2744:	00050493          	mv	s1,a0
    2748:	00058513          	mv	a0,a1
    274c:	00112623          	sw	ra,12(sp)
    2750:	9601a623          	sw	zero,-1684(gp) # 2280c <errno>
    2754:	911ff0ef          	jal	2064 <_close>
    2758:	fff00793          	li	a5,-1
    275c:	00f51863          	bne	a0,a5,276c <_close_r+0x34>
    2760:	96c1a783          	lw	a5,-1684(gp) # 2280c <errno>
    2764:	00078463          	beqz	a5,276c <_close_r+0x34>
    2768:	00f4a023          	sw	a5,0(s1)
    276c:	00c12083          	lw	ra,12(sp)
    2770:	00812403          	lw	s0,8(sp)
    2774:	00412483          	lw	s1,4(sp)
    2778:	01010113          	addi	sp,sp,16
    277c:	00008067          	ret

00002780 <_lseek_r>:
    2780:	ff010113          	addi	sp,sp,-16
    2784:	00812423          	sw	s0,8(sp)
    2788:	00912223          	sw	s1,4(sp)
    278c:	00050493          	mv	s1,a0
    2790:	00058513          	mv	a0,a1
    2794:	00060593          	mv	a1,a2
    2798:	00068613          	mv	a2,a3
    279c:	00112623          	sw	ra,12(sp)
    27a0:	9601a623          	sw	zero,-1684(gp) # 2280c <errno>
    27a4:	8f9ff0ef          	jal	209c <_lseek>
    27a8:	fff00793          	li	a5,-1
    27ac:	00f51863          	bne	a0,a5,27bc <_lseek_r+0x3c>
    27b0:	96c1a783          	lw	a5,-1684(gp) # 2280c <errno>
    27b4:	00078463          	beqz	a5,27bc <_lseek_r+0x3c>
    27b8:	00f4a023          	sw	a5,0(s1)
    27bc:	00c12083          	lw	ra,12(sp)
    27c0:	00812403          	lw	s0,8(sp)
    27c4:	00412483          	lw	s1,4(sp)
    27c8:	01010113          	addi	sp,sp,16
    27cc:	00008067          	ret

000027d0 <_read_r>:
    27d0:	ff010113          	addi	sp,sp,-16
    27d4:	00812423          	sw	s0,8(sp)
    27d8:	00912223          	sw	s1,4(sp)
    27dc:	00050493          	mv	s1,a0
    27e0:	00058513          	mv	a0,a1
    27e4:	00060593          	mv	a1,a2
    27e8:	00068613          	mv	a2,a3
    27ec:	00112623          	sw	ra,12(sp)
    27f0:	9601a623          	sw	zero,-1684(gp) # 2280c <errno>
    27f4:	8b1ff0ef          	jal	20a4 <_read>
    27f8:	fff00793          	li	a5,-1
    27fc:	00f51863          	bne	a0,a5,280c <_read_r+0x3c>
    2800:	96c1a783          	lw	a5,-1684(gp) # 2280c <errno>
    2804:	00078463          	beqz	a5,280c <_read_r+0x3c>
    2808:	00f4a023          	sw	a5,0(s1)
    280c:	00c12083          	lw	ra,12(sp)
    2810:	00812403          	lw	s0,8(sp)
    2814:	00412483          	lw	s1,4(sp)
    2818:	01010113          	addi	sp,sp,16
    281c:	00008067          	ret

00002820 <__libc_init_array>:
    2820:	ff010113          	addi	sp,sp,-16
    2824:	00812423          	sw	s0,8(sp)
    2828:	00912223          	sw	s1,4(sp)
    282c:	00022437          	lui	s0,0x22
    2830:	000224b7          	lui	s1,0x22
    2834:	6a040413          	addi	s0,s0,1696 # 226a0 <peripherals>
    2838:	6a048493          	addi	s1,s1,1696 # 226a0 <peripherals>
    283c:	408484b3          	sub	s1,s1,s0
    2840:	01212023          	sw	s2,0(sp)
    2844:	00112623          	sw	ra,12(sp)
    2848:	4024d493          	srai	s1,s1,0x2
    284c:	00000913          	li	s2,0
    2850:	02991e63          	bne	s2,s1,288c <__libc_init_array+0x6c>
    2854:	00022437          	lui	s0,0x22
    2858:	000224b7          	lui	s1,0x22
    285c:	6a040413          	addi	s0,s0,1696 # 226a0 <peripherals>
    2860:	6a048493          	addi	s1,s1,1696 # 226a0 <peripherals>
    2864:	408484b3          	sub	s1,s1,s0
    2868:	4024d493          	srai	s1,s1,0x2
    286c:	00000913          	li	s2,0
    2870:	02991863          	bne	s2,s1,28a0 <__libc_init_array+0x80>
    2874:	00c12083          	lw	ra,12(sp)
    2878:	00812403          	lw	s0,8(sp)
    287c:	00412483          	lw	s1,4(sp)
    2880:	00012903          	lw	s2,0(sp)
    2884:	01010113          	addi	sp,sp,16
    2888:	00008067          	ret
    288c:	00042783          	lw	a5,0(s0)
    2890:	00190913          	addi	s2,s2,1
    2894:	00440413          	addi	s0,s0,4
    2898:	000780e7          	jalr	a5
    289c:	fb5ff06f          	j	2850 <__libc_init_array+0x30>
    28a0:	00042783          	lw	a5,0(s0)
    28a4:	00190913          	addi	s2,s2,1
    28a8:	00440413          	addi	s0,s0,4
    28ac:	000780e7          	jalr	a5
    28b0:	fc1ff06f          	j	2870 <__libc_init_array+0x50>

000028b4 <__libc_fini_array>:
    28b4:	ff010113          	addi	sp,sp,-16
    28b8:	00812423          	sw	s0,8(sp)
    28bc:	00912223          	sw	s1,4(sp)
    28c0:	00022437          	lui	s0,0x22
    28c4:	000224b7          	lui	s1,0x22
    28c8:	6a048493          	addi	s1,s1,1696 # 226a0 <peripherals>
    28cc:	6a040413          	addi	s0,s0,1696 # 226a0 <peripherals>
    28d0:	40940433          	sub	s0,s0,s1
    28d4:	00112623          	sw	ra,12(sp)
    28d8:	40245413          	srai	s0,s0,0x2
    28dc:	00041c63          	bnez	s0,28f4 <__libc_fini_array+0x40>
    28e0:	00c12083          	lw	ra,12(sp)
    28e4:	00812403          	lw	s0,8(sp)
    28e8:	00412483          	lw	s1,4(sp)
    28ec:	01010113          	addi	sp,sp,16
    28f0:	00008067          	ret
    28f4:	fff40413          	addi	s0,s0,-1
    28f8:	00241793          	slli	a5,s0,0x2
    28fc:	00f487b3          	add	a5,s1,a5
    2900:	0007a783          	lw	a5,0(a5)
    2904:	000780e7          	jalr	a5
    2908:	fd5ff06f          	j	28dc <__libc_fini_array+0x28>

0000290c <memset>:
    290c:	00050693          	mv	a3,a0
    2910:	00060a63          	beqz	a2,2924 <memset+0x18>
    2914:	00b68023          	sb	a1,0(a3)
    2918:	fff60613          	addi	a2,a2,-1
    291c:	00168693          	addi	a3,a3,1
    2920:	fe061ae3          	bnez	a2,2914 <memset+0x8>
    2924:	00008067          	ret

00002928 <__register_exitproc>:
    2928:	9701a783          	lw	a5,-1680(gp) # 22810 <__atexit>
    292c:	00079e63          	bnez	a5,2948 <__register_exitproc+0x20>
    2930:	af418793          	addi	a5,gp,-1292 # 22994 <__atexit0>
    2934:	96f1a823          	sw	a5,-1680(gp) # 22810 <__atexit>
    2938:	00000813          	li	a6,0
    293c:	00080663          	beqz	a6,2948 <__register_exitproc+0x20>
    2940:	00002703          	lw	a4,0(zero) # 0 <__vector_start>
    2944:	08e7a423          	sw	a4,136(a5)
    2948:	0047a703          	lw	a4,4(a5)
    294c:	01f00813          	li	a6,31
    2950:	00e85663          	bge	a6,a4,295c <__register_exitproc+0x34>
    2954:	fff00513          	li	a0,-1
    2958:	00008067          	ret
    295c:	04050263          	beqz	a0,29a0 <__register_exitproc+0x78>
    2960:	0887a803          	lw	a6,136(a5)
    2964:	fe0808e3          	beqz	a6,2954 <__register_exitproc+0x2c>
    2968:	00271893          	slli	a7,a4,0x2
    296c:	011808b3          	add	a7,a6,a7
    2970:	00c8a023          	sw	a2,0(a7)
    2974:	10082303          	lw	t1,256(a6)
    2978:	00100613          	li	a2,1
    297c:	00e61633          	sll	a2,a2,a4
    2980:	00c36333          	or	t1,t1,a2
    2984:	10682023          	sw	t1,256(a6)
    2988:	08d8a023          	sw	a3,128(a7)
    298c:	00200693          	li	a3,2
    2990:	00d51863          	bne	a0,a3,29a0 <__register_exitproc+0x78>
    2994:	10482683          	lw	a3,260(a6)
    2998:	00c6e6b3          	or	a3,a3,a2
    299c:	10d82223          	sw	a3,260(a6)
    29a0:	00170693          	addi	a3,a4,1 # 1001 <T7_end+0xd>
    29a4:	00271713          	slli	a4,a4,0x2
    29a8:	00d7a223          	sw	a3,4(a5)
    29ac:	00e787b3          	add	a5,a5,a4
    29b0:	00b7a423          	sw	a1,8(a5)
    29b4:	00000513          	li	a0,0
    29b8:	00008067          	ret

000029bc <__call_exitprocs>:
    29bc:	fd010113          	addi	sp,sp,-48
    29c0:	01512a23          	sw	s5,20(sp)
    29c4:	01612823          	sw	s6,16(sp)
    29c8:	01712623          	sw	s7,12(sp)
    29cc:	01912223          	sw	s9,4(sp)
    29d0:	02112623          	sw	ra,44(sp)
    29d4:	02812423          	sw	s0,40(sp)
    29d8:	02912223          	sw	s1,36(sp)
    29dc:	03212023          	sw	s2,32(sp)
    29e0:	01312e23          	sw	s3,28(sp)
    29e4:	01412c23          	sw	s4,24(sp)
    29e8:	01812423          	sw	s8,8(sp)
    29ec:	00050c93          	mv	s9,a0
    29f0:	00058b13          	mv	s6,a1
    29f4:	00100b93          	li	s7,1
    29f8:	9701a483          	lw	s1,-1680(gp) # 22810 <__atexit>
    29fc:	02048063          	beqz	s1,2a1c <__call_exitprocs+0x60>
    2a00:	0044a403          	lw	s0,4(s1)
    2a04:	0884a983          	lw	s3,136(s1)
    2a08:	fff40913          	addi	s2,s0,-1
    2a0c:	00241413          	slli	s0,s0,0x2
    2a10:	00848a33          	add	s4,s1,s0
    2a14:	00898433          	add	s0,s3,s0
    2a18:	02095c63          	bgez	s2,2a50 <__call_exitprocs+0x94>
    2a1c:	02c12083          	lw	ra,44(sp)
    2a20:	02812403          	lw	s0,40(sp)
    2a24:	02412483          	lw	s1,36(sp)
    2a28:	02012903          	lw	s2,32(sp)
    2a2c:	01c12983          	lw	s3,28(sp)
    2a30:	01812a03          	lw	s4,24(sp)
    2a34:	01412a83          	lw	s5,20(sp)
    2a38:	01012b03          	lw	s6,16(sp)
    2a3c:	00c12b83          	lw	s7,12(sp)
    2a40:	00812c03          	lw	s8,8(sp)
    2a44:	00412c83          	lw	s9,4(sp)
    2a48:	03010113          	addi	sp,sp,48
    2a4c:	00008067          	ret
    2a50:	000b0863          	beqz	s6,2a60 <__call_exitprocs+0xa4>
    2a54:	04098663          	beqz	s3,2aa0 <__call_exitprocs+0xe4>
    2a58:	07c42783          	lw	a5,124(s0)
    2a5c:	05679263          	bne	a5,s6,2aa0 <__call_exitprocs+0xe4>
    2a60:	0044a703          	lw	a4,4(s1)
    2a64:	004a2783          	lw	a5,4(s4)
    2a68:	fff70713          	addi	a4,a4,-1
    2a6c:	05271263          	bne	a4,s2,2ab0 <__call_exitprocs+0xf4>
    2a70:	0124a223          	sw	s2,4(s1)
    2a74:	02078663          	beqz	a5,2aa0 <__call_exitprocs+0xe4>
    2a78:	1009a683          	lw	a3,256(s3)
    2a7c:	012b9733          	sll	a4,s7,s2
    2a80:	0044ac03          	lw	s8,4(s1)
    2a84:	00d776b3          	and	a3,a4,a3
    2a88:	02069863          	bnez	a3,2ab8 <__call_exitprocs+0xfc>
    2a8c:	000780e7          	jalr	a5
    2a90:	0044a783          	lw	a5,4(s1)
    2a94:	f78792e3          	bne	a5,s8,29f8 <__call_exitprocs+0x3c>
    2a98:	9701a783          	lw	a5,-1680(gp) # 22810 <__atexit>
    2a9c:	f4f49ee3          	bne	s1,a5,29f8 <__call_exitprocs+0x3c>
    2aa0:	fff90913          	addi	s2,s2,-1
    2aa4:	ffca0a13          	addi	s4,s4,-4
    2aa8:	ffc40413          	addi	s0,s0,-4
    2aac:	f6dff06f          	j	2a18 <__call_exitprocs+0x5c>
    2ab0:	000a2223          	sw	zero,4(s4)
    2ab4:	fc1ff06f          	j	2a74 <__call_exitprocs+0xb8>
    2ab8:	1049a683          	lw	a3,260(s3)
    2abc:	ffc42583          	lw	a1,-4(s0)
    2ac0:	00d77733          	and	a4,a4,a3
    2ac4:	00071863          	bnez	a4,2ad4 <__call_exitprocs+0x118>
    2ac8:	000c8513          	mv	a0,s9
    2acc:	000780e7          	jalr	a5
    2ad0:	fc1ff06f          	j	2a90 <__call_exitprocs+0xd4>
    2ad4:	00058513          	mv	a0,a1
    2ad8:	000780e7          	jalr	a5
    2adc:	fb5ff06f          	j	2a90 <__call_exitprocs+0xd4>

00002ae0 <_free_r>:
    2ae0:	0e058a63          	beqz	a1,2bd4 <_free_r+0xf4>
    2ae4:	ffc5a783          	lw	a5,-4(a1)
    2ae8:	fe010113          	addi	sp,sp,-32
    2aec:	00812c23          	sw	s0,24(sp)
    2af0:	00112e23          	sw	ra,28(sp)
    2af4:	ffc58413          	addi	s0,a1,-4
    2af8:	0007d463          	bgez	a5,2b00 <_free_r+0x20>
    2afc:	00f40433          	add	s0,s0,a5
    2b00:	00a12623          	sw	a0,12(sp)
    2b04:	320000ef          	jal	2e24 <__malloc_lock>
    2b08:	9781a783          	lw	a5,-1672(gp) # 22818 <__malloc_free_list>
    2b0c:	00c12503          	lw	a0,12(sp)
    2b10:	00079e63          	bnez	a5,2b2c <_free_r+0x4c>
    2b14:	00042223          	sw	zero,4(s0)
    2b18:	9681ac23          	sw	s0,-1672(gp) # 22818 <__malloc_free_list>
    2b1c:	01812403          	lw	s0,24(sp)
    2b20:	01c12083          	lw	ra,28(sp)
    2b24:	02010113          	addi	sp,sp,32
    2b28:	3000006f          	j	2e28 <__malloc_unlock>
    2b2c:	02f47463          	bgeu	s0,a5,2b54 <_free_r+0x74>
    2b30:	00042603          	lw	a2,0(s0)
    2b34:	00c406b3          	add	a3,s0,a2
    2b38:	00d79a63          	bne	a5,a3,2b4c <_free_r+0x6c>
    2b3c:	0007a683          	lw	a3,0(a5)
    2b40:	0047a783          	lw	a5,4(a5)
    2b44:	00c686b3          	add	a3,a3,a2
    2b48:	00d42023          	sw	a3,0(s0)
    2b4c:	00f42223          	sw	a5,4(s0)
    2b50:	fc9ff06f          	j	2b18 <_free_r+0x38>
    2b54:	00078713          	mv	a4,a5
    2b58:	0047a783          	lw	a5,4(a5)
    2b5c:	00078463          	beqz	a5,2b64 <_free_r+0x84>
    2b60:	fef47ae3          	bgeu	s0,a5,2b54 <_free_r+0x74>
    2b64:	00072683          	lw	a3,0(a4)
    2b68:	00d70633          	add	a2,a4,a3
    2b6c:	02861863          	bne	a2,s0,2b9c <_free_r+0xbc>
    2b70:	00042603          	lw	a2,0(s0)
    2b74:	00c686b3          	add	a3,a3,a2
    2b78:	00d72023          	sw	a3,0(a4)
    2b7c:	00d70633          	add	a2,a4,a3
    2b80:	f8c79ee3          	bne	a5,a2,2b1c <_free_r+0x3c>
    2b84:	0007a603          	lw	a2,0(a5)
    2b88:	0047a783          	lw	a5,4(a5)
    2b8c:	00d606b3          	add	a3,a2,a3
    2b90:	00d72023          	sw	a3,0(a4)
    2b94:	00f72223          	sw	a5,4(a4)
    2b98:	f85ff06f          	j	2b1c <_free_r+0x3c>
    2b9c:	00c47863          	bgeu	s0,a2,2bac <_free_r+0xcc>
    2ba0:	00c00793          	li	a5,12
    2ba4:	00f52023          	sw	a5,0(a0)
    2ba8:	f75ff06f          	j	2b1c <_free_r+0x3c>
    2bac:	00042603          	lw	a2,0(s0)
    2bb0:	00c406b3          	add	a3,s0,a2
    2bb4:	00d79a63          	bne	a5,a3,2bc8 <_free_r+0xe8>
    2bb8:	0007a683          	lw	a3,0(a5)
    2bbc:	0047a783          	lw	a5,4(a5)
    2bc0:	00c686b3          	add	a3,a3,a2
    2bc4:	00d42023          	sw	a3,0(s0)
    2bc8:	00f42223          	sw	a5,4(s0)
    2bcc:	00872223          	sw	s0,4(a4)
    2bd0:	f4dff06f          	j	2b1c <_free_r+0x3c>
    2bd4:	00008067          	ret

00002bd8 <sbrk_aligned>:
    2bd8:	ff010113          	addi	sp,sp,-16
    2bdc:	00812423          	sw	s0,8(sp)
    2be0:	9741a783          	lw	a5,-1676(gp) # 22814 <__malloc_sbrk_start>
    2be4:	00912223          	sw	s1,4(sp)
    2be8:	01212023          	sw	s2,0(sp)
    2bec:	00112623          	sw	ra,12(sp)
    2bf0:	00050913          	mv	s2,a0
    2bf4:	00058493          	mv	s1,a1
    2bf8:	00079863          	bnez	a5,2c08 <sbrk_aligned+0x30>
    2bfc:	00000593          	li	a1,0
    2c00:	47c000ef          	jal	307c <_sbrk_r>
    2c04:	96a1aa23          	sw	a0,-1676(gp) # 22814 <__malloc_sbrk_start>
    2c08:	00048593          	mv	a1,s1
    2c0c:	00090513          	mv	a0,s2
    2c10:	46c000ef          	jal	307c <_sbrk_r>
    2c14:	fff00493          	li	s1,-1
    2c18:	00050413          	mv	s0,a0
    2c1c:	02950263          	beq	a0,s1,2c40 <sbrk_aligned+0x68>
    2c20:	00350413          	addi	s0,a0,3
    2c24:	ffc47413          	andi	s0,s0,-4
    2c28:	00850c63          	beq	a0,s0,2c40 <sbrk_aligned+0x68>
    2c2c:	40a405b3          	sub	a1,s0,a0
    2c30:	00090513          	mv	a0,s2
    2c34:	448000ef          	jal	307c <_sbrk_r>
    2c38:	00951463          	bne	a0,s1,2c40 <sbrk_aligned+0x68>
    2c3c:	00050413          	mv	s0,a0
    2c40:	00c12083          	lw	ra,12(sp)
    2c44:	00040513          	mv	a0,s0
    2c48:	00812403          	lw	s0,8(sp)
    2c4c:	00412483          	lw	s1,4(sp)
    2c50:	00012903          	lw	s2,0(sp)
    2c54:	01010113          	addi	sp,sp,16
    2c58:	00008067          	ret

00002c5c <_malloc_r>:
    2c5c:	fe010113          	addi	sp,sp,-32
    2c60:	00912a23          	sw	s1,20(sp)
    2c64:	00358493          	addi	s1,a1,3
    2c68:	ffc4f493          	andi	s1,s1,-4
    2c6c:	00112e23          	sw	ra,28(sp)
    2c70:	00812c23          	sw	s0,24(sp)
    2c74:	01212823          	sw	s2,16(sp)
    2c78:	01312623          	sw	s3,12(sp)
    2c7c:	01412423          	sw	s4,8(sp)
    2c80:	01512223          	sw	s5,4(sp)
    2c84:	00848493          	addi	s1,s1,8
    2c88:	00c00793          	li	a5,12
    2c8c:	00f4f463          	bgeu	s1,a5,2c94 <_malloc_r+0x38>
    2c90:	00078493          	mv	s1,a5
    2c94:	0004c463          	bltz	s1,2c9c <_malloc_r+0x40>
    2c98:	02b4fc63          	bgeu	s1,a1,2cd0 <_malloc_r+0x74>
    2c9c:	00c00793          	li	a5,12
    2ca0:	00f52023          	sw	a5,0(a0)
    2ca4:	00000913          	li	s2,0
    2ca8:	01c12083          	lw	ra,28(sp)
    2cac:	01812403          	lw	s0,24(sp)
    2cb0:	01412483          	lw	s1,20(sp)
    2cb4:	00c12983          	lw	s3,12(sp)
    2cb8:	00812a03          	lw	s4,8(sp)
    2cbc:	00412a83          	lw	s5,4(sp)
    2cc0:	00090513          	mv	a0,s2
    2cc4:	01012903          	lw	s2,16(sp)
    2cc8:	02010113          	addi	sp,sp,32
    2ccc:	00008067          	ret
    2cd0:	00050993          	mv	s3,a0
    2cd4:	150000ef          	jal	2e24 <__malloc_lock>
    2cd8:	9781a783          	lw	a5,-1672(gp) # 22818 <__malloc_free_list>
    2cdc:	00078413          	mv	s0,a5
    2ce0:	08041063          	bnez	s0,2d60 <_malloc_r+0x104>
    2ce4:	00048593          	mv	a1,s1
    2ce8:	00098513          	mv	a0,s3
    2cec:	eedff0ef          	jal	2bd8 <sbrk_aligned>
    2cf0:	fff00793          	li	a5,-1
    2cf4:	00050413          	mv	s0,a0
    2cf8:	12f51263          	bne	a0,a5,2e1c <_malloc_r+0x1c0>
    2cfc:	9781a403          	lw	s0,-1672(gp) # 22818 <__malloc_free_list>
    2d00:	00040913          	mv	s2,s0
    2d04:	0e091263          	bnez	s2,2de8 <_malloc_r+0x18c>
    2d08:	10040063          	beqz	s0,2e08 <_malloc_r+0x1ac>
    2d0c:	00042a83          	lw	s5,0(s0)
    2d10:	00000593          	li	a1,0
    2d14:	00098513          	mv	a0,s3
    2d18:	01540ab3          	add	s5,s0,s5
    2d1c:	360000ef          	jal	307c <_sbrk_r>
    2d20:	0eaa9463          	bne	s5,a0,2e08 <_malloc_r+0x1ac>
    2d24:	00042783          	lw	a5,0(s0)
    2d28:	00098513          	mv	a0,s3
    2d2c:	40f484b3          	sub	s1,s1,a5
    2d30:	00048593          	mv	a1,s1
    2d34:	ea5ff0ef          	jal	2bd8 <sbrk_aligned>
    2d38:	fff00793          	li	a5,-1
    2d3c:	0cf50663          	beq	a0,a5,2e08 <_malloc_r+0x1ac>
    2d40:	00042783          	lw	a5,0(s0)
    2d44:	009787b3          	add	a5,a5,s1
    2d48:	00f42023          	sw	a5,0(s0)
    2d4c:	9781a783          	lw	a5,-1672(gp) # 22818 <__malloc_free_list>
    2d50:	0047a703          	lw	a4,4(a5)
    2d54:	0a071063          	bnez	a4,2df4 <_malloc_r+0x198>
    2d58:	9601ac23          	sw	zero,-1672(gp) # 22818 <__malloc_free_list>
    2d5c:	0340006f          	j	2d90 <_malloc_r+0x134>
    2d60:	00042683          	lw	a3,0(s0)
    2d64:	409686b3          	sub	a3,a3,s1
    2d68:	0606ca63          	bltz	a3,2ddc <_malloc_r+0x180>
    2d6c:	00b00713          	li	a4,11
    2d70:	04d77a63          	bgeu	a4,a3,2dc4 <_malloc_r+0x168>
    2d74:	00942023          	sw	s1,0(s0)
    2d78:	00940733          	add	a4,s0,s1
    2d7c:	04879063          	bne	a5,s0,2dbc <_malloc_r+0x160>
    2d80:	96e1ac23          	sw	a4,-1672(gp) # 22818 <__malloc_free_list>
    2d84:	00442783          	lw	a5,4(s0)
    2d88:	00d72023          	sw	a3,0(a4)
    2d8c:	00f72223          	sw	a5,4(a4)
    2d90:	00098513          	mv	a0,s3
    2d94:	094000ef          	jal	2e28 <__malloc_unlock>
    2d98:	00b40913          	addi	s2,s0,11
    2d9c:	00440793          	addi	a5,s0,4
    2da0:	ff897913          	andi	s2,s2,-8
    2da4:	40f90733          	sub	a4,s2,a5
    2da8:	f0f900e3          	beq	s2,a5,2ca8 <_malloc_r+0x4c>
    2dac:	00e40433          	add	s0,s0,a4
    2db0:	412787b3          	sub	a5,a5,s2
    2db4:	00f42023          	sw	a5,0(s0)
    2db8:	ef1ff06f          	j	2ca8 <_malloc_r+0x4c>
    2dbc:	00e7a223          	sw	a4,4(a5)
    2dc0:	fc5ff06f          	j	2d84 <_malloc_r+0x128>
    2dc4:	00442703          	lw	a4,4(s0)
    2dc8:	00879663          	bne	a5,s0,2dd4 <_malloc_r+0x178>
    2dcc:	96e1ac23          	sw	a4,-1672(gp) # 22818 <__malloc_free_list>
    2dd0:	fc1ff06f          	j	2d90 <_malloc_r+0x134>
    2dd4:	00e7a223          	sw	a4,4(a5)
    2dd8:	fb9ff06f          	j	2d90 <_malloc_r+0x134>
    2ddc:	00040793          	mv	a5,s0
    2de0:	00442403          	lw	s0,4(s0)
    2de4:	efdff06f          	j	2ce0 <_malloc_r+0x84>
    2de8:	00090413          	mv	s0,s2
    2dec:	00492903          	lw	s2,4(s2)
    2df0:	f15ff06f          	j	2d04 <_malloc_r+0xa8>
    2df4:	00078713          	mv	a4,a5
    2df8:	0047a783          	lw	a5,4(a5)
    2dfc:	fe879ce3          	bne	a5,s0,2df4 <_malloc_r+0x198>
    2e00:	00072223          	sw	zero,4(a4)
    2e04:	f8dff06f          	j	2d90 <_malloc_r+0x134>
    2e08:	00c00793          	li	a5,12
    2e0c:	00f9a023          	sw	a5,0(s3)
    2e10:	00098513          	mv	a0,s3
    2e14:	014000ef          	jal	2e28 <__malloc_unlock>
    2e18:	e91ff06f          	j	2ca8 <_malloc_r+0x4c>
    2e1c:	00952023          	sw	s1,0(a0)
    2e20:	f71ff06f          	j	2d90 <_malloc_r+0x134>

00002e24 <__malloc_lock>:
    2e24:	00008067          	ret

00002e28 <__malloc_unlock>:
    2e28:	00008067          	ret

00002e2c <__sflush_r>:
    2e2c:	00c59783          	lh	a5,12(a1)
    2e30:	fe010113          	addi	sp,sp,-32
    2e34:	00812c23          	sw	s0,24(sp)
    2e38:	00912a23          	sw	s1,20(sp)
    2e3c:	00112e23          	sw	ra,28(sp)
    2e40:	01212823          	sw	s2,16(sp)
    2e44:	0087f713          	andi	a4,a5,8
    2e48:	00050493          	mv	s1,a0
    2e4c:	00058413          	mv	s0,a1
    2e50:	14071c63          	bnez	a4,2fa8 <__sflush_r+0x17c>
    2e54:	0045a703          	lw	a4,4(a1)
    2e58:	00e04663          	bgtz	a4,2e64 <__sflush_r+0x38>
    2e5c:	0405a703          	lw	a4,64(a1)
    2e60:	00e05663          	blez	a4,2e6c <__sflush_r+0x40>
    2e64:	02c42703          	lw	a4,44(s0)
    2e68:	02071063          	bnez	a4,2e88 <__sflush_r+0x5c>
    2e6c:	00000513          	li	a0,0
    2e70:	01c12083          	lw	ra,28(sp)
    2e74:	01812403          	lw	s0,24(sp)
    2e78:	01412483          	lw	s1,20(sp)
    2e7c:	01012903          	lw	s2,16(sp)
    2e80:	02010113          	addi	sp,sp,32
    2e84:	00008067          	ret
    2e88:	0004a903          	lw	s2,0(s1)
    2e8c:	01379693          	slli	a3,a5,0x13
    2e90:	0004a023          	sw	zero,0(s1)
    2e94:	0a06de63          	bgez	a3,2f50 <__sflush_r+0x124>
    2e98:	05442503          	lw	a0,84(s0)
    2e9c:	00c45783          	lhu	a5,12(s0)
    2ea0:	0047f793          	andi	a5,a5,4
    2ea4:	00078e63          	beqz	a5,2ec0 <__sflush_r+0x94>
    2ea8:	00442783          	lw	a5,4(s0)
    2eac:	40f50533          	sub	a0,a0,a5
    2eb0:	03442783          	lw	a5,52(s0)
    2eb4:	00078663          	beqz	a5,2ec0 <__sflush_r+0x94>
    2eb8:	04042783          	lw	a5,64(s0)
    2ebc:	40f50533          	sub	a0,a0,a5
    2ec0:	02c42783          	lw	a5,44(s0)
    2ec4:	02042583          	lw	a1,32(s0)
    2ec8:	00050613          	mv	a2,a0
    2ecc:	00000693          	li	a3,0
    2ed0:	00048513          	mv	a0,s1
    2ed4:	000780e7          	jalr	a5
    2ed8:	fff00793          	li	a5,-1
    2edc:	00c41703          	lh	a4,12(s0)
    2ee0:	02f51263          	bne	a0,a5,2f04 <__sflush_r+0xd8>
    2ee4:	0004a683          	lw	a3,0(s1)
    2ee8:	01d00793          	li	a5,29
    2eec:	0ad7e863          	bltu	a5,a3,2f9c <__sflush_r+0x170>
    2ef0:	204007b7          	lui	a5,0x20400
    2ef4:	00178793          	addi	a5,a5,1 # 20400001 <_sp+0x203d55a1>
    2ef8:	00d7d7b3          	srl	a5,a5,a3
    2efc:	0017f793          	andi	a5,a5,1
    2f00:	08078e63          	beqz	a5,2f9c <__sflush_r+0x170>
    2f04:	01042783          	lw	a5,16(s0)
    2f08:	00042223          	sw	zero,4(s0)
    2f0c:	00f42023          	sw	a5,0(s0)
    2f10:	01371793          	slli	a5,a4,0x13
    2f14:	0007dc63          	bgez	a5,2f2c <__sflush_r+0x100>
    2f18:	fff00793          	li	a5,-1
    2f1c:	00f51663          	bne	a0,a5,2f28 <__sflush_r+0xfc>
    2f20:	0004a783          	lw	a5,0(s1)
    2f24:	00079463          	bnez	a5,2f2c <__sflush_r+0x100>
    2f28:	04a42a23          	sw	a0,84(s0)
    2f2c:	03442583          	lw	a1,52(s0)
    2f30:	0124a023          	sw	s2,0(s1)
    2f34:	f2058ce3          	beqz	a1,2e6c <__sflush_r+0x40>
    2f38:	04440793          	addi	a5,s0,68
    2f3c:	00f58663          	beq	a1,a5,2f48 <__sflush_r+0x11c>
    2f40:	00048513          	mv	a0,s1
    2f44:	b9dff0ef          	jal	2ae0 <_free_r>
    2f48:	02042a23          	sw	zero,52(s0)
    2f4c:	f21ff06f          	j	2e6c <__sflush_r+0x40>
    2f50:	02042583          	lw	a1,32(s0)
    2f54:	00100693          	li	a3,1
    2f58:	00000613          	li	a2,0
    2f5c:	00048513          	mv	a0,s1
    2f60:	000700e7          	jalr	a4
    2f64:	fff00793          	li	a5,-1
    2f68:	f2f51ae3          	bne	a0,a5,2e9c <__sflush_r+0x70>
    2f6c:	0004a783          	lw	a5,0(s1)
    2f70:	f20786e3          	beqz	a5,2e9c <__sflush_r+0x70>
    2f74:	fea78713          	addi	a4,a5,-22
    2f78:	00070663          	beqz	a4,2f84 <__sflush_r+0x158>
    2f7c:	fe378793          	addi	a5,a5,-29
    2f80:	00079663          	bnez	a5,2f8c <__sflush_r+0x160>
    2f84:	0124a023          	sw	s2,0(s1)
    2f88:	ee5ff06f          	j	2e6c <__sflush_r+0x40>
    2f8c:	00c45783          	lhu	a5,12(s0)
    2f90:	0407e793          	ori	a5,a5,64
    2f94:	00f41623          	sh	a5,12(s0)
    2f98:	ed9ff06f          	j	2e70 <__sflush_r+0x44>
    2f9c:	04076713          	ori	a4,a4,64
    2fa0:	00e41623          	sh	a4,12(s0)
    2fa4:	ecdff06f          	j	2e70 <__sflush_r+0x44>
    2fa8:	0105a603          	lw	a2,16(a1)
    2fac:	ec0600e3          	beqz	a2,2e6c <__sflush_r+0x40>
    2fb0:	0005a683          	lw	a3,0(a1)
    2fb4:	0037f793          	andi	a5,a5,3
    2fb8:	00c5a023          	sw	a2,0(a1)
    2fbc:	40c68933          	sub	s2,a3,a2
    2fc0:	00000713          	li	a4,0
    2fc4:	00079463          	bnez	a5,2fcc <__sflush_r+0x1a0>
    2fc8:	0145a703          	lw	a4,20(a1)
    2fcc:	00e42423          	sw	a4,8(s0)
    2fd0:	e9205ee3          	blez	s2,2e6c <__sflush_r+0x40>
    2fd4:	02842783          	lw	a5,40(s0)
    2fd8:	02042583          	lw	a1,32(s0)
    2fdc:	00090693          	mv	a3,s2
    2fe0:	00048513          	mv	a0,s1
    2fe4:	00c12623          	sw	a2,12(sp)
    2fe8:	000780e7          	jalr	a5
    2fec:	00c12603          	lw	a2,12(sp)
    2ff0:	00a04c63          	bgtz	a0,3008 <__sflush_r+0x1dc>
    2ff4:	00c45783          	lhu	a5,12(s0)
    2ff8:	fff00513          	li	a0,-1
    2ffc:	0407e793          	ori	a5,a5,64
    3000:	00f41623          	sh	a5,12(s0)
    3004:	e6dff06f          	j	2e70 <__sflush_r+0x44>
    3008:	00a60633          	add	a2,a2,a0
    300c:	40a90933          	sub	s2,s2,a0
    3010:	fc1ff06f          	j	2fd0 <__sflush_r+0x1a4>

00003014 <_fflush_r>:
    3014:	0105a783          	lw	a5,16(a1)
    3018:	04078e63          	beqz	a5,3074 <_fflush_r+0x60>
    301c:	fe010113          	addi	sp,sp,-32
    3020:	00812c23          	sw	s0,24(sp)
    3024:	00112e23          	sw	ra,28(sp)
    3028:	00050413          	mv	s0,a0
    302c:	00050c63          	beqz	a0,3044 <_fflush_r+0x30>
    3030:	02052783          	lw	a5,32(a0)
    3034:	00079863          	bnez	a5,3044 <_fflush_r+0x30>
    3038:	00b12623          	sw	a1,12(sp)
    303c:	cfcff0ef          	jal	2538 <__sinit>
    3040:	00c12583          	lw	a1,12(sp)
    3044:	00c59783          	lh	a5,12(a1)
    3048:	00078c63          	beqz	a5,3060 <_fflush_r+0x4c>
    304c:	00040513          	mv	a0,s0
    3050:	01812403          	lw	s0,24(sp)
    3054:	01c12083          	lw	ra,28(sp)
    3058:	02010113          	addi	sp,sp,32
    305c:	dd1ff06f          	j	2e2c <__sflush_r>
    3060:	01c12083          	lw	ra,28(sp)
    3064:	01812403          	lw	s0,24(sp)
    3068:	00000513          	li	a0,0
    306c:	02010113          	addi	sp,sp,32
    3070:	00008067          	ret
    3074:	00000513          	li	a0,0
    3078:	00008067          	ret

0000307c <_sbrk_r>:
    307c:	ff010113          	addi	sp,sp,-16
    3080:	00812423          	sw	s0,8(sp)
    3084:	00912223          	sw	s1,4(sp)
    3088:	00050493          	mv	s1,a0
    308c:	00058513          	mv	a0,a1
    3090:	00112623          	sw	ra,12(sp)
    3094:	9601a623          	sw	zero,-1684(gp) # 2280c <errno>
    3098:	838ff0ef          	jal	20d0 <_sbrk>
    309c:	fff00793          	li	a5,-1
    30a0:	00f51863          	bne	a0,a5,30b0 <_sbrk_r+0x34>
    30a4:	96c1a783          	lw	a5,-1684(gp) # 2280c <errno>
    30a8:	00078463          	beqz	a5,30b0 <_sbrk_r+0x34>
    30ac:	00f4a023          	sw	a5,0(s1)
    30b0:	00c12083          	lw	ra,12(sp)
    30b4:	00812403          	lw	s0,8(sp)
    30b8:	00412483          	lw	s1,4(sp)
    30bc:	01010113          	addi	sp,sp,16
    30c0:	00008067          	ret

000030c4 <iprintf>:
    30c4:	fc010113          	addi	sp,sp,-64
    30c8:	02f12a23          	sw	a5,52(sp)
    30cc:	9641a783          	lw	a5,-1692(gp) # 22804 <_impure_ptr>
    30d0:	02c12423          	sw	a2,40(sp)
    30d4:	02d12623          	sw	a3,44(sp)
    30d8:	02b12223          	sw	a1,36(sp)
    30dc:	02e12823          	sw	a4,48(sp)
    30e0:	03012c23          	sw	a6,56(sp)
    30e4:	03112e23          	sw	a7,60(sp)
    30e8:	0087a583          	lw	a1,8(a5)
    30ec:	02410693          	addi	a3,sp,36
    30f0:	00050613          	mv	a2,a0
    30f4:	00078513          	mv	a0,a5
    30f8:	00112e23          	sw	ra,28(sp)
    30fc:	00d12623          	sw	a3,12(sp)
    3100:	414000ef          	jal	3514 <_vfiprintf_r>
    3104:	01c12083          	lw	ra,28(sp)
    3108:	04010113          	addi	sp,sp,64
    310c:	00008067          	ret

00003110 <_puts_r>:
    3110:	02052783          	lw	a5,32(a0)
    3114:	fe010113          	addi	sp,sp,-32
    3118:	00812c23          	sw	s0,24(sp)
    311c:	00912a23          	sw	s1,20(sp)
    3120:	01212823          	sw	s2,16(sp)
    3124:	00112e23          	sw	ra,28(sp)
    3128:	01312623          	sw	s3,12(sp)
    312c:	00852403          	lw	s0,8(a0)
    3130:	00050493          	mv	s1,a0
    3134:	00058913          	mv	s2,a1
    3138:	00079463          	bnez	a5,3140 <_puts_r+0x30>
    313c:	bfcff0ef          	jal	2538 <__sinit>
    3140:	00c45783          	lhu	a5,12(s0)
    3144:	0087f793          	andi	a5,a5,8
    3148:	00078663          	beqz	a5,3154 <_puts_r+0x44>
    314c:	01042783          	lw	a5,16(s0)
    3150:	0a079663          	bnez	a5,31fc <_puts_r+0xec>
    3154:	00040593          	mv	a1,s0
    3158:	00048513          	mv	a0,s1
    315c:	1c8000ef          	jal	3324 <__swsetup_r>
    3160:	00050793          	mv	a5,a0
    3164:	fff00513          	li	a0,-1
    3168:	08078a63          	beqz	a5,31fc <_puts_r+0xec>
    316c:	01c12083          	lw	ra,28(sp)
    3170:	01812403          	lw	s0,24(sp)
    3174:	01412483          	lw	s1,20(sp)
    3178:	01012903          	lw	s2,16(sp)
    317c:	00c12983          	lw	s3,12(sp)
    3180:	02010113          	addi	sp,sp,32
    3184:	00008067          	ret
    3188:	0007da63          	bgez	a5,319c <_puts_r+0x8c>
    318c:	01842703          	lw	a4,24(s0)
    3190:	04e7cc63          	blt	a5,a4,31e8 <_puts_r+0xd8>
    3194:	ff658793          	addi	a5,a1,-10
    3198:	04078863          	beqz	a5,31e8 <_puts_r+0xd8>
    319c:	00042783          	lw	a5,0(s0)
    31a0:	00178713          	addi	a4,a5,1
    31a4:	00e42023          	sw	a4,0(s0)
    31a8:	00b78023          	sb	a1,0(a5)
    31ac:	00190913          	addi	s2,s2,1
    31b0:	00842783          	lw	a5,8(s0)
    31b4:	00094583          	lbu	a1,0(s2)
    31b8:	fff78793          	addi	a5,a5,-1
    31bc:	00f42423          	sw	a5,8(s0)
    31c0:	fc0594e3          	bnez	a1,3188 <_puts_r+0x78>
    31c4:	0407d063          	bgez	a5,3204 <_puts_r+0xf4>
    31c8:	00040613          	mv	a2,s0
    31cc:	00a00593          	li	a1,10
    31d0:	00048513          	mv	a0,s1
    31d4:	054000ef          	jal	3228 <__swbuf_r>
    31d8:	fff00793          	li	a5,-1
    31dc:	f8f508e3          	beq	a0,a5,316c <_puts_r+0x5c>
    31e0:	00a00513          	li	a0,10
    31e4:	f89ff06f          	j	316c <_puts_r+0x5c>
    31e8:	00040613          	mv	a2,s0
    31ec:	00048513          	mv	a0,s1
    31f0:	038000ef          	jal	3228 <__swbuf_r>
    31f4:	fb351ce3          	bne	a0,s3,31ac <_puts_r+0x9c>
    31f8:	f75ff06f          	j	316c <_puts_r+0x5c>
    31fc:	fff00993          	li	s3,-1
    3200:	fb1ff06f          	j	31b0 <_puts_r+0xa0>
    3204:	00042783          	lw	a5,0(s0)
    3208:	00a00513          	li	a0,10
    320c:	00178713          	addi	a4,a5,1
    3210:	00e42023          	sw	a4,0(s0)
    3214:	00a78023          	sb	a0,0(a5)
    3218:	f55ff06f          	j	316c <_puts_r+0x5c>

0000321c <puts>:
    321c:	00050593          	mv	a1,a0
    3220:	9641a503          	lw	a0,-1692(gp) # 22804 <_impure_ptr>
    3224:	eedff06f          	j	3110 <_puts_r>

00003228 <__swbuf_r>:
    3228:	fe010113          	addi	sp,sp,-32
    322c:	00812c23          	sw	s0,24(sp)
    3230:	00912a23          	sw	s1,20(sp)
    3234:	01312623          	sw	s3,12(sp)
    3238:	00112e23          	sw	ra,28(sp)
    323c:	01212823          	sw	s2,16(sp)
    3240:	00050493          	mv	s1,a0
    3244:	00058993          	mv	s3,a1
    3248:	00060413          	mv	s0,a2
    324c:	00050863          	beqz	a0,325c <__swbuf_r+0x34>
    3250:	02052783          	lw	a5,32(a0)
    3254:	00079463          	bnez	a5,325c <__swbuf_r+0x34>
    3258:	ae0ff0ef          	jal	2538 <__sinit>
    325c:	01842783          	lw	a5,24(s0)
    3260:	00f42423          	sw	a5,8(s0)
    3264:	00c45783          	lhu	a5,12(s0)
    3268:	0087f793          	andi	a5,a5,8
    326c:	0a078063          	beqz	a5,330c <__swbuf_r+0xe4>
    3270:	01042783          	lw	a5,16(s0)
    3274:	08078c63          	beqz	a5,330c <__swbuf_r+0xe4>
    3278:	01042783          	lw	a5,16(s0)
    327c:	00042503          	lw	a0,0(s0)
    3280:	40f50533          	sub	a0,a0,a5
    3284:	01442783          	lw	a5,20(s0)
    3288:	00f54a63          	blt	a0,a5,329c <__swbuf_r+0x74>
    328c:	00040593          	mv	a1,s0
    3290:	00048513          	mv	a0,s1
    3294:	d81ff0ef          	jal	3014 <_fflush_r>
    3298:	08051263          	bnez	a0,331c <__swbuf_r+0xf4>
    329c:	00842783          	lw	a5,8(s0)
    32a0:	00150513          	addi	a0,a0,1
    32a4:	0ff9f913          	zext.b	s2,s3
    32a8:	fff78793          	addi	a5,a5,-1
    32ac:	00f42423          	sw	a5,8(s0)
    32b0:	00042783          	lw	a5,0(s0)
    32b4:	00178713          	addi	a4,a5,1
    32b8:	00e42023          	sw	a4,0(s0)
    32bc:	01378023          	sb	s3,0(a5)
    32c0:	01442783          	lw	a5,20(s0)
    32c4:	00a78c63          	beq	a5,a0,32dc <__swbuf_r+0xb4>
    32c8:	ff690793          	addi	a5,s2,-10
    32cc:	02079063          	bnez	a5,32ec <__swbuf_r+0xc4>
    32d0:	00c45783          	lhu	a5,12(s0)
    32d4:	0017f793          	andi	a5,a5,1
    32d8:	00078a63          	beqz	a5,32ec <__swbuf_r+0xc4>
    32dc:	00040593          	mv	a1,s0
    32e0:	00048513          	mv	a0,s1
    32e4:	d31ff0ef          	jal	3014 <_fflush_r>
    32e8:	02051a63          	bnez	a0,331c <__swbuf_r+0xf4>
    32ec:	01c12083          	lw	ra,28(sp)
    32f0:	01812403          	lw	s0,24(sp)
    32f4:	01412483          	lw	s1,20(sp)
    32f8:	00c12983          	lw	s3,12(sp)
    32fc:	00090513          	mv	a0,s2
    3300:	01012903          	lw	s2,16(sp)
    3304:	02010113          	addi	sp,sp,32
    3308:	00008067          	ret
    330c:	00040593          	mv	a1,s0
    3310:	00048513          	mv	a0,s1
    3314:	010000ef          	jal	3324 <__swsetup_r>
    3318:	f60500e3          	beqz	a0,3278 <__swbuf_r+0x50>
    331c:	fff00913          	li	s2,-1
    3320:	fcdff06f          	j	32ec <__swbuf_r+0xc4>

00003324 <__swsetup_r>:
    3324:	ff010113          	addi	sp,sp,-16
    3328:	00912223          	sw	s1,4(sp)
    332c:	00050493          	mv	s1,a0
    3330:	9641a503          	lw	a0,-1692(gp) # 22804 <_impure_ptr>
    3334:	00812423          	sw	s0,8(sp)
    3338:	00112623          	sw	ra,12(sp)
    333c:	00058413          	mv	s0,a1
    3340:	00050863          	beqz	a0,3350 <__swsetup_r+0x2c>
    3344:	02052783          	lw	a5,32(a0)
    3348:	00079463          	bnez	a5,3350 <__swsetup_r+0x2c>
    334c:	9ecff0ef          	jal	2538 <__sinit>
    3350:	00c41783          	lh	a5,12(s0)
    3354:	0087f713          	andi	a4,a5,8
    3358:	06071a63          	bnez	a4,33cc <__swsetup_r+0xa8>
    335c:	0107f713          	andi	a4,a5,16
    3360:	02071663          	bnez	a4,338c <__swsetup_r+0x68>
    3364:	00900713          	li	a4,9
    3368:	00e4a023          	sw	a4,0(s1)
    336c:	0407e793          	ori	a5,a5,64
    3370:	00f41623          	sh	a5,12(s0)
    3374:	fff00513          	li	a0,-1
    3378:	00c12083          	lw	ra,12(sp)
    337c:	00812403          	lw	s0,8(sp)
    3380:	00412483          	lw	s1,4(sp)
    3384:	01010113          	addi	sp,sp,16
    3388:	00008067          	ret
    338c:	0047f713          	andi	a4,a5,4
    3390:	02070a63          	beqz	a4,33c4 <__swsetup_r+0xa0>
    3394:	03442583          	lw	a1,52(s0)
    3398:	00058c63          	beqz	a1,33b0 <__swsetup_r+0x8c>
    339c:	04440793          	addi	a5,s0,68
    33a0:	00f58663          	beq	a1,a5,33ac <__swsetup_r+0x88>
    33a4:	00048513          	mv	a0,s1
    33a8:	f38ff0ef          	jal	2ae0 <_free_r>
    33ac:	02042a23          	sw	zero,52(s0)
    33b0:	00c45783          	lhu	a5,12(s0)
    33b4:	01042703          	lw	a4,16(s0)
    33b8:	00042223          	sw	zero,4(s0)
    33bc:	fdb7f793          	andi	a5,a5,-37
    33c0:	00e42023          	sw	a4,0(s0)
    33c4:	0087e793          	ori	a5,a5,8
    33c8:	00f41623          	sh	a5,12(s0)
    33cc:	01042783          	lw	a5,16(s0)
    33d0:	02079063          	bnez	a5,33f0 <__swsetup_r+0xcc>
    33d4:	00c42783          	lw	a5,12(s0)
    33d8:	20000713          	li	a4,512
    33dc:	2807f793          	andi	a5,a5,640
    33e0:	00e78863          	beq	a5,a4,33f0 <__swsetup_r+0xcc>
    33e4:	00040593          	mv	a1,s0
    33e8:	00048513          	mv	a0,s1
    33ec:	25d000ef          	jal	3e48 <__smakebuf_r>
    33f0:	00c41783          	lh	a5,12(s0)
    33f4:	0017f713          	andi	a4,a5,1
    33f8:	02070263          	beqz	a4,341c <__swsetup_r+0xf8>
    33fc:	01442703          	lw	a4,20(s0)
    3400:	00042423          	sw	zero,8(s0)
    3404:	40e00733          	neg	a4,a4
    3408:	00e42c23          	sw	a4,24(s0)
    340c:	01042703          	lw	a4,16(s0)
    3410:	02070263          	beqz	a4,3434 <__swsetup_r+0x110>
    3414:	00000513          	li	a0,0
    3418:	f61ff06f          	j	3378 <__swsetup_r+0x54>
    341c:	0027f713          	andi	a4,a5,2
    3420:	00000693          	li	a3,0
    3424:	00071463          	bnez	a4,342c <__swsetup_r+0x108>
    3428:	01442683          	lw	a3,20(s0)
    342c:	00d42423          	sw	a3,8(s0)
    3430:	fddff06f          	j	340c <__swsetup_r+0xe8>
    3434:	0807f713          	andi	a4,a5,128
    3438:	fc070ee3          	beqz	a4,3414 <__swsetup_r+0xf0>
    343c:	f31ff06f          	j	336c <__swsetup_r+0x48>

00003440 <__errno>:
    3440:	9641a503          	lw	a0,-1692(gp) # 22804 <_impure_ptr>
    3444:	00008067          	ret

00003448 <strlen>:
    3448:	00050793          	mv	a5,a0
    344c:	0007c703          	lbu	a4,0(a5)
    3450:	00178793          	addi	a5,a5,1
    3454:	fe071ce3          	bnez	a4,344c <strlen+0x4>
    3458:	40a78533          	sub	a0,a5,a0
    345c:	fff50513          	addi	a0,a0,-1
    3460:	00008067          	ret

00003464 <__sfputc_r>:
    3464:	00862783          	lw	a5,8(a2)
    3468:	fff78793          	addi	a5,a5,-1
    346c:	00f62423          	sw	a5,8(a2)
    3470:	0007dc63          	bgez	a5,3488 <__sfputc_r+0x24>
    3474:	01862703          	lw	a4,24(a2)
    3478:	00e7c663          	blt	a5,a4,3484 <__sfputc_r+0x20>
    347c:	ff658793          	addi	a5,a1,-10
    3480:	00079463          	bnez	a5,3488 <__sfputc_r+0x24>
    3484:	da5ff06f          	j	3228 <__swbuf_r>
    3488:	00062783          	lw	a5,0(a2)
    348c:	00058513          	mv	a0,a1
    3490:	00178713          	addi	a4,a5,1
    3494:	00e62023          	sw	a4,0(a2)
    3498:	00b78023          	sb	a1,0(a5)
    349c:	00008067          	ret

000034a0 <__sfputs_r>:
    34a0:	fe010113          	addi	sp,sp,-32
    34a4:	00812c23          	sw	s0,24(sp)
    34a8:	00912a23          	sw	s1,20(sp)
    34ac:	01212823          	sw	s2,16(sp)
    34b0:	01312623          	sw	s3,12(sp)
    34b4:	01412423          	sw	s4,8(sp)
    34b8:	00112e23          	sw	ra,28(sp)
    34bc:	00050993          	mv	s3,a0
    34c0:	00058a13          	mv	s4,a1
    34c4:	00060413          	mv	s0,a2
    34c8:	00d604b3          	add	s1,a2,a3
    34cc:	fff00913          	li	s2,-1
    34d0:	00941663          	bne	s0,s1,34dc <__sfputs_r+0x3c>
    34d4:	00000513          	li	a0,0
    34d8:	01c0006f          	j	34f4 <__sfputs_r+0x54>
    34dc:	00044583          	lbu	a1,0(s0)
    34e0:	000a0613          	mv	a2,s4
    34e4:	00098513          	mv	a0,s3
    34e8:	f7dff0ef          	jal	3464 <__sfputc_r>
    34ec:	00140413          	addi	s0,s0,1
    34f0:	ff2510e3          	bne	a0,s2,34d0 <__sfputs_r+0x30>
    34f4:	01c12083          	lw	ra,28(sp)
    34f8:	01812403          	lw	s0,24(sp)
    34fc:	01412483          	lw	s1,20(sp)
    3500:	01012903          	lw	s2,16(sp)
    3504:	00c12983          	lw	s3,12(sp)
    3508:	00812a03          	lw	s4,8(sp)
    350c:	02010113          	addi	sp,sp,32
    3510:	00008067          	ret

00003514 <_vfiprintf_r>:
    3514:	f5010113          	addi	sp,sp,-176
    3518:	0a812423          	sw	s0,168(sp)
    351c:	0a912223          	sw	s1,164(sp)
    3520:	0b212023          	sw	s2,160(sp)
    3524:	09312e23          	sw	s3,156(sp)
    3528:	0a112623          	sw	ra,172(sp)
    352c:	09412c23          	sw	s4,152(sp)
    3530:	09512a23          	sw	s5,148(sp)
    3534:	09612823          	sw	s6,144(sp)
    3538:	09712623          	sw	s7,140(sp)
    353c:	00050913          	mv	s2,a0
    3540:	00058493          	mv	s1,a1
    3544:	00060413          	mv	s0,a2
    3548:	00068993          	mv	s3,a3
    354c:	00050863          	beqz	a0,355c <_vfiprintf_r+0x48>
    3550:	02052783          	lw	a5,32(a0)
    3554:	00079463          	bnez	a5,355c <_vfiprintf_r+0x48>
    3558:	fe1fe0ef          	jal	2538 <__sinit>
    355c:	00c4d783          	lhu	a5,12(s1)
    3560:	0087f793          	andi	a5,a5,8
    3564:	00078663          	beqz	a5,3570 <_vfiprintf_r+0x5c>
    3568:	0104a783          	lw	a5,16(s1)
    356c:	00079a63          	bnez	a5,3580 <_vfiprintf_r+0x6c>
    3570:	00048593          	mv	a1,s1
    3574:	00090513          	mv	a0,s2
    3578:	dadff0ef          	jal	3324 <__swsetup_r>
    357c:	2a051a63          	bnez	a0,3830 <_vfiprintf_r+0x31c>
    3580:	02000793          	li	a5,32
    3584:	02f10ca3          	sb	a5,57(sp)
    3588:	00020a37          	lui	s4,0x20
    358c:	03000793          	li	a5,48
    3590:	01312e23          	sw	s3,28(sp)
    3594:	02012a23          	sw	zero,52(sp)
    3598:	02f10d23          	sb	a5,58(sp)
    359c:	02500a93          	li	s5,37
    35a0:	fff00993          	li	s3,-1
    35a4:	47ca0a13          	addi	s4,s4,1148 # 2047c <__clz_tab+0x2f8>
    35a8:	00100b13          	li	s6,1
    35ac:	00040b93          	mv	s7,s0
    35b0:	000bc783          	lbu	a5,0(s7)
    35b4:	00078463          	beqz	a5,35bc <_vfiprintf_r+0xa8>
    35b8:	0d579463          	bne	a5,s5,3680 <_vfiprintf_r+0x16c>
    35bc:	408b86b3          	sub	a3,s7,s0
    35c0:	028b8663          	beq	s7,s0,35ec <_vfiprintf_r+0xd8>
    35c4:	00040613          	mv	a2,s0
    35c8:	00048593          	mv	a1,s1
    35cc:	00090513          	mv	a0,s2
    35d0:	00d12623          	sw	a3,12(sp)
    35d4:	ecdff0ef          	jal	34a0 <__sfputs_r>
    35d8:	25350663          	beq	a0,s3,3824 <_vfiprintf_r+0x310>
    35dc:	03412783          	lw	a5,52(sp)
    35e0:	00c12683          	lw	a3,12(sp)
    35e4:	00d787b3          	add	a5,a5,a3
    35e8:	02f12a23          	sw	a5,52(sp)
    35ec:	000bc783          	lbu	a5,0(s7)
    35f0:	22078a63          	beqz	a5,3824 <_vfiprintf_r+0x310>
    35f4:	001b8413          	addi	s0,s7,1
    35f8:	02012023          	sw	zero,32(sp)
    35fc:	02012623          	sw	zero,44(sp)
    3600:	03312223          	sw	s3,36(sp)
    3604:	02012423          	sw	zero,40(sp)
    3608:	060101a3          	sb	zero,99(sp)
    360c:	06012c23          	sw	zero,120(sp)
    3610:	00044583          	lbu	a1,0(s0)
    3614:	00500613          	li	a2,5
    3618:	000a0513          	mv	a0,s4
    361c:	18d000ef          	jal	3fa8 <memchr>
    3620:	02012783          	lw	a5,32(sp)
    3624:	00140693          	addi	a3,s0,1
    3628:	06051063          	bnez	a0,3688 <_vfiprintf_r+0x174>
    362c:	0107f713          	andi	a4,a5,16
    3630:	00070663          	beqz	a4,363c <_vfiprintf_r+0x128>
    3634:	02000713          	li	a4,32
    3638:	06e101a3          	sb	a4,99(sp)
    363c:	0087f713          	andi	a4,a5,8
    3640:	00070663          	beqz	a4,364c <_vfiprintf_r+0x138>
    3644:	02b00713          	li	a4,43
    3648:	06e101a3          	sb	a4,99(sp)
    364c:	00044603          	lbu	a2,0(s0)
    3650:	02a00713          	li	a4,42
    3654:	04e60663          	beq	a2,a4,36a0 <_vfiprintf_r+0x18c>
    3658:	02c12783          	lw	a5,44(sp)
    365c:	00000693          	li	a3,0
    3660:	00900613          	li	a2,9
    3664:	00a00593          	li	a1,10
    3668:	00044703          	lbu	a4,0(s0)
    366c:	fd070713          	addi	a4,a4,-48
    3670:	08e67c63          	bgeu	a2,a4,3708 <_vfiprintf_r+0x1f4>
    3674:	04068463          	beqz	a3,36bc <_vfiprintf_r+0x1a8>
    3678:	02f12623          	sw	a5,44(sp)
    367c:	0400006f          	j	36bc <_vfiprintf_r+0x1a8>
    3680:	001b8b93          	addi	s7,s7,1
    3684:	f2dff06f          	j	35b0 <_vfiprintf_r+0x9c>
    3688:	41450533          	sub	a0,a0,s4
    368c:	00ab1533          	sll	a0,s6,a0
    3690:	00f56533          	or	a0,a0,a5
    3694:	02a12023          	sw	a0,32(sp)
    3698:	00068413          	mv	s0,a3
    369c:	f75ff06f          	j	3610 <_vfiprintf_r+0xfc>
    36a0:	01c12703          	lw	a4,28(sp)
    36a4:	00470613          	addi	a2,a4,4
    36a8:	00072703          	lw	a4,0(a4)
    36ac:	00c12e23          	sw	a2,28(sp)
    36b0:	04074263          	bltz	a4,36f4 <_vfiprintf_r+0x1e0>
    36b4:	02e12623          	sw	a4,44(sp)
    36b8:	00068413          	mv	s0,a3
    36bc:	00044703          	lbu	a4,0(s0)
    36c0:	02e00793          	li	a5,46
    36c4:	04f71e63          	bne	a4,a5,3720 <_vfiprintf_r+0x20c>
    36c8:	00144703          	lbu	a4,1(s0)
    36cc:	02a00793          	li	a5,42
    36d0:	0cf71e63          	bne	a4,a5,37ac <_vfiprintf_r+0x298>
    36d4:	01c12783          	lw	a5,28(sp)
    36d8:	00240413          	addi	s0,s0,2
    36dc:	00478713          	addi	a4,a5,4
    36e0:	0007a783          	lw	a5,0(a5)
    36e4:	00e12e23          	sw	a4,28(sp)
    36e8:	0207ca63          	bltz	a5,371c <_vfiprintf_r+0x208>
    36ec:	02f12223          	sw	a5,36(sp)
    36f0:	0300006f          	j	3720 <_vfiprintf_r+0x20c>
    36f4:	40e00733          	neg	a4,a4
    36f8:	0027e793          	ori	a5,a5,2
    36fc:	02e12623          	sw	a4,44(sp)
    3700:	02f12023          	sw	a5,32(sp)
    3704:	fb5ff06f          	j	36b8 <_vfiprintf_r+0x1a4>
    3708:	02b787b3          	mul	a5,a5,a1
    370c:	00140413          	addi	s0,s0,1
    3710:	00100693          	li	a3,1
    3714:	00e787b3          	add	a5,a5,a4
    3718:	f51ff06f          	j	3668 <_vfiprintf_r+0x154>
    371c:	03312223          	sw	s3,36(sp)
    3720:	00044583          	lbu	a1,0(s0)
    3724:	00020bb7          	lui	s7,0x20
    3728:	00300613          	li	a2,3
    372c:	484b8513          	addi	a0,s7,1156 # 20484 <__clz_tab+0x300>
    3730:	079000ef          	jal	3fa8 <memchr>
    3734:	02050263          	beqz	a0,3758 <_vfiprintf_r+0x244>
    3738:	02012783          	lw	a5,32(sp)
    373c:	484b8b93          	addi	s7,s7,1156
    3740:	41750533          	sub	a0,a0,s7
    3744:	04000713          	li	a4,64
    3748:	00a71733          	sll	a4,a4,a0
    374c:	00e7e7b3          	or	a5,a5,a4
    3750:	00140413          	addi	s0,s0,1
    3754:	02f12023          	sw	a5,32(sp)
    3758:	00044583          	lbu	a1,0(s0)
    375c:	00020537          	lui	a0,0x20
    3760:	00600613          	li	a2,6
    3764:	48850513          	addi	a0,a0,1160 # 20488 <__clz_tab+0x304>
    3768:	02b10c23          	sb	a1,56(sp)
    376c:	03d000ef          	jal	3fa8 <memchr>
    3770:	0e050863          	beqz	a0,3860 <_vfiprintf_r+0x34c>
    3774:	00000793          	li	a5,0
    3778:	08079463          	bnez	a5,3800 <_vfiprintf_r+0x2ec>
    377c:	02012503          	lw	a0,32(sp)
    3780:	01c12783          	lw	a5,28(sp)
    3784:	10057513          	andi	a0,a0,256
    3788:	06050263          	beqz	a0,37ec <_vfiprintf_r+0x2d8>
    378c:	00478793          	addi	a5,a5,4
    3790:	00f12e23          	sw	a5,28(sp)
    3794:	00000513          	li	a0,0
    3798:	03412783          	lw	a5,52(sp)
    379c:	00140413          	addi	s0,s0,1
    37a0:	00a787b3          	add	a5,a5,a0
    37a4:	02f12a23          	sw	a5,52(sp)
    37a8:	e05ff06f          	j	35ac <_vfiprintf_r+0x98>
    37ac:	00140413          	addi	s0,s0,1
    37b0:	00000713          	li	a4,0
    37b4:	00000793          	li	a5,0
    37b8:	00900613          	li	a2,9
    37bc:	00a00593          	li	a1,10
    37c0:	00044683          	lbu	a3,0(s0)
    37c4:	fd068693          	addi	a3,a3,-48
    37c8:	00d67863          	bgeu	a2,a3,37d8 <_vfiprintf_r+0x2c4>
    37cc:	40e00733          	neg	a4,a4
    37d0:	00e7f7b3          	and	a5,a5,a4
    37d4:	f19ff06f          	j	36ec <_vfiprintf_r+0x1d8>
    37d8:	02b787b3          	mul	a5,a5,a1
    37dc:	00140413          	addi	s0,s0,1
    37e0:	00100713          	li	a4,1
    37e4:	00d787b3          	add	a5,a5,a3
    37e8:	fd9ff06f          	j	37c0 <_vfiprintf_r+0x2ac>
    37ec:	00778793          	addi	a5,a5,7
    37f0:	ff87f793          	andi	a5,a5,-8
    37f4:	00878793          	addi	a5,a5,8
    37f8:	00f12e23          	sw	a5,28(sp)
    37fc:	f9dff06f          	j	3798 <_vfiprintf_r+0x284>
    3800:	000036b7          	lui	a3,0x3
    3804:	01c10713          	addi	a4,sp,28
    3808:	4a068693          	addi	a3,a3,1184 # 34a0 <__sfputs_r>
    380c:	00048613          	mv	a2,s1
    3810:	02010593          	addi	a1,sp,32
    3814:	00090513          	mv	a0,s2
    3818:	00000097          	auipc	ra,0x0
    381c:	000000e7          	jalr	zero # 0 <__vector_start>
    3820:	f7351ce3          	bne	a0,s3,3798 <_vfiprintf_r+0x284>
    3824:	00c4d783          	lhu	a5,12(s1)
    3828:	0407f793          	andi	a5,a5,64
    382c:	04078a63          	beqz	a5,3880 <_vfiprintf_r+0x36c>
    3830:	fff00513          	li	a0,-1
    3834:	0ac12083          	lw	ra,172(sp)
    3838:	0a812403          	lw	s0,168(sp)
    383c:	0a412483          	lw	s1,164(sp)
    3840:	0a012903          	lw	s2,160(sp)
    3844:	09c12983          	lw	s3,156(sp)
    3848:	09812a03          	lw	s4,152(sp)
    384c:	09412a83          	lw	s5,148(sp)
    3850:	09012b03          	lw	s6,144(sp)
    3854:	08c12b83          	lw	s7,140(sp)
    3858:	0b010113          	addi	sp,sp,176
    385c:	00008067          	ret
    3860:	000036b7          	lui	a3,0x3
    3864:	01c10713          	addi	a4,sp,28
    3868:	4a068693          	addi	a3,a3,1184 # 34a0 <__sfputs_r>
    386c:	00048613          	mv	a2,s1
    3870:	02010593          	addi	a1,sp,32
    3874:	00090513          	mv	a0,s2
    3878:	1bc000ef          	jal	3a34 <_printf_i>
    387c:	fa5ff06f          	j	3820 <_vfiprintf_r+0x30c>
    3880:	03412503          	lw	a0,52(sp)
    3884:	fb1ff06f          	j	3834 <_vfiprintf_r+0x320>

00003888 <_printf_common>:
    3888:	fd010113          	addi	sp,sp,-48
    388c:	03212023          	sw	s2,32(sp)
    3890:	0105a783          	lw	a5,16(a1)
    3894:	00070913          	mv	s2,a4
    3898:	0085a703          	lw	a4,8(a1)
    389c:	02812423          	sw	s0,40(sp)
    38a0:	01312e23          	sw	s3,28(sp)
    38a4:	01612823          	sw	s6,16(sp)
    38a8:	01712623          	sw	s7,12(sp)
    38ac:	02112623          	sw	ra,44(sp)
    38b0:	02912223          	sw	s1,36(sp)
    38b4:	01412c23          	sw	s4,24(sp)
    38b8:	01512a23          	sw	s5,20(sp)
    38bc:	00050b13          	mv	s6,a0
    38c0:	00058413          	mv	s0,a1
    38c4:	00060993          	mv	s3,a2
    38c8:	00068b93          	mv	s7,a3
    38cc:	00e7d463          	bge	a5,a4,38d4 <_printf_common+0x4c>
    38d0:	00070793          	mv	a5,a4
    38d4:	00f9a023          	sw	a5,0(s3)
    38d8:	04344703          	lbu	a4,67(s0)
    38dc:	00070663          	beqz	a4,38e8 <_printf_common+0x60>
    38e0:	00178793          	addi	a5,a5,1
    38e4:	00f9a023          	sw	a5,0(s3)
    38e8:	00042783          	lw	a5,0(s0)
    38ec:	0207f793          	andi	a5,a5,32
    38f0:	00078863          	beqz	a5,3900 <_printf_common+0x78>
    38f4:	0009a783          	lw	a5,0(s3)
    38f8:	00278793          	addi	a5,a5,2
    38fc:	00f9a023          	sw	a5,0(s3)
    3900:	00042483          	lw	s1,0(s0)
    3904:	0064f493          	andi	s1,s1,6
    3908:	00049e63          	bnez	s1,3924 <_printf_common+0x9c>
    390c:	01940a13          	addi	s4,s0,25
    3910:	fff00a93          	li	s5,-1
    3914:	00c42783          	lw	a5,12(s0)
    3918:	0009a703          	lw	a4,0(s3)
    391c:	40e787b3          	sub	a5,a5,a4
    3920:	0af4c863          	blt	s1,a5,39d0 <_printf_common+0x148>
    3924:	00042783          	lw	a5,0(s0)
    3928:	04344683          	lbu	a3,67(s0)
    392c:	0207f793          	andi	a5,a5,32
    3930:	00d036b3          	snez	a3,a3
    3934:	0a079e63          	bnez	a5,39f0 <_printf_common+0x168>
    3938:	04340613          	addi	a2,s0,67
    393c:	000b8593          	mv	a1,s7
    3940:	000b0513          	mv	a0,s6
    3944:	000900e7          	jalr	s2
    3948:	fff00793          	li	a5,-1
    394c:	04f50c63          	beq	a0,a5,39a4 <_printf_common+0x11c>
    3950:	00042783          	lw	a5,0(s0)
    3954:	00400713          	li	a4,4
    3958:	00000493          	li	s1,0
    395c:	0067f793          	andi	a5,a5,6
    3960:	00e79e63          	bne	a5,a4,397c <_printf_common+0xf4>
    3964:	0009a783          	lw	a5,0(s3)
    3968:	00c42483          	lw	s1,12(s0)
    396c:	40f484b3          	sub	s1,s1,a5
    3970:	fff4c793          	not	a5,s1
    3974:	41f7d793          	srai	a5,a5,0x1f
    3978:	00f4f4b3          	and	s1,s1,a5
    397c:	00842783          	lw	a5,8(s0)
    3980:	01042703          	lw	a4,16(s0)
    3984:	00f75663          	bge	a4,a5,3990 <_printf_common+0x108>
    3988:	40e787b3          	sub	a5,a5,a4
    398c:	00f484b3          	add	s1,s1,a5
    3990:	00000993          	li	s3,0
    3994:	01a40413          	addi	s0,s0,26
    3998:	fff00a13          	li	s4,-1
    399c:	07349c63          	bne	s1,s3,3a14 <_printf_common+0x18c>
    39a0:	00000513          	li	a0,0
    39a4:	02c12083          	lw	ra,44(sp)
    39a8:	02812403          	lw	s0,40(sp)
    39ac:	02412483          	lw	s1,36(sp)
    39b0:	02012903          	lw	s2,32(sp)
    39b4:	01c12983          	lw	s3,28(sp)
    39b8:	01812a03          	lw	s4,24(sp)
    39bc:	01412a83          	lw	s5,20(sp)
    39c0:	01012b03          	lw	s6,16(sp)
    39c4:	00c12b83          	lw	s7,12(sp)
    39c8:	03010113          	addi	sp,sp,48
    39cc:	00008067          	ret
    39d0:	00100693          	li	a3,1
    39d4:	000a0613          	mv	a2,s4
    39d8:	000b8593          	mv	a1,s7
    39dc:	000b0513          	mv	a0,s6
    39e0:	000900e7          	jalr	s2
    39e4:	fd5500e3          	beq	a0,s5,39a4 <_printf_common+0x11c>
    39e8:	00148493          	addi	s1,s1,1
    39ec:	f29ff06f          	j	3914 <_printf_common+0x8c>
    39f0:	00d40733          	add	a4,s0,a3
    39f4:	03000613          	li	a2,48
    39f8:	04c701a3          	sb	a2,67(a4)
    39fc:	04544703          	lbu	a4,69(s0)
    3a00:	00168793          	addi	a5,a3,1
    3a04:	00f407b3          	add	a5,s0,a5
    3a08:	00268693          	addi	a3,a3,2
    3a0c:	04e781a3          	sb	a4,67(a5)
    3a10:	f29ff06f          	j	3938 <_printf_common+0xb0>
    3a14:	00100693          	li	a3,1
    3a18:	00040613          	mv	a2,s0
    3a1c:	000b8593          	mv	a1,s7
    3a20:	000b0513          	mv	a0,s6
    3a24:	000900e7          	jalr	s2
    3a28:	f7450ee3          	beq	a0,s4,39a4 <_printf_common+0x11c>
    3a2c:	00198993          	addi	s3,s3,1
    3a30:	f6dff06f          	j	399c <_printf_common+0x114>

00003a34 <_printf_i>:
    3a34:	fc010113          	addi	sp,sp,-64
    3a38:	02812c23          	sw	s0,56(sp)
    3a3c:	02912a23          	sw	s1,52(sp)
    3a40:	03412423          	sw	s4,40(sp)
    3a44:	03512223          	sw	s5,36(sp)
    3a48:	02112e23          	sw	ra,60(sp)
    3a4c:	03212823          	sw	s2,48(sp)
    3a50:	03312623          	sw	s3,44(sp)
    3a54:	0185c783          	lbu	a5,24(a1)
    3a58:	00068493          	mv	s1,a3
    3a5c:	07800693          	li	a3,120
    3a60:	00050a13          	mv	s4,a0
    3a64:	00058413          	mv	s0,a1
    3a68:	00060a93          	mv	s5,a2
    3a6c:	00f6ee63          	bltu	a3,a5,3a88 <_printf_i+0x54>
    3a70:	06200693          	li	a3,98
    3a74:	04358613          	addi	a2,a1,67
    3a78:	00f6ec63          	bltu	a3,a5,3a90 <_printf_i+0x5c>
    3a7c:	2a078e63          	beqz	a5,3d38 <_printf_i+0x304>
    3a80:	05800693          	li	a3,88
    3a84:	20d78463          	beq	a5,a3,3c8c <_printf_i+0x258>
    3a88:	04240913          	addi	s2,s0,66
    3a8c:	0400006f          	j	3acc <_printf_i+0x98>
    3a90:	f9d78693          	addi	a3,a5,-99
    3a94:	0ff6f693          	zext.b	a3,a3
    3a98:	01500593          	li	a1,21
    3a9c:	fed5e6e3          	bltu	a1,a3,3a88 <_printf_i+0x54>
    3aa0:	000205b7          	lui	a1,0x20
    3aa4:	00269693          	slli	a3,a3,0x2
    3aa8:	11458593          	addi	a1,a1,276 # 20114 <next.12+0xc>
    3aac:	00b686b3          	add	a3,a3,a1
    3ab0:	0006a683          	lw	a3,0(a3)
    3ab4:	00068067          	jr	a3
    3ab8:	00072783          	lw	a5,0(a4)
    3abc:	04240913          	addi	s2,s0,66
    3ac0:	00478693          	addi	a3,a5,4
    3ac4:	0007a783          	lw	a5,0(a5)
    3ac8:	00d72023          	sw	a3,0(a4)
    3acc:	04f40123          	sb	a5,66(s0)
    3ad0:	00100793          	li	a5,1
    3ad4:	2a00006f          	j	3d74 <_printf_i+0x340>
    3ad8:	00042783          	lw	a5,0(s0)
    3adc:	00072503          	lw	a0,0(a4)
    3ae0:	0807f693          	andi	a3,a5,128
    3ae4:	00450593          	addi	a1,a0,4
    3ae8:	02068663          	beqz	a3,3b14 <_printf_i+0xe0>
    3aec:	00052783          	lw	a5,0(a0)
    3af0:	00b72023          	sw	a1,0(a4)
    3af4:	000206b7          	lui	a3,0x20
    3af8:	0007d863          	bgez	a5,3b08 <_printf_i+0xd4>
    3afc:	02d00713          	li	a4,45
    3b00:	40f007b3          	neg	a5,a5
    3b04:	04e401a3          	sb	a4,67(s0)
    3b08:	49068693          	addi	a3,a3,1168 # 20490 <__clz_tab+0x30c>
    3b0c:	00a00713          	li	a4,10
    3b10:	06c0006f          	j	3b7c <_printf_i+0x148>
    3b14:	0407f693          	andi	a3,a5,64
    3b18:	00052783          	lw	a5,0(a0)
    3b1c:	00b72023          	sw	a1,0(a4)
    3b20:	fc068ae3          	beqz	a3,3af4 <_printf_i+0xc0>
    3b24:	01079793          	slli	a5,a5,0x10
    3b28:	4107d793          	srai	a5,a5,0x10
    3b2c:	fc9ff06f          	j	3af4 <_printf_i+0xc0>
    3b30:	00042683          	lw	a3,0(s0)
    3b34:	00072783          	lw	a5,0(a4)
    3b38:	0806f513          	andi	a0,a3,128
    3b3c:	00478593          	addi	a1,a5,4
    3b40:	00050863          	beqz	a0,3b50 <_printf_i+0x11c>
    3b44:	00b72023          	sw	a1,0(a4)
    3b48:	0007a783          	lw	a5,0(a5)
    3b4c:	0140006f          	j	3b60 <_printf_i+0x12c>
    3b50:	0406f693          	andi	a3,a3,64
    3b54:	00b72023          	sw	a1,0(a4)
    3b58:	fe0688e3          	beqz	a3,3b48 <_printf_i+0x114>
    3b5c:	0007d783          	lhu	a5,0(a5)
    3b60:	01844583          	lbu	a1,24(s0)
    3b64:	000206b7          	lui	a3,0x20
    3b68:	06f00713          	li	a4,111
    3b6c:	49068693          	addi	a3,a3,1168 # 20490 <__clz_tab+0x30c>
    3b70:	18e59263          	bne	a1,a4,3cf4 <_printf_i+0x2c0>
    3b74:	00800713          	li	a4,8
    3b78:	040401a3          	sb	zero,67(s0)
    3b7c:	00442583          	lw	a1,4(s0)
    3b80:	00b42423          	sw	a1,8(s0)
    3b84:	0005ce63          	bltz	a1,3ba0 <_printf_i+0x16c>
    3b88:	00042503          	lw	a0,0(s0)
    3b8c:	00b7e5b3          	or	a1,a5,a1
    3b90:	00060913          	mv	s2,a2
    3b94:	ffb57513          	andi	a0,a0,-5
    3b98:	00a42023          	sw	a0,0(s0)
    3b9c:	02058463          	beqz	a1,3bc4 <_printf_i+0x190>
    3ba0:	00060913          	mv	s2,a2
    3ba4:	02e7f5b3          	remu	a1,a5,a4
    3ba8:	fff90913          	addi	s2,s2,-1
    3bac:	00b685b3          	add	a1,a3,a1
    3bb0:	0005c583          	lbu	a1,0(a1)
    3bb4:	00b90023          	sb	a1,0(s2)
    3bb8:	00078593          	mv	a1,a5
    3bbc:	02e7d7b3          	divu	a5,a5,a4
    3bc0:	fee5f2e3          	bgeu	a1,a4,3ba4 <_printf_i+0x170>
    3bc4:	00800793          	li	a5,8
    3bc8:	02f71463          	bne	a4,a5,3bf0 <_printf_i+0x1bc>
    3bcc:	00042783          	lw	a5,0(s0)
    3bd0:	0017f793          	andi	a5,a5,1
    3bd4:	00078e63          	beqz	a5,3bf0 <_printf_i+0x1bc>
    3bd8:	00442703          	lw	a4,4(s0)
    3bdc:	01042783          	lw	a5,16(s0)
    3be0:	00e7c863          	blt	a5,a4,3bf0 <_printf_i+0x1bc>
    3be4:	03000793          	li	a5,48
    3be8:	fef90fa3          	sb	a5,-1(s2)
    3bec:	fff90913          	addi	s2,s2,-1
    3bf0:	41260633          	sub	a2,a2,s2
    3bf4:	00c42823          	sw	a2,16(s0)
    3bf8:	00048713          	mv	a4,s1
    3bfc:	000a8693          	mv	a3,s5
    3c00:	01c10613          	addi	a2,sp,28
    3c04:	00040593          	mv	a1,s0
    3c08:	000a0513          	mv	a0,s4
    3c0c:	c7dff0ef          	jal	3888 <_printf_common>
    3c10:	fff00993          	li	s3,-1
    3c14:	03350c63          	beq	a0,s3,3c4c <_printf_i+0x218>
    3c18:	01042683          	lw	a3,16(s0)
    3c1c:	00090613          	mv	a2,s2
    3c20:	000a8593          	mv	a1,s5
    3c24:	000a0513          	mv	a0,s4
    3c28:	000480e7          	jalr	s1
    3c2c:	03350063          	beq	a0,s3,3c4c <_printf_i+0x218>
    3c30:	00042783          	lw	a5,0(s0)
    3c34:	0027f793          	andi	a5,a5,2
    3c38:	16079e63          	bnez	a5,3db4 <_printf_i+0x380>
    3c3c:	01c12783          	lw	a5,28(sp)
    3c40:	00c42503          	lw	a0,12(s0)
    3c44:	00f55463          	bge	a0,a5,3c4c <_printf_i+0x218>
    3c48:	00078513          	mv	a0,a5
    3c4c:	03c12083          	lw	ra,60(sp)
    3c50:	03812403          	lw	s0,56(sp)
    3c54:	03412483          	lw	s1,52(sp)
    3c58:	03012903          	lw	s2,48(sp)
    3c5c:	02c12983          	lw	s3,44(sp)
    3c60:	02812a03          	lw	s4,40(sp)
    3c64:	02412a83          	lw	s5,36(sp)
    3c68:	04010113          	addi	sp,sp,64
    3c6c:	00008067          	ret
    3c70:	00042783          	lw	a5,0(s0)
    3c74:	0207e793          	ori	a5,a5,32
    3c78:	00f42023          	sw	a5,0(s0)
    3c7c:	07800793          	li	a5,120
    3c80:	000206b7          	lui	a3,0x20
    3c84:	4a468693          	addi	a3,a3,1188 # 204a4 <__clz_tab+0x320>
    3c88:	00c0006f          	j	3c94 <_printf_i+0x260>
    3c8c:	000206b7          	lui	a3,0x20
    3c90:	49068693          	addi	a3,a3,1168 # 20490 <__clz_tab+0x30c>
    3c94:	00042583          	lw	a1,0(s0)
    3c98:	04f402a3          	sb	a5,69(s0)
    3c9c:	00072783          	lw	a5,0(a4)
    3ca0:	0805f813          	andi	a6,a1,128
    3ca4:	00478513          	addi	a0,a5,4
    3ca8:	00080863          	beqz	a6,3cb8 <_printf_i+0x284>
    3cac:	00a72023          	sw	a0,0(a4)
    3cb0:	0007a783          	lw	a5,0(a5)
    3cb4:	0140006f          	j	3cc8 <_printf_i+0x294>
    3cb8:	0405f813          	andi	a6,a1,64
    3cbc:	00a72023          	sw	a0,0(a4)
    3cc0:	fe0808e3          	beqz	a6,3cb0 <_printf_i+0x27c>
    3cc4:	0007d783          	lhu	a5,0(a5)
    3cc8:	0015f713          	andi	a4,a1,1
    3ccc:	00070663          	beqz	a4,3cd8 <_printf_i+0x2a4>
    3cd0:	0205e593          	ori	a1,a1,32
    3cd4:	00b42023          	sw	a1,0(s0)
    3cd8:	00078663          	beqz	a5,3ce4 <_printf_i+0x2b0>
    3cdc:	01000713          	li	a4,16
    3ce0:	e99ff06f          	j	3b78 <_printf_i+0x144>
    3ce4:	00042703          	lw	a4,0(s0)
    3ce8:	fdf77713          	andi	a4,a4,-33
    3cec:	00e42023          	sw	a4,0(s0)
    3cf0:	fedff06f          	j	3cdc <_printf_i+0x2a8>
    3cf4:	00a00713          	li	a4,10
    3cf8:	e81ff06f          	j	3b78 <_printf_i+0x144>
    3cfc:	00042683          	lw	a3,0(s0)
    3d00:	00072783          	lw	a5,0(a4)
    3d04:	01442583          	lw	a1,20(s0)
    3d08:	0806f813          	andi	a6,a3,128
    3d0c:	00478513          	addi	a0,a5,4
    3d10:	00080a63          	beqz	a6,3d24 <_printf_i+0x2f0>
    3d14:	00a72023          	sw	a0,0(a4)
    3d18:	0007a783          	lw	a5,0(a5)
    3d1c:	00b7a023          	sw	a1,0(a5)
    3d20:	0180006f          	j	3d38 <_printf_i+0x304>
    3d24:	00a72023          	sw	a0,0(a4)
    3d28:	0406f693          	andi	a3,a3,64
    3d2c:	0007a783          	lw	a5,0(a5)
    3d30:	fe0686e3          	beqz	a3,3d1c <_printf_i+0x2e8>
    3d34:	00b79023          	sh	a1,0(a5)
    3d38:	00042823          	sw	zero,16(s0)
    3d3c:	00060913          	mv	s2,a2
    3d40:	eb9ff06f          	j	3bf8 <_printf_i+0x1c4>
    3d44:	00072783          	lw	a5,0(a4)
    3d48:	00442603          	lw	a2,4(s0)
    3d4c:	00000593          	li	a1,0
    3d50:	00478693          	addi	a3,a5,4
    3d54:	00d72023          	sw	a3,0(a4)
    3d58:	0007a903          	lw	s2,0(a5)
    3d5c:	00090513          	mv	a0,s2
    3d60:	248000ef          	jal	3fa8 <memchr>
    3d64:	00050663          	beqz	a0,3d70 <_printf_i+0x33c>
    3d68:	41250533          	sub	a0,a0,s2
    3d6c:	00a42223          	sw	a0,4(s0)
    3d70:	00442783          	lw	a5,4(s0)
    3d74:	00f42823          	sw	a5,16(s0)
    3d78:	040401a3          	sb	zero,67(s0)
    3d7c:	e7dff06f          	j	3bf8 <_printf_i+0x1c4>
    3d80:	00100693          	li	a3,1
    3d84:	000a8593          	mv	a1,s5
    3d88:	000a0513          	mv	a0,s4
    3d8c:	00c12623          	sw	a2,12(sp)
    3d90:	000480e7          	jalr	s1
    3d94:	eb350ce3          	beq	a0,s3,3c4c <_printf_i+0x218>
    3d98:	00c12603          	lw	a2,12(sp)
    3d9c:	00190913          	addi	s2,s2,1
    3da0:	00c42783          	lw	a5,12(s0)
    3da4:	01c12703          	lw	a4,28(sp)
    3da8:	40e787b3          	sub	a5,a5,a4
    3dac:	fcf94ae3          	blt	s2,a5,3d80 <_printf_i+0x34c>
    3db0:	e8dff06f          	j	3c3c <_printf_i+0x208>
    3db4:	00000913          	li	s2,0
    3db8:	01940613          	addi	a2,s0,25
    3dbc:	fe5ff06f          	j	3da0 <_printf_i+0x36c>

00003dc0 <__swhatbuf_r>:
    3dc0:	f8010113          	addi	sp,sp,-128
    3dc4:	06812c23          	sw	s0,120(sp)
    3dc8:	00058413          	mv	s0,a1
    3dcc:	00e59583          	lh	a1,14(a1)
    3dd0:	06912a23          	sw	s1,116(sp)
    3dd4:	06112e23          	sw	ra,124(sp)
    3dd8:	00060493          	mv	s1,a2
    3ddc:	0005cc63          	bltz	a1,3df4 <__swhatbuf_r+0x34>
    3de0:	01810613          	addi	a2,sp,24
    3de4:	00d12623          	sw	a3,12(sp)
    3de8:	12c000ef          	jal	3f14 <_fstat_r>
    3dec:	00c12683          	lw	a3,12(sp)
    3df0:	02055c63          	bgez	a0,3e28 <__swhatbuf_r+0x68>
    3df4:	00c45783          	lhu	a5,12(s0)
    3df8:	0807f793          	andi	a5,a5,128
    3dfc:	04078263          	beqz	a5,3e40 <__swhatbuf_r+0x80>
    3e00:	00000793          	li	a5,0
    3e04:	04000713          	li	a4,64
    3e08:	07c12083          	lw	ra,124(sp)
    3e0c:	07812403          	lw	s0,120(sp)
    3e10:	00f6a023          	sw	a5,0(a3)
    3e14:	00e4a023          	sw	a4,0(s1)
    3e18:	00000513          	li	a0,0
    3e1c:	07412483          	lw	s1,116(sp)
    3e20:	08010113          	addi	sp,sp,128
    3e24:	00008067          	ret
    3e28:	01c12783          	lw	a5,28(sp)
    3e2c:	0000f737          	lui	a4,0xf
    3e30:	00e7f7b3          	and	a5,a5,a4
    3e34:	ffffe737          	lui	a4,0xffffe
    3e38:	00e787b3          	add	a5,a5,a4
    3e3c:	0017b793          	seqz	a5,a5
    3e40:	40000713          	li	a4,1024
    3e44:	fc5ff06f          	j	3e08 <__swhatbuf_r+0x48>

00003e48 <__smakebuf_r>:
    3e48:	00c5d703          	lhu	a4,12(a1)
    3e4c:	fd010113          	addi	sp,sp,-48
    3e50:	02812423          	sw	s0,40(sp)
    3e54:	02112623          	sw	ra,44(sp)
    3e58:	02912223          	sw	s1,36(sp)
    3e5c:	00277713          	andi	a4,a4,2
    3e60:	00058413          	mv	s0,a1
    3e64:	02070663          	beqz	a4,3e90 <__smakebuf_r+0x48>
    3e68:	04740793          	addi	a5,s0,71
    3e6c:	00f42023          	sw	a5,0(s0)
    3e70:	00f42823          	sw	a5,16(s0)
    3e74:	00100793          	li	a5,1
    3e78:	00f42a23          	sw	a5,20(s0)
    3e7c:	02c12083          	lw	ra,44(sp)
    3e80:	02812403          	lw	s0,40(sp)
    3e84:	02412483          	lw	s1,36(sp)
    3e88:	03010113          	addi	sp,sp,48
    3e8c:	00008067          	ret
    3e90:	01c10693          	addi	a3,sp,28
    3e94:	01810613          	addi	a2,sp,24
    3e98:	00050493          	mv	s1,a0
    3e9c:	f25ff0ef          	jal	3dc0 <__swhatbuf_r>
    3ea0:	01812583          	lw	a1,24(sp)
    3ea4:	00048513          	mv	a0,s1
    3ea8:	00b12623          	sw	a1,12(sp)
    3eac:	db1fe0ef          	jal	2c5c <_malloc_r>
    3eb0:	00c41783          	lh	a5,12(s0)
    3eb4:	00c12583          	lw	a1,12(sp)
    3eb8:	00051e63          	bnez	a0,3ed4 <__smakebuf_r+0x8c>
    3ebc:	2007f713          	andi	a4,a5,512
    3ec0:	fa071ee3          	bnez	a4,3e7c <__smakebuf_r+0x34>
    3ec4:	ffc7f793          	andi	a5,a5,-4
    3ec8:	0027e793          	ori	a5,a5,2
    3ecc:	00f41623          	sh	a5,12(s0)
    3ed0:	f99ff06f          	j	3e68 <__smakebuf_r+0x20>
    3ed4:	0807e793          	ori	a5,a5,128
    3ed8:	00f41623          	sh	a5,12(s0)
    3edc:	01c12783          	lw	a5,28(sp)
    3ee0:	00a42023          	sw	a0,0(s0)
    3ee4:	00a42823          	sw	a0,16(s0)
    3ee8:	00b42a23          	sw	a1,20(s0)
    3eec:	f80788e3          	beqz	a5,3e7c <__smakebuf_r+0x34>
    3ef0:	00e41583          	lh	a1,14(s0)
    3ef4:	00048513          	mv	a0,s1
    3ef8:	068000ef          	jal	3f60 <_isatty_r>
    3efc:	f80500e3          	beqz	a0,3e7c <__smakebuf_r+0x34>
    3f00:	00c45783          	lhu	a5,12(s0)
    3f04:	ffc7f793          	andi	a5,a5,-4
    3f08:	0017e793          	ori	a5,a5,1
    3f0c:	00f41623          	sh	a5,12(s0)
    3f10:	f6dff06f          	j	3e7c <__smakebuf_r+0x34>

00003f14 <_fstat_r>:
    3f14:	ff010113          	addi	sp,sp,-16
    3f18:	00812423          	sw	s0,8(sp)
    3f1c:	00912223          	sw	s1,4(sp)
    3f20:	00050493          	mv	s1,a0
    3f24:	00058513          	mv	a0,a1
    3f28:	00060593          	mv	a1,a2
    3f2c:	00112623          	sw	ra,12(sp)
    3f30:	9601a623          	sw	zero,-1684(gp) # 2280c <errno>
    3f34:	94cfe0ef          	jal	2080 <_fstat>
    3f38:	fff00793          	li	a5,-1
    3f3c:	00f51863          	bne	a0,a5,3f4c <_fstat_r+0x38>
    3f40:	96c1a783          	lw	a5,-1684(gp) # 2280c <errno>
    3f44:	00078463          	beqz	a5,3f4c <_fstat_r+0x38>
    3f48:	00f4a023          	sw	a5,0(s1)
    3f4c:	00c12083          	lw	ra,12(sp)
    3f50:	00812403          	lw	s0,8(sp)
    3f54:	00412483          	lw	s1,4(sp)
    3f58:	01010113          	addi	sp,sp,16
    3f5c:	00008067          	ret

00003f60 <_isatty_r>:
    3f60:	ff010113          	addi	sp,sp,-16
    3f64:	00812423          	sw	s0,8(sp)
    3f68:	00912223          	sw	s1,4(sp)
    3f6c:	00050493          	mv	s1,a0
    3f70:	00058513          	mv	a0,a1
    3f74:	00112623          	sw	ra,12(sp)
    3f78:	9601a623          	sw	zero,-1684(gp) # 2280c <errno>
    3f7c:	914fe0ef          	jal	2090 <_isatty>
    3f80:	fff00793          	li	a5,-1
    3f84:	00f51863          	bne	a0,a5,3f94 <_isatty_r+0x34>
    3f88:	96c1a783          	lw	a5,-1684(gp) # 2280c <errno>
    3f8c:	00078463          	beqz	a5,3f94 <_isatty_r+0x34>
    3f90:	00f4a023          	sw	a5,0(s1)
    3f94:	00c12083          	lw	ra,12(sp)
    3f98:	00812403          	lw	s0,8(sp)
    3f9c:	00412483          	lw	s1,4(sp)
    3fa0:	01010113          	addi	sp,sp,16
    3fa4:	00008067          	ret

00003fa8 <memchr>:
    3fa8:	0ff5f593          	zext.b	a1,a1
    3fac:	00c50633          	add	a2,a0,a2
    3fb0:	00c51663          	bne	a0,a2,3fbc <memchr+0x14>
    3fb4:	00000513          	li	a0,0
    3fb8:	00008067          	ret
    3fbc:	00054783          	lbu	a5,0(a0)
    3fc0:	feb78ce3          	beq	a5,a1,3fb8 <memchr+0x10>
    3fc4:	00150513          	addi	a0,a0,1
    3fc8:	fe9ff06f          	j	3fb0 <memchr+0x8>

00003fcc <sqrt>:
    3fcc:	fe010113          	addi	sp,sp,-32
    3fd0:	00812c23          	sw	s0,24(sp)
    3fd4:	00912a23          	sw	s1,20(sp)
    3fd8:	01212823          	sw	s2,16(sp)
    3fdc:	01312623          	sw	s3,12(sp)
    3fe0:	00050913          	mv	s2,a0
    3fe4:	00058993          	mv	s3,a1
    3fe8:	00112e23          	sw	ra,28(sp)
    3fec:	088000ef          	jal	4074 <__ieee754_sqrt>
    3ff0:	00050493          	mv	s1,a0
    3ff4:	00058413          	mv	s0,a1
    3ff8:	00090613          	mv	a2,s2
    3ffc:	00098693          	mv	a3,s3
    4000:	00090513          	mv	a0,s2
    4004:	00098593          	mv	a1,s3
    4008:	6d5010ef          	jal	5edc <__unorddf2>
    400c:	04051263          	bnez	a0,4050 <__heap_size+0x50>
    4010:	00000613          	li	a2,0
    4014:	00000693          	li	a3,0
    4018:	00090513          	mv	a0,s2
    401c:	00098593          	mv	a1,s3
    4020:	35c020ef          	jal	637c <__ledf2>
    4024:	02055663          	bgez	a0,4050 <__heap_size+0x50>
    4028:	c18ff0ef          	jal	3440 <__errno>
    402c:	02100793          	li	a5,33
    4030:	00000613          	li	a2,0
    4034:	00000693          	li	a3,0
    4038:	00f52023          	sw	a5,0(a0)
    403c:	00068593          	mv	a1,a3
    4040:	00060513          	mv	a0,a2
    4044:	255000ef          	jal	4a98 <__divdf3>
    4048:	00050493          	mv	s1,a0
    404c:	00058413          	mv	s0,a1
    4050:	01c12083          	lw	ra,28(sp)
    4054:	00040593          	mv	a1,s0
    4058:	01812403          	lw	s0,24(sp)
    405c:	01012903          	lw	s2,16(sp)
    4060:	00c12983          	lw	s3,12(sp)
    4064:	00048513          	mv	a0,s1
    4068:	01412483          	lw	s1,20(sp)
    406c:	02010113          	addi	sp,sp,32
    4070:	00008067          	ret

00004074 <__ieee754_sqrt>:
    4074:	fd010113          	addi	sp,sp,-48
    4078:	7ff007b7          	lui	a5,0x7ff00
    407c:	02812423          	sw	s0,40(sp)
    4080:	02912223          	sw	s1,36(sp)
    4084:	02112623          	sw	ra,44(sp)
    4088:	03212023          	sw	s2,32(sp)
    408c:	01312e23          	sw	s3,28(sp)
    4090:	01412c23          	sw	s4,24(sp)
    4094:	01512a23          	sw	s5,20(sp)
    4098:	01612823          	sw	s6,16(sp)
    409c:	01712623          	sw	s7,12(sp)
    40a0:	00b7f733          	and	a4,a5,a1
    40a4:	00050493          	mv	s1,a0
    40a8:	00058413          	mv	s0,a1
    40ac:	06f71063          	bne	a4,a5,410c <__ieee754_sqrt+0x98>
    40b0:	00050613          	mv	a2,a0
    40b4:	00058693          	mv	a3,a1
    40b8:	0e0010ef          	jal	5198 <__muldf3>
    40bc:	00050613          	mv	a2,a0
    40c0:	00058693          	mv	a3,a1
    40c4:	00048513          	mv	a0,s1
    40c8:	00040593          	mv	a1,s0
    40cc:	280000ef          	jal	434c <__adddf3>
    40d0:	00050493          	mv	s1,a0
    40d4:	00058413          	mv	s0,a1
    40d8:	02c12083          	lw	ra,44(sp)
    40dc:	00040593          	mv	a1,s0
    40e0:	02812403          	lw	s0,40(sp)
    40e4:	02012903          	lw	s2,32(sp)
    40e8:	01c12983          	lw	s3,28(sp)
    40ec:	01812a03          	lw	s4,24(sp)
    40f0:	01412a83          	lw	s5,20(sp)
    40f4:	01012b03          	lw	s6,16(sp)
    40f8:	00c12b83          	lw	s7,12(sp)
    40fc:	00048513          	mv	a0,s1
    4100:	02412483          	lw	s1,36(sp)
    4104:	03010113          	addi	sp,sp,48
    4108:	00008067          	ret
    410c:	00058713          	mv	a4,a1
    4110:	00050793          	mv	a5,a0
    4114:	02b04c63          	bgtz	a1,414c <__ieee754_sqrt+0xd8>
    4118:	00159693          	slli	a3,a1,0x1
    411c:	0016d693          	srli	a3,a3,0x1
    4120:	00a6e6b3          	or	a3,a3,a0
    4124:	fa068ae3          	beqz	a3,40d8 <__ieee754_sqrt+0x64>
    4128:	00000693          	li	a3,0
    412c:	02058e63          	beqz	a1,4168 <__ieee754_sqrt+0xf4>
    4130:	00050613          	mv	a2,a0
    4134:	00058693          	mv	a3,a1
    4138:	648010ef          	jal	5780 <__subdf3>
    413c:	00050613          	mv	a2,a0
    4140:	00058693          	mv	a3,a1
    4144:	155000ef          	jal	4a98 <__divdf3>
    4148:	f89ff06f          	j	40d0 <__ieee754_sqrt+0x5c>
    414c:	4145d693          	srai	a3,a1,0x14
    4150:	04069663          	bnez	a3,419c <__ieee754_sqrt+0x128>
    4154:	00000613          	li	a2,0
    4158:	0200006f          	j	4178 <__ieee754_sqrt+0x104>
    415c:	00b7d713          	srli	a4,a5,0xb
    4160:	feb68693          	addi	a3,a3,-21
    4164:	01579793          	slli	a5,a5,0x15
    4168:	fe070ae3          	beqz	a4,415c <__ieee754_sqrt+0xe8>
    416c:	fe9ff06f          	j	4154 <__ieee754_sqrt+0xe0>
    4170:	00171713          	slli	a4,a4,0x1
    4174:	00160613          	addi	a2,a2,1
    4178:	00b71593          	slli	a1,a4,0xb
    417c:	fe05dae3          	bgez	a1,4170 <__ieee754_sqrt+0xfc>
    4180:	fff60593          	addi	a1,a2,-1
    4184:	40b686b3          	sub	a3,a3,a1
    4188:	02000593          	li	a1,32
    418c:	40c585b3          	sub	a1,a1,a2
    4190:	00b7d5b3          	srl	a1,a5,a1
    4194:	00b76733          	or	a4,a4,a1
    4198:	00c797b3          	sll	a5,a5,a2
    419c:	c0168613          	addi	a2,a3,-1023
    41a0:	00c71693          	slli	a3,a4,0xc
    41a4:	00c6d693          	srli	a3,a3,0xc
    41a8:	00100737          	lui	a4,0x100
    41ac:	00e6e6b3          	or	a3,a3,a4
    41b0:	00167713          	andi	a4,a2,1
    41b4:	00070a63          	beqz	a4,41c8 <__ieee754_sqrt+0x154>
    41b8:	01f7d713          	srli	a4,a5,0x1f
    41bc:	00169693          	slli	a3,a3,0x1
    41c0:	00d706b3          	add	a3,a4,a3
    41c4:	00179793          	slli	a5,a5,0x1
    41c8:	01f7d713          	srli	a4,a5,0x1f
    41cc:	00169693          	slli	a3,a3,0x1
    41d0:	40165413          	srai	s0,a2,0x1
    41d4:	00d70733          	add	a4,a4,a3
    41d8:	00179793          	slli	a5,a5,0x1
    41dc:	01600693          	li	a3,22
    41e0:	00000993          	li	s3,0
    41e4:	00000613          	li	a2,0
    41e8:	002005b7          	lui	a1,0x200
    41ec:	00b60533          	add	a0,a2,a1
    41f0:	00a74863          	blt	a4,a0,4200 <__ieee754_sqrt+0x18c>
    41f4:	00b50633          	add	a2,a0,a1
    41f8:	40a70733          	sub	a4,a4,a0
    41fc:	00b989b3          	add	s3,s3,a1
    4200:	01f7d513          	srli	a0,a5,0x1f
    4204:	00171713          	slli	a4,a4,0x1
    4208:	fff68693          	addi	a3,a3,-1
    420c:	00e50733          	add	a4,a0,a4
    4210:	00179793          	slli	a5,a5,0x1
    4214:	0015d593          	srli	a1,a1,0x1
    4218:	fc069ae3          	bnez	a3,41ec <__ieee754_sqrt+0x178>
    421c:	00000913          	li	s2,0
    4220:	02000a13          	li	s4,32
    4224:	800005b7          	lui	a1,0x80000
    4228:	00d58833          	add	a6,a1,a3
    422c:	40c708b3          	sub	a7,a4,a2
    4230:	00e64663          	blt	a2,a4,423c <__ieee754_sqrt+0x1c8>
    4234:	02089663          	bnez	a7,4260 <__ieee754_sqrt+0x1ec>
    4238:	0307e463          	bltu	a5,a6,4260 <__ieee754_sqrt+0x1ec>
    423c:	00b806b3          	add	a3,a6,a1
    4240:	fff6c513          	not	a0,a3
    4244:	01057533          	and	a0,a0,a6
    4248:	0107b733          	sltu	a4,a5,a6
    424c:	01f55513          	srli	a0,a0,0x1f
    4250:	40e88733          	sub	a4,a7,a4
    4254:	410787b3          	sub	a5,a5,a6
    4258:	00b90933          	add	s2,s2,a1
    425c:	00c50633          	add	a2,a0,a2
    4260:	01f7d513          	srli	a0,a5,0x1f
    4264:	00171713          	slli	a4,a4,0x1
    4268:	fffa0a13          	addi	s4,s4,-1
    426c:	00e50733          	add	a4,a0,a4
    4270:	00179793          	slli	a5,a5,0x1
    4274:	0015d593          	srli	a1,a1,0x1
    4278:	fa0a18e3          	bnez	s4,4228 <__ieee754_sqrt+0x1b4>
    427c:	00f76733          	or	a4,a4,a5
    4280:	04070063          	beqz	a4,42c0 <__ieee754_sqrt+0x24c>
    4284:	9581a503          	lw	a0,-1704(gp) # 227f8 <one>
    4288:	95c1a583          	lw	a1,-1700(gp) # 227fc <one+0x4>
    428c:	9501a603          	lw	a2,-1712(gp) # 227f0 <tiny>
    4290:	9541a683          	lw	a3,-1708(gp) # 227f4 <tiny+0x4>
    4294:	9581a783          	lw	a5,-1704(gp) # 227f8 <one>
    4298:	95c1a803          	lw	a6,-1700(gp) # 227fc <one+0x4>
    429c:	00078b13          	mv	s6,a5
    42a0:	00080b93          	mv	s7,a6
    42a4:	4dc010ef          	jal	5780 <__subdf3>
    42a8:	00050613          	mv	a2,a0
    42ac:	00058693          	mv	a3,a1
    42b0:	000b0513          	mv	a0,s6
    42b4:	000b8593          	mv	a1,s7
    42b8:	0c4020ef          	jal	637c <__ledf2>
    42bc:	02a05663          	blez	a0,42e8 <__ieee754_sqrt+0x274>
    42c0:	00090a13          	mv	s4,s2
    42c4:	3fe007b7          	lui	a5,0x3fe00
    42c8:	4019d593          	srai	a1,s3,0x1
    42cc:	00f585b3          	add	a1,a1,a5
    42d0:	01441613          	slli	a2,s0,0x14
    42d4:	01f99793          	slli	a5,s3,0x1f
    42d8:	001a5713          	srli	a4,s4,0x1
    42dc:	00e7e4b3          	or	s1,a5,a4
    42e0:	00b60433          	add	s0,a2,a1
    42e4:	df5ff06f          	j	40d8 <__ieee754_sqrt+0x64>
    42e8:	9581a503          	lw	a0,-1704(gp) # 227f8 <one>
    42ec:	95c1a583          	lw	a1,-1700(gp) # 227fc <one+0x4>
    42f0:	9501a603          	lw	a2,-1712(gp) # 227f0 <tiny>
    42f4:	9541a683          	lw	a3,-1708(gp) # 227f4 <tiny+0x4>
    42f8:	fff00793          	li	a5,-1
    42fc:	00f91663          	bne	s2,a5,4308 <__ieee754_sqrt+0x294>
    4300:	00198993          	addi	s3,s3,1
    4304:	fc1ff06f          	j	42c4 <__ieee754_sqrt+0x250>
    4308:	9581aa03          	lw	s4,-1704(gp) # 227f8 <one>
    430c:	95c1aa83          	lw	s5,-1700(gp) # 227fc <one+0x4>
    4310:	03c000ef          	jal	434c <__adddf3>
    4314:	00050613          	mv	a2,a0
    4318:	00058693          	mv	a3,a1
    431c:	000a0513          	mv	a0,s4
    4320:	000a8593          	mv	a1,s5
    4324:	058020ef          	jal	637c <__ledf2>
    4328:	00055c63          	bgez	a0,4340 <__ieee754_sqrt+0x2cc>
    432c:	00290713          	addi	a4,s2,2
    4330:	00173793          	seqz	a5,a4
    4334:	00f989b3          	add	s3,s3,a5
    4338:	00070a13          	mv	s4,a4
    433c:	f89ff06f          	j	42c4 <__ieee754_sqrt+0x250>
    4340:	00190713          	addi	a4,s2,1
    4344:	ffe77a13          	andi	s4,a4,-2
    4348:	f7dff06f          	j	42c4 <__ieee754_sqrt+0x250>

0000434c <__adddf3>:
    434c:	00c59793          	slli	a5,a1,0xc
    4350:	fe010113          	addi	sp,sp,-32
    4354:	01d55713          	srli	a4,a0,0x1d
    4358:	0097d793          	srli	a5,a5,0x9
    435c:	0146d893          	srli	a7,a3,0x14
    4360:	00812c23          	sw	s0,24(sp)
    4364:	00f767b3          	or	a5,a4,a5
    4368:	0145d413          	srli	s0,a1,0x14
    436c:	00c69713          	slli	a4,a3,0xc
    4370:	00912a23          	sw	s1,20(sp)
    4374:	7ff47413          	andi	s0,s0,2047
    4378:	01f5d493          	srli	s1,a1,0x1f
    437c:	7ff8f893          	andi	a7,a7,2047
    4380:	01d65593          	srli	a1,a2,0x1d
    4384:	00975713          	srli	a4,a4,0x9
    4388:	00112e23          	sw	ra,28(sp)
    438c:	01212823          	sw	s2,16(sp)
    4390:	01312623          	sw	s3,12(sp)
    4394:	01f6d693          	srli	a3,a3,0x1f
    4398:	00351513          	slli	a0,a0,0x3
    439c:	00e5e733          	or	a4,a1,a4
    43a0:	00361613          	slli	a2,a2,0x3
    43a4:	41140833          	sub	a6,s0,a7
    43a8:	7ff00313          	li	t1,2047
    43ac:	30d49663          	bne	s1,a3,46b8 <TPG.c.ada37a14+0xe2>
    43b0:	17005663          	blez	a6,451c <__adddf3+0x1d0>
    43b4:	0a089063          	bnez	a7,4454 <__adddf3+0x108>
    43b8:	00c766b3          	or	a3,a4,a2
    43bc:	02068463          	beqz	a3,43e4 <__adddf3+0x98>
    43c0:	fff40813          	addi	a6,s0,-1
    43c4:	00081e63          	bnez	a6,43e0 <__adddf3+0x94>
    43c8:	00c50633          	add	a2,a0,a2
    43cc:	00e787b3          	add	a5,a5,a4
    43d0:	00a63533          	sltu	a0,a2,a0
    43d4:	00a78733          	add	a4,a5,a0
    43d8:	00100413          	li	s0,1
    43dc:	0c80006f          	j	44a4 <__adddf3+0x158>
    43e0:	08641063          	bne	s0,t1,4460 <__adddf3+0x114>
    43e4:	01d79713          	slli	a4,a5,0x1d
    43e8:	00355513          	srli	a0,a0,0x3
    43ec:	7ff00693          	li	a3,2047
    43f0:	00a76733          	or	a4,a4,a0
    43f4:	0037d793          	srli	a5,a5,0x3
    43f8:	00d41e63          	bne	s0,a3,4414 <__adddf3+0xc8>
    43fc:	00f76733          	or	a4,a4,a5
    4400:	00000793          	li	a5,0
    4404:	00070863          	beqz	a4,4414 <__adddf3+0xc8>
    4408:	000807b7          	lui	a5,0x80
    440c:	00000713          	li	a4,0
    4410:	00000493          	li	s1,0
    4414:	7ff47413          	andi	s0,s0,2047
    4418:	00c79793          	slli	a5,a5,0xc
    441c:	00c7d793          	srli	a5,a5,0xc
    4420:	01441413          	slli	s0,s0,0x14
    4424:	01f49593          	slli	a1,s1,0x1f
    4428:	00f46433          	or	s0,s0,a5
    442c:	01c12083          	lw	ra,28(sp)
    4430:	00b467b3          	or	a5,s0,a1
    4434:	01812403          	lw	s0,24(sp)
    4438:	01412483          	lw	s1,20(sp)
    443c:	01012903          	lw	s2,16(sp)
    4440:	00c12983          	lw	s3,12(sp)
    4444:	00070513          	mv	a0,a4
    4448:	00078593          	mv	a1,a5
    444c:	02010113          	addi	sp,sp,32
    4450:	00008067          	ret
    4454:	28640c63          	beq	s0,t1,46ec <TPG.c.ada37a14+0x116>
    4458:	008006b7          	lui	a3,0x800
    445c:	00d76733          	or	a4,a4,a3
    4460:	03800693          	li	a3,56
    4464:	0b06c663          	blt	a3,a6,4510 <__adddf3+0x1c4>
    4468:	01f00693          	li	a3,31
    446c:	02000893          	li	a7,32
    4470:	0706c863          	blt	a3,a6,44e0 <__adddf3+0x194>
    4474:	410888b3          	sub	a7,a7,a6
    4478:	011716b3          	sll	a3,a4,a7
    447c:	010655b3          	srl	a1,a2,a6
    4480:	011618b3          	sll	a7,a2,a7
    4484:	00b6e6b3          	or	a3,a3,a1
    4488:	011038b3          	snez	a7,a7
    448c:	0116e6b3          	or	a3,a3,a7
    4490:	01075833          	srl	a6,a4,a6
    4494:	00a68633          	add	a2,a3,a0
    4498:	00f80833          	add	a6,a6,a5
    449c:	00d636b3          	sltu	a3,a2,a3
    44a0:	00d80733          	add	a4,a6,a3
    44a4:	00871793          	slli	a5,a4,0x8
    44a8:	1c07de63          	bgez	a5,4684 <TPG.c.ada37a14+0xae>
    44ac:	00140413          	addi	s0,s0,1
    44b0:	7ff00793          	li	a5,2047
    44b4:	5af40c63          	beq	s0,a5,4a6c <TPG.c.ada37a14+0x496>
    44b8:	ff8007b7          	lui	a5,0xff800
    44bc:	fff78793          	addi	a5,a5,-1 # ff7fffff <_sp+0xff7d559f>
    44c0:	00f777b3          	and	a5,a4,a5
    44c4:	00165713          	srli	a4,a2,0x1
    44c8:	00167613          	andi	a2,a2,1
    44cc:	00c76733          	or	a4,a4,a2
    44d0:	01f79613          	slli	a2,a5,0x1f
    44d4:	00e66633          	or	a2,a2,a4
    44d8:	0017d713          	srli	a4,a5,0x1
    44dc:	1a80006f          	j	4684 <TPG.c.ada37a14+0xae>
    44e0:	fe080693          	addi	a3,a6,-32
    44e4:	00d756b3          	srl	a3,a4,a3
    44e8:	00000593          	li	a1,0
    44ec:	01180863          	beq	a6,a7,44fc <__adddf3+0x1b0>
    44f0:	04000593          	li	a1,64
    44f4:	410585b3          	sub	a1,a1,a6
    44f8:	00b715b3          	sll	a1,a4,a1
    44fc:	00c5e5b3          	or	a1,a1,a2
    4500:	00b035b3          	snez	a1,a1
    4504:	00b6e6b3          	or	a3,a3,a1
    4508:	00000813          	li	a6,0
    450c:	f89ff06f          	j	4494 <__adddf3+0x148>
    4510:	00c766b3          	or	a3,a4,a2
    4514:	00d036b3          	snez	a3,a3
    4518:	ff1ff06f          	j	4508 <__adddf3+0x1bc>
    451c:	0c080663          	beqz	a6,45e8 <TPG.c.ada37a14+0x12>
    4520:	408886b3          	sub	a3,a7,s0
    4524:	06041a63          	bnez	s0,4598 <__adddf3+0x24c>
    4528:	00a7e5b3          	or	a1,a5,a0
    452c:	00059a63          	bnez	a1,4540 <__adddf3+0x1f4>
    4530:	00070793          	mv	a5,a4
    4534:	00060513          	mv	a0,a2
    4538:	00068413          	mv	s0,a3
    453c:	ea9ff06f          	j	43e4 <__adddf3+0x98>
    4540:	fff68593          	addi	a1,a3,-1 # 7fffff <_sp+0x7d559f>
    4544:	e80582e3          	beqz	a1,43c8 <__adddf3+0x7c>
    4548:	fe6684e3          	beq	a3,t1,4530 <__adddf3+0x1e4>
    454c:	03800693          	li	a3,56
    4550:	08b6c663          	blt	a3,a1,45dc <TPG.c.ada37a14+0x6>
    4554:	01f00693          	li	a3,31
    4558:	02000313          	li	t1,32
    455c:	04b6c863          	blt	a3,a1,45ac <__adddf3+0x260>
    4560:	40b30333          	sub	t1,t1,a1
    4564:	006796b3          	sll	a3,a5,t1
    4568:	00b55833          	srl	a6,a0,a1
    456c:	00651333          	sll	t1,a0,t1
    4570:	0106e6b3          	or	a3,a3,a6
    4574:	00603333          	snez	t1,t1
    4578:	0066e6b3          	or	a3,a3,t1
    457c:	00b7d5b3          	srl	a1,a5,a1
    4580:	00c68633          	add	a2,a3,a2
    4584:	00e585b3          	add	a1,a1,a4
    4588:	00d636b3          	sltu	a3,a2,a3
    458c:	00d58733          	add	a4,a1,a3
    4590:	00088413          	mv	s0,a7
    4594:	f11ff06f          	j	44a4 <__adddf3+0x158>
    4598:	4e688a63          	beq	a7,t1,4a8c <TPG.c.ada37a14+0x4b6>
    459c:	008005b7          	lui	a1,0x800
    45a0:	00b7e7b3          	or	a5,a5,a1
    45a4:	00068593          	mv	a1,a3
    45a8:	fa5ff06f          	j	454c <__adddf3+0x200>
    45ac:	fe058693          	addi	a3,a1,-32 # 7fffe0 <_sp+0x7d5580>
    45b0:	00d7d6b3          	srl	a3,a5,a3
    45b4:	00000813          	li	a6,0
    45b8:	00658863          	beq	a1,t1,45c8 <__adddf3+0x27c>
    45bc:	04000813          	li	a6,64
    45c0:	40b80833          	sub	a6,a6,a1
    45c4:	01079833          	sll	a6,a5,a6
    45c8:	00a86833          	or	a6,a6,a0
    45cc:	01003833          	snez	a6,a6
    45d0:	0106e6b3          	or	a3,a3,a6
    45d4:	00000593          	li	a1,0
    45d8:	fa9ff06f          	j	4580 <__adddf3+0x234>
    45dc:	00a7e6b3          	or	a3,a5,a0
    45e0:	00d036b3          	snez	a3,a3
    45e4:	ff1ff06f          	j	45d4 <__adddf3+0x288>
    45e8:	00140693          	addi	a3,s0,1
    45ec:	7fe6f593          	andi	a1,a3,2046
    45f0:	06059663          	bnez	a1,465c <TPG.c.ada37a14+0x86>
    45f4:	00a7e6b3          	or	a3,a5,a0
    45f8:	04041263          	bnez	s0,463c <TPG.c.ada37a14+0x66>
    45fc:	2a068a63          	beqz	a3,48b0 <TPG.c.ada37a14+0x2da>
    4600:	00c766b3          	or	a3,a4,a2
    4604:	42068e63          	beqz	a3,4a40 <TPG.c.ada37a14+0x46a>
    4608:	00c506b3          	add	a3,a0,a2
    460c:	00e787b3          	add	a5,a5,a4
    4610:	00a6b533          	sltu	a0,a3,a0
    4614:	00a78733          	add	a4,a5,a0
    4618:	00871793          	slli	a5,a4,0x8
    461c:	00068613          	mv	a2,a3
    4620:	2807d863          	bgez	a5,48b0 <TPG.c.ada37a14+0x2da>
    4624:	ff8007b7          	lui	a5,0xff800
    4628:	fff78793          	addi	a5,a5,-1 # ff7fffff <_sp+0xff7d559f>
    462c:	00f777b3          	and	a5,a4,a5
    4630:	00068513          	mv	a0,a3
    4634:	00100413          	li	s0,1
    4638:	dadff06f          	j	43e4 <__adddf3+0x98>
    463c:	44068863          	beqz	a3,4a8c <TPG.c.ada37a14+0x4b6>
    4640:	00c76733          	or	a4,a4,a2
    4644:	00030413          	mv	s0,t1
    4648:	d8070ee3          	beqz	a4,43e4 <__adddf3+0x98>
    464c:	00000493          	li	s1,0
    4650:	004007b7          	lui	a5,0x400
    4654:	00000513          	li	a0,0
    4658:	d8dff06f          	j	43e4 <__adddf3+0x98>
    465c:	40668663          	beq	a3,t1,4a68 <TPG.c.ada37a14+0x492>
    4660:	00c50633          	add	a2,a0,a2
    4664:	00e787b3          	add	a5,a5,a4
    4668:	00a63533          	sltu	a0,a2,a0
    466c:	00a787b3          	add	a5,a5,a0
    4670:	01f79713          	slli	a4,a5,0x1f
    4674:	00165613          	srli	a2,a2,0x1
    4678:	00c76633          	or	a2,a4,a2
    467c:	00068413          	mv	s0,a3
    4680:	0017d713          	srli	a4,a5,0x1
    4684:	00767793          	andi	a5,a2,7
    4688:	3c079263          	bnez	a5,4a4c <TPG.c.ada37a14+0x476>
    468c:	00070793          	mv	a5,a4
    4690:	00060513          	mv	a0,a2
    4694:	00879713          	slli	a4,a5,0x8
    4698:	d40756e3          	bgez	a4,43e4 <__adddf3+0x98>
    469c:	00140413          	addi	s0,s0,1
    46a0:	7ff00713          	li	a4,2047
    46a4:	3ce40463          	beq	s0,a4,4a6c <TPG.c.ada37a14+0x496>
    46a8:	ff800737          	lui	a4,0xff800
    46ac:	fff70713          	addi	a4,a4,-1 # ff7fffff <_sp+0xff7d559f>
    46b0:	00e7f7b3          	and	a5,a5,a4
    46b4:	d31ff06f          	j	43e4 <__adddf3+0x98>
    46b8:	0f005063          	blez	a6,4798 <TPG.c.ada37a14+0x1c2>
    46bc:	02089c63          	bnez	a7,46f4 <TPG.c.ada37a14+0x11e>
    46c0:	00c766b3          	or	a3,a4,a2
    46c4:	d20680e3          	beqz	a3,43e4 <__adddf3+0x98>
    46c8:	fff40813          	addi	a6,s0,-1
    46cc:	00081e63          	bnez	a6,46e8 <TPG.c.ada37a14+0x112>
    46d0:	40c50633          	sub	a2,a0,a2
    46d4:	40e787b3          	sub	a5,a5,a4
    46d8:	00c53533          	sltu	a0,a0,a2
    46dc:	40a78733          	sub	a4,a5,a0
    46e0:	00100413          	li	s0,1
    46e4:	0600006f          	j	4744 <TPG.c.ada37a14+0x16e>
    46e8:	00641c63          	bne	s0,t1,4700 <TPG.c.ada37a14+0x12a>
    46ec:	7ff00413          	li	s0,2047
    46f0:	cf5ff06f          	j	43e4 <__adddf3+0x98>
    46f4:	ce6408e3          	beq	s0,t1,43e4 <__adddf3+0x98>
    46f8:	008006b7          	lui	a3,0x800
    46fc:	00d76733          	or	a4,a4,a3
    4700:	03800693          	li	a3,56
    4704:	0906c463          	blt	a3,a6,478c <TPG.c.ada37a14+0x1b6>
    4708:	01f00693          	li	a3,31
    470c:	02000893          	li	a7,32
    4710:	0506c663          	blt	a3,a6,475c <TPG.c.ada37a14+0x186>
    4714:	410888b3          	sub	a7,a7,a6
    4718:	011716b3          	sll	a3,a4,a7
    471c:	010655b3          	srl	a1,a2,a6
    4720:	011618b3          	sll	a7,a2,a7
    4724:	00b6e6b3          	or	a3,a3,a1
    4728:	011038b3          	snez	a7,a7
    472c:	0116e6b3          	or	a3,a3,a7
    4730:	01075833          	srl	a6,a4,a6
    4734:	40d50633          	sub	a2,a0,a3
    4738:	41078833          	sub	a6,a5,a6
    473c:	00c53533          	sltu	a0,a0,a2
    4740:	40a80733          	sub	a4,a6,a0
    4744:	00871793          	slli	a5,a4,0x8
    4748:	f207dee3          	bgez	a5,4684 <TPG.c.ada37a14+0xae>
    474c:	00971913          	slli	s2,a4,0x9
    4750:	00995913          	srli	s2,s2,0x9
    4754:	00060993          	mv	s3,a2
    4758:	2040006f          	j	495c <TPG.c.ada37a14+0x386>
    475c:	fe080693          	addi	a3,a6,-32
    4760:	00d756b3          	srl	a3,a4,a3
    4764:	00000593          	li	a1,0
    4768:	01180863          	beq	a6,a7,4778 <TPG.c.ada37a14+0x1a2>
    476c:	04000593          	li	a1,64
    4770:	410585b3          	sub	a1,a1,a6
    4774:	00b715b3          	sll	a1,a4,a1
    4778:	00c5e5b3          	or	a1,a1,a2
    477c:	00b035b3          	snez	a1,a1
    4780:	00b6e6b3          	or	a3,a3,a1
    4784:	00000813          	li	a6,0
    4788:	fadff06f          	j	4734 <TPG.c.ada37a14+0x15e>
    478c:	00c766b3          	or	a3,a4,a2
    4790:	00d036b3          	snez	a3,a3
    4794:	ff1ff06f          	j	4784 <TPG.c.ada37a14+0x1ae>
    4798:	0e080a63          	beqz	a6,488c <TPG.c.ada37a14+0x2b6>
    479c:	40888833          	sub	a6,a7,s0
    47a0:	08041e63          	bnez	s0,483c <TPG.c.ada37a14+0x266>
    47a4:	00a7e5b3          	or	a1,a5,a0
    47a8:	00059c63          	bnez	a1,47c0 <TPG.c.ada37a14+0x1ea>
    47ac:	00068493          	mv	s1,a3
    47b0:	00070793          	mv	a5,a4
    47b4:	00060513          	mv	a0,a2
    47b8:	00080413          	mv	s0,a6
    47bc:	c29ff06f          	j	43e4 <__adddf3+0x98>
    47c0:	fff80593          	addi	a1,a6,-1
    47c4:	02059063          	bnez	a1,47e4 <TPG.c.ada37a14+0x20e>
    47c8:	40a60533          	sub	a0,a2,a0
    47cc:	00a635b3          	sltu	a1,a2,a0
    47d0:	40f707b3          	sub	a5,a4,a5
    47d4:	00050613          	mv	a2,a0
    47d8:	40b78733          	sub	a4,a5,a1
    47dc:	00068493          	mv	s1,a3
    47e0:	f01ff06f          	j	46e0 <TPG.c.ada37a14+0x10a>
    47e4:	fc6804e3          	beq	a6,t1,47ac <TPG.c.ada37a14+0x1d6>
    47e8:	03800813          	li	a6,56
    47ec:	08b84a63          	blt	a6,a1,4880 <TPG.c.ada37a14+0x2aa>
    47f0:	01f00813          	li	a6,31
    47f4:	02000e13          	li	t3,32
    47f8:	04b84c63          	blt	a6,a1,4850 <TPG.c.ada37a14+0x27a>
    47fc:	40be0e33          	sub	t3,t3,a1
    4800:	00b55333          	srl	t1,a0,a1
    4804:	01c79833          	sll	a6,a5,t3
    4808:	01c51e33          	sll	t3,a0,t3
    480c:	00686833          	or	a6,a6,t1
    4810:	01c03e33          	snez	t3,t3
    4814:	01c86533          	or	a0,a6,t3
    4818:	00b7d5b3          	srl	a1,a5,a1
    481c:	40a60533          	sub	a0,a2,a0
    4820:	00a637b3          	sltu	a5,a2,a0
    4824:	40b705b3          	sub	a1,a4,a1
    4828:	00050613          	mv	a2,a0
    482c:	40f58733          	sub	a4,a1,a5
    4830:	00088413          	mv	s0,a7
    4834:	00068493          	mv	s1,a3
    4838:	f0dff06f          	j	4744 <TPG.c.ada37a14+0x16e>
    483c:	24688663          	beq	a7,t1,4a88 <TPG.c.ada37a14+0x4b2>
    4840:	008005b7          	lui	a1,0x800
    4844:	00b7e7b3          	or	a5,a5,a1
    4848:	00080593          	mv	a1,a6
    484c:	f9dff06f          	j	47e8 <TPG.c.ada37a14+0x212>
    4850:	fe058813          	addi	a6,a1,-32 # 7fffe0 <_sp+0x7d5580>
    4854:	0107d833          	srl	a6,a5,a6
    4858:	00000313          	li	t1,0
    485c:	01c58863          	beq	a1,t3,486c <TPG.c.ada37a14+0x296>
    4860:	04000313          	li	t1,64
    4864:	40b30333          	sub	t1,t1,a1
    4868:	00679333          	sll	t1,a5,t1
    486c:	00a36333          	or	t1,t1,a0
    4870:	00603333          	snez	t1,t1
    4874:	00686533          	or	a0,a6,t1
    4878:	00000593          	li	a1,0
    487c:	fa1ff06f          	j	481c <TPG.c.ada37a14+0x246>
    4880:	00a7e533          	or	a0,a5,a0
    4884:	00a03533          	snez	a0,a0
    4888:	ff1ff06f          	j	4878 <TPG.c.ada37a14+0x2a2>
    488c:	00140593          	addi	a1,s0,1
    4890:	7fe5f593          	andi	a1,a1,2046
    4894:	08059c63          	bnez	a1,492c <TPG.c.ada37a14+0x356>
    4898:	00a7e833          	or	a6,a5,a0
    489c:	00c765b3          	or	a1,a4,a2
    48a0:	06041463          	bnez	s0,4908 <TPG.c.ada37a14+0x332>
    48a4:	00081e63          	bnez	a6,48c0 <TPG.c.ada37a14+0x2ea>
    48a8:	1c058663          	beqz	a1,4a74 <TPG.c.ada37a14+0x49e>
    48ac:	00068493          	mv	s1,a3
    48b0:	00c76533          	or	a0,a4,a2
    48b4:	10050c63          	beqz	a0,49cc <TPG.c.ada37a14+0x3f6>
    48b8:	00000413          	li	s0,0
    48bc:	dc9ff06f          	j	4684 <TPG.c.ada37a14+0xae>
    48c0:	18058063          	beqz	a1,4a40 <TPG.c.ada37a14+0x46a>
    48c4:	40c50833          	sub	a6,a0,a2
    48c8:	010538b3          	sltu	a7,a0,a6
    48cc:	40e785b3          	sub	a1,a5,a4
    48d0:	411585b3          	sub	a1,a1,a7
    48d4:	00859893          	slli	a7,a1,0x8
    48d8:	0008de63          	bgez	a7,48f4 <TPG.c.ada37a14+0x31e>
    48dc:	40a60533          	sub	a0,a2,a0
    48e0:	00a635b3          	sltu	a1,a2,a0
    48e4:	40f707b3          	sub	a5,a4,a5
    48e8:	00050613          	mv	a2,a0
    48ec:	40b78733          	sub	a4,a5,a1
    48f0:	fbdff06f          	j	48ac <TPG.c.ada37a14+0x2d6>
    48f4:	00b86533          	or	a0,a6,a1
    48f8:	18050263          	beqz	a0,4a7c <TPG.c.ada37a14+0x4a6>
    48fc:	00058713          	mv	a4,a1
    4900:	00080613          	mv	a2,a6
    4904:	fadff06f          	j	48b0 <TPG.c.ada37a14+0x2da>
    4908:	00081c63          	bnez	a6,4920 <TPG.c.ada37a14+0x34a>
    490c:	16059e63          	bnez	a1,4a88 <TPG.c.ada37a14+0x4b2>
    4910:	00000493          	li	s1,0
    4914:	00000513          	li	a0,0
    4918:	004007b7          	lui	a5,0x400
    491c:	dd1ff06f          	j	46ec <TPG.c.ada37a14+0x116>
    4920:	00030413          	mv	s0,t1
    4924:	ac0580e3          	beqz	a1,43e4 <__adddf3+0x98>
    4928:	d25ff06f          	j	464c <TPG.c.ada37a14+0x76>
    492c:	40c505b3          	sub	a1,a0,a2
    4930:	00b53833          	sltu	a6,a0,a1
    4934:	40e78933          	sub	s2,a5,a4
    4938:	41090933          	sub	s2,s2,a6
    493c:	00891813          	slli	a6,s2,0x8
    4940:	00058993          	mv	s3,a1
    4944:	06085e63          	bgez	a6,49c0 <TPG.c.ada37a14+0x3ea>
    4948:	40a609b3          	sub	s3,a2,a0
    494c:	40f70933          	sub	s2,a4,a5
    4950:	01363633          	sltu	a2,a2,s3
    4954:	40c90933          	sub	s2,s2,a2
    4958:	00068493          	mv	s1,a3
    495c:	06090e63          	beqz	s2,49d8 <TPG.c.ada37a14+0x402>
    4960:	00090513          	mv	a0,s2
    4964:	5c0010ef          	jal	5f24 <__clzsi2>
    4968:	ff850793          	addi	a5,a0,-8
    496c:	02000713          	li	a4,32
    4970:	40f70733          	sub	a4,a4,a5
    4974:	00f91933          	sll	s2,s2,a5
    4978:	00e9d733          	srl	a4,s3,a4
    497c:	01276733          	or	a4,a4,s2
    4980:	00f99633          	sll	a2,s3,a5
    4984:	0a87c463          	blt	a5,s0,4a2c <TPG.c.ada37a14+0x456>
    4988:	408787b3          	sub	a5,a5,s0
    498c:	00178513          	addi	a0,a5,1 # 400001 <_sp+0x3d55a1>
    4990:	01f00693          	li	a3,31
    4994:	02000593          	li	a1,32
    4998:	06a6c263          	blt	a3,a0,49fc <TPG.c.ada37a14+0x426>
    499c:	40a585b3          	sub	a1,a1,a0
    49a0:	00b717b3          	sll	a5,a4,a1
    49a4:	00a656b3          	srl	a3,a2,a0
    49a8:	00b615b3          	sll	a1,a2,a1
    49ac:	00d7e7b3          	or	a5,a5,a3
    49b0:	00b035b3          	snez	a1,a1
    49b4:	00b7e633          	or	a2,a5,a1
    49b8:	00a75733          	srl	a4,a4,a0
    49bc:	ef5ff06f          	j	48b0 <TPG.c.ada37a14+0x2da>
    49c0:	0125e533          	or	a0,a1,s2
    49c4:	f8051ce3          	bnez	a0,495c <TPG.c.ada37a14+0x386>
    49c8:	00000493          	li	s1,0
    49cc:	00000793          	li	a5,0
    49d0:	00000413          	li	s0,0
    49d4:	a11ff06f          	j	43e4 <__adddf3+0x98>
    49d8:	00098513          	mv	a0,s3
    49dc:	548010ef          	jal	5f24 <__clzsi2>
    49e0:	01850793          	addi	a5,a0,24
    49e4:	01f00713          	li	a4,31
    49e8:	f8f752e3          	bge	a4,a5,496c <TPG.c.ada37a14+0x396>
    49ec:	ff850713          	addi	a4,a0,-8
    49f0:	00e99733          	sll	a4,s3,a4
    49f4:	00000613          	li	a2,0
    49f8:	f8dff06f          	j	4984 <TPG.c.ada37a14+0x3ae>
    49fc:	fe178793          	addi	a5,a5,-31
    4a00:	00f757b3          	srl	a5,a4,a5
    4a04:	00000693          	li	a3,0
    4a08:	00b50863          	beq	a0,a1,4a18 <TPG.c.ada37a14+0x442>
    4a0c:	04000693          	li	a3,64
    4a10:	40a686b3          	sub	a3,a3,a0
    4a14:	00d716b3          	sll	a3,a4,a3
    4a18:	00d666b3          	or	a3,a2,a3
    4a1c:	00d036b3          	snez	a3,a3
    4a20:	00d7e633          	or	a2,a5,a3
    4a24:	00000713          	li	a4,0
    4a28:	e89ff06f          	j	48b0 <TPG.c.ada37a14+0x2da>
    4a2c:	40f40433          	sub	s0,s0,a5
    4a30:	ff8007b7          	lui	a5,0xff800
    4a34:	fff78793          	addi	a5,a5,-1 # ff7fffff <_sp+0xff7d559f>
    4a38:	00f77733          	and	a4,a4,a5
    4a3c:	c49ff06f          	j	4684 <TPG.c.ada37a14+0xae>
    4a40:	00078713          	mv	a4,a5
    4a44:	00050613          	mv	a2,a0
    4a48:	e69ff06f          	j	48b0 <TPG.c.ada37a14+0x2da>
    4a4c:	00f67793          	andi	a5,a2,15
    4a50:	00400693          	li	a3,4
    4a54:	c2d78ce3          	beq	a5,a3,468c <TPG.c.ada37a14+0xb6>
    4a58:	00d60533          	add	a0,a2,a3
    4a5c:	00c537b3          	sltu	a5,a0,a2
    4a60:	00e787b3          	add	a5,a5,a4
    4a64:	c31ff06f          	j	4694 <TPG.c.ada37a14+0xbe>
    4a68:	00068413          	mv	s0,a3
    4a6c:	00000793          	li	a5,0
    4a70:	be5ff06f          	j	4654 <TPG.c.ada37a14+0x7e>
    4a74:	00000493          	li	s1,0
    4a78:	ff5ff06f          	j	4a6c <TPG.c.ada37a14+0x496>
    4a7c:	00000493          	li	s1,0
    4a80:	00000793          	li	a5,0
    4a84:	961ff06f          	j	43e4 <__adddf3+0x98>
    4a88:	00068493          	mv	s1,a3
    4a8c:	00070793          	mv	a5,a4
    4a90:	00060513          	mv	a0,a2
    4a94:	c59ff06f          	j	46ec <TPG.c.ada37a14+0x116>

00004a98 <__divdf3>:
    4a98:	fd010113          	addi	sp,sp,-48
    4a9c:	01512a23          	sw	s5,20(sp)
    4aa0:	0145da93          	srli	s5,a1,0x14
    4aa4:	02812423          	sw	s0,40(sp)
    4aa8:	02912223          	sw	s1,36(sp)
    4aac:	03212023          	sw	s2,32(sp)
    4ab0:	01312e23          	sw	s3,28(sp)
    4ab4:	01612823          	sw	s6,16(sp)
    4ab8:	01712623          	sw	s7,12(sp)
    4abc:	00050b13          	mv	s6,a0
    4ac0:	00050413          	mv	s0,a0
    4ac4:	00c59493          	slli	s1,a1,0xc
    4ac8:	02112623          	sw	ra,44(sp)
    4acc:	01412c23          	sw	s4,24(sp)
    4ad0:	7ffaf513          	andi	a0,s5,2047
    4ad4:	00060b93          	mv	s7,a2
    4ad8:	00068913          	mv	s2,a3
    4adc:	00c4d493          	srli	s1,s1,0xc
    4ae0:	01f5d993          	srli	s3,a1,0x1f
    4ae4:	38050463          	beqz	a0,4e6c <__divdf3+0x3d4>
    4ae8:	7ff00793          	li	a5,2047
    4aec:	3ef50663          	beq	a0,a5,4ed8 <__divdf3+0x440>
    4af0:	01db5693          	srli	a3,s6,0x1d
    4af4:	00349493          	slli	s1,s1,0x3
    4af8:	0096e6b3          	or	a3,a3,s1
    4afc:	008007b7          	lui	a5,0x800
    4b00:	00f6ea33          	or	s4,a3,a5
    4b04:	003b1413          	slli	s0,s6,0x3
    4b08:	c0150a93          	addi	s5,a0,-1023
    4b0c:	00000b13          	li	s6,0
    4b10:	01495713          	srli	a4,s2,0x14
    4b14:	00c91493          	slli	s1,s2,0xc
    4b18:	7ff77713          	andi	a4,a4,2047
    4b1c:	000b8893          	mv	a7,s7
    4b20:	00c4d493          	srli	s1,s1,0xc
    4b24:	01f95913          	srli	s2,s2,0x1f
    4b28:	3e070463          	beqz	a4,4f10 <__divdf3+0x478>
    4b2c:	7ff00793          	li	a5,2047
    4b30:	44f70663          	beq	a4,a5,4f7c <__divdf3+0x4e4>
    4b34:	01dbd793          	srli	a5,s7,0x1d
    4b38:	00349493          	slli	s1,s1,0x3
    4b3c:	00f4e4b3          	or	s1,s1,a5
    4b40:	008007b7          	lui	a5,0x800
    4b44:	00f4e7b3          	or	a5,s1,a5
    4b48:	003b9893          	slli	a7,s7,0x3
    4b4c:	c0170713          	addi	a4,a4,-1023
    4b50:	00000693          	li	a3,0
    4b54:	40ea8533          	sub	a0,s5,a4
    4b58:	002b1713          	slli	a4,s6,0x2
    4b5c:	00d76733          	or	a4,a4,a3
    4b60:	00700613          	li	a2,7
    4b64:	0129c833          	xor	a6,s3,s2
    4b68:	44e64263          	blt	a2,a4,4fac <__divdf3+0x514>
    4b6c:	00100613          	li	a2,1
    4b70:	60c70463          	beq	a4,a2,5178 <__divdf3+0x6e0>
    4b74:	ffe70593          	addi	a1,a4,-2
    4b78:	00500313          	li	t1,5
    4b7c:	44b37a63          	bgeu	t1,a1,4fd0 <__divdf3+0x538>
    4b80:	0147e663          	bltu	a5,s4,4b8c <__divdf3+0xf4>
    4b84:	4b146063          	bltu	s0,a7,5024 <__divdf3+0x58c>
    4b88:	48fa1e63          	bne	s4,a5,5024 <__divdf3+0x58c>
    4b8c:	01fa1693          	slli	a3,s4,0x1f
    4b90:	00145713          	srli	a4,s0,0x1
    4b94:	01f41293          	slli	t0,s0,0x1f
    4b98:	001a5a13          	srli	s4,s4,0x1
    4b9c:	00e6e433          	or	s0,a3,a4
    4ba0:	00879e13          	slli	t3,a5,0x8
    4ba4:	0188d613          	srli	a2,a7,0x18
    4ba8:	01c66633          	or	a2,a2,t3
    4bac:	010e5e13          	srli	t3,t3,0x10
    4bb0:	03ca57b3          	divu	a5,s4,t3
    4bb4:	01061e93          	slli	t4,a2,0x10
    4bb8:	010ede93          	srli	t4,t4,0x10
    4bbc:	01045713          	srli	a4,s0,0x10
    4bc0:	00889593          	slli	a1,a7,0x8
    4bc4:	03ca76b3          	remu	a3,s4,t3
    4bc8:	02fe8333          	mul	t1,t4,a5
    4bcc:	01069693          	slli	a3,a3,0x10
    4bd0:	00d76733          	or	a4,a4,a3
    4bd4:	00677a63          	bgeu	a4,t1,4be8 <__divdf3+0x150>
    4bd8:	00e60733          	add	a4,a2,a4
    4bdc:	00c76463          	bltu	a4,a2,4be4 <__divdf3+0x14c>
    4be0:	44676863          	bltu	a4,t1,5030 <__divdf3+0x598>
    4be4:	fff78793          	addi	a5,a5,-1 # 7fffff <_sp+0x7d559f>
    4be8:	40670733          	sub	a4,a4,t1
    4bec:	03c75333          	divu	t1,a4,t3
    4bf0:	01041693          	slli	a3,s0,0x10
    4bf4:	0106d693          	srli	a3,a3,0x10
    4bf8:	03c77733          	remu	a4,a4,t3
    4bfc:	026e8f33          	mul	t5,t4,t1
    4c00:	01071713          	slli	a4,a4,0x10
    4c04:	00e6e733          	or	a4,a3,a4
    4c08:	01e77a63          	bgeu	a4,t5,4c1c <__divdf3+0x184>
    4c0c:	00e60733          	add	a4,a2,a4
    4c10:	01e77463          	bgeu	a4,t5,4c18 <__divdf3+0x180>
    4c14:	42c77463          	bgeu	a4,a2,503c <__divdf3+0x5a4>
    4c18:	fff30313          	addi	t1,t1,-1
    4c1c:	01079793          	slli	a5,a5,0x10
    4c20:	0067e7b3          	or	a5,a5,t1
    4c24:	01079693          	slli	a3,a5,0x10
    4c28:	01059f93          	slli	t6,a1,0x10
    4c2c:	0107d393          	srli	t2,a5,0x10
    4c30:	0106d693          	srli	a3,a3,0x10
    4c34:	010fdf93          	srli	t6,t6,0x10
    4c38:	41e70733          	sub	a4,a4,t5
    4c3c:	0105df13          	srli	t5,a1,0x10
    4c40:	03f68433          	mul	s0,a3,t6
    4c44:	03f384b3          	mul	s1,t2,t6
    4c48:	01045313          	srli	t1,s0,0x10
    4c4c:	02df06b3          	mul	a3,t5,a3
    4c50:	03e383b3          	mul	t2,t2,t5
    4c54:	009686b3          	add	a3,a3,s1
    4c58:	00d30333          	add	t1,t1,a3
    4c5c:	00937663          	bgeu	t1,s1,4c68 <__divdf3+0x1d0>
    4c60:	000106b7          	lui	a3,0x10
    4c64:	00d383b3          	add	t2,t2,a3
    4c68:	01035693          	srli	a3,t1,0x10
    4c6c:	01041413          	slli	s0,s0,0x10
    4c70:	01031313          	slli	t1,t1,0x10
    4c74:	01045413          	srli	s0,s0,0x10
    4c78:	007686b3          	add	a3,a3,t2
    4c7c:	00830333          	add	t1,t1,s0
    4c80:	00d76663          	bltu	a4,a3,4c8c <__divdf3+0x1f4>
    4c84:	02d71e63          	bne	a4,a3,4cc0 <__divdf3+0x228>
    4c88:	0262fc63          	bgeu	t0,t1,4cc0 <__divdf3+0x228>
    4c8c:	00b283b3          	add	t2,t0,a1
    4c90:	0053b433          	sltu	s0,t2,t0
    4c94:	00c40933          	add	s2,s0,a2
    4c98:	01270733          	add	a4,a4,s2
    4c9c:	fff78493          	addi	s1,a5,-1
    4ca0:	00038293          	mv	t0,t2
    4ca4:	00e66663          	bltu	a2,a4,4cb0 <__divdf3+0x218>
    4ca8:	00e61a63          	bne	a2,a4,4cbc <__divdf3+0x224>
    4cac:	00041863          	bnez	s0,4cbc <__divdf3+0x224>
    4cb0:	38d76c63          	bltu	a4,a3,5048 <__divdf3+0x5b0>
    4cb4:	0063f463          	bgeu	t2,t1,4cbc <__divdf3+0x224>
    4cb8:	38e68863          	beq	a3,a4,5048 <__divdf3+0x5b0>
    4cbc:	00048793          	mv	a5,s1
    4cc0:	40628333          	sub	t1,t0,t1
    4cc4:	40d70733          	sub	a4,a4,a3
    4cc8:	0062b2b3          	sltu	t0,t0,t1
    4ccc:	40570733          	sub	a4,a4,t0
    4cd0:	fff00413          	li	s0,-1
    4cd4:	0ee60a63          	beq	a2,a4,4dc8 <__divdf3+0x330>
    4cd8:	03c75433          	divu	s0,a4,t3
    4cdc:	01035693          	srli	a3,t1,0x10
    4ce0:	03c77733          	remu	a4,a4,t3
    4ce4:	028e82b3          	mul	t0,t4,s0
    4ce8:	01071713          	slli	a4,a4,0x10
    4cec:	00e6e6b3          	or	a3,a3,a4
    4cf0:	0056fa63          	bgeu	a3,t0,4d04 <__divdf3+0x26c>
    4cf4:	00d606b3          	add	a3,a2,a3
    4cf8:	0056f463          	bgeu	a3,t0,4d00 <__divdf3+0x268>
    4cfc:	36c6f263          	bgeu	a3,a2,5060 <__divdf3+0x5c8>
    4d00:	fff40413          	addi	s0,s0,-1
    4d04:	405686b3          	sub	a3,a3,t0
    4d08:	03c6d2b3          	divu	t0,a3,t3
    4d0c:	01031713          	slli	a4,t1,0x10
    4d10:	01075713          	srli	a4,a4,0x10
    4d14:	03c6f6b3          	remu	a3,a3,t3
    4d18:	025e8eb3          	mul	t4,t4,t0
    4d1c:	01069693          	slli	a3,a3,0x10
    4d20:	00d76733          	or	a4,a4,a3
    4d24:	01d77a63          	bgeu	a4,t4,4d38 <__divdf3+0x2a0>
    4d28:	00e60733          	add	a4,a2,a4
    4d2c:	01d77463          	bgeu	a4,t4,4d34 <__divdf3+0x29c>
    4d30:	32c77e63          	bgeu	a4,a2,506c <__divdf3+0x5d4>
    4d34:	fff28293          	addi	t0,t0,-1
    4d38:	01041413          	slli	s0,s0,0x10
    4d3c:	00546433          	or	s0,s0,t0
    4d40:	01041693          	slli	a3,s0,0x10
    4d44:	0106d693          	srli	a3,a3,0x10
    4d48:	01045e13          	srli	t3,s0,0x10
    4d4c:	41d70733          	sub	a4,a4,t4
    4d50:	02df8eb3          	mul	t4,t6,a3
    4d54:	03cf8fb3          	mul	t6,t6,t3
    4d58:	03cf0e33          	mul	t3,t5,t3
    4d5c:	02df0f33          	mul	t5,t5,a3
    4d60:	010ed693          	srli	a3,t4,0x10
    4d64:	01ff0f33          	add	t5,t5,t6
    4d68:	01e686b3          	add	a3,a3,t5
    4d6c:	01f6f663          	bgeu	a3,t6,4d78 <__divdf3+0x2e0>
    4d70:	00010337          	lui	t1,0x10
    4d74:	006e0e33          	add	t3,t3,t1
    4d78:	0106d313          	srli	t1,a3,0x10
    4d7c:	010e9e93          	slli	t4,t4,0x10
    4d80:	01069693          	slli	a3,a3,0x10
    4d84:	010ede93          	srli	t4,t4,0x10
    4d88:	01c30333          	add	t1,t1,t3
    4d8c:	01d686b3          	add	a3,a3,t4
    4d90:	00676663          	bltu	a4,t1,4d9c <__divdf3+0x304>
    4d94:	30671463          	bne	a4,t1,509c <__divdf3+0x604>
    4d98:	2e068c63          	beqz	a3,5090 <__divdf3+0x5f8>
    4d9c:	00e60e33          	add	t3,a2,a4
    4da0:	fff40e93          	addi	t4,s0,-1
    4da4:	000e0713          	mv	a4,t3
    4da8:	00ce6863          	bltu	t3,a2,4db8 <__divdf3+0x320>
    4dac:	2c6e6663          	bltu	t3,t1,5078 <__divdf3+0x5e0>
    4db0:	2e6e1463          	bne	t3,t1,5098 <__divdf3+0x600>
    4db4:	2cd5e263          	bltu	a1,a3,5078 <__divdf3+0x5e0>
    4db8:	00058893          	mv	a7,a1
    4dbc:	000e8413          	mv	s0,t4
    4dc0:	2cd89e63          	bne	a7,a3,509c <__divdf3+0x604>
    4dc4:	2c671c63          	bne	a4,t1,509c <__divdf3+0x604>
    4dc8:	3ff50713          	addi	a4,a0,1023
    4dcc:	2ee05463          	blez	a4,50b4 <__divdf3+0x61c>
    4dd0:	00747693          	andi	a3,s0,7
    4dd4:	02068063          	beqz	a3,4df4 <__divdf3+0x35c>
    4dd8:	00f47693          	andi	a3,s0,15
    4ddc:	00400613          	li	a2,4
    4de0:	00c68a63          	beq	a3,a2,4df4 <__divdf3+0x35c>
    4de4:	00c406b3          	add	a3,s0,a2
    4de8:	0086b633          	sltu	a2,a3,s0
    4dec:	00c787b3          	add	a5,a5,a2
    4df0:	00068413          	mv	s0,a3
    4df4:	00779693          	slli	a3,a5,0x7
    4df8:	0006da63          	bgez	a3,4e0c <__divdf3+0x374>
    4dfc:	ff000737          	lui	a4,0xff000
    4e00:	fff70713          	addi	a4,a4,-1 # feffffff <_sp+0xfefd559f>
    4e04:	00e7f7b3          	and	a5,a5,a4
    4e08:	40050713          	addi	a4,a0,1024
    4e0c:	7fe00693          	li	a3,2046
    4e10:	36e6c463          	blt	a3,a4,5178 <__divdf3+0x6e0>
    4e14:	01d79613          	slli	a2,a5,0x1d
    4e18:	00345413          	srli	s0,s0,0x3
    4e1c:	00866633          	or	a2,a2,s0
    4e20:	0037d793          	srli	a5,a5,0x3
    4e24:	02c12083          	lw	ra,44(sp)
    4e28:	02812403          	lw	s0,40(sp)
    4e2c:	00c79793          	slli	a5,a5,0xc
    4e30:	01471713          	slli	a4,a4,0x14
    4e34:	00c7d793          	srli	a5,a5,0xc
    4e38:	00f76733          	or	a4,a4,a5
    4e3c:	01f81813          	slli	a6,a6,0x1f
    4e40:	02412483          	lw	s1,36(sp)
    4e44:	02012903          	lw	s2,32(sp)
    4e48:	01c12983          	lw	s3,28(sp)
    4e4c:	01812a03          	lw	s4,24(sp)
    4e50:	01412a83          	lw	s5,20(sp)
    4e54:	01012b03          	lw	s6,16(sp)
    4e58:	00c12b83          	lw	s7,12(sp)
    4e5c:	00060513          	mv	a0,a2
    4e60:	010765b3          	or	a1,a4,a6
    4e64:	03010113          	addi	sp,sp,48
    4e68:	00008067          	ret
    4e6c:	0164ea33          	or	s4,s1,s6
    4e70:	080a0063          	beqz	s4,4ef0 <__divdf3+0x458>
    4e74:	04048063          	beqz	s1,4eb4 <__divdf3+0x41c>
    4e78:	00048513          	mv	a0,s1
    4e7c:	0a8010ef          	jal	5f24 <__clzsi2>
    4e80:	00050793          	mv	a5,a0
    4e84:	ff550713          	addi	a4,a0,-11
    4e88:	01d00693          	li	a3,29
    4e8c:	ff878613          	addi	a2,a5,-8
    4e90:	40e686b3          	sub	a3,a3,a4
    4e94:	00c494b3          	sll	s1,s1,a2
    4e98:	00db56b3          	srl	a3,s6,a3
    4e9c:	0096ea33          	or	s4,a3,s1
    4ea0:	00cb14b3          	sll	s1,s6,a2
    4ea4:	c0d00513          	li	a0,-1011
    4ea8:	40f50ab3          	sub	s5,a0,a5
    4eac:	00048413          	mv	s0,s1
    4eb0:	c5dff06f          	j	4b0c <__divdf3+0x74>
    4eb4:	000b0513          	mv	a0,s6
    4eb8:	06c010ef          	jal	5f24 <__clzsi2>
    4ebc:	01550713          	addi	a4,a0,21
    4ec0:	01c00693          	li	a3,28
    4ec4:	02050793          	addi	a5,a0,32
    4ec8:	fce6d0e3          	bge	a3,a4,4e88 <__divdf3+0x3f0>
    4ecc:	ff850693          	addi	a3,a0,-8
    4ed0:	00db1a33          	sll	s4,s6,a3
    4ed4:	fd1ff06f          	j	4ea4 <__divdf3+0x40c>
    4ed8:	0164ea33          	or	s4,s1,s6
    4edc:	020a1263          	bnez	s4,4f00 <__divdf3+0x468>
    4ee0:	00000413          	li	s0,0
    4ee4:	00050a93          	mv	s5,a0
    4ee8:	00200b13          	li	s6,2
    4eec:	c25ff06f          	j	4b10 <__divdf3+0x78>
    4ef0:	00000413          	li	s0,0
    4ef4:	00000a93          	li	s5,0
    4ef8:	00100b13          	li	s6,1
    4efc:	c15ff06f          	j	4b10 <__divdf3+0x78>
    4f00:	00048a13          	mv	s4,s1
    4f04:	00050a93          	mv	s5,a0
    4f08:	00300b13          	li	s6,3
    4f0c:	c05ff06f          	j	4b10 <__divdf3+0x78>
    4f10:	0174e7b3          	or	a5,s1,s7
    4f14:	06078e63          	beqz	a5,4f90 <__divdf3+0x4f8>
    4f18:	04048063          	beqz	s1,4f58 <__divdf3+0x4c0>
    4f1c:	00048513          	mv	a0,s1
    4f20:	004010ef          	jal	5f24 <__clzsi2>
    4f24:	00050693          	mv	a3,a0
    4f28:	ff550713          	addi	a4,a0,-11
    4f2c:	01d00793          	li	a5,29
    4f30:	ff868613          	addi	a2,a3,-8 # fff8 <heap.cpp.6b15d6f6+0x3021>
    4f34:	40e787b3          	sub	a5,a5,a4
    4f38:	00c494b3          	sll	s1,s1,a2
    4f3c:	00fbd7b3          	srl	a5,s7,a5
    4f40:	0097e7b3          	or	a5,a5,s1
    4f44:	00cb94b3          	sll	s1,s7,a2
    4f48:	c0d00713          	li	a4,-1011
    4f4c:	40d70733          	sub	a4,a4,a3
    4f50:	00048893          	mv	a7,s1
    4f54:	bfdff06f          	j	4b50 <__divdf3+0xb8>
    4f58:	000b8513          	mv	a0,s7
    4f5c:	7c9000ef          	jal	5f24 <__clzsi2>
    4f60:	01550713          	addi	a4,a0,21
    4f64:	01c00793          	li	a5,28
    4f68:	02050693          	addi	a3,a0,32
    4f6c:	fce7d0e3          	bge	a5,a4,4f2c <__divdf3+0x494>
    4f70:	ff850793          	addi	a5,a0,-8
    4f74:	00fb97b3          	sll	a5,s7,a5
    4f78:	fd1ff06f          	j	4f48 <__divdf3+0x4b0>
    4f7c:	0174e7b3          	or	a5,s1,s7
    4f80:	02079063          	bnez	a5,4fa0 <__divdf3+0x508>
    4f84:	00000893          	li	a7,0
    4f88:	00200693          	li	a3,2
    4f8c:	bc9ff06f          	j	4b54 <__divdf3+0xbc>
    4f90:	00000893          	li	a7,0
    4f94:	00000713          	li	a4,0
    4f98:	00100693          	li	a3,1
    4f9c:	bb9ff06f          	j	4b54 <__divdf3+0xbc>
    4fa0:	00048793          	mv	a5,s1
    4fa4:	00300693          	li	a3,3
    4fa8:	badff06f          	j	4b54 <__divdf3+0xbc>
    4fac:	ff670713          	addi	a4,a4,-10
    4fb0:	00500613          	li	a2,5
    4fb4:	1ce66263          	bltu	a2,a4,5178 <__divdf3+0x6e0>
    4fb8:	00020637          	lui	a2,0x20
    4fbc:	00271713          	slli	a4,a4,0x2
    4fc0:	16c60613          	addi	a2,a2,364 # 2016c <next.12+0x64>
    4fc4:	00c70733          	add	a4,a4,a2
    4fc8:	00072703          	lw	a4,0(a4)
    4fcc:	00070067          	jr	a4
    4fd0:	00e61633          	sll	a2,a2,a4
    4fd4:	05467593          	andi	a1,a2,84
    4fd8:	04059063          	bnez	a1,5018 <__divdf3+0x580>
    4fdc:	08867613          	andi	a2,a2,136
    4fe0:	0c061263          	bnez	a2,50a4 <__divdf3+0x60c>
    4fe4:	b8671ee3          	bne	a4,t1,4b80 <__divdf3+0xe8>
    4fe8:	000807b7          	lui	a5,0x80
    4fec:	7ff00713          	li	a4,2047
    4ff0:	00000813          	li	a6,0
    4ff4:	e31ff06f          	j	4e24 <__divdf3+0x38c>
    4ff8:	00098813          	mv	a6,s3
    4ffc:	000a0793          	mv	a5,s4
    5000:	00200713          	li	a4,2
    5004:	16eb0a63          	beq	s6,a4,5178 <__divdf3+0x6e0>
    5008:	00300713          	li	a4,3
    500c:	16eb0063          	beq	s6,a4,516c <__divdf3+0x6d4>
    5010:	00100713          	li	a4,1
    5014:	daeb1ae3          	bne	s6,a4,4dc8 <__divdf3+0x330>
    5018:	00000793          	li	a5,0
    501c:	00000613          	li	a2,0
    5020:	10c0006f          	j	512c <__divdf3+0x694>
    5024:	fff50513          	addi	a0,a0,-1
    5028:	00000293          	li	t0,0
    502c:	b75ff06f          	j	4ba0 <__divdf3+0x108>
    5030:	ffe78793          	addi	a5,a5,-2 # 7fffe <_sp+0x5559e>
    5034:	00c70733          	add	a4,a4,a2
    5038:	bb1ff06f          	j	4be8 <__divdf3+0x150>
    503c:	ffe30313          	addi	t1,t1,-2 # fffe <heap.cpp.6b15d6f6+0x3027>
    5040:	00c70733          	add	a4,a4,a2
    5044:	bd9ff06f          	j	4c1c <__divdf3+0x184>
    5048:	007582b3          	add	t0,a1,t2
    504c:	00b2b3b3          	sltu	t2,t0,a1
    5050:	00c383b3          	add	t2,t2,a2
    5054:	ffe78793          	addi	a5,a5,-2
    5058:	00770733          	add	a4,a4,t2
    505c:	c65ff06f          	j	4cc0 <__divdf3+0x228>
    5060:	ffe40413          	addi	s0,s0,-2
    5064:	00c686b3          	add	a3,a3,a2
    5068:	c9dff06f          	j	4d04 <__divdf3+0x26c>
    506c:	ffe28293          	addi	t0,t0,-2
    5070:	00c70733          	add	a4,a4,a2
    5074:	cc5ff06f          	j	4d38 <__divdf3+0x2a0>
    5078:	00989893          	slli	a7,a7,0x9
    507c:	00b8b5b3          	sltu	a1,a7,a1
    5080:	00c585b3          	add	a1,a1,a2
    5084:	ffe40413          	addi	s0,s0,-2
    5088:	00be0733          	add	a4,t3,a1
    508c:	d35ff06f          	j	4dc0 <__divdf3+0x328>
    5090:	00000893          	li	a7,0
    5094:	d2dff06f          	j	4dc0 <__divdf3+0x328>
    5098:	000e8413          	mv	s0,t4
    509c:	00146413          	ori	s0,s0,1
    50a0:	d29ff06f          	j	4dc8 <__divdf3+0x330>
    50a4:	00090813          	mv	a6,s2
    50a8:	00088413          	mv	s0,a7
    50ac:	00068b13          	mv	s6,a3
    50b0:	f51ff06f          	j	5000 <__divdf3+0x568>
    50b4:	08070063          	beqz	a4,5134 <__divdf3+0x69c>
    50b8:	fc900693          	li	a3,-55
    50bc:	f4d74ee3          	blt	a4,a3,5018 <__divdf3+0x580>
    50c0:	fe200693          	li	a3,-30
    50c4:	06d74c63          	blt	a4,a3,513c <__divdf3+0x6a4>
    50c8:	00100693          	li	a3,1
    50cc:	40e686b3          	sub	a3,a3,a4
    50d0:	41e50513          	addi	a0,a0,1054
    50d4:	00d45733          	srl	a4,s0,a3
    50d8:	00a41433          	sll	s0,s0,a0
    50dc:	00803433          	snez	s0,s0
    50e0:	00a79533          	sll	a0,a5,a0
    50e4:	00a46433          	or	s0,s0,a0
    50e8:	00876733          	or	a4,a4,s0
    50ec:	00d7d7b3          	srl	a5,a5,a3
    50f0:	00777693          	andi	a3,a4,7
    50f4:	02068063          	beqz	a3,5114 <__divdf3+0x67c>
    50f8:	00f77693          	andi	a3,a4,15
    50fc:	00400613          	li	a2,4
    5100:	00c68a63          	beq	a3,a2,5114 <__divdf3+0x67c>
    5104:	00c706b3          	add	a3,a4,a2
    5108:	00e6b633          	sltu	a2,a3,a4
    510c:	00c787b3          	add	a5,a5,a2
    5110:	00068713          	mv	a4,a3
    5114:	00879693          	slli	a3,a5,0x8
    5118:	0606c863          	bltz	a3,5188 <__divdf3+0x6f0>
    511c:	01d79613          	slli	a2,a5,0x1d
    5120:	00375713          	srli	a4,a4,0x3
    5124:	00e66633          	or	a2,a2,a4
    5128:	0037d793          	srli	a5,a5,0x3
    512c:	00000713          	li	a4,0
    5130:	cf5ff06f          	j	4e24 <__divdf3+0x38c>
    5134:	00100693          	li	a3,1
    5138:	f99ff06f          	j	50d0 <__divdf3+0x638>
    513c:	fe100593          	li	a1,-31
    5140:	40e586b3          	sub	a3,a1,a4
    5144:	00d7d6b3          	srl	a3,a5,a3
    5148:	00000613          	li	a2,0
    514c:	00b70663          	beq	a4,a1,5158 <__divdf3+0x6c0>
    5150:	43e50513          	addi	a0,a0,1086
    5154:	00a79633          	sll	a2,a5,a0
    5158:	00866633          	or	a2,a2,s0
    515c:	00c03633          	snez	a2,a2
    5160:	00c6e733          	or	a4,a3,a2
    5164:	00000793          	li	a5,0
    5168:	f89ff06f          	j	50f0 <__divdf3+0x658>
    516c:	000807b7          	lui	a5,0x80
    5170:	00000613          	li	a2,0
    5174:	e79ff06f          	j	4fec <__divdf3+0x554>
    5178:	00000793          	li	a5,0
    517c:	00000613          	li	a2,0
    5180:	7ff00713          	li	a4,2047
    5184:	ca1ff06f          	j	4e24 <__divdf3+0x38c>
    5188:	00000793          	li	a5,0
    518c:	00000613          	li	a2,0
    5190:	00100713          	li	a4,1
    5194:	c91ff06f          	j	4e24 <__divdf3+0x38c>

00005198 <__muldf3>:
    5198:	fd010113          	addi	sp,sp,-48
    519c:	01412c23          	sw	s4,24(sp)
    51a0:	0145da13          	srli	s4,a1,0x14
    51a4:	02812423          	sw	s0,40(sp)
    51a8:	02912223          	sw	s1,36(sp)
    51ac:	01312e23          	sw	s3,28(sp)
    51b0:	01512a23          	sw	s5,20(sp)
    51b4:	01712623          	sw	s7,12(sp)
    51b8:	00c59493          	slli	s1,a1,0xc
    51bc:	02112623          	sw	ra,44(sp)
    51c0:	03212023          	sw	s2,32(sp)
    51c4:	01612823          	sw	s6,16(sp)
    51c8:	7ffa7a13          	andi	s4,s4,2047
    51cc:	00050413          	mv	s0,a0
    51d0:	00060b93          	mv	s7,a2
    51d4:	00068993          	mv	s3,a3
    51d8:	00c4d493          	srli	s1,s1,0xc
    51dc:	01f5da93          	srli	s5,a1,0x1f
    51e0:	0c0a0263          	beqz	s4,52a4 <__muldf3+0x10c>
    51e4:	7ff00793          	li	a5,2047
    51e8:	12fa0463          	beq	s4,a5,5310 <__muldf3+0x178>
    51ec:	00349493          	slli	s1,s1,0x3
    51f0:	01d55793          	srli	a5,a0,0x1d
    51f4:	0097e7b3          	or	a5,a5,s1
    51f8:	008004b7          	lui	s1,0x800
    51fc:	0097e4b3          	or	s1,a5,s1
    5200:	00351913          	slli	s2,a0,0x3
    5204:	c01a0a13          	addi	s4,s4,-1023
    5208:	00000b13          	li	s6,0
    520c:	0149d713          	srli	a4,s3,0x14
    5210:	00c99413          	slli	s0,s3,0xc
    5214:	7ff77713          	andi	a4,a4,2047
    5218:	00c45413          	srli	s0,s0,0xc
    521c:	01f9d993          	srli	s3,s3,0x1f
    5220:	12070063          	beqz	a4,5340 <__muldf3+0x1a8>
    5224:	7ff00793          	li	a5,2047
    5228:	18f70463          	beq	a4,a5,53b0 <__muldf3+0x218>
    522c:	00341413          	slli	s0,s0,0x3
    5230:	01dbd793          	srli	a5,s7,0x1d
    5234:	0087e7b3          	or	a5,a5,s0
    5238:	00800437          	lui	s0,0x800
    523c:	0087e433          	or	s0,a5,s0
    5240:	c0170713          	addi	a4,a4,-1023
    5244:	003b9793          	slli	a5,s7,0x3
    5248:	00000813          	li	a6,0
    524c:	00ea0a33          	add	s4,s4,a4
    5250:	002b1713          	slli	a4,s6,0x2
    5254:	01076733          	or	a4,a4,a6
    5258:	00b00693          	li	a3,11
    525c:	001a0513          	addi	a0,s4,1
    5260:	1ae6c663          	blt	a3,a4,540c <__muldf3+0x274>
    5264:	00200613          	li	a2,2
    5268:	013ac5b3          	xor	a1,s5,s3
    526c:	00100693          	li	a3,1
    5270:	16e64863          	blt	a2,a4,53e0 <__muldf3+0x248>
    5274:	fff70713          	addi	a4,a4,-1
    5278:	1ae6ea63          	bltu	a3,a4,542c <__muldf3+0x294>
    527c:	00080b13          	mv	s6,a6
    5280:	00200713          	li	a4,2
    5284:	4ceb0e63          	beq	s6,a4,5760 <__muldf3+0x5c8>
    5288:	00300713          	li	a4,3
    528c:	18eb0663          	beq	s6,a4,5418 <__muldf3+0x280>
    5290:	00100713          	li	a4,1
    5294:	34eb1863          	bne	s6,a4,55e4 <__muldf3+0x44c>
    5298:	00000413          	li	s0,0
    529c:	00000613          	li	a2,0
    52a0:	4800006f          	j	5720 <__muldf3+0x588>
    52a4:	00a4e933          	or	s2,s1,a0
    52a8:	06090e63          	beqz	s2,5324 <__muldf3+0x18c>
    52ac:	04048263          	beqz	s1,52f0 <__muldf3+0x158>
    52b0:	00048513          	mv	a0,s1
    52b4:	471000ef          	jal	5f24 <__clzsi2>
    52b8:	00050713          	mv	a4,a0
    52bc:	ff550693          	addi	a3,a0,-11
    52c0:	01d00793          	li	a5,29
    52c4:	ff870613          	addi	a2,a4,-8
    52c8:	40d787b3          	sub	a5,a5,a3
    52cc:	00c494b3          	sll	s1,s1,a2
    52d0:	00f457b3          	srl	a5,s0,a5
    52d4:	0097e7b3          	or	a5,a5,s1
    52d8:	00c414b3          	sll	s1,s0,a2
    52dc:	c0d00a13          	li	s4,-1011
    52e0:	00048913          	mv	s2,s1
    52e4:	40ea0a33          	sub	s4,s4,a4
    52e8:	00078493          	mv	s1,a5
    52ec:	f1dff06f          	j	5208 <__muldf3+0x70>
    52f0:	435000ef          	jal	5f24 <__clzsi2>
    52f4:	01550693          	addi	a3,a0,21
    52f8:	01c00793          	li	a5,28
    52fc:	02050713          	addi	a4,a0,32
    5300:	fcd7d0e3          	bge	a5,a3,52c0 <__muldf3+0x128>
    5304:	ff850793          	addi	a5,a0,-8
    5308:	00f417b3          	sll	a5,s0,a5
    530c:	fd1ff06f          	j	52dc <__muldf3+0x144>
    5310:	00a4e933          	or	s2,s1,a0
    5314:	02091063          	bnez	s2,5334 <__muldf3+0x19c>
    5318:	00000493          	li	s1,0
    531c:	00200b13          	li	s6,2
    5320:	eedff06f          	j	520c <__muldf3+0x74>
    5324:	00000493          	li	s1,0
    5328:	00000a13          	li	s4,0
    532c:	00100b13          	li	s6,1
    5330:	eddff06f          	j	520c <__muldf3+0x74>
    5334:	00050913          	mv	s2,a0
    5338:	00300b13          	li	s6,3
    533c:	ed1ff06f          	j	520c <__muldf3+0x74>
    5340:	017467b3          	or	a5,s0,s7
    5344:	08078063          	beqz	a5,53c4 <__muldf3+0x22c>
    5348:	04040263          	beqz	s0,538c <__muldf3+0x1f4>
    534c:	00040513          	mv	a0,s0
    5350:	3d5000ef          	jal	5f24 <__clzsi2>
    5354:	00050793          	mv	a5,a0
    5358:	ff550713          	addi	a4,a0,-11
    535c:	01d00693          	li	a3,29
    5360:	ff878613          	addi	a2,a5,-8 # 7fff8 <_sp+0x55598>
    5364:	40e686b3          	sub	a3,a3,a4
    5368:	00c41433          	sll	s0,s0,a2
    536c:	00dbd6b3          	srl	a3,s7,a3
    5370:	0086e6b3          	or	a3,a3,s0
    5374:	00cb9433          	sll	s0,s7,a2
    5378:	c0d00713          	li	a4,-1011
    537c:	40f70733          	sub	a4,a4,a5
    5380:	00040793          	mv	a5,s0
    5384:	00068413          	mv	s0,a3
    5388:	ec1ff06f          	j	5248 <__muldf3+0xb0>
    538c:	000b8513          	mv	a0,s7
    5390:	395000ef          	jal	5f24 <__clzsi2>
    5394:	01550713          	addi	a4,a0,21
    5398:	01c00693          	li	a3,28
    539c:	02050793          	addi	a5,a0,32
    53a0:	fae6dee3          	bge	a3,a4,535c <__muldf3+0x1c4>
    53a4:	ff850693          	addi	a3,a0,-8
    53a8:	00db96b3          	sll	a3,s7,a3
    53ac:	fcdff06f          	j	5378 <__muldf3+0x1e0>
    53b0:	017467b3          	or	a5,s0,s7
    53b4:	02079063          	bnez	a5,53d4 <__muldf3+0x23c>
    53b8:	00000413          	li	s0,0
    53bc:	00200813          	li	a6,2
    53c0:	e8dff06f          	j	524c <__muldf3+0xb4>
    53c4:	00000413          	li	s0,0
    53c8:	00000713          	li	a4,0
    53cc:	00100813          	li	a6,1
    53d0:	e7dff06f          	j	524c <__muldf3+0xb4>
    53d4:	000b8793          	mv	a5,s7
    53d8:	00300813          	li	a6,3
    53dc:	e71ff06f          	j	524c <__muldf3+0xb4>
    53e0:	00e69733          	sll	a4,a3,a4
    53e4:	53077693          	andi	a3,a4,1328
    53e8:	2a069663          	bnez	a3,5694 <__muldf3+0x4fc>
    53ec:	00001637          	lui	a2,0x1
    53f0:	88860613          	addi	a2,a2,-1912 # 888 <spi_event_handler+0x198>
    53f4:	00c77633          	and	a2,a4,a2
    53f8:	28061a63          	bnez	a2,568c <__muldf3+0x4f4>
    53fc:	24077713          	andi	a4,a4,576
    5400:	02070663          	beqz	a4,542c <__muldf3+0x294>
    5404:	00080437          	lui	s0,0x80
    5408:	0180006f          	j	5420 <__muldf3+0x288>
    540c:	00f00793          	li	a5,15
    5410:	000a8593          	mv	a1,s5
    5414:	28f71063          	bne	a4,a5,5694 <__muldf3+0x4fc>
    5418:	00080437          	lui	s0,0x80
    541c:	00000613          	li	a2,0
    5420:	7ff00713          	li	a4,2047
    5424:	00000593          	li	a1,0
    5428:	2180006f          	j	5640 <__muldf3+0x4a8>
    542c:	01095893          	srli	a7,s2,0x10
    5430:	01079e13          	slli	t3,a5,0x10
    5434:	01091913          	slli	s2,s2,0x10
    5438:	0107d613          	srli	a2,a5,0x10
    543c:	01095913          	srli	s2,s2,0x10
    5440:	010e5e13          	srli	t3,t3,0x10
    5444:	03c907b3          	mul	a5,s2,t3
    5448:	03c88333          	mul	t1,a7,t3
    544c:	0107d813          	srli	a6,a5,0x10
    5450:	03260733          	mul	a4,a2,s2
    5454:	02c886b3          	mul	a3,a7,a2
    5458:	00670733          	add	a4,a4,t1
    545c:	00e80833          	add	a6,a6,a4
    5460:	00687663          	bgeu	a6,t1,546c <__muldf3+0x2d4>
    5464:	00010737          	lui	a4,0x10
    5468:	00e686b3          	add	a3,a3,a4
    546c:	01045713          	srli	a4,s0,0x10
    5470:	01079793          	slli	a5,a5,0x10
    5474:	01041413          	slli	s0,s0,0x10
    5478:	0107d793          	srli	a5,a5,0x10
    547c:	01045413          	srli	s0,s0,0x10
    5480:	01085f93          	srli	t6,a6,0x10
    5484:	01081813          	slli	a6,a6,0x10
    5488:	02890f33          	mul	t5,s2,s0
    548c:	00f80833          	add	a6,a6,a5
    5490:	02e90933          	mul	s2,s2,a4
    5494:	010f5313          	srli	t1,t5,0x10
    5498:	028887b3          	mul	a5,a7,s0
    549c:	02e888b3          	mul	a7,a7,a4
    54a0:	00f90933          	add	s2,s2,a5
    54a4:	01230333          	add	t1,t1,s2
    54a8:	00f37663          	bgeu	t1,a5,54b4 <__muldf3+0x31c>
    54ac:	000107b7          	lui	a5,0x10
    54b0:	00f888b3          	add	a7,a7,a5
    54b4:	010f1f13          	slli	t5,t5,0x10
    54b8:	010f5f13          	srli	t5,t5,0x10
    54bc:	01031793          	slli	a5,t1,0x10
    54c0:	01e787b3          	add	a5,a5,t5
    54c4:	0104df13          	srli	t5,s1,0x10
    54c8:	01049493          	slli	s1,s1,0x10
    54cc:	0104d493          	srli	s1,s1,0x10
    54d0:	029e02b3          	mul	t0,t3,s1
    54d4:	01035e93          	srli	t4,t1,0x10
    54d8:	011e8eb3          	add	t4,t4,a7
    54dc:	00ff8fb3          	add	t6,t6,a5
    54e0:	03ee0e33          	mul	t3,t3,t5
    54e4:	0102d893          	srli	a7,t0,0x10
    54e8:	03e603b3          	mul	t2,a2,t5
    54ec:	02960633          	mul	a2,a2,s1
    54f0:	01c60633          	add	a2,a2,t3
    54f4:	00c888b3          	add	a7,a7,a2
    54f8:	01c8f663          	bgeu	a7,t3,5504 <__muldf3+0x36c>
    54fc:	00010637          	lui	a2,0x10
    5500:	00c383b3          	add	t2,t2,a2
    5504:	02940633          	mul	a2,s0,s1
    5508:	01029293          	slli	t0,t0,0x10
    550c:	0108d313          	srli	t1,a7,0x10
    5510:	0102d293          	srli	t0,t0,0x10
    5514:	01089893          	slli	a7,a7,0x10
    5518:	00730333          	add	t1,t1,t2
    551c:	005888b3          	add	a7,a7,t0
    5520:	03e40433          	mul	s0,s0,t5
    5524:	01065e13          	srli	t3,a2,0x10
    5528:	03e70f33          	mul	t5,a4,t5
    552c:	02970733          	mul	a4,a4,s1
    5530:	00870733          	add	a4,a4,s0
    5534:	00ee0e33          	add	t3,t3,a4
    5538:	008e7663          	bgeu	t3,s0,5544 <__muldf3+0x3ac>
    553c:	00010737          	lui	a4,0x10
    5540:	00ef0f33          	add	t5,t5,a4
    5544:	01061613          	slli	a2,a2,0x10
    5548:	010e1713          	slli	a4,t3,0x10
    554c:	01065613          	srli	a2,a2,0x10
    5550:	01f686b3          	add	a3,a3,t6
    5554:	00c70733          	add	a4,a4,a2
    5558:	01d70eb3          	add	t4,a4,t4
    555c:	00f6b7b3          	sltu	a5,a3,a5
    5560:	00fe87b3          	add	a5,t4,a5
    5564:	011688b3          	add	a7,a3,a7
    5568:	00678333          	add	t1,a5,t1
    556c:	00d8b6b3          	sltu	a3,a7,a3
    5570:	00eeb633          	sltu	a2,t4,a4
    5574:	00d306b3          	add	a3,t1,a3
    5578:	01d7beb3          	sltu	t4,a5,t4
    557c:	00f33733          	sltu	a4,t1,a5
    5580:	01d66633          	or	a2,a2,t4
    5584:	0066b333          	sltu	t1,a3,t1
    5588:	010e5e13          	srli	t3,t3,0x10
    558c:	00989793          	slli	a5,a7,0x9
    5590:	01c60633          	add	a2,a2,t3
    5594:	00676733          	or	a4,a4,t1
    5598:	00c70733          	add	a4,a4,a2
    559c:	0107e7b3          	or	a5,a5,a6
    55a0:	01e70733          	add	a4,a4,t5
    55a4:	00f037b3          	snez	a5,a5
    55a8:	0178d893          	srli	a7,a7,0x17
    55ac:	00971713          	slli	a4,a4,0x9
    55b0:	0176d413          	srli	s0,a3,0x17
    55b4:	0117e7b3          	or	a5,a5,a7
    55b8:	00969693          	slli	a3,a3,0x9
    55bc:	00d7e7b3          	or	a5,a5,a3
    55c0:	00771693          	slli	a3,a4,0x7
    55c4:	00876433          	or	s0,a4,s0
    55c8:	0c06dc63          	bgez	a3,56a0 <__muldf3+0x508>
    55cc:	0017d713          	srli	a4,a5,0x1
    55d0:	0017f793          	andi	a5,a5,1
    55d4:	00f76733          	or	a4,a4,a5
    55d8:	01f41793          	slli	a5,s0,0x1f
    55dc:	00f767b3          	or	a5,a4,a5
    55e0:	00145413          	srli	s0,s0,0x1
    55e4:	3ff50713          	addi	a4,a0,1023
    55e8:	0ce05063          	blez	a4,56a8 <__muldf3+0x510>
    55ec:	0077f693          	andi	a3,a5,7
    55f0:	02068063          	beqz	a3,5610 <__muldf3+0x478>
    55f4:	00f7f693          	andi	a3,a5,15
    55f8:	00400613          	li	a2,4
    55fc:	00c68a63          	beq	a3,a2,5610 <__muldf3+0x478>
    5600:	00c786b3          	add	a3,a5,a2
    5604:	00f6b633          	sltu	a2,a3,a5
    5608:	00c40433          	add	s0,s0,a2
    560c:	00068793          	mv	a5,a3
    5610:	00741693          	slli	a3,s0,0x7
    5614:	0006da63          	bgez	a3,5628 <__muldf3+0x490>
    5618:	ff000737          	lui	a4,0xff000
    561c:	fff70713          	addi	a4,a4,-1 # feffffff <_sp+0xfefd559f>
    5620:	00e47433          	and	s0,s0,a4
    5624:	40050713          	addi	a4,a0,1024
    5628:	7fe00693          	li	a3,2046
    562c:	12e6ca63          	blt	a3,a4,5760 <__muldf3+0x5c8>
    5630:	01d41613          	slli	a2,s0,0x1d
    5634:	0037d793          	srli	a5,a5,0x3
    5638:	00f66633          	or	a2,a2,a5
    563c:	00345413          	srli	s0,s0,0x3
    5640:	00c41413          	slli	s0,s0,0xc
    5644:	00c45413          	srli	s0,s0,0xc
    5648:	01471713          	slli	a4,a4,0x14
    564c:	02c12083          	lw	ra,44(sp)
    5650:	00876733          	or	a4,a4,s0
    5654:	02812403          	lw	s0,40(sp)
    5658:	01f59593          	slli	a1,a1,0x1f
    565c:	00b767b3          	or	a5,a4,a1
    5660:	02412483          	lw	s1,36(sp)
    5664:	02012903          	lw	s2,32(sp)
    5668:	01c12983          	lw	s3,28(sp)
    566c:	01812a03          	lw	s4,24(sp)
    5670:	01412a83          	lw	s5,20(sp)
    5674:	01012b03          	lw	s6,16(sp)
    5678:	00c12b83          	lw	s7,12(sp)
    567c:	00060513          	mv	a0,a2
    5680:	00078593          	mv	a1,a5
    5684:	03010113          	addi	sp,sp,48
    5688:	00008067          	ret
    568c:	00098593          	mv	a1,s3
    5690:	bedff06f          	j	527c <__muldf3+0xe4>
    5694:	00048413          	mv	s0,s1
