
sw/build/main.elf:     file format elf32-littleriscv


Disassembly of section .vectors:

00000000 <__vector_start>:
   0:	7090706f          	j	7f08 <handler_exception>
   4:	22c0006f          	j	230 <__no_irq_handler>
   8:	2280006f          	j	230 <__no_irq_handler>
   c:	7c10706f          	j	7fcc <handler_irq_software>
  10:	2200006f          	j	230 <__no_irq_handler>
  14:	21c0006f          	j	230 <__no_irq_handler>
  18:	2180006f          	j	230 <__no_irq_handler>
  1c:	0040806f          	j	8020 <handler_irq_timer>
  20:	2100006f          	j	230 <__no_irq_handler>
  24:	20c0006f          	j	230 <__no_irq_handler>
  28:	2080006f          	j	230 <__no_irq_handler>
  2c:	6290706f          	j	7e54 <handler_irq_external>
  30:	2000006f          	j	230 <__no_irq_handler>
  34:	1fc0006f          	j	230 <__no_irq_handler>
  38:	1f80006f          	j	230 <__no_irq_handler>
  3c:	1f40006f          	j	230 <__no_irq_handler>
  40:	5880706f          	j	75c8 <handler_irq_fast_timer_1>
  44:	6200706f          	j	7664 <handler_irq_fast_timer_2>
  48:	6b80706f          	j	7700 <handler_irq_fast_timer_3>
  4c:	7500706f          	j	779c <handler_irq_fast_dma_done>
  50:	3040806f          	j	8354 <handler_irq_fast_spi>
  54:	1a40806f          	j	81f8 <handler_irq_fast_spi_flash>
  58:	1190706f          	j	7970 <handler_irq_fast_gpio_0>
  5c:	1b10706f          	j	7a0c <handler_irq_fast_gpio_1>
  60:	2490706f          	j	7aa8 <handler_irq_fast_gpio_2>
  64:	2e10706f          	j	7b44 <handler_irq_fast_gpio_3>
  68:	3790706f          	j	7be0 <handler_irq_fast_gpio_4>
  6c:	4110706f          	j	7c7c <handler_irq_fast_gpio_5>
  70:	4ad0706f          	j	7d1c <handler_irq_fast_gpio_6>
  74:	5450706f          	j	7db8 <handler_irq_fast_gpio_7>
  78:	7c00706f          	j	7838 <handler_irq_fast_dma_window>
  7c:	0590706f          	j	78d4 <handler_irq_fast_external_peripheral>

Disassembly of section .init:

00000180 <_start>:
 180:	00023197          	auipc	gp,0x23
 184:	34418193          	addi	gp,gp,836 # 234c4 <__global_pointer$>
 188:	0002b117          	auipc	sp,0x2b
 18c:	f0810113          	addi	sp,sp,-248 # 2b090 <_sp>
 190:	20000537          	lui	a0,0x20000
 194:	05f5e637          	lui	a2,0x5f5e
 198:	10060613          	addi	a2,a2,256 # 5f5e100 <_sp+0x5f33070>
 19c:	00c52e23          	sw	a2,28(a0) # 2000001c <_sp+0x1ffd4f8c>

000001a0 <_init_bss>:
 1a0:	00023517          	auipc	a0,0x23
 1a4:	c9050513          	addi	a0,a0,-880 # 22e30 <__stdio_exit_handler>
 1a8:	00023617          	auipc	a2,0x23
 1ac:	edc60613          	addi	a2,a2,-292 # 23084 <__BSS_END__>
 1b0:	40a60633          	sub	a2,a2,a0
 1b4:	00000593          	li	a1,0
 1b8:	76c080ef          	jal	8924 <memset>
 1bc:	00000517          	auipc	a0,0x0
 1c0:	e4450513          	addi	a0,a0,-444 # 0 <__vector_start>
 1c4:	00156513          	ori	a0,a0,1
 1c8:	30551073          	csrw	mtvec,a0
 1cc:	00008517          	auipc	a0,0x8
 1d0:	70050513          	addi	a0,a0,1792 # 88cc <__libc_fini_array>
 1d4:	21c080ef          	jal	83f0 <atexit>
 1d8:	660080ef          	jal	8838 <__libc_init_array>
 1dc:	00012503          	lw	a0,0(sp)
 1e0:	00410593          	addi	a1,sp,4
 1e4:	00000613          	li	a2,0
 1e8:	55c0d0ef          	jal	d744 <main>
 1ec:	00c0006f          	j	1f8 <exit>

000001f0 <_init>:
 1f0:	685070ef          	jal	8074 <init>

000001f4 <_fini>:
 1f4:	00008067          	ret

Disassembly of section .text:

000001f8 <exit>:
     1f8:	ff010113          	addi	sp,sp,-16
     1fc:	000097b7          	lui	a5,0x9
     200:	00812423          	sw	s0,8(sp)
     204:	00112623          	sw	ra,12(sp)
     208:	9d478793          	addi	a5,a5,-1580 # 89d4 <__call_exitprocs>
     20c:	00050413          	mv	s0,a0
     210:	00078663          	beqz	a5,21c <exit+0x24>
     214:	00000593          	li	a1,0
     218:	7bc080ef          	jal	89d4 <__call_exitprocs>
     21c:	96c1a783          	lw	a5,-1684(gp) # 22e30 <__stdio_exit_handler>
     220:	00078463          	beqz	a5,228 <exit+0x30>
     224:	000780e7          	jalr	a5
     228:	00040513          	mv	a0,s0
     22c:	659070ef          	jal	8084 <_exit>

00000230 <__no_irq_handler>:
     230:	0000006f          	j	230 <__no_irq_handler>

00000234 <fic_irq_dma_window>:
     234:	fe010113          	addi	sp,sp,-32
     238:	00112e23          	sw	ra,28(sp)
     23c:	00812c23          	sw	s0,24(sp)
     240:	02010413          	addi	s0,sp,32
     244:	fe042623          	sw	zero,-20(s0)
     248:	04c0006f          	j	294 <fic_irq_dma_window+0x60>
     24c:	99018693          	addi	a3,gp,-1648 # 22e54 <dma_subsys_per>
     250:	fec42703          	lw	a4,-20(s0)
     254:	00070793          	mv	a5,a4
     258:	00179793          	slli	a5,a5,0x1
     25c:	00e787b3          	add	a5,a5,a4
     260:	00279793          	slli	a5,a5,0x2
     264:	00f687b3          	add	a5,a3,a5
     268:	0087a783          	lw	a5,8(a5)
     26c:	0687a703          	lw	a4,104(a5)
     270:	00100793          	li	a5,1
     274:	00f71a63          	bne	a4,a5,288 <fic_irq_dma_window+0x54>
     278:	fec42783          	lw	a5,-20(s0)
     27c:	0ff7f793          	zext.b	a5,a5
     280:	00078513          	mv	a0,a5
     284:	100000ef          	jal	384 <dma_intr_handler_window_done>
     288:	fec42783          	lw	a5,-20(s0)
     28c:	00178793          	addi	a5,a5,1
     290:	fef42623          	sw	a5,-20(s0)
     294:	fec42703          	lw	a4,-20(s0)
     298:	00300793          	li	a5,3
     29c:	fae7d8e3          	bge	a5,a4,24c <fic_irq_dma_window+0x18>
     2a0:	00000013          	nop
     2a4:	01c12083          	lw	ra,28(sp)
     2a8:	01812403          	lw	s0,24(sp)
     2ac:	02010113          	addi	sp,sp,32
     2b0:	00008067          	ret

000002b4 <fic_irq_dma_done>:
     2b4:	fe010113          	addi	sp,sp,-32
     2b8:	00112e23          	sw	ra,28(sp)
     2bc:	00812c23          	sw	s0,24(sp)
     2c0:	02010413          	addi	s0,sp,32
     2c4:	fe042623          	sw	zero,-20(s0)
     2c8:	0700006f          	j	338 <fic_irq_dma_done+0x84>
     2cc:	99018693          	addi	a3,gp,-1648 # 22e54 <dma_subsys_per>
     2d0:	fec42703          	lw	a4,-20(s0)
     2d4:	00070793          	mv	a5,a4
     2d8:	00179793          	slli	a5,a5,0x1
     2dc:	00e787b3          	add	a5,a5,a4
     2e0:	00279793          	slli	a5,a5,0x2
     2e4:	00f687b3          	add	a5,a3,a5
     2e8:	0087a783          	lw	a5,8(a5)
     2ec:	0647a703          	lw	a4,100(a5)
     2f0:	00100793          	li	a5,1
     2f4:	02f71c63          	bne	a4,a5,32c <fic_irq_dma_done+0x78>
     2f8:	99018693          	addi	a3,gp,-1648 # 22e54 <dma_subsys_per>
     2fc:	fec42703          	lw	a4,-20(s0)
     300:	00070793          	mv	a5,a4
     304:	00179793          	slli	a5,a5,0x1
     308:	00e787b3          	add	a5,a5,a4
     30c:	00279793          	slli	a5,a5,0x2
     310:	00f687b3          	add	a5,a3,a5
     314:	00100713          	li	a4,1
     318:	00e78223          	sb	a4,4(a5)
     31c:	fec42783          	lw	a5,-20(s0)
     320:	0ff7f793          	zext.b	a5,a5
     324:	00078513          	mv	a0,a5
     328:	030000ef          	jal	358 <dma_intr_handler_trans_done>
     32c:	fec42783          	lw	a5,-20(s0)
     330:	00178793          	addi	a5,a5,1
     334:	fef42623          	sw	a5,-20(s0)
     338:	fec42703          	lw	a4,-20(s0)
     33c:	00300793          	li	a5,3
     340:	f8e7d6e3          	bge	a5,a4,2cc <fic_irq_dma_done+0x18>
     344:	00000013          	nop
     348:	01c12083          	lw	ra,28(sp)
     34c:	01812403          	lw	s0,24(sp)
     350:	02010113          	addi	sp,sp,32
     354:	00008067          	ret

00000358 <dma_intr_handler_trans_done>:
     358:	fe010113          	addi	sp,sp,-32
     35c:	00112e23          	sw	ra,28(sp)
     360:	00812c23          	sw	s0,24(sp)
     364:	02010413          	addi	s0,sp,32
     368:	00050793          	mv	a5,a0
     36c:	fef407a3          	sb	a5,-17(s0)
     370:	00000013          	nop
     374:	01c12083          	lw	ra,28(sp)
     378:	01812403          	lw	s0,24(sp)
     37c:	02010113          	addi	sp,sp,32
     380:	00008067          	ret

00000384 <dma_intr_handler_window_done>:
     384:	fe010113          	addi	sp,sp,-32
     388:	00112e23          	sw	ra,28(sp)
     38c:	00812c23          	sw	s0,24(sp)
     390:	02010413          	addi	s0,sp,32
     394:	00050793          	mv	a5,a0
     398:	fef407a3          	sb	a5,-17(s0)
     39c:	00000013          	nop
     3a0:	01c12083          	lw	ra,28(sp)
     3a4:	01812403          	lw	s0,24(sp)
     3a8:	02010113          	addi	sp,sp,32
     3ac:	00008067          	ret

000003b0 <fic_irq_timer_1>:
     3b0:	ff010113          	addi	sp,sp,-16
     3b4:	00112623          	sw	ra,12(sp)
     3b8:	00812423          	sw	s0,8(sp)
     3bc:	01010413          	addi	s0,sp,16
     3c0:	00000013          	nop
     3c4:	00c12083          	lw	ra,12(sp)
     3c8:	00812403          	lw	s0,8(sp)
     3cc:	01010113          	addi	sp,sp,16
     3d0:	00008067          	ret

000003d4 <fic_irq_timer_2>:
     3d4:	ff010113          	addi	sp,sp,-16
     3d8:	00112623          	sw	ra,12(sp)
     3dc:	00812423          	sw	s0,8(sp)
     3e0:	01010413          	addi	s0,sp,16
     3e4:	00000013          	nop
     3e8:	00c12083          	lw	ra,12(sp)
     3ec:	00812403          	lw	s0,8(sp)
     3f0:	01010113          	addi	sp,sp,16
     3f4:	00008067          	ret

000003f8 <fic_irq_timer_3>:
     3f8:	ff010113          	addi	sp,sp,-16
     3fc:	00112623          	sw	ra,12(sp)
     400:	00812423          	sw	s0,8(sp)
     404:	01010413          	addi	s0,sp,16
     408:	00000013          	nop
     40c:	00c12083          	lw	ra,12(sp)
     410:	00812403          	lw	s0,8(sp)
     414:	01010113          	addi	sp,sp,16
     418:	00008067          	ret

0000041c <fic_irq_ext_peripheral>:
     41c:	ff010113          	addi	sp,sp,-16
     420:	00112623          	sw	ra,12(sp)
     424:	00812423          	sw	s0,8(sp)
     428:	01010413          	addi	s0,sp,16
     42c:	00000013          	nop
     430:	00c12083          	lw	ra,12(sp)
     434:	00812403          	lw	s0,8(sp)
     438:	01010113          	addi	sp,sp,16
     43c:	00008067          	ret

00000440 <fic_irq_gpio_0>:
     440:	ff010113          	addi	sp,sp,-16
     444:	00112623          	sw	ra,12(sp)
     448:	00812423          	sw	s0,8(sp)
     44c:	01010413          	addi	s0,sp,16
     450:	00000013          	nop
     454:	00c12083          	lw	ra,12(sp)
     458:	00812403          	lw	s0,8(sp)
     45c:	01010113          	addi	sp,sp,16
     460:	00008067          	ret

00000464 <fic_irq_gpio_1>:
     464:	ff010113          	addi	sp,sp,-16
     468:	00112623          	sw	ra,12(sp)
     46c:	00812423          	sw	s0,8(sp)
     470:	01010413          	addi	s0,sp,16
     474:	00000013          	nop
     478:	00c12083          	lw	ra,12(sp)
     47c:	00812403          	lw	s0,8(sp)
     480:	01010113          	addi	sp,sp,16
     484:	00008067          	ret

00000488 <fic_irq_gpio_2>:
     488:	ff010113          	addi	sp,sp,-16
     48c:	00112623          	sw	ra,12(sp)
     490:	00812423          	sw	s0,8(sp)
     494:	01010413          	addi	s0,sp,16
     498:	00000013          	nop
     49c:	00c12083          	lw	ra,12(sp)
     4a0:	00812403          	lw	s0,8(sp)
     4a4:	01010113          	addi	sp,sp,16
     4a8:	00008067          	ret

000004ac <fic_irq_gpio_3>:
     4ac:	ff010113          	addi	sp,sp,-16
     4b0:	00112623          	sw	ra,12(sp)
     4b4:	00812423          	sw	s0,8(sp)
     4b8:	01010413          	addi	s0,sp,16
     4bc:	00000013          	nop
     4c0:	00c12083          	lw	ra,12(sp)
     4c4:	00812403          	lw	s0,8(sp)
     4c8:	01010113          	addi	sp,sp,16
     4cc:	00008067          	ret

000004d0 <fic_irq_gpio_4>:
     4d0:	ff010113          	addi	sp,sp,-16
     4d4:	00112623          	sw	ra,12(sp)
     4d8:	00812423          	sw	s0,8(sp)
     4dc:	01010413          	addi	s0,sp,16
     4e0:	00000013          	nop
     4e4:	00c12083          	lw	ra,12(sp)
     4e8:	00812403          	lw	s0,8(sp)
     4ec:	01010113          	addi	sp,sp,16
     4f0:	00008067          	ret

000004f4 <fic_irq_gpio_5>:
     4f4:	ff010113          	addi	sp,sp,-16
     4f8:	00112623          	sw	ra,12(sp)
     4fc:	00812423          	sw	s0,8(sp)
     500:	01010413          	addi	s0,sp,16
     504:	00000013          	nop
     508:	00c12083          	lw	ra,12(sp)
     50c:	00812403          	lw	s0,8(sp)
     510:	01010113          	addi	sp,sp,16
     514:	00008067          	ret

00000518 <fic_irq_gpio_6>:
     518:	ff010113          	addi	sp,sp,-16
     51c:	00112623          	sw	ra,12(sp)
     520:	00812423          	sw	s0,8(sp)
     524:	01010413          	addi	s0,sp,16
     528:	00000013          	nop
     52c:	00c12083          	lw	ra,12(sp)
     530:	00812403          	lw	s0,8(sp)
     534:	01010113          	addi	sp,sp,16
     538:	00008067          	ret

0000053c <fic_irq_gpio_7>:
     53c:	ff010113          	addi	sp,sp,-16
     540:	00112623          	sw	ra,12(sp)
     544:	00812423          	sw	s0,8(sp)
     548:	01010413          	addi	s0,sp,16
     54c:	00000013          	nop
     550:	00c12083          	lw	ra,12(sp)
     554:	00812403          	lw	s0,8(sp)
     558:	01010113          	addi	sp,sp,16
     55c:	00008067          	ret

00000560 <spi_get_events>:
     560:	ff010113          	addi	sp,sp,-16
     564:	01452783          	lw	a5,20(a0)
     568:	00f12623          	sw	a5,12(sp)
     56c:	00c12683          	lw	a3,12(sp)
     570:	0196d693          	srli	a3,a3,0x19
     574:	0016f693          	andi	a3,a3,1
     578:	0005a783          	lw	a5,0(a1)
     57c:	00c12703          	lw	a4,12(sp)
     580:	01b75713          	srli	a4,a4,0x1b
     584:	ffc7f793          	andi	a5,a5,-4
     588:	00d7e7b3          	or	a5,a5,a3
     58c:	00c12683          	lw	a3,12(sp)
     590:	0126d693          	srli	a3,a3,0x12
     594:	00277713          	andi	a4,a4,2
     598:	00f76733          	or	a4,a4,a5
     59c:	00c12783          	lw	a5,12(sp)
     5a0:	0177d793          	srli	a5,a5,0x17
     5a4:	0046f693          	andi	a3,a3,4
     5a8:	ff377713          	andi	a4,a4,-13
     5ac:	00d76733          	or	a4,a4,a3
     5b0:	00c12683          	lw	a3,12(sp)
     5b4:	01f6d693          	srli	a3,a3,0x1f
     5b8:	0087f793          	andi	a5,a5,8
     5bc:	00e7e7b3          	or	a5,a5,a4
     5c0:	00c12703          	lw	a4,12(sp)
     5c4:	01975713          	srli	a4,a4,0x19
     5c8:	00469693          	slli	a3,a3,0x4
     5cc:	fcf7f793          	andi	a5,a5,-49
     5d0:	00d7e7b3          	or	a5,a5,a3
     5d4:	02077713          	andi	a4,a4,32
     5d8:	02074713          	xori	a4,a4,32
     5dc:	00f767b3          	or	a5,a4,a5
     5e0:	00f5a023          	sw	a5,0(a1)
     5e4:	00000513          	li	a0,0
     5e8:	01010113          	addi	sp,sp,16
     5ec:	00008067          	ret

000005f0 <_write>:
     5f0:	00100793          	li	a5,1
     5f4:	08f51063          	bne	a0,a5,674 <_write+0x84>
     5f8:	200007b7          	lui	a5,0x20000
     5fc:	01c7a783          	lw	a5,28(a5) # 2000001c <_sp+0x1ffd4f8c>
     600:	08078263          	beqz	a5,684 <_write+0x94>
     604:	300807b7          	lui	a5,0x30080
     608:	0007a623          	sw	zero,12(a5) # 3008000c <_sp+0x30054f7c>
     60c:	00300713          	li	a4,3
     610:	00e7ae23          	sw	a4,28(a5)
     614:	0207a223          	sw	zero,36(a5)
     618:	0207a623          	sw	zero,44(a5)
     61c:	0007a223          	sw	zero,4(a5)
     620:	fff00713          	li	a4,-1
     624:	00e7a023          	sw	a4,0(a5)
     628:	0a7c0737          	lui	a4,0xa7c0
     62c:	00370713          	addi	a4,a4,3 # a7c0003 <_sp+0xa794f73>
     630:	00e7a623          	sw	a4,12(a5)
     634:	0007a223          	sw	zero,4(a5)
     638:	02060a63          	beqz	a2,66c <_write+0x7c>
     63c:	00c58833          	add	a6,a1,a2
     640:	00078713          	mv	a4,a5
     644:	0005c683          	lbu	a3,0(a1)
     648:	01072783          	lw	a5,16(a4)
     64c:	0017f793          	andi	a5,a5,1
     650:	fe079ce3          	bnez	a5,648 <_write+0x58>
     654:	00d72c23          	sw	a3,24(a4)
     658:	01072783          	lw	a5,16(a4)
     65c:	0087f793          	andi	a5,a5,8
     660:	fe078ce3          	beqz	a5,658 <_write+0x68>
     664:	00158593          	addi	a1,a1,1
     668:	fd059ee3          	bne	a1,a6,644 <_write+0x54>
     66c:	00060513          	mv	a0,a2
     670:	00008067          	ret
     674:	05800713          	li	a4,88
     678:	96e1a823          	sw	a4,-1680(gp) # 22e34 <errno>
     67c:	fff00613          	li	a2,-1
     680:	fedff06f          	j	66c <_write+0x7c>
     684:	05800713          	li	a4,88
     688:	96e1a823          	sw	a4,-1680(gp) # 22e34 <errno>
     68c:	ff1ff06f          	j	67c <_write+0x8c>

00000690 <spi_empty_rx>:
     690:	02452783          	lw	a5,36(a0)
     694:	00078863          	beqz	a5,6a4 <spi_empty_rx+0x14>
     698:	03452783          	lw	a5,52(a0)
     69c:	02852703          	lw	a4,40(a0)
     6a0:	02e7e863          	bltu	a5,a4,6d0 <spi_empty_rx+0x40>
     6a4:	00000513          	li	a0,0
     6a8:	00008067          	ret
     6ac:	0286a703          	lw	a4,40(a3)
     6b0:	02452683          	lw	a3,36(a0)
     6b4:	20d7c7b3          	sh2add	a5,a5,a3
     6b8:	00e7a023          	sw	a4,0(a5)
     6bc:	03452783          	lw	a5,52(a0)
     6c0:	00178793          	addi	a5,a5,1
     6c4:	02f52a23          	sw	a5,52(a0)
     6c8:	02852703          	lw	a4,40(a0)
     6cc:	00e7fe63          	bgeu	a5,a4,6e8 <spi_empty_rx+0x58>
     6d0:	00052683          	lw	a3,0(a0)
     6d4:	00068a63          	beqz	a3,6e8 <spi_empty_rx+0x58>
     6d8:	0146a703          	lw	a4,20(a3)
     6dc:	00875713          	srli	a4,a4,0x8
     6e0:	0ff77713          	zext.b	a4,a4
     6e4:	fc0714e3          	bnez	a4,6ac <spi_empty_rx+0x1c>
     6e8:	00100513          	li	a0,1
     6ec:	00008067          	ret

000006f0 <spi_event_handler>:
     6f0:	ff010113          	addi	sp,sp,-16
     6f4:	00112623          	sw	ra,12(sp)
     6f8:	00912423          	sw	s1,8(sp)
     6fc:	01212223          	sw	s2,4(sp)
     700:	00050493          	mv	s1,a0
     704:	00058913          	mv	s2,a1
     708:	0105f793          	andi	a5,a1,16
     70c:	02078063          	beqz	a5,72c <spi_event_handler+0x3c>
     710:	01452703          	lw	a4,20(a0)
     714:	00070863          	beqz	a4,724 <spi_event_handler+0x34>
     718:	02c52683          	lw	a3,44(a0)
     71c:	01854783          	lbu	a5,24(a0)
     720:	02f6e863          	bltu	a3,a5,750 <spi_event_handler+0x60>
     724:	02097793          	andi	a5,s2,32
     728:	0a079e63          	bnez	a5,7e4 <spi_event_handler+0xf4>
     72c:	00897793          	andi	a5,s2,8
     730:	14079063          	bnez	a5,870 <spi_event_handler+0x180>
     734:	00497913          	andi	s2,s2,4
     738:	1a091663          	bnez	s2,8e4 <spi_event_handler+0x1f4>
     73c:	00c12083          	lw	ra,12(sp)
     740:	00812483          	lw	s1,8(sp)
     744:	00412903          	lw	s2,4(sp)
     748:	01010113          	addi	sp,sp,16
     74c:	00008067          	ret
     750:	20e6c733          	sh2add	a4,a3,a4
     754:	00072703          	lw	a4,0(a4)
     758:	00871613          	slli	a2,a4,0x8
     75c:	00865593          	srli	a1,a2,0x8
     760:	01875713          	srli	a4,a4,0x18
     764:	00f77613          	andi	a2,a4,15
     768:	00168693          	addi	a3,a3,1
     76c:	02d52623          	sw	a3,44(a0)
     770:	00052503          	lw	a0,0(a0)
     774:	fa050ce3          	beqz	a0,72c <spi_event_handler+0x3c>
     778:	00265713          	srli	a4,a2,0x2
     77c:	01971713          	slli	a4,a4,0x19
     780:	00367613          	andi	a2,a2,3
     784:	01b61613          	slli	a2,a2,0x1b
     788:	00c76733          	or	a4,a4,a2
     78c:	40d787b3          	sub	a5,a5,a3
     790:	00f037b3          	snez	a5,a5
     794:	01879793          	slli	a5,a5,0x18
     798:	00f767b3          	or	a5,a4,a5
     79c:	fff58613          	addi	a2,a1,-1
     7a0:	00861613          	slli	a2,a2,0x8
     7a4:	00865613          	srli	a2,a2,0x8
     7a8:	00c7e633          	or	a2,a5,a2
     7ac:	0197d793          	srli	a5,a5,0x19
     7b0:	0037f793          	andi	a5,a5,3
     7b4:	00200713          	li	a4,2
     7b8:	14f76c63          	bltu	a4,a5,910 <spi_event_handler+0x220>
     7bc:	01452703          	lw	a4,20(a0)
     7c0:	f60756e3          	bgez	a4,72c <spi_event_handler+0x3c>
     7c4:	01b65713          	srli	a4,a2,0x1b
     7c8:	ffd70713          	addi	a4,a4,-3
     7cc:	00173713          	seqz	a4,a4
     7d0:	00f037b3          	snez	a5,a5
     7d4:	00f777b3          	and	a5,a4,a5
     7d8:	f4079ae3          	bnez	a5,72c <spi_event_handler+0x3c>
     7dc:	02c52223          	sw	a2,36(a0)
     7e0:	f4dff06f          	j	72c <spi_event_handler+0x3c>
     7e4:	0004a783          	lw	a5,0(s1)
     7e8:	02078263          	beqz	a5,80c <spi_event_handler+0x11c>
     7ec:	0387a703          	lw	a4,56(a5)
     7f0:	fc077713          	andi	a4,a4,-64
     7f4:	02e7ac23          	sw	a4,56(a5)
     7f8:	0004a783          	lw	a5,0(s1)
     7fc:	00078863          	beqz	a5,80c <spi_event_handler+0x11c>
     800:	0047a703          	lw	a4,4(a5)
     804:	ffd77713          	andi	a4,a4,-3
     808:	00e7a223          	sw	a4,4(a5)
     80c:	00048513          	mv	a0,s1
     810:	e81ff0ef          	jal	690 <spi_empty_rx>
     814:	00400793          	li	a5,4
     818:	00f4a823          	sw	a5,16(s1)
     81c:	0384a783          	lw	a5,56(s1)
     820:	00078c63          	beqz	a5,838 <spi_event_handler+0x148>
     824:	0344a683          	lw	a3,52(s1)
     828:	0244a603          	lw	a2,36(s1)
     82c:	0304a583          	lw	a1,48(s1)
     830:	01c4a503          	lw	a0,28(s1)
     834:	000780e7          	jalr	a5
     838:	0204a623          	sw	zero,44(s1)
     83c:	0204a823          	sw	zero,48(s1)
     840:	0204aa23          	sw	zero,52(s1)
     844:	0004aa23          	sw	zero,20(s1)
     848:	0004ac23          	sw	zero,24(s1)
     84c:	0004ae23          	sw	zero,28(s1)
     850:	0204a023          	sw	zero,32(s1)
     854:	0204a223          	sw	zero,36(s1)
     858:	0204a423          	sw	zero,40(s1)
     85c:	0204ac23          	sw	zero,56(s1)
     860:	0204ae23          	sw	zero,60(s1)
     864:	0404a023          	sw	zero,64(s1)
     868:	0404a223          	sw	zero,68(s1)
     86c:	ed1ff06f          	j	73c <spi_event_handler+0x4c>
     870:	01c4a783          	lw	a5,28(s1)
     874:	ec0780e3          	beqz	a5,734 <spi_event_handler+0x44>
     878:	0304a783          	lw	a5,48(s1)
     87c:	0204a703          	lw	a4,32(s1)
     880:	eae7fae3          	bgeu	a5,a4,734 <spi_event_handler+0x44>
     884:	04700613          	li	a2,71
     888:	0280006f          	j	8b0 <spi_event_handler+0x1c0>
     88c:	01c4a683          	lw	a3,28(s1)
     890:	20d7c7b3          	sh2add	a5,a5,a3
     894:	0007a783          	lw	a5,0(a5)
     898:	02f72623          	sw	a5,44(a4)
     89c:	0304a783          	lw	a5,48(s1)
     8a0:	00178793          	addi	a5,a5,1
     8a4:	02f4a823          	sw	a5,48(s1)
     8a8:	0204a703          	lw	a4,32(s1)
     8ac:	00e7fc63          	bgeu	a5,a4,8c4 <spi_event_handler+0x1d4>
     8b0:	0004a703          	lw	a4,0(s1)
     8b4:	00070863          	beqz	a4,8c4 <spi_event_handler+0x1d4>
     8b8:	01472683          	lw	a3,20(a4)
     8bc:	0ff6f693          	zext.b	a3,a3
     8c0:	fcd676e3          	bgeu	a2,a3,88c <spi_event_handler+0x19c>
     8c4:	03c4a783          	lw	a5,60(s1)
     8c8:	e60786e3          	beqz	a5,734 <spi_event_handler+0x44>
     8cc:	0344a683          	lw	a3,52(s1)
     8d0:	0244a603          	lw	a2,36(s1)
     8d4:	0304a583          	lw	a1,48(s1)
     8d8:	01c4a503          	lw	a0,28(s1)
     8dc:	000780e7          	jalr	a5
     8e0:	e55ff06f          	j	734 <spi_event_handler+0x44>
     8e4:	00048513          	mv	a0,s1
     8e8:	da9ff0ef          	jal	690 <spi_empty_rx>
     8ec:	e40508e3          	beqz	a0,73c <spi_event_handler+0x4c>
     8f0:	0404a783          	lw	a5,64(s1)
     8f4:	e40784e3          	beqz	a5,73c <spi_event_handler+0x4c>
     8f8:	0344a683          	lw	a3,52(s1)
     8fc:	0244a603          	lw	a2,36(s1)
     900:	0304a583          	lw	a1,48(s1)
     904:	01c4a503          	lw	a0,28(s1)
     908:	000780e7          	jalr	a5
     90c:	e31ff06f          	j	73c <spi_event_handler+0x4c>
     910:	01452783          	lw	a5,20(a0)
     914:	e19ff06f          	j	72c <spi_event_handler+0x3c>

00000918 <spi_error_handler>:
     918:	fe010113          	addi	sp,sp,-32
     91c:	00112e23          	sw	ra,28(sp)
     920:	00912c23          	sw	s1,24(sp)
     924:	00050493          	mv	s1,a0
     928:	00052783          	lw	a5,0(a0)
     92c:	02078263          	beqz	a5,950 <spi_error_handler+0x38>
     930:	0387a703          	lw	a4,56(a5)
     934:	fc077713          	andi	a4,a4,-64
     938:	02e7ac23          	sw	a4,56(a5)
     93c:	00052783          	lw	a5,0(a0)
     940:	00078863          	beqz	a5,950 <spi_error_handler+0x38>
     944:	0047a703          	lw	a4,4(a5)
     948:	ffd77713          	andi	a4,a4,-3
     94c:	00e7a223          	sw	a4,4(a5)
     950:	0444a783          	lw	a5,68(s1)
     954:	00078c63          	beqz	a5,96c <spi_error_handler+0x54>
     958:	0344a683          	lw	a3,52(s1)
     95c:	0244a603          	lw	a2,36(s1)
     960:	0304a583          	lw	a1,48(s1)
     964:	01c4a503          	lw	a0,28(s1)
     968:	000780e7          	jalr	a5
     96c:	0204a623          	sw	zero,44(s1)
     970:	0204a823          	sw	zero,48(s1)
     974:	0204aa23          	sw	zero,52(s1)
     978:	0004aa23          	sw	zero,20(s1)
     97c:	0004ac23          	sw	zero,24(s1)
     980:	0004ae23          	sw	zero,28(s1)
     984:	0204a023          	sw	zero,32(s1)
     988:	0204a223          	sw	zero,36(s1)
     98c:	0204a423          	sw	zero,40(s1)
     990:	0204ac23          	sw	zero,56(s1)
     994:	0204ae23          	sw	zero,60(s1)
     998:	0404a023          	sw	zero,64(s1)
     99c:	0404a223          	sw	zero,68(s1)
     9a0:	0004a683          	lw	a3,0(s1)
     9a4:	10068463          	beqz	a3,aac <spi_error_handler+0x194>
     9a8:	0106a783          	lw	a5,16(a3)
     9ac:	40000737          	lui	a4,0x40000
     9b0:	00e7e7b3          	or	a5,a5,a4
     9b4:	00f6a823          	sw	a5,16(a3)
     9b8:	0146a783          	lw	a5,20(a3)
     9bc:	00f12623          	sw	a5,12(sp)
     9c0:	00c12783          	lw	a5,12(sp)
     9c4:	00179713          	slli	a4,a5,0x1
     9c8:	fe074ce3          	bltz	a4,9c0 <spi_error_handler+0xa8>
     9cc:	00c14783          	lbu	a5,12(sp)
     9d0:	fe0798e3          	bnez	a5,9c0 <spi_error_handler+0xa8>
     9d4:	00d14783          	lbu	a5,13(sp)
     9d8:	fe0794e3          	bnez	a5,9c0 <spi_error_handler+0xa8>
     9dc:	0106a783          	lw	a5,16(a3)
     9e0:	c0000737          	lui	a4,0xc0000
     9e4:	fff70713          	addi	a4,a4,-1 # bfffffff <_sp+0xbffd4f6f>
     9e8:	00e7f7b3          	and	a5,a5,a4
     9ec:	00f6a823          	sw	a5,16(a3)
     9f0:	0004a783          	lw	a5,0(s1)
     9f4:	0a078c63          	beqz	a5,aac <spi_error_handler+0x194>
     9f8:	0107a703          	lw	a4,16(a5)
     9fc:	800006b7          	lui	a3,0x80000
     a00:	00d76733          	or	a4,a4,a3
     a04:	00e7a823          	sw	a4,16(a5)
     a08:	0004a783          	lw	a5,0(s1)
     a0c:	0a078063          	beqz	a5,aac <spi_error_handler+0x194>
     a10:	0107a703          	lw	a4,16(a5)
     a14:	200006b7          	lui	a3,0x20000
     a18:	00d76733          	or	a4,a4,a3
     a1c:	00e7a823          	sw	a4,16(a5)
     a20:	0004a783          	lw	a5,0(s1)
     a24:	08078463          	beqz	a5,aac <spi_error_handler+0x194>
     a28:	0307a703          	lw	a4,48(a5)
     a2c:	01f76713          	ori	a4,a4,31
     a30:	02e7a823          	sw	a4,48(a5)
     a34:	0004a783          	lw	a5,0(s1)
     a38:	06078a63          	beqz	a5,aac <spi_error_handler+0x194>
     a3c:	0047a703          	lw	a4,4(a5)
     a40:	00176713          	ori	a4,a4,1
     a44:	00e7a223          	sw	a4,4(a5)
     a48:	0004a703          	lw	a4,0(s1)
     a4c:	0044c783          	lbu	a5,4(s1)
     a50:	00173693          	seqz	a3,a4
     a54:	0497b613          	sltiu	a2,a5,73
     a58:	00163613          	seqz	a2,a2
     a5c:	00c6e6b3          	or	a3,a3,a2
     a60:	02069063          	bnez	a3,a80 <spi_error_handler+0x168>
     a64:	01072683          	lw	a3,16(a4)
     a68:	ffff0637          	lui	a2,0xffff0
     a6c:	0ff60613          	addi	a2,a2,255 # ffff00ff <_sp+0xfffc506f>
     a70:	00c6f6b3          	and	a3,a3,a2
     a74:	00879793          	slli	a5,a5,0x8
     a78:	00d7e7b3          	or	a5,a5,a3
     a7c:	00f72823          	sw	a5,16(a4)
     a80:	0004a683          	lw	a3,0(s1)
     a84:	0054c703          	lbu	a4,5(s1)
     a88:	04173793          	sltiu	a5,a4,65
     a8c:	0017b793          	seqz	a5,a5
     a90:	0016b613          	seqz	a2,a3
     a94:	00c7e7b3          	or	a5,a5,a2
     a98:	00079a63          	bnez	a5,aac <spi_error_handler+0x194>
     a9c:	0106a783          	lw	a5,16(a3) # 20000010 <_sp+0x1ffd4f80>
     aa0:	f007f793          	andi	a5,a5,-256
     aa4:	00f76733          	or	a4,a4,a5
     aa8:	00e6a823          	sw	a4,16(a3)
     aac:	0004a423          	sw	zero,8(s1)
     ab0:	00800793          	li	a5,8
     ab4:	00f4a823          	sw	a5,16(s1)
     ab8:	01c12083          	lw	ra,28(sp)
     abc:	01812483          	lw	s1,24(sp)
     ac0:	02010113          	addi	sp,sp,32
     ac4:	00008067          	ret

00000ac8 <_writestr>:
     ac8:	ff010113          	addi	sp,sp,-16
     acc:	00112623          	sw	ra,12(sp)
     ad0:	00912423          	sw	s1,8(sp)
     ad4:	00050493          	mv	s1,a0
     ad8:	189080ef          	jal	9460 <strlen>
     adc:	00150613          	addi	a2,a0,1
     ae0:	00048593          	mv	a1,s1
     ae4:	00100513          	li	a0,1
     ae8:	b09ff0ef          	jal	5f0 <_write>
     aec:	00c12083          	lw	ra,12(sp)
     af0:	00812483          	lw	s1,8(sp)
     af4:	01010113          	addi	sp,sp,16
     af8:	00008067          	ret

00000afc <print_exc_msg>:
     afc:	fe010113          	addi	sp,sp,-32
     b00:	00112e23          	sw	ra,28(sp)
     b04:	00912c23          	sw	s1,24(sp)
     b08:	fc1ff0ef          	jal	ac8 <_writestr>
     b0c:	343024f3          	csrr	s1,mtval
     b10:	00020537          	lui	a0,0x20
     b14:	3e050513          	addi	a0,a0,992 # 203e0 <__clz_tab+0x1b0>
     b18:	fb1ff0ef          	jal	ac8 <_writestr>
     b1c:	0184d793          	srli	a5,s1,0x18
     b20:	00f10423          	sb	a5,8(sp)
     b24:	0104d793          	srli	a5,s1,0x10
     b28:	00f104a3          	sb	a5,9(sp)
     b2c:	0084d793          	srli	a5,s1,0x8
     b30:	00f10523          	sb	a5,10(sp)
     b34:	009105a3          	sb	s1,11(sp)
     b38:	00a00793          	li	a5,10
     b3c:	00f10623          	sb	a5,12(sp)
     b40:	000106a3          	sb	zero,13(sp)
     b44:	00810513          	addi	a0,sp,8
     b48:	f81ff0ef          	jal	ac8 <_writestr>
     b4c:	0000006f          	j	b4c <print_exc_msg+0x50>

00000b50 <inferenceTPG>:
     b50:	e7010113          	addi	sp,sp,-400
     b54:	18112623          	sw	ra,396(sp)
     b58:	18912423          	sw	s1,392(sp)
     b5c:	19212223          	sw	s2,388(sp)
     b60:	19312023          	sw	s3,384(sp)
     b64:	17412e23          	sw	s4,380(sp)
     b68:	17512c23          	sw	s5,376(sp)
     b6c:	17612a23          	sw	s6,372(sp)
     b70:	17712823          	sw	s7,368(sp)
     b74:	17812623          	sw	s8,364(sp)
     b78:	17912423          	sw	s9,360(sp)
     b7c:	17a12223          	sw	s10,356(sp)
     b80:	00050c93          	mv	s9,a0
     b84:	00058993          	mv	s3,a1
     b88:	00060a93          	mv	s5,a2
     b8c:	00068493          	mv	s1,a3
     b90:	00070913          	mv	s2,a4
     b94:	00078a13          	mv	s4,a5
     b98:	000067b7          	lui	a5,0x6
     b9c:	7a878793          	addi	a5,a5,1960 # 67a8 <T18_end+0x148>
     ba0:	00078067          	jr	a5

00000ba4 <T0_start>:
     ba4:	b0002bf3          	csrr	s7,mcycle
     ba8:	0009a683          	lw	a3,0(s3)
     bac:	00000593          	li	a1,0
     bb0:	2406c063          	bltz	a3,df0 <T0_start+0x24c>
     bb4:	2e068663          	beqz	a3,ea0 <T0_end+0x68>
     bb8:	000207b7          	lui	a5,0x20
     bbc:	2cd7de63          	bge	a5,a3,e98 <T0_end+0x60>
     bc0:	00000c13          	li	s8,0
     bc4:	4016d693          	srai	a3,a3,0x1
     bc8:	001c0c13          	addi	s8,s8,1
     bcc:	fed7cce3          	blt	a5,a3,bc4 <T0_start+0x20>
     bd0:	ffff0b37          	lui	s6,0xffff0
     bd4:	01668b33          	add	s6,a3,s6
     bd8:	41fb5793          	srai	a5,s6,0x1f
     bdc:	010b5593          	srli	a1,s6,0x10
     be0:	01079793          	slli	a5,a5,0x10
     be4:	00010737          	lui	a4,0x10
     be8:	00e68633          	add	a2,a3,a4
     bec:	41f65693          	srai	a3,a2,0x1f
     bf0:	010b1513          	slli	a0,s6,0x10
     bf4:	00f585b3          	add	a1,a1,a5
     bf8:	3900b0ef          	jal	bf88 <__divdi3>
     bfc:	41f55613          	srai	a2,a0,0x1f
     c00:	02a607b3          	mul	a5,a2,a0
     c04:	02a506b3          	mul	a3,a0,a0
     c08:	02a53733          	mulhu	a4,a0,a0
     c0c:	20e7a7b3          	sh1add	a5,a5,a4
     c10:	01079793          	slli	a5,a5,0x10
     c14:	0106d693          	srli	a3,a3,0x10
     c18:	00d786b3          	add	a3,a5,a3
     c1c:	41f6d313          	srai	t1,a3,0x1f
     c20:	02d307b3          	mul	a5,t1,a3
     c24:	02d68733          	mul	a4,a3,a3
     c28:	02d6b5b3          	mulhu	a1,a3,a3
     c2c:	20b7a7b3          	sh1add	a5,a5,a1
     c30:	01079793          	slli	a5,a5,0x10
     c34:	01075713          	srli	a4,a4,0x10
     c38:	00e78733          	add	a4,a5,a4
     c3c:	41f75813          	srai	a6,a4,0x1f
     c40:	010c1793          	slli	a5,s8,0x10
     c44:	41f7d893          	srai	a7,a5,0x1f
     c48:	0000be37          	lui	t3,0xb
     c4c:	172e0e13          	addi	t3,t3,370 # b172 <__divdf3+0x6c2>
     c50:	03c888b3          	mul	a7,a7,t3
     c54:	03c785b3          	mul	a1,a5,t3
     c58:	03c7b7b3          	mulhu	a5,a5,t3
     c5c:	00f887b3          	add	a5,a7,a5
     c60:	01079793          	slli	a5,a5,0x10
     c64:	0105d593          	srli	a1,a1,0x10
     c68:	00b785b3          	add	a1,a5,a1
     c6c:	00bb05b3          	add	a1,s6,a1
     c70:	000028b7          	lui	a7,0x2
     c74:	5e288893          	addi	a7,a7,1506 # 25e2 <T6_start+0x392>
     c78:	03180e33          	mul	t3,a6,a7
     c7c:	031707b3          	mul	a5,a4,a7
     c80:	031738b3          	mulhu	a7,a4,a7
     c84:	011e08b3          	add	a7,t3,a7
     c88:	01089893          	slli	a7,a7,0x10
     c8c:	0107d793          	srli	a5,a5,0x10
     c90:	00f887b3          	add	a5,a7,a5
     c94:	000038b7          	lui	a7,0x3
     c98:	e8d88893          	addi	a7,a7,-371 # 2e8d <T9_start+0x2c9>
     c9c:	011787b3          	add	a5,a5,a7
     ca0:	41f7de13          	srai	t3,a5,0x1f
     ca4:	02ee0e33          	mul	t3,t3,a4
     ca8:	02f808b3          	mul	a7,a6,a5
     cac:	011e0e33          	add	t3,t3,a7
     cb0:	02e788b3          	mul	a7,a5,a4
     cb4:	02e7b7b3          	mulhu	a5,a5,a4
     cb8:	00fe07b3          	add	a5,t3,a5
     cbc:	01079793          	slli	a5,a5,0x10
     cc0:	0108d893          	srli	a7,a7,0x10
     cc4:	011788b3          	add	a7,a5,a7
     cc8:	000057b7          	lui	a5,0x5
     ccc:	92578793          	addi	a5,a5,-1755 # 4925 <T12_start+0x765>
     cd0:	00f888b3          	add	a7,a7,a5
     cd4:	41f8de13          	srai	t3,a7,0x1f
     cd8:	02ee0e33          	mul	t3,t3,a4
     cdc:	031807b3          	mul	a5,a6,a7
     ce0:	00fe0e33          	add	t3,t3,a5
     ce4:	02e887b3          	mul	a5,a7,a4
     ce8:	02e8b8b3          	mulhu	a7,a7,a4
     cec:	011e08b3          	add	a7,t3,a7
     cf0:	01089893          	slli	a7,a7,0x10
     cf4:	0107d793          	srli	a5,a5,0x10
     cf8:	00f887b3          	add	a5,a7,a5
     cfc:	0000b8b7          	lui	a7,0xb
     d00:	aab88893          	addi	a7,a7,-1365 # aaab <__adddf3+0x747>
     d04:	011787b3          	add	a5,a5,a7
     d08:	41f7d893          	srai	a7,a5,0x1f
     d0c:	02d888b3          	mul	a7,a7,a3
     d10:	02f30333          	mul	t1,t1,a5
     d14:	00688333          	add	t1,a7,t1
     d18:	02d788b3          	mul	a7,a5,a3
     d1c:	02d7b7b3          	mulhu	a5,a5,a3
     d20:	00f307b3          	add	a5,t1,a5
     d24:	01079793          	slli	a5,a5,0x10
     d28:	0108d893          	srli	a7,a7,0x10
     d2c:	011788b3          	add	a7,a5,a7
     d30:	000027b7          	lui	a5,0x2
     d34:	73478793          	addi	a5,a5,1844 # 2734 <T7_start+0x78>
     d38:	02f80333          	mul	t1,a6,a5
     d3c:	02f706b3          	mul	a3,a4,a5
     d40:	02f737b3          	mulhu	a5,a4,a5
     d44:	00f307b3          	add	a5,t1,a5
     d48:	01079793          	slli	a5,a5,0x10
     d4c:	0106d693          	srli	a3,a3,0x10
     d50:	00d786b3          	add	a3,a5,a3
     d54:	000047b7          	lui	a5,0x4
     d58:	8e478793          	addi	a5,a5,-1820 # 38e4 <T10_start+0x47c>
     d5c:	00f686b3          	add	a3,a3,a5
     d60:	41f6d313          	srai	t1,a3,0x1f
     d64:	02e30333          	mul	t1,t1,a4
     d68:	02d807b3          	mul	a5,a6,a3
     d6c:	00f30333          	add	t1,t1,a5
     d70:	02e687b3          	mul	a5,a3,a4
     d74:	02e6b6b3          	mulhu	a3,a3,a4
     d78:	00d306b3          	add	a3,t1,a3
     d7c:	01069693          	slli	a3,a3,0x10
     d80:	0107d793          	srli	a5,a5,0x10
     d84:	00f687b3          	add	a5,a3,a5
     d88:	000066b7          	lui	a3,0x6
     d8c:	66668693          	addi	a3,a3,1638 # 6666 <T18_end+0x6>
     d90:	00d787b3          	add	a5,a5,a3
     d94:	41f7d693          	srai	a3,a5,0x1f
     d98:	02e686b3          	mul	a3,a3,a4
     d9c:	02f80833          	mul	a6,a6,a5
     da0:	010686b3          	add	a3,a3,a6
     da4:	02e78833          	mul	a6,a5,a4
     da8:	02e7b7b3          	mulhu	a5,a5,a4
     dac:	00f687b3          	add	a5,a3,a5
     db0:	01079793          	slli	a5,a5,0x10
     db4:	01085713          	srli	a4,a6,0x10
     db8:	00e78733          	add	a4,a5,a4
     dbc:	00e888b3          	add	a7,a7,a4
     dc0:	411b0b33          	sub	s6,s6,a7
     dc4:	41fb5793          	srai	a5,s6,0x1f
     dc8:	02a787b3          	mul	a5,a5,a0
     dcc:	03660633          	mul	a2,a2,s6
     dd0:	00c787b3          	add	a5,a5,a2
     dd4:	02ab0733          	mul	a4,s6,a0
     dd8:	02ab3b33          	mulhu	s6,s6,a0
     ddc:	016787b3          	add	a5,a5,s6
     de0:	01079793          	slli	a5,a5,0x10
     de4:	01075713          	srli	a4,a4,0x10
     de8:	00e78733          	add	a4,a5,a4
     dec:	40e585b3          	sub	a1,a1,a4
     df0:	06b12023          	sw	a1,96(sp)
     df4:	0089ac03          	lw	s8,8(s3)
     df8:	0044ab03          	lw	s6,4(s1)
     dfc:	000b0513          	mv	a0,s6
     e00:	020b0263          	beqz	s6,e24 <T0_start+0x280>
     e04:	41fc5793          	srai	a5,s8,0x1f
     e08:	010c5593          	srli	a1,s8,0x10
     e0c:	01079793          	slli	a5,a5,0x10
     e10:	000b0613          	mv	a2,s6
     e14:	41fb5693          	srai	a3,s6,0x1f
     e18:	010c1513          	slli	a0,s8,0x10
     e1c:	00f585b3          	add	a1,a1,a5
     e20:	1680b0ef          	jal	bf88 <__divdi3>
     e24:	06a12223          	sw	a0,100(sp)
     e28:	418b0b33          	sub	s6,s6,s8
     e2c:	07612423          	sw	s6,104(sp)
     e30:	0084a783          	lw	a5,8(s1)
     e34:	06f12623          	sw	a5,108(sp)

00000e38 <T0_end>:
     e38:	b00027f3          	csrr	a5,mcycle
     e3c:	417787b3          	sub	a5,a5,s7
     e40:	00fa2023          	sw	a5,0(s4)
     e44:	06012683          	lw	a3,96(sp)
     e48:	06412703          	lw	a4,100(sp)
     e4c:	00100793          	li	a5,1
     e50:	00d75663          	bge	a4,a3,e5c <T0_end+0x24>
     e54:	00068713          	mv	a4,a3
     e58:	00000793          	li	a5,0
     e5c:	06812683          	lw	a3,104(sp)
     e60:	04e6d463          	bge	a3,a4,ea8 <T0_end+0x70>
     e64:	00070693          	mv	a3,a4
     e68:	06c12703          	lw	a4,108(sp)
     e6c:	00d74463          	blt	a4,a3,e74 <T0_end+0x3c>
     e70:	00300793          	li	a5,3
     e74:	00020737          	lui	a4,0x20
     e78:	000206b7          	lui	a3,0x20
     e7c:	1b068693          	addi	a3,a3,432 # 201b0 <next.22>
     e80:	20d7c7b3          	sh2add	a5,a5,a3
     e84:	0007a783          	lw	a5,0(a5)
     e88:	14470713          	addi	a4,a4,324 # 20144 <jump_table.23>
     e8c:	20e7c7b3          	sh2add	a5,a5,a4
     e90:	0007a783          	lw	a5,0(a5)
     e94:	d0dff06f          	j	ba0 <inferenceTPG+0x50>
     e98:	00000c13          	li	s8,0
     e9c:	d35ff06f          	j	bd0 <T0_start+0x2c>
     ea0:	fff00593          	li	a1,-1
     ea4:	f4dff06f          	j	df0 <T0_start+0x24c>
     ea8:	00200793          	li	a5,2
     eac:	fbdff06f          	j	e68 <T0_end+0x30>

00000eb0 <T1_start>:
     eb0:	b0002bf3          	csrr	s7,mcycle
     eb4:	0009a683          	lw	a3,0(s3)
     eb8:	00000593          	li	a1,0
     ebc:	2406c063          	bltz	a3,10fc <T1_start+0x24c>
     ec0:	2e068863          	beqz	a3,11b0 <T1_end+0x68>
     ec4:	000207b7          	lui	a5,0x20
     ec8:	2ed7d063          	bge	a5,a3,11a8 <T1_end+0x60>
     ecc:	00000c13          	li	s8,0
     ed0:	4016d693          	srai	a3,a3,0x1
     ed4:	001c0c13          	addi	s8,s8,1
     ed8:	fed7cce3          	blt	a5,a3,ed0 <T1_start+0x20>
     edc:	ffff0b37          	lui	s6,0xffff0
     ee0:	01668b33          	add	s6,a3,s6
     ee4:	41fb5793          	srai	a5,s6,0x1f
     ee8:	010b5593          	srli	a1,s6,0x10
     eec:	01079793          	slli	a5,a5,0x10
     ef0:	00010737          	lui	a4,0x10
     ef4:	00e68633          	add	a2,a3,a4
     ef8:	41f65693          	srai	a3,a2,0x1f
     efc:	010b1513          	slli	a0,s6,0x10
     f00:	00f585b3          	add	a1,a1,a5
     f04:	0840b0ef          	jal	bf88 <__divdi3>
     f08:	41f55613          	srai	a2,a0,0x1f
     f0c:	02a607b3          	mul	a5,a2,a0
     f10:	02a506b3          	mul	a3,a0,a0
     f14:	02a53733          	mulhu	a4,a0,a0
     f18:	20e7a7b3          	sh1add	a5,a5,a4
     f1c:	01079793          	slli	a5,a5,0x10
     f20:	0106d693          	srli	a3,a3,0x10
     f24:	00d786b3          	add	a3,a5,a3
     f28:	41f6d313          	srai	t1,a3,0x1f
     f2c:	02d307b3          	mul	a5,t1,a3
     f30:	02d68733          	mul	a4,a3,a3
     f34:	02d6b5b3          	mulhu	a1,a3,a3
     f38:	20b7a7b3          	sh1add	a5,a5,a1
     f3c:	01079793          	slli	a5,a5,0x10
     f40:	01075713          	srli	a4,a4,0x10
     f44:	00e78733          	add	a4,a5,a4
     f48:	41f75813          	srai	a6,a4,0x1f
     f4c:	010c1793          	slli	a5,s8,0x10
     f50:	41f7d893          	srai	a7,a5,0x1f
     f54:	0000be37          	lui	t3,0xb
     f58:	172e0e13          	addi	t3,t3,370 # b172 <__divdf3+0x6c2>
     f5c:	03c888b3          	mul	a7,a7,t3
     f60:	03c785b3          	mul	a1,a5,t3
     f64:	03c7b7b3          	mulhu	a5,a5,t3
     f68:	00f887b3          	add	a5,a7,a5
     f6c:	01079793          	slli	a5,a5,0x10
     f70:	0105d593          	srli	a1,a1,0x10
     f74:	00b785b3          	add	a1,a5,a1
     f78:	00bb05b3          	add	a1,s6,a1
     f7c:	000028b7          	lui	a7,0x2
     f80:	5e288893          	addi	a7,a7,1506 # 25e2 <T6_start+0x392>
     f84:	03180e33          	mul	t3,a6,a7
     f88:	031707b3          	mul	a5,a4,a7
     f8c:	031738b3          	mulhu	a7,a4,a7
     f90:	011e08b3          	add	a7,t3,a7
     f94:	01089893          	slli	a7,a7,0x10
     f98:	0107d793          	srli	a5,a5,0x10
     f9c:	00f887b3          	add	a5,a7,a5
     fa0:	000038b7          	lui	a7,0x3
     fa4:	e8d88893          	addi	a7,a7,-371 # 2e8d <T9_start+0x2c9>
     fa8:	011787b3          	add	a5,a5,a7
     fac:	41f7de13          	srai	t3,a5,0x1f
     fb0:	02ee0e33          	mul	t3,t3,a4
     fb4:	02f808b3          	mul	a7,a6,a5
     fb8:	011e0e33          	add	t3,t3,a7
     fbc:	02e788b3          	mul	a7,a5,a4
     fc0:	02e7b7b3          	mulhu	a5,a5,a4
     fc4:	00fe07b3          	add	a5,t3,a5
     fc8:	01079793          	slli	a5,a5,0x10
     fcc:	0108d893          	srli	a7,a7,0x10
     fd0:	011788b3          	add	a7,a5,a7
     fd4:	000057b7          	lui	a5,0x5
     fd8:	92578793          	addi	a5,a5,-1755 # 4925 <T12_start+0x765>
     fdc:	00f888b3          	add	a7,a7,a5
     fe0:	41f8de13          	srai	t3,a7,0x1f
     fe4:	02ee0e33          	mul	t3,t3,a4
     fe8:	031807b3          	mul	a5,a6,a7
     fec:	00fe0e33          	add	t3,t3,a5
     ff0:	02e887b3          	mul	a5,a7,a4
     ff4:	02e8b8b3          	mulhu	a7,a7,a4
     ff8:	011e08b3          	add	a7,t3,a7
     ffc:	01089893          	slli	a7,a7,0x10
    1000:	0107d793          	srli	a5,a5,0x10
    1004:	00f887b3          	add	a5,a7,a5
    1008:	0000b8b7          	lui	a7,0xb
    100c:	aab88893          	addi	a7,a7,-1365 # aaab <__adddf3+0x747>
    1010:	011787b3          	add	a5,a5,a7
    1014:	41f7d893          	srai	a7,a5,0x1f
    1018:	02d888b3          	mul	a7,a7,a3
    101c:	02f30333          	mul	t1,t1,a5
    1020:	00688333          	add	t1,a7,t1
    1024:	02d788b3          	mul	a7,a5,a3
    1028:	02d7b7b3          	mulhu	a5,a5,a3
    102c:	00f307b3          	add	a5,t1,a5
    1030:	01079793          	slli	a5,a5,0x10
    1034:	0108d893          	srli	a7,a7,0x10
    1038:	011788b3          	add	a7,a5,a7
    103c:	000027b7          	lui	a5,0x2
    1040:	73478793          	addi	a5,a5,1844 # 2734 <T7_start+0x78>
    1044:	02f80333          	mul	t1,a6,a5
    1048:	02f706b3          	mul	a3,a4,a5
    104c:	02f737b3          	mulhu	a5,a4,a5
    1050:	00f307b3          	add	a5,t1,a5
    1054:	01079793          	slli	a5,a5,0x10
    1058:	0106d693          	srli	a3,a3,0x10
    105c:	00d786b3          	add	a3,a5,a3
    1060:	000047b7          	lui	a5,0x4
    1064:	8e478793          	addi	a5,a5,-1820 # 38e4 <T10_start+0x47c>
    1068:	00f686b3          	add	a3,a3,a5
    106c:	41f6d313          	srai	t1,a3,0x1f
    1070:	02e30333          	mul	t1,t1,a4
    1074:	02d807b3          	mul	a5,a6,a3
    1078:	00f30333          	add	t1,t1,a5
    107c:	02e687b3          	mul	a5,a3,a4
    1080:	02e6b6b3          	mulhu	a3,a3,a4
    1084:	00d306b3          	add	a3,t1,a3
    1088:	01069693          	slli	a3,a3,0x10
    108c:	0107d793          	srli	a5,a5,0x10
    1090:	00f687b3          	add	a5,a3,a5
    1094:	000066b7          	lui	a3,0x6
    1098:	66668693          	addi	a3,a3,1638 # 6666 <T18_end+0x6>
    109c:	00d787b3          	add	a5,a5,a3
    10a0:	41f7d693          	srai	a3,a5,0x1f
    10a4:	02e686b3          	mul	a3,a3,a4
    10a8:	02f80833          	mul	a6,a6,a5
    10ac:	010686b3          	add	a3,a3,a6
    10b0:	02e78833          	mul	a6,a5,a4
    10b4:	02e7b7b3          	mulhu	a5,a5,a4
    10b8:	00f687b3          	add	a5,a3,a5
    10bc:	01079793          	slli	a5,a5,0x10
    10c0:	01085713          	srli	a4,a6,0x10
    10c4:	00e78733          	add	a4,a5,a4
    10c8:	00e888b3          	add	a7,a7,a4
    10cc:	411b0b33          	sub	s6,s6,a7
    10d0:	41fb5793          	srai	a5,s6,0x1f
    10d4:	02a787b3          	mul	a5,a5,a0
    10d8:	03660633          	mul	a2,a2,s6
    10dc:	00c787b3          	add	a5,a5,a2
    10e0:	02ab0733          	mul	a4,s6,a0
    10e4:	02ab3b33          	mulhu	s6,s6,a0
    10e8:	016787b3          	add	a5,a5,s6
    10ec:	01079793          	slli	a5,a5,0x10
    10f0:	01075713          	srli	a4,a4,0x10
    10f4:	00e78733          	add	a4,a5,a4
    10f8:	40e585b3          	sub	a1,a1,a4
    10fc:	06b12823          	sw	a1,112(sp)
    1100:	00492603          	lw	a2,4(s2)
    1104:	02060463          	beqz	a2,112c <T1_start+0x27c>
    1108:	01492503          	lw	a0,20(s2)
    110c:	41f55793          	srai	a5,a0,0x1f
    1110:	01055593          	srli	a1,a0,0x10
    1114:	01079793          	slli	a5,a5,0x10
    1118:	41f65693          	srai	a3,a2,0x1f
    111c:	01051513          	slli	a0,a0,0x10
    1120:	00f585b3          	add	a1,a1,a5
    1124:	6650a0ef          	jal	bf88 <__divdi3>
    1128:	00050613          	mv	a2,a0
    112c:	06c12a23          	sw	a2,116(sp)
    1130:	0049a783          	lw	a5,4(s3)
    1134:	004aa703          	lw	a4,4(s5)
    1138:	40e787b3          	sub	a5,a5,a4
    113c:	06f12c23          	sw	a5,120(sp)
    1140:	0084a783          	lw	a5,8(s1)
    1144:	06f12e23          	sw	a5,124(sp)

00001148 <T1_end>:
    1148:	b00027f3          	csrr	a5,mcycle
    114c:	417787b3          	sub	a5,a5,s7
    1150:	00fa2223          	sw	a5,4(s4)
    1154:	07012683          	lw	a3,112(sp)
    1158:	07412703          	lw	a4,116(sp)
    115c:	00100793          	li	a5,1
    1160:	00d75663          	bge	a4,a3,116c <T1_end+0x24>
    1164:	00068713          	mv	a4,a3
    1168:	00000793          	li	a5,0
    116c:	07812683          	lw	a3,120(sp)
    1170:	04e6d463          	bge	a3,a4,11b8 <T1_end+0x70>
    1174:	00070693          	mv	a3,a4
    1178:	07c12703          	lw	a4,124(sp)
    117c:	00d74463          	blt	a4,a3,1184 <T1_end+0x3c>
    1180:	00300793          	li	a5,3
    1184:	00020737          	lui	a4,0x20
    1188:	000206b7          	lui	a3,0x20
    118c:	13468693          	addi	a3,a3,308 # 20134 <next.21>
    1190:	20d7c7b3          	sh2add	a5,a5,a3
    1194:	0007a783          	lw	a5,0(a5)
    1198:	14470713          	addi	a4,a4,324 # 20144 <jump_table.23>
    119c:	20e7c7b3          	sh2add	a5,a5,a4
    11a0:	0007a783          	lw	a5,0(a5)
    11a4:	9fdff06f          	j	ba0 <inferenceTPG+0x50>
    11a8:	00000c13          	li	s8,0
    11ac:	d31ff06f          	j	edc <T1_start+0x2c>
    11b0:	fff00593          	li	a1,-1
    11b4:	f49ff06f          	j	10fc <T1_start+0x24c>
    11b8:	00200793          	li	a5,2
    11bc:	fbdff06f          	j	1178 <T1_end+0x30>

000011c0 <T2_start>:
    11c0:	b0002b73          	csrr	s6,mcycle
    11c4:	0089ab83          	lw	s7,8(s3)
    11c8:	008aa603          	lw	a2,8(s5)
    11cc:	02060263          	beqz	a2,11f0 <T2_start+0x30>
    11d0:	41fbd793          	srai	a5,s7,0x1f
    11d4:	010bd593          	srli	a1,s7,0x10
    11d8:	01079793          	slli	a5,a5,0x10
    11dc:	41f65693          	srai	a3,a2,0x1f
    11e0:	010b9513          	slli	a0,s7,0x10
    11e4:	00f585b3          	add	a1,a1,a5
    11e8:	5a10a0ef          	jal	bf88 <__divdi3>
    11ec:	00050613          	mv	a2,a0
    11f0:	02c12e23          	sw	a2,60(sp)
    11f4:	517cd7b7          	lui	a5,0x517cd
    11f8:	c8378793          	addi	a5,a5,-893 # 517ccc83 <_sp+0x517a1bf3>
    11fc:	02fb97b3          	mulh	a5,s7,a5
    1200:	4117d793          	srai	a5,a5,0x11
    1204:	41fbd713          	srai	a4,s7,0x1f
    1208:	40e787b3          	sub	a5,a5,a4
    120c:	00065737          	lui	a4,0x65
    1210:	87e70713          	addi	a4,a4,-1922 # 6487e <_sp+0x397ee>
    1214:	02e787b3          	mul	a5,a5,a4
    1218:	40fb87b3          	sub	a5,s7,a5
    121c:	1407c463          	bltz	a5,1364 <T2_end+0x54>
    1220:	fffe7737          	lui	a4,0xfffe7
    1224:	ddf70713          	addi	a4,a4,-545 # fffe6ddf <_sp+0xfffbbd4f>
    1228:	00e78733          	add	a4,a5,a4
    122c:	000196b7          	lui	a3,0x19
    1230:	21e68693          	addi	a3,a3,542 # 1921e <heap.cpp.6b15d6f6+0x3a6e>
    1234:	14e6e063          	bltu	a3,a4,1374 <T2_end+0x64>
    1238:	00032737          	lui	a4,0x32
    123c:	43f70713          	addi	a4,a4,1087 # 3243f <_sp+0x73af>
    1240:	40f707b3          	sub	a5,a4,a5
    1244:	00100513          	li	a0,1
    1248:	41f7d813          	srai	a6,a5,0x1f
    124c:	02f80733          	mul	a4,a6,a5
    1250:	02f78633          	mul	a2,a5,a5
    1254:	02f7b6b3          	mulhu	a3,a5,a5
    1258:	20d72733          	sh1add	a4,a4,a3
    125c:	01071713          	slli	a4,a4,0x10
    1260:	01065613          	srli	a2,a2,0x10
    1264:	00c70633          	add	a2,a4,a2
    1268:	41f65893          	srai	a7,a2,0x1f
    126c:	1f300593          	li	a1,499
    1270:	02b88733          	mul	a4,a7,a1
    1274:	02b606b3          	mul	a3,a2,a1
    1278:	02b635b3          	mulhu	a1,a2,a1
    127c:	00b70733          	add	a4,a4,a1
    1280:	01071713          	slli	a4,a4,0x10
    1284:	0106d693          	srli	a3,a3,0x10
    1288:	00d706b3          	add	a3,a4,a3
    128c:	ffffd737          	lui	a4,0xffffd
    1290:	57e70713          	addi	a4,a4,1406 # ffffd57e <_sp+0xfffd24ee>
    1294:	00e686b3          	add	a3,a3,a4
    1298:	41f6d593          	srai	a1,a3,0x1f
    129c:	02c585b3          	mul	a1,a1,a2
    12a0:	02d888b3          	mul	a7,a7,a3
    12a4:	011585b3          	add	a1,a1,a7
    12a8:	02c68733          	mul	a4,a3,a2
    12ac:	02c6b6b3          	mulhu	a3,a3,a2
    12b0:	00d586b3          	add	a3,a1,a3
    12b4:	01069693          	slli	a3,a3,0x10
    12b8:	01075713          	srli	a4,a4,0x10
    12bc:	00e68733          	add	a4,a3,a4
    12c0:	000106b7          	lui	a3,0x10
    12c4:	00d70733          	add	a4,a4,a3
    12c8:	41f75693          	srai	a3,a4,0x1f
    12cc:	02f686b3          	mul	a3,a3,a5
    12d0:	02e80833          	mul	a6,a6,a4
    12d4:	010686b3          	add	a3,a3,a6
    12d8:	02f70633          	mul	a2,a4,a5
    12dc:	02f73733          	mulhu	a4,a4,a5
    12e0:	00e687b3          	add	a5,a3,a4
    12e4:	01079793          	slli	a5,a5,0x10
    12e8:	01065713          	srli	a4,a2,0x10
    12ec:	00e78733          	add	a4,a5,a4
    12f0:	02e50533          	mul	a0,a0,a4
    12f4:	0084a783          	lw	a5,8(s1)
    12f8:	00f50533          	add	a0,a0,a5
    12fc:	04a12023          	sw	a0,64(sp)
    1300:	0049a783          	lw	a5,4(s3)
    1304:	004aa703          	lw	a4,4(s5)
    1308:	40e787b3          	sub	a5,a5,a4
    130c:	04f12223          	sw	a5,68(sp)

00001310 <T2_end>:
    1310:	b00027f3          	csrr	a5,mcycle
    1314:	416787b3          	sub	a5,a5,s6
    1318:	00fa2423          	sw	a5,8(s4)
    131c:	03c12683          	lw	a3,60(sp)
    1320:	04012703          	lw	a4,64(sp)
    1324:	00100793          	li	a5,1
    1328:	00d75663          	bge	a4,a3,1334 <T2_end+0x24>
    132c:	00068713          	mv	a4,a3
    1330:	00000793          	li	a5,0
    1334:	04412683          	lw	a3,68(sp)
    1338:	00e6c463          	blt	a3,a4,1340 <T2_end+0x30>
    133c:	00200793          	li	a5,2
    1340:	00020737          	lui	a4,0x20
    1344:	000206b7          	lui	a3,0x20
    1348:	12868693          	addi	a3,a3,296 # 20128 <next.20>
    134c:	20d7c7b3          	sh2add	a5,a5,a3
    1350:	0007a783          	lw	a5,0(a5)
    1354:	14470713          	addi	a4,a4,324 # 20144 <jump_table.23>
    1358:	20e7c7b3          	sh2add	a5,a5,a4
    135c:	0007a783          	lw	a5,0(a5)
    1360:	841ff06f          	j	ba0 <inferenceTPG+0x50>
    1364:	00065737          	lui	a4,0x65
    1368:	87e70713          	addi	a4,a4,-1922 # 6487e <_sp+0x397ee>
    136c:	00e787b3          	add	a5,a5,a4
    1370:	eb1ff06f          	j	1220 <T2_start+0x60>
    1374:	fffce737          	lui	a4,0xfffce
    1378:	bc070713          	addi	a4,a4,-1088 # fffcdbc0 <_sp+0xfffa2b30>
    137c:	00e78733          	add	a4,a5,a4
    1380:	000196b7          	lui	a3,0x19
    1384:	21f68693          	addi	a3,a3,543 # 1921f <heap.cpp.6b15d6f6+0x3a6f>
    1388:	00e6ec63          	bltu	a3,a4,13a0 <T2_end+0x90>
    138c:	fffce737          	lui	a4,0xfffce
    1390:	bc170713          	addi	a4,a4,-1087 # fffcdbc1 <_sp+0xfffa2b31>
    1394:	00e787b3          	add	a5,a5,a4
    1398:	fff00513          	li	a0,-1
    139c:	eadff06f          	j	1248 <T2_start+0x88>
    13a0:	0004b737          	lui	a4,0x4b
    13a4:	65f70713          	addi	a4,a4,1631 # 4b65f <_sp+0x205cf>
    13a8:	00100513          	li	a0,1
    13ac:	e8f75ee3          	bge	a4,a5,1248 <T2_start+0x88>
    13b0:	00065737          	lui	a4,0x65
    13b4:	87e70713          	addi	a4,a4,-1922 # 6487e <_sp+0x397ee>
    13b8:	40f707b3          	sub	a5,a4,a5
    13bc:	fff00513          	li	a0,-1
    13c0:	e89ff06f          	j	1248 <T2_start+0x88>

000013c4 <T3_start>:
    13c4:	b0002bf3          	csrr	s7,mcycle
    13c8:	008aa683          	lw	a3,8(s5)
    13cc:	00000593          	li	a1,0
    13d0:	2406c063          	bltz	a3,1610 <T3_start+0x24c>
    13d4:	28068663          	beqz	a3,1660 <T3_end+0x44>
    13d8:	000207b7          	lui	a5,0x20
    13dc:	26d7de63          	bge	a5,a3,1658 <T3_end+0x3c>
    13e0:	00000c13          	li	s8,0
    13e4:	4016d693          	srai	a3,a3,0x1
    13e8:	001c0c13          	addi	s8,s8,1
    13ec:	fed7cce3          	blt	a5,a3,13e4 <T3_start+0x20>
    13f0:	ffff0b37          	lui	s6,0xffff0
    13f4:	01668b33          	add	s6,a3,s6
    13f8:	41fb5793          	srai	a5,s6,0x1f
    13fc:	010b5593          	srli	a1,s6,0x10
    1400:	01079793          	slli	a5,a5,0x10
    1404:	00010737          	lui	a4,0x10
    1408:	00e68633          	add	a2,a3,a4
    140c:	41f65693          	srai	a3,a2,0x1f
    1410:	010b1513          	slli	a0,s6,0x10
    1414:	00f585b3          	add	a1,a1,a5
    1418:	3710a0ef          	jal	bf88 <__divdi3>
    141c:	41f55613          	srai	a2,a0,0x1f
    1420:	02a607b3          	mul	a5,a2,a0
    1424:	02a506b3          	mul	a3,a0,a0
    1428:	02a53733          	mulhu	a4,a0,a0
    142c:	20e7a7b3          	sh1add	a5,a5,a4
    1430:	01079793          	slli	a5,a5,0x10
    1434:	0106d693          	srli	a3,a3,0x10
    1438:	00d786b3          	add	a3,a5,a3
    143c:	41f6d313          	srai	t1,a3,0x1f
    1440:	02d307b3          	mul	a5,t1,a3
    1444:	02d68733          	mul	a4,a3,a3
    1448:	02d6b5b3          	mulhu	a1,a3,a3
    144c:	20b7a7b3          	sh1add	a5,a5,a1
    1450:	01079793          	slli	a5,a5,0x10
    1454:	01075713          	srli	a4,a4,0x10
    1458:	00e78733          	add	a4,a5,a4
    145c:	41f75813          	srai	a6,a4,0x1f
    1460:	010c1793          	slli	a5,s8,0x10
    1464:	41f7d893          	srai	a7,a5,0x1f
    1468:	0000be37          	lui	t3,0xb
    146c:	172e0e13          	addi	t3,t3,370 # b172 <__divdf3+0x6c2>
    1470:	03c888b3          	mul	a7,a7,t3
    1474:	03c785b3          	mul	a1,a5,t3
    1478:	03c7b7b3          	mulhu	a5,a5,t3
    147c:	00f887b3          	add	a5,a7,a5
    1480:	01079793          	slli	a5,a5,0x10
    1484:	0105d593          	srli	a1,a1,0x10
    1488:	00b785b3          	add	a1,a5,a1
    148c:	00bb05b3          	add	a1,s6,a1
    1490:	000028b7          	lui	a7,0x2
    1494:	5e288893          	addi	a7,a7,1506 # 25e2 <T6_start+0x392>
    1498:	03180e33          	mul	t3,a6,a7
    149c:	031707b3          	mul	a5,a4,a7
    14a0:	031738b3          	mulhu	a7,a4,a7
    14a4:	011e08b3          	add	a7,t3,a7
    14a8:	01089893          	slli	a7,a7,0x10
    14ac:	0107d793          	srli	a5,a5,0x10
    14b0:	00f887b3          	add	a5,a7,a5
    14b4:	000038b7          	lui	a7,0x3
    14b8:	e8d88893          	addi	a7,a7,-371 # 2e8d <T9_start+0x2c9>
    14bc:	011787b3          	add	a5,a5,a7
    14c0:	41f7de13          	srai	t3,a5,0x1f
    14c4:	02ee0e33          	mul	t3,t3,a4
    14c8:	02f808b3          	mul	a7,a6,a5
    14cc:	011e0e33          	add	t3,t3,a7
    14d0:	02e788b3          	mul	a7,a5,a4
    14d4:	02e7b7b3          	mulhu	a5,a5,a4
    14d8:	00fe07b3          	add	a5,t3,a5
    14dc:	01079793          	slli	a5,a5,0x10
    14e0:	0108d893          	srli	a7,a7,0x10
    14e4:	011788b3          	add	a7,a5,a7
    14e8:	000057b7          	lui	a5,0x5
    14ec:	92578793          	addi	a5,a5,-1755 # 4925 <T12_start+0x765>
    14f0:	00f888b3          	add	a7,a7,a5
    14f4:	41f8de13          	srai	t3,a7,0x1f
    14f8:	02ee0e33          	mul	t3,t3,a4
    14fc:	031807b3          	mul	a5,a6,a7
    1500:	00fe0e33          	add	t3,t3,a5
    1504:	02e887b3          	mul	a5,a7,a4
    1508:	02e8b8b3          	mulhu	a7,a7,a4
    150c:	011e08b3          	add	a7,t3,a7
    1510:	01089893          	slli	a7,a7,0x10
    1514:	0107d793          	srli	a5,a5,0x10
    1518:	00f887b3          	add	a5,a7,a5
    151c:	0000b8b7          	lui	a7,0xb
    1520:	aab88893          	addi	a7,a7,-1365 # aaab <__adddf3+0x747>
    1524:	011787b3          	add	a5,a5,a7
    1528:	41f7d893          	srai	a7,a5,0x1f
    152c:	02d888b3          	mul	a7,a7,a3
    1530:	02f30333          	mul	t1,t1,a5
    1534:	00688333          	add	t1,a7,t1
    1538:	02d788b3          	mul	a7,a5,a3
    153c:	02d7b7b3          	mulhu	a5,a5,a3
    1540:	00f307b3          	add	a5,t1,a5
    1544:	01079793          	slli	a5,a5,0x10
    1548:	0108d893          	srli	a7,a7,0x10
    154c:	011788b3          	add	a7,a5,a7
    1550:	000027b7          	lui	a5,0x2
    1554:	73478793          	addi	a5,a5,1844 # 2734 <T7_start+0x78>
    1558:	02f80333          	mul	t1,a6,a5
    155c:	02f706b3          	mul	a3,a4,a5
    1560:	02f737b3          	mulhu	a5,a4,a5
    1564:	00f307b3          	add	a5,t1,a5
    1568:	01079793          	slli	a5,a5,0x10
    156c:	0106d693          	srli	a3,a3,0x10
    1570:	00d786b3          	add	a3,a5,a3
    1574:	000047b7          	lui	a5,0x4
    1578:	8e478793          	addi	a5,a5,-1820 # 38e4 <T10_start+0x47c>
    157c:	00f686b3          	add	a3,a3,a5
    1580:	41f6d313          	srai	t1,a3,0x1f
    1584:	02e30333          	mul	t1,t1,a4
    1588:	02d807b3          	mul	a5,a6,a3
    158c:	00f30333          	add	t1,t1,a5
    1590:	02e687b3          	mul	a5,a3,a4
    1594:	02e6b6b3          	mulhu	a3,a3,a4
    1598:	00d306b3          	add	a3,t1,a3
    159c:	01069693          	slli	a3,a3,0x10
    15a0:	0107d793          	srli	a5,a5,0x10
    15a4:	00f687b3          	add	a5,a3,a5
    15a8:	000066b7          	lui	a3,0x6
    15ac:	66668693          	addi	a3,a3,1638 # 6666 <T18_end+0x6>
    15b0:	00d787b3          	add	a5,a5,a3
    15b4:	41f7d693          	srai	a3,a5,0x1f
    15b8:	02e686b3          	mul	a3,a3,a4
    15bc:	02f80833          	mul	a6,a6,a5
    15c0:	010686b3          	add	a3,a3,a6
    15c4:	02e78833          	mul	a6,a5,a4
    15c8:	02e7b7b3          	mulhu	a5,a5,a4
    15cc:	00f687b3          	add	a5,a3,a5
    15d0:	01079793          	slli	a5,a5,0x10
    15d4:	01085713          	srli	a4,a6,0x10
    15d8:	00e78733          	add	a4,a5,a4
    15dc:	00e888b3          	add	a7,a7,a4
    15e0:	411b0b33          	sub	s6,s6,a7
    15e4:	41fb5793          	srai	a5,s6,0x1f
    15e8:	02a787b3          	mul	a5,a5,a0
    15ec:	03660633          	mul	a2,a2,s6
    15f0:	00c787b3          	add	a5,a5,a2
    15f4:	02ab0733          	mul	a4,s6,a0
    15f8:	02ab3b33          	mulhu	s6,s6,a0
    15fc:	016787b3          	add	a5,a5,s6
    1600:	01079793          	slli	a5,a5,0x10
    1604:	01075713          	srli	a4,a4,0x10
    1608:	00e78733          	add	a4,a5,a4
    160c:	40e585b3          	sub	a1,a1,a4
    1610:	00b12e23          	sw	a1,28(sp)
    1614:	0084a783          	lw	a5,8(s1)
    1618:	02f12023          	sw	a5,32(sp)

0000161c <T3_end>:
    161c:	b00027f3          	csrr	a5,mcycle
    1620:	417787b3          	sub	a5,a5,s7
    1624:	00fa2623          	sw	a5,12(s4)
    1628:	00020737          	lui	a4,0x20
    162c:	01c12783          	lw	a5,28(sp)
    1630:	02012603          	lw	a2,32(sp)
    1634:	00f627b3          	slt	a5,a2,a5
    1638:	0017b793          	seqz	a5,a5
    163c:	94c18693          	addi	a3,gp,-1716 # 22e10 <next.19>
    1640:	20d7c7b3          	sh2add	a5,a5,a3
    1644:	0007a783          	lw	a5,0(a5)
    1648:	14470713          	addi	a4,a4,324 # 20144 <jump_table.23>
    164c:	20e7c7b3          	sh2add	a5,a5,a4
    1650:	0007a783          	lw	a5,0(a5)
    1654:	d4cff06f          	j	ba0 <inferenceTPG+0x50>
    1658:	00000c13          	li	s8,0
    165c:	d95ff06f          	j	13f0 <T3_start+0x2c>
    1660:	fff00593          	li	a1,-1
    1664:	fadff06f          	j	1610 <T3_start+0x24c>

00001668 <T4_start>:
    1668:	b0002bf3          	csrr	s7,mcycle
    166c:	008aa683          	lw	a3,8(s5)
    1670:	00000593          	li	a1,0
    1674:	2406c063          	bltz	a3,18b4 <T4_start+0x24c>
    1678:	42068463          	beqz	a3,1aa0 <T4_end+0x44>
    167c:	000207b7          	lui	a5,0x20
    1680:	40d7dc63          	bge	a5,a3,1a98 <T4_end+0x3c>
    1684:	00000c13          	li	s8,0
    1688:	4016d693          	srai	a3,a3,0x1
    168c:	001c0c13          	addi	s8,s8,1
    1690:	fed7cce3          	blt	a5,a3,1688 <T4_start+0x20>
    1694:	ffff0b37          	lui	s6,0xffff0
    1698:	01668b33          	add	s6,a3,s6
    169c:	41fb5793          	srai	a5,s6,0x1f
    16a0:	010b5593          	srli	a1,s6,0x10
    16a4:	01079793          	slli	a5,a5,0x10
    16a8:	00010737          	lui	a4,0x10
    16ac:	00e68633          	add	a2,a3,a4
    16b0:	41f65693          	srai	a3,a2,0x1f
    16b4:	010b1513          	slli	a0,s6,0x10
    16b8:	00f585b3          	add	a1,a1,a5
    16bc:	0cd0a0ef          	jal	bf88 <__divdi3>
    16c0:	41f55613          	srai	a2,a0,0x1f
    16c4:	02a607b3          	mul	a5,a2,a0
    16c8:	02a506b3          	mul	a3,a0,a0
    16cc:	02a53733          	mulhu	a4,a0,a0
    16d0:	20e7a7b3          	sh1add	a5,a5,a4
    16d4:	01079793          	slli	a5,a5,0x10
    16d8:	0106d693          	srli	a3,a3,0x10
    16dc:	00d786b3          	add	a3,a5,a3
    16e0:	41f6d313          	srai	t1,a3,0x1f
    16e4:	02d307b3          	mul	a5,t1,a3
    16e8:	02d68733          	mul	a4,a3,a3
    16ec:	02d6b5b3          	mulhu	a1,a3,a3
    16f0:	20b7a7b3          	sh1add	a5,a5,a1
    16f4:	01079793          	slli	a5,a5,0x10
    16f8:	01075713          	srli	a4,a4,0x10
    16fc:	00e78733          	add	a4,a5,a4
    1700:	41f75813          	srai	a6,a4,0x1f
    1704:	010c1793          	slli	a5,s8,0x10
    1708:	41f7d893          	srai	a7,a5,0x1f
    170c:	0000be37          	lui	t3,0xb
    1710:	172e0e13          	addi	t3,t3,370 # b172 <__divdf3+0x6c2>
    1714:	03c888b3          	mul	a7,a7,t3
    1718:	03c785b3          	mul	a1,a5,t3
    171c:	03c7b7b3          	mulhu	a5,a5,t3
    1720:	00f887b3          	add	a5,a7,a5
    1724:	01079793          	slli	a5,a5,0x10
    1728:	0105d593          	srli	a1,a1,0x10
    172c:	00b785b3          	add	a1,a5,a1
    1730:	00bb05b3          	add	a1,s6,a1
    1734:	000028b7          	lui	a7,0x2
    1738:	5e288893          	addi	a7,a7,1506 # 25e2 <T6_start+0x392>
    173c:	03180e33          	mul	t3,a6,a7
    1740:	031707b3          	mul	a5,a4,a7
    1744:	031738b3          	mulhu	a7,a4,a7
    1748:	011e08b3          	add	a7,t3,a7
    174c:	01089893          	slli	a7,a7,0x10
    1750:	0107d793          	srli	a5,a5,0x10
    1754:	00f887b3          	add	a5,a7,a5
    1758:	000038b7          	lui	a7,0x3
    175c:	e8d88893          	addi	a7,a7,-371 # 2e8d <T9_start+0x2c9>
    1760:	011787b3          	add	a5,a5,a7
    1764:	41f7de13          	srai	t3,a5,0x1f
    1768:	02ee0e33          	mul	t3,t3,a4
    176c:	02f808b3          	mul	a7,a6,a5
    1770:	011e0e33          	add	t3,t3,a7
    1774:	02e788b3          	mul	a7,a5,a4
    1778:	02e7b7b3          	mulhu	a5,a5,a4
    177c:	00fe07b3          	add	a5,t3,a5
    1780:	01079793          	slli	a5,a5,0x10
    1784:	0108d893          	srli	a7,a7,0x10
    1788:	011788b3          	add	a7,a5,a7
    178c:	000057b7          	lui	a5,0x5
    1790:	92578793          	addi	a5,a5,-1755 # 4925 <T12_start+0x765>
    1794:	00f888b3          	add	a7,a7,a5
    1798:	41f8de13          	srai	t3,a7,0x1f
    179c:	02ee0e33          	mul	t3,t3,a4
    17a0:	031807b3          	mul	a5,a6,a7
    17a4:	00fe0e33          	add	t3,t3,a5
    17a8:	02e887b3          	mul	a5,a7,a4
    17ac:	02e8b8b3          	mulhu	a7,a7,a4
    17b0:	011e08b3          	add	a7,t3,a7
    17b4:	01089893          	slli	a7,a7,0x10
    17b8:	0107d793          	srli	a5,a5,0x10
    17bc:	00f887b3          	add	a5,a7,a5
    17c0:	0000b8b7          	lui	a7,0xb
    17c4:	aab88893          	addi	a7,a7,-1365 # aaab <__adddf3+0x747>
    17c8:	011787b3          	add	a5,a5,a7
    17cc:	41f7d893          	srai	a7,a5,0x1f
    17d0:	02d888b3          	mul	a7,a7,a3
    17d4:	02f30333          	mul	t1,t1,a5
    17d8:	00688333          	add	t1,a7,t1
    17dc:	02d788b3          	mul	a7,a5,a3
    17e0:	02d7b7b3          	mulhu	a5,a5,a3
    17e4:	00f307b3          	add	a5,t1,a5
    17e8:	01079793          	slli	a5,a5,0x10
    17ec:	0108d893          	srli	a7,a7,0x10
    17f0:	011788b3          	add	a7,a5,a7
    17f4:	000027b7          	lui	a5,0x2
    17f8:	73478793          	addi	a5,a5,1844 # 2734 <T7_start+0x78>
    17fc:	02f80333          	mul	t1,a6,a5
    1800:	02f706b3          	mul	a3,a4,a5
    1804:	02f737b3          	mulhu	a5,a4,a5
    1808:	00f307b3          	add	a5,t1,a5
    180c:	01079793          	slli	a5,a5,0x10
    1810:	0106d693          	srli	a3,a3,0x10
    1814:	00d786b3          	add	a3,a5,a3
    1818:	000047b7          	lui	a5,0x4
    181c:	8e478793          	addi	a5,a5,-1820 # 38e4 <T10_start+0x47c>
    1820:	00f686b3          	add	a3,a3,a5
    1824:	41f6d313          	srai	t1,a3,0x1f
    1828:	02e30333          	mul	t1,t1,a4
    182c:	02d807b3          	mul	a5,a6,a3
    1830:	00f30333          	add	t1,t1,a5
    1834:	02e687b3          	mul	a5,a3,a4
    1838:	02e6b6b3          	mulhu	a3,a3,a4
    183c:	00d306b3          	add	a3,t1,a3
    1840:	01069693          	slli	a3,a3,0x10
    1844:	0107d793          	srli	a5,a5,0x10
    1848:	00f687b3          	add	a5,a3,a5
    184c:	000066b7          	lui	a3,0x6
    1850:	66668693          	addi	a3,a3,1638 # 6666 <T18_end+0x6>
    1854:	00d787b3          	add	a5,a5,a3
    1858:	41f7d693          	srai	a3,a5,0x1f
    185c:	02e686b3          	mul	a3,a3,a4
    1860:	02f80833          	mul	a6,a6,a5
    1864:	010686b3          	add	a3,a3,a6
    1868:	02e78833          	mul	a6,a5,a4
    186c:	02e7b7b3          	mulhu	a5,a5,a4
    1870:	00f687b3          	add	a5,a3,a5
    1874:	01079793          	slli	a5,a5,0x10
    1878:	01085713          	srli	a4,a6,0x10
    187c:	00e78733          	add	a4,a5,a4
    1880:	00e888b3          	add	a7,a7,a4
    1884:	411b0b33          	sub	s6,s6,a7
    1888:	41fb5793          	srai	a5,s6,0x1f
    188c:	02a787b3          	mul	a5,a5,a0
    1890:	03660633          	mul	a2,a2,s6
    1894:	00c787b3          	add	a5,a5,a2
    1898:	02ab0733          	mul	a4,s6,a0
    189c:	02ab3b33          	mulhu	s6,s6,a0
    18a0:	016787b3          	add	a5,a5,s6
    18a4:	01079793          	slli	a5,a5,0x10
    18a8:	01075713          	srli	a4,a4,0x10
    18ac:	00e78733          	add	a4,a5,a4
    18b0:	40e585b3          	sub	a1,a1,a4
    18b4:	02b12223          	sw	a1,36(sp)
    18b8:	0084a783          	lw	a5,8(s1)
    18bc:	00010737          	lui	a4,0x10
    18c0:	18078c63          	beqz	a5,1a58 <T4_start+0x3f0>
    18c4:	40f006b3          	neg	a3,a5
    18c8:	0ad7e6b3          	max	a3,a5,a3
    18cc:	41f6d713          	srai	a4,a3,0x1f
    18d0:	00017637          	lui	a2,0x17
    18d4:	15460613          	addi	a2,a2,340 # 17154 <heap.cpp.6b15d6f6+0x19a4>
    18d8:	02c70733          	mul	a4,a4,a2
    18dc:	02c68b33          	mul	s6,a3,a2
    18e0:	02c6b6b3          	mulhu	a3,a3,a2
    18e4:	00d70733          	add	a4,a4,a3
    18e8:	01071713          	slli	a4,a4,0x10
    18ec:	010b5b13          	srli	s6,s6,0x10
    18f0:	01670b33          	add	s6,a4,s6
    18f4:	00008737          	lui	a4,0x8
    18f8:	00eb0b33          	add	s6,s6,a4
    18fc:	ffff0737          	lui	a4,0xffff0
    1900:	00eb7b33          	and	s6,s6,a4
    1904:	1a07c263          	bltz	a5,1aa8 <T4_end+0x4c>
    1908:	41fb5713          	srai	a4,s6,0x1f
    190c:	0000b6b7          	lui	a3,0xb
    1910:	17268693          	addi	a3,a3,370 # b172 <__divdf3+0x6c2>
    1914:	02d70733          	mul	a4,a4,a3
    1918:	02db0633          	mul	a2,s6,a3
    191c:	02db36b3          	mulhu	a3,s6,a3
    1920:	00d70733          	add	a4,a4,a3
    1924:	01071713          	slli	a4,a4,0x10
    1928:	01065693          	srli	a3,a2,0x10
    192c:	00d706b3          	add	a3,a4,a3
    1930:	40d787b3          	sub	a5,a5,a3
    1934:	41f7d713          	srai	a4,a5,0x1f
    1938:	02f70733          	mul	a4,a4,a5
    193c:	02f78633          	mul	a2,a5,a5
    1940:	02f7b6b3          	mulhu	a3,a5,a5
    1944:	20d72733          	sh1add	a4,a4,a3
    1948:	01071713          	slli	a4,a4,0x10
    194c:	01065613          	srli	a2,a2,0x10
    1950:	00c70633          	add	a2,a4,a2
    1954:	41f65513          	srai	a0,a2,0x1f
    1958:	01e65713          	srli	a4,a2,0x1e
    195c:	20e54733          	sh2add	a4,a0,a4
    1960:	00261693          	slli	a3,a2,0x2
    1964:	01071713          	slli	a4,a4,0x10
    1968:	0106d693          	srli	a3,a3,0x10
    196c:	00d706b3          	add	a3,a4,a3
    1970:	f4a68693          	addi	a3,a3,-182
    1974:	41f6d593          	srai	a1,a3,0x1f
    1978:	02c585b3          	mul	a1,a1,a2
    197c:	02d50733          	mul	a4,a0,a3
    1980:	00e585b3          	add	a1,a1,a4
    1984:	02c68733          	mul	a4,a3,a2
    1988:	02c6b6b3          	mulhu	a3,a3,a2
    198c:	00d586b3          	add	a3,a1,a3
    1990:	01069693          	slli	a3,a3,0x10
    1994:	01075713          	srli	a4,a4,0x10
    1998:	00e68733          	add	a4,a3,a4
    199c:	000036b7          	lui	a3,0x3
    19a0:	aab68693          	addi	a3,a3,-1365 # 2aab <T7_start+0x3ef>
    19a4:	00d70733          	add	a4,a4,a3
    19a8:	41f75693          	srai	a3,a4,0x1f
    19ac:	02c686b3          	mul	a3,a3,a2
    19b0:	02e50533          	mul	a0,a0,a4
    19b4:	00a686b3          	add	a3,a3,a0
    19b8:	02c705b3          	mul	a1,a4,a2
    19bc:	02c73733          	mulhu	a4,a4,a2
    19c0:	00e68733          	add	a4,a3,a4
    19c4:	01071713          	slli	a4,a4,0x10
    19c8:	0105d693          	srli	a3,a1,0x10
    19cc:	00d706b3          	add	a3,a4,a3
    19d0:	00020737          	lui	a4,0x20
    19d4:	00e686b3          	add	a3,a3,a4
    19d8:	40f68633          	sub	a2,a3,a5
    19dc:	02f68c63          	beq	a3,a5,1a14 <T4_start+0x3ac>
    19e0:	00f7d713          	srli	a4,a5,0xf
    19e4:	01179793          	slli	a5,a5,0x11
    19e8:	01071713          	slli	a4,a4,0x10
    19ec:	0107d793          	srli	a5,a5,0x10
    19f0:	00f707b3          	add	a5,a4,a5
    19f4:	41f7d713          	srai	a4,a5,0x1f
    19f8:	0107d593          	srli	a1,a5,0x10
    19fc:	01071713          	slli	a4,a4,0x10
    1a00:	41f65693          	srai	a3,a2,0x1f
    1a04:	01079513          	slli	a0,a5,0x10
    1a08:	00e585b3          	add	a1,a1,a4
    1a0c:	57c0a0ef          	jal	bf88 <__divdi3>
    1a10:	00050613          	mv	a2,a0
    1a14:	000107b7          	lui	a5,0x10
    1a18:	00f606b3          	add	a3,a2,a5
    1a1c:	080b4a63          	bltz	s6,1ab0 <T4_end+0x54>
    1a20:	410b5b13          	srai	s6,s6,0x10
    1a24:	000107b7          	lui	a5,0x10
    1a28:	016797b3          	sll	a5,a5,s6
    1a2c:	41f7d713          	srai	a4,a5,0x1f
    1a30:	41f6d613          	srai	a2,a3,0x1f
    1a34:	02d70733          	mul	a4,a4,a3
    1a38:	02f60633          	mul	a2,a2,a5
    1a3c:	00c70733          	add	a4,a4,a2
    1a40:	02d78633          	mul	a2,a5,a3
    1a44:	02d7b7b3          	mulhu	a5,a5,a3
    1a48:	00f70733          	add	a4,a4,a5
    1a4c:	01071713          	slli	a4,a4,0x10
    1a50:	01065793          	srli	a5,a2,0x10
    1a54:	00f70733          	add	a4,a4,a5
    1a58:	02e12423          	sw	a4,40(sp)

00001a5c <T4_end>:
    1a5c:	b00027f3          	csrr	a5,mcycle
    1a60:	417787b3          	sub	a5,a5,s7
    1a64:	00fa2823          	sw	a5,16(s4)
    1a68:	00020737          	lui	a4,0x20
    1a6c:	02412783          	lw	a5,36(sp)
    1a70:	02812603          	lw	a2,40(sp)
    1a74:	00f627b3          	slt	a5,a2,a5
    1a78:	0017b793          	seqz	a5,a5
    1a7c:	94418693          	addi	a3,gp,-1724 # 22e08 <next.18>
    1a80:	20d7c7b3          	sh2add	a5,a5,a3
    1a84:	0007a783          	lw	a5,0(a5) # 10000 <i2c.c.57379e11+0x66b>
    1a88:	14470713          	addi	a4,a4,324 # 20144 <jump_table.23>
    1a8c:	20e7c7b3          	sh2add	a5,a5,a4
    1a90:	0007a783          	lw	a5,0(a5)
    1a94:	90cff06f          	j	ba0 <inferenceTPG+0x50>
    1a98:	00000c13          	li	s8,0
    1a9c:	bf9ff06f          	j	1694 <T4_start+0x2c>
    1aa0:	fff00593          	li	a1,-1
    1aa4:	e11ff06f          	j	18b4 <T4_start+0x24c>
    1aa8:	41600b33          	neg	s6,s6
    1aac:	e5dff06f          	j	1908 <T4_start+0x2a0>
    1ab0:	41600733          	neg	a4,s6
    1ab4:	41075713          	srai	a4,a4,0x10
    1ab8:	40e7d7b3          	sra	a5,a5,a4
    1abc:	f71ff06f          	j	1a2c <T4_start+0x3c4>

00001ac0 <T5_start>:
    1ac0:	b0002bf3          	csrr	s7,mcycle
    1ac4:	008aa683          	lw	a3,8(s5)
    1ac8:	00000593          	li	a1,0
    1acc:	2406c063          	bltz	a3,1d0c <T5_start+0x24c>
    1ad0:	68068c63          	beqz	a3,2168 <T5_end+0x68>
    1ad4:	000207b7          	lui	a5,0x20
    1ad8:	68d7d463          	bge	a5,a3,2160 <T5_end+0x60>
    1adc:	00000c13          	li	s8,0
    1ae0:	4016d693          	srai	a3,a3,0x1
    1ae4:	001c0c13          	addi	s8,s8,1
    1ae8:	fed7cce3          	blt	a5,a3,1ae0 <T5_start+0x20>
    1aec:	ffff0b37          	lui	s6,0xffff0
    1af0:	01668b33          	add	s6,a3,s6
    1af4:	41fb5793          	srai	a5,s6,0x1f
    1af8:	010b5593          	srli	a1,s6,0x10
    1afc:	01079793          	slli	a5,a5,0x10
    1b00:	00010737          	lui	a4,0x10
    1b04:	00e68633          	add	a2,a3,a4
    1b08:	41f65693          	srai	a3,a2,0x1f
    1b0c:	010b1513          	slli	a0,s6,0x10
    1b10:	00f585b3          	add	a1,a1,a5
    1b14:	4740a0ef          	jal	bf88 <__divdi3>
    1b18:	41f55613          	srai	a2,a0,0x1f
    1b1c:	02a607b3          	mul	a5,a2,a0
    1b20:	02a506b3          	mul	a3,a0,a0
    1b24:	02a53733          	mulhu	a4,a0,a0
    1b28:	20e7a7b3          	sh1add	a5,a5,a4
    1b2c:	01079793          	slli	a5,a5,0x10
    1b30:	0106d693          	srli	a3,a3,0x10
    1b34:	00d786b3          	add	a3,a5,a3
    1b38:	41f6d313          	srai	t1,a3,0x1f
    1b3c:	02d307b3          	mul	a5,t1,a3
    1b40:	02d68733          	mul	a4,a3,a3
    1b44:	02d6b5b3          	mulhu	a1,a3,a3
    1b48:	20b7a7b3          	sh1add	a5,a5,a1
    1b4c:	01079793          	slli	a5,a5,0x10
    1b50:	01075713          	srli	a4,a4,0x10
    1b54:	00e78733          	add	a4,a5,a4
    1b58:	41f75813          	srai	a6,a4,0x1f
    1b5c:	010c1793          	slli	a5,s8,0x10
    1b60:	41f7d893          	srai	a7,a5,0x1f
    1b64:	0000be37          	lui	t3,0xb
    1b68:	172e0e13          	addi	t3,t3,370 # b172 <__divdf3+0x6c2>
    1b6c:	03c888b3          	mul	a7,a7,t3
    1b70:	03c785b3          	mul	a1,a5,t3
    1b74:	03c7b7b3          	mulhu	a5,a5,t3
    1b78:	00f887b3          	add	a5,a7,a5
    1b7c:	01079793          	slli	a5,a5,0x10
    1b80:	0105d593          	srli	a1,a1,0x10
    1b84:	00b785b3          	add	a1,a5,a1
    1b88:	00bb05b3          	add	a1,s6,a1
    1b8c:	000028b7          	lui	a7,0x2
    1b90:	5e288893          	addi	a7,a7,1506 # 25e2 <T6_start+0x392>
    1b94:	03180e33          	mul	t3,a6,a7
    1b98:	031707b3          	mul	a5,a4,a7
    1b9c:	031738b3          	mulhu	a7,a4,a7
    1ba0:	011e08b3          	add	a7,t3,a7
    1ba4:	01089893          	slli	a7,a7,0x10
    1ba8:	0107d793          	srli	a5,a5,0x10
    1bac:	00f887b3          	add	a5,a7,a5
    1bb0:	000038b7          	lui	a7,0x3
    1bb4:	e8d88893          	addi	a7,a7,-371 # 2e8d <T9_start+0x2c9>
    1bb8:	011787b3          	add	a5,a5,a7
    1bbc:	41f7de13          	srai	t3,a5,0x1f
    1bc0:	02ee0e33          	mul	t3,t3,a4
    1bc4:	02f808b3          	mul	a7,a6,a5
    1bc8:	011e0e33          	add	t3,t3,a7
    1bcc:	02e788b3          	mul	a7,a5,a4
    1bd0:	02e7b7b3          	mulhu	a5,a5,a4
    1bd4:	00fe07b3          	add	a5,t3,a5
    1bd8:	01079793          	slli	a5,a5,0x10
    1bdc:	0108d893          	srli	a7,a7,0x10
    1be0:	011788b3          	add	a7,a5,a7
    1be4:	000057b7          	lui	a5,0x5
    1be8:	92578793          	addi	a5,a5,-1755 # 4925 <T12_start+0x765>
    1bec:	00f888b3          	add	a7,a7,a5
    1bf0:	41f8de13          	srai	t3,a7,0x1f
    1bf4:	02ee0e33          	mul	t3,t3,a4
    1bf8:	031807b3          	mul	a5,a6,a7
    1bfc:	00fe0e33          	add	t3,t3,a5
    1c00:	02e887b3          	mul	a5,a7,a4
    1c04:	02e8b8b3          	mulhu	a7,a7,a4
    1c08:	011e08b3          	add	a7,t3,a7
    1c0c:	01089893          	slli	a7,a7,0x10
    1c10:	0107d793          	srli	a5,a5,0x10
    1c14:	00f887b3          	add	a5,a7,a5
    1c18:	0000b8b7          	lui	a7,0xb
    1c1c:	aab88893          	addi	a7,a7,-1365 # aaab <__adddf3+0x747>
    1c20:	011787b3          	add	a5,a5,a7
    1c24:	41f7d893          	srai	a7,a5,0x1f
    1c28:	02d888b3          	mul	a7,a7,a3
    1c2c:	02f30333          	mul	t1,t1,a5
    1c30:	00688333          	add	t1,a7,t1
    1c34:	02d788b3          	mul	a7,a5,a3
    1c38:	02d7b7b3          	mulhu	a5,a5,a3
    1c3c:	00f307b3          	add	a5,t1,a5
    1c40:	01079793          	slli	a5,a5,0x10
    1c44:	0108d893          	srli	a7,a7,0x10
    1c48:	011788b3          	add	a7,a5,a7
    1c4c:	000027b7          	lui	a5,0x2
    1c50:	73478793          	addi	a5,a5,1844 # 2734 <T7_start+0x78>
    1c54:	02f80333          	mul	t1,a6,a5
    1c58:	02f706b3          	mul	a3,a4,a5
    1c5c:	02f737b3          	mulhu	a5,a4,a5
    1c60:	00f307b3          	add	a5,t1,a5
    1c64:	01079793          	slli	a5,a5,0x10
    1c68:	0106d693          	srli	a3,a3,0x10
    1c6c:	00d786b3          	add	a3,a5,a3
    1c70:	000047b7          	lui	a5,0x4
    1c74:	8e478793          	addi	a5,a5,-1820 # 38e4 <T10_start+0x47c>
    1c78:	00f686b3          	add	a3,a3,a5
    1c7c:	41f6d313          	srai	t1,a3,0x1f
    1c80:	02e30333          	mul	t1,t1,a4
    1c84:	02d807b3          	mul	a5,a6,a3
    1c88:	00f30333          	add	t1,t1,a5
    1c8c:	02e687b3          	mul	a5,a3,a4
    1c90:	02e6b6b3          	mulhu	a3,a3,a4
    1c94:	00d306b3          	add	a3,t1,a3
    1c98:	01069693          	slli	a3,a3,0x10
    1c9c:	0107d793          	srli	a5,a5,0x10
    1ca0:	00f687b3          	add	a5,a3,a5
    1ca4:	000066b7          	lui	a3,0x6
    1ca8:	66668693          	addi	a3,a3,1638 # 6666 <T18_end+0x6>
    1cac:	00d787b3          	add	a5,a5,a3
    1cb0:	41f7d693          	srai	a3,a5,0x1f
    1cb4:	02e686b3          	mul	a3,a3,a4
    1cb8:	02f80833          	mul	a6,a6,a5
    1cbc:	010686b3          	add	a3,a3,a6
    1cc0:	02e78833          	mul	a6,a5,a4
    1cc4:	02e7b7b3          	mulhu	a5,a5,a4
    1cc8:	00f687b3          	add	a5,a3,a5
    1ccc:	01079793          	slli	a5,a5,0x10
    1cd0:	01085713          	srli	a4,a6,0x10
    1cd4:	00e78733          	add	a4,a5,a4
    1cd8:	00e888b3          	add	a7,a7,a4
    1cdc:	411b0b33          	sub	s6,s6,a7
    1ce0:	41fb5793          	srai	a5,s6,0x1f
    1ce4:	02a787b3          	mul	a5,a5,a0
    1ce8:	03660633          	mul	a2,a2,s6
    1cec:	00c787b3          	add	a5,a5,a2
    1cf0:	02ab0733          	mul	a4,s6,a0
    1cf4:	02ab3b33          	mulhu	s6,s6,a0
    1cf8:	016787b3          	add	a5,a5,s6
    1cfc:	01079793          	slli	a5,a5,0x10
    1d00:	01075713          	srli	a4,a4,0x10
    1d04:	00e78733          	add	a4,a5,a4
    1d08:	40e585b3          	sub	a1,a1,a4
    1d0c:	08b12023          	sw	a1,128(sp)
    1d10:	00492703          	lw	a4,4(s2)
    1d14:	517cd6b7          	lui	a3,0x517cd
    1d18:	c8368693          	addi	a3,a3,-893 # 517ccc83 <_sp+0x517a1bf3>
    1d1c:	02d716b3          	mulh	a3,a4,a3
    1d20:	4116d693          	srai	a3,a3,0x11
    1d24:	41f75793          	srai	a5,a4,0x1f
    1d28:	40f686b3          	sub	a3,a3,a5
    1d2c:	000657b7          	lui	a5,0x65
    1d30:	87e78793          	addi	a5,a5,-1922 # 6487e <_sp+0x397ee>
    1d34:	02f687b3          	mul	a5,a3,a5
    1d38:	40f706b3          	sub	a3,a4,a5
    1d3c:	4206ca63          	bltz	a3,2170 <T5_end+0x70>
    1d40:	fffe77b7          	lui	a5,0xfffe7
    1d44:	ddf78793          	addi	a5,a5,-545 # fffe6ddf <_sp+0xfffbbd4f>
    1d48:	00f687b3          	add	a5,a3,a5
    1d4c:	00019637          	lui	a2,0x19
    1d50:	21e60613          	addi	a2,a2,542 # 1921e <heap.cpp.6b15d6f6+0x3a6e>
    1d54:	42f66663          	bltu	a2,a5,2180 <T5_end+0x80>
    1d58:	000327b7          	lui	a5,0x32
    1d5c:	43f78793          	addi	a5,a5,1087 # 3243f <_sp+0x73af>
    1d60:	40d786b3          	sub	a3,a5,a3
    1d64:	00100513          	li	a0,1
    1d68:	000197b7          	lui	a5,0x19
    1d6c:	22078793          	addi	a5,a5,544 # 19220 <heap.cpp.6b15d6f6+0x3a70>
    1d70:	40e787b3          	sub	a5,a5,a4
    1d74:	517cd837          	lui	a6,0x517cd
    1d78:	c8380813          	addi	a6,a6,-893 # 517ccc83 <_sp+0x517a1bf3>
    1d7c:	03079833          	mulh	a6,a5,a6
    1d80:	41185813          	srai	a6,a6,0x11
    1d84:	41f7d713          	srai	a4,a5,0x1f
    1d88:	40e80833          	sub	a6,a6,a4
    1d8c:	00065737          	lui	a4,0x65
    1d90:	87e70713          	addi	a4,a4,-1922 # 6487e <_sp+0x397ee>
    1d94:	02e80733          	mul	a4,a6,a4
    1d98:	40e78833          	sub	a6,a5,a4
    1d9c:	42084a63          	bltz	a6,21d0 <T5_end+0xd0>
    1da0:	fffe77b7          	lui	a5,0xfffe7
    1da4:	ddf78793          	addi	a5,a5,-545 # fffe6ddf <_sp+0xfffbbd4f>
    1da8:	00f807b3          	add	a5,a6,a5
    1dac:	00019737          	lui	a4,0x19
    1db0:	21e70713          	addi	a4,a4,542 # 1921e <heap.cpp.6b15d6f6+0x3a6e>
    1db4:	42f76663          	bltu	a4,a5,21e0 <T5_end+0xe0>
    1db8:	000327b7          	lui	a5,0x32
    1dbc:	43f78793          	addi	a5,a5,1087 # 3243f <_sp+0x73af>
    1dc0:	41078833          	sub	a6,a5,a6
    1dc4:	00100593          	li	a1,1
    1dc8:	41f85893          	srai	a7,a6,0x1f
    1dcc:	030887b3          	mul	a5,a7,a6
    1dd0:	03080333          	mul	t1,a6,a6
    1dd4:	03083733          	mulhu	a4,a6,a6
    1dd8:	20e7a7b3          	sh1add	a5,a5,a4
    1ddc:	01079793          	slli	a5,a5,0x10
    1de0:	01035313          	srli	t1,t1,0x10
    1de4:	00678333          	add	t1,a5,t1
    1de8:	41f35e13          	srai	t3,t1,0x1f
    1dec:	1f300613          	li	a2,499
    1df0:	02ce07b3          	mul	a5,t3,a2
    1df4:	02c30733          	mul	a4,t1,a2
    1df8:	02c33633          	mulhu	a2,t1,a2
    1dfc:	00c787b3          	add	a5,a5,a2
    1e00:	01079793          	slli	a5,a5,0x10
    1e04:	01075713          	srli	a4,a4,0x10
    1e08:	00e78733          	add	a4,a5,a4
    1e0c:	ffffd7b7          	lui	a5,0xffffd
    1e10:	57e78793          	addi	a5,a5,1406 # ffffd57e <_sp+0xfffd24ee>
    1e14:	00f70733          	add	a4,a4,a5
    1e18:	41f75613          	srai	a2,a4,0x1f
    1e1c:	02660633          	mul	a2,a2,t1
    1e20:	02ee0e33          	mul	t3,t3,a4
    1e24:	01c60633          	add	a2,a2,t3
    1e28:	026707b3          	mul	a5,a4,t1
    1e2c:	02673733          	mulhu	a4,a4,t1
    1e30:	00e60733          	add	a4,a2,a4
    1e34:	01071713          	slli	a4,a4,0x10
    1e38:	0107d793          	srli	a5,a5,0x10
    1e3c:	00f707b3          	add	a5,a4,a5
    1e40:	00010737          	lui	a4,0x10
    1e44:	00e787b3          	add	a5,a5,a4
    1e48:	41f7d713          	srai	a4,a5,0x1f
    1e4c:	03070733          	mul	a4,a4,a6
    1e50:	02f888b3          	mul	a7,a7,a5
    1e54:	01170733          	add	a4,a4,a7
    1e58:	03078633          	mul	a2,a5,a6
    1e5c:	0307b7b3          	mulhu	a5,a5,a6
    1e60:	00f707b3          	add	a5,a4,a5
    1e64:	01079793          	slli	a5,a5,0x10
    1e68:	01065613          	srli	a2,a2,0x10
    1e6c:	00c78633          	add	a2,a5,a2
    1e70:	02c58633          	mul	a2,a1,a2
    1e74:	0c060863          	beqz	a2,1f44 <T5_start+0x484>
    1e78:	41f6d893          	srai	a7,a3,0x1f
    1e7c:	02d887b3          	mul	a5,a7,a3
    1e80:	02d685b3          	mul	a1,a3,a3
    1e84:	02d6b733          	mulhu	a4,a3,a3
    1e88:	20e7a7b3          	sh1add	a5,a5,a4
    1e8c:	01079793          	slli	a5,a5,0x10
    1e90:	0105d593          	srli	a1,a1,0x10
    1e94:	00b785b3          	add	a1,a5,a1
    1e98:	41f5d313          	srai	t1,a1,0x1f
    1e9c:	1f300813          	li	a6,499
    1ea0:	030307b3          	mul	a5,t1,a6
    1ea4:	03058733          	mul	a4,a1,a6
    1ea8:	0305b833          	mulhu	a6,a1,a6
    1eac:	010787b3          	add	a5,a5,a6
    1eb0:	01079793          	slli	a5,a5,0x10
    1eb4:	01075713          	srli	a4,a4,0x10
    1eb8:	00e78733          	add	a4,a5,a4
    1ebc:	ffffd7b7          	lui	a5,0xffffd
    1ec0:	57e78793          	addi	a5,a5,1406 # ffffd57e <_sp+0xfffd24ee>
    1ec4:	00f70733          	add	a4,a4,a5
    1ec8:	41f75813          	srai	a6,a4,0x1f
    1ecc:	02b80833          	mul	a6,a6,a1
    1ed0:	02e30333          	mul	t1,t1,a4
    1ed4:	00680833          	add	a6,a6,t1
    1ed8:	02b707b3          	mul	a5,a4,a1
    1edc:	02b73733          	mulhu	a4,a4,a1
    1ee0:	00e80733          	add	a4,a6,a4
    1ee4:	01071713          	slli	a4,a4,0x10
    1ee8:	0107d793          	srli	a5,a5,0x10
    1eec:	00f707b3          	add	a5,a4,a5
    1ef0:	00010737          	lui	a4,0x10
    1ef4:	00e787b3          	add	a5,a5,a4
    1ef8:	41f7d713          	srai	a4,a5,0x1f
    1efc:	02d70733          	mul	a4,a4,a3
    1f00:	02f888b3          	mul	a7,a7,a5
    1f04:	01170733          	add	a4,a4,a7
    1f08:	02d785b3          	mul	a1,a5,a3
    1f0c:	02d7b7b3          	mulhu	a5,a5,a3
    1f10:	00f707b3          	add	a5,a4,a5
    1f14:	01079793          	slli	a5,a5,0x10
    1f18:	0105d713          	srli	a4,a1,0x10
    1f1c:	00e78733          	add	a4,a5,a4
    1f20:	02e50533          	mul	a0,a0,a4
    1f24:	41f55793          	srai	a5,a0,0x1f
    1f28:	01055593          	srli	a1,a0,0x10
    1f2c:	01079793          	slli	a5,a5,0x10
    1f30:	41f65693          	srai	a3,a2,0x1f
    1f34:	01051513          	slli	a0,a0,0x10
    1f38:	00f585b3          	add	a1,a1,a5
    1f3c:	04c0a0ef          	jal	bf88 <__divdi3>
    1f40:	00050613          	mv	a2,a0
    1f44:	08c12223          	sw	a2,132(sp)
    1f48:	01092783          	lw	a5,16(s2)
    1f4c:	00010737          	lui	a4,0x10
    1f50:	18078c63          	beqz	a5,20e8 <T5_start+0x628>
    1f54:	40f006b3          	neg	a3,a5
    1f58:	0ad7e6b3          	max	a3,a5,a3
    1f5c:	41f6d713          	srai	a4,a3,0x1f
    1f60:	00017637          	lui	a2,0x17
    1f64:	15460613          	addi	a2,a2,340 # 17154 <heap.cpp.6b15d6f6+0x19a4>
    1f68:	02c70733          	mul	a4,a4,a2
    1f6c:	02c68b33          	mul	s6,a3,a2
    1f70:	02c6b6b3          	mulhu	a3,a3,a2
    1f74:	00d70733          	add	a4,a4,a3
    1f78:	01071713          	slli	a4,a4,0x10
    1f7c:	010b5b13          	srli	s6,s6,0x10
    1f80:	01670b33          	add	s6,a4,s6
    1f84:	00008737          	lui	a4,0x8
    1f88:	00eb0b33          	add	s6,s6,a4
    1f8c:	ffff0737          	lui	a4,0xffff0
    1f90:	00eb7b33          	and	s6,s6,a4
    1f94:	2807ce63          	bltz	a5,2230 <T5_end+0x130>
    1f98:	41fb5713          	srai	a4,s6,0x1f
    1f9c:	0000b6b7          	lui	a3,0xb
    1fa0:	17268693          	addi	a3,a3,370 # b172 <__divdf3+0x6c2>
    1fa4:	02d70733          	mul	a4,a4,a3
    1fa8:	02db0633          	mul	a2,s6,a3
    1fac:	02db36b3          	mulhu	a3,s6,a3
    1fb0:	00d70733          	add	a4,a4,a3
    1fb4:	01071713          	slli	a4,a4,0x10
    1fb8:	01065693          	srli	a3,a2,0x10
    1fbc:	00d706b3          	add	a3,a4,a3
    1fc0:	40d787b3          	sub	a5,a5,a3
    1fc4:	41f7d713          	srai	a4,a5,0x1f
    1fc8:	02f70733          	mul	a4,a4,a5
    1fcc:	02f78633          	mul	a2,a5,a5
    1fd0:	02f7b6b3          	mulhu	a3,a5,a5
    1fd4:	20d72733          	sh1add	a4,a4,a3
    1fd8:	01071713          	slli	a4,a4,0x10
    1fdc:	01065613          	srli	a2,a2,0x10
    1fe0:	00c70633          	add	a2,a4,a2
    1fe4:	41f65513          	srai	a0,a2,0x1f
    1fe8:	01e65713          	srli	a4,a2,0x1e
    1fec:	20e54733          	sh2add	a4,a0,a4
    1ff0:	00261693          	slli	a3,a2,0x2
    1ff4:	01071713          	slli	a4,a4,0x10
    1ff8:	0106d693          	srli	a3,a3,0x10
    1ffc:	00d706b3          	add	a3,a4,a3
    2000:	f4a68693          	addi	a3,a3,-182
    2004:	41f6d593          	srai	a1,a3,0x1f
    2008:	02c585b3          	mul	a1,a1,a2
    200c:	02d50733          	mul	a4,a0,a3
    2010:	00e585b3          	add	a1,a1,a4
    2014:	02c68733          	mul	a4,a3,a2
    2018:	02c6b6b3          	mulhu	a3,a3,a2
    201c:	00d586b3          	add	a3,a1,a3
    2020:	01069693          	slli	a3,a3,0x10
    2024:	01075713          	srli	a4,a4,0x10
    2028:	00e68733          	add	a4,a3,a4
    202c:	000036b7          	lui	a3,0x3
    2030:	aab68693          	addi	a3,a3,-1365 # 2aab <T7_start+0x3ef>
    2034:	00d70733          	add	a4,a4,a3
    2038:	41f75693          	srai	a3,a4,0x1f
    203c:	02c686b3          	mul	a3,a3,a2
    2040:	02e50533          	mul	a0,a0,a4
    2044:	00a686b3          	add	a3,a3,a0
    2048:	02c705b3          	mul	a1,a4,a2
    204c:	02c73733          	mulhu	a4,a4,a2
    2050:	00e68733          	add	a4,a3,a4
    2054:	01071713          	slli	a4,a4,0x10
    2058:	0105d693          	srli	a3,a1,0x10
    205c:	00d706b3          	add	a3,a4,a3
    2060:	00020737          	lui	a4,0x20
    2064:	00e686b3          	add	a3,a3,a4
    2068:	40f68633          	sub	a2,a3,a5
    206c:	02f68c63          	beq	a3,a5,20a4 <T5_start+0x5e4>
    2070:	00f7d713          	srli	a4,a5,0xf
    2074:	01179793          	slli	a5,a5,0x11
    2078:	01071713          	slli	a4,a4,0x10
    207c:	0107d793          	srli	a5,a5,0x10
    2080:	00f707b3          	add	a5,a4,a5
    2084:	41f7d713          	srai	a4,a5,0x1f
    2088:	0107d593          	srli	a1,a5,0x10
    208c:	01071713          	slli	a4,a4,0x10
    2090:	41f65693          	srai	a3,a2,0x1f
    2094:	01079513          	slli	a0,a5,0x10
    2098:	00e585b3          	add	a1,a1,a4
    209c:	6ed090ef          	jal	bf88 <__divdi3>
    20a0:	00050613          	mv	a2,a0
    20a4:	000107b7          	lui	a5,0x10
    20a8:	00f606b3          	add	a3,a2,a5
    20ac:	180b4663          	bltz	s6,2238 <T5_end+0x138>
    20b0:	410b5b13          	srai	s6,s6,0x10
    20b4:	000107b7          	lui	a5,0x10
    20b8:	016797b3          	sll	a5,a5,s6
    20bc:	41f7d713          	srai	a4,a5,0x1f
    20c0:	41f6d613          	srai	a2,a3,0x1f
    20c4:	02d70733          	mul	a4,a4,a3
    20c8:	02f60633          	mul	a2,a2,a5
    20cc:	00c70733          	add	a4,a4,a2
    20d0:	02d78633          	mul	a2,a5,a3
    20d4:	02d7b7b3          	mulhu	a5,a5,a3
    20d8:	00f70733          	add	a4,a4,a5
    20dc:	01071713          	slli	a4,a4,0x10
    20e0:	01065793          	srli	a5,a2,0x10
    20e4:	00f70733          	add	a4,a4,a5
    20e8:	0084a783          	lw	a5,8(s1)
    20ec:	00e787b3          	add	a5,a5,a4
    20f0:	08f12423          	sw	a5,136(sp)
    20f4:	004aa783          	lw	a5,4(s5)
    20f8:	40f007b3          	neg	a5,a5
    20fc:	08f12623          	sw	a5,140(sp)

00002100 <T5_end>:
    2100:	b00027f3          	csrr	a5,mcycle
    2104:	417787b3          	sub	a5,a5,s7
    2108:	00fa2a23          	sw	a5,20(s4)
    210c:	08012683          	lw	a3,128(sp)
    2110:	08412703          	lw	a4,132(sp)
    2114:	00100793          	li	a5,1
    2118:	00d75663          	bge	a4,a3,2124 <T5_end+0x24>
    211c:	00068713          	mv	a4,a3
    2120:	00000793          	li	a5,0
    2124:	08812683          	lw	a3,136(sp)
    2128:	12e6d063          	bge	a3,a4,2248 <T5_end+0x148>
    212c:	00070693          	mv	a3,a4
    2130:	08c12703          	lw	a4,140(sp)
    2134:	00d74463          	blt	a4,a3,213c <T5_end+0x3c>
    2138:	00300793          	li	a5,3
    213c:	00020737          	lui	a4,0x20
    2140:	000206b7          	lui	a3,0x20
    2144:	11868693          	addi	a3,a3,280 # 20118 <next.17>
    2148:	20d7c7b3          	sh2add	a5,a5,a3
    214c:	0007a783          	lw	a5,0(a5) # 10000 <i2c.c.57379e11+0x66b>
    2150:	14470713          	addi	a4,a4,324 # 20144 <jump_table.23>
    2154:	20e7c7b3          	sh2add	a5,a5,a4
    2158:	0007a783          	lw	a5,0(a5)
    215c:	a45fe06f          	j	ba0 <inferenceTPG+0x50>
    2160:	00000c13          	li	s8,0
    2164:	989ff06f          	j	1aec <T5_start+0x2c>
    2168:	fff00593          	li	a1,-1
    216c:	ba1ff06f          	j	1d0c <T5_start+0x24c>
    2170:	000657b7          	lui	a5,0x65
    2174:	87e78793          	addi	a5,a5,-1922 # 6487e <_sp+0x397ee>
    2178:	00f686b3          	add	a3,a3,a5
    217c:	bc5ff06f          	j	1d40 <T5_start+0x280>
    2180:	fffce7b7          	lui	a5,0xfffce
    2184:	bc078793          	addi	a5,a5,-1088 # fffcdbc0 <_sp+0xfffa2b30>
    2188:	00f687b3          	add	a5,a3,a5
    218c:	00019637          	lui	a2,0x19
    2190:	21f60613          	addi	a2,a2,543 # 1921f <heap.cpp.6b15d6f6+0x3a6f>
    2194:	00f66c63          	bltu	a2,a5,21ac <T5_end+0xac>
    2198:	fffce7b7          	lui	a5,0xfffce
    219c:	bc178793          	addi	a5,a5,-1087 # fffcdbc1 <_sp+0xfffa2b31>
    21a0:	00f686b3          	add	a3,a3,a5
    21a4:	fff00513          	li	a0,-1
    21a8:	bc1ff06f          	j	1d68 <T5_start+0x2a8>
    21ac:	0004b7b7          	lui	a5,0x4b
    21b0:	65f78793          	addi	a5,a5,1631 # 4b65f <_sp+0x205cf>
    21b4:	00100513          	li	a0,1
    21b8:	bad7d8e3          	bge	a5,a3,1d68 <T5_start+0x2a8>
    21bc:	000657b7          	lui	a5,0x65
    21c0:	87e78793          	addi	a5,a5,-1922 # 6487e <_sp+0x397ee>
    21c4:	40d786b3          	sub	a3,a5,a3
    21c8:	fff00513          	li	a0,-1
    21cc:	b9dff06f          	j	1d68 <T5_start+0x2a8>
    21d0:	000657b7          	lui	a5,0x65
    21d4:	87e78793          	addi	a5,a5,-1922 # 6487e <_sp+0x397ee>
    21d8:	00f80833          	add	a6,a6,a5
    21dc:	bc5ff06f          	j	1da0 <T5_start+0x2e0>
    21e0:	fffce7b7          	lui	a5,0xfffce
    21e4:	bc078793          	addi	a5,a5,-1088 # fffcdbc0 <_sp+0xfffa2b30>
    21e8:	00f807b3          	add	a5,a6,a5
    21ec:	00019737          	lui	a4,0x19
    21f0:	21f70713          	addi	a4,a4,543 # 1921f <heap.cpp.6b15d6f6+0x3a6f>
    21f4:	00f76c63          	bltu	a4,a5,220c <T5_end+0x10c>
    21f8:	fffce7b7          	lui	a5,0xfffce
    21fc:	bc178793          	addi	a5,a5,-1087 # fffcdbc1 <_sp+0xfffa2b31>
    2200:	00f80833          	add	a6,a6,a5
    2204:	fff00593          	li	a1,-1
    2208:	bc1ff06f          	j	1dc8 <T5_start+0x308>
    220c:	0004b7b7          	lui	a5,0x4b
    2210:	65f78793          	addi	a5,a5,1631 # 4b65f <_sp+0x205cf>
    2214:	00100593          	li	a1,1
    2218:	bb07d8e3          	bge	a5,a6,1dc8 <T5_start+0x308>
    221c:	000657b7          	lui	a5,0x65
    2220:	87e78793          	addi	a5,a5,-1922 # 6487e <_sp+0x397ee>
    2224:	41078833          	sub	a6,a5,a6
    2228:	fff00593          	li	a1,-1
    222c:	b9dff06f          	j	1dc8 <T5_start+0x308>
    2230:	41600b33          	neg	s6,s6
    2234:	d65ff06f          	j	1f98 <T5_start+0x4d8>
    2238:	41600733          	neg	a4,s6
    223c:	41075713          	srai	a4,a4,0x10
    2240:	40e7d7b3          	sra	a5,a5,a4
    2244:	e79ff06f          	j	20bc <T5_start+0x5fc>
    2248:	00200793          	li	a5,2
    224c:	ee5ff06f          	j	2130 <T5_end+0x30>

00002250 <T6_start>:
    2250:	b0002b73          	csrr	s6,mcycle
    2254:	008aa603          	lw	a2,8(s5)
    2258:	02060463          	beqz	a2,2280 <T6_start+0x30>
    225c:	0089a503          	lw	a0,8(s3)
    2260:	41f55793          	srai	a5,a0,0x1f
    2264:	01055593          	srli	a1,a0,0x10
    2268:	01079793          	slli	a5,a5,0x10
    226c:	41f65693          	srai	a3,a2,0x1f
    2270:	01051513          	slli	a0,a0,0x10
    2274:	00f585b3          	add	a1,a1,a5
    2278:	511090ef          	jal	bf88 <__divdi3>
    227c:	00050613          	mv	a2,a0
    2280:	08c12823          	sw	a2,144(sp)
    2284:	0084a783          	lw	a5,8(s1)
    2288:	08f12a23          	sw	a5,148(sp)
    228c:	0004a783          	lw	a5,0(s1)
    2290:	00019737          	lui	a4,0x19
    2294:	22070713          	addi	a4,a4,544 # 19220 <heap.cpp.6b15d6f6+0x3a70>
    2298:	40f70733          	sub	a4,a4,a5
    229c:	517cd7b7          	lui	a5,0x517cd
    22a0:	c8378793          	addi	a5,a5,-893 # 517ccc83 <_sp+0x517a1bf3>
    22a4:	02f717b3          	mulh	a5,a4,a5
    22a8:	4117d793          	srai	a5,a5,0x11
    22ac:	41f75693          	srai	a3,a4,0x1f
    22b0:	40d787b3          	sub	a5,a5,a3
    22b4:	000656b7          	lui	a3,0x65
    22b8:	87e68693          	addi	a3,a3,-1922 # 6487e <_sp+0x397ee>
    22bc:	02d787b3          	mul	a5,a5,a3
    22c0:	40f707b3          	sub	a5,a4,a5
    22c4:	3807c463          	bltz	a5,264c <T6_end+0x60>
    22c8:	fffe7737          	lui	a4,0xfffe7
    22cc:	ddf70713          	addi	a4,a4,-545 # fffe6ddf <_sp+0xfffbbd4f>
    22d0:	00e78733          	add	a4,a5,a4
    22d4:	000196b7          	lui	a3,0x19
    22d8:	21e68693          	addi	a3,a3,542 # 1921e <heap.cpp.6b15d6f6+0x3a6e>
    22dc:	36e6ec63          	bltu	a3,a4,2654 <T6_end+0x68>
    22e0:	00032737          	lui	a4,0x32
    22e4:	43f70713          	addi	a4,a4,1087 # 3243f <_sp+0x73af>
    22e8:	40f707b3          	sub	a5,a4,a5
    22ec:	00100513          	li	a0,1
    22f0:	41f7d813          	srai	a6,a5,0x1f
    22f4:	02f80733          	mul	a4,a6,a5
    22f8:	02f78633          	mul	a2,a5,a5
    22fc:	02f7b6b3          	mulhu	a3,a5,a5
    2300:	20d72733          	sh1add	a4,a4,a3
    2304:	01071713          	slli	a4,a4,0x10
    2308:	01065613          	srli	a2,a2,0x10
    230c:	00c70633          	add	a2,a4,a2
    2310:	41f65893          	srai	a7,a2,0x1f
    2314:	1f300593          	li	a1,499
    2318:	02b88733          	mul	a4,a7,a1
    231c:	02b606b3          	mul	a3,a2,a1
    2320:	02b635b3          	mulhu	a1,a2,a1
    2324:	00b70733          	add	a4,a4,a1
    2328:	01071713          	slli	a4,a4,0x10
    232c:	0106d693          	srli	a3,a3,0x10
    2330:	00d706b3          	add	a3,a4,a3
    2334:	ffffd737          	lui	a4,0xffffd
    2338:	57e70713          	addi	a4,a4,1406 # ffffd57e <_sp+0xfffd24ee>
    233c:	00e686b3          	add	a3,a3,a4
    2340:	41f6d593          	srai	a1,a3,0x1f
    2344:	02c585b3          	mul	a1,a1,a2
    2348:	02d888b3          	mul	a7,a7,a3
    234c:	011585b3          	add	a1,a1,a7
    2350:	02c68733          	mul	a4,a3,a2
    2354:	02c6b6b3          	mulhu	a3,a3,a2
    2358:	00d586b3          	add	a3,a1,a3
    235c:	01069693          	slli	a3,a3,0x10
    2360:	01075713          	srli	a4,a4,0x10
    2364:	00e68733          	add	a4,a3,a4
    2368:	000106b7          	lui	a3,0x10
    236c:	00d70733          	add	a4,a4,a3
    2370:	41f75693          	srai	a3,a4,0x1f
    2374:	02f686b3          	mul	a3,a3,a5
    2378:	02e80833          	mul	a6,a6,a4
    237c:	010686b3          	add	a3,a3,a6
    2380:	02f70633          	mul	a2,a4,a5
    2384:	02f73733          	mulhu	a4,a4,a5
    2388:	00e687b3          	add	a5,a3,a4
    238c:	01079793          	slli	a5,a5,0x10
    2390:	01065713          	srli	a4,a2,0x10
    2394:	00e78733          	add	a4,a5,a4
    2398:	02e50533          	mul	a0,a0,a4
    239c:	08a12c23          	sw	a0,152(sp)
    23a0:	0044a683          	lw	a3,4(s1)
    23a4:	00000593          	li	a1,0
    23a8:	2406c063          	bltz	a3,25e8 <T6_start+0x398>
    23ac:	30068063          	beqz	a3,26ac <T6_end+0xc0>
    23b0:	000207b7          	lui	a5,0x20
    23b4:	2ed7d863          	bge	a5,a3,26a4 <T6_end+0xb8>
    23b8:	00000c13          	li	s8,0
    23bc:	4016d693          	srai	a3,a3,0x1
    23c0:	001c0c13          	addi	s8,s8,1
    23c4:	fed7cce3          	blt	a5,a3,23bc <T6_start+0x16c>
    23c8:	ffff0bb7          	lui	s7,0xffff0
    23cc:	01768bb3          	add	s7,a3,s7
    23d0:	41fbd793          	srai	a5,s7,0x1f
    23d4:	010bd593          	srli	a1,s7,0x10
    23d8:	01079793          	slli	a5,a5,0x10
    23dc:	00010737          	lui	a4,0x10
    23e0:	00e68633          	add	a2,a3,a4
    23e4:	41f65693          	srai	a3,a2,0x1f
    23e8:	010b9513          	slli	a0,s7,0x10
    23ec:	00f585b3          	add	a1,a1,a5
    23f0:	399090ef          	jal	bf88 <__divdi3>
    23f4:	41f55613          	srai	a2,a0,0x1f
    23f8:	02a607b3          	mul	a5,a2,a0
    23fc:	02a506b3          	mul	a3,a0,a0
    2400:	02a53733          	mulhu	a4,a0,a0
    2404:	20e7a7b3          	sh1add	a5,a5,a4
    2408:	01079793          	slli	a5,a5,0x10
    240c:	0106d693          	srli	a3,a3,0x10
    2410:	00d786b3          	add	a3,a5,a3
    2414:	41f6d313          	srai	t1,a3,0x1f
    2418:	02d307b3          	mul	a5,t1,a3
    241c:	02d68733          	mul	a4,a3,a3
    2420:	02d6b5b3          	mulhu	a1,a3,a3
    2424:	20b7a7b3          	sh1add	a5,a5,a1
    2428:	01079793          	slli	a5,a5,0x10
    242c:	01075713          	srli	a4,a4,0x10
    2430:	00e78733          	add	a4,a5,a4
    2434:	41f75813          	srai	a6,a4,0x1f
    2438:	010c1793          	slli	a5,s8,0x10
    243c:	41f7d893          	srai	a7,a5,0x1f
    2440:	0000be37          	lui	t3,0xb
    2444:	172e0e13          	addi	t3,t3,370 # b172 <__divdf3+0x6c2>
    2448:	03c888b3          	mul	a7,a7,t3
    244c:	03c785b3          	mul	a1,a5,t3
    2450:	03c7b7b3          	mulhu	a5,a5,t3
    2454:	00f887b3          	add	a5,a7,a5
    2458:	01079793          	slli	a5,a5,0x10
    245c:	0105d593          	srli	a1,a1,0x10
    2460:	00b785b3          	add	a1,a5,a1
    2464:	00bb85b3          	add	a1,s7,a1
    2468:	000028b7          	lui	a7,0x2
    246c:	5e288893          	addi	a7,a7,1506 # 25e2 <T6_start+0x392>
    2470:	03180e33          	mul	t3,a6,a7
    2474:	031707b3          	mul	a5,a4,a7
    2478:	031738b3          	mulhu	a7,a4,a7
    247c:	011e08b3          	add	a7,t3,a7
    2480:	01089893          	slli	a7,a7,0x10
    2484:	0107d793          	srli	a5,a5,0x10
    2488:	00f887b3          	add	a5,a7,a5
    248c:	000038b7          	lui	a7,0x3
    2490:	e8d88893          	addi	a7,a7,-371 # 2e8d <T9_start+0x2c9>
    2494:	011787b3          	add	a5,a5,a7
    2498:	41f7de13          	srai	t3,a5,0x1f
    249c:	02ee0e33          	mul	t3,t3,a4
    24a0:	02f808b3          	mul	a7,a6,a5
    24a4:	011e0e33          	add	t3,t3,a7
    24a8:	02e788b3          	mul	a7,a5,a4
    24ac:	02e7b7b3          	mulhu	a5,a5,a4
    24b0:	00fe07b3          	add	a5,t3,a5
    24b4:	01079793          	slli	a5,a5,0x10
    24b8:	0108d893          	srli	a7,a7,0x10
    24bc:	011788b3          	add	a7,a5,a7
    24c0:	000057b7          	lui	a5,0x5
    24c4:	92578793          	addi	a5,a5,-1755 # 4925 <T12_start+0x765>
    24c8:	00f888b3          	add	a7,a7,a5
    24cc:	41f8de13          	srai	t3,a7,0x1f
    24d0:	02ee0e33          	mul	t3,t3,a4
    24d4:	031807b3          	mul	a5,a6,a7
    24d8:	00fe0e33          	add	t3,t3,a5
    24dc:	02e887b3          	mul	a5,a7,a4
    24e0:	02e8b8b3          	mulhu	a7,a7,a4
    24e4:	011e08b3          	add	a7,t3,a7
    24e8:	01089893          	slli	a7,a7,0x10
    24ec:	0107d793          	srli	a5,a5,0x10
    24f0:	00f887b3          	add	a5,a7,a5
    24f4:	0000b8b7          	lui	a7,0xb
    24f8:	aab88893          	addi	a7,a7,-1365 # aaab <__adddf3+0x747>
    24fc:	011787b3          	add	a5,a5,a7
    2500:	41f7d893          	srai	a7,a5,0x1f
    2504:	02d888b3          	mul	a7,a7,a3
    2508:	02f30333          	mul	t1,t1,a5
    250c:	00688333          	add	t1,a7,t1
    2510:	02d788b3          	mul	a7,a5,a3
    2514:	02d7b7b3          	mulhu	a5,a5,a3
    2518:	00f307b3          	add	a5,t1,a5
    251c:	01079793          	slli	a5,a5,0x10
    2520:	0108d893          	srli	a7,a7,0x10
    2524:	011788b3          	add	a7,a5,a7
    2528:	000027b7          	lui	a5,0x2
    252c:	73478793          	addi	a5,a5,1844 # 2734 <T7_start+0x78>
    2530:	02f80333          	mul	t1,a6,a5
    2534:	02f706b3          	mul	a3,a4,a5
    2538:	02f737b3          	mulhu	a5,a4,a5
    253c:	00f307b3          	add	a5,t1,a5
    2540:	01079793          	slli	a5,a5,0x10
    2544:	0106d693          	srli	a3,a3,0x10
    2548:	00d786b3          	add	a3,a5,a3
    254c:	000047b7          	lui	a5,0x4
    2550:	8e478793          	addi	a5,a5,-1820 # 38e4 <T10_start+0x47c>
    2554:	00f686b3          	add	a3,a3,a5
    2558:	41f6d313          	srai	t1,a3,0x1f
    255c:	02e30333          	mul	t1,t1,a4
    2560:	02d807b3          	mul	a5,a6,a3
    2564:	00f30333          	add	t1,t1,a5
    2568:	02e687b3          	mul	a5,a3,a4
    256c:	02e6b6b3          	mulhu	a3,a3,a4
    2570:	00d306b3          	add	a3,t1,a3
    2574:	01069693          	slli	a3,a3,0x10
    2578:	0107d793          	srli	a5,a5,0x10
    257c:	00f687b3          	add	a5,a3,a5
    2580:	000066b7          	lui	a3,0x6
    2584:	66668693          	addi	a3,a3,1638 # 6666 <T18_end+0x6>
    2588:	00d787b3          	add	a5,a5,a3
    258c:	41f7d693          	srai	a3,a5,0x1f
    2590:	02e686b3          	mul	a3,a3,a4
    2594:	02f80833          	mul	a6,a6,a5
    2598:	010686b3          	add	a3,a3,a6
    259c:	02e78833          	mul	a6,a5,a4
    25a0:	02e7b7b3          	mulhu	a5,a5,a4
    25a4:	00f687b3          	add	a5,a3,a5
    25a8:	01079793          	slli	a5,a5,0x10
    25ac:	01085713          	srli	a4,a6,0x10
    25b0:	00e78733          	add	a4,a5,a4
    25b4:	00e888b3          	add	a7,a7,a4
    25b8:	411b8bb3          	sub	s7,s7,a7
    25bc:	41fbd793          	srai	a5,s7,0x1f
    25c0:	02a787b3          	mul	a5,a5,a0
    25c4:	03760633          	mul	a2,a2,s7
    25c8:	00c787b3          	add	a5,a5,a2
    25cc:	02ab8733          	mul	a4,s7,a0
    25d0:	02abbbb3          	mulhu	s7,s7,a0
    25d4:	017787b3          	add	a5,a5,s7
    25d8:	01079793          	slli	a5,a5,0x10
    25dc:	01075713          	srli	a4,a4,0x10
    25e0:	00e78733          	add	a4,a5,a4
    25e4:	40e585b3          	sub	a1,a1,a4
    25e8:	08b12e23          	sw	a1,156(sp)

000025ec <T6_end>:
    25ec:	b00027f3          	csrr	a5,mcycle
    25f0:	416787b3          	sub	a5,a5,s6
    25f4:	00fa2c23          	sw	a5,24(s4)
    25f8:	09012683          	lw	a3,144(sp)
    25fc:	09412703          	lw	a4,148(sp)
    2600:	00100793          	li	a5,1
    2604:	00d75663          	bge	a4,a3,2610 <T6_end+0x24>
    2608:	00068713          	mv	a4,a3
    260c:	00000793          	li	a5,0
    2610:	09812683          	lw	a3,152(sp)
    2614:	0ae6d063          	bge	a3,a4,26b4 <T6_end+0xc8>
    2618:	00070693          	mv	a3,a4
    261c:	09c12703          	lw	a4,156(sp)
    2620:	00d74463          	blt	a4,a3,2628 <T6_end+0x3c>
    2624:	00300793          	li	a5,3
    2628:	00020737          	lui	a4,0x20
    262c:	000206b7          	lui	a3,0x20
    2630:	10868693          	addi	a3,a3,264 # 20108 <next.16>
    2634:	20d7c7b3          	sh2add	a5,a5,a3
    2638:	0007a783          	lw	a5,0(a5)
    263c:	14470713          	addi	a4,a4,324 # 20144 <jump_table.23>
    2640:	20e7c7b3          	sh2add	a5,a5,a4
    2644:	0007a783          	lw	a5,0(a5)
    2648:	d58fe06f          	j	ba0 <inferenceTPG+0x50>
    264c:	00d787b3          	add	a5,a5,a3
    2650:	c79ff06f          	j	22c8 <T6_start+0x78>
    2654:	fffce737          	lui	a4,0xfffce
    2658:	bc070713          	addi	a4,a4,-1088 # fffcdbc0 <_sp+0xfffa2b30>
    265c:	00e78733          	add	a4,a5,a4
    2660:	000196b7          	lui	a3,0x19
    2664:	21f68693          	addi	a3,a3,543 # 1921f <heap.cpp.6b15d6f6+0x3a6f>
    2668:	00e6ec63          	bltu	a3,a4,2680 <T6_end+0x94>
    266c:	fffce737          	lui	a4,0xfffce
    2670:	bc170713          	addi	a4,a4,-1087 # fffcdbc1 <_sp+0xfffa2b31>
    2674:	00e787b3          	add	a5,a5,a4
    2678:	fff00513          	li	a0,-1
    267c:	c75ff06f          	j	22f0 <T6_start+0xa0>
    2680:	0004b737          	lui	a4,0x4b
    2684:	65f70713          	addi	a4,a4,1631 # 4b65f <_sp+0x205cf>
    2688:	00100513          	li	a0,1
    268c:	c6f752e3          	bge	a4,a5,22f0 <T6_start+0xa0>
    2690:	00065737          	lui	a4,0x65
    2694:	87e70713          	addi	a4,a4,-1922 # 6487e <_sp+0x397ee>
    2698:	40f707b3          	sub	a5,a4,a5
    269c:	fff00513          	li	a0,-1
    26a0:	c51ff06f          	j	22f0 <T6_start+0xa0>
    26a4:	00000c13          	li	s8,0
    26a8:	d21ff06f          	j	23c8 <T6_start+0x178>
    26ac:	fff00593          	li	a1,-1
    26b0:	f39ff06f          	j	25e8 <T6_start+0x398>
    26b4:	00200793          	li	a5,2
    26b8:	f65ff06f          	j	261c <T6_end+0x30>

000026bc <T7_start>:
    26bc:	b00027f3          	csrr	a5,mcycle
    26c0:	00078d13          	mv	s10,a5
    26c4:	01092783          	lw	a5,16(s2)
    26c8:	00010737          	lui	a4,0x10
    26cc:	18078c63          	beqz	a5,2864 <T7_start+0x1a8>
    26d0:	40f006b3          	neg	a3,a5
    26d4:	0ad7e6b3          	max	a3,a5,a3
    26d8:	41f6d713          	srai	a4,a3,0x1f
    26dc:	00017637          	lui	a2,0x17
    26e0:	15460613          	addi	a2,a2,340 # 17154 <heap.cpp.6b15d6f6+0x19a4>
    26e4:	02c70733          	mul	a4,a4,a2
    26e8:	02c68b33          	mul	s6,a3,a2
    26ec:	02c6b6b3          	mulhu	a3,a3,a2
    26f0:	00d70733          	add	a4,a4,a3
    26f4:	01071713          	slli	a4,a4,0x10
    26f8:	010b5b13          	srli	s6,s6,0x10
    26fc:	01670b33          	add	s6,a4,s6
    2700:	00008737          	lui	a4,0x8
    2704:	00eb0b33          	add	s6,s6,a4
    2708:	ffff0737          	lui	a4,0xffff0
    270c:	00eb7b33          	and	s6,s6,a4
    2710:	4007c863          	bltz	a5,2b20 <T7_end+0x54>
    2714:	41fb5713          	srai	a4,s6,0x1f
    2718:	0000b6b7          	lui	a3,0xb
    271c:	17268693          	addi	a3,a3,370 # b172 <__divdf3+0x6c2>
    2720:	02d70733          	mul	a4,a4,a3
    2724:	02db0633          	mul	a2,s6,a3
    2728:	02db36b3          	mulhu	a3,s6,a3
    272c:	00d70733          	add	a4,a4,a3
    2730:	01071713          	slli	a4,a4,0x10
    2734:	01065693          	srli	a3,a2,0x10
    2738:	00d706b3          	add	a3,a4,a3
    273c:	40d787b3          	sub	a5,a5,a3
    2740:	41f7d713          	srai	a4,a5,0x1f
    2744:	02f70733          	mul	a4,a4,a5
    2748:	02f78633          	mul	a2,a5,a5
    274c:	02f7b6b3          	mulhu	a3,a5,a5
    2750:	20d72733          	sh1add	a4,a4,a3
    2754:	01071713          	slli	a4,a4,0x10
    2758:	01065613          	srli	a2,a2,0x10
    275c:	00c70633          	add	a2,a4,a2
    2760:	41f65513          	srai	a0,a2,0x1f
    2764:	01e65713          	srli	a4,a2,0x1e
    2768:	20e54733          	sh2add	a4,a0,a4
    276c:	00261693          	slli	a3,a2,0x2
    2770:	01071713          	slli	a4,a4,0x10
    2774:	0106d693          	srli	a3,a3,0x10
    2778:	00d706b3          	add	a3,a4,a3
    277c:	f4a68693          	addi	a3,a3,-182
    2780:	41f6d593          	srai	a1,a3,0x1f
    2784:	02c585b3          	mul	a1,a1,a2
    2788:	02d50733          	mul	a4,a0,a3
    278c:	00e585b3          	add	a1,a1,a4
    2790:	02c68733          	mul	a4,a3,a2
    2794:	02c6b6b3          	mulhu	a3,a3,a2
    2798:	00d586b3          	add	a3,a1,a3
    279c:	01069693          	slli	a3,a3,0x10
    27a0:	01075713          	srli	a4,a4,0x10
    27a4:	00e68733          	add	a4,a3,a4
    27a8:	000036b7          	lui	a3,0x3
    27ac:	aab68693          	addi	a3,a3,-1365 # 2aab <T7_start+0x3ef>
    27b0:	00d70733          	add	a4,a4,a3
    27b4:	41f75693          	srai	a3,a4,0x1f
    27b8:	02c686b3          	mul	a3,a3,a2
    27bc:	02e50533          	mul	a0,a0,a4
    27c0:	00a686b3          	add	a3,a3,a0
    27c4:	02c705b3          	mul	a1,a4,a2
    27c8:	02c73733          	mulhu	a4,a4,a2
    27cc:	00e68733          	add	a4,a3,a4
    27d0:	01071713          	slli	a4,a4,0x10
    27d4:	0105d693          	srli	a3,a1,0x10
    27d8:	00d706b3          	add	a3,a4,a3
    27dc:	00020737          	lui	a4,0x20
    27e0:	00e686b3          	add	a3,a3,a4
    27e4:	40f68633          	sub	a2,a3,a5
    27e8:	02f68c63          	beq	a3,a5,2820 <T7_start+0x164>
    27ec:	00f7d713          	srli	a4,a5,0xf
    27f0:	01179793          	slli	a5,a5,0x11
    27f4:	01071713          	slli	a4,a4,0x10
    27f8:	0107d793          	srli	a5,a5,0x10
    27fc:	00f707b3          	add	a5,a4,a5
    2800:	41f7d713          	srai	a4,a5,0x1f
    2804:	0107d593          	srli	a1,a5,0x10
    2808:	01071713          	slli	a4,a4,0x10
    280c:	41f65693          	srai	a3,a2,0x1f
    2810:	01079513          	slli	a0,a5,0x10
    2814:	00e585b3          	add	a1,a1,a4
    2818:	770090ef          	jal	bf88 <__divdi3>
    281c:	00050613          	mv	a2,a0
    2820:	000107b7          	lui	a5,0x10
    2824:	00f606b3          	add	a3,a2,a5
    2828:	300b4063          	bltz	s6,2b28 <T7_end+0x5c>
    282c:	410b5b13          	srai	s6,s6,0x10
    2830:	000107b7          	lui	a5,0x10
    2834:	016797b3          	sll	a5,a5,s6
    2838:	41f7d713          	srai	a4,a5,0x1f
    283c:	41f6d613          	srai	a2,a3,0x1f
    2840:	02d70733          	mul	a4,a4,a3
    2844:	02f60633          	mul	a2,a2,a5
    2848:	00c70733          	add	a4,a4,a2
    284c:	02d78633          	mul	a2,a5,a3
    2850:	02d7b7b3          	mulhu	a5,a5,a3
    2854:	00f70733          	add	a4,a4,a5
    2858:	01071713          	slli	a4,a4,0x10
    285c:	01065793          	srli	a5,a2,0x10
    2860:	00f70733          	add	a4,a4,a5
    2864:	0084a783          	lw	a5,8(s1)
    2868:	00e787b3          	add	a5,a5,a4
    286c:	04f12423          	sw	a5,72(sp)
    2870:	008aac03          	lw	s8,8(s5)
    2874:	00000593          	li	a1,0
    2878:	240c4263          	bltz	s8,2abc <T7_start+0x400>
    287c:	2c0c0463          	beqz	s8,2b44 <T7_end+0x78>
    2880:	000207b7          	lui	a5,0x20
    2884:	2b87da63          	bge	a5,s8,2b38 <T7_end+0x6c>
    2888:	000c0693          	mv	a3,s8
    288c:	00000b13          	li	s6,0
    2890:	4016d693          	srai	a3,a3,0x1
    2894:	001b0b13          	addi	s6,s6,1 # ffff0001 <_sp+0xfffc4f71>
    2898:	fed7cce3          	blt	a5,a3,2890 <T7_start+0x1d4>
    289c:	ffff0bb7          	lui	s7,0xffff0
    28a0:	01768bb3          	add	s7,a3,s7
    28a4:	41fbd793          	srai	a5,s7,0x1f
    28a8:	010bd593          	srli	a1,s7,0x10
    28ac:	01079793          	slli	a5,a5,0x10
    28b0:	00010737          	lui	a4,0x10
    28b4:	00e68633          	add	a2,a3,a4
    28b8:	41f65693          	srai	a3,a2,0x1f
    28bc:	010b9513          	slli	a0,s7,0x10
    28c0:	00f585b3          	add	a1,a1,a5
    28c4:	6c4090ef          	jal	bf88 <__divdi3>
    28c8:	41f55613          	srai	a2,a0,0x1f
    28cc:	02a607b3          	mul	a5,a2,a0
    28d0:	02a50733          	mul	a4,a0,a0
    28d4:	02a536b3          	mulhu	a3,a0,a0
    28d8:	20d7a7b3          	sh1add	a5,a5,a3
    28dc:	01079793          	slli	a5,a5,0x10
    28e0:	01075713          	srli	a4,a4,0x10
    28e4:	00e78733          	add	a4,a5,a4
    28e8:	41f75313          	srai	t1,a4,0x1f
    28ec:	02e306b3          	mul	a3,t1,a4
    28f0:	02e707b3          	mul	a5,a4,a4
    28f4:	02e735b3          	mulhu	a1,a4,a4
    28f8:	20b6a6b3          	sh1add	a3,a3,a1
    28fc:	01069693          	slli	a3,a3,0x10
    2900:	0107d793          	srli	a5,a5,0x10
    2904:	00f687b3          	add	a5,a3,a5
    2908:	41f7d813          	srai	a6,a5,0x1f
    290c:	010b1b13          	slli	s6,s6,0x10
    2910:	41fb5693          	srai	a3,s6,0x1f
    2914:	0000b8b7          	lui	a7,0xb
    2918:	17288893          	addi	a7,a7,370 # b172 <__divdf3+0x6c2>
    291c:	031686b3          	mul	a3,a3,a7
    2920:	031b05b3          	mul	a1,s6,a7
    2924:	031b3b33          	mulhu	s6,s6,a7
    2928:	016686b3          	add	a3,a3,s6
    292c:	01069693          	slli	a3,a3,0x10
    2930:	0105d593          	srli	a1,a1,0x10
    2934:	00b685b3          	add	a1,a3,a1
    2938:	00bb85b3          	add	a1,s7,a1
    293c:	000028b7          	lui	a7,0x2
    2940:	5e288893          	addi	a7,a7,1506 # 25e2 <T6_start+0x392>
    2944:	03180e33          	mul	t3,a6,a7
    2948:	031786b3          	mul	a3,a5,a7
    294c:	0317b8b3          	mulhu	a7,a5,a7
    2950:	011e08b3          	add	a7,t3,a7
    2954:	01089893          	slli	a7,a7,0x10
    2958:	0106d693          	srli	a3,a3,0x10
    295c:	00d886b3          	add	a3,a7,a3
    2960:	000038b7          	lui	a7,0x3
    2964:	e8d88893          	addi	a7,a7,-371 # 2e8d <T9_start+0x2c9>
    2968:	011686b3          	add	a3,a3,a7
    296c:	41f6de13          	srai	t3,a3,0x1f
    2970:	02fe0e33          	mul	t3,t3,a5
    2974:	02d808b3          	mul	a7,a6,a3
    2978:	011e0e33          	add	t3,t3,a7
    297c:	02f688b3          	mul	a7,a3,a5
    2980:	02f6b6b3          	mulhu	a3,a3,a5
    2984:	00de06b3          	add	a3,t3,a3
    2988:	01069693          	slli	a3,a3,0x10
    298c:	0108d893          	srli	a7,a7,0x10
    2990:	011688b3          	add	a7,a3,a7
    2994:	000056b7          	lui	a3,0x5
    2998:	92568693          	addi	a3,a3,-1755 # 4925 <T12_start+0x765>
    299c:	00d888b3          	add	a7,a7,a3
    29a0:	41f8de13          	srai	t3,a7,0x1f
    29a4:	02fe0e33          	mul	t3,t3,a5
    29a8:	031806b3          	mul	a3,a6,a7
    29ac:	00de0e33          	add	t3,t3,a3
    29b0:	02f886b3          	mul	a3,a7,a5
    29b4:	02f8b8b3          	mulhu	a7,a7,a5
    29b8:	011e08b3          	add	a7,t3,a7
    29bc:	01089893          	slli	a7,a7,0x10
    29c0:	0106d693          	srli	a3,a3,0x10
    29c4:	00d886b3          	add	a3,a7,a3
    29c8:	0000b8b7          	lui	a7,0xb
    29cc:	aab88893          	addi	a7,a7,-1365 # aaab <__adddf3+0x747>
    29d0:	011686b3          	add	a3,a3,a7
    29d4:	41f6d893          	srai	a7,a3,0x1f
    29d8:	02e888b3          	mul	a7,a7,a4
    29dc:	02d30333          	mul	t1,t1,a3
    29e0:	00688333          	add	t1,a7,t1
    29e4:	02e688b3          	mul	a7,a3,a4
    29e8:	02e6b6b3          	mulhu	a3,a3,a4
    29ec:	00d30733          	add	a4,t1,a3
    29f0:	01071713          	slli	a4,a4,0x10
    29f4:	0108d893          	srli	a7,a7,0x10
    29f8:	011708b3          	add	a7,a4,a7
    29fc:	00002737          	lui	a4,0x2
    2a00:	73470713          	addi	a4,a4,1844 # 2734 <T7_start+0x78>
    2a04:	02e80333          	mul	t1,a6,a4
    2a08:	02e786b3          	mul	a3,a5,a4
    2a0c:	02e7b733          	mulhu	a4,a5,a4
    2a10:	00e30733          	add	a4,t1,a4
    2a14:	01071713          	slli	a4,a4,0x10
    2a18:	0106d693          	srli	a3,a3,0x10
    2a1c:	00d706b3          	add	a3,a4,a3
    2a20:	00004737          	lui	a4,0x4
    2a24:	8e470713          	addi	a4,a4,-1820 # 38e4 <T10_start+0x47c>
    2a28:	00e686b3          	add	a3,a3,a4
    2a2c:	41f6d313          	srai	t1,a3,0x1f
    2a30:	02f30333          	mul	t1,t1,a5
    2a34:	02d80733          	mul	a4,a6,a3
    2a38:	00e30333          	add	t1,t1,a4
    2a3c:	02f68733          	mul	a4,a3,a5
    2a40:	02f6b6b3          	mulhu	a3,a3,a5
    2a44:	00d306b3          	add	a3,t1,a3
    2a48:	01069693          	slli	a3,a3,0x10
    2a4c:	01075713          	srli	a4,a4,0x10
    2a50:	00e68733          	add	a4,a3,a4
    2a54:	000066b7          	lui	a3,0x6
    2a58:	66668693          	addi	a3,a3,1638 # 6666 <T18_end+0x6>
    2a5c:	00d70733          	add	a4,a4,a3
    2a60:	41f75693          	srai	a3,a4,0x1f
    2a64:	02f686b3          	mul	a3,a3,a5
    2a68:	02e80833          	mul	a6,a6,a4
    2a6c:	010686b3          	add	a3,a3,a6
    2a70:	02f70833          	mul	a6,a4,a5
    2a74:	02f73733          	mulhu	a4,a4,a5
    2a78:	00e687b3          	add	a5,a3,a4
    2a7c:	01079793          	slli	a5,a5,0x10
    2a80:	01085713          	srli	a4,a6,0x10
    2a84:	00e78733          	add	a4,a5,a4
    2a88:	00e888b3          	add	a7,a7,a4
    2a8c:	411b8bb3          	sub	s7,s7,a7
    2a90:	41fbd793          	srai	a5,s7,0x1f
    2a94:	02a787b3          	mul	a5,a5,a0
    2a98:	03760633          	mul	a2,a2,s7
    2a9c:	00c787b3          	add	a5,a5,a2
    2aa0:	02ab8733          	mul	a4,s7,a0
    2aa4:	02abbbb3          	mulhu	s7,s7,a0
    2aa8:	017787b3          	add	a5,a5,s7
    2aac:	01079793          	slli	a5,a5,0x10
    2ab0:	01075713          	srli	a4,a4,0x10
    2ab4:	00e78733          	add	a4,a5,a4
    2ab8:	40e585b3          	sub	a1,a1,a4
    2abc:	04b12623          	sw	a1,76(sp)
    2ac0:	004aa783          	lw	a5,4(s5)
    2ac4:	40fc07b3          	sub	a5,s8,a5
    2ac8:	04f12823          	sw	a5,80(sp)

00002acc <T7_end>:
    2acc:	b00027f3          	csrr	a5,mcycle
    2ad0:	41a787b3          	sub	a5,a5,s10
    2ad4:	00fa2e23          	sw	a5,28(s4)
    2ad8:	04812683          	lw	a3,72(sp)
    2adc:	04c12703          	lw	a4,76(sp)
    2ae0:	00100793          	li	a5,1
    2ae4:	00d75663          	bge	a4,a3,2af0 <T7_end+0x24>
    2ae8:	00068713          	mv	a4,a3
    2aec:	00000793          	li	a5,0
    2af0:	05012683          	lw	a3,80(sp)
    2af4:	00e6c463          	blt	a3,a4,2afc <T7_end+0x30>
    2af8:	00200793          	li	a5,2
    2afc:	00020737          	lui	a4,0x20
    2b00:	000206b7          	lui	a3,0x20
    2b04:	0fc68693          	addi	a3,a3,252 # 200fc <next.15>
    2b08:	20d7c7b3          	sh2add	a5,a5,a3
    2b0c:	0007a783          	lw	a5,0(a5) # 20000 <heap.cpp.6b15d6f6+0xa850>
    2b10:	14470713          	addi	a4,a4,324 # 20144 <jump_table.23>
    2b14:	20e7c7b3          	sh2add	a5,a5,a4
    2b18:	0007a783          	lw	a5,0(a5)
    2b1c:	884fe06f          	j	ba0 <inferenceTPG+0x50>
    2b20:	41600b33          	neg	s6,s6
    2b24:	bf1ff06f          	j	2714 <T7_start+0x58>
    2b28:	41600733          	neg	a4,s6
    2b2c:	41075713          	srai	a4,a4,0x10
    2b30:	40e7d7b3          	sra	a5,a5,a4
    2b34:	d05ff06f          	j	2838 <T7_start+0x17c>
    2b38:	000c0693          	mv	a3,s8
    2b3c:	00000b13          	li	s6,0
    2b40:	d5dff06f          	j	289c <T7_start+0x1e0>
    2b44:	fff00593          	li	a1,-1
    2b48:	f75ff06f          	j	2abc <T7_start+0x400>

00002b4c <T8_start>:
    2b4c:	b0002bf3          	csrr	s7,mcycle
    2b50:	008aab03          	lw	s6,8(s5)
    2b54:	000b0513          	mv	a0,s6
    2b58:	020b0063          	beqz	s6,2b78 <T8_start+0x2c>
    2b5c:	41fb5693          	srai	a3,s6,0x1f
    2b60:	010b5593          	srli	a1,s6,0x10
    2b64:	01069793          	slli	a5,a3,0x10
    2b68:	000b0613          	mv	a2,s6
    2b6c:	010b1513          	slli	a0,s6,0x10
    2b70:	00f585b3          	add	a1,a1,a5
    2b74:	414090ef          	jal	bf88 <__divdi3>
    2b78:	02a12623          	sw	a0,44(sp)
    2b7c:	004aa783          	lw	a5,4(s5)
    2b80:	40fb0b33          	sub	s6,s6,a5
    2b84:	03612823          	sw	s6,48(sp)

00002b88 <T8_end>:
    2b88:	b00027f3          	csrr	a5,mcycle
    2b8c:	417787b3          	sub	a5,a5,s7
    2b90:	02fa2023          	sw	a5,32(s4)
    2b94:	00020737          	lui	a4,0x20
    2b98:	02c12783          	lw	a5,44(sp)
    2b9c:	03012603          	lw	a2,48(sp)
    2ba0:	00f627b3          	slt	a5,a2,a5
    2ba4:	0017b793          	seqz	a5,a5
    2ba8:	93c18693          	addi	a3,gp,-1732 # 22e00 <next.14>
    2bac:	20d7c7b3          	sh2add	a5,a5,a3
    2bb0:	0007a783          	lw	a5,0(a5)
    2bb4:	14470713          	addi	a4,a4,324 # 20144 <jump_table.23>
    2bb8:	20e7c7b3          	sh2add	a5,a5,a4
    2bbc:	0007a783          	lw	a5,0(a5)
    2bc0:	fe1fd06f          	j	ba0 <inferenceTPG+0x50>

00002bc4 <T9_start>:
    2bc4:	b00027f3          	csrr	a5,mcycle
    2bc8:	00078d13          	mv	s10,a5
    2bcc:	0004ac03          	lw	s8,0(s1)
    2bd0:	000c5463          	bgez	s8,2bd8 <T9_start+0x14>
    2bd4:	7b90306f          	j	6b8c <T19_start+0x3e0>
    2bd8:	7e0c0463          	beqz	s8,33c0 <T9_end+0x6c>
    2bdc:	000207b7          	lui	a5,0x20
    2be0:	7d87da63          	bge	a5,s8,33b4 <T9_end+0x60>
    2be4:	000c0693          	mv	a3,s8
    2be8:	00000b13          	li	s6,0
    2bec:	4016d693          	srai	a3,a3,0x1
    2bf0:	001b0b13          	addi	s6,s6,1
    2bf4:	fed7cce3          	blt	a5,a3,2bec <T9_start+0x28>
    2bf8:	ffff0bb7          	lui	s7,0xffff0
    2bfc:	01768bb3          	add	s7,a3,s7
    2c00:	41fbd793          	srai	a5,s7,0x1f
    2c04:	010bd593          	srli	a1,s7,0x10
    2c08:	01079793          	slli	a5,a5,0x10
    2c0c:	00010737          	lui	a4,0x10
    2c10:	00e68633          	add	a2,a3,a4
    2c14:	41f65693          	srai	a3,a2,0x1f
    2c18:	010b9513          	slli	a0,s7,0x10
    2c1c:	00f585b3          	add	a1,a1,a5
    2c20:	368090ef          	jal	bf88 <__divdi3>
    2c24:	41f55593          	srai	a1,a0,0x1f
    2c28:	02a587b3          	mul	a5,a1,a0
    2c2c:	02a506b3          	mul	a3,a0,a0
    2c30:	02a53733          	mulhu	a4,a0,a0
    2c34:	20e7a7b3          	sh1add	a5,a5,a4
    2c38:	01079793          	slli	a5,a5,0x10
    2c3c:	0106d693          	srli	a3,a3,0x10
    2c40:	00d786b3          	add	a3,a5,a3
    2c44:	41f6d313          	srai	t1,a3,0x1f
    2c48:	02d30733          	mul	a4,t1,a3
    2c4c:	02d687b3          	mul	a5,a3,a3
    2c50:	02d6b633          	mulhu	a2,a3,a3
    2c54:	20c72733          	sh1add	a4,a4,a2
    2c58:	01071713          	slli	a4,a4,0x10
    2c5c:	0107d793          	srli	a5,a5,0x10
    2c60:	00f707b3          	add	a5,a4,a5
    2c64:	41f7d813          	srai	a6,a5,0x1f
    2c68:	010b1b13          	slli	s6,s6,0x10
    2c6c:	41fb5613          	srai	a2,s6,0x1f
    2c70:	0000b8b7          	lui	a7,0xb
    2c74:	17288893          	addi	a7,a7,370 # b172 <__divdf3+0x6c2>
    2c78:	03160633          	mul	a2,a2,a7
    2c7c:	031b0733          	mul	a4,s6,a7
    2c80:	031b3b33          	mulhu	s6,s6,a7
    2c84:	01660633          	add	a2,a2,s6
    2c88:	01061613          	slli	a2,a2,0x10
    2c8c:	01075713          	srli	a4,a4,0x10
    2c90:	00e60733          	add	a4,a2,a4
    2c94:	00eb8733          	add	a4,s7,a4
    2c98:	000028b7          	lui	a7,0x2
    2c9c:	5e288893          	addi	a7,a7,1506 # 25e2 <T6_start+0x392>
    2ca0:	03180e33          	mul	t3,a6,a7
    2ca4:	03178633          	mul	a2,a5,a7
    2ca8:	0317b8b3          	mulhu	a7,a5,a7
    2cac:	011e08b3          	add	a7,t3,a7
    2cb0:	01089893          	slli	a7,a7,0x10
    2cb4:	01065613          	srli	a2,a2,0x10
    2cb8:	00c88633          	add	a2,a7,a2
    2cbc:	000038b7          	lui	a7,0x3
    2cc0:	e8d88893          	addi	a7,a7,-371 # 2e8d <T9_start+0x2c9>
    2cc4:	01160633          	add	a2,a2,a7
    2cc8:	41f65e13          	srai	t3,a2,0x1f
    2ccc:	02fe0e33          	mul	t3,t3,a5
    2cd0:	02c808b3          	mul	a7,a6,a2
    2cd4:	011e0e33          	add	t3,t3,a7
    2cd8:	02f608b3          	mul	a7,a2,a5
    2cdc:	02f63633          	mulhu	a2,a2,a5
    2ce0:	00ce0633          	add	a2,t3,a2
    2ce4:	01061613          	slli	a2,a2,0x10
    2ce8:	0108d893          	srli	a7,a7,0x10
    2cec:	011608b3          	add	a7,a2,a7
    2cf0:	00005637          	lui	a2,0x5
    2cf4:	92560613          	addi	a2,a2,-1755 # 4925 <T12_start+0x765>
    2cf8:	00c888b3          	add	a7,a7,a2
    2cfc:	41f8de13          	srai	t3,a7,0x1f
    2d00:	02fe0e33          	mul	t3,t3,a5
    2d04:	03180633          	mul	a2,a6,a7
    2d08:	00ce0e33          	add	t3,t3,a2
    2d0c:	02f88633          	mul	a2,a7,a5
    2d10:	02f8b8b3          	mulhu	a7,a7,a5
    2d14:	011e08b3          	add	a7,t3,a7
    2d18:	01089893          	slli	a7,a7,0x10
    2d1c:	01065613          	srli	a2,a2,0x10
    2d20:	00c88633          	add	a2,a7,a2
    2d24:	0000b8b7          	lui	a7,0xb
    2d28:	aab88893          	addi	a7,a7,-1365 # aaab <__adddf3+0x747>
    2d2c:	01160633          	add	a2,a2,a7
    2d30:	41f65893          	srai	a7,a2,0x1f
    2d34:	02d888b3          	mul	a7,a7,a3
    2d38:	02c30333          	mul	t1,t1,a2
    2d3c:	00688333          	add	t1,a7,t1
    2d40:	02d608b3          	mul	a7,a2,a3
    2d44:	02d63633          	mulhu	a2,a2,a3
    2d48:	00c306b3          	add	a3,t1,a2
    2d4c:	01069693          	slli	a3,a3,0x10
    2d50:	0108d893          	srli	a7,a7,0x10
    2d54:	011688b3          	add	a7,a3,a7
    2d58:	000026b7          	lui	a3,0x2
    2d5c:	73468693          	addi	a3,a3,1844 # 2734 <T7_start+0x78>
    2d60:	02d80333          	mul	t1,a6,a3
    2d64:	02d78633          	mul	a2,a5,a3
    2d68:	02d7b6b3          	mulhu	a3,a5,a3
    2d6c:	00d306b3          	add	a3,t1,a3
    2d70:	01069693          	slli	a3,a3,0x10
    2d74:	01065613          	srli	a2,a2,0x10
    2d78:	00c68633          	add	a2,a3,a2
    2d7c:	000046b7          	lui	a3,0x4
    2d80:	8e468693          	addi	a3,a3,-1820 # 38e4 <T10_start+0x47c>
    2d84:	00d60633          	add	a2,a2,a3
    2d88:	41f65313          	srai	t1,a2,0x1f
    2d8c:	02f30333          	mul	t1,t1,a5
    2d90:	02c806b3          	mul	a3,a6,a2
    2d94:	00d30333          	add	t1,t1,a3
    2d98:	02f606b3          	mul	a3,a2,a5
    2d9c:	02f63633          	mulhu	a2,a2,a5
    2da0:	00c30633          	add	a2,t1,a2
    2da4:	01061613          	slli	a2,a2,0x10
    2da8:	0106d693          	srli	a3,a3,0x10
    2dac:	00d606b3          	add	a3,a2,a3
    2db0:	00006637          	lui	a2,0x6
    2db4:	66660613          	addi	a2,a2,1638 # 6666 <T18_end+0x6>
    2db8:	00c686b3          	add	a3,a3,a2
    2dbc:	41f6d613          	srai	a2,a3,0x1f
    2dc0:	02f60633          	mul	a2,a2,a5
    2dc4:	02d80833          	mul	a6,a6,a3
    2dc8:	01060633          	add	a2,a2,a6
    2dcc:	02f68833          	mul	a6,a3,a5
    2dd0:	02f6b6b3          	mulhu	a3,a3,a5
    2dd4:	00d607b3          	add	a5,a2,a3
    2dd8:	01079793          	slli	a5,a5,0x10
    2ddc:	01085693          	srli	a3,a6,0x10
    2de0:	00d786b3          	add	a3,a5,a3
    2de4:	00d888b3          	add	a7,a7,a3
    2de8:	411b8bb3          	sub	s7,s7,a7
    2dec:	41fbd793          	srai	a5,s7,0x1f
    2df0:	02a787b3          	mul	a5,a5,a0
    2df4:	037585b3          	mul	a1,a1,s7
    2df8:	00b787b3          	add	a5,a5,a1
    2dfc:	02ab86b3          	mul	a3,s7,a0
    2e00:	02abbbb3          	mulhu	s7,s7,a0
    2e04:	017787b3          	add	a5,a5,s7
    2e08:	01079793          	slli	a5,a5,0x10
    2e0c:	0106d693          	srli	a3,a3,0x10
    2e10:	00d786b3          	add	a3,a5,a3
    2e14:	40d70733          	sub	a4,a4,a3
    2e18:	0084ab83          	lw	s7,8(s1)
    2e1c:	41f75793          	srai	a5,a4,0x1f
    2e20:	41fbd693          	srai	a3,s7,0x1f
    2e24:	037787b3          	mul	a5,a5,s7
    2e28:	02e686b3          	mul	a3,a3,a4
    2e2c:	00d787b3          	add	a5,a5,a3
    2e30:	037706b3          	mul	a3,a4,s7
    2e34:	03773733          	mulhu	a4,a4,s7
    2e38:	00e787b3          	add	a5,a5,a4
    2e3c:	01079793          	slli	a5,a5,0x10
    2e40:	0106d713          	srli	a4,a3,0x10
    2e44:	00e787b3          	add	a5,a5,a4
    2e48:	58078e63          	beqz	a5,33e4 <T9_end+0x90>
    2e4c:	40f006b3          	neg	a3,a5
    2e50:	0ad7e6b3          	max	a3,a5,a3
    2e54:	41f6d713          	srai	a4,a3,0x1f
    2e58:	00017637          	lui	a2,0x17
    2e5c:	15460613          	addi	a2,a2,340 # 17154 <heap.cpp.6b15d6f6+0x19a4>
    2e60:	02c70733          	mul	a4,a4,a2
    2e64:	02c68b33          	mul	s6,a3,a2
    2e68:	02c6b6b3          	mulhu	a3,a3,a2
    2e6c:	00d70733          	add	a4,a4,a3
    2e70:	01071713          	slli	a4,a4,0x10
    2e74:	010b5b13          	srli	s6,s6,0x10
    2e78:	01670b33          	add	s6,a4,s6
    2e7c:	00008737          	lui	a4,0x8
    2e80:	00eb0b33          	add	s6,s6,a4
    2e84:	ffff0737          	lui	a4,0xffff0
    2e88:	00eb7b33          	and	s6,s6,a4
    2e8c:	5207ce63          	bltz	a5,33c8 <T9_end+0x74>
    2e90:	41fb5713          	srai	a4,s6,0x1f
    2e94:	0000b6b7          	lui	a3,0xb
    2e98:	17268693          	addi	a3,a3,370 # b172 <__divdf3+0x6c2>
    2e9c:	02d70733          	mul	a4,a4,a3
    2ea0:	02db0633          	mul	a2,s6,a3
    2ea4:	02db36b3          	mulhu	a3,s6,a3
    2ea8:	00d70733          	add	a4,a4,a3
    2eac:	01071713          	slli	a4,a4,0x10
    2eb0:	01065693          	srli	a3,a2,0x10
    2eb4:	00d706b3          	add	a3,a4,a3
    2eb8:	40d787b3          	sub	a5,a5,a3
    2ebc:	41f7d713          	srai	a4,a5,0x1f
    2ec0:	02f70733          	mul	a4,a4,a5
    2ec4:	02f78633          	mul	a2,a5,a5
    2ec8:	02f7b6b3          	mulhu	a3,a5,a5
    2ecc:	20d72733          	sh1add	a4,a4,a3
    2ed0:	01071713          	slli	a4,a4,0x10
    2ed4:	01065613          	srli	a2,a2,0x10
    2ed8:	00c70633          	add	a2,a4,a2
    2edc:	41f65513          	srai	a0,a2,0x1f
    2ee0:	01e65713          	srli	a4,a2,0x1e
    2ee4:	20e54733          	sh2add	a4,a0,a4
    2ee8:	00261693          	slli	a3,a2,0x2
    2eec:	01071713          	slli	a4,a4,0x10
    2ef0:	0106d693          	srli	a3,a3,0x10
    2ef4:	00d706b3          	add	a3,a4,a3
    2ef8:	f4a68693          	addi	a3,a3,-182
    2efc:	41f6d593          	srai	a1,a3,0x1f
    2f00:	02c585b3          	mul	a1,a1,a2
    2f04:	02d50733          	mul	a4,a0,a3
    2f08:	00e585b3          	add	a1,a1,a4
    2f0c:	02c68733          	mul	a4,a3,a2
    2f10:	02c6b6b3          	mulhu	a3,a3,a2
    2f14:	00d586b3          	add	a3,a1,a3
    2f18:	01069693          	slli	a3,a3,0x10
    2f1c:	01075713          	srli	a4,a4,0x10
    2f20:	00e68733          	add	a4,a3,a4
    2f24:	000036b7          	lui	a3,0x3
    2f28:	aab68693          	addi	a3,a3,-1365 # 2aab <T7_start+0x3ef>
    2f2c:	00d70733          	add	a4,a4,a3
    2f30:	41f75693          	srai	a3,a4,0x1f
    2f34:	02c686b3          	mul	a3,a3,a2
    2f38:	02e50533          	mul	a0,a0,a4
    2f3c:	00a686b3          	add	a3,a3,a0
    2f40:	02c705b3          	mul	a1,a4,a2
    2f44:	02c73733          	mulhu	a4,a4,a2
    2f48:	00e68733          	add	a4,a3,a4
    2f4c:	01071713          	slli	a4,a4,0x10
    2f50:	0105d693          	srli	a3,a1,0x10
    2f54:	00d706b3          	add	a3,a4,a3
    2f58:	00020737          	lui	a4,0x20
    2f5c:	00e686b3          	add	a3,a3,a4
    2f60:	40f68633          	sub	a2,a3,a5
    2f64:	02f68c63          	beq	a3,a5,2f9c <T9_start+0x3d8>
    2f68:	00f7d713          	srli	a4,a5,0xf
    2f6c:	01179793          	slli	a5,a5,0x11
    2f70:	01071713          	slli	a4,a4,0x10
    2f74:	0107d793          	srli	a5,a5,0x10
    2f78:	00f707b3          	add	a5,a4,a5
    2f7c:	41f7d713          	srai	a4,a5,0x1f
    2f80:	0107d593          	srli	a1,a5,0x10
    2f84:	01071713          	slli	a4,a4,0x10
    2f88:	41f65693          	srai	a3,a2,0x1f
    2f8c:	01079513          	slli	a0,a5,0x10
    2f90:	00e585b3          	add	a1,a1,a4
    2f94:	7f5080ef          	jal	bf88 <__divdi3>
    2f98:	00050613          	mv	a2,a0
    2f9c:	000107b7          	lui	a5,0x10
    2fa0:	00f606b3          	add	a3,a2,a5
    2fa4:	420b4663          	bltz	s6,33d0 <T9_end+0x7c>
    2fa8:	410b5b13          	srai	s6,s6,0x10
    2fac:	00010737          	lui	a4,0x10
    2fb0:	01671733          	sll	a4,a4,s6
    2fb4:	41f75793          	srai	a5,a4,0x1f
    2fb8:	41f6d613          	srai	a2,a3,0x1f
    2fbc:	02d787b3          	mul	a5,a5,a3
    2fc0:	02e60633          	mul	a2,a2,a4
    2fc4:	00c787b3          	add	a5,a5,a2
    2fc8:	02d70633          	mul	a2,a4,a3
    2fcc:	02d73733          	mulhu	a4,a4,a3
    2fd0:	00e787b3          	add	a5,a5,a4
    2fd4:	01079793          	slli	a5,a5,0x10
    2fd8:	01065713          	srli	a4,a2,0x10
    2fdc:	00e787b3          	add	a5,a5,a4
    2fe0:	00fc07b3          	add	a5,s8,a5
    2fe4:	0044a703          	lw	a4,4(s1)
    2fe8:	00e787b3          	add	a5,a5,a4
    2fec:	0af12023          	sw	a5,160(sp)
    2ff0:	004aa783          	lw	a5,4(s5)
    2ff4:	40f007b3          	neg	a5,a5
    2ff8:	0af12223          	sw	a5,164(sp)
    2ffc:	008aa683          	lw	a3,8(s5)
    3000:	00000593          	li	a1,0
    3004:	2406c063          	bltz	a3,3244 <T9_start+0x680>
    3008:	3e068663          	beqz	a3,33f4 <T9_end+0xa0>
    300c:	000207b7          	lui	a5,0x20
    3010:	3cd7de63          	bge	a5,a3,33ec <T9_end+0x98>
    3014:	00000b13          	li	s6,0
    3018:	4016d693          	srai	a3,a3,0x1
    301c:	001b0b13          	addi	s6,s6,1
    3020:	fed7cce3          	blt	a5,a3,3018 <T9_start+0x454>
    3024:	ffff07b7          	lui	a5,0xffff0
    3028:	00f68c33          	add	s8,a3,a5
    302c:	41fc5793          	srai	a5,s8,0x1f
    3030:	010c5593          	srli	a1,s8,0x10
    3034:	01079793          	slli	a5,a5,0x10
    3038:	00010737          	lui	a4,0x10
    303c:	00e68633          	add	a2,a3,a4
    3040:	41f65693          	srai	a3,a2,0x1f
    3044:	010c1513          	slli	a0,s8,0x10
    3048:	00f585b3          	add	a1,a1,a5
    304c:	73d080ef          	jal	bf88 <__divdi3>
    3050:	41f55613          	srai	a2,a0,0x1f
    3054:	02a607b3          	mul	a5,a2,a0
    3058:	02a50733          	mul	a4,a0,a0
    305c:	02a536b3          	mulhu	a3,a0,a0
    3060:	20d7a7b3          	sh1add	a5,a5,a3
    3064:	01079793          	slli	a5,a5,0x10
    3068:	01075713          	srli	a4,a4,0x10
    306c:	00e78733          	add	a4,a5,a4
    3070:	41f75313          	srai	t1,a4,0x1f
    3074:	02e306b3          	mul	a3,t1,a4
    3078:	02e707b3          	mul	a5,a4,a4
    307c:	02e735b3          	mulhu	a1,a4,a4
    3080:	20b6a6b3          	sh1add	a3,a3,a1
    3084:	01069693          	slli	a3,a3,0x10
    3088:	0107d793          	srli	a5,a5,0x10
    308c:	00f687b3          	add	a5,a3,a5
    3090:	41f7d813          	srai	a6,a5,0x1f
    3094:	010b1b13          	slli	s6,s6,0x10
    3098:	41fb5693          	srai	a3,s6,0x1f
    309c:	0000b8b7          	lui	a7,0xb
    30a0:	17288893          	addi	a7,a7,370 # b172 <__divdf3+0x6c2>
    30a4:	031686b3          	mul	a3,a3,a7
    30a8:	031b05b3          	mul	a1,s6,a7
    30ac:	031b3b33          	mulhu	s6,s6,a7
    30b0:	016686b3          	add	a3,a3,s6
    30b4:	01069693          	slli	a3,a3,0x10
    30b8:	0105d593          	srli	a1,a1,0x10
    30bc:	00b685b3          	add	a1,a3,a1
    30c0:	00bc05b3          	add	a1,s8,a1
    30c4:	000028b7          	lui	a7,0x2
    30c8:	5e288893          	addi	a7,a7,1506 # 25e2 <T6_start+0x392>
    30cc:	03180e33          	mul	t3,a6,a7
    30d0:	031786b3          	mul	a3,a5,a7
    30d4:	0317b8b3          	mulhu	a7,a5,a7
    30d8:	011e08b3          	add	a7,t3,a7
    30dc:	01089893          	slli	a7,a7,0x10
    30e0:	0106d693          	srli	a3,a3,0x10
    30e4:	00d886b3          	add	a3,a7,a3
    30e8:	000038b7          	lui	a7,0x3
    30ec:	e8d88893          	addi	a7,a7,-371 # 2e8d <T9_start+0x2c9>
    30f0:	011686b3          	add	a3,a3,a7
    30f4:	41f6de13          	srai	t3,a3,0x1f
    30f8:	02fe0e33          	mul	t3,t3,a5
    30fc:	02d808b3          	mul	a7,a6,a3
    3100:	011e0e33          	add	t3,t3,a7
    3104:	02f688b3          	mul	a7,a3,a5
    3108:	02f6b6b3          	mulhu	a3,a3,a5
    310c:	00de06b3          	add	a3,t3,a3
    3110:	01069693          	slli	a3,a3,0x10
    3114:	0108d893          	srli	a7,a7,0x10
    3118:	011688b3          	add	a7,a3,a7
    311c:	000056b7          	lui	a3,0x5
    3120:	92568693          	addi	a3,a3,-1755 # 4925 <T12_start+0x765>
    3124:	00d888b3          	add	a7,a7,a3
    3128:	41f8de13          	srai	t3,a7,0x1f
    312c:	02fe0e33          	mul	t3,t3,a5
    3130:	031806b3          	mul	a3,a6,a7
    3134:	00de0e33          	add	t3,t3,a3
    3138:	02f886b3          	mul	a3,a7,a5
    313c:	02f8b8b3          	mulhu	a7,a7,a5
    3140:	011e08b3          	add	a7,t3,a7
    3144:	01089893          	slli	a7,a7,0x10
    3148:	0106d693          	srli	a3,a3,0x10
    314c:	00d886b3          	add	a3,a7,a3
    3150:	0000b8b7          	lui	a7,0xb
    3154:	aab88893          	addi	a7,a7,-1365 # aaab <__adddf3+0x747>
    3158:	011686b3          	add	a3,a3,a7
    315c:	41f6d893          	srai	a7,a3,0x1f
    3160:	02e888b3          	mul	a7,a7,a4
    3164:	02d30333          	mul	t1,t1,a3
    3168:	00688333          	add	t1,a7,t1
    316c:	02e688b3          	mul	a7,a3,a4
    3170:	02e6b6b3          	mulhu	a3,a3,a4
    3174:	00d30733          	add	a4,t1,a3
    3178:	01071713          	slli	a4,a4,0x10
    317c:	0108d893          	srli	a7,a7,0x10
    3180:	011708b3          	add	a7,a4,a7
    3184:	00002737          	lui	a4,0x2
    3188:	73470713          	addi	a4,a4,1844 # 2734 <T7_start+0x78>
    318c:	02e80333          	mul	t1,a6,a4
    3190:	02e786b3          	mul	a3,a5,a4
    3194:	02e7b733          	mulhu	a4,a5,a4
    3198:	00e30733          	add	a4,t1,a4
    319c:	01071713          	slli	a4,a4,0x10
    31a0:	0106d693          	srli	a3,a3,0x10
    31a4:	00d706b3          	add	a3,a4,a3
    31a8:	00004737          	lui	a4,0x4
    31ac:	8e470713          	addi	a4,a4,-1820 # 38e4 <T10_start+0x47c>
    31b0:	00e686b3          	add	a3,a3,a4
    31b4:	41f6d313          	srai	t1,a3,0x1f
    31b8:	02f30333          	mul	t1,t1,a5
    31bc:	02d80733          	mul	a4,a6,a3
    31c0:	00e30333          	add	t1,t1,a4
    31c4:	02f68733          	mul	a4,a3,a5
    31c8:	02f6b6b3          	mulhu	a3,a3,a5
    31cc:	00d306b3          	add	a3,t1,a3
    31d0:	01069693          	slli	a3,a3,0x10
    31d4:	01075713          	srli	a4,a4,0x10
    31d8:	00e68733          	add	a4,a3,a4
    31dc:	000066b7          	lui	a3,0x6
    31e0:	66668693          	addi	a3,a3,1638 # 6666 <T18_end+0x6>
    31e4:	00d70733          	add	a4,a4,a3
    31e8:	41f75693          	srai	a3,a4,0x1f
    31ec:	02f686b3          	mul	a3,a3,a5
    31f0:	02e80833          	mul	a6,a6,a4
    31f4:	010686b3          	add	a3,a3,a6
    31f8:	02f70833          	mul	a6,a4,a5
    31fc:	02f73733          	mulhu	a4,a4,a5
    3200:	00e687b3          	add	a5,a3,a4
    3204:	01079793          	slli	a5,a5,0x10
    3208:	01085713          	srli	a4,a6,0x10
    320c:	00e78733          	add	a4,a5,a4
    3210:	00e888b3          	add	a7,a7,a4
    3214:	411c07b3          	sub	a5,s8,a7
    3218:	41f7d713          	srai	a4,a5,0x1f
    321c:	02a70733          	mul	a4,a4,a0
    3220:	02f60633          	mul	a2,a2,a5
    3224:	00c70733          	add	a4,a4,a2
    3228:	02a786b3          	mul	a3,a5,a0
    322c:	02a7b7b3          	mulhu	a5,a5,a0
    3230:	00f707b3          	add	a5,a4,a5
    3234:	01079793          	slli	a5,a5,0x10
    3238:	0106d713          	srli	a4,a3,0x10
    323c:	00e78733          	add	a4,a5,a4
    3240:	40e585b3          	sub	a1,a1,a4
    3244:	0ab12423          	sw	a1,168(sp)
    3248:	0089a683          	lw	a3,8(s3)
    324c:	517cd7b7          	lui	a5,0x517cd
    3250:	c8378793          	addi	a5,a5,-893 # 517ccc83 <_sp+0x517a1bf3>
    3254:	02f697b3          	mulh	a5,a3,a5
    3258:	4117d793          	srai	a5,a5,0x11
    325c:	41f6d713          	srai	a4,a3,0x1f
    3260:	40e787b3          	sub	a5,a5,a4
    3264:	00065737          	lui	a4,0x65
    3268:	87e70713          	addi	a4,a4,-1922 # 6487e <_sp+0x397ee>
    326c:	02e787b3          	mul	a5,a5,a4
    3270:	40f687b3          	sub	a5,a3,a5
    3274:	1807c463          	bltz	a5,33fc <T9_end+0xa8>
    3278:	fffe7737          	lui	a4,0xfffe7
    327c:	ddf70713          	addi	a4,a4,-545 # fffe6ddf <_sp+0xfffbbd4f>
    3280:	00e78733          	add	a4,a5,a4
    3284:	000196b7          	lui	a3,0x19
    3288:	21e68693          	addi	a3,a3,542 # 1921e <heap.cpp.6b15d6f6+0x3a6e>
    328c:	18e6e063          	bltu	a3,a4,340c <T9_end+0xb8>
    3290:	00032737          	lui	a4,0x32
    3294:	43f70713          	addi	a4,a4,1087 # 3243f <_sp+0x73af>
    3298:	40f707b3          	sub	a5,a4,a5
    329c:	00100593          	li	a1,1
    32a0:	41f7d513          	srai	a0,a5,0x1f
    32a4:	02f50733          	mul	a4,a0,a5
    32a8:	02f78833          	mul	a6,a5,a5
    32ac:	02f7b6b3          	mulhu	a3,a5,a5
    32b0:	20d72733          	sh1add	a4,a4,a3
    32b4:	01071713          	slli	a4,a4,0x10
    32b8:	01085813          	srli	a6,a6,0x10
    32bc:	01070833          	add	a6,a4,a6
    32c0:	41f85893          	srai	a7,a6,0x1f
    32c4:	1f300613          	li	a2,499
    32c8:	02c88733          	mul	a4,a7,a2
    32cc:	02c806b3          	mul	a3,a6,a2
    32d0:	02c83633          	mulhu	a2,a6,a2
    32d4:	00c70733          	add	a4,a4,a2
    32d8:	01071713          	slli	a4,a4,0x10
    32dc:	0106d693          	srli	a3,a3,0x10
    32e0:	00d706b3          	add	a3,a4,a3
    32e4:	ffffd737          	lui	a4,0xffffd
    32e8:	57e70713          	addi	a4,a4,1406 # ffffd57e <_sp+0xfffd24ee>
    32ec:	00e686b3          	add	a3,a3,a4
    32f0:	41f6d613          	srai	a2,a3,0x1f
    32f4:	03060633          	mul	a2,a2,a6
    32f8:	02d888b3          	mul	a7,a7,a3
    32fc:	01160633          	add	a2,a2,a7
    3300:	03068733          	mul	a4,a3,a6
    3304:	0306b6b3          	mulhu	a3,a3,a6
    3308:	00d606b3          	add	a3,a2,a3
    330c:	01069693          	slli	a3,a3,0x10
    3310:	01075713          	srli	a4,a4,0x10
    3314:	00e68733          	add	a4,a3,a4
    3318:	000106b7          	lui	a3,0x10
    331c:	00d70733          	add	a4,a4,a3
    3320:	41f75693          	srai	a3,a4,0x1f
    3324:	02f686b3          	mul	a3,a3,a5
    3328:	02e50533          	mul	a0,a0,a4
    332c:	00a686b3          	add	a3,a3,a0
    3330:	02f70633          	mul	a2,a4,a5
    3334:	02f73733          	mulhu	a4,a4,a5
    3338:	00e687b3          	add	a5,a3,a4
    333c:	01079793          	slli	a5,a5,0x10
    3340:	01065713          	srli	a4,a2,0x10
    3344:	00e78733          	add	a4,a5,a4
    3348:	02e585b3          	mul	a1,a1,a4
    334c:	017585b3          	add	a1,a1,s7
    3350:	0ab12623          	sw	a1,172(sp)

00003354 <T9_end>:
    3354:	b00027f3          	csrr	a5,mcycle
    3358:	41a787b3          	sub	a5,a5,s10
    335c:	02fa2223          	sw	a5,36(s4)
    3360:	0a012683          	lw	a3,160(sp)
    3364:	0a412703          	lw	a4,164(sp)
    3368:	00100793          	li	a5,1
    336c:	00d75663          	bge	a4,a3,3378 <T9_end+0x24>
    3370:	00068713          	mv	a4,a3
    3374:	00000793          	li	a5,0
    3378:	0a812683          	lw	a3,168(sp)
    337c:	0ee6d063          	bge	a3,a4,345c <T9_end+0x108>
    3380:	00070693          	mv	a3,a4
    3384:	0ac12703          	lw	a4,172(sp)
    3388:	00d74463          	blt	a4,a3,3390 <T9_end+0x3c>
    338c:	00300793          	li	a5,3
    3390:	00020737          	lui	a4,0x20
    3394:	000206b7          	lui	a3,0x20
    3398:	0ec68693          	addi	a3,a3,236 # 200ec <next.13>
    339c:	20d7c7b3          	sh2add	a5,a5,a3
    33a0:	0007a783          	lw	a5,0(a5)
    33a4:	14470713          	addi	a4,a4,324 # 20144 <jump_table.23>
    33a8:	20e7c7b3          	sh2add	a5,a5,a4
    33ac:	0007a783          	lw	a5,0(a5)
    33b0:	ff0fd06f          	j	ba0 <inferenceTPG+0x50>
    33b4:	000c0693          	mv	a3,s8
    33b8:	00000b13          	li	s6,0
    33bc:	83dff06f          	j	2bf8 <T9_start+0x34>
    33c0:	fff00713          	li	a4,-1
    33c4:	a55ff06f          	j	2e18 <T9_start+0x254>
    33c8:	41600b33          	neg	s6,s6
    33cc:	ac5ff06f          	j	2e90 <T9_start+0x2cc>
    33d0:	416007b3          	neg	a5,s6
    33d4:	4107d793          	srai	a5,a5,0x10
    33d8:	00010737          	lui	a4,0x10
    33dc:	40f75733          	sra	a4,a4,a5
    33e0:	bd5ff06f          	j	2fb4 <T9_start+0x3f0>
    33e4:	000107b7          	lui	a5,0x10
    33e8:	bf9ff06f          	j	2fe0 <T9_start+0x41c>
    33ec:	00000b13          	li	s6,0
    33f0:	c35ff06f          	j	3024 <T9_start+0x460>
    33f4:	fff00593          	li	a1,-1
    33f8:	e4dff06f          	j	3244 <T9_start+0x680>
    33fc:	00065737          	lui	a4,0x65
    3400:	87e70713          	addi	a4,a4,-1922 # 6487e <_sp+0x397ee>
    3404:	00e787b3          	add	a5,a5,a4
    3408:	e71ff06f          	j	3278 <T9_start+0x6b4>
    340c:	fffce737          	lui	a4,0xfffce
    3410:	bc070713          	addi	a4,a4,-1088 # fffcdbc0 <_sp+0xfffa2b30>
    3414:	00e78733          	add	a4,a5,a4
    3418:	000196b7          	lui	a3,0x19
    341c:	21f68693          	addi	a3,a3,543 # 1921f <heap.cpp.6b15d6f6+0x3a6f>
    3420:	00e6ec63          	bltu	a3,a4,3438 <T9_end+0xe4>
    3424:	fffce737          	lui	a4,0xfffce
    3428:	bc170713          	addi	a4,a4,-1087 # fffcdbc1 <_sp+0xfffa2b31>
    342c:	00e787b3          	add	a5,a5,a4
    3430:	fff00593          	li	a1,-1
    3434:	e6dff06f          	j	32a0 <T9_start+0x6dc>
    3438:	0004b737          	lui	a4,0x4b
    343c:	65f70713          	addi	a4,a4,1631 # 4b65f <_sp+0x205cf>
    3440:	00100593          	li	a1,1
    3444:	e4f75ee3          	bge	a4,a5,32a0 <T9_start+0x6dc>
    3448:	00065737          	lui	a4,0x65
    344c:	87e70713          	addi	a4,a4,-1922 # 6487e <_sp+0x397ee>
    3450:	40f707b3          	sub	a5,a4,a5
    3454:	fff00593          	li	a1,-1
    3458:	e49ff06f          	j	32a0 <T9_start+0x6dc>
    345c:	00200793          	li	a5,2
    3460:	f25ff06f          	j	3384 <T9_end+0x30>
    3464:	17b12023          	sw	s11,352(sp)

00003468 <T10_start>:
    3468:	b00027f3          	csrr	a5,mcycle
    346c:	00078d93          	mv	s11,a5
    3470:	00492783          	lw	a5,4(s2)
    3474:	0049a703          	lw	a4,4(s3)
    3478:	00070d13          	mv	s10,a4
    347c:	0ae7e733          	max	a4,a5,a4
    3480:	0ae12823          	sw	a4,176(sp)
    3484:	00010737          	lui	a4,0x10
    3488:	18078c63          	beqz	a5,3620 <T10_start+0x1b8>
    348c:	40f006b3          	neg	a3,a5
    3490:	0ad7e6b3          	max	a3,a5,a3
    3494:	41f6d713          	srai	a4,a3,0x1f
    3498:	00017637          	lui	a2,0x17
    349c:	15460613          	addi	a2,a2,340 # 17154 <heap.cpp.6b15d6f6+0x19a4>
    34a0:	02c70733          	mul	a4,a4,a2
    34a4:	02c68b33          	mul	s6,a3,a2
    34a8:	02c6b6b3          	mulhu	a3,a3,a2
    34ac:	00d70733          	add	a4,a4,a3
    34b0:	01071713          	slli	a4,a4,0x10
    34b4:	010b5b13          	srli	s6,s6,0x10
    34b8:	01670b33          	add	s6,a4,s6
    34bc:	00008737          	lui	a4,0x8
    34c0:	00eb0b33          	add	s6,s6,a4
    34c4:	ffff0737          	lui	a4,0xffff0
    34c8:	00eb7b33          	and	s6,s6,a4
    34cc:	5e07c463          	bltz	a5,3ab4 <T10_end+0x64>
    34d0:	41fb5713          	srai	a4,s6,0x1f
    34d4:	0000b6b7          	lui	a3,0xb
    34d8:	17268693          	addi	a3,a3,370 # b172 <__divdf3+0x6c2>
    34dc:	02d70733          	mul	a4,a4,a3
    34e0:	02db0633          	mul	a2,s6,a3
    34e4:	02db36b3          	mulhu	a3,s6,a3
    34e8:	00d70733          	add	a4,a4,a3
    34ec:	01071713          	slli	a4,a4,0x10
    34f0:	01065693          	srli	a3,a2,0x10
    34f4:	00d706b3          	add	a3,a4,a3
    34f8:	40d787b3          	sub	a5,a5,a3
    34fc:	41f7d713          	srai	a4,a5,0x1f
    3500:	02f70733          	mul	a4,a4,a5
    3504:	02f785b3          	mul	a1,a5,a5
    3508:	02f7b6b3          	mulhu	a3,a5,a5
    350c:	20d72733          	sh1add	a4,a4,a3
    3510:	01071713          	slli	a4,a4,0x10
    3514:	0105d593          	srli	a1,a1,0x10
    3518:	00b705b3          	add	a1,a4,a1
    351c:	41f5d513          	srai	a0,a1,0x1f
    3520:	01e5d713          	srli	a4,a1,0x1e
    3524:	20e54733          	sh2add	a4,a0,a4
    3528:	00259693          	slli	a3,a1,0x2
    352c:	01071713          	slli	a4,a4,0x10
    3530:	0106d693          	srli	a3,a3,0x10
    3534:	00d706b3          	add	a3,a4,a3
    3538:	f4a68693          	addi	a3,a3,-182
    353c:	41f6d613          	srai	a2,a3,0x1f
    3540:	02b60633          	mul	a2,a2,a1
    3544:	02d50733          	mul	a4,a0,a3
    3548:	00e60633          	add	a2,a2,a4
    354c:	02b68733          	mul	a4,a3,a1
    3550:	02b6b6b3          	mulhu	a3,a3,a1
    3554:	00d606b3          	add	a3,a2,a3
    3558:	01069693          	slli	a3,a3,0x10
    355c:	01075713          	srli	a4,a4,0x10
    3560:	00e68733          	add	a4,a3,a4
    3564:	000036b7          	lui	a3,0x3
    3568:	aab68693          	addi	a3,a3,-1365 # 2aab <T7_start+0x3ef>
    356c:	00d70733          	add	a4,a4,a3
    3570:	41f75693          	srai	a3,a4,0x1f
    3574:	02b686b3          	mul	a3,a3,a1
    3578:	02e50533          	mul	a0,a0,a4
    357c:	00a686b3          	add	a3,a3,a0
    3580:	02b70633          	mul	a2,a4,a1
    3584:	02b73733          	mulhu	a4,a4,a1
    3588:	00e68733          	add	a4,a3,a4
    358c:	01071713          	slli	a4,a4,0x10
    3590:	01065693          	srli	a3,a2,0x10
    3594:	00d706b3          	add	a3,a4,a3
    3598:	00020737          	lui	a4,0x20
    359c:	00e686b3          	add	a3,a3,a4
    35a0:	40f68633          	sub	a2,a3,a5
    35a4:	02f68c63          	beq	a3,a5,35dc <T10_start+0x174>
    35a8:	00f7d713          	srli	a4,a5,0xf
    35ac:	01179793          	slli	a5,a5,0x11
    35b0:	01071713          	slli	a4,a4,0x10
    35b4:	0107d793          	srli	a5,a5,0x10
    35b8:	00f707b3          	add	a5,a4,a5
    35bc:	41f7d713          	srai	a4,a5,0x1f
    35c0:	0107d593          	srli	a1,a5,0x10
    35c4:	01071713          	slli	a4,a4,0x10
    35c8:	41f65693          	srai	a3,a2,0x1f
    35cc:	01079513          	slli	a0,a5,0x10
    35d0:	00e585b3          	add	a1,a1,a4
    35d4:	1b5080ef          	jal	bf88 <__divdi3>
    35d8:	00050613          	mv	a2,a0
    35dc:	000107b7          	lui	a5,0x10
    35e0:	00f606b3          	add	a3,a2,a5
    35e4:	4c0b4c63          	bltz	s6,3abc <T10_end+0x6c>
    35e8:	410b5b13          	srai	s6,s6,0x10
    35ec:	000107b7          	lui	a5,0x10
    35f0:	016797b3          	sll	a5,a5,s6
    35f4:	41f7d713          	srai	a4,a5,0x1f
    35f8:	41f6d613          	srai	a2,a3,0x1f
    35fc:	02d70733          	mul	a4,a4,a3
    3600:	02f60633          	mul	a2,a2,a5
    3604:	00c70733          	add	a4,a4,a2
    3608:	02d78633          	mul	a2,a5,a3
    360c:	02d7b7b3          	mulhu	a5,a5,a3
    3610:	00f70733          	add	a4,a4,a5
    3614:	01071713          	slli	a4,a4,0x10
    3618:	01065793          	srli	a5,a2,0x10
    361c:	00f70733          	add	a4,a4,a5
    3620:	0ae12a23          	sw	a4,180(sp)
    3624:	0004ac03          	lw	s8,0(s1)
    3628:	4a0c4c63          	bltz	s8,3ae0 <T10_end+0x90>
    362c:	4a0c0663          	beqz	s8,3ad8 <T10_end+0x88>
    3630:	000207b7          	lui	a5,0x20
    3634:	4987dc63          	bge	a5,s8,3acc <T10_end+0x7c>
    3638:	000c0693          	mv	a3,s8
    363c:	00000b13          	li	s6,0
    3640:	4016d693          	srai	a3,a3,0x1
    3644:	001b0b13          	addi	s6,s6,1
    3648:	fed7cce3          	blt	a5,a3,3640 <T10_start+0x1d8>
    364c:	ffff0bb7          	lui	s7,0xffff0
    3650:	01768bb3          	add	s7,a3,s7
    3654:	41fbd793          	srai	a5,s7,0x1f
    3658:	010bd593          	srli	a1,s7,0x10
    365c:	01079793          	slli	a5,a5,0x10
    3660:	00010737          	lui	a4,0x10
    3664:	00e68633          	add	a2,a3,a4
    3668:	41f65693          	srai	a3,a2,0x1f
    366c:	010b9513          	slli	a0,s7,0x10
    3670:	00f585b3          	add	a1,a1,a5
    3674:	115080ef          	jal	bf88 <__divdi3>
    3678:	41f55593          	srai	a1,a0,0x1f
    367c:	02a587b3          	mul	a5,a1,a0
    3680:	02a50733          	mul	a4,a0,a0
    3684:	02a536b3          	mulhu	a3,a0,a0
    3688:	20d7a7b3          	sh1add	a5,a5,a3
    368c:	01079793          	slli	a5,a5,0x10
    3690:	01075713          	srli	a4,a4,0x10
    3694:	00e78733          	add	a4,a5,a4
    3698:	41f75313          	srai	t1,a4,0x1f
    369c:	02e306b3          	mul	a3,t1,a4
    36a0:	02e707b3          	mul	a5,a4,a4
    36a4:	02e73633          	mulhu	a2,a4,a4
    36a8:	20c6a6b3          	sh1add	a3,a3,a2
    36ac:	01069693          	slli	a3,a3,0x10
    36b0:	0107d793          	srli	a5,a5,0x10
    36b4:	00f687b3          	add	a5,a3,a5
    36b8:	41f7d813          	srai	a6,a5,0x1f
    36bc:	010b1b13          	slli	s6,s6,0x10
    36c0:	41fb5613          	srai	a2,s6,0x1f
    36c4:	0000b8b7          	lui	a7,0xb
    36c8:	17288893          	addi	a7,a7,370 # b172 <__divdf3+0x6c2>
    36cc:	03160633          	mul	a2,a2,a7
    36d0:	031b06b3          	mul	a3,s6,a7
    36d4:	031b3b33          	mulhu	s6,s6,a7
    36d8:	01660633          	add	a2,a2,s6
    36dc:	01061613          	slli	a2,a2,0x10
    36e0:	0106d693          	srli	a3,a3,0x10
    36e4:	00d606b3          	add	a3,a2,a3
    36e8:	00db86b3          	add	a3,s7,a3
    36ec:	000028b7          	lui	a7,0x2
    36f0:	5e288893          	addi	a7,a7,1506 # 25e2 <T6_start+0x392>
    36f4:	03180e33          	mul	t3,a6,a7
    36f8:	03178633          	mul	a2,a5,a7
    36fc:	0317b8b3          	mulhu	a7,a5,a7
    3700:	011e08b3          	add	a7,t3,a7
    3704:	01089893          	slli	a7,a7,0x10
    3708:	01065613          	srli	a2,a2,0x10
    370c:	00c88633          	add	a2,a7,a2
    3710:	000038b7          	lui	a7,0x3
    3714:	e8d88893          	addi	a7,a7,-371 # 2e8d <T9_start+0x2c9>
    3718:	01160633          	add	a2,a2,a7
    371c:	41f65e13          	srai	t3,a2,0x1f
    3720:	02fe0e33          	mul	t3,t3,a5
    3724:	02c808b3          	mul	a7,a6,a2
    3728:	011e0e33          	add	t3,t3,a7
    372c:	02f608b3          	mul	a7,a2,a5
    3730:	02f63633          	mulhu	a2,a2,a5
    3734:	00ce0633          	add	a2,t3,a2
    3738:	01061613          	slli	a2,a2,0x10
    373c:	0108d893          	srli	a7,a7,0x10
    3740:	011608b3          	add	a7,a2,a7
    3744:	00005637          	lui	a2,0x5
    3748:	92560613          	addi	a2,a2,-1755 # 4925 <T12_start+0x765>
    374c:	00c888b3          	add	a7,a7,a2
    3750:	41f8de13          	srai	t3,a7,0x1f
    3754:	02fe0e33          	mul	t3,t3,a5
    3758:	03180633          	mul	a2,a6,a7
    375c:	00ce0e33          	add	t3,t3,a2
    3760:	02f88633          	mul	a2,a7,a5
    3764:	02f8b8b3          	mulhu	a7,a7,a5
    3768:	011e08b3          	add	a7,t3,a7
    376c:	01089893          	slli	a7,a7,0x10
    3770:	01065613          	srli	a2,a2,0x10
    3774:	00c88633          	add	a2,a7,a2
    3778:	0000b8b7          	lui	a7,0xb
    377c:	aab88893          	addi	a7,a7,-1365 # aaab <__adddf3+0x747>
    3780:	01160633          	add	a2,a2,a7
    3784:	41f65893          	srai	a7,a2,0x1f
    3788:	02e888b3          	mul	a7,a7,a4
    378c:	02c30333          	mul	t1,t1,a2
    3790:	00688333          	add	t1,a7,t1
    3794:	02e608b3          	mul	a7,a2,a4
    3798:	02e63633          	mulhu	a2,a2,a4
    379c:	00c30733          	add	a4,t1,a2
    37a0:	01071713          	slli	a4,a4,0x10
    37a4:	0108d893          	srli	a7,a7,0x10
    37a8:	011708b3          	add	a7,a4,a7
    37ac:	00002737          	lui	a4,0x2
    37b0:	73470713          	addi	a4,a4,1844 # 2734 <T7_start+0x78>
    37b4:	02e80333          	mul	t1,a6,a4
    37b8:	02e78633          	mul	a2,a5,a4
    37bc:	02e7b733          	mulhu	a4,a5,a4
    37c0:	00e30733          	add	a4,t1,a4
    37c4:	01071713          	slli	a4,a4,0x10
    37c8:	01065613          	srli	a2,a2,0x10
    37cc:	00c70633          	add	a2,a4,a2
    37d0:	00004737          	lui	a4,0x4
    37d4:	8e470713          	addi	a4,a4,-1820 # 38e4 <T10_start+0x47c>
    37d8:	00e60633          	add	a2,a2,a4
    37dc:	41f65313          	srai	t1,a2,0x1f
    37e0:	02f30333          	mul	t1,t1,a5
    37e4:	02c80733          	mul	a4,a6,a2
    37e8:	00e30333          	add	t1,t1,a4
    37ec:	02f60733          	mul	a4,a2,a5
    37f0:	02f63633          	mulhu	a2,a2,a5
    37f4:	00c30633          	add	a2,t1,a2
    37f8:	01061613          	slli	a2,a2,0x10
    37fc:	01075713          	srli	a4,a4,0x10
    3800:	00e60733          	add	a4,a2,a4
    3804:	00006637          	lui	a2,0x6
    3808:	66660613          	addi	a2,a2,1638 # 6666 <T18_end+0x6>
    380c:	00c70733          	add	a4,a4,a2
    3810:	41f75613          	srai	a2,a4,0x1f
    3814:	02f60633          	mul	a2,a2,a5
    3818:	02e80833          	mul	a6,a6,a4
    381c:	01060633          	add	a2,a2,a6
    3820:	02f70833          	mul	a6,a4,a5
    3824:	02f73733          	mulhu	a4,a4,a5
    3828:	00e607b3          	add	a5,a2,a4
    382c:	01079793          	slli	a5,a5,0x10
    3830:	01085713          	srli	a4,a6,0x10
    3834:	00e78733          	add	a4,a5,a4
    3838:	00e888b3          	add	a7,a7,a4
    383c:	411b8bb3          	sub	s7,s7,a7
    3840:	41fbd793          	srai	a5,s7,0x1f
    3844:	02a787b3          	mul	a5,a5,a0
    3848:	037585b3          	mul	a1,a1,s7
    384c:	00b787b3          	add	a5,a5,a1
    3850:	02ab8733          	mul	a4,s7,a0
    3854:	02abbbb3          	mulhu	s7,s7,a0
    3858:	017787b3          	add	a5,a5,s7
    385c:	01079793          	slli	a5,a5,0x10
    3860:	01075713          	srli	a4,a4,0x10
    3864:	00e78733          	add	a4,a5,a4
    3868:	40e686b3          	sub	a3,a3,a4
    386c:	0084a703          	lw	a4,8(s1)
    3870:	41f75793          	srai	a5,a4,0x1f
    3874:	41f6d613          	srai	a2,a3,0x1f
    3878:	02d787b3          	mul	a5,a5,a3
    387c:	02e60633          	mul	a2,a2,a4
    3880:	00c787b3          	add	a5,a5,a2
    3884:	02d70633          	mul	a2,a4,a3
    3888:	02d73733          	mulhu	a4,a4,a3
    388c:	00e787b3          	add	a5,a5,a4
    3890:	01079793          	slli	a5,a5,0x10
    3894:	01065713          	srli	a4,a2,0x10
    3898:	00e787b3          	add	a5,a5,a4
    389c:	24078263          	beqz	a5,3ae0 <T10_end+0x90>
    38a0:	40f006b3          	neg	a3,a5
    38a4:	0ad7e6b3          	max	a3,a5,a3
    38a8:	41f6d713          	srai	a4,a3,0x1f
    38ac:	00017637          	lui	a2,0x17
    38b0:	15460613          	addi	a2,a2,340 # 17154 <heap.cpp.6b15d6f6+0x19a4>
    38b4:	02c70733          	mul	a4,a4,a2
    38b8:	02c68b33          	mul	s6,a3,a2
    38bc:	02c6b6b3          	mulhu	a3,a3,a2
    38c0:	00d70733          	add	a4,a4,a3
    38c4:	01071713          	slli	a4,a4,0x10
    38c8:	010b5b13          	srli	s6,s6,0x10
    38cc:	01670b33          	add	s6,a4,s6
    38d0:	00008737          	lui	a4,0x8
    38d4:	00eb0b33          	add	s6,s6,a4
    38d8:	ffff0737          	lui	a4,0xffff0
    38dc:	00eb7b33          	and	s6,s6,a4
    38e0:	2007c463          	bltz	a5,3ae8 <T10_end+0x98>
    38e4:	41fb5713          	srai	a4,s6,0x1f
    38e8:	0000b6b7          	lui	a3,0xb
    38ec:	17268693          	addi	a3,a3,370 # b172 <__divdf3+0x6c2>
    38f0:	02d70733          	mul	a4,a4,a3
    38f4:	02db0633          	mul	a2,s6,a3
    38f8:	02db36b3          	mulhu	a3,s6,a3
    38fc:	00d70733          	add	a4,a4,a3
    3900:	01071713          	slli	a4,a4,0x10
    3904:	01065693          	srli	a3,a2,0x10
    3908:	00d706b3          	add	a3,a4,a3
    390c:	40d787b3          	sub	a5,a5,a3
    3910:	41f7d713          	srai	a4,a5,0x1f
    3914:	02f70733          	mul	a4,a4,a5
    3918:	02f78633          	mul	a2,a5,a5
    391c:	02f7b6b3          	mulhu	a3,a5,a5
    3920:	20d72733          	sh1add	a4,a4,a3
    3924:	01071713          	slli	a4,a4,0x10
    3928:	01065613          	srli	a2,a2,0x10
    392c:	00c70633          	add	a2,a4,a2
    3930:	41f65513          	srai	a0,a2,0x1f
    3934:	01e65713          	srli	a4,a2,0x1e
    3938:	20e54733          	sh2add	a4,a0,a4
    393c:	00261693          	slli	a3,a2,0x2
    3940:	01071713          	slli	a4,a4,0x10
    3944:	0106d693          	srli	a3,a3,0x10
    3948:	00d706b3          	add	a3,a4,a3
    394c:	f4a68693          	addi	a3,a3,-182
    3950:	41f6d593          	srai	a1,a3,0x1f
    3954:	02c585b3          	mul	a1,a1,a2
    3958:	02d50733          	mul	a4,a0,a3
    395c:	00e585b3          	add	a1,a1,a4
    3960:	02c68733          	mul	a4,a3,a2
    3964:	02c6b6b3          	mulhu	a3,a3,a2
    3968:	00d586b3          	add	a3,a1,a3
    396c:	01069693          	slli	a3,a3,0x10
    3970:	01075713          	srli	a4,a4,0x10
    3974:	00e68733          	add	a4,a3,a4
    3978:	000036b7          	lui	a3,0x3
    397c:	aab68693          	addi	a3,a3,-1365 # 2aab <T7_start+0x3ef>
    3980:	00d70733          	add	a4,a4,a3
    3984:	41f75693          	srai	a3,a4,0x1f
    3988:	02c686b3          	mul	a3,a3,a2
    398c:	02e50533          	mul	a0,a0,a4
    3990:	00a686b3          	add	a3,a3,a0
    3994:	02c705b3          	mul	a1,a4,a2
    3998:	02c73733          	mulhu	a4,a4,a2
    399c:	00e68733          	add	a4,a3,a4
    39a0:	01071713          	slli	a4,a4,0x10
    39a4:	0105d693          	srli	a3,a1,0x10
    39a8:	00d706b3          	add	a3,a4,a3
    39ac:	00020737          	lui	a4,0x20
    39b0:	00e686b3          	add	a3,a3,a4
    39b4:	40f68633          	sub	a2,a3,a5
    39b8:	02f68c63          	beq	a3,a5,39f0 <T10_start+0x588>
    39bc:	00f7d713          	srli	a4,a5,0xf
    39c0:	01179793          	slli	a5,a5,0x11
    39c4:	01071713          	slli	a4,a4,0x10
    39c8:	0107d793          	srli	a5,a5,0x10
    39cc:	00f707b3          	add	a5,a4,a5
    39d0:	41f7d713          	srai	a4,a5,0x1f
    39d4:	0107d593          	srli	a1,a5,0x10
    39d8:	01071713          	slli	a4,a4,0x10
    39dc:	41f65693          	srai	a3,a2,0x1f
    39e0:	01079513          	slli	a0,a5,0x10
    39e4:	00e585b3          	add	a1,a1,a4
    39e8:	5a0080ef          	jal	bf88 <__divdi3>
    39ec:	00050613          	mv	a2,a0
    39f0:	000107b7          	lui	a5,0x10
    39f4:	00f606b3          	add	a3,a2,a5
    39f8:	0e0b4c63          	bltz	s6,3af0 <T10_end+0xa0>
    39fc:	410b5b13          	srai	s6,s6,0x10
    3a00:	00010737          	lui	a4,0x10
    3a04:	01671733          	sll	a4,a4,s6
    3a08:	41f75793          	srai	a5,a4,0x1f
    3a0c:	41f6d613          	srai	a2,a3,0x1f
    3a10:	02d787b3          	mul	a5,a5,a3
    3a14:	02e60633          	mul	a2,a2,a4
    3a18:	00c787b3          	add	a5,a5,a2
    3a1c:	02d70633          	mul	a2,a4,a3
    3a20:	02d73733          	mulhu	a4,a4,a3
    3a24:	00e787b3          	add	a5,a5,a4
    3a28:	01079793          	slli	a5,a5,0x10
    3a2c:	01065713          	srli	a4,a2,0x10
    3a30:	00e787b3          	add	a5,a5,a4
    3a34:	00fc07b3          	add	a5,s8,a5
    3a38:	0044a703          	lw	a4,4(s1)
    3a3c:	00e787b3          	add	a5,a5,a4
    3a40:	0af12c23          	sw	a5,184(sp)
    3a44:	00092783          	lw	a5,0(s2)
    3a48:	0ba7e7b3          	max	a5,a5,s10
    3a4c:	0af12e23          	sw	a5,188(sp)

00003a50 <T10_end>:
    3a50:	b00027f3          	csrr	a5,mcycle
    3a54:	41b787b3          	sub	a5,a5,s11
    3a58:	02fa2423          	sw	a5,40(s4)
    3a5c:	0b012683          	lw	a3,176(sp)
    3a60:	0b412703          	lw	a4,180(sp)
    3a64:	00100793          	li	a5,1
    3a68:	00d75663          	bge	a4,a3,3a74 <T10_end+0x24>
    3a6c:	00068713          	mv	a4,a3
    3a70:	00000793          	li	a5,0
    3a74:	0b812683          	lw	a3,184(sp)
    3a78:	08e6d663          	bge	a3,a4,3b04 <T10_end+0xb4>
    3a7c:	00070693          	mv	a3,a4
    3a80:	0bc12703          	lw	a4,188(sp)
    3a84:	00d74463          	blt	a4,a3,3a8c <T10_end+0x3c>
    3a88:	00300793          	li	a5,3
    3a8c:	00020737          	lui	a4,0x20
    3a90:	000206b7          	lui	a3,0x20
    3a94:	0dc68693          	addi	a3,a3,220 # 200dc <next.12>
    3a98:	20d7c7b3          	sh2add	a5,a5,a3
    3a9c:	0007a783          	lw	a5,0(a5) # 10000 <i2c.c.57379e11+0x66b>
    3aa0:	14470713          	addi	a4,a4,324 # 20144 <jump_table.23>
    3aa4:	20e7c7b3          	sh2add	a5,a5,a4
    3aa8:	0007a783          	lw	a5,0(a5)
    3aac:	16012d83          	lw	s11,352(sp)
    3ab0:	8f0fd06f          	j	ba0 <inferenceTPG+0x50>
    3ab4:	41600b33          	neg	s6,s6
    3ab8:	a19ff06f          	j	34d0 <T10_start+0x68>
    3abc:	41600733          	neg	a4,s6
    3ac0:	41075713          	srai	a4,a4,0x10
    3ac4:	40e7d7b3          	sra	a5,a5,a4
    3ac8:	b2dff06f          	j	35f4 <T10_start+0x18c>
    3acc:	000c0693          	mv	a3,s8
    3ad0:	00000b13          	li	s6,0
    3ad4:	b79ff06f          	j	364c <T10_start+0x1e4>
    3ad8:	fff00693          	li	a3,-1
    3adc:	d91ff06f          	j	386c <T10_start+0x404>
    3ae0:	000107b7          	lui	a5,0x10
    3ae4:	f51ff06f          	j	3a34 <T10_start+0x5cc>
    3ae8:	41600b33          	neg	s6,s6
    3aec:	df9ff06f          	j	38e4 <T10_start+0x47c>
    3af0:	416007b3          	neg	a5,s6
    3af4:	4107d793          	srai	a5,a5,0x10
    3af8:	00010737          	lui	a4,0x10
    3afc:	40f75733          	sra	a4,a4,a5
    3b00:	f09ff06f          	j	3a08 <T10_start+0x5a0>
    3b04:	00200793          	li	a5,2
    3b08:	f79ff06f          	j	3a80 <T10_end+0x30>
    3b0c:	17b12023          	sw	s11,352(sp)

00003b10 <T11_start>:
    3b10:	b00027f3          	csrr	a5,mcycle
    3b14:	00078d93          	mv	s11,a5
    3b18:	0049a703          	lw	a4,4(s3)
    3b1c:	00492783          	lw	a5,4(s2)
    3b20:	0ae7e7b3          	max	a5,a5,a4
    3b24:	0cf12023          	sw	a5,192(sp)
    3b28:	00092783          	lw	a5,0(s2)
    3b2c:	0ae7e7b3          	max	a5,a5,a4
    3b30:	0cf12223          	sw	a5,196(sp)
    3b34:	00c92603          	lw	a2,12(s2)
    3b38:	000107b7          	lui	a5,0x10
    3b3c:	18060c63          	beqz	a2,3cd4 <T11_start+0x1c4>
    3b40:	40c006b3          	neg	a3,a2
    3b44:	0ad666b3          	max	a3,a2,a3
    3b48:	41f6d713          	srai	a4,a3,0x1f
    3b4c:	000177b7          	lui	a5,0x17
    3b50:	15478793          	addi	a5,a5,340 # 17154 <heap.cpp.6b15d6f6+0x19a4>
    3b54:	02f70733          	mul	a4,a4,a5
    3b58:	02f68b33          	mul	s6,a3,a5
    3b5c:	02f6b6b3          	mulhu	a3,a3,a5
    3b60:	00d70733          	add	a4,a4,a3
    3b64:	01071713          	slli	a4,a4,0x10
    3b68:	010b5b13          	srli	s6,s6,0x10
    3b6c:	01670b33          	add	s6,a4,s6
    3b70:	000087b7          	lui	a5,0x8
    3b74:	00fb0b33          	add	s6,s6,a5
    3b78:	ffff07b7          	lui	a5,0xffff0
    3b7c:	00fb7b33          	and	s6,s6,a5
    3b80:	5e064263          	bltz	a2,4164 <T11_end+0x64>
    3b84:	41fb5713          	srai	a4,s6,0x1f
    3b88:	0000b6b7          	lui	a3,0xb
    3b8c:	17268693          	addi	a3,a3,370 # b172 <__divdf3+0x6c2>
    3b90:	02d70733          	mul	a4,a4,a3
    3b94:	02db07b3          	mul	a5,s6,a3
    3b98:	02db36b3          	mulhu	a3,s6,a3
    3b9c:	00d70733          	add	a4,a4,a3
    3ba0:	01071713          	slli	a4,a4,0x10
    3ba4:	0107d793          	srli	a5,a5,0x10
    3ba8:	00f707b3          	add	a5,a4,a5
    3bac:	40f607b3          	sub	a5,a2,a5
    3bb0:	41f7d713          	srai	a4,a5,0x1f
    3bb4:	02f70733          	mul	a4,a4,a5
    3bb8:	02f785b3          	mul	a1,a5,a5
    3bbc:	02f7b6b3          	mulhu	a3,a5,a5
    3bc0:	20d72733          	sh1add	a4,a4,a3
    3bc4:	01071713          	slli	a4,a4,0x10
    3bc8:	0105d593          	srli	a1,a1,0x10
    3bcc:	00b705b3          	add	a1,a4,a1
    3bd0:	41f5d513          	srai	a0,a1,0x1f
    3bd4:	01e5d713          	srli	a4,a1,0x1e
    3bd8:	20e54733          	sh2add	a4,a0,a4
    3bdc:	00259693          	slli	a3,a1,0x2
    3be0:	01071713          	slli	a4,a4,0x10
    3be4:	0106d693          	srli	a3,a3,0x10
    3be8:	00d706b3          	add	a3,a4,a3
    3bec:	f4a68693          	addi	a3,a3,-182
    3bf0:	41f6d613          	srai	a2,a3,0x1f
    3bf4:	02b60633          	mul	a2,a2,a1
    3bf8:	02d50733          	mul	a4,a0,a3
    3bfc:	00e60633          	add	a2,a2,a4
    3c00:	02b68733          	mul	a4,a3,a1
    3c04:	02b6b6b3          	mulhu	a3,a3,a1
    3c08:	00d606b3          	add	a3,a2,a3
    3c0c:	01069693          	slli	a3,a3,0x10
    3c10:	01075713          	srli	a4,a4,0x10
    3c14:	00e68733          	add	a4,a3,a4
    3c18:	000036b7          	lui	a3,0x3
    3c1c:	aab68693          	addi	a3,a3,-1365 # 2aab <T7_start+0x3ef>
    3c20:	00d70733          	add	a4,a4,a3
    3c24:	41f75693          	srai	a3,a4,0x1f
    3c28:	02b686b3          	mul	a3,a3,a1
    3c2c:	02e50533          	mul	a0,a0,a4
    3c30:	00a686b3          	add	a3,a3,a0
    3c34:	02b70633          	mul	a2,a4,a1
    3c38:	02b73733          	mulhu	a4,a4,a1
    3c3c:	00e68733          	add	a4,a3,a4
    3c40:	01071713          	slli	a4,a4,0x10
    3c44:	01065693          	srli	a3,a2,0x10
    3c48:	00d706b3          	add	a3,a4,a3
    3c4c:	00020737          	lui	a4,0x20
    3c50:	00e686b3          	add	a3,a3,a4
    3c54:	40f68633          	sub	a2,a3,a5
    3c58:	02f68c63          	beq	a3,a5,3c90 <T11_start+0x180>
    3c5c:	00f7d713          	srli	a4,a5,0xf
    3c60:	01179793          	slli	a5,a5,0x11
    3c64:	01071713          	slli	a4,a4,0x10
    3c68:	0107d793          	srli	a5,a5,0x10
    3c6c:	00f707b3          	add	a5,a4,a5
    3c70:	41f7d713          	srai	a4,a5,0x1f
    3c74:	0107d593          	srli	a1,a5,0x10
    3c78:	01071713          	slli	a4,a4,0x10
    3c7c:	41f65693          	srai	a3,a2,0x1f
    3c80:	01079513          	slli	a0,a5,0x10
    3c84:	00e585b3          	add	a1,a1,a4
    3c88:	300080ef          	jal	bf88 <__divdi3>
    3c8c:	00050613          	mv	a2,a0
    3c90:	000107b7          	lui	a5,0x10
    3c94:	00f606b3          	add	a3,a2,a5
    3c98:	4c0b4a63          	bltz	s6,416c <T11_end+0x6c>
    3c9c:	410b5b13          	srai	s6,s6,0x10
    3ca0:	00010737          	lui	a4,0x10
    3ca4:	01671733          	sll	a4,a4,s6
    3ca8:	41f75793          	srai	a5,a4,0x1f
    3cac:	41f6d613          	srai	a2,a3,0x1f
    3cb0:	02d787b3          	mul	a5,a5,a3
    3cb4:	02e60633          	mul	a2,a2,a4
    3cb8:	00c787b3          	add	a5,a5,a2
    3cbc:	02d70633          	mul	a2,a4,a3
    3cc0:	02d73733          	mulhu	a4,a4,a3
    3cc4:	00e787b3          	add	a5,a5,a4
    3cc8:	01079793          	slli	a5,a5,0x10
    3ccc:	01065713          	srli	a4,a2,0x10
    3cd0:	00e787b3          	add	a5,a5,a4
    3cd4:	0084ac03          	lw	s8,8(s1)
    3cd8:	00fc07b3          	add	a5,s8,a5
    3cdc:	0cf12423          	sw	a5,200(sp)
    3ce0:	0004a783          	lw	a5,0(s1)
    3ce4:	00078d13          	mv	s10,a5
    3ce8:	4a07c663          	bltz	a5,4194 <T11_end+0x94>
    3cec:	4a078063          	beqz	a5,418c <T11_end+0x8c>
    3cf0:	000207b7          	lui	a5,0x20
    3cf4:	49a7d663          	bge	a5,s10,4180 <T11_end+0x80>
    3cf8:	000d0693          	mv	a3,s10
    3cfc:	00000b13          	li	s6,0
    3d00:	4016d693          	srai	a3,a3,0x1
    3d04:	001b0b13          	addi	s6,s6,1
    3d08:	fed7cce3          	blt	a5,a3,3d00 <T11_start+0x1f0>
    3d0c:	ffff0bb7          	lui	s7,0xffff0
    3d10:	01768bb3          	add	s7,a3,s7
    3d14:	41fbd793          	srai	a5,s7,0x1f
    3d18:	010bd593          	srli	a1,s7,0x10
    3d1c:	01079793          	slli	a5,a5,0x10
    3d20:	00010737          	lui	a4,0x10
    3d24:	00e68633          	add	a2,a3,a4
    3d28:	41f65693          	srai	a3,a2,0x1f
    3d2c:	010b9513          	slli	a0,s7,0x10
    3d30:	00f585b3          	add	a1,a1,a5
    3d34:	254080ef          	jal	bf88 <__divdi3>
    3d38:	41f55593          	srai	a1,a0,0x1f
    3d3c:	02a587b3          	mul	a5,a1,a0
    3d40:	02a506b3          	mul	a3,a0,a0
    3d44:	02a53733          	mulhu	a4,a0,a0
    3d48:	20e7a7b3          	sh1add	a5,a5,a4
    3d4c:	01079793          	slli	a5,a5,0x10
    3d50:	0106d693          	srli	a3,a3,0x10
    3d54:	00d786b3          	add	a3,a5,a3
    3d58:	41f6d313          	srai	t1,a3,0x1f
    3d5c:	02d30733          	mul	a4,t1,a3
    3d60:	02d687b3          	mul	a5,a3,a3
    3d64:	02d6b633          	mulhu	a2,a3,a3
    3d68:	20c72733          	sh1add	a4,a4,a2
    3d6c:	01071713          	slli	a4,a4,0x10
    3d70:	0107d793          	srli	a5,a5,0x10
    3d74:	00f707b3          	add	a5,a4,a5
    3d78:	41f7d813          	srai	a6,a5,0x1f
    3d7c:	010b1b13          	slli	s6,s6,0x10
    3d80:	41fb5613          	srai	a2,s6,0x1f
    3d84:	0000b8b7          	lui	a7,0xb
    3d88:	17288893          	addi	a7,a7,370 # b172 <__divdf3+0x6c2>
    3d8c:	03160633          	mul	a2,a2,a7
    3d90:	031b0733          	mul	a4,s6,a7
    3d94:	031b3b33          	mulhu	s6,s6,a7
    3d98:	01660633          	add	a2,a2,s6
    3d9c:	01061613          	slli	a2,a2,0x10
    3da0:	01075713          	srli	a4,a4,0x10
    3da4:	00e60733          	add	a4,a2,a4
    3da8:	00eb8733          	add	a4,s7,a4
    3dac:	000028b7          	lui	a7,0x2
    3db0:	5e288893          	addi	a7,a7,1506 # 25e2 <T6_start+0x392>
    3db4:	03180e33          	mul	t3,a6,a7
    3db8:	03178633          	mul	a2,a5,a7
    3dbc:	0317b8b3          	mulhu	a7,a5,a7
    3dc0:	011e08b3          	add	a7,t3,a7
    3dc4:	01089893          	slli	a7,a7,0x10
    3dc8:	01065613          	srli	a2,a2,0x10
    3dcc:	00c88633          	add	a2,a7,a2
    3dd0:	000038b7          	lui	a7,0x3
    3dd4:	e8d88893          	addi	a7,a7,-371 # 2e8d <T9_start+0x2c9>
    3dd8:	01160633          	add	a2,a2,a7
    3ddc:	41f65e13          	srai	t3,a2,0x1f
    3de0:	02fe0e33          	mul	t3,t3,a5
    3de4:	02c808b3          	mul	a7,a6,a2
    3de8:	011e0e33          	add	t3,t3,a7
    3dec:	02f608b3          	mul	a7,a2,a5
    3df0:	02f63633          	mulhu	a2,a2,a5
    3df4:	00ce0633          	add	a2,t3,a2
    3df8:	01061613          	slli	a2,a2,0x10
    3dfc:	0108d893          	srli	a7,a7,0x10
    3e00:	011608b3          	add	a7,a2,a7
    3e04:	00005637          	lui	a2,0x5
    3e08:	92560613          	addi	a2,a2,-1755 # 4925 <T12_start+0x765>
    3e0c:	00c888b3          	add	a7,a7,a2
    3e10:	41f8de13          	srai	t3,a7,0x1f
    3e14:	02fe0e33          	mul	t3,t3,a5
    3e18:	03180633          	mul	a2,a6,a7
    3e1c:	00ce0e33          	add	t3,t3,a2
    3e20:	02f88633          	mul	a2,a7,a5
    3e24:	02f8b8b3          	mulhu	a7,a7,a5
    3e28:	011e08b3          	add	a7,t3,a7
    3e2c:	01089893          	slli	a7,a7,0x10
    3e30:	01065613          	srli	a2,a2,0x10
    3e34:	00c88633          	add	a2,a7,a2
    3e38:	0000b8b7          	lui	a7,0xb
    3e3c:	aab88893          	addi	a7,a7,-1365 # aaab <__adddf3+0x747>
    3e40:	01160633          	add	a2,a2,a7
    3e44:	41f65893          	srai	a7,a2,0x1f
    3e48:	02d888b3          	mul	a7,a7,a3
    3e4c:	02c30333          	mul	t1,t1,a2
    3e50:	00688333          	add	t1,a7,t1
    3e54:	02d608b3          	mul	a7,a2,a3
    3e58:	02d63633          	mulhu	a2,a2,a3
    3e5c:	00c306b3          	add	a3,t1,a2
    3e60:	01069693          	slli	a3,a3,0x10
    3e64:	0108d893          	srli	a7,a7,0x10
    3e68:	011688b3          	add	a7,a3,a7
    3e6c:	000026b7          	lui	a3,0x2
    3e70:	73468693          	addi	a3,a3,1844 # 2734 <T7_start+0x78>
    3e74:	02d80333          	mul	t1,a6,a3
    3e78:	02d78633          	mul	a2,a5,a3
    3e7c:	02d7b6b3          	mulhu	a3,a5,a3
    3e80:	00d306b3          	add	a3,t1,a3
    3e84:	01069693          	slli	a3,a3,0x10
    3e88:	01065613          	srli	a2,a2,0x10
    3e8c:	00c68633          	add	a2,a3,a2
    3e90:	000046b7          	lui	a3,0x4
    3e94:	8e468693          	addi	a3,a3,-1820 # 38e4 <T10_start+0x47c>
    3e98:	00d60633          	add	a2,a2,a3
    3e9c:	41f65313          	srai	t1,a2,0x1f
    3ea0:	02f30333          	mul	t1,t1,a5
    3ea4:	02c806b3          	mul	a3,a6,a2
    3ea8:	00d30333          	add	t1,t1,a3
    3eac:	02f606b3          	mul	a3,a2,a5
    3eb0:	02f63633          	mulhu	a2,a2,a5
    3eb4:	00c30633          	add	a2,t1,a2
    3eb8:	01061613          	slli	a2,a2,0x10
    3ebc:	0106d693          	srli	a3,a3,0x10
    3ec0:	00d606b3          	add	a3,a2,a3
    3ec4:	00006637          	lui	a2,0x6
    3ec8:	66660613          	addi	a2,a2,1638 # 6666 <T18_end+0x6>
    3ecc:	00c686b3          	add	a3,a3,a2
    3ed0:	41f6d613          	srai	a2,a3,0x1f
    3ed4:	02f60633          	mul	a2,a2,a5
    3ed8:	02d80833          	mul	a6,a6,a3
    3edc:	01060633          	add	a2,a2,a6
    3ee0:	02f68833          	mul	a6,a3,a5
    3ee4:	02f6b6b3          	mulhu	a3,a3,a5
    3ee8:	00d607b3          	add	a5,a2,a3
    3eec:	01079793          	slli	a5,a5,0x10
    3ef0:	01085693          	srli	a3,a6,0x10
    3ef4:	00d786b3          	add	a3,a5,a3
    3ef8:	00d888b3          	add	a7,a7,a3
    3efc:	411b8bb3          	sub	s7,s7,a7
    3f00:	41fbd793          	srai	a5,s7,0x1f
    3f04:	02a787b3          	mul	a5,a5,a0
    3f08:	037585b3          	mul	a1,a1,s7
    3f0c:	00b787b3          	add	a5,a5,a1
    3f10:	02ab86b3          	mul	a3,s7,a0
    3f14:	02abbbb3          	mulhu	s7,s7,a0
    3f18:	017787b3          	add	a5,a5,s7
    3f1c:	01079793          	slli	a5,a5,0x10
    3f20:	0106d693          	srli	a3,a3,0x10
    3f24:	00d786b3          	add	a3,a5,a3
    3f28:	40d70733          	sub	a4,a4,a3
    3f2c:	41f75793          	srai	a5,a4,0x1f
    3f30:	41fc5693          	srai	a3,s8,0x1f
    3f34:	038787b3          	mul	a5,a5,s8
    3f38:	02e686b3          	mul	a3,a3,a4
    3f3c:	00d787b3          	add	a5,a5,a3
    3f40:	038706b3          	mul	a3,a4,s8
    3f44:	03873733          	mulhu	a4,a4,s8
    3f48:	00e787b3          	add	a5,a5,a4
    3f4c:	01079793          	slli	a5,a5,0x10
    3f50:	0106d713          	srli	a4,a3,0x10
    3f54:	00e787b3          	add	a5,a5,a4
    3f58:	22078e63          	beqz	a5,4194 <T11_end+0x94>
    3f5c:	40f006b3          	neg	a3,a5
    3f60:	0ad7e6b3          	max	a3,a5,a3
    3f64:	41f6d713          	srai	a4,a3,0x1f
    3f68:	00017637          	lui	a2,0x17
    3f6c:	15460613          	addi	a2,a2,340 # 17154 <heap.cpp.6b15d6f6+0x19a4>
    3f70:	02c70733          	mul	a4,a4,a2
    3f74:	02c68b33          	mul	s6,a3,a2
    3f78:	02c6b6b3          	mulhu	a3,a3,a2
    3f7c:	00d70733          	add	a4,a4,a3
    3f80:	01071713          	slli	a4,a4,0x10
    3f84:	010b5b13          	srli	s6,s6,0x10
    3f88:	01670b33          	add	s6,a4,s6
    3f8c:	00008737          	lui	a4,0x8
    3f90:	00eb0b33          	add	s6,s6,a4
    3f94:	ffff0737          	lui	a4,0xffff0
    3f98:	00eb7b33          	and	s6,s6,a4
    3f9c:	2007c063          	bltz	a5,419c <T11_end+0x9c>
    3fa0:	41fb5713          	srai	a4,s6,0x1f
    3fa4:	0000b6b7          	lui	a3,0xb
    3fa8:	17268693          	addi	a3,a3,370 # b172 <__divdf3+0x6c2>
    3fac:	02d70733          	mul	a4,a4,a3
    3fb0:	02db0633          	mul	a2,s6,a3
    3fb4:	02db36b3          	mulhu	a3,s6,a3
    3fb8:	00d70733          	add	a4,a4,a3
    3fbc:	01071713          	slli	a4,a4,0x10
    3fc0:	01065693          	srli	a3,a2,0x10
    3fc4:	00d706b3          	add	a3,a4,a3
    3fc8:	40d787b3          	sub	a5,a5,a3
    3fcc:	41f7d713          	srai	a4,a5,0x1f
    3fd0:	02f70733          	mul	a4,a4,a5
    3fd4:	02f785b3          	mul	a1,a5,a5
    3fd8:	02f7b6b3          	mulhu	a3,a5,a5
    3fdc:	20d72733          	sh1add	a4,a4,a3
    3fe0:	01071713          	slli	a4,a4,0x10
    3fe4:	0105d593          	srli	a1,a1,0x10
    3fe8:	00b705b3          	add	a1,a4,a1
    3fec:	41f5d513          	srai	a0,a1,0x1f
    3ff0:	01e5d713          	srli	a4,a1,0x1e
    3ff4:	20e54733          	sh2add	a4,a0,a4
    3ff8:	00259693          	slli	a3,a1,0x2
    3ffc:	01071713          	slli	a4,a4,0x10
    4000:	0106d693          	srli	a3,a3,0x10
    4004:	00d706b3          	add	a3,a4,a3
    4008:	f4a68693          	addi	a3,a3,-182
    400c:	41f6d613          	srai	a2,a3,0x1f
    4010:	02b60633          	mul	a2,a2,a1
    4014:	02d50733          	mul	a4,a0,a3
    4018:	00e60633          	add	a2,a2,a4
    401c:	02b68733          	mul	a4,a3,a1
    4020:	02b6b6b3          	mulhu	a3,a3,a1
    4024:	00d606b3          	add	a3,a2,a3
    4028:	01069693          	slli	a3,a3,0x10
    402c:	01075713          	srli	a4,a4,0x10
    4030:	00e68733          	add	a4,a3,a4
    4034:	000036b7          	lui	a3,0x3
    4038:	aab68693          	addi	a3,a3,-1365 # 2aab <T7_start+0x3ef>
    403c:	00d70733          	add	a4,a4,a3
    4040:	41f75693          	srai	a3,a4,0x1f
    4044:	02b686b3          	mul	a3,a3,a1
    4048:	02e50533          	mul	a0,a0,a4
    404c:	00a686b3          	add	a3,a3,a0
    4050:	02b70633          	mul	a2,a4,a1
    4054:	02b73733          	mulhu	a4,a4,a1
    4058:	00e68733          	add	a4,a3,a4
    405c:	01071713          	slli	a4,a4,0x10
    4060:	01065693          	srli	a3,a2,0x10
    4064:	00d706b3          	add	a3,a4,a3
    4068:	00020737          	lui	a4,0x20
    406c:	00e686b3          	add	a3,a3,a4
    4070:	40f68633          	sub	a2,a3,a5
    4074:	02f68c63          	beq	a3,a5,40ac <__heap_size+0xac>
    4078:	00f7d713          	srli	a4,a5,0xf
    407c:	01179793          	slli	a5,a5,0x11
    4080:	01071713          	slli	a4,a4,0x10
    4084:	0107d793          	srli	a5,a5,0x10
    4088:	00f707b3          	add	a5,a4,a5
    408c:	41f7d713          	srai	a4,a5,0x1f
    4090:	0107d593          	srli	a1,a5,0x10
    4094:	01071713          	slli	a4,a4,0x10
    4098:	41f65693          	srai	a3,a2,0x1f
    409c:	01079513          	slli	a0,a5,0x10
    40a0:	00e585b3          	add	a1,a1,a4
    40a4:	6e5070ef          	jal	bf88 <__divdi3>
    40a8:	00050613          	mv	a2,a0
    40ac:	000107b7          	lui	a5,0x10
    40b0:	00f606b3          	add	a3,a2,a5
    40b4:	0e0b4863          	bltz	s6,41a4 <T11_end+0xa4>
    40b8:	410b5b13          	srai	s6,s6,0x10
    40bc:	00010737          	lui	a4,0x10
    40c0:	01671733          	sll	a4,a4,s6
    40c4:	41f75793          	srai	a5,a4,0x1f
    40c8:	41f6d613          	srai	a2,a3,0x1f
    40cc:	02d787b3          	mul	a5,a5,a3
    40d0:	02e60633          	mul	a2,a2,a4
    40d4:	00c787b3          	add	a5,a5,a2
    40d8:	02d70633          	mul	a2,a4,a3
    40dc:	02d73733          	mulhu	a4,a4,a3
    40e0:	00e787b3          	add	a5,a5,a4
    40e4:	01079793          	slli	a5,a5,0x10
    40e8:	01065713          	srli	a4,a2,0x10
    40ec:	00e787b3          	add	a5,a5,a4
    40f0:	00fd07b3          	add	a5,s10,a5
    40f4:	0044a703          	lw	a4,4(s1)
    40f8:	00e787b3          	add	a5,a5,a4
    40fc:	0cf12623          	sw	a5,204(sp)

00004100 <T11_end>:
    4100:	b00027f3          	csrr	a5,mcycle
    4104:	41b787b3          	sub	a5,a5,s11
    4108:	02fa2623          	sw	a5,44(s4)
    410c:	0c012683          	lw	a3,192(sp)
    4110:	0c412703          	lw	a4,196(sp)
    4114:	00100793          	li	a5,1
    4118:	00d75663          	bge	a4,a3,4124 <T11_end+0x24>
    411c:	00068713          	mv	a4,a3
    4120:	00000793          	li	a5,0
    4124:	0c812683          	lw	a3,200(sp)
    4128:	08e6d863          	bge	a3,a4,41b8 <T11_end+0xb8>
    412c:	00070693          	mv	a3,a4
    4130:	0cc12703          	lw	a4,204(sp)
    4134:	00d74463          	blt	a4,a3,413c <T11_end+0x3c>
    4138:	00300793          	li	a5,3
    413c:	00020737          	lui	a4,0x20
    4140:	000206b7          	lui	a3,0x20
    4144:	0cc68693          	addi	a3,a3,204 # 200cc <next.11>
    4148:	20d7c7b3          	sh2add	a5,a5,a3
    414c:	0007a783          	lw	a5,0(a5) # 10000 <i2c.c.57379e11+0x66b>
    4150:	14470713          	addi	a4,a4,324 # 20144 <jump_table.23>
    4154:	20e7c7b3          	sh2add	a5,a5,a4
    4158:	0007a783          	lw	a5,0(a5)
    415c:	16012d83          	lw	s11,352(sp)
    4160:	a41fc06f          	j	ba0 <inferenceTPG+0x50>
    4164:	41600b33          	neg	s6,s6
    4168:	a1dff06f          	j	3b84 <T11_start+0x74>
    416c:	416007b3          	neg	a5,s6
    4170:	4107d793          	srai	a5,a5,0x10
    4174:	00010737          	lui	a4,0x10
    4178:	40f75733          	sra	a4,a4,a5
    417c:	b2dff06f          	j	3ca8 <T11_start+0x198>
    4180:	000d0693          	mv	a3,s10
    4184:	00000b13          	li	s6,0
    4188:	b85ff06f          	j	3d0c <T11_start+0x1fc>
    418c:	fff00713          	li	a4,-1
    4190:	d9dff06f          	j	3f2c <T11_start+0x41c>
    4194:	000107b7          	lui	a5,0x10
    4198:	f59ff06f          	j	40f0 <__heap_size+0xf0>
    419c:	41600b33          	neg	s6,s6
    41a0:	e01ff06f          	j	3fa0 <T11_start+0x490>
    41a4:	416007b3          	neg	a5,s6
    41a8:	4107d793          	srai	a5,a5,0x10
    41ac:	00010737          	lui	a4,0x10
    41b0:	40f75733          	sra	a4,a4,a5
    41b4:	f11ff06f          	j	40c4 <__heap_size+0xc4>
    41b8:	00200793          	li	a5,2
    41bc:	f75ff06f          	j	4130 <T11_end+0x30>

000041c0 <T12_start>:
    41c0:	b0002b73          	csrr	s6,mcycle
    41c4:	0089a683          	lw	a3,8(s3)
    41c8:	00000793          	li	a5,0
    41cc:	2406c063          	bltz	a3,440c <T12_start+0x24c>
    41d0:	0c0682e3          	beqz	a3,4a94 <T12_end+0x2c>
    41d4:	000207b7          	lui	a5,0x20
    41d8:	0ad7dae3          	bge	a5,a3,4a8c <T12_end+0x24>
    41dc:	00000c13          	li	s8,0
    41e0:	4016d693          	srai	a3,a3,0x1
    41e4:	001c0c13          	addi	s8,s8,1
    41e8:	fed7cce3          	blt	a5,a3,41e0 <T12_start+0x20>
    41ec:	ffff0bb7          	lui	s7,0xffff0
    41f0:	01768bb3          	add	s7,a3,s7
    41f4:	41fbd793          	srai	a5,s7,0x1f
    41f8:	010bd593          	srli	a1,s7,0x10
    41fc:	01079793          	slli	a5,a5,0x10
    4200:	00010737          	lui	a4,0x10
    4204:	00e68633          	add	a2,a3,a4
    4208:	41f65693          	srai	a3,a2,0x1f
    420c:	010b9513          	slli	a0,s7,0x10
    4210:	00f585b3          	add	a1,a1,a5
    4214:	575070ef          	jal	bf88 <__divdi3>
    4218:	41f55593          	srai	a1,a0,0x1f
    421c:	02a587b3          	mul	a5,a1,a0
    4220:	02a506b3          	mul	a3,a0,a0
    4224:	02a53733          	mulhu	a4,a0,a0
    4228:	20e7a7b3          	sh1add	a5,a5,a4
    422c:	01079793          	slli	a5,a5,0x10
    4230:	0106d693          	srli	a3,a3,0x10
    4234:	00d786b3          	add	a3,a5,a3
    4238:	41f6d313          	srai	t1,a3,0x1f
    423c:	02d307b3          	mul	a5,t1,a3
    4240:	02d68733          	mul	a4,a3,a3
    4244:	02d6b633          	mulhu	a2,a3,a3
    4248:	20c7a7b3          	sh1add	a5,a5,a2
    424c:	01079793          	slli	a5,a5,0x10
    4250:	01075713          	srli	a4,a4,0x10
    4254:	00e78733          	add	a4,a5,a4
    4258:	41f75813          	srai	a6,a4,0x1f
    425c:	010c1793          	slli	a5,s8,0x10
    4260:	41f7d613          	srai	a2,a5,0x1f
    4264:	0000be37          	lui	t3,0xb
    4268:	172e0e13          	addi	t3,t3,370 # b172 <__divdf3+0x6c2>
    426c:	03c60633          	mul	a2,a2,t3
    4270:	03c788b3          	mul	a7,a5,t3
    4274:	03c7b7b3          	mulhu	a5,a5,t3
    4278:	00f60633          	add	a2,a2,a5
    427c:	01061613          	slli	a2,a2,0x10
    4280:	0108d793          	srli	a5,a7,0x10
    4284:	00f607b3          	add	a5,a2,a5
    4288:	00fb87b3          	add	a5,s7,a5
    428c:	000028b7          	lui	a7,0x2
    4290:	5e288893          	addi	a7,a7,1506 # 25e2 <T6_start+0x392>
    4294:	03180e33          	mul	t3,a6,a7
    4298:	03170633          	mul	a2,a4,a7
    429c:	031738b3          	mulhu	a7,a4,a7
    42a0:	011e08b3          	add	a7,t3,a7
    42a4:	01089893          	slli	a7,a7,0x10
    42a8:	01065613          	srli	a2,a2,0x10
    42ac:	00c88633          	add	a2,a7,a2
    42b0:	000038b7          	lui	a7,0x3
    42b4:	e8d88893          	addi	a7,a7,-371 # 2e8d <T9_start+0x2c9>
    42b8:	01160633          	add	a2,a2,a7
    42bc:	41f65e13          	srai	t3,a2,0x1f
    42c0:	02ee0e33          	mul	t3,t3,a4
    42c4:	02c808b3          	mul	a7,a6,a2
    42c8:	011e0e33          	add	t3,t3,a7
    42cc:	02e608b3          	mul	a7,a2,a4
    42d0:	02e63633          	mulhu	a2,a2,a4
    42d4:	00ce0633          	add	a2,t3,a2
    42d8:	01061613          	slli	a2,a2,0x10
    42dc:	0108d893          	srli	a7,a7,0x10
    42e0:	011608b3          	add	a7,a2,a7
    42e4:	00005637          	lui	a2,0x5
    42e8:	92560613          	addi	a2,a2,-1755 # 4925 <T12_start+0x765>
    42ec:	00c888b3          	add	a7,a7,a2
    42f0:	41f8de13          	srai	t3,a7,0x1f
    42f4:	02ee0e33          	mul	t3,t3,a4
    42f8:	03180633          	mul	a2,a6,a7
    42fc:	00ce0e33          	add	t3,t3,a2
    4300:	02e88633          	mul	a2,a7,a4
    4304:	02e8b8b3          	mulhu	a7,a7,a4
    4308:	011e08b3          	add	a7,t3,a7
    430c:	01089893          	slli	a7,a7,0x10
    4310:	01065613          	srli	a2,a2,0x10
    4314:	00c88633          	add	a2,a7,a2
    4318:	0000b8b7          	lui	a7,0xb
    431c:	aab88893          	addi	a7,a7,-1365 # aaab <__adddf3+0x747>
    4320:	01160633          	add	a2,a2,a7
    4324:	41f65893          	srai	a7,a2,0x1f
    4328:	02d888b3          	mul	a7,a7,a3
    432c:	02c30333          	mul	t1,t1,a2
    4330:	00688333          	add	t1,a7,t1
    4334:	02d608b3          	mul	a7,a2,a3
    4338:	02d63633          	mulhu	a2,a2,a3
    433c:	00c306b3          	add	a3,t1,a2
    4340:	01069693          	slli	a3,a3,0x10
    4344:	0108d893          	srli	a7,a7,0x10
    4348:	011688b3          	add	a7,a3,a7
    434c:	000026b7          	lui	a3,0x2
    4350:	73468693          	addi	a3,a3,1844 # 2734 <T7_start+0x78>
    4354:	02d80333          	mul	t1,a6,a3
    4358:	02d70633          	mul	a2,a4,a3
    435c:	02d736b3          	mulhu	a3,a4,a3
    4360:	00d306b3          	add	a3,t1,a3
    4364:	01069693          	slli	a3,a3,0x10
    4368:	01065613          	srli	a2,a2,0x10
    436c:	00c68633          	add	a2,a3,a2
    4370:	000046b7          	lui	a3,0x4
    4374:	8e468693          	addi	a3,a3,-1820 # 38e4 <T10_start+0x47c>
    4378:	00d60633          	add	a2,a2,a3
    437c:	41f65313          	srai	t1,a2,0x1f
    4380:	02e30333          	mul	t1,t1,a4
    4384:	02c806b3          	mul	a3,a6,a2
    4388:	00d30333          	add	t1,t1,a3
    438c:	02e606b3          	mul	a3,a2,a4
    4390:	02e63633          	mulhu	a2,a2,a4
    4394:	00c30633          	add	a2,t1,a2
    4398:	01061613          	slli	a2,a2,0x10
    439c:	0106d693          	srli	a3,a3,0x10
    43a0:	00d606b3          	add	a3,a2,a3
    43a4:	00006637          	lui	a2,0x6
    43a8:	66660613          	addi	a2,a2,1638 # 6666 <T18_end+0x6>
    43ac:	00c686b3          	add	a3,a3,a2
    43b0:	41f6d613          	srai	a2,a3,0x1f
    43b4:	02e60633          	mul	a2,a2,a4
    43b8:	02d80833          	mul	a6,a6,a3
    43bc:	01060633          	add	a2,a2,a6
    43c0:	02e68833          	mul	a6,a3,a4
    43c4:	02e6b6b3          	mulhu	a3,a3,a4
    43c8:	00d60733          	add	a4,a2,a3
    43cc:	01071713          	slli	a4,a4,0x10
    43d0:	01085693          	srli	a3,a6,0x10
    43d4:	00d706b3          	add	a3,a4,a3
    43d8:	00d888b3          	add	a7,a7,a3
    43dc:	411b8bb3          	sub	s7,s7,a7
    43e0:	41fbd713          	srai	a4,s7,0x1f
    43e4:	02a70733          	mul	a4,a4,a0
    43e8:	037585b3          	mul	a1,a1,s7
    43ec:	00b70733          	add	a4,a4,a1
    43f0:	02ab86b3          	mul	a3,s7,a0
    43f4:	02abbbb3          	mulhu	s7,s7,a0
    43f8:	01770733          	add	a4,a4,s7
    43fc:	01071713          	slli	a4,a4,0x10
    4400:	0106d693          	srli	a3,a3,0x10
    4404:	00d706b3          	add	a3,a4,a3
    4408:	40d787b3          	sub	a5,a5,a3
    440c:	0044ab83          	lw	s7,4(s1)
    4410:	00fb87b3          	add	a5,s7,a5
    4414:	0ef12823          	sw	a5,240(sp)
    4418:	00092683          	lw	a3,0(s2)
    441c:	517cd5b7          	lui	a1,0x517cd
    4420:	c8358593          	addi	a1,a1,-893 # 517ccc83 <_sp+0x517a1bf3>
    4424:	02b695b3          	mulh	a1,a3,a1
    4428:	4115d593          	srai	a1,a1,0x11
    442c:	41f6d793          	srai	a5,a3,0x1f
    4430:	40f585b3          	sub	a1,a1,a5
    4434:	000657b7          	lui	a5,0x65
    4438:	87e78793          	addi	a5,a5,-1922 # 6487e <_sp+0x397ee>
    443c:	02f587b3          	mul	a5,a1,a5
    4440:	40f685b3          	sub	a1,a3,a5
    4444:	6405cc63          	bltz	a1,4a9c <T12_end+0x34>
    4448:	fffe77b7          	lui	a5,0xfffe7
    444c:	ddf78793          	addi	a5,a5,-545 # fffe6ddf <_sp+0xfffbbd4f>
    4450:	00f587b3          	add	a5,a1,a5
    4454:	00019737          	lui	a4,0x19
    4458:	21e70713          	addi	a4,a4,542 # 1921e <heap.cpp.6b15d6f6+0x3a6e>
    445c:	64f76863          	bltu	a4,a5,4aac <T12_end+0x44>
    4460:	000327b7          	lui	a5,0x32
    4464:	43f78793          	addi	a5,a5,1087 # 3243f <_sp+0x73af>
    4468:	40b785b3          	sub	a1,a5,a1
    446c:	00100513          	li	a0,1
    4470:	00019737          	lui	a4,0x19
    4474:	22070713          	addi	a4,a4,544 # 19220 <heap.cpp.6b15d6f6+0x3a70>
    4478:	40d70733          	sub	a4,a4,a3
    447c:	517cd7b7          	lui	a5,0x517cd
    4480:	c8378793          	addi	a5,a5,-893 # 517ccc83 <_sp+0x517a1bf3>
    4484:	02f717b3          	mulh	a5,a4,a5
    4488:	4117d793          	srai	a5,a5,0x11
    448c:	41f75693          	srai	a3,a4,0x1f
    4490:	40d787b3          	sub	a5,a5,a3
    4494:	000656b7          	lui	a3,0x65
    4498:	87e68693          	addi	a3,a3,-1922 # 6487e <_sp+0x397ee>
    449c:	02d787b3          	mul	a5,a5,a3
    44a0:	40f707b3          	sub	a5,a4,a5
    44a4:	6407cc63          	bltz	a5,4afc <T12_end+0x94>
    44a8:	fffe7737          	lui	a4,0xfffe7
    44ac:	ddf70713          	addi	a4,a4,-545 # fffe6ddf <_sp+0xfffbbd4f>
    44b0:	00e78733          	add	a4,a5,a4
    44b4:	000196b7          	lui	a3,0x19
    44b8:	21e68693          	addi	a3,a3,542 # 1921e <heap.cpp.6b15d6f6+0x3a6e>
    44bc:	64e6e463          	bltu	a3,a4,4b04 <T12_end+0x9c>
    44c0:	00032737          	lui	a4,0x32
    44c4:	43f70713          	addi	a4,a4,1087 # 3243f <_sp+0x73af>
    44c8:	40f707b3          	sub	a5,a4,a5
    44cc:	00100813          	li	a6,1
    44d0:	41f7d893          	srai	a7,a5,0x1f
    44d4:	02f88733          	mul	a4,a7,a5
    44d8:	02f78333          	mul	t1,a5,a5
    44dc:	02f7b6b3          	mulhu	a3,a5,a5
    44e0:	20d72733          	sh1add	a4,a4,a3
    44e4:	01071713          	slli	a4,a4,0x10
    44e8:	01035313          	srli	t1,t1,0x10
    44ec:	00670333          	add	t1,a4,t1
    44f0:	41f35e13          	srai	t3,t1,0x1f
    44f4:	1f300613          	li	a2,499
    44f8:	02ce0733          	mul	a4,t3,a2
    44fc:	02c306b3          	mul	a3,t1,a2
    4500:	02c33633          	mulhu	a2,t1,a2
    4504:	00c70733          	add	a4,a4,a2
    4508:	01071713          	slli	a4,a4,0x10
    450c:	0106d693          	srli	a3,a3,0x10
    4510:	00d706b3          	add	a3,a4,a3
    4514:	ffffd737          	lui	a4,0xffffd
    4518:	57e70713          	addi	a4,a4,1406 # ffffd57e <_sp+0xfffd24ee>
    451c:	00e686b3          	add	a3,a3,a4
    4520:	41f6d613          	srai	a2,a3,0x1f
    4524:	02660633          	mul	a2,a2,t1
    4528:	02de0e33          	mul	t3,t3,a3
    452c:	01c60633          	add	a2,a2,t3
    4530:	02668733          	mul	a4,a3,t1
    4534:	0266b6b3          	mulhu	a3,a3,t1
    4538:	00d606b3          	add	a3,a2,a3
    453c:	01069693          	slli	a3,a3,0x10
    4540:	01075713          	srli	a4,a4,0x10
    4544:	00e68733          	add	a4,a3,a4
    4548:	000106b7          	lui	a3,0x10
    454c:	00d70733          	add	a4,a4,a3
    4550:	41f75693          	srai	a3,a4,0x1f
    4554:	02f686b3          	mul	a3,a3,a5
    4558:	02e888b3          	mul	a7,a7,a4
    455c:	011686b3          	add	a3,a3,a7
    4560:	02f70633          	mul	a2,a4,a5
    4564:	02f73733          	mulhu	a4,a4,a5
    4568:	00e687b3          	add	a5,a3,a4
    456c:	01079793          	slli	a5,a5,0x10
    4570:	01065613          	srli	a2,a2,0x10
    4574:	00c78633          	add	a2,a5,a2
    4578:	02c80633          	mul	a2,a6,a2
    457c:	0c060863          	beqz	a2,464c <T12_start+0x48c>
    4580:	41f5d893          	srai	a7,a1,0x1f
    4584:	02b887b3          	mul	a5,a7,a1
    4588:	02b586b3          	mul	a3,a1,a1
    458c:	02b5b733          	mulhu	a4,a1,a1
    4590:	20e7a7b3          	sh1add	a5,a5,a4
    4594:	01079793          	slli	a5,a5,0x10
    4598:	0106d693          	srli	a3,a3,0x10
    459c:	00d786b3          	add	a3,a5,a3
    45a0:	41f6d313          	srai	t1,a3,0x1f
    45a4:	1f300813          	li	a6,499
    45a8:	030307b3          	mul	a5,t1,a6
    45ac:	03068733          	mul	a4,a3,a6
    45b0:	0306b833          	mulhu	a6,a3,a6
    45b4:	010787b3          	add	a5,a5,a6
    45b8:	01079793          	slli	a5,a5,0x10
    45bc:	01075713          	srli	a4,a4,0x10
    45c0:	00e78733          	add	a4,a5,a4
    45c4:	ffffd7b7          	lui	a5,0xffffd
    45c8:	57e78793          	addi	a5,a5,1406 # ffffd57e <_sp+0xfffd24ee>
    45cc:	00f70733          	add	a4,a4,a5
    45d0:	41f75813          	srai	a6,a4,0x1f
    45d4:	02d80833          	mul	a6,a6,a3
    45d8:	02e30333          	mul	t1,t1,a4
    45dc:	00680833          	add	a6,a6,t1
    45e0:	02d707b3          	mul	a5,a4,a3
    45e4:	02d73733          	mulhu	a4,a4,a3
    45e8:	00e80733          	add	a4,a6,a4
    45ec:	01071713          	slli	a4,a4,0x10
    45f0:	0107d793          	srli	a5,a5,0x10
    45f4:	00f707b3          	add	a5,a4,a5
    45f8:	00010737          	lui	a4,0x10
    45fc:	00e787b3          	add	a5,a5,a4
    4600:	41f7d713          	srai	a4,a5,0x1f
    4604:	02b70733          	mul	a4,a4,a1
    4608:	02f888b3          	mul	a7,a7,a5
    460c:	01170733          	add	a4,a4,a7
    4610:	02b786b3          	mul	a3,a5,a1
    4614:	02b7b7b3          	mulhu	a5,a5,a1
    4618:	00f707b3          	add	a5,a4,a5
    461c:	01079793          	slli	a5,a5,0x10
    4620:	0106d713          	srli	a4,a3,0x10
    4624:	00e78733          	add	a4,a5,a4
    4628:	02e50533          	mul	a0,a0,a4
    462c:	41f55793          	srai	a5,a0,0x1f
    4630:	01055593          	srli	a1,a0,0x10
    4634:	01079793          	slli	a5,a5,0x10
    4638:	41f65693          	srai	a3,a2,0x1f
    463c:	01051513          	slli	a0,a0,0x10
    4640:	00f585b3          	add	a1,a1,a5
    4644:	145070ef          	jal	bf88 <__divdi3>
    4648:	00050613          	mv	a2,a0
    464c:	0ec12a23          	sw	a2,244(sp)
    4650:	0004a783          	lw	a5,0(s1)
    4654:	0009a703          	lw	a4,0(s3)
    4658:	40f70733          	sub	a4,a4,a5
    465c:	0ee12c23          	sw	a4,248(sp)
    4660:	00010737          	lui	a4,0x10
    4664:	00e787b3          	add	a5,a5,a4
    4668:	017787b3          	add	a5,a5,s7
    466c:	0ef12e23          	sw	a5,252(sp)
    4670:	00492683          	lw	a3,4(s2)
    4674:	00000593          	li	a1,0
    4678:	2406c063          	bltz	a3,48b8 <T12_start+0x6f8>
    467c:	4e068063          	beqz	a3,4b5c <T12_end+0xf4>
    4680:	000207b7          	lui	a5,0x20
    4684:	4cd7d863          	bge	a5,a3,4b54 <T12_end+0xec>
    4688:	00000c13          	li	s8,0
    468c:	4016d693          	srai	a3,a3,0x1
    4690:	001c0c13          	addi	s8,s8,1
    4694:	fed7cce3          	blt	a5,a3,468c <T12_start+0x4cc>
    4698:	ffff0bb7          	lui	s7,0xffff0
    469c:	01768bb3          	add	s7,a3,s7
    46a0:	41fbd793          	srai	a5,s7,0x1f
    46a4:	010bd593          	srli	a1,s7,0x10
    46a8:	01079793          	slli	a5,a5,0x10
    46ac:	00010737          	lui	a4,0x10
    46b0:	00e68633          	add	a2,a3,a4
    46b4:	41f65693          	srai	a3,a2,0x1f
    46b8:	010b9513          	slli	a0,s7,0x10
    46bc:	00f585b3          	add	a1,a1,a5
    46c0:	0c9070ef          	jal	bf88 <__divdi3>
    46c4:	41f55613          	srai	a2,a0,0x1f
    46c8:	02a607b3          	mul	a5,a2,a0
    46cc:	02a506b3          	mul	a3,a0,a0
    46d0:	02a53733          	mulhu	a4,a0,a0
    46d4:	20e7a7b3          	sh1add	a5,a5,a4
    46d8:	01079793          	slli	a5,a5,0x10
    46dc:	0106d693          	srli	a3,a3,0x10
    46e0:	00d786b3          	add	a3,a5,a3
    46e4:	41f6d313          	srai	t1,a3,0x1f
    46e8:	02d307b3          	mul	a5,t1,a3
    46ec:	02d68733          	mul	a4,a3,a3
    46f0:	02d6b5b3          	mulhu	a1,a3,a3
    46f4:	20b7a7b3          	sh1add	a5,a5,a1
    46f8:	01079793          	slli	a5,a5,0x10
    46fc:	01075713          	srli	a4,a4,0x10
    4700:	00e78733          	add	a4,a5,a4
    4704:	41f75813          	srai	a6,a4,0x1f
    4708:	010c1793          	slli	a5,s8,0x10
    470c:	41f7d893          	srai	a7,a5,0x1f
    4710:	0000be37          	lui	t3,0xb
    4714:	172e0e13          	addi	t3,t3,370 # b172 <__divdf3+0x6c2>
    4718:	03c888b3          	mul	a7,a7,t3
    471c:	03c785b3          	mul	a1,a5,t3
    4720:	03c7b7b3          	mulhu	a5,a5,t3
    4724:	00f887b3          	add	a5,a7,a5
    4728:	01079793          	slli	a5,a5,0x10
    472c:	0105d593          	srli	a1,a1,0x10
    4730:	00b785b3          	add	a1,a5,a1
    4734:	00bb85b3          	add	a1,s7,a1
    4738:	000028b7          	lui	a7,0x2
    473c:	5e288893          	addi	a7,a7,1506 # 25e2 <T6_start+0x392>
    4740:	03180e33          	mul	t3,a6,a7
    4744:	031707b3          	mul	a5,a4,a7
    4748:	031738b3          	mulhu	a7,a4,a7
    474c:	011e08b3          	add	a7,t3,a7
    4750:	01089893          	slli	a7,a7,0x10
    4754:	0107d793          	srli	a5,a5,0x10
    4758:	00f887b3          	add	a5,a7,a5
    475c:	000038b7          	lui	a7,0x3
    4760:	e8d88893          	addi	a7,a7,-371 # 2e8d <T9_start+0x2c9>
    4764:	011787b3          	add	a5,a5,a7
    4768:	41f7de13          	srai	t3,a5,0x1f
    476c:	02ee0e33          	mul	t3,t3,a4
    4770:	02f808b3          	mul	a7,a6,a5
    4774:	011e0e33          	add	t3,t3,a7
    4778:	02e788b3          	mul	a7,a5,a4
    477c:	02e7b7b3          	mulhu	a5,a5,a4
    4780:	00fe07b3          	add	a5,t3,a5
    4784:	01079793          	slli	a5,a5,0x10
    4788:	0108d893          	srli	a7,a7,0x10
    478c:	011788b3          	add	a7,a5,a7
    4790:	000057b7          	lui	a5,0x5
    4794:	92578793          	addi	a5,a5,-1755 # 4925 <T12_start+0x765>
    4798:	00f888b3          	add	a7,a7,a5
    479c:	41f8de13          	srai	t3,a7,0x1f
    47a0:	02ee0e33          	mul	t3,t3,a4
    47a4:	031807b3          	mul	a5,a6,a7
    47a8:	00fe0e33          	add	t3,t3,a5
    47ac:	02e887b3          	mul	a5,a7,a4
    47b0:	02e8b8b3          	mulhu	a7,a7,a4
    47b4:	011e08b3          	add	a7,t3,a7
    47b8:	01089893          	slli	a7,a7,0x10
    47bc:	0107d793          	srli	a5,a5,0x10
    47c0:	00f887b3          	add	a5,a7,a5
    47c4:	0000b8b7          	lui	a7,0xb
    47c8:	aab88893          	addi	a7,a7,-1365 # aaab <__adddf3+0x747>
    47cc:	011787b3          	add	a5,a5,a7
    47d0:	41f7d893          	srai	a7,a5,0x1f
    47d4:	02d888b3          	mul	a7,a7,a3
    47d8:	02f30333          	mul	t1,t1,a5
    47dc:	00688333          	add	t1,a7,t1
    47e0:	02d788b3          	mul	a7,a5,a3
    47e4:	02d7b7b3          	mulhu	a5,a5,a3
    47e8:	00f307b3          	add	a5,t1,a5
    47ec:	01079793          	slli	a5,a5,0x10
    47f0:	0108d893          	srli	a7,a7,0x10
    47f4:	011788b3          	add	a7,a5,a7
    47f8:	000027b7          	lui	a5,0x2
    47fc:	73478793          	addi	a5,a5,1844 # 2734 <T7_start+0x78>
    4800:	02f80333          	mul	t1,a6,a5
    4804:	02f706b3          	mul	a3,a4,a5
    4808:	02f737b3          	mulhu	a5,a4,a5
    480c:	00f307b3          	add	a5,t1,a5
    4810:	01079793          	slli	a5,a5,0x10
    4814:	0106d693          	srli	a3,a3,0x10
    4818:	00d786b3          	add	a3,a5,a3
    481c:	000047b7          	lui	a5,0x4
    4820:	8e478793          	addi	a5,a5,-1820 # 38e4 <T10_start+0x47c>
    4824:	00f686b3          	add	a3,a3,a5
    4828:	41f6d313          	srai	t1,a3,0x1f
    482c:	02e30333          	mul	t1,t1,a4
    4830:	02d807b3          	mul	a5,a6,a3
    4834:	00f30333          	add	t1,t1,a5
    4838:	02e687b3          	mul	a5,a3,a4
    483c:	02e6b6b3          	mulhu	a3,a3,a4
    4840:	00d306b3          	add	a3,t1,a3
    4844:	01069693          	slli	a3,a3,0x10
    4848:	0107d793          	srli	a5,a5,0x10
    484c:	00f687b3          	add	a5,a3,a5
    4850:	000066b7          	lui	a3,0x6
    4854:	66668693          	addi	a3,a3,1638 # 6666 <T18_end+0x6>
    4858:	00d787b3          	add	a5,a5,a3
    485c:	41f7d693          	srai	a3,a5,0x1f
    4860:	02e686b3          	mul	a3,a3,a4
    4864:	02f80833          	mul	a6,a6,a5
    4868:	010686b3          	add	a3,a3,a6
    486c:	02e78833          	mul	a6,a5,a4
    4870:	02e7b7b3          	mulhu	a5,a5,a4
    4874:	00f687b3          	add	a5,a3,a5
    4878:	01079793          	slli	a5,a5,0x10
    487c:	01085713          	srli	a4,a6,0x10
    4880:	00e78733          	add	a4,a5,a4
    4884:	00e888b3          	add	a7,a7,a4
    4888:	411b8bb3          	sub	s7,s7,a7
    488c:	41fbd793          	srai	a5,s7,0x1f
    4890:	02a787b3          	mul	a5,a5,a0
    4894:	03760633          	mul	a2,a2,s7
    4898:	00c787b3          	add	a5,a5,a2
    489c:	02ab8733          	mul	a4,s7,a0
    48a0:	02abbbb3          	mulhu	s7,s7,a0
    48a4:	017787b3          	add	a5,a5,s7
    48a8:	01079793          	slli	a5,a5,0x10
    48ac:	01075713          	srli	a4,a4,0x10
    48b0:	00e78733          	add	a4,a5,a4
    48b4:	40e585b3          	sub	a1,a1,a4
    48b8:	10b12023          	sw	a1,256(sp)
    48bc:	01092783          	lw	a5,16(s2)
    48c0:	00010737          	lui	a4,0x10
    48c4:	18078c63          	beqz	a5,4a5c <T12_start+0x89c>
    48c8:	40f006b3          	neg	a3,a5
    48cc:	0ad7e6b3          	max	a3,a5,a3
    48d0:	41f6d713          	srai	a4,a3,0x1f
    48d4:	00017637          	lui	a2,0x17
    48d8:	15460613          	addi	a2,a2,340 # 17154 <heap.cpp.6b15d6f6+0x19a4>
    48dc:	02c70733          	mul	a4,a4,a2
    48e0:	02c68bb3          	mul	s7,a3,a2
    48e4:	02c6b6b3          	mulhu	a3,a3,a2
    48e8:	00d70733          	add	a4,a4,a3
    48ec:	01071713          	slli	a4,a4,0x10
    48f0:	010bdb93          	srli	s7,s7,0x10
    48f4:	01770bb3          	add	s7,a4,s7
    48f8:	00008737          	lui	a4,0x8
    48fc:	00eb8bb3          	add	s7,s7,a4
    4900:	ffff0737          	lui	a4,0xffff0
    4904:	00ebfbb3          	and	s7,s7,a4
    4908:	2407ce63          	bltz	a5,4b64 <T12_end+0xfc>
    490c:	41fbd713          	srai	a4,s7,0x1f
    4910:	0000b6b7          	lui	a3,0xb
    4914:	17268693          	addi	a3,a3,370 # b172 <__divdf3+0x6c2>
    4918:	02d70733          	mul	a4,a4,a3
    491c:	02db8633          	mul	a2,s7,a3
    4920:	02dbb6b3          	mulhu	a3,s7,a3
    4924:	00d70733          	add	a4,a4,a3
    4928:	01071713          	slli	a4,a4,0x10
    492c:	01065693          	srli	a3,a2,0x10
    4930:	00d706b3          	add	a3,a4,a3
    4934:	40d787b3          	sub	a5,a5,a3
    4938:	41f7d713          	srai	a4,a5,0x1f
    493c:	02f70733          	mul	a4,a4,a5
    4940:	02f785b3          	mul	a1,a5,a5
    4944:	02f7b6b3          	mulhu	a3,a5,a5
    4948:	20d72733          	sh1add	a4,a4,a3
    494c:	01071713          	slli	a4,a4,0x10
    4950:	0105d593          	srli	a1,a1,0x10
    4954:	00b705b3          	add	a1,a4,a1
    4958:	41f5d513          	srai	a0,a1,0x1f
    495c:	01e5d713          	srli	a4,a1,0x1e
    4960:	20e54733          	sh2add	a4,a0,a4
    4964:	00259693          	slli	a3,a1,0x2
    4968:	01071713          	slli	a4,a4,0x10
    496c:	0106d693          	srli	a3,a3,0x10
    4970:	00d706b3          	add	a3,a4,a3
    4974:	f4a68693          	addi	a3,a3,-182
    4978:	41f6d613          	srai	a2,a3,0x1f
    497c:	02b60633          	mul	a2,a2,a1
    4980:	02d50733          	mul	a4,a0,a3
    4984:	00e60633          	add	a2,a2,a4
    4988:	02b68733          	mul	a4,a3,a1
    498c:	02b6b6b3          	mulhu	a3,a3,a1
    4990:	00d606b3          	add	a3,a2,a3
    4994:	01069693          	slli	a3,a3,0x10
    4998:	01075713          	srli	a4,a4,0x10
    499c:	00e68733          	add	a4,a3,a4
    49a0:	000036b7          	lui	a3,0x3
    49a4:	aab68693          	addi	a3,a3,-1365 # 2aab <T7_start+0x3ef>
    49a8:	00d70733          	add	a4,a4,a3
    49ac:	41f75693          	srai	a3,a4,0x1f
    49b0:	02b686b3          	mul	a3,a3,a1
    49b4:	02e50533          	mul	a0,a0,a4
    49b8:	00a686b3          	add	a3,a3,a0
    49bc:	02b70633          	mul	a2,a4,a1
    49c0:	02b73733          	mulhu	a4,a4,a1
    49c4:	00e68733          	add	a4,a3,a4
    49c8:	01071713          	slli	a4,a4,0x10
    49cc:	01065693          	srli	a3,a2,0x10
    49d0:	00d706b3          	add	a3,a4,a3
    49d4:	00020737          	lui	a4,0x20
    49d8:	00e686b3          	add	a3,a3,a4
    49dc:	40f68633          	sub	a2,a3,a5
    49e0:	02f68c63          	beq	a3,a5,4a18 <T12_start+0x858>
    49e4:	00f7d713          	srli	a4,a5,0xf
    49e8:	01179793          	slli	a5,a5,0x11
    49ec:	01071713          	slli	a4,a4,0x10
    49f0:	0107d793          	srli	a5,a5,0x10
    49f4:	00f707b3          	add	a5,a4,a5
    49f8:	41f7d713          	srai	a4,a5,0x1f
    49fc:	0107d593          	srli	a1,a5,0x10
    4a00:	01071713          	slli	a4,a4,0x10
    4a04:	41f65693          	srai	a3,a2,0x1f
    4a08:	01079513          	slli	a0,a5,0x10
    4a0c:	00e585b3          	add	a1,a1,a4
    4a10:	578070ef          	jal	bf88 <__divdi3>
    4a14:	00050613          	mv	a2,a0
    4a18:	000107b7          	lui	a5,0x10
    4a1c:	00f606b3          	add	a3,a2,a5
    4a20:	140bc663          	bltz	s7,4b6c <T12_end+0x104>
    4a24:	410bdb93          	srai	s7,s7,0x10
    4a28:	000107b7          	lui	a5,0x10
    4a2c:	017797b3          	sll	a5,a5,s7
    4a30:	41f7d713          	srai	a4,a5,0x1f
    4a34:	41f6d613          	srai	a2,a3,0x1f
    4a38:	02d70733          	mul	a4,a4,a3
    4a3c:	02f60633          	mul	a2,a2,a5
    4a40:	00c70733          	add	a4,a4,a2
    4a44:	02d78633          	mul	a2,a5,a3
    4a48:	02d7b7b3          	mulhu	a5,a5,a3
    4a4c:	00f70733          	add	a4,a4,a5
    4a50:	01071713          	slli	a4,a4,0x10
    4a54:	01065793          	srli	a5,a2,0x10
    4a58:	00f70733          	add	a4,a4,a5
    4a5c:	0084a783          	lw	a5,8(s1)
    4a60:	00e787b3          	add	a5,a5,a4
    4a64:	10f12223          	sw	a5,260(sp)

00004a68 <T12_end>:
    4a68:	b00027f3          	csrr	a5,mcycle
    4a6c:	416787b3          	sub	a5,a5,s6
    4a70:	02fa2823          	sw	a5,48(s4)
    4a74:	0f012603          	lw	a2,240(sp)
    4a78:	0f410713          	addi	a4,sp,244
    4a7c:	00000513          	li	a0,0
    4a80:	00100793          	li	a5,1
    4a84:	00600593          	li	a1,6
    4a88:	1000006f          	j	4b88 <T12_end+0x120>
    4a8c:	00000c13          	li	s8,0
    4a90:	f5cff06f          	j	41ec <T12_start+0x2c>
    4a94:	fff00793          	li	a5,-1
    4a98:	975ff06f          	j	440c <T12_start+0x24c>
    4a9c:	000657b7          	lui	a5,0x65
    4aa0:	87e78793          	addi	a5,a5,-1922 # 6487e <_sp+0x397ee>
    4aa4:	00f585b3          	add	a1,a1,a5
    4aa8:	9a1ff06f          	j	4448 <T12_start+0x288>
    4aac:	fffce7b7          	lui	a5,0xfffce
    4ab0:	bc078793          	addi	a5,a5,-1088 # fffcdbc0 <_sp+0xfffa2b30>
    4ab4:	00f587b3          	add	a5,a1,a5
    4ab8:	00019737          	lui	a4,0x19
    4abc:	21f70713          	addi	a4,a4,543 # 1921f <heap.cpp.6b15d6f6+0x3a6f>
    4ac0:	00f76c63          	bltu	a4,a5,4ad8 <T12_end+0x70>
    4ac4:	fffce7b7          	lui	a5,0xfffce
    4ac8:	bc178793          	addi	a5,a5,-1087 # fffcdbc1 <_sp+0xfffa2b31>
    4acc:	00f585b3          	add	a1,a1,a5
    4ad0:	fff00513          	li	a0,-1
    4ad4:	99dff06f          	j	4470 <T12_start+0x2b0>
    4ad8:	0004b7b7          	lui	a5,0x4b
    4adc:	65f78793          	addi	a5,a5,1631 # 4b65f <_sp+0x205cf>
    4ae0:	00100513          	li	a0,1
    4ae4:	98b7d6e3          	bge	a5,a1,4470 <T12_start+0x2b0>
    4ae8:	000657b7          	lui	a5,0x65
    4aec:	87e78793          	addi	a5,a5,-1922 # 6487e <_sp+0x397ee>
    4af0:	40b785b3          	sub	a1,a5,a1
    4af4:	fff00513          	li	a0,-1
    4af8:	979ff06f          	j	4470 <T12_start+0x2b0>
    4afc:	00d787b3          	add	a5,a5,a3
    4b00:	9a9ff06f          	j	44a8 <T12_start+0x2e8>
    4b04:	fffce737          	lui	a4,0xfffce
    4b08:	bc070713          	addi	a4,a4,-1088 # fffcdbc0 <_sp+0xfffa2b30>
    4b0c:	00e78733          	add	a4,a5,a4
    4b10:	000196b7          	lui	a3,0x19
    4b14:	21f68693          	addi	a3,a3,543 # 1921f <heap.cpp.6b15d6f6+0x3a6f>
    4b18:	00e6ec63          	bltu	a3,a4,4b30 <T12_end+0xc8>
    4b1c:	fffce737          	lui	a4,0xfffce
    4b20:	bc170713          	addi	a4,a4,-1087 # fffcdbc1 <_sp+0xfffa2b31>
    4b24:	00e787b3          	add	a5,a5,a4
    4b28:	fff00813          	li	a6,-1
    4b2c:	9a5ff06f          	j	44d0 <T12_start+0x310>
    4b30:	0004b737          	lui	a4,0x4b
    4b34:	65f70713          	addi	a4,a4,1631 # 4b65f <_sp+0x205cf>
    4b38:	00100813          	li	a6,1
    4b3c:	98f75ae3          	bge	a4,a5,44d0 <T12_start+0x310>
    4b40:	00065737          	lui	a4,0x65
    4b44:	87e70713          	addi	a4,a4,-1922 # 6487e <_sp+0x397ee>
    4b48:	40f707b3          	sub	a5,a4,a5
    4b4c:	fff00813          	li	a6,-1
    4b50:	981ff06f          	j	44d0 <T12_start+0x310>
    4b54:	00000c13          	li	s8,0
    4b58:	b41ff06f          	j	4698 <T12_start+0x4d8>
    4b5c:	fff00593          	li	a1,-1
    4b60:	d59ff06f          	j	48b8 <T12_start+0x6f8>
    4b64:	41700bb3          	neg	s7,s7
    4b68:	da5ff06f          	j	490c <T12_start+0x74c>
    4b6c:	41700733          	neg	a4,s7
    4b70:	41075713          	srai	a4,a4,0x10
    4b74:	40e7d7b3          	sra	a5,a5,a4
    4b78:	eb9ff06f          	j	4a30 <T12_start+0x870>
    4b7c:	00178793          	addi	a5,a5,1
    4b80:	00470713          	addi	a4,a4,4
    4b84:	00b78c63          	beq	a5,a1,4b9c <T12_end+0x134>
    4b88:	00072683          	lw	a3,0(a4)
    4b8c:	fec6c8e3          	blt	a3,a2,4b7c <T12_end+0x114>
    4b90:	00068613          	mv	a2,a3
    4b94:	00078513          	mv	a0,a5
    4b98:	fe5ff06f          	j	4b7c <T12_end+0x114>
    4b9c:	00020737          	lui	a4,0x20
    4ba0:	000207b7          	lui	a5,0x20
    4ba4:	0b478793          	addi	a5,a5,180 # 200b4 <next.10>
    4ba8:	20f54533          	sh2add	a0,a0,a5
    4bac:	00052783          	lw	a5,0(a0)
    4bb0:	14470713          	addi	a4,a4,324 # 20144 <jump_table.23>
    4bb4:	20e7c7b3          	sh2add	a5,a5,a4
    4bb8:	0007a783          	lw	a5,0(a5)
    4bbc:	fe5fb06f          	j	ba0 <inferenceTPG+0x50>
    4bc0:	17b12023          	sw	s11,352(sp)

00004bc4 <T13_start>:
    4bc4:	b00027f3          	csrr	a5,mcycle
    4bc8:	00f12623          	sw	a5,12(sp)
    4bcc:	0049a783          	lw	a5,4(s3)
    4bd0:	00078d13          	mv	s10,a5
    4bd4:	00492783          	lw	a5,4(s2)
    4bd8:	0ba7e7b3          	max	a5,a5,s10
    4bdc:	12f12023          	sw	a5,288(sp)
    4be0:	00092b03          	lw	s6,0(s2)
    4be4:	0bab67b3          	max	a5,s6,s10
    4be8:	12f12223          	sw	a5,292(sp)
    4bec:	0004ac03          	lw	s8,0(s1)
    4bf0:	000107b7          	lui	a5,0x10
    4bf4:	180c0c63          	beqz	s8,4d8c <T13_start+0x1c8>
    4bf8:	41800733          	neg	a4,s8
    4bfc:	0aec6733          	max	a4,s8,a4
    4c00:	41f75793          	srai	a5,a4,0x1f
    4c04:	000176b7          	lui	a3,0x17
    4c08:	15468693          	addi	a3,a3,340 # 17154 <heap.cpp.6b15d6f6+0x19a4>
    4c0c:	02d787b3          	mul	a5,a5,a3
    4c10:	02d70bb3          	mul	s7,a4,a3
    4c14:	02d73733          	mulhu	a4,a4,a3
    4c18:	00e787b3          	add	a5,a5,a4
    4c1c:	01079793          	slli	a5,a5,0x10
    4c20:	010bdb93          	srli	s7,s7,0x10
    4c24:	01778bb3          	add	s7,a5,s7
    4c28:	000087b7          	lui	a5,0x8
    4c2c:	00fb8bb3          	add	s7,s7,a5
    4c30:	ffff07b7          	lui	a5,0xffff0
    4c34:	00fbfbb3          	and	s7,s7,a5
    4c38:	3c0c4ee3          	bltz	s8,5814 <T13_end+0x28>
    4c3c:	41fbd713          	srai	a4,s7,0x1f
    4c40:	0000b6b7          	lui	a3,0xb
    4c44:	17268693          	addi	a3,a3,370 # b172 <__divdf3+0x6c2>
    4c48:	02d70733          	mul	a4,a4,a3
    4c4c:	02db87b3          	mul	a5,s7,a3
    4c50:	02dbb6b3          	mulhu	a3,s7,a3
    4c54:	00d70733          	add	a4,a4,a3
    4c58:	01071713          	slli	a4,a4,0x10
    4c5c:	0107d793          	srli	a5,a5,0x10
    4c60:	00f707b3          	add	a5,a4,a5
    4c64:	40fc07b3          	sub	a5,s8,a5
    4c68:	41f7d713          	srai	a4,a5,0x1f
    4c6c:	02f70733          	mul	a4,a4,a5
    4c70:	02f78633          	mul	a2,a5,a5
    4c74:	02f7b6b3          	mulhu	a3,a5,a5
    4c78:	20d72733          	sh1add	a4,a4,a3
    4c7c:	01071713          	slli	a4,a4,0x10
    4c80:	01065613          	srli	a2,a2,0x10
    4c84:	00c70633          	add	a2,a4,a2
    4c88:	41f65513          	srai	a0,a2,0x1f
    4c8c:	01e65713          	srli	a4,a2,0x1e
    4c90:	20e54733          	sh2add	a4,a0,a4
    4c94:	00261693          	slli	a3,a2,0x2
    4c98:	01071713          	slli	a4,a4,0x10
    4c9c:	0106d693          	srli	a3,a3,0x10
    4ca0:	00d706b3          	add	a3,a4,a3
    4ca4:	f4a68693          	addi	a3,a3,-182
    4ca8:	41f6d593          	srai	a1,a3,0x1f
    4cac:	02c585b3          	mul	a1,a1,a2
    4cb0:	02d50733          	mul	a4,a0,a3
    4cb4:	00e585b3          	add	a1,a1,a4
    4cb8:	02c68733          	mul	a4,a3,a2
    4cbc:	02c6b6b3          	mulhu	a3,a3,a2
    4cc0:	00d586b3          	add	a3,a1,a3
    4cc4:	01069693          	slli	a3,a3,0x10
    4cc8:	01075713          	srli	a4,a4,0x10
    4ccc:	00e68733          	add	a4,a3,a4
    4cd0:	000036b7          	lui	a3,0x3
    4cd4:	aab68693          	addi	a3,a3,-1365 # 2aab <T7_start+0x3ef>
    4cd8:	00d70733          	add	a4,a4,a3
    4cdc:	41f75693          	srai	a3,a4,0x1f
    4ce0:	02c686b3          	mul	a3,a3,a2
    4ce4:	02e50533          	mul	a0,a0,a4
    4ce8:	00a686b3          	add	a3,a3,a0
    4cec:	02c705b3          	mul	a1,a4,a2
    4cf0:	02c73733          	mulhu	a4,a4,a2
    4cf4:	00e68733          	add	a4,a3,a4
    4cf8:	01071713          	slli	a4,a4,0x10
    4cfc:	0105d693          	srli	a3,a1,0x10
    4d00:	00d706b3          	add	a3,a4,a3
    4d04:	00020737          	lui	a4,0x20
    4d08:	00e686b3          	add	a3,a3,a4
    4d0c:	40f68633          	sub	a2,a3,a5
    4d10:	02f68c63          	beq	a3,a5,4d48 <T13_start+0x184>
    4d14:	00f7d713          	srli	a4,a5,0xf
    4d18:	01179793          	slli	a5,a5,0x11
    4d1c:	01071713          	slli	a4,a4,0x10
    4d20:	0107d793          	srli	a5,a5,0x10
    4d24:	00f707b3          	add	a5,a4,a5
    4d28:	41f7d713          	srai	a4,a5,0x1f
    4d2c:	0107d593          	srli	a1,a5,0x10
    4d30:	01071713          	slli	a4,a4,0x10
    4d34:	41f65693          	srai	a3,a2,0x1f
    4d38:	01079513          	slli	a0,a5,0x10
    4d3c:	00e585b3          	add	a1,a1,a4
    4d40:	248070ef          	jal	bf88 <__divdi3>
    4d44:	00050613          	mv	a2,a0
    4d48:	000107b7          	lui	a5,0x10
    4d4c:	00f606b3          	add	a3,a2,a5
    4d50:	2c0bc6e3          	bltz	s7,581c <T13_end+0x30>
    4d54:	410bdb93          	srai	s7,s7,0x10
    4d58:	00010737          	lui	a4,0x10
    4d5c:	01771733          	sll	a4,a4,s7
    4d60:	41f75793          	srai	a5,a4,0x1f
    4d64:	41f6d613          	srai	a2,a3,0x1f
    4d68:	02d787b3          	mul	a5,a5,a3
    4d6c:	02e60633          	mul	a2,a2,a4
    4d70:	00c787b3          	add	a5,a5,a2
    4d74:	02d70633          	mul	a2,a4,a3
    4d78:	02d73733          	mulhu	a4,a4,a3
    4d7c:	00e787b3          	add	a5,a5,a4
    4d80:	01079793          	slli	a5,a5,0x10
    4d84:	01065713          	srli	a4,a2,0x10
    4d88:	00e787b3          	add	a5,a5,a4
    4d8c:	12f12423          	sw	a5,296(sp)
    4d90:	0044a783          	lw	a5,4(s1)
    4d94:	00078d93          	mv	s11,a5
    4d98:	28078ce3          	beqz	a5,5830 <T13_end+0x44>
    4d9c:	41fb5793          	srai	a5,s6,0x1f
    4da0:	010b5593          	srli	a1,s6,0x10
    4da4:	01079793          	slli	a5,a5,0x10
    4da8:	000d8613          	mv	a2,s11
    4dac:	41fdd693          	srai	a3,s11,0x1f
    4db0:	010b1513          	slli	a0,s6,0x10
    4db4:	00f585b3          	add	a1,a1,a5
    4db8:	1d0070ef          	jal	bf88 <__divdi3>
    4dbc:	00050793          	mv	a5,a0
    4dc0:	260508e3          	beqz	a0,5830 <T13_end+0x44>
    4dc4:	40a006b3          	neg	a3,a0
    4dc8:	0ad566b3          	max	a3,a0,a3
    4dcc:	41f6d713          	srai	a4,a3,0x1f
    4dd0:	00017637          	lui	a2,0x17
    4dd4:	15460613          	addi	a2,a2,340 # 17154 <heap.cpp.6b15d6f6+0x19a4>
    4dd8:	02c70733          	mul	a4,a4,a2
    4ddc:	02c68bb3          	mul	s7,a3,a2
    4de0:	02c6b6b3          	mulhu	a3,a3,a2
    4de4:	00d70733          	add	a4,a4,a3
    4de8:	01071713          	slli	a4,a4,0x10
    4dec:	010bdb93          	srli	s7,s7,0x10
    4df0:	01770bb3          	add	s7,a4,s7
    4df4:	00008737          	lui	a4,0x8
    4df8:	00eb8bb3          	add	s7,s7,a4
    4dfc:	ffff0737          	lui	a4,0xffff0
    4e00:	00ebfbb3          	and	s7,s7,a4
    4e04:	22054ae3          	bltz	a0,5838 <T13_end+0x4c>
    4e08:	41fbd713          	srai	a4,s7,0x1f
    4e0c:	0000b6b7          	lui	a3,0xb
    4e10:	17268693          	addi	a3,a3,370 # b172 <__divdf3+0x6c2>
    4e14:	02d70733          	mul	a4,a4,a3
    4e18:	02db8633          	mul	a2,s7,a3
    4e1c:	02dbb6b3          	mulhu	a3,s7,a3
    4e20:	00d70733          	add	a4,a4,a3
    4e24:	01071713          	slli	a4,a4,0x10
    4e28:	01065693          	srli	a3,a2,0x10
    4e2c:	00d706b3          	add	a3,a4,a3
    4e30:	40d787b3          	sub	a5,a5,a3
    4e34:	41f7d713          	srai	a4,a5,0x1f
    4e38:	02f70733          	mul	a4,a4,a5
    4e3c:	02f78633          	mul	a2,a5,a5
    4e40:	02f7b6b3          	mulhu	a3,a5,a5
    4e44:	20d72733          	sh1add	a4,a4,a3
    4e48:	01071713          	slli	a4,a4,0x10
    4e4c:	01065613          	srli	a2,a2,0x10
    4e50:	00c70633          	add	a2,a4,a2
    4e54:	41f65513          	srai	a0,a2,0x1f
    4e58:	01e65713          	srli	a4,a2,0x1e
    4e5c:	20e54733          	sh2add	a4,a0,a4
    4e60:	00261693          	slli	a3,a2,0x2
    4e64:	01071713          	slli	a4,a4,0x10
    4e68:	0106d693          	srli	a3,a3,0x10
    4e6c:	00d706b3          	add	a3,a4,a3
    4e70:	f4a68693          	addi	a3,a3,-182
    4e74:	41f6d593          	srai	a1,a3,0x1f
    4e78:	02c585b3          	mul	a1,a1,a2
    4e7c:	02d50733          	mul	a4,a0,a3
    4e80:	00e585b3          	add	a1,a1,a4
    4e84:	02c68733          	mul	a4,a3,a2
    4e88:	02c6b6b3          	mulhu	a3,a3,a2
    4e8c:	00d586b3          	add	a3,a1,a3
    4e90:	01069693          	slli	a3,a3,0x10
    4e94:	01075713          	srli	a4,a4,0x10
    4e98:	00e68733          	add	a4,a3,a4
    4e9c:	000036b7          	lui	a3,0x3
    4ea0:	aab68693          	addi	a3,a3,-1365 # 2aab <T7_start+0x3ef>
    4ea4:	00d70733          	add	a4,a4,a3
    4ea8:	41f75693          	srai	a3,a4,0x1f
    4eac:	02c686b3          	mul	a3,a3,a2
    4eb0:	02e50533          	mul	a0,a0,a4
    4eb4:	00a686b3          	add	a3,a3,a0
    4eb8:	02c705b3          	mul	a1,a4,a2
    4ebc:	02c73733          	mulhu	a4,a4,a2
    4ec0:	00e68733          	add	a4,a3,a4
    4ec4:	01071713          	slli	a4,a4,0x10
    4ec8:	0105d693          	srli	a3,a1,0x10
    4ecc:	00d706b3          	add	a3,a4,a3
    4ed0:	00020737          	lui	a4,0x20
    4ed4:	00e686b3          	add	a3,a3,a4
    4ed8:	40f68633          	sub	a2,a3,a5
    4edc:	02f68c63          	beq	a3,a5,4f14 <T13_start+0x350>
    4ee0:	00f7d713          	srli	a4,a5,0xf
    4ee4:	01179793          	slli	a5,a5,0x11
    4ee8:	01071713          	slli	a4,a4,0x10
    4eec:	0107d793          	srli	a5,a5,0x10
    4ef0:	00f707b3          	add	a5,a4,a5
    4ef4:	41f7d713          	srai	a4,a5,0x1f
    4ef8:	0107d593          	srli	a1,a5,0x10
    4efc:	01071713          	slli	a4,a4,0x10
    4f00:	41f65693          	srai	a3,a2,0x1f
    4f04:	01079513          	slli	a0,a5,0x10
    4f08:	00e585b3          	add	a1,a1,a4
    4f0c:	07c070ef          	jal	bf88 <__divdi3>
    4f10:	00050613          	mv	a2,a0
    4f14:	000107b7          	lui	a5,0x10
    4f18:	00f606b3          	add	a3,a2,a5
    4f1c:	120bc2e3          	bltz	s7,5840 <T13_end+0x54>
    4f20:	410bdb93          	srai	s7,s7,0x10
    4f24:	00010737          	lui	a4,0x10
    4f28:	01771733          	sll	a4,a4,s7
    4f2c:	41f75793          	srai	a5,a4,0x1f
    4f30:	41f6d613          	srai	a2,a3,0x1f
    4f34:	02d787b3          	mul	a5,a5,a3
    4f38:	02e60633          	mul	a2,a2,a4
    4f3c:	00c787b3          	add	a5,a5,a2
    4f40:	02d70633          	mul	a2,a4,a3
    4f44:	02d73733          	mulhu	a4,a4,a3
    4f48:	00e787b3          	add	a5,a5,a4
    4f4c:	01079793          	slli	a5,a5,0x10
    4f50:	01065713          	srli	a4,a2,0x10
    4f54:	00e787b3          	add	a5,a5,a4
    4f58:	12f12623          	sw	a5,300(sp)
    4f5c:	000b5463          	bgez	s6,4f64 <T13_start+0x3a0>
    4f60:	4390106f          	j	6b98 <T19_start+0x3ec>
    4f64:	0e0b0ce3          	beqz	s6,585c <T13_end+0x70>
    4f68:	000207b7          	lui	a5,0x20
    4f6c:	0f67d4e3          	bge	a5,s6,5854 <T13_end+0x68>
    4f70:	00000b93          	li	s7,0
    4f74:	401b5b13          	srai	s6,s6,0x1
    4f78:	001b8b93          	addi	s7,s7,1 # ffff0001 <_sp+0xfffc4f71>
    4f7c:	ff67cce3          	blt	a5,s6,4f74 <T13_start+0x3b0>
    4f80:	ffff07b7          	lui	a5,0xffff0
    4f84:	00fb07b3          	add	a5,s6,a5
    4f88:	00f12223          	sw	a5,4(sp)
    4f8c:	41f7d793          	srai	a5,a5,0x1f
    4f90:	00412703          	lw	a4,4(sp)
    4f94:	01075593          	srli	a1,a4,0x10
    4f98:	01079793          	slli	a5,a5,0x10
    4f9c:	00010737          	lui	a4,0x10
    4fa0:	00eb0633          	add	a2,s6,a4
    4fa4:	41f65693          	srai	a3,a2,0x1f
    4fa8:	00412703          	lw	a4,4(sp)
    4fac:	01071513          	slli	a0,a4,0x10
    4fb0:	00f585b3          	add	a1,a1,a5
    4fb4:	7d5060ef          	jal	bf88 <__divdi3>
    4fb8:	41f55593          	srai	a1,a0,0x1f
    4fbc:	02a587b3          	mul	a5,a1,a0
    4fc0:	02a506b3          	mul	a3,a0,a0
    4fc4:	02a53733          	mulhu	a4,a0,a0
    4fc8:	20e7a7b3          	sh1add	a5,a5,a4
    4fcc:	01079793          	slli	a5,a5,0x10
    4fd0:	0106d693          	srli	a3,a3,0x10
    4fd4:	00d786b3          	add	a3,a5,a3
    4fd8:	41f6d313          	srai	t1,a3,0x1f
    4fdc:	02d30733          	mul	a4,t1,a3
    4fe0:	02d687b3          	mul	a5,a3,a3
    4fe4:	02d6b633          	mulhu	a2,a3,a3
    4fe8:	20c72733          	sh1add	a4,a4,a2
    4fec:	01071713          	slli	a4,a4,0x10
    4ff0:	0107d793          	srli	a5,a5,0x10
    4ff4:	00f707b3          	add	a5,a4,a5
    4ff8:	41f7d813          	srai	a6,a5,0x1f
    4ffc:	010b9b93          	slli	s7,s7,0x10
    5000:	41fbd613          	srai	a2,s7,0x1f
    5004:	0000b8b7          	lui	a7,0xb
    5008:	17288893          	addi	a7,a7,370 # b172 <__divdf3+0x6c2>
    500c:	03160633          	mul	a2,a2,a7
    5010:	031b8733          	mul	a4,s7,a7
    5014:	031bbbb3          	mulhu	s7,s7,a7
    5018:	01760633          	add	a2,a2,s7
    501c:	01061613          	slli	a2,a2,0x10
    5020:	01075713          	srli	a4,a4,0x10
    5024:	00e60733          	add	a4,a2,a4
    5028:	00412603          	lw	a2,4(sp)
    502c:	00e60733          	add	a4,a2,a4
    5030:	000028b7          	lui	a7,0x2
    5034:	5e288893          	addi	a7,a7,1506 # 25e2 <T6_start+0x392>
    5038:	03180e33          	mul	t3,a6,a7
    503c:	03178633          	mul	a2,a5,a7
    5040:	0317b8b3          	mulhu	a7,a5,a7
    5044:	011e08b3          	add	a7,t3,a7
    5048:	01089893          	slli	a7,a7,0x10
    504c:	01065613          	srli	a2,a2,0x10
    5050:	00c88633          	add	a2,a7,a2
    5054:	000038b7          	lui	a7,0x3
    5058:	e8d88893          	addi	a7,a7,-371 # 2e8d <T9_start+0x2c9>
    505c:	01160633          	add	a2,a2,a7
    5060:	41f65e13          	srai	t3,a2,0x1f
    5064:	02fe0e33          	mul	t3,t3,a5
    5068:	02c808b3          	mul	a7,a6,a2
    506c:	011e0e33          	add	t3,t3,a7
    5070:	02f608b3          	mul	a7,a2,a5
    5074:	02f63633          	mulhu	a2,a2,a5
    5078:	00ce0633          	add	a2,t3,a2
    507c:	01061613          	slli	a2,a2,0x10
    5080:	0108d893          	srli	a7,a7,0x10
    5084:	011608b3          	add	a7,a2,a7
    5088:	00005637          	lui	a2,0x5
    508c:	92560613          	addi	a2,a2,-1755 # 4925 <T12_start+0x765>
    5090:	00c888b3          	add	a7,a7,a2
    5094:	41f8de13          	srai	t3,a7,0x1f
    5098:	02fe0e33          	mul	t3,t3,a5
    509c:	03180633          	mul	a2,a6,a7
    50a0:	00ce0e33          	add	t3,t3,a2
    50a4:	02f88633          	mul	a2,a7,a5
    50a8:	02f8b8b3          	mulhu	a7,a7,a5
    50ac:	011e08b3          	add	a7,t3,a7
    50b0:	01089893          	slli	a7,a7,0x10
    50b4:	01065613          	srli	a2,a2,0x10
    50b8:	00c88633          	add	a2,a7,a2
    50bc:	0000b8b7          	lui	a7,0xb
    50c0:	aab88893          	addi	a7,a7,-1365 # aaab <__adddf3+0x747>
    50c4:	01160633          	add	a2,a2,a7
    50c8:	41f65893          	srai	a7,a2,0x1f
    50cc:	02d888b3          	mul	a7,a7,a3
    50d0:	02c30333          	mul	t1,t1,a2
    50d4:	00688333          	add	t1,a7,t1
    50d8:	02d608b3          	mul	a7,a2,a3
    50dc:	02d63633          	mulhu	a2,a2,a3
    50e0:	00c306b3          	add	a3,t1,a2
    50e4:	01069693          	slli	a3,a3,0x10
    50e8:	0108d893          	srli	a7,a7,0x10
    50ec:	011688b3          	add	a7,a3,a7
    50f0:	000026b7          	lui	a3,0x2
    50f4:	73468693          	addi	a3,a3,1844 # 2734 <T7_start+0x78>
    50f8:	02d80333          	mul	t1,a6,a3
    50fc:	02d78633          	mul	a2,a5,a3
    5100:	02d7b6b3          	mulhu	a3,a5,a3
    5104:	00d306b3          	add	a3,t1,a3
    5108:	01069693          	slli	a3,a3,0x10
    510c:	01065613          	srli	a2,a2,0x10
    5110:	00c68633          	add	a2,a3,a2
    5114:	000046b7          	lui	a3,0x4
    5118:	8e468693          	addi	a3,a3,-1820 # 38e4 <T10_start+0x47c>
    511c:	00d60633          	add	a2,a2,a3
    5120:	41f65313          	srai	t1,a2,0x1f
    5124:	02f30333          	mul	t1,t1,a5
    5128:	02c806b3          	mul	a3,a6,a2
    512c:	00d30333          	add	t1,t1,a3
    5130:	02f606b3          	mul	a3,a2,a5
    5134:	02f63633          	mulhu	a2,a2,a5
    5138:	00c30633          	add	a2,t1,a2
    513c:	01061613          	slli	a2,a2,0x10
    5140:	0106d693          	srli	a3,a3,0x10
    5144:	00d606b3          	add	a3,a2,a3
    5148:	00006637          	lui	a2,0x6
    514c:	66660613          	addi	a2,a2,1638 # 6666 <T18_end+0x6>
    5150:	00c686b3          	add	a3,a3,a2
    5154:	41f6d613          	srai	a2,a3,0x1f
    5158:	02f60633          	mul	a2,a2,a5
    515c:	02d80833          	mul	a6,a6,a3
    5160:	01060633          	add	a2,a2,a6
    5164:	02f68833          	mul	a6,a3,a5
    5168:	02f6b6b3          	mulhu	a3,a3,a5
    516c:	00d607b3          	add	a5,a2,a3
    5170:	01079793          	slli	a5,a5,0x10
    5174:	01085693          	srli	a3,a6,0x10
    5178:	00d786b3          	add	a3,a5,a3
    517c:	00d888b3          	add	a7,a7,a3
    5180:	00412783          	lw	a5,4(sp)
    5184:	411787b3          	sub	a5,a5,a7
    5188:	41f7d693          	srai	a3,a5,0x1f
    518c:	02a686b3          	mul	a3,a3,a0
    5190:	02f585b3          	mul	a1,a1,a5
    5194:	00b686b3          	add	a3,a3,a1
    5198:	02a78633          	mul	a2,a5,a0
    519c:	02a7b7b3          	mulhu	a5,a5,a0
    51a0:	00f687b3          	add	a5,a3,a5
    51a4:	01079793          	slli	a5,a5,0x10
    51a8:	01065693          	srli	a3,a2,0x10
    51ac:	00d786b3          	add	a3,a5,a3
    51b0:	40d70733          	sub	a4,a4,a3
    51b4:	0084ab83          	lw	s7,8(s1)
    51b8:	41fbd793          	srai	a5,s7,0x1f
    51bc:	00f12423          	sw	a5,8(sp)
    51c0:	41f75793          	srai	a5,a4,0x1f
    51c4:	037787b3          	mul	a5,a5,s7
    51c8:	00812683          	lw	a3,8(sp)
    51cc:	02e686b3          	mul	a3,a3,a4
    51d0:	00d787b3          	add	a5,a5,a3
    51d4:	037706b3          	mul	a3,a4,s7
    51d8:	03773733          	mulhu	a4,a4,s7
    51dc:	00e787b3          	add	a5,a5,a4
    51e0:	01079793          	slli	a5,a5,0x10
    51e4:	0106d713          	srli	a4,a3,0x10
    51e8:	00e787b3          	add	a5,a5,a4
    51ec:	68078a63          	beqz	a5,5880 <T13_end+0x94>
    51f0:	40f006b3          	neg	a3,a5
    51f4:	0ad7e6b3          	max	a3,a5,a3
    51f8:	41f6d713          	srai	a4,a3,0x1f
    51fc:	00017637          	lui	a2,0x17
    5200:	15460613          	addi	a2,a2,340 # 17154 <heap.cpp.6b15d6f6+0x19a4>
    5204:	02c70733          	mul	a4,a4,a2
    5208:	02c68b33          	mul	s6,a3,a2
    520c:	02c6b6b3          	mulhu	a3,a3,a2
    5210:	00d70733          	add	a4,a4,a3
    5214:	01071713          	slli	a4,a4,0x10
    5218:	010b5b13          	srli	s6,s6,0x10
    521c:	01670b33          	add	s6,a4,s6
    5220:	00008737          	lui	a4,0x8
    5224:	00eb0b33          	add	s6,s6,a4
    5228:	ffff0737          	lui	a4,0xffff0
    522c:	00eb7b33          	and	s6,s6,a4
    5230:	6207ca63          	bltz	a5,5864 <T13_end+0x78>
    5234:	41fb5713          	srai	a4,s6,0x1f
    5238:	0000b6b7          	lui	a3,0xb
    523c:	17268693          	addi	a3,a3,370 # b172 <__divdf3+0x6c2>
    5240:	02d70733          	mul	a4,a4,a3
    5244:	02db0633          	mul	a2,s6,a3
    5248:	02db36b3          	mulhu	a3,s6,a3
    524c:	00d70733          	add	a4,a4,a3
    5250:	01071713          	slli	a4,a4,0x10
    5254:	01065693          	srli	a3,a2,0x10
    5258:	00d706b3          	add	a3,a4,a3
    525c:	40d787b3          	sub	a5,a5,a3
    5260:	41f7d713          	srai	a4,a5,0x1f
    5264:	02f70733          	mul	a4,a4,a5
    5268:	02f78633          	mul	a2,a5,a5
    526c:	02f7b6b3          	mulhu	a3,a5,a5
    5270:	20d72733          	sh1add	a4,a4,a3
    5274:	01071713          	slli	a4,a4,0x10
    5278:	01065613          	srli	a2,a2,0x10
    527c:	00c70633          	add	a2,a4,a2
    5280:	41f65513          	srai	a0,a2,0x1f
    5284:	01e65713          	srli	a4,a2,0x1e
    5288:	20e54733          	sh2add	a4,a0,a4
    528c:	00261693          	slli	a3,a2,0x2
    5290:	01071713          	slli	a4,a4,0x10
    5294:	0106d693          	srli	a3,a3,0x10
    5298:	00d706b3          	add	a3,a4,a3
    529c:	f4a68693          	addi	a3,a3,-182
    52a0:	41f6d593          	srai	a1,a3,0x1f
    52a4:	02c585b3          	mul	a1,a1,a2
    52a8:	02d50733          	mul	a4,a0,a3
    52ac:	00e585b3          	add	a1,a1,a4
    52b0:	02c68733          	mul	a4,a3,a2
    52b4:	02c6b6b3          	mulhu	a3,a3,a2
    52b8:	00d586b3          	add	a3,a1,a3
    52bc:	01069693          	slli	a3,a3,0x10
    52c0:	01075713          	srli	a4,a4,0x10
    52c4:	00e68733          	add	a4,a3,a4
    52c8:	000036b7          	lui	a3,0x3
    52cc:	aab68693          	addi	a3,a3,-1365 # 2aab <T7_start+0x3ef>
    52d0:	00d70733          	add	a4,a4,a3
    52d4:	41f75693          	srai	a3,a4,0x1f
    52d8:	02c686b3          	mul	a3,a3,a2
    52dc:	02e50533          	mul	a0,a0,a4
    52e0:	00a686b3          	add	a3,a3,a0
    52e4:	02c705b3          	mul	a1,a4,a2
    52e8:	02c73733          	mulhu	a4,a4,a2
    52ec:	00e68733          	add	a4,a3,a4
    52f0:	01071713          	slli	a4,a4,0x10
    52f4:	0105d693          	srli	a3,a1,0x10
    52f8:	00d706b3          	add	a3,a4,a3
    52fc:	00020737          	lui	a4,0x20
    5300:	00e686b3          	add	a3,a3,a4
    5304:	40f68633          	sub	a2,a3,a5
    5308:	02f68c63          	beq	a3,a5,5340 <T13_start+0x77c>
    530c:	00f7d713          	srli	a4,a5,0xf
    5310:	01179793          	slli	a5,a5,0x11
    5314:	01071713          	slli	a4,a4,0x10
    5318:	0107d793          	srli	a5,a5,0x10
    531c:	00f707b3          	add	a5,a4,a5
    5320:	41f7d713          	srai	a4,a5,0x1f
    5324:	0107d593          	srli	a1,a5,0x10
    5328:	01071713          	slli	a4,a4,0x10
    532c:	41f65693          	srai	a3,a2,0x1f
    5330:	01079513          	slli	a0,a5,0x10
    5334:	00e585b3          	add	a1,a1,a4
    5338:	451060ef          	jal	bf88 <__divdi3>
    533c:	00050613          	mv	a2,a0
    5340:	000107b7          	lui	a5,0x10
    5344:	00f606b3          	add	a3,a2,a5
    5348:	520b4263          	bltz	s6,586c <T13_end+0x80>
    534c:	410b5b13          	srai	s6,s6,0x10
    5350:	00010737          	lui	a4,0x10
    5354:	01671733          	sll	a4,a4,s6
    5358:	41f75793          	srai	a5,a4,0x1f
    535c:	41f6d613          	srai	a2,a3,0x1f
    5360:	02d787b3          	mul	a5,a5,a3
    5364:	02e60633          	mul	a2,a2,a4
    5368:	00c787b3          	add	a5,a5,a2
    536c:	02d70633          	mul	a2,a4,a3
    5370:	02d73733          	mulhu	a4,a4,a3
    5374:	00e787b3          	add	a5,a5,a4
    5378:	01079793          	slli	a5,a5,0x10
    537c:	01065713          	srli	a4,a2,0x10
    5380:	00e787b3          	add	a5,a5,a4
    5384:	00fc07b3          	add	a5,s8,a5
    5388:	01b787b3          	add	a5,a5,s11
    538c:	12f12823          	sw	a5,304(sp)
    5390:	500c4663          	bltz	s8,589c <T13_end+0xb0>
    5394:	500c0063          	beqz	s8,5894 <T13_end+0xa8>
    5398:	000207b7          	lui	a5,0x20
    539c:	4f87d663          	bge	a5,s8,5888 <T13_end+0x9c>
    53a0:	000c0693          	mv	a3,s8
    53a4:	00000b13          	li	s6,0
    53a8:	4016d693          	srai	a3,a3,0x1
    53ac:	001b0b13          	addi	s6,s6,1
    53b0:	fed7cce3          	blt	a5,a3,53a8 <T13_start+0x7e4>
    53b4:	ffff07b7          	lui	a5,0xffff0
    53b8:	00f687b3          	add	a5,a3,a5
    53bc:	00f12223          	sw	a5,4(sp)
    53c0:	41f7d793          	srai	a5,a5,0x1f
    53c4:	00412703          	lw	a4,4(sp)
    53c8:	01075593          	srli	a1,a4,0x10
    53cc:	01079793          	slli	a5,a5,0x10
    53d0:	00010737          	lui	a4,0x10
    53d4:	00e68633          	add	a2,a3,a4
    53d8:	41f65693          	srai	a3,a2,0x1f
    53dc:	00412703          	lw	a4,4(sp)
    53e0:	01071513          	slli	a0,a4,0x10
    53e4:	00f585b3          	add	a1,a1,a5
    53e8:	3a1060ef          	jal	bf88 <__divdi3>
    53ec:	41f55593          	srai	a1,a0,0x1f
    53f0:	02a587b3          	mul	a5,a1,a0
    53f4:	02a506b3          	mul	a3,a0,a0
    53f8:	02a53733          	mulhu	a4,a0,a0
    53fc:	20e7a7b3          	sh1add	a5,a5,a4
    5400:	01079793          	slli	a5,a5,0x10
    5404:	0106d693          	srli	a3,a3,0x10
    5408:	00d786b3          	add	a3,a5,a3
    540c:	41f6d313          	srai	t1,a3,0x1f
    5410:	02d30733          	mul	a4,t1,a3
    5414:	02d687b3          	mul	a5,a3,a3
    5418:	02d6b633          	mulhu	a2,a3,a3
    541c:	20c72733          	sh1add	a4,a4,a2
    5420:	01071713          	slli	a4,a4,0x10
    5424:	0107d793          	srli	a5,a5,0x10
    5428:	00f707b3          	add	a5,a4,a5
    542c:	41f7d813          	srai	a6,a5,0x1f
    5430:	010b1b13          	slli	s6,s6,0x10
    5434:	41fb5613          	srai	a2,s6,0x1f
    5438:	0000b8b7          	lui	a7,0xb
    543c:	17288893          	addi	a7,a7,370 # b172 <__divdf3+0x6c2>
    5440:	03160633          	mul	a2,a2,a7
    5444:	031b0733          	mul	a4,s6,a7
    5448:	031b3b33          	mulhu	s6,s6,a7
    544c:	01660633          	add	a2,a2,s6
    5450:	01061613          	slli	a2,a2,0x10
    5454:	01075713          	srli	a4,a4,0x10
    5458:	00e60733          	add	a4,a2,a4
    545c:	00412603          	lw	a2,4(sp)
    5460:	00e60733          	add	a4,a2,a4
    5464:	000028b7          	lui	a7,0x2
    5468:	5e288893          	addi	a7,a7,1506 # 25e2 <T6_start+0x392>
    546c:	03180e33          	mul	t3,a6,a7
    5470:	03178633          	mul	a2,a5,a7
    5474:	0317b8b3          	mulhu	a7,a5,a7
    5478:	011e08b3          	add	a7,t3,a7
    547c:	01089893          	slli	a7,a7,0x10
    5480:	01065613          	srli	a2,a2,0x10
    5484:	00c88633          	add	a2,a7,a2
    5488:	000038b7          	lui	a7,0x3
    548c:	e8d88893          	addi	a7,a7,-371 # 2e8d <T9_start+0x2c9>
    5490:	01160633          	add	a2,a2,a7
    5494:	41f65e13          	srai	t3,a2,0x1f
    5498:	02fe0e33          	mul	t3,t3,a5
    549c:	02c808b3          	mul	a7,a6,a2
    54a0:	011e0e33          	add	t3,t3,a7
    54a4:	02f608b3          	mul	a7,a2,a5
    54a8:	02f63633          	mulhu	a2,a2,a5
    54ac:	00ce0633          	add	a2,t3,a2
    54b0:	01061613          	slli	a2,a2,0x10
    54b4:	0108d893          	srli	a7,a7,0x10
    54b8:	011608b3          	add	a7,a2,a7
    54bc:	00005637          	lui	a2,0x5
    54c0:	92560613          	addi	a2,a2,-1755 # 4925 <T12_start+0x765>
    54c4:	00c888b3          	add	a7,a7,a2
    54c8:	41f8de13          	srai	t3,a7,0x1f
    54cc:	02fe0e33          	mul	t3,t3,a5
    54d0:	03180633          	mul	a2,a6,a7
    54d4:	00ce0e33          	add	t3,t3,a2
    54d8:	02f88633          	mul	a2,a7,a5
    54dc:	02f8b8b3          	mulhu	a7,a7,a5
    54e0:	011e08b3          	add	a7,t3,a7
    54e4:	01089893          	slli	a7,a7,0x10
    54e8:	01065613          	srli	a2,a2,0x10
    54ec:	00c88633          	add	a2,a7,a2
    54f0:	0000b8b7          	lui	a7,0xb
    54f4:	aab88893          	addi	a7,a7,-1365 # aaab <__adddf3+0x747>
    54f8:	01160633          	add	a2,a2,a7
    54fc:	41f65893          	srai	a7,a2,0x1f
    5500:	02d888b3          	mul	a7,a7,a3
    5504:	02c30333          	mul	t1,t1,a2
    5508:	00688333          	add	t1,a7,t1
    550c:	02d608b3          	mul	a7,a2,a3
    5510:	02d63633          	mulhu	a2,a2,a3
    5514:	00c306b3          	add	a3,t1,a2
    5518:	01069693          	slli	a3,a3,0x10
    551c:	0108d893          	srli	a7,a7,0x10
    5520:	011688b3          	add	a7,a3,a7
    5524:	000026b7          	lui	a3,0x2
    5528:	73468693          	addi	a3,a3,1844 # 2734 <T7_start+0x78>
    552c:	02d80333          	mul	t1,a6,a3
    5530:	02d78633          	mul	a2,a5,a3
    5534:	02d7b6b3          	mulhu	a3,a5,a3
    5538:	00d306b3          	add	a3,t1,a3
    553c:	01069693          	slli	a3,a3,0x10
    5540:	01065613          	srli	a2,a2,0x10
    5544:	00c68633          	add	a2,a3,a2
    5548:	000046b7          	lui	a3,0x4
    554c:	8e468693          	addi	a3,a3,-1820 # 38e4 <T10_start+0x47c>
    5550:	00d60633          	add	a2,a2,a3
    5554:	41f65313          	srai	t1,a2,0x1f
    5558:	02f30333          	mul	t1,t1,a5
    555c:	02c806b3          	mul	a3,a6,a2
    5560:	00d30333          	add	t1,t1,a3
    5564:	02f606b3          	mul	a3,a2,a5
    5568:	02f63633          	mulhu	a2,a2,a5
    556c:	00c30633          	add	a2,t1,a2
    5570:	01061613          	slli	a2,a2,0x10
    5574:	0106d693          	srli	a3,a3,0x10
    5578:	00d606b3          	add	a3,a2,a3
    557c:	00006637          	lui	a2,0x6
    5580:	66660613          	addi	a2,a2,1638 # 6666 <T18_end+0x6>
    5584:	00c686b3          	add	a3,a3,a2
    5588:	41f6d613          	srai	a2,a3,0x1f
    558c:	02f60633          	mul	a2,a2,a5
    5590:	02d80833          	mul	a6,a6,a3
    5594:	01060633          	add	a2,a2,a6
    5598:	02f68833          	mul	a6,a3,a5
    559c:	02f6b6b3          	mulhu	a3,a3,a5
    55a0:	00d607b3          	add	a5,a2,a3
    55a4:	01079793          	slli	a5,a5,0x10
    55a8:	01085693          	srli	a3,a6,0x10
    55ac:	00d786b3          	add	a3,a5,a3
    55b0:	00d888b3          	add	a7,a7,a3
    55b4:	00412783          	lw	a5,4(sp)
    55b8:	411787b3          	sub	a5,a5,a7
    55bc:	41f7d693          	srai	a3,a5,0x1f
    55c0:	02a686b3          	mul	a3,a3,a0
    55c4:	02f585b3          	mul	a1,a1,a5
    55c8:	00b686b3          	add	a3,a3,a1
    55cc:	02a78633          	mul	a2,a5,a0
    55d0:	02a7b7b3          	mulhu	a5,a5,a0
    55d4:	00f687b3          	add	a5,a3,a5
    55d8:	01079793          	slli	a5,a5,0x10
    55dc:	01065693          	srli	a3,a2,0x10
    55e0:	00d786b3          	add	a3,a5,a3
    55e4:	40d70733          	sub	a4,a4,a3
    55e8:	41f75793          	srai	a5,a4,0x1f
    55ec:	037787b3          	mul	a5,a5,s7
    55f0:	00812683          	lw	a3,8(sp)
    55f4:	02e686b3          	mul	a3,a3,a4
    55f8:	00d787b3          	add	a5,a5,a3
    55fc:	037706b3          	mul	a3,a4,s7
    5600:	03773733          	mulhu	a4,a4,s7
    5604:	00e787b3          	add	a5,a5,a4
    5608:	01079793          	slli	a5,a5,0x10
    560c:	0106d713          	srli	a4,a3,0x10
    5610:	00e787b3          	add	a5,a5,a4
    5614:	28078463          	beqz	a5,589c <T13_end+0xb0>
    5618:	40f006b3          	neg	a3,a5
    561c:	0ad7e6b3          	max	a3,a5,a3
    5620:	41f6d713          	srai	a4,a3,0x1f
    5624:	00017637          	lui	a2,0x17
    5628:	15460613          	addi	a2,a2,340 # 17154 <heap.cpp.6b15d6f6+0x19a4>
    562c:	02c70733          	mul	a4,a4,a2
    5630:	02c68b33          	mul	s6,a3,a2
    5634:	02c6b6b3          	mulhu	a3,a3,a2
    5638:	00d70733          	add	a4,a4,a3
    563c:	01071713          	slli	a4,a4,0x10
    5640:	010b5b13          	srli	s6,s6,0x10
    5644:	01670b33          	add	s6,a4,s6
    5648:	00008737          	lui	a4,0x8
    564c:	00eb0b33          	add	s6,s6,a4
    5650:	ffff0737          	lui	a4,0xffff0
    5654:	00eb7b33          	and	s6,s6,a4
    5658:	2407c663          	bltz	a5,58a4 <T13_end+0xb8>
    565c:	41fb5713          	srai	a4,s6,0x1f
    5660:	0000b6b7          	lui	a3,0xb
    5664:	17268693          	addi	a3,a3,370 # b172 <__divdf3+0x6c2>
    5668:	02d70733          	mul	a4,a4,a3
    566c:	02db0633          	mul	a2,s6,a3
    5670:	02db36b3          	mulhu	a3,s6,a3
    5674:	00d70733          	add	a4,a4,a3
    5678:	01071713          	slli	a4,a4,0x10
    567c:	01065693          	srli	a3,a2,0x10
    5680:	00d706b3          	add	a3,a4,a3
    5684:	40d787b3          	sub	a5,a5,a3
    5688:	41f7d713          	srai	a4,a5,0x1f
    568c:	02f70733          	mul	a4,a4,a5
    5690:	02f78633          	mul	a2,a5,a5
    5694:	02f7b6b3          	mulhu	a3,a5,a5
    5698:	20d72733          	sh1add	a4,a4,a3
    569c:	01071713          	slli	a4,a4,0x10
    56a0:	01065613          	srli	a2,a2,0x10
    56a4:	00c70633          	add	a2,a4,a2
    56a8:	41f65513          	srai	a0,a2,0x1f
    56ac:	01e65713          	srli	a4,a2,0x1e
    56b0:	20e54733          	sh2add	a4,a0,a4
    56b4:	00261693          	slli	a3,a2,0x2
    56b8:	01071713          	slli	a4,a4,0x10
    56bc:	0106d693          	srli	a3,a3,0x10
    56c0:	00d706b3          	add	a3,a4,a3
    56c4:	f4a68693          	addi	a3,a3,-182
    56c8:	41f6d593          	srai	a1,a3,0x1f
    56cc:	02c585b3          	mul	a1,a1,a2
    56d0:	02d50733          	mul	a4,a0,a3
    56d4:	00e585b3          	add	a1,a1,a4
    56d8:	02c68733          	mul	a4,a3,a2
    56dc:	02c6b6b3          	mulhu	a3,a3,a2
    56e0:	00d586b3          	add	a3,a1,a3
    56e4:	01069693          	slli	a3,a3,0x10
    56e8:	01075713          	srli	a4,a4,0x10
    56ec:	00e68733          	add	a4,a3,a4
    56f0:	000036b7          	lui	a3,0x3
    56f4:	aab68693          	addi	a3,a3,-1365 # 2aab <T7_start+0x3ef>
    56f8:	00d70733          	add	a4,a4,a3
    56fc:	41f75693          	srai	a3,a4,0x1f
    5700:	02c686b3          	mul	a3,a3,a2
    5704:	02e50533          	mul	a0,a0,a4
    5708:	00a686b3          	add	a3,a3,a0
