
sw/build/main.elf:     file format elf32-littleriscv


Disassembly of section .vectors:

00000000 <__vector_start>:
   0:	4850706f          	j	7c84 <handler_exception>
   4:	22c0006f          	j	230 <__no_irq_handler>
   8:	2280006f          	j	230 <__no_irq_handler>
   c:	53d0706f          	j	7d48 <handler_irq_software>
  10:	2200006f          	j	230 <__no_irq_handler>
  14:	21c0006f          	j	230 <__no_irq_handler>
  18:	2180006f          	j	230 <__no_irq_handler>
  1c:	5810706f          	j	7d9c <handler_irq_timer>
  20:	2100006f          	j	230 <__no_irq_handler>
  24:	20c0006f          	j	230 <__no_irq_handler>
  28:	2080006f          	j	230 <__no_irq_handler>
  2c:	3a50706f          	j	7bd0 <handler_irq_external>
  30:	2000006f          	j	230 <__no_irq_handler>
  34:	1fc0006f          	j	230 <__no_irq_handler>
  38:	1f80006f          	j	230 <__no_irq_handler>
  3c:	1f40006f          	j	230 <__no_irq_handler>
  40:	3040706f          	j	7344 <handler_irq_fast_timer_1>
  44:	39c0706f          	j	73e0 <handler_irq_fast_timer_2>
  48:	4340706f          	j	747c <handler_irq_fast_timer_3>
  4c:	4cc0706f          	j	7518 <handler_irq_fast_dma_done>
  50:	0800806f          	j	80d0 <handler_irq_fast_spi>
  54:	7210706f          	j	7f74 <handler_irq_fast_spi_flash>
  58:	6940706f          	j	76ec <handler_irq_fast_gpio_0>
  5c:	72c0706f          	j	7788 <handler_irq_fast_gpio_1>
  60:	7c40706f          	j	7824 <handler_irq_fast_gpio_2>
  64:	05d0706f          	j	78c0 <handler_irq_fast_gpio_3>
  68:	0f50706f          	j	795c <handler_irq_fast_gpio_4>
  6c:	18d0706f          	j	79f8 <handler_irq_fast_gpio_5>
  70:	2290706f          	j	7a98 <handler_irq_fast_gpio_6>
  74:	2c10706f          	j	7b34 <handler_irq_fast_gpio_7>
  78:	53c0706f          	j	75b4 <handler_irq_fast_dma_window>
  7c:	5d40706f          	j	7650 <handler_irq_fast_external_peripheral>

Disassembly of section .init:

00000180 <_start>:
 180:	00023197          	auipc	gp,0x23
 184:	2f818193          	addi	gp,gp,760 # 23478 <__global_pointer$>
 188:	0002b117          	auipc	sp,0x2b
 18c:	eb810113          	addi	sp,sp,-328 # 2b040 <_sp>
 190:	20000537          	lui	a0,0x20000
 194:	05f5e637          	lui	a2,0x5f5e
 198:	10060613          	addi	a2,a2,256 # 5f5e100 <_sp+0x5f330c0>
 19c:	00c52e23          	sw	a2,28(a0) # 2000001c <_sp+0x1ffd4fdc>

000001a0 <_init_bss>:
 1a0:	00023517          	auipc	a0,0x23
 1a4:	c4050513          	addi	a0,a0,-960 # 22de0 <__stdio_exit_handler>
 1a8:	00023617          	auipc	a2,0x23
 1ac:	e8c60613          	addi	a2,a2,-372 # 23034 <__BSS_END__>
 1b0:	40a60633          	sub	a2,a2,a0
 1b4:	00000593          	li	a1,0
 1b8:	4e8080ef          	jal	86a0 <memset>
 1bc:	00000517          	auipc	a0,0x0
 1c0:	e4450513          	addi	a0,a0,-444 # 0 <__vector_start>
 1c4:	00156513          	ori	a0,a0,1
 1c8:	30551073          	csrw	mtvec,a0
 1cc:	00008517          	auipc	a0,0x8
 1d0:	47c50513          	addi	a0,a0,1148 # 8648 <__libc_fini_array>
 1d4:	799070ef          	jal	816c <atexit>
 1d8:	3dc080ef          	jal	85b4 <__libc_init_array>
 1dc:	00012503          	lw	a0,0(sp)
 1e0:	00410593          	addi	a1,sp,4
 1e4:	00000613          	li	a2,0
 1e8:	1c00c0ef          	jal	c3a8 <main>
 1ec:	00c0006f          	j	1f8 <exit>

000001f0 <_init>:
 1f0:	401070ef          	jal	7df0 <init>

000001f4 <_fini>:
 1f4:	00008067          	ret

Disassembly of section .text:

000001f8 <exit>:
     1f8:	ff010113          	addi	sp,sp,-16
     1fc:	000087b7          	lui	a5,0x8
     200:	00812423          	sw	s0,8(sp)
     204:	00112623          	sw	ra,12(sp)
     208:	75078793          	addi	a5,a5,1872 # 8750 <__call_exitprocs>
     20c:	00050413          	mv	s0,a0
     210:	00078663          	beqz	a5,21c <exit+0x24>
     214:	00000593          	li	a1,0
     218:	538080ef          	jal	8750 <__call_exitprocs>
     21c:	9681a783          	lw	a5,-1688(gp) # 22de0 <__stdio_exit_handler>
     220:	00078463          	beqz	a5,228 <exit+0x30>
     224:	000780e7          	jalr	a5
     228:	00040513          	mv	a0,s0
     22c:	3d5070ef          	jal	7e00 <_exit>

00000230 <__no_irq_handler>:
     230:	0000006f          	j	230 <__no_irq_handler>

00000234 <fic_irq_dma_window>:
     234:	fe010113          	addi	sp,sp,-32
     238:	00112e23          	sw	ra,28(sp)
     23c:	00812c23          	sw	s0,24(sp)
     240:	02010413          	addi	s0,sp,32
     244:	fe042623          	sw	zero,-20(s0)
     248:	04c0006f          	j	294 <fic_irq_dma_window+0x60>
     24c:	98c18693          	addi	a3,gp,-1652 # 22e04 <dma_subsys_per>
     250:	fec42703          	lw	a4,-20(s0)
     254:	00070793          	mv	a5,a4
     258:	00179793          	slli	a5,a5,0x1
     25c:	00e787b3          	add	a5,a5,a4
     260:	00279793          	slli	a5,a5,0x2
     264:	00f687b3          	add	a5,a3,a5
     268:	0087a783          	lw	a5,8(a5)
     26c:	0687a703          	lw	a4,104(a5)
     270:	00100793          	li	a5,1
     274:	00f71a63          	bne	a4,a5,288 <fic_irq_dma_window+0x54>
     278:	fec42783          	lw	a5,-20(s0)
     27c:	0ff7f793          	zext.b	a5,a5
     280:	00078513          	mv	a0,a5
     284:	100000ef          	jal	384 <dma_intr_handler_window_done>
     288:	fec42783          	lw	a5,-20(s0)
     28c:	00178793          	addi	a5,a5,1
     290:	fef42623          	sw	a5,-20(s0)
     294:	fec42703          	lw	a4,-20(s0)
     298:	00300793          	li	a5,3
     29c:	fae7d8e3          	bge	a5,a4,24c <fic_irq_dma_window+0x18>
     2a0:	00000013          	nop
     2a4:	01c12083          	lw	ra,28(sp)
     2a8:	01812403          	lw	s0,24(sp)
     2ac:	02010113          	addi	sp,sp,32
     2b0:	00008067          	ret

000002b4 <fic_irq_dma_done>:
     2b4:	fe010113          	addi	sp,sp,-32
     2b8:	00112e23          	sw	ra,28(sp)
     2bc:	00812c23          	sw	s0,24(sp)
     2c0:	02010413          	addi	s0,sp,32
     2c4:	fe042623          	sw	zero,-20(s0)
     2c8:	0700006f          	j	338 <fic_irq_dma_done+0x84>
     2cc:	98c18693          	addi	a3,gp,-1652 # 22e04 <dma_subsys_per>
     2d0:	fec42703          	lw	a4,-20(s0)
     2d4:	00070793          	mv	a5,a4
     2d8:	00179793          	slli	a5,a5,0x1
     2dc:	00e787b3          	add	a5,a5,a4
     2e0:	00279793          	slli	a5,a5,0x2
     2e4:	00f687b3          	add	a5,a3,a5
     2e8:	0087a783          	lw	a5,8(a5)
     2ec:	0647a703          	lw	a4,100(a5)
     2f0:	00100793          	li	a5,1
     2f4:	02f71c63          	bne	a4,a5,32c <fic_irq_dma_done+0x78>
     2f8:	98c18693          	addi	a3,gp,-1652 # 22e04 <dma_subsys_per>
     2fc:	fec42703          	lw	a4,-20(s0)
     300:	00070793          	mv	a5,a4
     304:	00179793          	slli	a5,a5,0x1
     308:	00e787b3          	add	a5,a5,a4
     30c:	00279793          	slli	a5,a5,0x2
     310:	00f687b3          	add	a5,a3,a5
     314:	00100713          	li	a4,1
     318:	00e78223          	sb	a4,4(a5)
     31c:	fec42783          	lw	a5,-20(s0)
     320:	0ff7f793          	zext.b	a5,a5
     324:	00078513          	mv	a0,a5
     328:	030000ef          	jal	358 <dma_intr_handler_trans_done>
     32c:	fec42783          	lw	a5,-20(s0)
     330:	00178793          	addi	a5,a5,1
     334:	fef42623          	sw	a5,-20(s0)
     338:	fec42703          	lw	a4,-20(s0)
     33c:	00300793          	li	a5,3
     340:	f8e7d6e3          	bge	a5,a4,2cc <fic_irq_dma_done+0x18>
     344:	00000013          	nop
     348:	01c12083          	lw	ra,28(sp)
     34c:	01812403          	lw	s0,24(sp)
     350:	02010113          	addi	sp,sp,32
     354:	00008067          	ret

00000358 <dma_intr_handler_trans_done>:
     358:	fe010113          	addi	sp,sp,-32
     35c:	00112e23          	sw	ra,28(sp)
     360:	00812c23          	sw	s0,24(sp)
     364:	02010413          	addi	s0,sp,32
     368:	00050793          	mv	a5,a0
     36c:	fef407a3          	sb	a5,-17(s0)
     370:	00000013          	nop
     374:	01c12083          	lw	ra,28(sp)
     378:	01812403          	lw	s0,24(sp)
     37c:	02010113          	addi	sp,sp,32
     380:	00008067          	ret

00000384 <dma_intr_handler_window_done>:
     384:	fe010113          	addi	sp,sp,-32
     388:	00112e23          	sw	ra,28(sp)
     38c:	00812c23          	sw	s0,24(sp)
     390:	02010413          	addi	s0,sp,32
     394:	00050793          	mv	a5,a0
     398:	fef407a3          	sb	a5,-17(s0)
     39c:	00000013          	nop
     3a0:	01c12083          	lw	ra,28(sp)
     3a4:	01812403          	lw	s0,24(sp)
     3a8:	02010113          	addi	sp,sp,32
     3ac:	00008067          	ret

000003b0 <fic_irq_timer_1>:
     3b0:	ff010113          	addi	sp,sp,-16
     3b4:	00112623          	sw	ra,12(sp)
     3b8:	00812423          	sw	s0,8(sp)
     3bc:	01010413          	addi	s0,sp,16
     3c0:	00000013          	nop
     3c4:	00c12083          	lw	ra,12(sp)
     3c8:	00812403          	lw	s0,8(sp)
     3cc:	01010113          	addi	sp,sp,16
     3d0:	00008067          	ret

000003d4 <fic_irq_timer_2>:
     3d4:	ff010113          	addi	sp,sp,-16
     3d8:	00112623          	sw	ra,12(sp)
     3dc:	00812423          	sw	s0,8(sp)
     3e0:	01010413          	addi	s0,sp,16
     3e4:	00000013          	nop
     3e8:	00c12083          	lw	ra,12(sp)
     3ec:	00812403          	lw	s0,8(sp)
     3f0:	01010113          	addi	sp,sp,16
     3f4:	00008067          	ret

000003f8 <fic_irq_timer_3>:
     3f8:	ff010113          	addi	sp,sp,-16
     3fc:	00112623          	sw	ra,12(sp)
     400:	00812423          	sw	s0,8(sp)
     404:	01010413          	addi	s0,sp,16
     408:	00000013          	nop
     40c:	00c12083          	lw	ra,12(sp)
     410:	00812403          	lw	s0,8(sp)
     414:	01010113          	addi	sp,sp,16
     418:	00008067          	ret

0000041c <fic_irq_ext_peripheral>:
     41c:	ff010113          	addi	sp,sp,-16
     420:	00112623          	sw	ra,12(sp)
     424:	00812423          	sw	s0,8(sp)
     428:	01010413          	addi	s0,sp,16
     42c:	00000013          	nop
     430:	00c12083          	lw	ra,12(sp)
     434:	00812403          	lw	s0,8(sp)
     438:	01010113          	addi	sp,sp,16
     43c:	00008067          	ret

00000440 <fic_irq_gpio_0>:
     440:	ff010113          	addi	sp,sp,-16
     444:	00112623          	sw	ra,12(sp)
     448:	00812423          	sw	s0,8(sp)
     44c:	01010413          	addi	s0,sp,16
     450:	00000013          	nop
     454:	00c12083          	lw	ra,12(sp)
     458:	00812403          	lw	s0,8(sp)
     45c:	01010113          	addi	sp,sp,16
     460:	00008067          	ret

00000464 <fic_irq_gpio_1>:
     464:	ff010113          	addi	sp,sp,-16
     468:	00112623          	sw	ra,12(sp)
     46c:	00812423          	sw	s0,8(sp)
     470:	01010413          	addi	s0,sp,16
     474:	00000013          	nop
     478:	00c12083          	lw	ra,12(sp)
     47c:	00812403          	lw	s0,8(sp)
     480:	01010113          	addi	sp,sp,16
     484:	00008067          	ret

00000488 <fic_irq_gpio_2>:
     488:	ff010113          	addi	sp,sp,-16
     48c:	00112623          	sw	ra,12(sp)
     490:	00812423          	sw	s0,8(sp)
     494:	01010413          	addi	s0,sp,16
     498:	00000013          	nop
     49c:	00c12083          	lw	ra,12(sp)
     4a0:	00812403          	lw	s0,8(sp)
     4a4:	01010113          	addi	sp,sp,16
     4a8:	00008067          	ret

000004ac <fic_irq_gpio_3>:
     4ac:	ff010113          	addi	sp,sp,-16
     4b0:	00112623          	sw	ra,12(sp)
     4b4:	00812423          	sw	s0,8(sp)
     4b8:	01010413          	addi	s0,sp,16
     4bc:	00000013          	nop
     4c0:	00c12083          	lw	ra,12(sp)
     4c4:	00812403          	lw	s0,8(sp)
     4c8:	01010113          	addi	sp,sp,16
     4cc:	00008067          	ret

000004d0 <fic_irq_gpio_4>:
     4d0:	ff010113          	addi	sp,sp,-16
     4d4:	00112623          	sw	ra,12(sp)
     4d8:	00812423          	sw	s0,8(sp)
     4dc:	01010413          	addi	s0,sp,16
     4e0:	00000013          	nop
     4e4:	00c12083          	lw	ra,12(sp)
     4e8:	00812403          	lw	s0,8(sp)
     4ec:	01010113          	addi	sp,sp,16
     4f0:	00008067          	ret

000004f4 <fic_irq_gpio_5>:
     4f4:	ff010113          	addi	sp,sp,-16
     4f8:	00112623          	sw	ra,12(sp)
     4fc:	00812423          	sw	s0,8(sp)
     500:	01010413          	addi	s0,sp,16
     504:	00000013          	nop
     508:	00c12083          	lw	ra,12(sp)
     50c:	00812403          	lw	s0,8(sp)
     510:	01010113          	addi	sp,sp,16
     514:	00008067          	ret

00000518 <fic_irq_gpio_6>:
     518:	ff010113          	addi	sp,sp,-16
     51c:	00112623          	sw	ra,12(sp)
     520:	00812423          	sw	s0,8(sp)
     524:	01010413          	addi	s0,sp,16
     528:	00000013          	nop
     52c:	00c12083          	lw	ra,12(sp)
     530:	00812403          	lw	s0,8(sp)
     534:	01010113          	addi	sp,sp,16
     538:	00008067          	ret

0000053c <fic_irq_gpio_7>:
     53c:	ff010113          	addi	sp,sp,-16
     540:	00112623          	sw	ra,12(sp)
     544:	00812423          	sw	s0,8(sp)
     548:	01010413          	addi	s0,sp,16
     54c:	00000013          	nop
     550:	00c12083          	lw	ra,12(sp)
     554:	00812403          	lw	s0,8(sp)
     558:	01010113          	addi	sp,sp,16
     55c:	00008067          	ret

00000560 <spi_get_events>:
     560:	ff010113          	addi	sp,sp,-16
     564:	01452783          	lw	a5,20(a0)
     568:	00f12623          	sw	a5,12(sp)
     56c:	00c12683          	lw	a3,12(sp)
     570:	0196d693          	srli	a3,a3,0x19
     574:	0016f693          	andi	a3,a3,1
     578:	0005a783          	lw	a5,0(a1)
     57c:	00c12703          	lw	a4,12(sp)
     580:	01b75713          	srli	a4,a4,0x1b
     584:	ffc7f793          	andi	a5,a5,-4
     588:	00d7e7b3          	or	a5,a5,a3
     58c:	00c12683          	lw	a3,12(sp)
     590:	0126d693          	srli	a3,a3,0x12
     594:	00277713          	andi	a4,a4,2
     598:	00f76733          	or	a4,a4,a5
     59c:	00c12783          	lw	a5,12(sp)
     5a0:	0177d793          	srli	a5,a5,0x17
     5a4:	0046f693          	andi	a3,a3,4
     5a8:	ff377713          	andi	a4,a4,-13
     5ac:	00d76733          	or	a4,a4,a3
     5b0:	00c12683          	lw	a3,12(sp)
     5b4:	01f6d693          	srli	a3,a3,0x1f
     5b8:	0087f793          	andi	a5,a5,8
     5bc:	00e7e7b3          	or	a5,a5,a4
     5c0:	00c12703          	lw	a4,12(sp)
     5c4:	01975713          	srli	a4,a4,0x19
     5c8:	00469693          	slli	a3,a3,0x4
     5cc:	fcf7f793          	andi	a5,a5,-49
     5d0:	00d7e7b3          	or	a5,a5,a3
     5d4:	02077713          	andi	a4,a4,32
     5d8:	02074713          	xori	a4,a4,32
     5dc:	00f767b3          	or	a5,a4,a5
     5e0:	00f5a023          	sw	a5,0(a1)
     5e4:	00000513          	li	a0,0
     5e8:	01010113          	addi	sp,sp,16
     5ec:	00008067          	ret

000005f0 <_write>:
     5f0:	00100793          	li	a5,1
     5f4:	08f51063          	bne	a0,a5,674 <_write+0x84>
     5f8:	200007b7          	lui	a5,0x20000
     5fc:	01c7a783          	lw	a5,28(a5) # 2000001c <_sp+0x1ffd4fdc>
     600:	08078263          	beqz	a5,684 <_write+0x94>
     604:	300807b7          	lui	a5,0x30080
     608:	0007a623          	sw	zero,12(a5) # 3008000c <_sp+0x30054fcc>
     60c:	00300713          	li	a4,3
     610:	00e7ae23          	sw	a4,28(a5)
     614:	0207a223          	sw	zero,36(a5)
     618:	0207a623          	sw	zero,44(a5)
     61c:	0007a223          	sw	zero,4(a5)
     620:	fff00713          	li	a4,-1
     624:	00e7a023          	sw	a4,0(a5)
     628:	0a7c0737          	lui	a4,0xa7c0
     62c:	00370713          	addi	a4,a4,3 # a7c0003 <_sp+0xa794fc3>
     630:	00e7a623          	sw	a4,12(a5)
     634:	0007a223          	sw	zero,4(a5)
     638:	02060a63          	beqz	a2,66c <_write+0x7c>
     63c:	00c58833          	add	a6,a1,a2
     640:	00078713          	mv	a4,a5
     644:	0005c683          	lbu	a3,0(a1)
     648:	01072783          	lw	a5,16(a4)
     64c:	0017f793          	andi	a5,a5,1
     650:	fe079ce3          	bnez	a5,648 <_write+0x58>
     654:	00d72c23          	sw	a3,24(a4)
     658:	01072783          	lw	a5,16(a4)
     65c:	0087f793          	andi	a5,a5,8
     660:	fe078ce3          	beqz	a5,658 <_write+0x68>
     664:	00158593          	addi	a1,a1,1
     668:	fd059ee3          	bne	a1,a6,644 <_write+0x54>
     66c:	00060513          	mv	a0,a2
     670:	00008067          	ret
     674:	05800713          	li	a4,88
     678:	96e1a623          	sw	a4,-1684(gp) # 22de4 <errno>
     67c:	fff00613          	li	a2,-1
     680:	fedff06f          	j	66c <_write+0x7c>
     684:	05800713          	li	a4,88
     688:	96e1a623          	sw	a4,-1684(gp) # 22de4 <errno>
     68c:	ff1ff06f          	j	67c <_write+0x8c>

00000690 <spi_empty_rx>:
     690:	02452783          	lw	a5,36(a0)
     694:	00078863          	beqz	a5,6a4 <spi_empty_rx+0x14>
     698:	03452783          	lw	a5,52(a0)
     69c:	02852703          	lw	a4,40(a0)
     6a0:	02e7e863          	bltu	a5,a4,6d0 <spi_empty_rx+0x40>
     6a4:	00000513          	li	a0,0
     6a8:	00008067          	ret
     6ac:	0286a703          	lw	a4,40(a3)
     6b0:	02452683          	lw	a3,36(a0)
     6b4:	20d7c7b3          	sh2add	a5,a5,a3
     6b8:	00e7a023          	sw	a4,0(a5)
     6bc:	03452783          	lw	a5,52(a0)
     6c0:	00178793          	addi	a5,a5,1
     6c4:	02f52a23          	sw	a5,52(a0)
     6c8:	02852703          	lw	a4,40(a0)
     6cc:	00e7fe63          	bgeu	a5,a4,6e8 <spi_empty_rx+0x58>
     6d0:	00052683          	lw	a3,0(a0)
     6d4:	00068a63          	beqz	a3,6e8 <spi_empty_rx+0x58>
     6d8:	0146a703          	lw	a4,20(a3)
     6dc:	00875713          	srli	a4,a4,0x8
     6e0:	0ff77713          	zext.b	a4,a4
     6e4:	fc0714e3          	bnez	a4,6ac <spi_empty_rx+0x1c>
     6e8:	00100513          	li	a0,1
     6ec:	00008067          	ret

000006f0 <spi_event_handler>:
     6f0:	ff010113          	addi	sp,sp,-16
     6f4:	00112623          	sw	ra,12(sp)
     6f8:	00912423          	sw	s1,8(sp)
     6fc:	01212223          	sw	s2,4(sp)
     700:	00050493          	mv	s1,a0
     704:	00058913          	mv	s2,a1
     708:	0105f793          	andi	a5,a1,16
     70c:	02078063          	beqz	a5,72c <spi_event_handler+0x3c>
     710:	01452703          	lw	a4,20(a0)
     714:	00070863          	beqz	a4,724 <spi_event_handler+0x34>
     718:	02c52683          	lw	a3,44(a0)
     71c:	01854783          	lbu	a5,24(a0)
     720:	02f6e863          	bltu	a3,a5,750 <spi_event_handler+0x60>
     724:	02097793          	andi	a5,s2,32
     728:	0a079e63          	bnez	a5,7e4 <spi_event_handler+0xf4>
     72c:	00897793          	andi	a5,s2,8
     730:	14079063          	bnez	a5,870 <spi_event_handler+0x180>
     734:	00497913          	andi	s2,s2,4
     738:	1a091663          	bnez	s2,8e4 <spi_event_handler+0x1f4>
     73c:	00c12083          	lw	ra,12(sp)
     740:	00812483          	lw	s1,8(sp)
     744:	00412903          	lw	s2,4(sp)
     748:	01010113          	addi	sp,sp,16
     74c:	00008067          	ret
     750:	20e6c733          	sh2add	a4,a3,a4
     754:	00072703          	lw	a4,0(a4)
     758:	00871613          	slli	a2,a4,0x8
     75c:	00865593          	srli	a1,a2,0x8
     760:	01875713          	srli	a4,a4,0x18
     764:	00f77613          	andi	a2,a4,15
     768:	00168693          	addi	a3,a3,1
     76c:	02d52623          	sw	a3,44(a0)
     770:	00052503          	lw	a0,0(a0)
     774:	fa050ce3          	beqz	a0,72c <spi_event_handler+0x3c>
     778:	00265713          	srli	a4,a2,0x2
     77c:	01971713          	slli	a4,a4,0x19
     780:	00367613          	andi	a2,a2,3
     784:	01b61613          	slli	a2,a2,0x1b
     788:	00c76733          	or	a4,a4,a2
     78c:	40d787b3          	sub	a5,a5,a3
     790:	00f037b3          	snez	a5,a5
     794:	01879793          	slli	a5,a5,0x18
     798:	00f767b3          	or	a5,a4,a5
     79c:	fff58613          	addi	a2,a1,-1
     7a0:	00861613          	slli	a2,a2,0x8
     7a4:	00865613          	srli	a2,a2,0x8
     7a8:	00c7e633          	or	a2,a5,a2
     7ac:	0197d793          	srli	a5,a5,0x19
     7b0:	0037f793          	andi	a5,a5,3
     7b4:	00200713          	li	a4,2
     7b8:	14f76c63          	bltu	a4,a5,910 <spi_event_handler+0x220>
     7bc:	01452703          	lw	a4,20(a0)
     7c0:	f60756e3          	bgez	a4,72c <spi_event_handler+0x3c>
     7c4:	01b65713          	srli	a4,a2,0x1b
     7c8:	ffd70713          	addi	a4,a4,-3
     7cc:	00173713          	seqz	a4,a4
     7d0:	00f037b3          	snez	a5,a5
     7d4:	00f777b3          	and	a5,a4,a5
     7d8:	f4079ae3          	bnez	a5,72c <spi_event_handler+0x3c>
     7dc:	02c52223          	sw	a2,36(a0)
     7e0:	f4dff06f          	j	72c <spi_event_handler+0x3c>
     7e4:	0004a783          	lw	a5,0(s1)
     7e8:	02078263          	beqz	a5,80c <spi_event_handler+0x11c>
     7ec:	0387a703          	lw	a4,56(a5)
     7f0:	fc077713          	andi	a4,a4,-64
     7f4:	02e7ac23          	sw	a4,56(a5)
     7f8:	0004a783          	lw	a5,0(s1)
     7fc:	00078863          	beqz	a5,80c <spi_event_handler+0x11c>
     800:	0047a703          	lw	a4,4(a5)
     804:	ffd77713          	andi	a4,a4,-3
     808:	00e7a223          	sw	a4,4(a5)
     80c:	00048513          	mv	a0,s1
     810:	e81ff0ef          	jal	690 <spi_empty_rx>
     814:	00400793          	li	a5,4
     818:	00f4a823          	sw	a5,16(s1)
     81c:	0384a783          	lw	a5,56(s1)
     820:	00078c63          	beqz	a5,838 <spi_event_handler+0x148>
     824:	0344a683          	lw	a3,52(s1)
     828:	0244a603          	lw	a2,36(s1)
     82c:	0304a583          	lw	a1,48(s1)
     830:	01c4a503          	lw	a0,28(s1)
     834:	000780e7          	jalr	a5
     838:	0204a623          	sw	zero,44(s1)
     83c:	0204a823          	sw	zero,48(s1)
     840:	0204aa23          	sw	zero,52(s1)
     844:	0004aa23          	sw	zero,20(s1)
     848:	0004ac23          	sw	zero,24(s1)
     84c:	0004ae23          	sw	zero,28(s1)
     850:	0204a023          	sw	zero,32(s1)
     854:	0204a223          	sw	zero,36(s1)
     858:	0204a423          	sw	zero,40(s1)
     85c:	0204ac23          	sw	zero,56(s1)
     860:	0204ae23          	sw	zero,60(s1)
     864:	0404a023          	sw	zero,64(s1)
     868:	0404a223          	sw	zero,68(s1)
     86c:	ed1ff06f          	j	73c <spi_event_handler+0x4c>
     870:	01c4a783          	lw	a5,28(s1)
     874:	ec0780e3          	beqz	a5,734 <spi_event_handler+0x44>
     878:	0304a783          	lw	a5,48(s1)
     87c:	0204a703          	lw	a4,32(s1)
     880:	eae7fae3          	bgeu	a5,a4,734 <spi_event_handler+0x44>
     884:	04700613          	li	a2,71
     888:	0280006f          	j	8b0 <spi_event_handler+0x1c0>
     88c:	01c4a683          	lw	a3,28(s1)
     890:	20d7c7b3          	sh2add	a5,a5,a3
     894:	0007a783          	lw	a5,0(a5)
     898:	02f72623          	sw	a5,44(a4)
     89c:	0304a783          	lw	a5,48(s1)
     8a0:	00178793          	addi	a5,a5,1
     8a4:	02f4a823          	sw	a5,48(s1)
     8a8:	0204a703          	lw	a4,32(s1)
     8ac:	00e7fc63          	bgeu	a5,a4,8c4 <spi_event_handler+0x1d4>
     8b0:	0004a703          	lw	a4,0(s1)
     8b4:	00070863          	beqz	a4,8c4 <spi_event_handler+0x1d4>
     8b8:	01472683          	lw	a3,20(a4)
     8bc:	0ff6f693          	zext.b	a3,a3
     8c0:	fcd676e3          	bgeu	a2,a3,88c <spi_event_handler+0x19c>
     8c4:	03c4a783          	lw	a5,60(s1)
     8c8:	e60786e3          	beqz	a5,734 <spi_event_handler+0x44>
     8cc:	0344a683          	lw	a3,52(s1)
     8d0:	0244a603          	lw	a2,36(s1)
     8d4:	0304a583          	lw	a1,48(s1)
     8d8:	01c4a503          	lw	a0,28(s1)
     8dc:	000780e7          	jalr	a5
     8e0:	e55ff06f          	j	734 <spi_event_handler+0x44>
     8e4:	00048513          	mv	a0,s1
     8e8:	da9ff0ef          	jal	690 <spi_empty_rx>
     8ec:	e40508e3          	beqz	a0,73c <spi_event_handler+0x4c>
     8f0:	0404a783          	lw	a5,64(s1)
     8f4:	e40784e3          	beqz	a5,73c <spi_event_handler+0x4c>
     8f8:	0344a683          	lw	a3,52(s1)
     8fc:	0244a603          	lw	a2,36(s1)
     900:	0304a583          	lw	a1,48(s1)
     904:	01c4a503          	lw	a0,28(s1)
     908:	000780e7          	jalr	a5
     90c:	e31ff06f          	j	73c <spi_event_handler+0x4c>
     910:	01452783          	lw	a5,20(a0)
     914:	e19ff06f          	j	72c <spi_event_handler+0x3c>

00000918 <spi_error_handler>:
     918:	fe010113          	addi	sp,sp,-32
     91c:	00112e23          	sw	ra,28(sp)
     920:	00912c23          	sw	s1,24(sp)
     924:	00050493          	mv	s1,a0
     928:	00052783          	lw	a5,0(a0)
     92c:	02078263          	beqz	a5,950 <spi_error_handler+0x38>
     930:	0387a703          	lw	a4,56(a5)
     934:	fc077713          	andi	a4,a4,-64
     938:	02e7ac23          	sw	a4,56(a5)
     93c:	00052783          	lw	a5,0(a0)
     940:	00078863          	beqz	a5,950 <spi_error_handler+0x38>
     944:	0047a703          	lw	a4,4(a5)
     948:	ffd77713          	andi	a4,a4,-3
     94c:	00e7a223          	sw	a4,4(a5)
     950:	0444a783          	lw	a5,68(s1)
     954:	00078c63          	beqz	a5,96c <spi_error_handler+0x54>
     958:	0344a683          	lw	a3,52(s1)
     95c:	0244a603          	lw	a2,36(s1)
     960:	0304a583          	lw	a1,48(s1)
     964:	01c4a503          	lw	a0,28(s1)
     968:	000780e7          	jalr	a5
     96c:	0204a623          	sw	zero,44(s1)
     970:	0204a823          	sw	zero,48(s1)
     974:	0204aa23          	sw	zero,52(s1)
     978:	0004aa23          	sw	zero,20(s1)
     97c:	0004ac23          	sw	zero,24(s1)
     980:	0004ae23          	sw	zero,28(s1)
     984:	0204a023          	sw	zero,32(s1)
     988:	0204a223          	sw	zero,36(s1)
     98c:	0204a423          	sw	zero,40(s1)
     990:	0204ac23          	sw	zero,56(s1)
     994:	0204ae23          	sw	zero,60(s1)
     998:	0404a023          	sw	zero,64(s1)
     99c:	0404a223          	sw	zero,68(s1)
     9a0:	0004a683          	lw	a3,0(s1)
     9a4:	10068463          	beqz	a3,aac <spi_error_handler+0x194>
     9a8:	0106a783          	lw	a5,16(a3)
     9ac:	40000737          	lui	a4,0x40000
     9b0:	00e7e7b3          	or	a5,a5,a4
     9b4:	00f6a823          	sw	a5,16(a3)
     9b8:	0146a783          	lw	a5,20(a3)
     9bc:	00f12623          	sw	a5,12(sp)
     9c0:	00c12783          	lw	a5,12(sp)
     9c4:	00179713          	slli	a4,a5,0x1
     9c8:	fe074ce3          	bltz	a4,9c0 <spi_error_handler+0xa8>
     9cc:	00c14783          	lbu	a5,12(sp)
     9d0:	fe0798e3          	bnez	a5,9c0 <spi_error_handler+0xa8>
     9d4:	00d14783          	lbu	a5,13(sp)
     9d8:	fe0794e3          	bnez	a5,9c0 <spi_error_handler+0xa8>
     9dc:	0106a783          	lw	a5,16(a3)
     9e0:	c0000737          	lui	a4,0xc0000
     9e4:	fff70713          	addi	a4,a4,-1 # bfffffff <_sp+0xbffd4fbf>
     9e8:	00e7f7b3          	and	a5,a5,a4
     9ec:	00f6a823          	sw	a5,16(a3)
     9f0:	0004a783          	lw	a5,0(s1)
     9f4:	0a078c63          	beqz	a5,aac <spi_error_handler+0x194>
     9f8:	0107a703          	lw	a4,16(a5)
     9fc:	800006b7          	lui	a3,0x80000
     a00:	00d76733          	or	a4,a4,a3
     a04:	00e7a823          	sw	a4,16(a5)
     a08:	0004a783          	lw	a5,0(s1)
     a0c:	0a078063          	beqz	a5,aac <spi_error_handler+0x194>
     a10:	0107a703          	lw	a4,16(a5)
     a14:	200006b7          	lui	a3,0x20000
     a18:	00d76733          	or	a4,a4,a3
     a1c:	00e7a823          	sw	a4,16(a5)
     a20:	0004a783          	lw	a5,0(s1)
     a24:	08078463          	beqz	a5,aac <spi_error_handler+0x194>
     a28:	0307a703          	lw	a4,48(a5)
     a2c:	01f76713          	ori	a4,a4,31
     a30:	02e7a823          	sw	a4,48(a5)
     a34:	0004a783          	lw	a5,0(s1)
     a38:	06078a63          	beqz	a5,aac <spi_error_handler+0x194>
     a3c:	0047a703          	lw	a4,4(a5)
     a40:	00176713          	ori	a4,a4,1
     a44:	00e7a223          	sw	a4,4(a5)
     a48:	0004a703          	lw	a4,0(s1)
     a4c:	0044c783          	lbu	a5,4(s1)
     a50:	00173693          	seqz	a3,a4
     a54:	0497b613          	sltiu	a2,a5,73
     a58:	00163613          	seqz	a2,a2
     a5c:	00c6e6b3          	or	a3,a3,a2
     a60:	02069063          	bnez	a3,a80 <spi_error_handler+0x168>
     a64:	01072683          	lw	a3,16(a4)
     a68:	ffff0637          	lui	a2,0xffff0
     a6c:	0ff60613          	addi	a2,a2,255 # ffff00ff <_sp+0xfffc50bf>
     a70:	00c6f6b3          	and	a3,a3,a2
     a74:	00879793          	slli	a5,a5,0x8
     a78:	00d7e7b3          	or	a5,a5,a3
     a7c:	00f72823          	sw	a5,16(a4)
     a80:	0004a683          	lw	a3,0(s1)
     a84:	0054c703          	lbu	a4,5(s1)
     a88:	04173793          	sltiu	a5,a4,65
     a8c:	0017b793          	seqz	a5,a5
     a90:	0016b613          	seqz	a2,a3
     a94:	00c7e7b3          	or	a5,a5,a2
     a98:	00079a63          	bnez	a5,aac <spi_error_handler+0x194>
     a9c:	0106a783          	lw	a5,16(a3) # 20000010 <_sp+0x1ffd4fd0>
     aa0:	f007f793          	andi	a5,a5,-256
     aa4:	00f76733          	or	a4,a4,a5
     aa8:	00e6a823          	sw	a4,16(a3)
     aac:	0004a423          	sw	zero,8(s1)
     ab0:	00800793          	li	a5,8
     ab4:	00f4a823          	sw	a5,16(s1)
     ab8:	01c12083          	lw	ra,28(sp)
     abc:	01812483          	lw	s1,24(sp)
     ac0:	02010113          	addi	sp,sp,32
     ac4:	00008067          	ret

00000ac8 <_writestr>:
     ac8:	ff010113          	addi	sp,sp,-16
     acc:	00112623          	sw	ra,12(sp)
     ad0:	00912423          	sw	s1,8(sp)
     ad4:	00050493          	mv	s1,a0
     ad8:	704080ef          	jal	91dc <strlen>
     adc:	00150613          	addi	a2,a0,1
     ae0:	00048593          	mv	a1,s1
     ae4:	00100513          	li	a0,1
     ae8:	b09ff0ef          	jal	5f0 <_write>
     aec:	00c12083          	lw	ra,12(sp)
     af0:	00812483          	lw	s1,8(sp)
     af4:	01010113          	addi	sp,sp,16
     af8:	00008067          	ret

00000afc <print_exc_msg>:
     afc:	fe010113          	addi	sp,sp,-32
     b00:	00112e23          	sw	ra,28(sp)
     b04:	00912c23          	sw	s1,24(sp)
     b08:	fc1ff0ef          	jal	ac8 <_writestr>
     b0c:	343024f3          	csrr	s1,mtval
     b10:	00020537          	lui	a0,0x20
     b14:	39450513          	addi	a0,a0,916 # 20394 <__clz_tab+0x164>
     b18:	fb1ff0ef          	jal	ac8 <_writestr>
     b1c:	0184d793          	srli	a5,s1,0x18
     b20:	00f10423          	sb	a5,8(sp)
     b24:	0104d793          	srli	a5,s1,0x10
     b28:	00f104a3          	sb	a5,9(sp)
     b2c:	0084d793          	srli	a5,s1,0x8
     b30:	00f10523          	sb	a5,10(sp)
     b34:	009105a3          	sb	s1,11(sp)
     b38:	00a00793          	li	a5,10
     b3c:	00f10623          	sb	a5,12(sp)
     b40:	000106a3          	sb	zero,13(sp)
     b44:	00810513          	addi	a0,sp,8
     b48:	f81ff0ef          	jal	ac8 <_writestr>
     b4c:	0000006f          	j	b4c <print_exc_msg+0x50>

00000b50 <inferenceTPG>:
     b50:	f5010113          	addi	sp,sp,-176
     b54:	0a112623          	sw	ra,172(sp)
     b58:	0a912423          	sw	s1,168(sp)
     b5c:	0b212223          	sw	s2,164(sp)
     b60:	0b312023          	sw	s3,160(sp)
     b64:	09412e23          	sw	s4,156(sp)
     b68:	09512c23          	sw	s5,152(sp)
     b6c:	09612a23          	sw	s6,148(sp)
     b70:	09712823          	sw	s7,144(sp)
     b74:	09812623          	sw	s8,140(sp)
     b78:	09912423          	sw	s9,136(sp)
     b7c:	09a12223          	sw	s10,132(sp)
     b80:	00050c93          	mv	s9,a0
     b84:	00058993          	mv	s3,a1
     b88:	00060a13          	mv	s4,a2
     b8c:	00068493          	mv	s1,a3
     b90:	00070913          	mv	s2,a4
     b94:	000067b7          	lui	a5,0x6
     b98:	4cc78793          	addi	a5,a5,1228 # 64cc <__heap_size+0x24cc>
     b9c:	00078067          	jr	a5
     ba0:	0009a683          	lw	a3,0(s3)
     ba4:	0006d463          	bgez	a3,bac <inferenceTPG+0x5c>
     ba8:	7300606f          	j	72d8 <__heap_size+0x32d8>
     bac:	00069463          	bnez	a3,bb4 <inferenceTPG+0x64>
     bb0:	74c0606f          	j	72fc <__heap_size+0x32fc>
     bb4:	000207b7          	lui	a5,0x20
     bb8:	2ad7dc63          	bge	a5,a3,e70 <inferenceTPG+0x320>
     bbc:	00000a93          	li	s5,0
     bc0:	4016d693          	srai	a3,a3,0x1
     bc4:	001a8a93          	addi	s5,s5,1
     bc8:	fed7cce3          	blt	a5,a3,bc0 <inferenceTPG+0x70>
     bcc:	ffff0b37          	lui	s6,0xffff0
     bd0:	01668b33          	add	s6,a3,s6
     bd4:	41fb5793          	srai	a5,s6,0x1f
     bd8:	010b5593          	srli	a1,s6,0x10
     bdc:	01079793          	slli	a5,a5,0x10
     be0:	00010737          	lui	a4,0x10
     be4:	00e68633          	add	a2,a3,a4
     be8:	41f65693          	srai	a3,a2,0x1f
     bec:	010b1513          	slli	a0,s6,0x10
     bf0:	00f585b3          	add	a1,a1,a5
     bf4:	1e00b0ef          	jal	bdd4 <__divdi3>
     bf8:	41f55613          	srai	a2,a0,0x1f
     bfc:	02a607b3          	mul	a5,a2,a0
     c00:	02a506b3          	mul	a3,a0,a0
     c04:	02a53733          	mulhu	a4,a0,a0
     c08:	20e7a7b3          	sh1add	a5,a5,a4
     c0c:	01079793          	slli	a5,a5,0x10
     c10:	0106d693          	srli	a3,a3,0x10
     c14:	00d786b3          	add	a3,a5,a3
     c18:	41f6d313          	srai	t1,a3,0x1f
     c1c:	02d307b3          	mul	a5,t1,a3
     c20:	02d68733          	mul	a4,a3,a3
     c24:	02d6b5b3          	mulhu	a1,a3,a3
     c28:	20b7a7b3          	sh1add	a5,a5,a1
     c2c:	01079793          	slli	a5,a5,0x10
     c30:	01075713          	srli	a4,a4,0x10
     c34:	00e78733          	add	a4,a5,a4
     c38:	41f75593          	srai	a1,a4,0x1f
     c3c:	010a9793          	slli	a5,s5,0x10
     c40:	41f7d893          	srai	a7,a5,0x1f
     c44:	0000be37          	lui	t3,0xb
     c48:	172e0e13          	addi	t3,t3,370 # b172 <__muldf3+0x176>
     c4c:	03c888b3          	mul	a7,a7,t3
     c50:	03c78833          	mul	a6,a5,t3
     c54:	03c7b7b3          	mulhu	a5,a5,t3
     c58:	00f887b3          	add	a5,a7,a5
     c5c:	01079793          	slli	a5,a5,0x10
     c60:	01085813          	srli	a6,a6,0x10
     c64:	01078833          	add	a6,a5,a6
     c68:	010b0833          	add	a6,s6,a6
     c6c:	000028b7          	lui	a7,0x2
     c70:	5e288893          	addi	a7,a7,1506 # 25e2 <inferenceTPG+0x1a92>
     c74:	03158e33          	mul	t3,a1,a7
     c78:	031707b3          	mul	a5,a4,a7
     c7c:	031738b3          	mulhu	a7,a4,a7
     c80:	011e08b3          	add	a7,t3,a7
     c84:	01089893          	slli	a7,a7,0x10
     c88:	0107d793          	srli	a5,a5,0x10
     c8c:	00f887b3          	add	a5,a7,a5
     c90:	000038b7          	lui	a7,0x3
     c94:	e8d88893          	addi	a7,a7,-371 # 2e8d <inferenceTPG+0x233d>
     c98:	011787b3          	add	a5,a5,a7
     c9c:	41f7de13          	srai	t3,a5,0x1f
     ca0:	02ee0e33          	mul	t3,t3,a4
     ca4:	02f588b3          	mul	a7,a1,a5
     ca8:	011e0e33          	add	t3,t3,a7
     cac:	02e788b3          	mul	a7,a5,a4
     cb0:	02e7b7b3          	mulhu	a5,a5,a4
     cb4:	00fe07b3          	add	a5,t3,a5
     cb8:	01079793          	slli	a5,a5,0x10
     cbc:	0108d893          	srli	a7,a7,0x10
     cc0:	011788b3          	add	a7,a5,a7
     cc4:	000057b7          	lui	a5,0x5
     cc8:	92578793          	addi	a5,a5,-1755 # 4925 <__heap_size+0x925>
     ccc:	00f888b3          	add	a7,a7,a5
     cd0:	41f8de13          	srai	t3,a7,0x1f
     cd4:	02ee0e33          	mul	t3,t3,a4
     cd8:	031587b3          	mul	a5,a1,a7
     cdc:	00fe0e33          	add	t3,t3,a5
     ce0:	02e887b3          	mul	a5,a7,a4
     ce4:	02e8b8b3          	mulhu	a7,a7,a4
     ce8:	011e08b3          	add	a7,t3,a7
     cec:	01089893          	slli	a7,a7,0x10
     cf0:	0107d793          	srli	a5,a5,0x10
     cf4:	00f887b3          	add	a5,a7,a5
     cf8:	0000b8b7          	lui	a7,0xb
     cfc:	aab88893          	addi	a7,a7,-1365 # aaab <__divdf3+0x27f>
     d00:	011787b3          	add	a5,a5,a7
     d04:	41f7d893          	srai	a7,a5,0x1f
     d08:	02d888b3          	mul	a7,a7,a3
     d0c:	02f30333          	mul	t1,t1,a5
     d10:	00688333          	add	t1,a7,t1
     d14:	02d788b3          	mul	a7,a5,a3
     d18:	02d7b7b3          	mulhu	a5,a5,a3
     d1c:	00f307b3          	add	a5,t1,a5
     d20:	01079793          	slli	a5,a5,0x10
     d24:	0108d893          	srli	a7,a7,0x10
     d28:	011788b3          	add	a7,a5,a7
     d2c:	000027b7          	lui	a5,0x2
     d30:	73478793          	addi	a5,a5,1844 # 2734 <inferenceTPG+0x1be4>
     d34:	02f58333          	mul	t1,a1,a5
     d38:	02f706b3          	mul	a3,a4,a5
     d3c:	02f737b3          	mulhu	a5,a4,a5
     d40:	00f307b3          	add	a5,t1,a5
     d44:	01079793          	slli	a5,a5,0x10
     d48:	0106d693          	srli	a3,a3,0x10
     d4c:	00d786b3          	add	a3,a5,a3
     d50:	000047b7          	lui	a5,0x4
     d54:	8e478793          	addi	a5,a5,-1820 # 38e4 <inferenceTPG+0x2d94>
     d58:	00f686b3          	add	a3,a3,a5
     d5c:	41f6d313          	srai	t1,a3,0x1f
     d60:	02e30333          	mul	t1,t1,a4
     d64:	02d587b3          	mul	a5,a1,a3
     d68:	00f30333          	add	t1,t1,a5
     d6c:	02e687b3          	mul	a5,a3,a4
     d70:	02e6b6b3          	mulhu	a3,a3,a4
     d74:	00d306b3          	add	a3,t1,a3
     d78:	01069693          	slli	a3,a3,0x10
     d7c:	0107d793          	srli	a5,a5,0x10
     d80:	00f687b3          	add	a5,a3,a5
     d84:	000066b7          	lui	a3,0x6
     d88:	66668693          	addi	a3,a3,1638 # 6666 <__heap_size+0x2666>
     d8c:	00d787b3          	add	a5,a5,a3
     d90:	41f7d693          	srai	a3,a5,0x1f
     d94:	02e686b3          	mul	a3,a3,a4
     d98:	02f585b3          	mul	a1,a1,a5
     d9c:	00b686b3          	add	a3,a3,a1
     da0:	02e785b3          	mul	a1,a5,a4
     da4:	02e7b7b3          	mulhu	a5,a5,a4
     da8:	00f687b3          	add	a5,a3,a5
     dac:	01079793          	slli	a5,a5,0x10
     db0:	0105d713          	srli	a4,a1,0x10
     db4:	00e78733          	add	a4,a5,a4
     db8:	00e888b3          	add	a7,a7,a4
     dbc:	411b0b33          	sub	s6,s6,a7
     dc0:	41fb5793          	srai	a5,s6,0x1f
     dc4:	02a787b3          	mul	a5,a5,a0
     dc8:	03660633          	mul	a2,a2,s6
     dcc:	00c787b3          	add	a5,a5,a2
     dd0:	02ab0733          	mul	a4,s6,a0
     dd4:	02ab3b33          	mulhu	s6,s6,a0
     dd8:	016787b3          	add	a5,a5,s6
     ddc:	01079793          	slli	a5,a5,0x10
     de0:	01075713          	srli	a4,a4,0x10
     de4:	00e78733          	add	a4,a5,a4
     de8:	40e80b33          	sub	s6,a6,a4
     dec:	0089ab83          	lw	s7,8(s3)
     df0:	0044aa83          	lw	s5,4(s1)
     df4:	000a8793          	mv	a5,s5
     df8:	020a8663          	beqz	s5,e24 <inferenceTPG+0x2d4>
     dfc:	41fbd793          	srai	a5,s7,0x1f
     e00:	010bd593          	srli	a1,s7,0x10
     e04:	01079793          	slli	a5,a5,0x10
     e08:	000a8613          	mv	a2,s5
     e0c:	41fad693          	srai	a3,s5,0x1f
     e10:	010b9513          	slli	a0,s7,0x10
     e14:	00f585b3          	add	a1,a1,a5
     e18:	7bd0a0ef          	jal	bdd4 <__divdi3>
     e1c:	000a8793          	mv	a5,s5
     e20:	00050a93          	mv	s5,a0
     e24:	417787b3          	sub	a5,a5,s7
     e28:	0084a683          	lw	a3,8(s1)
     e2c:	00100713          	li	a4,1
     e30:	016ad663          	bge	s5,s6,e3c <inferenceTPG+0x2ec>
     e34:	000b0a93          	mv	s5,s6
     e38:	00000713          	li	a4,0
     e3c:	0357de63          	bge	a5,s5,e78 <inferenceTPG+0x328>
     e40:	000a8793          	mv	a5,s5
     e44:	00f6c463          	blt	a3,a5,e4c <inferenceTPG+0x2fc>
     e48:	00300713          	li	a4,3
     e4c:	000206b7          	lui	a3,0x20
     e50:	000207b7          	lui	a5,0x20
     e54:	1b078793          	addi	a5,a5,432 # 201b0 <next.22>
     e58:	20f74733          	sh2add	a4,a4,a5
     e5c:	00072783          	lw	a5,0(a4) # 10000 <i2c.c.57379e11+0x762>
     e60:	14468713          	addi	a4,a3,324 # 20144 <jump_table.23>
     e64:	20e7c7b3          	sh2add	a5,a5,a4
     e68:	0007a783          	lw	a5,0(a5)
     e6c:	d31ff06f          	j	b9c <inferenceTPG+0x4c>
     e70:	00000a93          	li	s5,0
     e74:	d59ff06f          	j	bcc <inferenceTPG+0x7c>
     e78:	00200713          	li	a4,2
     e7c:	fc9ff06f          	j	e44 <inferenceTPG+0x2f4>
     e80:	0009a683          	lw	a3,0(s3)
     e84:	0006d463          	bgez	a3,e8c <inferenceTPG+0x33c>
     e88:	47c0606f          	j	7304 <__heap_size+0x3304>
     e8c:	00069463          	bnez	a3,e94 <inferenceTPG+0x344>
     e90:	49c0606f          	j	732c <__heap_size+0x332c>
     e94:	000207b7          	lui	a5,0x20
     e98:	2ad7da63          	bge	a5,a3,114c <inferenceTPG+0x5fc>
     e9c:	00000a93          	li	s5,0
     ea0:	4016d693          	srai	a3,a3,0x1
     ea4:	001a8a93          	addi	s5,s5,1
     ea8:	fed7cce3          	blt	a5,a3,ea0 <inferenceTPG+0x350>
     eac:	ffff0b37          	lui	s6,0xffff0
     eb0:	01668b33          	add	s6,a3,s6
     eb4:	41fb5793          	srai	a5,s6,0x1f
     eb8:	010b5593          	srli	a1,s6,0x10
     ebc:	01079793          	slli	a5,a5,0x10
     ec0:	00010737          	lui	a4,0x10
     ec4:	00e68633          	add	a2,a3,a4
     ec8:	41f65693          	srai	a3,a2,0x1f
     ecc:	010b1513          	slli	a0,s6,0x10
     ed0:	00f585b3          	add	a1,a1,a5
     ed4:	7010a0ef          	jal	bdd4 <__divdi3>
     ed8:	41f55613          	srai	a2,a0,0x1f
     edc:	02a607b3          	mul	a5,a2,a0
     ee0:	02a506b3          	mul	a3,a0,a0
     ee4:	02a53733          	mulhu	a4,a0,a0
     ee8:	20e7a7b3          	sh1add	a5,a5,a4
     eec:	01079793          	slli	a5,a5,0x10
     ef0:	0106d693          	srli	a3,a3,0x10
     ef4:	00d786b3          	add	a3,a5,a3
     ef8:	41f6d313          	srai	t1,a3,0x1f
     efc:	02d307b3          	mul	a5,t1,a3
     f00:	02d68733          	mul	a4,a3,a3
     f04:	02d6b5b3          	mulhu	a1,a3,a3
     f08:	20b7a7b3          	sh1add	a5,a5,a1
     f0c:	01079793          	slli	a5,a5,0x10
     f10:	01075713          	srli	a4,a4,0x10
     f14:	00e78733          	add	a4,a5,a4
     f18:	41f75593          	srai	a1,a4,0x1f
     f1c:	010a9793          	slli	a5,s5,0x10
     f20:	41f7d893          	srai	a7,a5,0x1f
     f24:	0000be37          	lui	t3,0xb
     f28:	172e0e13          	addi	t3,t3,370 # b172 <__muldf3+0x176>
     f2c:	03c888b3          	mul	a7,a7,t3
     f30:	03c78833          	mul	a6,a5,t3
     f34:	03c7b7b3          	mulhu	a5,a5,t3
     f38:	00f887b3          	add	a5,a7,a5
     f3c:	01079793          	slli	a5,a5,0x10
     f40:	01085813          	srli	a6,a6,0x10
     f44:	01078833          	add	a6,a5,a6
     f48:	010b0833          	add	a6,s6,a6
     f4c:	000028b7          	lui	a7,0x2
     f50:	5e288893          	addi	a7,a7,1506 # 25e2 <inferenceTPG+0x1a92>
     f54:	03158e33          	mul	t3,a1,a7
     f58:	031707b3          	mul	a5,a4,a7
     f5c:	031738b3          	mulhu	a7,a4,a7
     f60:	011e08b3          	add	a7,t3,a7
     f64:	01089893          	slli	a7,a7,0x10
     f68:	0107d793          	srli	a5,a5,0x10
     f6c:	00f887b3          	add	a5,a7,a5
     f70:	000038b7          	lui	a7,0x3
     f74:	e8d88893          	addi	a7,a7,-371 # 2e8d <inferenceTPG+0x233d>
     f78:	011787b3          	add	a5,a5,a7
     f7c:	41f7de13          	srai	t3,a5,0x1f
     f80:	02ee0e33          	mul	t3,t3,a4
     f84:	02f588b3          	mul	a7,a1,a5
     f88:	011e0e33          	add	t3,t3,a7
     f8c:	02e788b3          	mul	a7,a5,a4
     f90:	02e7b7b3          	mulhu	a5,a5,a4
     f94:	00fe07b3          	add	a5,t3,a5
     f98:	01079793          	slli	a5,a5,0x10
     f9c:	0108d893          	srli	a7,a7,0x10
     fa0:	011788b3          	add	a7,a5,a7
     fa4:	000057b7          	lui	a5,0x5
     fa8:	92578793          	addi	a5,a5,-1755 # 4925 <__heap_size+0x925>
     fac:	00f888b3          	add	a7,a7,a5
     fb0:	41f8de13          	srai	t3,a7,0x1f
     fb4:	02ee0e33          	mul	t3,t3,a4
     fb8:	031587b3          	mul	a5,a1,a7
     fbc:	00fe0e33          	add	t3,t3,a5
     fc0:	02e887b3          	mul	a5,a7,a4
     fc4:	02e8b8b3          	mulhu	a7,a7,a4
     fc8:	011e08b3          	add	a7,t3,a7
     fcc:	01089893          	slli	a7,a7,0x10
     fd0:	0107d793          	srli	a5,a5,0x10
     fd4:	00f887b3          	add	a5,a7,a5
     fd8:	0000b8b7          	lui	a7,0xb
     fdc:	aab88893          	addi	a7,a7,-1365 # aaab <__divdf3+0x27f>
     fe0:	011787b3          	add	a5,a5,a7
     fe4:	41f7d893          	srai	a7,a5,0x1f
     fe8:	02d888b3          	mul	a7,a7,a3
     fec:	02f30333          	mul	t1,t1,a5
     ff0:	00688333          	add	t1,a7,t1
     ff4:	02d788b3          	mul	a7,a5,a3
     ff8:	02d7b7b3          	mulhu	a5,a5,a3
     ffc:	00f307b3          	add	a5,t1,a5
    1000:	01079793          	slli	a5,a5,0x10
    1004:	0108d893          	srli	a7,a7,0x10
    1008:	011788b3          	add	a7,a5,a7
    100c:	000027b7          	lui	a5,0x2
    1010:	73478793          	addi	a5,a5,1844 # 2734 <inferenceTPG+0x1be4>
    1014:	02f58333          	mul	t1,a1,a5
    1018:	02f706b3          	mul	a3,a4,a5
    101c:	02f737b3          	mulhu	a5,a4,a5
    1020:	00f307b3          	add	a5,t1,a5
    1024:	01079793          	slli	a5,a5,0x10
    1028:	0106d693          	srli	a3,a3,0x10
    102c:	00d786b3          	add	a3,a5,a3
    1030:	000047b7          	lui	a5,0x4
    1034:	8e478793          	addi	a5,a5,-1820 # 38e4 <inferenceTPG+0x2d94>
    1038:	00f686b3          	add	a3,a3,a5
    103c:	41f6d313          	srai	t1,a3,0x1f
    1040:	02e30333          	mul	t1,t1,a4
    1044:	02d587b3          	mul	a5,a1,a3
    1048:	00f30333          	add	t1,t1,a5
    104c:	02e687b3          	mul	a5,a3,a4
    1050:	02e6b6b3          	mulhu	a3,a3,a4
    1054:	00d306b3          	add	a3,t1,a3
    1058:	01069693          	slli	a3,a3,0x10
    105c:	0107d793          	srli	a5,a5,0x10
    1060:	00f687b3          	add	a5,a3,a5
    1064:	000066b7          	lui	a3,0x6
    1068:	66668693          	addi	a3,a3,1638 # 6666 <__heap_size+0x2666>
    106c:	00d787b3          	add	a5,a5,a3
    1070:	41f7d693          	srai	a3,a5,0x1f
    1074:	02e686b3          	mul	a3,a3,a4
    1078:	02f585b3          	mul	a1,a1,a5
    107c:	00b686b3          	add	a3,a3,a1
    1080:	02e785b3          	mul	a1,a5,a4
    1084:	02e7b7b3          	mulhu	a5,a5,a4
    1088:	00f687b3          	add	a5,a3,a5
    108c:	01079793          	slli	a5,a5,0x10
    1090:	0105d713          	srli	a4,a1,0x10
    1094:	00e78733          	add	a4,a5,a4
    1098:	00e888b3          	add	a7,a7,a4
    109c:	411b0b33          	sub	s6,s6,a7
    10a0:	41fb5793          	srai	a5,s6,0x1f
    10a4:	02a787b3          	mul	a5,a5,a0
    10a8:	03660633          	mul	a2,a2,s6
    10ac:	00c787b3          	add	a5,a5,a2
    10b0:	02ab0733          	mul	a4,s6,a0
    10b4:	02ab3b33          	mulhu	s6,s6,a0
    10b8:	016787b3          	add	a5,a5,s6
    10bc:	01079793          	slli	a5,a5,0x10
    10c0:	01075713          	srli	a4,a4,0x10
    10c4:	00e78733          	add	a4,a5,a4
    10c8:	40e80ab3          	sub	s5,a6,a4
    10cc:	00492603          	lw	a2,4(s2)
    10d0:	02060463          	beqz	a2,10f8 <inferenceTPG+0x5a8>
    10d4:	01492503          	lw	a0,20(s2)
    10d8:	41f55793          	srai	a5,a0,0x1f
    10dc:	01055593          	srli	a1,a0,0x10
    10e0:	01079793          	slli	a5,a5,0x10
    10e4:	41f65693          	srai	a3,a2,0x1f
    10e8:	01051513          	slli	a0,a0,0x10
    10ec:	00f585b3          	add	a1,a1,a5
    10f0:	4e50a0ef          	jal	bdd4 <__divdi3>
    10f4:	00050613          	mv	a2,a0
    10f8:	0049a783          	lw	a5,4(s3)
    10fc:	004a2703          	lw	a4,4(s4)
    1100:	40e787b3          	sub	a5,a5,a4
    1104:	0084a683          	lw	a3,8(s1)
    1108:	00100713          	li	a4,1
    110c:	01565663          	bge	a2,s5,1118 <inferenceTPG+0x5c8>
    1110:	000a8613          	mv	a2,s5
    1114:	00000713          	li	a4,0
    1118:	02c7de63          	bge	a5,a2,1154 <inferenceTPG+0x604>
    111c:	00060793          	mv	a5,a2
    1120:	00f6c463          	blt	a3,a5,1128 <inferenceTPG+0x5d8>
    1124:	00300713          	li	a4,3
    1128:	000206b7          	lui	a3,0x20
    112c:	000207b7          	lui	a5,0x20
    1130:	13478793          	addi	a5,a5,308 # 20134 <next.21>
    1134:	20f74733          	sh2add	a4,a4,a5
    1138:	00072783          	lw	a5,0(a4) # 10000 <i2c.c.57379e11+0x762>
    113c:	14468713          	addi	a4,a3,324 # 20144 <jump_table.23>
    1140:	20e7c7b3          	sh2add	a5,a5,a4
    1144:	0007a783          	lw	a5,0(a5)
    1148:	a55ff06f          	j	b9c <inferenceTPG+0x4c>
    114c:	00000a93          	li	s5,0
    1150:	d5dff06f          	j	eac <inferenceTPG+0x35c>
    1154:	00200713          	li	a4,2
    1158:	fc9ff06f          	j	1120 <inferenceTPG+0x5d0>
    115c:	0089aa83          	lw	s5,8(s3)
    1160:	008a2603          	lw	a2,8(s4)
    1164:	02060263          	beqz	a2,1188 <inferenceTPG+0x638>
    1168:	41fad793          	srai	a5,s5,0x1f
    116c:	010ad593          	srli	a1,s5,0x10
    1170:	01079793          	slli	a5,a5,0x10
    1174:	41f65693          	srai	a3,a2,0x1f
    1178:	010a9513          	slli	a0,s5,0x10
    117c:	00f585b3          	add	a1,a1,a5
    1180:	4550a0ef          	jal	bdd4 <__divdi3>
    1184:	00050613          	mv	a2,a0
    1188:	517cd7b7          	lui	a5,0x517cd
    118c:	c8378793          	addi	a5,a5,-893 # 517ccc83 <_sp+0x517a1c43>
    1190:	02fa97b3          	mulh	a5,s5,a5
    1194:	4117d793          	srai	a5,a5,0x11
    1198:	41fad713          	srai	a4,s5,0x1f
    119c:	40e787b3          	sub	a5,a5,a4
    11a0:	00065737          	lui	a4,0x65
    11a4:	87e70713          	addi	a4,a4,-1922 # 6487e <_sp+0x3983e>
    11a8:	02e787b3          	mul	a5,a5,a4
    11ac:	40fa87b3          	sub	a5,s5,a5
    11b0:	1207c463          	bltz	a5,12d8 <inferenceTPG+0x788>
    11b4:	fffe7737          	lui	a4,0xfffe7
    11b8:	ddf70713          	addi	a4,a4,-545 # fffe6ddf <_sp+0xfffbbd9f>
    11bc:	00e78733          	add	a4,a5,a4
    11c0:	000196b7          	lui	a3,0x19
    11c4:	21e68693          	addi	a3,a3,542 # 1921e <heap.cpp.6b15d6f6+0x3b65>
    11c8:	12e6e063          	bltu	a3,a4,12e8 <inferenceTPG+0x798>
    11cc:	00032737          	lui	a4,0x32
    11d0:	43f70713          	addi	a4,a4,1087 # 3243f <_sp+0x73ff>
    11d4:	40f707b3          	sub	a5,a4,a5
    11d8:	00100313          	li	t1,1
    11dc:	41f7d693          	srai	a3,a5,0x1f
    11e0:	02f68733          	mul	a4,a3,a5
    11e4:	02f78833          	mul	a6,a5,a5
    11e8:	02f7b5b3          	mulhu	a1,a5,a5
    11ec:	20b72733          	sh1add	a4,a4,a1
    11f0:	01071713          	slli	a4,a4,0x10
    11f4:	01085813          	srli	a6,a6,0x10
    11f8:	01070833          	add	a6,a4,a6
    11fc:	41f85e13          	srai	t3,a6,0x1f
    1200:	1f300513          	li	a0,499
    1204:	02ae0733          	mul	a4,t3,a0
    1208:	02a805b3          	mul	a1,a6,a0
    120c:	02a83533          	mulhu	a0,a6,a0
    1210:	00a70733          	add	a4,a4,a0
    1214:	01071713          	slli	a4,a4,0x10
    1218:	0105d593          	srli	a1,a1,0x10
    121c:	00b705b3          	add	a1,a4,a1
    1220:	ffffd737          	lui	a4,0xffffd
    1224:	57e70713          	addi	a4,a4,1406 # ffffd57e <_sp+0xfffd253e>
    1228:	00e585b3          	add	a1,a1,a4
    122c:	41f5d893          	srai	a7,a1,0x1f
    1230:	030888b3          	mul	a7,a7,a6
    1234:	02be0e33          	mul	t3,t3,a1
    1238:	01c888b3          	add	a7,a7,t3
    123c:	03058733          	mul	a4,a1,a6
    1240:	0305b5b3          	mulhu	a1,a1,a6
    1244:	00b885b3          	add	a1,a7,a1
    1248:	01059593          	slli	a1,a1,0x10
    124c:	01075713          	srli	a4,a4,0x10
    1250:	00e58733          	add	a4,a1,a4
    1254:	000105b7          	lui	a1,0x10
    1258:	00b70733          	add	a4,a4,a1
    125c:	41f75593          	srai	a1,a4,0x1f
    1260:	02f585b3          	mul	a1,a1,a5
    1264:	02e686b3          	mul	a3,a3,a4
    1268:	00d585b3          	add	a1,a1,a3
    126c:	02f706b3          	mul	a3,a4,a5
    1270:	02f73733          	mulhu	a4,a4,a5
    1274:	00e587b3          	add	a5,a1,a4
    1278:	01079793          	slli	a5,a5,0x10
    127c:	0106d713          	srli	a4,a3,0x10
    1280:	00e78733          	add	a4,a5,a4
    1284:	02e30333          	mul	t1,t1,a4
    1288:	0084a783          	lw	a5,8(s1)
    128c:	00f30333          	add	t1,t1,a5
    1290:	0049a703          	lw	a4,4(s3)
    1294:	004a2783          	lw	a5,4(s4)
    1298:	40f70733          	sub	a4,a4,a5
    129c:	00100793          	li	a5,1
    12a0:	00c35663          	bge	t1,a2,12ac <inferenceTPG+0x75c>
    12a4:	00060313          	mv	t1,a2
    12a8:	00000793          	li	a5,0
    12ac:	00674463          	blt	a4,t1,12b4 <inferenceTPG+0x764>
    12b0:	00200793          	li	a5,2
    12b4:	00020737          	lui	a4,0x20
    12b8:	000206b7          	lui	a3,0x20
    12bc:	12868693          	addi	a3,a3,296 # 20128 <next.20>
    12c0:	20d7c7b3          	sh2add	a5,a5,a3
    12c4:	0007a783          	lw	a5,0(a5)
    12c8:	14470713          	addi	a4,a4,324 # 20144 <jump_table.23>
    12cc:	20e7c7b3          	sh2add	a5,a5,a4
    12d0:	0007a783          	lw	a5,0(a5)
    12d4:	8c9ff06f          	j	b9c <inferenceTPG+0x4c>
    12d8:	00065737          	lui	a4,0x65
    12dc:	87e70713          	addi	a4,a4,-1922 # 6487e <_sp+0x3983e>
    12e0:	00e787b3          	add	a5,a5,a4
    12e4:	ed1ff06f          	j	11b4 <inferenceTPG+0x664>
    12e8:	fffce737          	lui	a4,0xfffce
    12ec:	bc070713          	addi	a4,a4,-1088 # fffcdbc0 <_sp+0xfffa2b80>
    12f0:	00e78733          	add	a4,a5,a4
    12f4:	000196b7          	lui	a3,0x19
    12f8:	21f68693          	addi	a3,a3,543 # 1921f <heap.cpp.6b15d6f6+0x3b66>
    12fc:	00e6ec63          	bltu	a3,a4,1314 <inferenceTPG+0x7c4>
    1300:	fffce737          	lui	a4,0xfffce
    1304:	bc170713          	addi	a4,a4,-1087 # fffcdbc1 <_sp+0xfffa2b81>
    1308:	00e787b3          	add	a5,a5,a4
    130c:	fff00313          	li	t1,-1
    1310:	ecdff06f          	j	11dc <inferenceTPG+0x68c>
    1314:	0004b737          	lui	a4,0x4b
    1318:	65f70713          	addi	a4,a4,1631 # 4b65f <_sp+0x2061f>
    131c:	00100313          	li	t1,1
    1320:	eaf75ee3          	bge	a4,a5,11dc <inferenceTPG+0x68c>
    1324:	00065737          	lui	a4,0x65
    1328:	87e70713          	addi	a4,a4,-1922 # 6487e <_sp+0x3983e>
    132c:	40f707b3          	sub	a5,a4,a5
    1330:	fff00313          	li	t1,-1
    1334:	ea9ff06f          	j	11dc <inferenceTPG+0x68c>
    1338:	008a2683          	lw	a3,8(s4)
    133c:	00000593          	li	a1,0
    1340:	2406c063          	bltz	a3,1580 <inferenceTPG+0xa30>
    1344:	26068863          	beqz	a3,15b4 <inferenceTPG+0xa64>
    1348:	000207b7          	lui	a5,0x20
    134c:	26d7d063          	bge	a5,a3,15ac <inferenceTPG+0xa5c>
    1350:	00000a93          	li	s5,0
    1354:	4016d693          	srai	a3,a3,0x1
    1358:	001a8a93          	addi	s5,s5,1
    135c:	fed7cce3          	blt	a5,a3,1354 <inferenceTPG+0x804>
    1360:	ffff0b37          	lui	s6,0xffff0
    1364:	01668b33          	add	s6,a3,s6
    1368:	41fb5793          	srai	a5,s6,0x1f
    136c:	010b5593          	srli	a1,s6,0x10
    1370:	01079793          	slli	a5,a5,0x10
    1374:	00010737          	lui	a4,0x10
    1378:	00e68633          	add	a2,a3,a4
    137c:	41f65693          	srai	a3,a2,0x1f
    1380:	010b1513          	slli	a0,s6,0x10
    1384:	00f585b3          	add	a1,a1,a5
    1388:	24d0a0ef          	jal	bdd4 <__divdi3>
    138c:	41f55613          	srai	a2,a0,0x1f
    1390:	02a607b3          	mul	a5,a2,a0
    1394:	02a506b3          	mul	a3,a0,a0
    1398:	02a53733          	mulhu	a4,a0,a0
    139c:	20e7a7b3          	sh1add	a5,a5,a4
    13a0:	01079793          	slli	a5,a5,0x10
    13a4:	0106d693          	srli	a3,a3,0x10
    13a8:	00d786b3          	add	a3,a5,a3
    13ac:	41f6d313          	srai	t1,a3,0x1f
    13b0:	02d307b3          	mul	a5,t1,a3
    13b4:	02d68733          	mul	a4,a3,a3
    13b8:	02d6b5b3          	mulhu	a1,a3,a3
    13bc:	20b7a7b3          	sh1add	a5,a5,a1
    13c0:	01079793          	slli	a5,a5,0x10
    13c4:	01075713          	srli	a4,a4,0x10
    13c8:	00e78733          	add	a4,a5,a4
    13cc:	41f75813          	srai	a6,a4,0x1f
    13d0:	010a9793          	slli	a5,s5,0x10
    13d4:	41f7d893          	srai	a7,a5,0x1f
    13d8:	0000be37          	lui	t3,0xb
    13dc:	172e0e13          	addi	t3,t3,370 # b172 <__muldf3+0x176>
    13e0:	03c888b3          	mul	a7,a7,t3
    13e4:	03c785b3          	mul	a1,a5,t3
    13e8:	03c7b7b3          	mulhu	a5,a5,t3
    13ec:	00f887b3          	add	a5,a7,a5
    13f0:	01079793          	slli	a5,a5,0x10
    13f4:	0105d593          	srli	a1,a1,0x10
    13f8:	00b785b3          	add	a1,a5,a1
    13fc:	00bb05b3          	add	a1,s6,a1
    1400:	000028b7          	lui	a7,0x2
    1404:	5e288893          	addi	a7,a7,1506 # 25e2 <inferenceTPG+0x1a92>
    1408:	03180e33          	mul	t3,a6,a7
    140c:	031707b3          	mul	a5,a4,a7
    1410:	031738b3          	mulhu	a7,a4,a7
    1414:	011e08b3          	add	a7,t3,a7
    1418:	01089893          	slli	a7,a7,0x10
    141c:	0107d793          	srli	a5,a5,0x10
    1420:	00f887b3          	add	a5,a7,a5
    1424:	000038b7          	lui	a7,0x3
    1428:	e8d88893          	addi	a7,a7,-371 # 2e8d <inferenceTPG+0x233d>
    142c:	011787b3          	add	a5,a5,a7
    1430:	41f7de13          	srai	t3,a5,0x1f
    1434:	02ee0e33          	mul	t3,t3,a4
    1438:	02f808b3          	mul	a7,a6,a5
    143c:	011e0e33          	add	t3,t3,a7
    1440:	02e788b3          	mul	a7,a5,a4
    1444:	02e7b7b3          	mulhu	a5,a5,a4
    1448:	00fe07b3          	add	a5,t3,a5
    144c:	01079793          	slli	a5,a5,0x10
    1450:	0108d893          	srli	a7,a7,0x10
    1454:	011788b3          	add	a7,a5,a7
    1458:	000057b7          	lui	a5,0x5
    145c:	92578793          	addi	a5,a5,-1755 # 4925 <__heap_size+0x925>
    1460:	00f888b3          	add	a7,a7,a5
    1464:	41f8de13          	srai	t3,a7,0x1f
    1468:	02ee0e33          	mul	t3,t3,a4
    146c:	031807b3          	mul	a5,a6,a7
    1470:	00fe0e33          	add	t3,t3,a5
    1474:	02e887b3          	mul	a5,a7,a4
    1478:	02e8b8b3          	mulhu	a7,a7,a4
    147c:	011e08b3          	add	a7,t3,a7
    1480:	01089893          	slli	a7,a7,0x10
    1484:	0107d793          	srli	a5,a5,0x10
    1488:	00f887b3          	add	a5,a7,a5
    148c:	0000b8b7          	lui	a7,0xb
    1490:	aab88893          	addi	a7,a7,-1365 # aaab <__divdf3+0x27f>
    1494:	011787b3          	add	a5,a5,a7
    1498:	41f7d893          	srai	a7,a5,0x1f
    149c:	02d888b3          	mul	a7,a7,a3
    14a0:	02f30333          	mul	t1,t1,a5
    14a4:	00688333          	add	t1,a7,t1
    14a8:	02d788b3          	mul	a7,a5,a3
    14ac:	02d7b7b3          	mulhu	a5,a5,a3
    14b0:	00f307b3          	add	a5,t1,a5
    14b4:	01079793          	slli	a5,a5,0x10
    14b8:	0108d893          	srli	a7,a7,0x10
    14bc:	011788b3          	add	a7,a5,a7
    14c0:	000027b7          	lui	a5,0x2
    14c4:	73478793          	addi	a5,a5,1844 # 2734 <inferenceTPG+0x1be4>
    14c8:	02f80333          	mul	t1,a6,a5
    14cc:	02f706b3          	mul	a3,a4,a5
    14d0:	02f737b3          	mulhu	a5,a4,a5
    14d4:	00f307b3          	add	a5,t1,a5
    14d8:	01079793          	slli	a5,a5,0x10
    14dc:	0106d693          	srli	a3,a3,0x10
    14e0:	00d786b3          	add	a3,a5,a3
    14e4:	000047b7          	lui	a5,0x4
    14e8:	8e478793          	addi	a5,a5,-1820 # 38e4 <inferenceTPG+0x2d94>
    14ec:	00f686b3          	add	a3,a3,a5
    14f0:	41f6d313          	srai	t1,a3,0x1f
    14f4:	02e30333          	mul	t1,t1,a4
    14f8:	02d807b3          	mul	a5,a6,a3
    14fc:	00f30333          	add	t1,t1,a5
    1500:	02e687b3          	mul	a5,a3,a4
    1504:	02e6b6b3          	mulhu	a3,a3,a4
    1508:	00d306b3          	add	a3,t1,a3
    150c:	01069693          	slli	a3,a3,0x10
    1510:	0107d793          	srli	a5,a5,0x10
    1514:	00f687b3          	add	a5,a3,a5
    1518:	000066b7          	lui	a3,0x6
    151c:	66668693          	addi	a3,a3,1638 # 6666 <__heap_size+0x2666>
    1520:	00d787b3          	add	a5,a5,a3
    1524:	41f7d693          	srai	a3,a5,0x1f
    1528:	02e686b3          	mul	a3,a3,a4
    152c:	02f80833          	mul	a6,a6,a5
    1530:	010686b3          	add	a3,a3,a6
    1534:	02e78833          	mul	a6,a5,a4
    1538:	02e7b7b3          	mulhu	a5,a5,a4
    153c:	00f687b3          	add	a5,a3,a5
    1540:	01079793          	slli	a5,a5,0x10
    1544:	01085713          	srli	a4,a6,0x10
    1548:	00e78733          	add	a4,a5,a4
    154c:	00e888b3          	add	a7,a7,a4
    1550:	411b0b33          	sub	s6,s6,a7
    1554:	41fb5793          	srai	a5,s6,0x1f
    1558:	02a787b3          	mul	a5,a5,a0
    155c:	03660633          	mul	a2,a2,s6
    1560:	00c787b3          	add	a5,a5,a2
    1564:	02ab0733          	mul	a4,s6,a0
    1568:	02ab3b33          	mulhu	s6,s6,a0
    156c:	016787b3          	add	a5,a5,s6
    1570:	01079793          	slli	a5,a5,0x10
    1574:	01075713          	srli	a4,a4,0x10
    1578:	00e78733          	add	a4,a5,a4
    157c:	40e585b3          	sub	a1,a1,a4
    1580:	00020737          	lui	a4,0x20
    1584:	0084a783          	lw	a5,8(s1)
    1588:	00b7a7b3          	slt	a5,a5,a1
    158c:	0017b793          	seqz	a5,a5
    1590:	94818693          	addi	a3,gp,-1720 # 22dc0 <next.19>
    1594:	20d7c7b3          	sh2add	a5,a5,a3
    1598:	0007a783          	lw	a5,0(a5)
    159c:	14470713          	addi	a4,a4,324 # 20144 <jump_table.23>
    15a0:	20e7c7b3          	sh2add	a5,a5,a4
    15a4:	0007a783          	lw	a5,0(a5)
    15a8:	df4ff06f          	j	b9c <inferenceTPG+0x4c>
    15ac:	00000a93          	li	s5,0
    15b0:	db1ff06f          	j	1360 <inferenceTPG+0x810>
    15b4:	fff00593          	li	a1,-1
    15b8:	fc9ff06f          	j	1580 <inferenceTPG+0xa30>
    15bc:	008a2683          	lw	a3,8(s4)
    15c0:	0006d463          	bgez	a3,15c8 <inferenceTPG+0xa78>
    15c4:	4a10506f          	j	7264 <__heap_size+0x3264>
    15c8:	40068663          	beqz	a3,19d4 <inferenceTPG+0xe84>
    15cc:	000207b7          	lui	a5,0x20
    15d0:	3ed7de63          	bge	a5,a3,19cc <inferenceTPG+0xe7c>
    15d4:	00000a93          	li	s5,0
    15d8:	4016d693          	srai	a3,a3,0x1
    15dc:	001a8a93          	addi	s5,s5,1
    15e0:	fed7cce3          	blt	a5,a3,15d8 <inferenceTPG+0xa88>
    15e4:	ffff0b37          	lui	s6,0xffff0
    15e8:	01668b33          	add	s6,a3,s6
    15ec:	41fb5793          	srai	a5,s6,0x1f
    15f0:	010b5593          	srli	a1,s6,0x10
    15f4:	01079793          	slli	a5,a5,0x10
    15f8:	00010737          	lui	a4,0x10
    15fc:	00e68633          	add	a2,a3,a4
    1600:	41f65693          	srai	a3,a2,0x1f
    1604:	010b1513          	slli	a0,s6,0x10
    1608:	00f585b3          	add	a1,a1,a5
    160c:	7c80a0ef          	jal	bdd4 <__divdi3>
    1610:	41f55613          	srai	a2,a0,0x1f
    1614:	02a607b3          	mul	a5,a2,a0
    1618:	02a506b3          	mul	a3,a0,a0
    161c:	02a53733          	mulhu	a4,a0,a0
    1620:	20e7a7b3          	sh1add	a5,a5,a4
    1624:	01079793          	slli	a5,a5,0x10
    1628:	0106d693          	srli	a3,a3,0x10
    162c:	00d786b3          	add	a3,a5,a3
    1630:	41f6d893          	srai	a7,a3,0x1f
    1634:	02d887b3          	mul	a5,a7,a3
    1638:	02d68733          	mul	a4,a3,a3
    163c:	02d6b5b3          	mulhu	a1,a3,a3
    1640:	20b7a7b3          	sh1add	a5,a5,a1
    1644:	01079793          	slli	a5,a5,0x10
    1648:	01075713          	srli	a4,a4,0x10
    164c:	00e78733          	add	a4,a5,a4
    1650:	41f75593          	srai	a1,a4,0x1f
    1654:	010a9793          	slli	a5,s5,0x10
    1658:	41f7d813          	srai	a6,a5,0x1f
    165c:	0000b337          	lui	t1,0xb
    1660:	17230313          	addi	t1,t1,370 # b172 <__muldf3+0x176>
    1664:	02680833          	mul	a6,a6,t1
    1668:	02678ab3          	mul	s5,a5,t1
    166c:	0267b7b3          	mulhu	a5,a5,t1
    1670:	00f807b3          	add	a5,a6,a5
    1674:	01079793          	slli	a5,a5,0x10
    1678:	010ada93          	srli	s5,s5,0x10
    167c:	01578ab3          	add	s5,a5,s5
    1680:	015b0ab3          	add	s5,s6,s5
    1684:	00002837          	lui	a6,0x2
    1688:	5e280813          	addi	a6,a6,1506 # 25e2 <inferenceTPG+0x1a92>
    168c:	03058333          	mul	t1,a1,a6
    1690:	030707b3          	mul	a5,a4,a6
    1694:	03073833          	mulhu	a6,a4,a6
    1698:	01030833          	add	a6,t1,a6
    169c:	01081813          	slli	a6,a6,0x10
    16a0:	0107d793          	srli	a5,a5,0x10
    16a4:	00f807b3          	add	a5,a6,a5
    16a8:	00003837          	lui	a6,0x3
    16ac:	e8d80813          	addi	a6,a6,-371 # 2e8d <inferenceTPG+0x233d>
    16b0:	010787b3          	add	a5,a5,a6
    16b4:	41f7d313          	srai	t1,a5,0x1f
    16b8:	02e30333          	mul	t1,t1,a4
    16bc:	02f58833          	mul	a6,a1,a5
    16c0:	01030333          	add	t1,t1,a6
    16c4:	02e78833          	mul	a6,a5,a4
    16c8:	02e7b7b3          	mulhu	a5,a5,a4
    16cc:	00f307b3          	add	a5,t1,a5
    16d0:	01079793          	slli	a5,a5,0x10
    16d4:	01085813          	srli	a6,a6,0x10
    16d8:	01078833          	add	a6,a5,a6
    16dc:	000057b7          	lui	a5,0x5
    16e0:	92578793          	addi	a5,a5,-1755 # 4925 <__heap_size+0x925>
    16e4:	00f80833          	add	a6,a6,a5
    16e8:	41f85313          	srai	t1,a6,0x1f
    16ec:	02e30333          	mul	t1,t1,a4
    16f0:	030587b3          	mul	a5,a1,a6
    16f4:	00f30333          	add	t1,t1,a5
    16f8:	02e807b3          	mul	a5,a6,a4
    16fc:	02e83833          	mulhu	a6,a6,a4
    1700:	01030833          	add	a6,t1,a6
    1704:	01081813          	slli	a6,a6,0x10
    1708:	0107d793          	srli	a5,a5,0x10
    170c:	00f807b3          	add	a5,a6,a5
    1710:	0000b837          	lui	a6,0xb
    1714:	aab80813          	addi	a6,a6,-1365 # aaab <__divdf3+0x27f>
    1718:	010787b3          	add	a5,a5,a6
    171c:	41f7d813          	srai	a6,a5,0x1f
    1720:	02d80833          	mul	a6,a6,a3
    1724:	02f888b3          	mul	a7,a7,a5
    1728:	011808b3          	add	a7,a6,a7
    172c:	02d78833          	mul	a6,a5,a3
    1730:	02d7b7b3          	mulhu	a5,a5,a3
    1734:	00f887b3          	add	a5,a7,a5
    1738:	01079793          	slli	a5,a5,0x10
    173c:	01085813          	srli	a6,a6,0x10
    1740:	01078833          	add	a6,a5,a6
    1744:	000027b7          	lui	a5,0x2
    1748:	73478793          	addi	a5,a5,1844 # 2734 <inferenceTPG+0x1be4>
    174c:	02f588b3          	mul	a7,a1,a5
    1750:	02f706b3          	mul	a3,a4,a5
    1754:	02f737b3          	mulhu	a5,a4,a5
    1758:	00f887b3          	add	a5,a7,a5
    175c:	01079793          	slli	a5,a5,0x10
    1760:	0106d693          	srli	a3,a3,0x10
    1764:	00d786b3          	add	a3,a5,a3
    1768:	000047b7          	lui	a5,0x4
    176c:	8e478793          	addi	a5,a5,-1820 # 38e4 <inferenceTPG+0x2d94>
    1770:	00f686b3          	add	a3,a3,a5
    1774:	41f6d893          	srai	a7,a3,0x1f
    1778:	02e888b3          	mul	a7,a7,a4
    177c:	02d587b3          	mul	a5,a1,a3
    1780:	00f888b3          	add	a7,a7,a5
    1784:	02e687b3          	mul	a5,a3,a4
    1788:	02e6b6b3          	mulhu	a3,a3,a4
    178c:	00d886b3          	add	a3,a7,a3
    1790:	01069693          	slli	a3,a3,0x10
    1794:	0107d793          	srli	a5,a5,0x10
    1798:	00f687b3          	add	a5,a3,a5
    179c:	000066b7          	lui	a3,0x6
    17a0:	66668693          	addi	a3,a3,1638 # 6666 <__heap_size+0x2666>
    17a4:	00d787b3          	add	a5,a5,a3
    17a8:	41f7d693          	srai	a3,a5,0x1f
    17ac:	02e686b3          	mul	a3,a3,a4
    17b0:	02f585b3          	mul	a1,a1,a5
    17b4:	00b686b3          	add	a3,a3,a1
    17b8:	02e785b3          	mul	a1,a5,a4
    17bc:	02e7b7b3          	mulhu	a5,a5,a4
    17c0:	00f687b3          	add	a5,a3,a5
    17c4:	01079793          	slli	a5,a5,0x10
    17c8:	0105d713          	srli	a4,a1,0x10
    17cc:	00e78733          	add	a4,a5,a4
    17d0:	00e80833          	add	a6,a6,a4
    17d4:	410b0b33          	sub	s6,s6,a6
    17d8:	41fb5793          	srai	a5,s6,0x1f
    17dc:	02a787b3          	mul	a5,a5,a0
    17e0:	03660633          	mul	a2,a2,s6
    17e4:	00c787b3          	add	a5,a5,a2
    17e8:	02ab0733          	mul	a4,s6,a0
    17ec:	02ab3b33          	mulhu	s6,s6,a0
    17f0:	016787b3          	add	a5,a5,s6
    17f4:	01079793          	slli	a5,a5,0x10
    17f8:	01075713          	srli	a4,a4,0x10
    17fc:	00e78733          	add	a4,a5,a4
    1800:	40ea8ab3          	sub	s5,s5,a4
    1804:	0084a583          	lw	a1,8(s1)
    1808:	000107b7          	lui	a5,0x10
    180c:	18058c63          	beqz	a1,19a4 <inferenceTPG+0xe54>
    1810:	40b006b3          	neg	a3,a1
    1814:	0ad5e6b3          	max	a3,a1,a3
    1818:	41f6d713          	srai	a4,a3,0x1f
    181c:	000177b7          	lui	a5,0x17
    1820:	15478793          	addi	a5,a5,340 # 17154 <heap.cpp.6b15d6f6+0x1a9b>
    1824:	02f70733          	mul	a4,a4,a5
    1828:	02f68b33          	mul	s6,a3,a5
    182c:	02f6b6b3          	mulhu	a3,a3,a5
    1830:	00d70733          	add	a4,a4,a3
    1834:	01071713          	slli	a4,a4,0x10
    1838:	010b5b13          	srli	s6,s6,0x10
    183c:	01670b33          	add	s6,a4,s6
    1840:	000087b7          	lui	a5,0x8
    1844:	00fb0b33          	add	s6,s6,a5
    1848:	ffff07b7          	lui	a5,0xffff0
    184c:	00fb7b33          	and	s6,s6,a5
    1850:	1805c663          	bltz	a1,19dc <inferenceTPG+0xe8c>
    1854:	41fb5713          	srai	a4,s6,0x1f
    1858:	0000b6b7          	lui	a3,0xb
    185c:	17268693          	addi	a3,a3,370 # b172 <__muldf3+0x176>
    1860:	02d70733          	mul	a4,a4,a3
    1864:	02db07b3          	mul	a5,s6,a3
    1868:	02db36b3          	mulhu	a3,s6,a3
    186c:	00d70733          	add	a4,a4,a3
    1870:	01071713          	slli	a4,a4,0x10
    1874:	0107d793          	srli	a5,a5,0x10
    1878:	00f707b3          	add	a5,a4,a5
    187c:	40f585b3          	sub	a1,a1,a5
    1880:	41f5d713          	srai	a4,a1,0x1f
    1884:	02b70733          	mul	a4,a4,a1
    1888:	02b587b3          	mul	a5,a1,a1
    188c:	02b5b6b3          	mulhu	a3,a1,a1
    1890:	20d72733          	sh1add	a4,a4,a3
    1894:	01071713          	slli	a4,a4,0x10
    1898:	0107d793          	srli	a5,a5,0x10
    189c:	00f707b3          	add	a5,a4,a5
    18a0:	41f7d513          	srai	a0,a5,0x1f
    18a4:	01e7d713          	srli	a4,a5,0x1e
    18a8:	20e54733          	sh2add	a4,a0,a4
    18ac:	00279693          	slli	a3,a5,0x2
    18b0:	01071713          	slli	a4,a4,0x10
    18b4:	0106d693          	srli	a3,a3,0x10
    18b8:	00d706b3          	add	a3,a4,a3
    18bc:	f4a68693          	addi	a3,a3,-182
    18c0:	41f6d613          	srai	a2,a3,0x1f
    18c4:	02f60633          	mul	a2,a2,a5
    18c8:	02d50733          	mul	a4,a0,a3
    18cc:	00e60633          	add	a2,a2,a4
    18d0:	02f68733          	mul	a4,a3,a5
    18d4:	02f6b6b3          	mulhu	a3,a3,a5
    18d8:	00d606b3          	add	a3,a2,a3
    18dc:	01069693          	slli	a3,a3,0x10
    18e0:	01075713          	srli	a4,a4,0x10
    18e4:	00e68733          	add	a4,a3,a4
    18e8:	000036b7          	lui	a3,0x3
    18ec:	aab68693          	addi	a3,a3,-1365 # 2aab <inferenceTPG+0x1f5b>
    18f0:	00d70733          	add	a4,a4,a3
    18f4:	41f75693          	srai	a3,a4,0x1f
    18f8:	02f686b3          	mul	a3,a3,a5
    18fc:	02e50533          	mul	a0,a0,a4
    1900:	00a686b3          	add	a3,a3,a0
    1904:	02f70633          	mul	a2,a4,a5
    1908:	02f73733          	mulhu	a4,a4,a5
    190c:	00e687b3          	add	a5,a3,a4
    1910:	01079793          	slli	a5,a5,0x10
    1914:	01065713          	srli	a4,a2,0x10
    1918:	00e78733          	add	a4,a5,a4
    191c:	000207b7          	lui	a5,0x20
    1920:	00f70733          	add	a4,a4,a5
    1924:	40b70633          	sub	a2,a4,a1
    1928:	02b70c63          	beq	a4,a1,1960 <inferenceTPG+0xe10>
    192c:	00f5d713          	srli	a4,a1,0xf
    1930:	01159793          	slli	a5,a1,0x11
    1934:	01071713          	slli	a4,a4,0x10
    1938:	0107d793          	srli	a5,a5,0x10
    193c:	00f707b3          	add	a5,a4,a5
    1940:	41f7d713          	srai	a4,a5,0x1f
    1944:	0107d593          	srli	a1,a5,0x10
    1948:	01071713          	slli	a4,a4,0x10
    194c:	41f65693          	srai	a3,a2,0x1f
    1950:	01079513          	slli	a0,a5,0x10
    1954:	00e585b3          	add	a1,a1,a4
    1958:	47c0a0ef          	jal	bdd4 <__divdi3>
    195c:	00050613          	mv	a2,a0
    1960:	000107b7          	lui	a5,0x10
    1964:	00f606b3          	add	a3,a2,a5
    1968:	060b4e63          	bltz	s6,19e4 <inferenceTPG+0xe94>
    196c:	410b5b13          	srai	s6,s6,0x10
    1970:	00010737          	lui	a4,0x10
    1974:	01671733          	sll	a4,a4,s6
    1978:	41f75793          	srai	a5,a4,0x1f
    197c:	41f6d613          	srai	a2,a3,0x1f
    1980:	02d787b3          	mul	a5,a5,a3
    1984:	02e60633          	mul	a2,a2,a4
    1988:	00c787b3          	add	a5,a5,a2
    198c:	02d70633          	mul	a2,a4,a3
    1990:	02d73733          	mulhu	a4,a4,a3
    1994:	00e787b3          	add	a5,a5,a4
    1998:	01079793          	slli	a5,a5,0x10
    199c:	01065713          	srli	a4,a2,0x10
    19a0:	00e787b3          	add	a5,a5,a4
    19a4:	0157a7b3          	slt	a5,a5,s5
    19a8:	0017b793          	seqz	a5,a5
    19ac:	00020737          	lui	a4,0x20
    19b0:	94018693          	addi	a3,gp,-1728 # 22db8 <next.18>
    19b4:	20d7c7b3          	sh2add	a5,a5,a3
    19b8:	0007a783          	lw	a5,0(a5) # 10000 <i2c.c.57379e11+0x762>
    19bc:	14470713          	addi	a4,a4,324 # 20144 <jump_table.23>
    19c0:	20e7c7b3          	sh2add	a5,a5,a4
    19c4:	0007a783          	lw	a5,0(a5)
    19c8:	9d4ff06f          	j	b9c <inferenceTPG+0x4c>
    19cc:	00000a93          	li	s5,0
    19d0:	c15ff06f          	j	15e4 <inferenceTPG+0xa94>
    19d4:	fff00a93          	li	s5,-1
    19d8:	e2dff06f          	j	1804 <inferenceTPG+0xcb4>
    19dc:	41600b33          	neg	s6,s6
    19e0:	e75ff06f          	j	1854 <inferenceTPG+0xd04>
    19e4:	416007b3          	neg	a5,s6
    19e8:	4107d793          	srai	a5,a5,0x10
    19ec:	00010737          	lui	a4,0x10
    19f0:	40f75733          	sra	a4,a4,a5
    19f4:	f85ff06f          	j	1978 <inferenceTPG+0xe28>
    19f8:	008a2683          	lw	a3,8(s4)
    19fc:	00000a93          	li	s5,0
    1a00:	2206ce63          	bltz	a3,1c3c <inferenceTPG+0x10ec>
    1a04:	66068663          	beqz	a3,2070 <inferenceTPG+0x1520>
    1a08:	000207b7          	lui	a5,0x20
    1a0c:	64d7de63          	bge	a5,a3,2068 <inferenceTPG+0x1518>
    1a10:	4016d693          	srai	a3,a3,0x1
    1a14:	001a8a93          	addi	s5,s5,1
    1a18:	fed7cce3          	blt	a5,a3,1a10 <inferenceTPG+0xec0>
    1a1c:	ffff0b37          	lui	s6,0xffff0
    1a20:	01668b33          	add	s6,a3,s6
    1a24:	41fb5793          	srai	a5,s6,0x1f
    1a28:	010b5593          	srli	a1,s6,0x10
    1a2c:	01079793          	slli	a5,a5,0x10
    1a30:	00010737          	lui	a4,0x10
    1a34:	00e68633          	add	a2,a3,a4
    1a38:	41f65693          	srai	a3,a2,0x1f
    1a3c:	010b1513          	slli	a0,s6,0x10
    1a40:	00f585b3          	add	a1,a1,a5
    1a44:	3900a0ef          	jal	bdd4 <__divdi3>
    1a48:	41f55613          	srai	a2,a0,0x1f
    1a4c:	02a607b3          	mul	a5,a2,a0
    1a50:	02a506b3          	mul	a3,a0,a0
    1a54:	02a53733          	mulhu	a4,a0,a0
    1a58:	20e7a7b3          	sh1add	a5,a5,a4
    1a5c:	01079793          	slli	a5,a5,0x10
    1a60:	0106d693          	srli	a3,a3,0x10
    1a64:	00d786b3          	add	a3,a5,a3
    1a68:	41f6d893          	srai	a7,a3,0x1f
    1a6c:	02d887b3          	mul	a5,a7,a3
    1a70:	02d68733          	mul	a4,a3,a3
    1a74:	02d6b5b3          	mulhu	a1,a3,a3
    1a78:	20b7a7b3          	sh1add	a5,a5,a1
    1a7c:	01079793          	slli	a5,a5,0x10
    1a80:	01075713          	srli	a4,a4,0x10
    1a84:	00e78733          	add	a4,a5,a4
    1a88:	41f75593          	srai	a1,a4,0x1f
    1a8c:	010a9793          	slli	a5,s5,0x10
    1a90:	41f7d813          	srai	a6,a5,0x1f
    1a94:	0000b337          	lui	t1,0xb
    1a98:	17230313          	addi	t1,t1,370 # b172 <__muldf3+0x176>
    1a9c:	02680833          	mul	a6,a6,t1
    1aa0:	02678ab3          	mul	s5,a5,t1
    1aa4:	0267b7b3          	mulhu	a5,a5,t1
    1aa8:	00f807b3          	add	a5,a6,a5
    1aac:	01079793          	slli	a5,a5,0x10
    1ab0:	010ada93          	srli	s5,s5,0x10
    1ab4:	01578ab3          	add	s5,a5,s5
    1ab8:	015b0ab3          	add	s5,s6,s5
    1abc:	00002837          	lui	a6,0x2
    1ac0:	5e280813          	addi	a6,a6,1506 # 25e2 <inferenceTPG+0x1a92>
    1ac4:	03058333          	mul	t1,a1,a6
    1ac8:	030707b3          	mul	a5,a4,a6
    1acc:	03073833          	mulhu	a6,a4,a6
    1ad0:	01030833          	add	a6,t1,a6
    1ad4:	01081813          	slli	a6,a6,0x10
    1ad8:	0107d793          	srli	a5,a5,0x10
    1adc:	00f807b3          	add	a5,a6,a5
    1ae0:	00003837          	lui	a6,0x3
    1ae4:	e8d80813          	addi	a6,a6,-371 # 2e8d <inferenceTPG+0x233d>
    1ae8:	010787b3          	add	a5,a5,a6
    1aec:	41f7d313          	srai	t1,a5,0x1f
    1af0:	02e30333          	mul	t1,t1,a4
    1af4:	02f58833          	mul	a6,a1,a5
    1af8:	01030333          	add	t1,t1,a6
    1afc:	02e78833          	mul	a6,a5,a4
    1b00:	02e7b7b3          	mulhu	a5,a5,a4
    1b04:	00f307b3          	add	a5,t1,a5
    1b08:	01079793          	slli	a5,a5,0x10
    1b0c:	01085813          	srli	a6,a6,0x10
    1b10:	01078833          	add	a6,a5,a6
    1b14:	000057b7          	lui	a5,0x5
    1b18:	92578793          	addi	a5,a5,-1755 # 4925 <__heap_size+0x925>
    1b1c:	00f80833          	add	a6,a6,a5
    1b20:	41f85313          	srai	t1,a6,0x1f
    1b24:	02e30333          	mul	t1,t1,a4
    1b28:	030587b3          	mul	a5,a1,a6
    1b2c:	00f30333          	add	t1,t1,a5
    1b30:	02e807b3          	mul	a5,a6,a4
    1b34:	02e83833          	mulhu	a6,a6,a4
    1b38:	01030833          	add	a6,t1,a6
    1b3c:	01081813          	slli	a6,a6,0x10
    1b40:	0107d793          	srli	a5,a5,0x10
    1b44:	00f807b3          	add	a5,a6,a5
    1b48:	0000b837          	lui	a6,0xb
    1b4c:	aab80813          	addi	a6,a6,-1365 # aaab <__divdf3+0x27f>
    1b50:	010787b3          	add	a5,a5,a6
    1b54:	41f7d813          	srai	a6,a5,0x1f
    1b58:	02d80833          	mul	a6,a6,a3
    1b5c:	02f888b3          	mul	a7,a7,a5
    1b60:	011808b3          	add	a7,a6,a7
    1b64:	02d78833          	mul	a6,a5,a3
    1b68:	02d7b7b3          	mulhu	a5,a5,a3
    1b6c:	00f887b3          	add	a5,a7,a5
    1b70:	01079793          	slli	a5,a5,0x10
    1b74:	01085813          	srli	a6,a6,0x10
    1b78:	01078833          	add	a6,a5,a6
    1b7c:	000027b7          	lui	a5,0x2
    1b80:	73478793          	addi	a5,a5,1844 # 2734 <inferenceTPG+0x1be4>
    1b84:	02f588b3          	mul	a7,a1,a5
    1b88:	02f706b3          	mul	a3,a4,a5
    1b8c:	02f737b3          	mulhu	a5,a4,a5
    1b90:	00f887b3          	add	a5,a7,a5
    1b94:	01079793          	slli	a5,a5,0x10
    1b98:	0106d693          	srli	a3,a3,0x10
    1b9c:	00d786b3          	add	a3,a5,a3
    1ba0:	000047b7          	lui	a5,0x4
    1ba4:	8e478793          	addi	a5,a5,-1820 # 38e4 <inferenceTPG+0x2d94>
    1ba8:	00f686b3          	add	a3,a3,a5
    1bac:	41f6d893          	srai	a7,a3,0x1f
    1bb0:	02e888b3          	mul	a7,a7,a4
    1bb4:	02d587b3          	mul	a5,a1,a3
    1bb8:	00f888b3          	add	a7,a7,a5
    1bbc:	02e687b3          	mul	a5,a3,a4
    1bc0:	02e6b6b3          	mulhu	a3,a3,a4
    1bc4:	00d886b3          	add	a3,a7,a3
    1bc8:	01069693          	slli	a3,a3,0x10
    1bcc:	0107d793          	srli	a5,a5,0x10
    1bd0:	00f687b3          	add	a5,a3,a5
    1bd4:	000066b7          	lui	a3,0x6
    1bd8:	66668693          	addi	a3,a3,1638 # 6666 <__heap_size+0x2666>
    1bdc:	00d787b3          	add	a5,a5,a3
    1be0:	41f7d693          	srai	a3,a5,0x1f
    1be4:	02e686b3          	mul	a3,a3,a4
    1be8:	02f585b3          	mul	a1,a1,a5
    1bec:	00b686b3          	add	a3,a3,a1
    1bf0:	02e785b3          	mul	a1,a5,a4
    1bf4:	02e7b7b3          	mulhu	a5,a5,a4
    1bf8:	00f687b3          	add	a5,a3,a5
    1bfc:	01079793          	slli	a5,a5,0x10
    1c00:	0105d713          	srli	a4,a1,0x10
    1c04:	00e78733          	add	a4,a5,a4
    1c08:	00e80833          	add	a6,a6,a4
    1c0c:	410b0b33          	sub	s6,s6,a6
    1c10:	41fb5793          	srai	a5,s6,0x1f
    1c14:	02a787b3          	mul	a5,a5,a0
    1c18:	03660633          	mul	a2,a2,s6
    1c1c:	00c787b3          	add	a5,a5,a2
    1c20:	02ab0733          	mul	a4,s6,a0
    1c24:	02ab3b33          	mulhu	s6,s6,a0
    1c28:	016787b3          	add	a5,a5,s6
    1c2c:	01079793          	slli	a5,a5,0x10
    1c30:	01075713          	srli	a4,a4,0x10
    1c34:	00e78733          	add	a4,a5,a4
    1c38:	40ea8ab3          	sub	s5,s5,a4
    1c3c:	00492703          	lw	a4,4(s2)
    1c40:	517cd6b7          	lui	a3,0x517cd
    1c44:	c8368693          	addi	a3,a3,-893 # 517ccc83 <_sp+0x517a1c43>
    1c48:	02d716b3          	mulh	a3,a4,a3
    1c4c:	4116d693          	srai	a3,a3,0x11
    1c50:	41f75793          	srai	a5,a4,0x1f
    1c54:	40f686b3          	sub	a3,a3,a5
    1c58:	000657b7          	lui	a5,0x65
    1c5c:	87e78793          	addi	a5,a5,-1922 # 6487e <_sp+0x3983e>
    1c60:	02f687b3          	mul	a5,a3,a5
    1c64:	40f706b3          	sub	a3,a4,a5
    1c68:	4006c863          	bltz	a3,2078 <inferenceTPG+0x1528>
    1c6c:	fffe77b7          	lui	a5,0xfffe7
    1c70:	ddf78793          	addi	a5,a5,-545 # fffe6ddf <_sp+0xfffbbd9f>
    1c74:	00f687b3          	add	a5,a3,a5
    1c78:	00019637          	lui	a2,0x19
    1c7c:	21e60613          	addi	a2,a2,542 # 1921e <heap.cpp.6b15d6f6+0x3b65>
    1c80:	40f66463          	bltu	a2,a5,2088 <inferenceTPG+0x1538>
    1c84:	000327b7          	lui	a5,0x32
    1c88:	43f78793          	addi	a5,a5,1087 # 3243f <_sp+0x73ff>
    1c8c:	40d786b3          	sub	a3,a5,a3
    1c90:	00100513          	li	a0,1
    1c94:	000197b7          	lui	a5,0x19
    1c98:	22078793          	addi	a5,a5,544 # 19220 <heap.cpp.6b15d6f6+0x3b67>
    1c9c:	40e787b3          	sub	a5,a5,a4
    1ca0:	517cd5b7          	lui	a1,0x517cd
    1ca4:	c8358593          	addi	a1,a1,-893 # 517ccc83 <_sp+0x517a1c43>
    1ca8:	02b795b3          	mulh	a1,a5,a1
    1cac:	4115d593          	srai	a1,a1,0x11
    1cb0:	41f7d713          	srai	a4,a5,0x1f
    1cb4:	40e585b3          	sub	a1,a1,a4
    1cb8:	00065737          	lui	a4,0x65
    1cbc:	87e70713          	addi	a4,a4,-1922 # 6487e <_sp+0x3983e>
    1cc0:	02e58733          	mul	a4,a1,a4
    1cc4:	40e785b3          	sub	a1,a5,a4
    1cc8:	4005c863          	bltz	a1,20d8 <inferenceTPG+0x1588>
    1ccc:	fffe77b7          	lui	a5,0xfffe7
    1cd0:	ddf78793          	addi	a5,a5,-545 # fffe6ddf <_sp+0xfffbbd9f>
    1cd4:	00f587b3          	add	a5,a1,a5
    1cd8:	00019737          	lui	a4,0x19
    1cdc:	21e70713          	addi	a4,a4,542 # 1921e <heap.cpp.6b15d6f6+0x3b65>
    1ce0:	40f76463          	bltu	a4,a5,20e8 <inferenceTPG+0x1598>
    1ce4:	000327b7          	lui	a5,0x32
    1ce8:	43f78793          	addi	a5,a5,1087 # 3243f <_sp+0x73ff>
    1cec:	40b785b3          	sub	a1,a5,a1
    1cf0:	00100b13          	li	s6,1
    1cf4:	41f5d893          	srai	a7,a1,0x1f
    1cf8:	02b887b3          	mul	a5,a7,a1
    1cfc:	02b58833          	mul	a6,a1,a1
    1d00:	02b5b733          	mulhu	a4,a1,a1
    1d04:	20e7a7b3          	sh1add	a5,a5,a4
    1d08:	01079793          	slli	a5,a5,0x10
    1d0c:	01085813          	srli	a6,a6,0x10
    1d10:	01078833          	add	a6,a5,a6
    1d14:	41f85313          	srai	t1,a6,0x1f
    1d18:	1f300613          	li	a2,499
    1d1c:	02c307b3          	mul	a5,t1,a2
    1d20:	02c80733          	mul	a4,a6,a2
    1d24:	02c83633          	mulhu	a2,a6,a2
    1d28:	00c787b3          	add	a5,a5,a2
    1d2c:	01079793          	slli	a5,a5,0x10
    1d30:	01075713          	srli	a4,a4,0x10
    1d34:	00e78733          	add	a4,a5,a4
    1d38:	ffffd7b7          	lui	a5,0xffffd
    1d3c:	57e78793          	addi	a5,a5,1406 # ffffd57e <_sp+0xfffd253e>
    1d40:	00f70733          	add	a4,a4,a5
    1d44:	41f75613          	srai	a2,a4,0x1f
    1d48:	03060633          	mul	a2,a2,a6
    1d4c:	02e30333          	mul	t1,t1,a4
    1d50:	00660633          	add	a2,a2,t1
    1d54:	030707b3          	mul	a5,a4,a6
    1d58:	03073733          	mulhu	a4,a4,a6
    1d5c:	00e60733          	add	a4,a2,a4
    1d60:	01071713          	slli	a4,a4,0x10
    1d64:	0107d793          	srli	a5,a5,0x10
    1d68:	00f707b3          	add	a5,a4,a5
    1d6c:	00010737          	lui	a4,0x10
    1d70:	00e787b3          	add	a5,a5,a4
    1d74:	41f7d713          	srai	a4,a5,0x1f
    1d78:	02b70733          	mul	a4,a4,a1
    1d7c:	02f888b3          	mul	a7,a7,a5
    1d80:	01170733          	add	a4,a4,a7
    1d84:	02b78633          	mul	a2,a5,a1
    1d88:	02b7b7b3          	mulhu	a5,a5,a1
    1d8c:	00f707b3          	add	a5,a4,a5
    1d90:	01079793          	slli	a5,a5,0x10
    1d94:	01065713          	srli	a4,a2,0x10
    1d98:	00e78733          	add	a4,a5,a4
    1d9c:	02eb0b33          	mul	s6,s6,a4
    1da0:	0c0b0a63          	beqz	s6,1e74 <inferenceTPG+0x1324>
    1da4:	41f6d813          	srai	a6,a3,0x1f
    1da8:	02d807b3          	mul	a5,a6,a3
    1dac:	02d68633          	mul	a2,a3,a3
    1db0:	02d6b733          	mulhu	a4,a3,a3
    1db4:	20e7a7b3          	sh1add	a5,a5,a4
    1db8:	01079793          	slli	a5,a5,0x10
    1dbc:	01065613          	srli	a2,a2,0x10
    1dc0:	00c78633          	add	a2,a5,a2
    1dc4:	41f65893          	srai	a7,a2,0x1f
    1dc8:	1f300593          	li	a1,499
    1dcc:	02b887b3          	mul	a5,a7,a1
    1dd0:	02b60733          	mul	a4,a2,a1
    1dd4:	02b635b3          	mulhu	a1,a2,a1
    1dd8:	00b787b3          	add	a5,a5,a1
    1ddc:	01079793          	slli	a5,a5,0x10
    1de0:	01075713          	srli	a4,a4,0x10
    1de4:	00e78733          	add	a4,a5,a4
    1de8:	ffffd7b7          	lui	a5,0xffffd
    1dec:	57e78793          	addi	a5,a5,1406 # ffffd57e <_sp+0xfffd253e>
    1df0:	00f70733          	add	a4,a4,a5
    1df4:	41f75593          	srai	a1,a4,0x1f
    1df8:	02c585b3          	mul	a1,a1,a2
    1dfc:	02e888b3          	mul	a7,a7,a4
    1e00:	011585b3          	add	a1,a1,a7
    1e04:	02c707b3          	mul	a5,a4,a2
    1e08:	02c73733          	mulhu	a4,a4,a2
    1e0c:	00e58733          	add	a4,a1,a4
    1e10:	01071713          	slli	a4,a4,0x10
    1e14:	0107d793          	srli	a5,a5,0x10
    1e18:	00f707b3          	add	a5,a4,a5
    1e1c:	00010737          	lui	a4,0x10
    1e20:	00e787b3          	add	a5,a5,a4
    1e24:	41f7d713          	srai	a4,a5,0x1f
    1e28:	02d70733          	mul	a4,a4,a3
    1e2c:	02f80833          	mul	a6,a6,a5
    1e30:	01070733          	add	a4,a4,a6
    1e34:	02d78633          	mul	a2,a5,a3
    1e38:	02d7b7b3          	mulhu	a5,a5,a3
    1e3c:	00f707b3          	add	a5,a4,a5
    1e40:	01079793          	slli	a5,a5,0x10
    1e44:	01065713          	srli	a4,a2,0x10
    1e48:	00e78733          	add	a4,a5,a4
    1e4c:	02e50533          	mul	a0,a0,a4
    1e50:	41f55793          	srai	a5,a0,0x1f
    1e54:	01055593          	srli	a1,a0,0x10
    1e58:	01079793          	slli	a5,a5,0x10
    1e5c:	000b0613          	mv	a2,s6
    1e60:	41fb5693          	srai	a3,s6,0x1f
    1e64:	01051513          	slli	a0,a0,0x10
    1e68:	00f585b3          	add	a1,a1,a5
    1e6c:	769090ef          	jal	bdd4 <__divdi3>
    1e70:	00050b13          	mv	s6,a0
    1e74:	01092603          	lw	a2,16(s2)
    1e78:	000107b7          	lui	a5,0x10
    1e7c:	18060c63          	beqz	a2,2014 <inferenceTPG+0x14c4>
    1e80:	40c006b3          	neg	a3,a2
    1e84:	0ad666b3          	max	a3,a2,a3
    1e88:	41f6d713          	srai	a4,a3,0x1f
    1e8c:	000177b7          	lui	a5,0x17
    1e90:	15478793          	addi	a5,a5,340 # 17154 <heap.cpp.6b15d6f6+0x1a9b>
    1e94:	02f70733          	mul	a4,a4,a5
    1e98:	02f68bb3          	mul	s7,a3,a5
    1e9c:	02f6b6b3          	mulhu	a3,a3,a5
    1ea0:	00d70733          	add	a4,a4,a3
    1ea4:	01071713          	slli	a4,a4,0x10
    1ea8:	010bdb93          	srli	s7,s7,0x10
    1eac:	01770bb3          	add	s7,a4,s7
    1eb0:	000087b7          	lui	a5,0x8
    1eb4:	00fb8bb3          	add	s7,s7,a5
    1eb8:	ffff07b7          	lui	a5,0xffff0
    1ebc:	00fbfbb3          	and	s7,s7,a5
    1ec0:	26064c63          	bltz	a2,2138 <inferenceTPG+0x15e8>
    1ec4:	41fbd713          	srai	a4,s7,0x1f
    1ec8:	0000b6b7          	lui	a3,0xb
    1ecc:	17268693          	addi	a3,a3,370 # b172 <__muldf3+0x176>
    1ed0:	02d70733          	mul	a4,a4,a3
    1ed4:	02db87b3          	mul	a5,s7,a3
    1ed8:	02dbb6b3          	mulhu	a3,s7,a3
    1edc:	00d70733          	add	a4,a4,a3
    1ee0:	01071713          	slli	a4,a4,0x10
    1ee4:	0107d793          	srli	a5,a5,0x10
    1ee8:	00f707b3          	add	a5,a4,a5
    1eec:	40f607b3          	sub	a5,a2,a5
    1ef0:	41f7d713          	srai	a4,a5,0x1f
    1ef4:	02f70733          	mul	a4,a4,a5
    1ef8:	02f78633          	mul	a2,a5,a5
    1efc:	02f7b6b3          	mulhu	a3,a5,a5
    1f00:	20d72733          	sh1add	a4,a4,a3
    1f04:	01071713          	slli	a4,a4,0x10
    1f08:	01065613          	srli	a2,a2,0x10
    1f0c:	00c70633          	add	a2,a4,a2
    1f10:	41f65513          	srai	a0,a2,0x1f
    1f14:	01e65713          	srli	a4,a2,0x1e
    1f18:	20e54733          	sh2add	a4,a0,a4
    1f1c:	00261693          	slli	a3,a2,0x2
    1f20:	01071713          	slli	a4,a4,0x10
    1f24:	0106d693          	srli	a3,a3,0x10
    1f28:	00d706b3          	add	a3,a4,a3
    1f2c:	f4a68693          	addi	a3,a3,-182
    1f30:	41f6d593          	srai	a1,a3,0x1f
    1f34:	02c585b3          	mul	a1,a1,a2
    1f38:	02d50733          	mul	a4,a0,a3
    1f3c:	00e585b3          	add	a1,a1,a4
    1f40:	02c68733          	mul	a4,a3,a2
    1f44:	02c6b6b3          	mulhu	a3,a3,a2
    1f48:	00d586b3          	add	a3,a1,a3
    1f4c:	01069693          	slli	a3,a3,0x10
    1f50:	01075713          	srli	a4,a4,0x10
    1f54:	00e68733          	add	a4,a3,a4
    1f58:	000036b7          	lui	a3,0x3
    1f5c:	aab68693          	addi	a3,a3,-1365 # 2aab <inferenceTPG+0x1f5b>
    1f60:	00d70733          	add	a4,a4,a3
    1f64:	41f75693          	srai	a3,a4,0x1f
    1f68:	02c686b3          	mul	a3,a3,a2
    1f6c:	02e50533          	mul	a0,a0,a4
    1f70:	00a686b3          	add	a3,a3,a0
    1f74:	02c705b3          	mul	a1,a4,a2
    1f78:	02c73733          	mulhu	a4,a4,a2
    1f7c:	00e68733          	add	a4,a3,a4
    1f80:	01071713          	slli	a4,a4,0x10
    1f84:	0105d693          	srli	a3,a1,0x10
    1f88:	00d706b3          	add	a3,a4,a3
    1f8c:	00020737          	lui	a4,0x20
    1f90:	00e686b3          	add	a3,a3,a4
    1f94:	40f68633          	sub	a2,a3,a5
    1f98:	02f68c63          	beq	a3,a5,1fd0 <inferenceTPG+0x1480>
    1f9c:	00f7d713          	srli	a4,a5,0xf
    1fa0:	01179793          	slli	a5,a5,0x11
    1fa4:	01071713          	slli	a4,a4,0x10
    1fa8:	0107d793          	srli	a5,a5,0x10
    1fac:	00f707b3          	add	a5,a4,a5
    1fb0:	41f7d713          	srai	a4,a5,0x1f
    1fb4:	0107d593          	srli	a1,a5,0x10
    1fb8:	01071713          	slli	a4,a4,0x10
    1fbc:	41f65693          	srai	a3,a2,0x1f
    1fc0:	01079513          	slli	a0,a5,0x10
    1fc4:	00e585b3          	add	a1,a1,a4
    1fc8:	60d090ef          	jal	bdd4 <__divdi3>
    1fcc:	00050613          	mv	a2,a0
    1fd0:	000107b7          	lui	a5,0x10
    1fd4:	00f606b3          	add	a3,a2,a5
    1fd8:	160bc463          	bltz	s7,2140 <inferenceTPG+0x15f0>
    1fdc:	410bdb93          	srai	s7,s7,0x10
    1fe0:	00010737          	lui	a4,0x10
    1fe4:	01771733          	sll	a4,a4,s7
    1fe8:	41f75793          	srai	a5,a4,0x1f
    1fec:	41f6d613          	srai	a2,a3,0x1f
    1ff0:	02d787b3          	mul	a5,a5,a3
    1ff4:	02e60633          	mul	a2,a2,a4
    1ff8:	00c787b3          	add	a5,a5,a2
    1ffc:	02d70633          	mul	a2,a4,a3
    2000:	02d73733          	mulhu	a4,a4,a3
    2004:	00e787b3          	add	a5,a5,a4
    2008:	01079793          	slli	a5,a5,0x10
    200c:	01065713          	srli	a4,a2,0x10
    2010:	00e787b3          	add	a5,a5,a4
    2014:	0084a703          	lw	a4,8(s1)
    2018:	00e787b3          	add	a5,a5,a4
    201c:	004a2683          	lw	a3,4(s4)
    2020:	40d006b3          	neg	a3,a3
    2024:	00100713          	li	a4,1
    2028:	015b5663          	bge	s6,s5,2034 <inferenceTPG+0x14e4>
    202c:	000a8b13          	mv	s6,s5
    2030:	00000713          	li	a4,0
    2034:	1367d063          	bge	a5,s6,2154 <inferenceTPG+0x1604>
    2038:	000b0793          	mv	a5,s6
    203c:	00f6c463          	blt	a3,a5,2044 <inferenceTPG+0x14f4>
    2040:	00300713          	li	a4,3
    2044:	000206b7          	lui	a3,0x20
    2048:	000207b7          	lui	a5,0x20
    204c:	11878793          	addi	a5,a5,280 # 20118 <next.17>
    2050:	20f74733          	sh2add	a4,a4,a5
    2054:	00072783          	lw	a5,0(a4) # 10000 <i2c.c.57379e11+0x762>
    2058:	14468713          	addi	a4,a3,324 # 20144 <jump_table.23>
    205c:	20e7c7b3          	sh2add	a5,a5,a4
    2060:	0007a783          	lw	a5,0(a5)
    2064:	b39fe06f          	j	b9c <inferenceTPG+0x4c>
    2068:	00000a93          	li	s5,0
    206c:	9b1ff06f          	j	1a1c <inferenceTPG+0xecc>
    2070:	fff00a93          	li	s5,-1
    2074:	bc9ff06f          	j	1c3c <inferenceTPG+0x10ec>
    2078:	000657b7          	lui	a5,0x65
    207c:	87e78793          	addi	a5,a5,-1922 # 6487e <_sp+0x3983e>
    2080:	00f686b3          	add	a3,a3,a5
    2084:	be9ff06f          	j	1c6c <inferenceTPG+0x111c>
    2088:	fffce7b7          	lui	a5,0xfffce
    208c:	bc078793          	addi	a5,a5,-1088 # fffcdbc0 <_sp+0xfffa2b80>
    2090:	00f687b3          	add	a5,a3,a5
    2094:	00019637          	lui	a2,0x19
    2098:	21f60613          	addi	a2,a2,543 # 1921f <heap.cpp.6b15d6f6+0x3b66>
    209c:	00f66c63          	bltu	a2,a5,20b4 <inferenceTPG+0x1564>
    20a0:	fffce7b7          	lui	a5,0xfffce
    20a4:	bc178793          	addi	a5,a5,-1087 # fffcdbc1 <_sp+0xfffa2b81>
    20a8:	00f686b3          	add	a3,a3,a5
    20ac:	fff00513          	li	a0,-1
    20b0:	be5ff06f          	j	1c94 <inferenceTPG+0x1144>
    20b4:	0004b7b7          	lui	a5,0x4b
    20b8:	65f78793          	addi	a5,a5,1631 # 4b65f <_sp+0x2061f>
    20bc:	00100513          	li	a0,1
    20c0:	bcd7dae3          	bge	a5,a3,1c94 <inferenceTPG+0x1144>
    20c4:	000657b7          	lui	a5,0x65
    20c8:	87e78793          	addi	a5,a5,-1922 # 6487e <_sp+0x3983e>
    20cc:	40d786b3          	sub	a3,a5,a3
    20d0:	fff00513          	li	a0,-1
    20d4:	bc1ff06f          	j	1c94 <inferenceTPG+0x1144>
    20d8:	000657b7          	lui	a5,0x65
    20dc:	87e78793          	addi	a5,a5,-1922 # 6487e <_sp+0x3983e>
    20e0:	00f585b3          	add	a1,a1,a5
    20e4:	be9ff06f          	j	1ccc <inferenceTPG+0x117c>
    20e8:	fffce7b7          	lui	a5,0xfffce
    20ec:	bc078793          	addi	a5,a5,-1088 # fffcdbc0 <_sp+0xfffa2b80>
    20f0:	00f587b3          	add	a5,a1,a5
    20f4:	00019737          	lui	a4,0x19
    20f8:	21f70713          	addi	a4,a4,543 # 1921f <heap.cpp.6b15d6f6+0x3b66>
    20fc:	00f76c63          	bltu	a4,a5,2114 <inferenceTPG+0x15c4>
    2100:	fffce7b7          	lui	a5,0xfffce
    2104:	bc178793          	addi	a5,a5,-1087 # fffcdbc1 <_sp+0xfffa2b81>
    2108:	00f585b3          	add	a1,a1,a5
    210c:	fff00b13          	li	s6,-1
    2110:	be5ff06f          	j	1cf4 <inferenceTPG+0x11a4>
    2114:	0004b7b7          	lui	a5,0x4b
    2118:	65f78793          	addi	a5,a5,1631 # 4b65f <_sp+0x2061f>
    211c:	00100b13          	li	s6,1
    2120:	bcb7dae3          	bge	a5,a1,1cf4 <inferenceTPG+0x11a4>
    2124:	000657b7          	lui	a5,0x65
    2128:	87e78793          	addi	a5,a5,-1922 # 6487e <_sp+0x3983e>
    212c:	40b785b3          	sub	a1,a5,a1
    2130:	fff00b13          	li	s6,-1
    2134:	bc1ff06f          	j	1cf4 <inferenceTPG+0x11a4>
    2138:	41700bb3          	neg	s7,s7
    213c:	d89ff06f          	j	1ec4 <inferenceTPG+0x1374>
    2140:	417007b3          	neg	a5,s7
    2144:	4107d793          	srai	a5,a5,0x10
    2148:	00010737          	lui	a4,0x10
    214c:	40f75733          	sra	a4,a4,a5
    2150:	e99ff06f          	j	1fe8 <inferenceTPG+0x1498>
    2154:	00200713          	li	a4,2
    2158:	ee5ff06f          	j	203c <inferenceTPG+0x14ec>
    215c:	008a2b83          	lw	s7,8(s4)
    2160:	020b8663          	beqz	s7,218c <inferenceTPG+0x163c>
    2164:	0089a503          	lw	a0,8(s3)
    2168:	41f55793          	srai	a5,a0,0x1f
    216c:	01055593          	srli	a1,a0,0x10
    2170:	01079793          	slli	a5,a5,0x10
    2174:	000b8613          	mv	a2,s7
    2178:	41fbd693          	srai	a3,s7,0x1f
    217c:	01051513          	slli	a0,a0,0x10
    2180:	00f585b3          	add	a1,a1,a5
    2184:	451090ef          	jal	bdd4 <__divdi3>
    2188:	00050b93          	mv	s7,a0
    218c:	0084ac03          	lw	s8,8(s1)
    2190:	0004a783          	lw	a5,0(s1)
    2194:	00019737          	lui	a4,0x19
    2198:	22070713          	addi	a4,a4,544 # 19220 <heap.cpp.6b15d6f6+0x3b67>
    219c:	40f70733          	sub	a4,a4,a5
    21a0:	517cd7b7          	lui	a5,0x517cd
    21a4:	c8378793          	addi	a5,a5,-893 # 517ccc83 <_sp+0x517a1c43>
    21a8:	02f717b3          	mulh	a5,a4,a5
    21ac:	4117d793          	srai	a5,a5,0x11
    21b0:	41f75693          	srai	a3,a4,0x1f
    21b4:	40d787b3          	sub	a5,a5,a3
    21b8:	000656b7          	lui	a3,0x65
    21bc:	87e68693          	addi	a3,a3,-1922 # 6487e <_sp+0x3983e>
    21c0:	02d787b3          	mul	a5,a5,a3
    21c4:	40f707b3          	sub	a5,a4,a5
    21c8:	3607c463          	bltz	a5,2530 <inferenceTPG+0x19e0>
    21cc:	fffe7737          	lui	a4,0xfffe7
    21d0:	ddf70713          	addi	a4,a4,-545 # fffe6ddf <_sp+0xfffbbd9f>
    21d4:	00e78733          	add	a4,a5,a4
    21d8:	000196b7          	lui	a3,0x19
    21dc:	21e68693          	addi	a3,a3,542 # 1921e <heap.cpp.6b15d6f6+0x3b65>
    21e0:	34e6ec63          	bltu	a3,a4,2538 <inferenceTPG+0x19e8>
    21e4:	00032737          	lui	a4,0x32
    21e8:	43f70713          	addi	a4,a4,1087 # 3243f <_sp+0x73ff>
    21ec:	40f707b3          	sub	a5,a4,a5
    21f0:	00100513          	li	a0,1
    21f4:	41f7d813          	srai	a6,a5,0x1f
    21f8:	02f80733          	mul	a4,a6,a5
    21fc:	02f78633          	mul	a2,a5,a5
    2200:	02f7b6b3          	mulhu	a3,a5,a5
    2204:	20d72733          	sh1add	a4,a4,a3
    2208:	01071713          	slli	a4,a4,0x10
    220c:	01065613          	srli	a2,a2,0x10
    2210:	00c70633          	add	a2,a4,a2
    2214:	41f65893          	srai	a7,a2,0x1f
    2218:	1f300593          	li	a1,499
    221c:	02b88733          	mul	a4,a7,a1
    2220:	02b606b3          	mul	a3,a2,a1
    2224:	02b635b3          	mulhu	a1,a2,a1
    2228:	00b70733          	add	a4,a4,a1
    222c:	01071713          	slli	a4,a4,0x10
    2230:	0106d693          	srli	a3,a3,0x10
    2234:	00d706b3          	add	a3,a4,a3
    2238:	ffffd737          	lui	a4,0xffffd
    223c:	57e70713          	addi	a4,a4,1406 # ffffd57e <_sp+0xfffd253e>
    2240:	00e686b3          	add	a3,a3,a4
    2244:	41f6d593          	srai	a1,a3,0x1f
    2248:	02c585b3          	mul	a1,a1,a2
    224c:	02d888b3          	mul	a7,a7,a3
    2250:	011585b3          	add	a1,a1,a7
    2254:	02c68733          	mul	a4,a3,a2
    2258:	02c6b6b3          	mulhu	a3,a3,a2
    225c:	00d586b3          	add	a3,a1,a3
    2260:	01069693          	slli	a3,a3,0x10
    2264:	01075713          	srli	a4,a4,0x10
    2268:	00e68733          	add	a4,a3,a4
    226c:	000106b7          	lui	a3,0x10
    2270:	00d70733          	add	a4,a4,a3
    2274:	41f75693          	srai	a3,a4,0x1f
    2278:	02f686b3          	mul	a3,a3,a5
    227c:	02e80833          	mul	a6,a6,a4
    2280:	010686b3          	add	a3,a3,a6
    2284:	02f70633          	mul	a2,a4,a5
    2288:	02f73733          	mulhu	a4,a4,a5
    228c:	00e687b3          	add	a5,a3,a4
    2290:	01079793          	slli	a5,a5,0x10
    2294:	01065713          	srli	a4,a2,0x10
    2298:	00e78733          	add	a4,a5,a4
    229c:	02e507b3          	mul	a5,a0,a4
    22a0:	00078d13          	mv	s10,a5
    22a4:	0044a683          	lw	a3,4(s1)
    22a8:	00000593          	li	a1,0
    22ac:	2406c063          	bltz	a3,24ec <inferenceTPG+0x199c>
    22b0:	2e068063          	beqz	a3,2590 <inferenceTPG+0x1a40>
    22b4:	000207b7          	lui	a5,0x20
    22b8:	2cd7d863          	bge	a5,a3,2588 <inferenceTPG+0x1a38>
    22bc:	00000a93          	li	s5,0
    22c0:	4016d693          	srai	a3,a3,0x1
    22c4:	001a8a93          	addi	s5,s5,1
    22c8:	fed7cce3          	blt	a5,a3,22c0 <inferenceTPG+0x1770>
    22cc:	ffff0b37          	lui	s6,0xffff0
    22d0:	01668b33          	add	s6,a3,s6
    22d4:	41fb5793          	srai	a5,s6,0x1f
    22d8:	010b5593          	srli	a1,s6,0x10
    22dc:	01079793          	slli	a5,a5,0x10
    22e0:	00010737          	lui	a4,0x10
    22e4:	00e68633          	add	a2,a3,a4
    22e8:	41f65693          	srai	a3,a2,0x1f
    22ec:	010b1513          	slli	a0,s6,0x10
    22f0:	00f585b3          	add	a1,a1,a5
    22f4:	2e1090ef          	jal	bdd4 <__divdi3>
    22f8:	41f55613          	srai	a2,a0,0x1f
    22fc:	02a607b3          	mul	a5,a2,a0
    2300:	02a50733          	mul	a4,a0,a0
    2304:	02a536b3          	mulhu	a3,a0,a0
    2308:	20d7a7b3          	sh1add	a5,a5,a3
    230c:	01079793          	slli	a5,a5,0x10
    2310:	01075713          	srli	a4,a4,0x10
    2314:	00e78733          	add	a4,a5,a4
    2318:	41f75313          	srai	t1,a4,0x1f
    231c:	02e306b3          	mul	a3,t1,a4
    2320:	02e707b3          	mul	a5,a4,a4
    2324:	02e735b3          	mulhu	a1,a4,a4
    2328:	20b6a6b3          	sh1add	a3,a3,a1
    232c:	01069693          	slli	a3,a3,0x10
    2330:	0107d793          	srli	a5,a5,0x10
    2334:	00f687b3          	add	a5,a3,a5
    2338:	41f7d813          	srai	a6,a5,0x1f
    233c:	010a9a93          	slli	s5,s5,0x10
    2340:	41fad693          	srai	a3,s5,0x1f
    2344:	0000b8b7          	lui	a7,0xb
    2348:	17288893          	addi	a7,a7,370 # b172 <__muldf3+0x176>
    234c:	031686b3          	mul	a3,a3,a7
    2350:	031a85b3          	mul	a1,s5,a7
    2354:	031abab3          	mulhu	s5,s5,a7
    2358:	015686b3          	add	a3,a3,s5
    235c:	01069693          	slli	a3,a3,0x10
    2360:	0105d593          	srli	a1,a1,0x10
    2364:	00b685b3          	add	a1,a3,a1
    2368:	00bb05b3          	add	a1,s6,a1
    236c:	000028b7          	lui	a7,0x2
    2370:	5e288893          	addi	a7,a7,1506 # 25e2 <inferenceTPG+0x1a92>
    2374:	03180e33          	mul	t3,a6,a7
    2378:	031786b3          	mul	a3,a5,a7
    237c:	0317b8b3          	mulhu	a7,a5,a7
    2380:	011e08b3          	add	a7,t3,a7
    2384:	01089893          	slli	a7,a7,0x10
    2388:	0106d693          	srli	a3,a3,0x10
    238c:	00d886b3          	add	a3,a7,a3
    2390:	000038b7          	lui	a7,0x3
    2394:	e8d88893          	addi	a7,a7,-371 # 2e8d <inferenceTPG+0x233d>
    2398:	011686b3          	add	a3,a3,a7
    239c:	41f6de13          	srai	t3,a3,0x1f
    23a0:	02fe0e33          	mul	t3,t3,a5
    23a4:	02d808b3          	mul	a7,a6,a3
    23a8:	011e0e33          	add	t3,t3,a7
    23ac:	02f688b3          	mul	a7,a3,a5
    23b0:	02f6b6b3          	mulhu	a3,a3,a5
    23b4:	00de06b3          	add	a3,t3,a3
    23b8:	01069693          	slli	a3,a3,0x10
    23bc:	0108d893          	srli	a7,a7,0x10
    23c0:	011688b3          	add	a7,a3,a7
    23c4:	000056b7          	lui	a3,0x5
    23c8:	92568693          	addi	a3,a3,-1755 # 4925 <__heap_size+0x925>
    23cc:	00d888b3          	add	a7,a7,a3
    23d0:	41f8de13          	srai	t3,a7,0x1f
    23d4:	02fe0e33          	mul	t3,t3,a5
    23d8:	031806b3          	mul	a3,a6,a7
    23dc:	00de0e33          	add	t3,t3,a3
    23e0:	02f886b3          	mul	a3,a7,a5
    23e4:	02f8b8b3          	mulhu	a7,a7,a5
    23e8:	011e08b3          	add	a7,t3,a7
    23ec:	01089893          	slli	a7,a7,0x10
    23f0:	0106d693          	srli	a3,a3,0x10
    23f4:	00d886b3          	add	a3,a7,a3
    23f8:	0000b8b7          	lui	a7,0xb
    23fc:	aab88893          	addi	a7,a7,-1365 # aaab <__divdf3+0x27f>
    2400:	011686b3          	add	a3,a3,a7
    2404:	41f6d893          	srai	a7,a3,0x1f
    2408:	02e888b3          	mul	a7,a7,a4
    240c:	02d30333          	mul	t1,t1,a3
    2410:	00688333          	add	t1,a7,t1
    2414:	02e688b3          	mul	a7,a3,a4
    2418:	02e6b6b3          	mulhu	a3,a3,a4
    241c:	00d30733          	add	a4,t1,a3
    2420:	01071713          	slli	a4,a4,0x10
    2424:	0108d893          	srli	a7,a7,0x10
    2428:	011708b3          	add	a7,a4,a7
    242c:	00002737          	lui	a4,0x2
    2430:	73470713          	addi	a4,a4,1844 # 2734 <inferenceTPG+0x1be4>
    2434:	02e80333          	mul	t1,a6,a4
    2438:	02e786b3          	mul	a3,a5,a4
    243c:	02e7b733          	mulhu	a4,a5,a4
    2440:	00e30733          	add	a4,t1,a4
    2444:	01071713          	slli	a4,a4,0x10
    2448:	0106d693          	srli	a3,a3,0x10
    244c:	00d706b3          	add	a3,a4,a3
    2450:	00004737          	lui	a4,0x4
    2454:	8e470713          	addi	a4,a4,-1820 # 38e4 <inferenceTPG+0x2d94>
    2458:	00e686b3          	add	a3,a3,a4
    245c:	41f6d313          	srai	t1,a3,0x1f
    2460:	02f30333          	mul	t1,t1,a5
    2464:	02d80733          	mul	a4,a6,a3
    2468:	00e30333          	add	t1,t1,a4
    246c:	02f68733          	mul	a4,a3,a5
    2470:	02f6b6b3          	mulhu	a3,a3,a5
    2474:	00d306b3          	add	a3,t1,a3
    2478:	01069693          	slli	a3,a3,0x10
    247c:	01075713          	srli	a4,a4,0x10
    2480:	00e68733          	add	a4,a3,a4
    2484:	000066b7          	lui	a3,0x6
    2488:	66668693          	addi	a3,a3,1638 # 6666 <__heap_size+0x2666>
    248c:	00d70733          	add	a4,a4,a3
    2490:	41f75693          	srai	a3,a4,0x1f
    2494:	02f686b3          	mul	a3,a3,a5
    2498:	02e80833          	mul	a6,a6,a4
    249c:	010686b3          	add	a3,a3,a6
    24a0:	02f70833          	mul	a6,a4,a5
    24a4:	02f73733          	mulhu	a4,a4,a5
    24a8:	00e687b3          	add	a5,a3,a4
    24ac:	01079793          	slli	a5,a5,0x10
    24b0:	01085713          	srli	a4,a6,0x10
    24b4:	00e78733          	add	a4,a5,a4
    24b8:	00e888b3          	add	a7,a7,a4
    24bc:	411b0b33          	sub	s6,s6,a7
    24c0:	41fb5793          	srai	a5,s6,0x1f
    24c4:	02a787b3          	mul	a5,a5,a0
    24c8:	03660633          	mul	a2,a2,s6
    24cc:	00c787b3          	add	a5,a5,a2
    24d0:	02ab0733          	mul	a4,s6,a0
    24d4:	02ab3b33          	mulhu	s6,s6,a0
    24d8:	016787b3          	add	a5,a5,s6
    24dc:	01079793          	slli	a5,a5,0x10
    24e0:	01075713          	srli	a4,a4,0x10
    24e4:	00e78733          	add	a4,a5,a4
    24e8:	40e585b3          	sub	a1,a1,a4
    24ec:	00100793          	li	a5,1
    24f0:	017c5663          	bge	s8,s7,24fc <inferenceTPG+0x19ac>
    24f4:	000b8c13          	mv	s8,s7
    24f8:	00000793          	li	a5,0
    24fc:	098d5e63          	bge	s10,s8,2598 <inferenceTPG+0x1a48>
    2500:	000c0d13          	mv	s10,s8
    2504:	01a5c463          	blt	a1,s10,250c <inferenceTPG+0x19bc>
    2508:	00300793          	li	a5,3
    250c:	00020737          	lui	a4,0x20
    2510:	000206b7          	lui	a3,0x20
    2514:	10868693          	addi	a3,a3,264 # 20108 <next.16>
    2518:	20d7c7b3          	sh2add	a5,a5,a3
    251c:	0007a783          	lw	a5,0(a5) # 20000 <heap.cpp.6b15d6f6+0xa947>
    2520:	14470713          	addi	a4,a4,324 # 20144 <jump_table.23>
    2524:	20e7c7b3          	sh2add	a5,a5,a4
    2528:	0007a783          	lw	a5,0(a5)
    252c:	e70fe06f          	j	b9c <inferenceTPG+0x4c>
    2530:	00d787b3          	add	a5,a5,a3
    2534:	c99ff06f          	j	21cc <inferenceTPG+0x167c>
    2538:	fffce737          	lui	a4,0xfffce
    253c:	bc070713          	addi	a4,a4,-1088 # fffcdbc0 <_sp+0xfffa2b80>
    2540:	00e78733          	add	a4,a5,a4
    2544:	000196b7          	lui	a3,0x19
    2548:	21f68693          	addi	a3,a3,543 # 1921f <heap.cpp.6b15d6f6+0x3b66>
    254c:	00e6ec63          	bltu	a3,a4,2564 <inferenceTPG+0x1a14>
    2550:	fffce737          	lui	a4,0xfffce
    2554:	bc170713          	addi	a4,a4,-1087 # fffcdbc1 <_sp+0xfffa2b81>
    2558:	00e787b3          	add	a5,a5,a4
    255c:	fff00513          	li	a0,-1
    2560:	c95ff06f          	j	21f4 <inferenceTPG+0x16a4>
    2564:	0004b737          	lui	a4,0x4b
    2568:	65f70713          	addi	a4,a4,1631 # 4b65f <_sp+0x2061f>
    256c:	00100513          	li	a0,1
    2570:	c8f752e3          	bge	a4,a5,21f4 <inferenceTPG+0x16a4>
    2574:	00065737          	lui	a4,0x65
    2578:	87e70713          	addi	a4,a4,-1922 # 6487e <_sp+0x3983e>
    257c:	40f707b3          	sub	a5,a4,a5
    2580:	fff00513          	li	a0,-1
    2584:	c71ff06f          	j	21f4 <inferenceTPG+0x16a4>
    2588:	00000a93          	li	s5,0
    258c:	d41ff06f          	j	22cc <inferenceTPG+0x177c>
    2590:	fff00593          	li	a1,-1
    2594:	f59ff06f          	j	24ec <inferenceTPG+0x199c>
    2598:	00200793          	li	a5,2
    259c:	f69ff06f          	j	2504 <inferenceTPG+0x19b4>
    25a0:	01092783          	lw	a5,16(s2)
    25a4:	00010ab7          	lui	s5,0x10
    25a8:	18078c63          	beqz	a5,2740 <inferenceTPG+0x1bf0>
    25ac:	40f006b3          	neg	a3,a5
    25b0:	0ad7e6b3          	max	a3,a5,a3
    25b4:	41f6d713          	srai	a4,a3,0x1f
    25b8:	00017637          	lui	a2,0x17
    25bc:	15460613          	addi	a2,a2,340 # 17154 <heap.cpp.6b15d6f6+0x1a9b>
    25c0:	02c70733          	mul	a4,a4,a2
    25c4:	02c68ab3          	mul	s5,a3,a2
    25c8:	02c6b6b3          	mulhu	a3,a3,a2
    25cc:	00d70733          	add	a4,a4,a3
    25d0:	01071713          	slli	a4,a4,0x10
    25d4:	010ada93          	srli	s5,s5,0x10
    25d8:	01570ab3          	add	s5,a4,s5
    25dc:	00008737          	lui	a4,0x8
    25e0:	00ea8ab3          	add	s5,s5,a4
    25e4:	ffff0737          	lui	a4,0xffff0
    25e8:	00eafab3          	and	s5,s5,a4
    25ec:	3e07c663          	bltz	a5,29d8 <inferenceTPG+0x1e88>
    25f0:	41fad713          	srai	a4,s5,0x1f
    25f4:	0000b6b7          	lui	a3,0xb
    25f8:	17268693          	addi	a3,a3,370 # b172 <__muldf3+0x176>
    25fc:	02d70733          	mul	a4,a4,a3
    2600:	02da8633          	mul	a2,s5,a3
    2604:	02dab6b3          	mulhu	a3,s5,a3
    2608:	00d70733          	add	a4,a4,a3
    260c:	01071713          	slli	a4,a4,0x10
    2610:	01065693          	srli	a3,a2,0x10
    2614:	00d706b3          	add	a3,a4,a3
    2618:	40d785b3          	sub	a1,a5,a3
    261c:	41f5d713          	srai	a4,a1,0x1f
    2620:	02b70733          	mul	a4,a4,a1
    2624:	02b587b3          	mul	a5,a1,a1
    2628:	02b5b6b3          	mulhu	a3,a1,a1
    262c:	20d72733          	sh1add	a4,a4,a3
    2630:	01071713          	slli	a4,a4,0x10
    2634:	0107d793          	srli	a5,a5,0x10
    2638:	00f707b3          	add	a5,a4,a5
    263c:	41f7d513          	srai	a0,a5,0x1f
    2640:	01e7d713          	srli	a4,a5,0x1e
    2644:	20e54733          	sh2add	a4,a0,a4
    2648:	00279693          	slli	a3,a5,0x2
    264c:	01071713          	slli	a4,a4,0x10
    2650:	0106d693          	srli	a3,a3,0x10
    2654:	00d706b3          	add	a3,a4,a3
    2658:	f4a68693          	addi	a3,a3,-182
    265c:	41f6d613          	srai	a2,a3,0x1f
    2660:	02f60633          	mul	a2,a2,a5
    2664:	02d50733          	mul	a4,a0,a3
    2668:	00e60633          	add	a2,a2,a4
    266c:	02f68733          	mul	a4,a3,a5
    2670:	02f6b6b3          	mulhu	a3,a3,a5
    2674:	00d606b3          	add	a3,a2,a3
    2678:	01069693          	slli	a3,a3,0x10
    267c:	01075713          	srli	a4,a4,0x10
    2680:	00e68733          	add	a4,a3,a4
    2684:	000036b7          	lui	a3,0x3
    2688:	aab68693          	addi	a3,a3,-1365 # 2aab <inferenceTPG+0x1f5b>
    268c:	00d70733          	add	a4,a4,a3
    2690:	41f75693          	srai	a3,a4,0x1f
    2694:	02f686b3          	mul	a3,a3,a5
    2698:	02e50633          	mul	a2,a0,a4
    269c:	00c686b3          	add	a3,a3,a2
    26a0:	02f70633          	mul	a2,a4,a5
    26a4:	02f73733          	mulhu	a4,a4,a5
    26a8:	00e687b3          	add	a5,a3,a4
    26ac:	01079793          	slli	a5,a5,0x10
    26b0:	01065713          	srli	a4,a2,0x10
    26b4:	00e78733          	add	a4,a5,a4
    26b8:	000207b7          	lui	a5,0x20
    26bc:	00f70733          	add	a4,a4,a5
    26c0:	40b70633          	sub	a2,a4,a1
    26c4:	02b70c63          	beq	a4,a1,26fc <inferenceTPG+0x1bac>
    26c8:	00f5d713          	srli	a4,a1,0xf
    26cc:	01159793          	slli	a5,a1,0x11
    26d0:	01071713          	slli	a4,a4,0x10
    26d4:	0107d793          	srli	a5,a5,0x10
    26d8:	00f707b3          	add	a5,a4,a5
    26dc:	41f7d713          	srai	a4,a5,0x1f
    26e0:	0107d593          	srli	a1,a5,0x10
    26e4:	01071713          	slli	a4,a4,0x10
    26e8:	41f65693          	srai	a3,a2,0x1f
    26ec:	01079513          	slli	a0,a5,0x10
    26f0:	00e585b3          	add	a1,a1,a4
    26f4:	6e0090ef          	jal	bdd4 <__divdi3>
    26f8:	00050613          	mv	a2,a0
    26fc:	000107b7          	lui	a5,0x10
    2700:	00f606b3          	add	a3,a2,a5
    2704:	2c0ace63          	bltz	s5,29e0 <inferenceTPG+0x1e90>
    2708:	410ada93          	srai	s5,s5,0x10
    270c:	000107b7          	lui	a5,0x10
    2710:	015797b3          	sll	a5,a5,s5
    2714:	41f7da93          	srai	s5,a5,0x1f
    2718:	41f6d713          	srai	a4,a3,0x1f
    271c:	02da8ab3          	mul	s5,s5,a3
    2720:	02f70733          	mul	a4,a4,a5
    2724:	00ea8ab3          	add	s5,s5,a4
    2728:	02d78733          	mul	a4,a5,a3
    272c:	02d7b7b3          	mulhu	a5,a5,a3
    2730:	00fa8ab3          	add	s5,s5,a5
    2734:	010a9a93          	slli	s5,s5,0x10
    2738:	01075793          	srli	a5,a4,0x10
    273c:	00fa8ab3          	add	s5,s5,a5
    2740:	0084a783          	lw	a5,8(s1)
    2744:	00fa8ab3          	add	s5,s5,a5
    2748:	008a2b83          	lw	s7,8(s4)
    274c:	00000793          	li	a5,0
    2750:	240bc263          	bltz	s7,2994 <inferenceTPG+0x1e44>
    2754:	2a0b8463          	beqz	s7,29fc <inferenceTPG+0x1eac>
    2758:	000207b7          	lui	a5,0x20
    275c:	2977da63          	bge	a5,s7,29f0 <inferenceTPG+0x1ea0>
    2760:	000b8693          	mv	a3,s7
    2764:	00000c13          	li	s8,0
    2768:	4016d693          	srai	a3,a3,0x1
    276c:	001c0c13          	addi	s8,s8,1
    2770:	fed7cce3          	blt	a5,a3,2768 <inferenceTPG+0x1c18>
    2774:	ffff0b37          	lui	s6,0xffff0
    2778:	01668b33          	add	s6,a3,s6
    277c:	41fb5793          	srai	a5,s6,0x1f
    2780:	010b5593          	srli	a1,s6,0x10
    2784:	01079793          	slli	a5,a5,0x10
    2788:	00010737          	lui	a4,0x10
    278c:	00e68633          	add	a2,a3,a4
    2790:	41f65693          	srai	a3,a2,0x1f
    2794:	010b1513          	slli	a0,s6,0x10
    2798:	00f585b3          	add	a1,a1,a5
    279c:	638090ef          	jal	bdd4 <__divdi3>
    27a0:	41f55593          	srai	a1,a0,0x1f
    27a4:	02a587b3          	mul	a5,a1,a0
    27a8:	02a506b3          	mul	a3,a0,a0
    27ac:	02a53733          	mulhu	a4,a0,a0
    27b0:	20e7a7b3          	sh1add	a5,a5,a4
    27b4:	01079793          	slli	a5,a5,0x10
    27b8:	0106d693          	srli	a3,a3,0x10
    27bc:	00d786b3          	add	a3,a5,a3
    27c0:	41f6d313          	srai	t1,a3,0x1f
    27c4:	02d307b3          	mul	a5,t1,a3
    27c8:	02d68733          	mul	a4,a3,a3
    27cc:	02d6b633          	mulhu	a2,a3,a3
    27d0:	20c7a7b3          	sh1add	a5,a5,a2
    27d4:	01079793          	slli	a5,a5,0x10
    27d8:	01075713          	srli	a4,a4,0x10
    27dc:	00e78733          	add	a4,a5,a4
    27e0:	41f75813          	srai	a6,a4,0x1f
    27e4:	010c1793          	slli	a5,s8,0x10
    27e8:	41f7d613          	srai	a2,a5,0x1f
    27ec:	0000be37          	lui	t3,0xb
    27f0:	172e0e13          	addi	t3,t3,370 # b172 <__muldf3+0x176>
    27f4:	03c60633          	mul	a2,a2,t3
    27f8:	03c788b3          	mul	a7,a5,t3
    27fc:	03c7b7b3          	mulhu	a5,a5,t3
    2800:	00f60633          	add	a2,a2,a5
    2804:	01061613          	slli	a2,a2,0x10
    2808:	0108d793          	srli	a5,a7,0x10
    280c:	00f607b3          	add	a5,a2,a5
    2810:	00fb07b3          	add	a5,s6,a5
    2814:	000028b7          	lui	a7,0x2
    2818:	5e288893          	addi	a7,a7,1506 # 25e2 <inferenceTPG+0x1a92>
    281c:	03180e33          	mul	t3,a6,a7
    2820:	03170633          	mul	a2,a4,a7
    2824:	031738b3          	mulhu	a7,a4,a7
    2828:	011e08b3          	add	a7,t3,a7
    282c:	01089893          	slli	a7,a7,0x10
    2830:	01065613          	srli	a2,a2,0x10
    2834:	00c88633          	add	a2,a7,a2
    2838:	000038b7          	lui	a7,0x3
    283c:	e8d88893          	addi	a7,a7,-371 # 2e8d <inferenceTPG+0x233d>
    2840:	01160633          	add	a2,a2,a7
    2844:	41f65e13          	srai	t3,a2,0x1f
    2848:	02ee0e33          	mul	t3,t3,a4
    284c:	02c808b3          	mul	a7,a6,a2
    2850:	011e0e33          	add	t3,t3,a7
    2854:	02e608b3          	mul	a7,a2,a4
    2858:	02e63633          	mulhu	a2,a2,a4
    285c:	00ce0633          	add	a2,t3,a2
    2860:	01061613          	slli	a2,a2,0x10
    2864:	0108d893          	srli	a7,a7,0x10
    2868:	011608b3          	add	a7,a2,a7
    286c:	00005637          	lui	a2,0x5
    2870:	92560613          	addi	a2,a2,-1755 # 4925 <__heap_size+0x925>
    2874:	00c888b3          	add	a7,a7,a2
    2878:	41f8de13          	srai	t3,a7,0x1f
    287c:	02ee0e33          	mul	t3,t3,a4
    2880:	03180633          	mul	a2,a6,a7
    2884:	00ce0e33          	add	t3,t3,a2
    2888:	02e88633          	mul	a2,a7,a4
    288c:	02e8b8b3          	mulhu	a7,a7,a4
    2890:	011e08b3          	add	a7,t3,a7
    2894:	01089893          	slli	a7,a7,0x10
    2898:	01065613          	srli	a2,a2,0x10
    289c:	00c88633          	add	a2,a7,a2
    28a0:	0000b8b7          	lui	a7,0xb
    28a4:	aab88893          	addi	a7,a7,-1365 # aaab <__divdf3+0x27f>
    28a8:	01160633          	add	a2,a2,a7
    28ac:	41f65893          	srai	a7,a2,0x1f
    28b0:	02d888b3          	mul	a7,a7,a3
    28b4:	02c30333          	mul	t1,t1,a2
    28b8:	00688333          	add	t1,a7,t1
    28bc:	02d608b3          	mul	a7,a2,a3
    28c0:	02d63633          	mulhu	a2,a2,a3
    28c4:	00c306b3          	add	a3,t1,a2
    28c8:	01069693          	slli	a3,a3,0x10
    28cc:	0108d893          	srli	a7,a7,0x10
    28d0:	011688b3          	add	a7,a3,a7
    28d4:	000026b7          	lui	a3,0x2
    28d8:	73468693          	addi	a3,a3,1844 # 2734 <inferenceTPG+0x1be4>
    28dc:	02d80333          	mul	t1,a6,a3
    28e0:	02d70633          	mul	a2,a4,a3
    28e4:	02d736b3          	mulhu	a3,a4,a3
    28e8:	00d306b3          	add	a3,t1,a3
    28ec:	01069693          	slli	a3,a3,0x10
    28f0:	01065613          	srli	a2,a2,0x10
    28f4:	00c68633          	add	a2,a3,a2
    28f8:	000046b7          	lui	a3,0x4
    28fc:	8e468693          	addi	a3,a3,-1820 # 38e4 <inferenceTPG+0x2d94>
    2900:	00d60633          	add	a2,a2,a3
    2904:	41f65313          	srai	t1,a2,0x1f
    2908:	02e30333          	mul	t1,t1,a4
    290c:	02c806b3          	mul	a3,a6,a2
    2910:	00d30333          	add	t1,t1,a3
    2914:	02e606b3          	mul	a3,a2,a4
    2918:	02e63633          	mulhu	a2,a2,a4
    291c:	00c30633          	add	a2,t1,a2
    2920:	01061613          	slli	a2,a2,0x10
    2924:	0106d693          	srli	a3,a3,0x10
    2928:	00d606b3          	add	a3,a2,a3
    292c:	00006637          	lui	a2,0x6
    2930:	66660613          	addi	a2,a2,1638 # 6666 <__heap_size+0x2666>
    2934:	00c686b3          	add	a3,a3,a2
    2938:	41f6d613          	srai	a2,a3,0x1f
    293c:	02e60633          	mul	a2,a2,a4
    2940:	02d80833          	mul	a6,a6,a3
    2944:	01060633          	add	a2,a2,a6
    2948:	02e68833          	mul	a6,a3,a4
    294c:	02e6b6b3          	mulhu	a3,a3,a4
    2950:	00d60733          	add	a4,a2,a3
    2954:	01071713          	slli	a4,a4,0x10
    2958:	01085693          	srli	a3,a6,0x10
    295c:	00d706b3          	add	a3,a4,a3
    2960:	00d888b3          	add	a7,a7,a3
    2964:	411b0b33          	sub	s6,s6,a7
    2968:	41fb5713          	srai	a4,s6,0x1f
    296c:	02a70733          	mul	a4,a4,a0
    2970:	036585b3          	mul	a1,a1,s6
    2974:	00b70733          	add	a4,a4,a1
    2978:	02ab06b3          	mul	a3,s6,a0
    297c:	02ab3b33          	mulhu	s6,s6,a0
    2980:	01670733          	add	a4,a4,s6
    2984:	01071713          	slli	a4,a4,0x10
    2988:	0106d693          	srli	a3,a3,0x10
    298c:	00d706b3          	add	a3,a4,a3
    2990:	40d787b3          	sub	a5,a5,a3
    2994:	004a2703          	lw	a4,4(s4)
    2998:	40eb8bb3          	sub	s7,s7,a4
    299c:	00100713          	li	a4,1
    29a0:	0157d663          	bge	a5,s5,29ac <inferenceTPG+0x1e5c>
    29a4:	000a8793          	mv	a5,s5
    29a8:	00000713          	li	a4,0
    29ac:	00fbc463          	blt	s7,a5,29b4 <inferenceTPG+0x1e64>
    29b0:	00200713          	li	a4,2
    29b4:	000206b7          	lui	a3,0x20
    29b8:	000207b7          	lui	a5,0x20
    29bc:	0fc78793          	addi	a5,a5,252 # 200fc <next.15>
    29c0:	20f74733          	sh2add	a4,a4,a5
    29c4:	00072783          	lw	a5,0(a4) # 10000 <i2c.c.57379e11+0x762>
    29c8:	14468713          	addi	a4,a3,324 # 20144 <jump_table.23>
    29cc:	20e7c7b3          	sh2add	a5,a5,a4
    29d0:	0007a783          	lw	a5,0(a5)
    29d4:	9c8fe06f          	j	b9c <inferenceTPG+0x4c>
    29d8:	41500ab3          	neg	s5,s5
    29dc:	c15ff06f          	j	25f0 <inferenceTPG+0x1aa0>
    29e0:	41500733          	neg	a4,s5
    29e4:	41075713          	srai	a4,a4,0x10
    29e8:	40e7d7b3          	sra	a5,a5,a4
    29ec:	d29ff06f          	j	2714 <inferenceTPG+0x1bc4>
    29f0:	000b8693          	mv	a3,s7
    29f4:	00000c13          	li	s8,0
    29f8:	d7dff06f          	j	2774 <inferenceTPG+0x1c24>
    29fc:	fff00793          	li	a5,-1
    2a00:	f95ff06f          	j	2994 <inferenceTPG+0x1e44>
    2a04:	008a2a83          	lw	s5,8(s4)
    2a08:	000a8513          	mv	a0,s5
    2a0c:	020a8063          	beqz	s5,2a2c <inferenceTPG+0x1edc>
    2a10:	41fad693          	srai	a3,s5,0x1f
    2a14:	010ad593          	srli	a1,s5,0x10
    2a18:	01069793          	slli	a5,a3,0x10
    2a1c:	000a8613          	mv	a2,s5
    2a20:	010a9513          	slli	a0,s5,0x10
    2a24:	00f585b3          	add	a1,a1,a5
    2a28:	3ac090ef          	jal	bdd4 <__divdi3>
    2a2c:	00020737          	lui	a4,0x20
    2a30:	004a2783          	lw	a5,4(s4)
    2a34:	40fa87b3          	sub	a5,s5,a5
    2a38:	00a7a7b3          	slt	a5,a5,a0
    2a3c:	0017b793          	seqz	a5,a5
    2a40:	93818693          	addi	a3,gp,-1736 # 22db0 <next.14>
    2a44:	20d7c7b3          	sh2add	a5,a5,a3
    2a48:	0007a783          	lw	a5,0(a5)
    2a4c:	14470713          	addi	a4,a4,324 # 20144 <jump_table.23>
    2a50:	20e7c7b3          	sh2add	a5,a5,a4
    2a54:	0007a783          	lw	a5,0(a5)
    2a58:	944fe06f          	j	b9c <inferenceTPG+0x4c>
    2a5c:	0004aa83          	lw	s5,0(s1)
    2a60:	000ad463          	bgez	s5,2a68 <inferenceTPG+0x1f18>
    2a64:	0190406f          	j	727c <__heap_size+0x327c>
    2a68:	7c0a8063          	beqz	s5,3228 <inferenceTPG+0x26d8>
    2a6c:	000207b7          	lui	a5,0x20
    2a70:	7b57d663          	bge	a5,s5,321c <inferenceTPG+0x26cc>
    2a74:	000a8693          	mv	a3,s5
    2a78:	00000b93          	li	s7,0
    2a7c:	4016d693          	srai	a3,a3,0x1
    2a80:	001b8b93          	addi	s7,s7,1
    2a84:	fed7cce3          	blt	a5,a3,2a7c <inferenceTPG+0x1f2c>
    2a88:	ffff0b37          	lui	s6,0xffff0
    2a8c:	01668b33          	add	s6,a3,s6
    2a90:	41fb5793          	srai	a5,s6,0x1f
    2a94:	010b5593          	srli	a1,s6,0x10
    2a98:	01079793          	slli	a5,a5,0x10
    2a9c:	00010737          	lui	a4,0x10
    2aa0:	00e68633          	add	a2,a3,a4
    2aa4:	41f65693          	srai	a3,a2,0x1f
    2aa8:	010b1513          	slli	a0,s6,0x10
    2aac:	00f585b3          	add	a1,a1,a5
    2ab0:	324090ef          	jal	bdd4 <__divdi3>
    2ab4:	41f55593          	srai	a1,a0,0x1f
    2ab8:	02a587b3          	mul	a5,a1,a0
    2abc:	02a506b3          	mul	a3,a0,a0
    2ac0:	02a53733          	mulhu	a4,a0,a0
    2ac4:	20e7a7b3          	sh1add	a5,a5,a4
    2ac8:	01079793          	slli	a5,a5,0x10
    2acc:	0106d693          	srli	a3,a3,0x10
    2ad0:	00d786b3          	add	a3,a5,a3
    2ad4:	41f6d313          	srai	t1,a3,0x1f
    2ad8:	02d307b3          	mul	a5,t1,a3
    2adc:	02d68733          	mul	a4,a3,a3
    2ae0:	02d6b633          	mulhu	a2,a3,a3
    2ae4:	20c7a7b3          	sh1add	a5,a5,a2
    2ae8:	01079793          	slli	a5,a5,0x10
    2aec:	01075713          	srli	a4,a4,0x10
    2af0:	00e78733          	add	a4,a5,a4
    2af4:	41f75813          	srai	a6,a4,0x1f
    2af8:	010b9793          	slli	a5,s7,0x10
    2afc:	41f7d613          	srai	a2,a5,0x1f
    2b00:	0000be37          	lui	t3,0xb
    2b04:	172e0e13          	addi	t3,t3,370 # b172 <__muldf3+0x176>
    2b08:	03c60633          	mul	a2,a2,t3
    2b0c:	03c788b3          	mul	a7,a5,t3
    2b10:	03c7b7b3          	mulhu	a5,a5,t3
    2b14:	00f60633          	add	a2,a2,a5
    2b18:	01061613          	slli	a2,a2,0x10
    2b1c:	0108d793          	srli	a5,a7,0x10
    2b20:	00f607b3          	add	a5,a2,a5
    2b24:	00fb07b3          	add	a5,s6,a5
    2b28:	000028b7          	lui	a7,0x2
    2b2c:	5e288893          	addi	a7,a7,1506 # 25e2 <inferenceTPG+0x1a92>
    2b30:	03180e33          	mul	t3,a6,a7
    2b34:	03170633          	mul	a2,a4,a7
    2b38:	031738b3          	mulhu	a7,a4,a7
    2b3c:	011e08b3          	add	a7,t3,a7
    2b40:	01089893          	slli	a7,a7,0x10
    2b44:	01065613          	srli	a2,a2,0x10
    2b48:	00c88633          	add	a2,a7,a2
    2b4c:	000038b7          	lui	a7,0x3
    2b50:	e8d88893          	addi	a7,a7,-371 # 2e8d <inferenceTPG+0x233d>
    2b54:	01160633          	add	a2,a2,a7
    2b58:	41f65e13          	srai	t3,a2,0x1f
    2b5c:	02ee0e33          	mul	t3,t3,a4
    2b60:	02c808b3          	mul	a7,a6,a2
    2b64:	011e0e33          	add	t3,t3,a7
    2b68:	02e608b3          	mul	a7,a2,a4
    2b6c:	02e63633          	mulhu	a2,a2,a4
    2b70:	00ce0633          	add	a2,t3,a2
    2b74:	01061613          	slli	a2,a2,0x10
    2b78:	0108d893          	srli	a7,a7,0x10
    2b7c:	011608b3          	add	a7,a2,a7
    2b80:	00005637          	lui	a2,0x5
    2b84:	92560613          	addi	a2,a2,-1755 # 4925 <__heap_size+0x925>
    2b88:	00c888b3          	add	a7,a7,a2
    2b8c:	41f8de13          	srai	t3,a7,0x1f
    2b90:	02ee0e33          	mul	t3,t3,a4
    2b94:	03180633          	mul	a2,a6,a7
    2b98:	00ce0e33          	add	t3,t3,a2
    2b9c:	02e88633          	mul	a2,a7,a4
    2ba0:	02e8b8b3          	mulhu	a7,a7,a4
    2ba4:	011e08b3          	add	a7,t3,a7
    2ba8:	01089893          	slli	a7,a7,0x10
    2bac:	01065613          	srli	a2,a2,0x10
    2bb0:	00c88633          	add	a2,a7,a2
    2bb4:	0000b8b7          	lui	a7,0xb
    2bb8:	aab88893          	addi	a7,a7,-1365 # aaab <__divdf3+0x27f>
    2bbc:	01160633          	add	a2,a2,a7
    2bc0:	41f65893          	srai	a7,a2,0x1f
    2bc4:	02d888b3          	mul	a7,a7,a3
    2bc8:	02c30333          	mul	t1,t1,a2
    2bcc:	00688333          	add	t1,a7,t1
    2bd0:	02d608b3          	mul	a7,a2,a3
    2bd4:	02d63633          	mulhu	a2,a2,a3
    2bd8:	00c306b3          	add	a3,t1,a2
    2bdc:	01069693          	slli	a3,a3,0x10
    2be0:	0108d893          	srli	a7,a7,0x10
    2be4:	011688b3          	add	a7,a3,a7
    2be8:	000026b7          	lui	a3,0x2
    2bec:	73468693          	addi	a3,a3,1844 # 2734 <inferenceTPG+0x1be4>
    2bf0:	02d80333          	mul	t1,a6,a3
    2bf4:	02d70633          	mul	a2,a4,a3
    2bf8:	02d736b3          	mulhu	a3,a4,a3
    2bfc:	00d306b3          	add	a3,t1,a3
    2c00:	01069693          	slli	a3,a3,0x10
    2c04:	01065613          	srli	a2,a2,0x10
    2c08:	00c68633          	add	a2,a3,a2
    2c0c:	000046b7          	lui	a3,0x4
    2c10:	8e468693          	addi	a3,a3,-1820 # 38e4 <inferenceTPG+0x2d94>
    2c14:	00d60633          	add	a2,a2,a3
    2c18:	41f65313          	srai	t1,a2,0x1f
    2c1c:	02e30333          	mul	t1,t1,a4
    2c20:	02c806b3          	mul	a3,a6,a2
    2c24:	00d30333          	add	t1,t1,a3
    2c28:	02e606b3          	mul	a3,a2,a4
    2c2c:	02e63633          	mulhu	a2,a2,a4
    2c30:	00c30633          	add	a2,t1,a2
    2c34:	01061613          	slli	a2,a2,0x10
    2c38:	0106d693          	srli	a3,a3,0x10
    2c3c:	00d606b3          	add	a3,a2,a3
    2c40:	00006637          	lui	a2,0x6
    2c44:	66660613          	addi	a2,a2,1638 # 6666 <__heap_size+0x2666>
    2c48:	00c686b3          	add	a3,a3,a2
    2c4c:	41f6d613          	srai	a2,a3,0x1f
    2c50:	02e60633          	mul	a2,a2,a4
    2c54:	02d80833          	mul	a6,a6,a3
    2c58:	01060633          	add	a2,a2,a6
    2c5c:	02e68833          	mul	a6,a3,a4
    2c60:	02e6b6b3          	mulhu	a3,a3,a4
    2c64:	00d60733          	add	a4,a2,a3
    2c68:	01071713          	slli	a4,a4,0x10
    2c6c:	01085693          	srli	a3,a6,0x10
    2c70:	00d706b3          	add	a3,a4,a3
    2c74:	00d888b3          	add	a7,a7,a3
    2c78:	411b0b33          	sub	s6,s6,a7
    2c7c:	41fb5713          	srai	a4,s6,0x1f
    2c80:	02a70733          	mul	a4,a4,a0
    2c84:	036585b3          	mul	a1,a1,s6
    2c88:	00b70733          	add	a4,a4,a1
    2c8c:	02ab06b3          	mul	a3,s6,a0
    2c90:	02ab3b33          	mulhu	s6,s6,a0
    2c94:	01670733          	add	a4,a4,s6
    2c98:	01071713          	slli	a4,a4,0x10
    2c9c:	0106d693          	srli	a3,a3,0x10
    2ca0:	00d706b3          	add	a3,a4,a3
    2ca4:	40d78733          	sub	a4,a5,a3
    2ca8:	0084ac03          	lw	s8,8(s1)
    2cac:	41f75793          	srai	a5,a4,0x1f
    2cb0:	41fc5693          	srai	a3,s8,0x1f
    2cb4:	038787b3          	mul	a5,a5,s8
    2cb8:	02e686b3          	mul	a3,a3,a4
    2cbc:	00d787b3          	add	a5,a5,a3
    2cc0:	038706b3          	mul	a3,a4,s8
    2cc4:	03873733          	mulhu	a4,a4,s8
    2cc8:	00e787b3          	add	a5,a5,a4
    2ccc:	01079793          	slli	a5,a5,0x10
    2cd0:	0106d713          	srli	a4,a3,0x10
    2cd4:	00e787b3          	add	a5,a5,a4
    2cd8:	56078863          	beqz	a5,3248 <inferenceTPG+0x26f8>
    2cdc:	40f006b3          	neg	a3,a5
    2ce0:	0ad7e6b3          	max	a3,a5,a3
    2ce4:	41f6d713          	srai	a4,a3,0x1f
    2ce8:	00017637          	lui	a2,0x17
    2cec:	15460613          	addi	a2,a2,340 # 17154 <heap.cpp.6b15d6f6+0x1a9b>
    2cf0:	02c70733          	mul	a4,a4,a2
    2cf4:	02c68b33          	mul	s6,a3,a2
    2cf8:	02c6b6b3          	mulhu	a3,a3,a2
    2cfc:	00d70733          	add	a4,a4,a3
    2d00:	01071713          	slli	a4,a4,0x10
    2d04:	010b5b13          	srli	s6,s6,0x10
    2d08:	01670b33          	add	s6,a4,s6
    2d0c:	00008737          	lui	a4,0x8
    2d10:	00eb0b33          	add	s6,s6,a4
    2d14:	ffff0737          	lui	a4,0xffff0
    2d18:	00eb7b33          	and	s6,s6,a4
    2d1c:	5007ca63          	bltz	a5,3230 <inferenceTPG+0x26e0>
    2d20:	41fb5713          	srai	a4,s6,0x1f
    2d24:	0000b6b7          	lui	a3,0xb
    2d28:	17268693          	addi	a3,a3,370 # b172 <__muldf3+0x176>
    2d2c:	02d70733          	mul	a4,a4,a3
    2d30:	02db0633          	mul	a2,s6,a3
    2d34:	02db36b3          	mulhu	a3,s6,a3
    2d38:	00d70733          	add	a4,a4,a3
    2d3c:	01071713          	slli	a4,a4,0x10
    2d40:	01065693          	srli	a3,a2,0x10
    2d44:	00d706b3          	add	a3,a4,a3
    2d48:	40d787b3          	sub	a5,a5,a3
    2d4c:	41f7d713          	srai	a4,a5,0x1f
    2d50:	02f70733          	mul	a4,a4,a5
    2d54:	02f785b3          	mul	a1,a5,a5
    2d58:	02f7b6b3          	mulhu	a3,a5,a5
    2d5c:	20d72733          	sh1add	a4,a4,a3
    2d60:	01071713          	slli	a4,a4,0x10
    2d64:	0105d593          	srli	a1,a1,0x10
    2d68:	00b705b3          	add	a1,a4,a1
    2d6c:	41f5d513          	srai	a0,a1,0x1f
    2d70:	01e5d713          	srli	a4,a1,0x1e
    2d74:	20e54733          	sh2add	a4,a0,a4
    2d78:	00259693          	slli	a3,a1,0x2
    2d7c:	01071713          	slli	a4,a4,0x10
    2d80:	0106d693          	srli	a3,a3,0x10
    2d84:	00d706b3          	add	a3,a4,a3
    2d88:	f4a68693          	addi	a3,a3,-182
    2d8c:	41f6d613          	srai	a2,a3,0x1f
    2d90:	02b60633          	mul	a2,a2,a1
    2d94:	02d50733          	mul	a4,a0,a3
    2d98:	00e60633          	add	a2,a2,a4
    2d9c:	02b68733          	mul	a4,a3,a1
    2da0:	02b6b6b3          	mulhu	a3,a3,a1
    2da4:	00d606b3          	add	a3,a2,a3
    2da8:	01069693          	slli	a3,a3,0x10
    2dac:	01075713          	srli	a4,a4,0x10
    2db0:	00e68733          	add	a4,a3,a4
    2db4:	000036b7          	lui	a3,0x3
    2db8:	aab68693          	addi	a3,a3,-1365 # 2aab <inferenceTPG+0x1f5b>
    2dbc:	00d70733          	add	a4,a4,a3
    2dc0:	41f75693          	srai	a3,a4,0x1f
    2dc4:	02b686b3          	mul	a3,a3,a1
    2dc8:	02e50533          	mul	a0,a0,a4
    2dcc:	00a686b3          	add	a3,a3,a0
    2dd0:	02b70633          	mul	a2,a4,a1
    2dd4:	02b73733          	mulhu	a4,a4,a1
    2dd8:	00e68733          	add	a4,a3,a4
    2ddc:	01071713          	slli	a4,a4,0x10
    2de0:	01065693          	srli	a3,a2,0x10
    2de4:	00d706b3          	add	a3,a4,a3
    2de8:	00020737          	lui	a4,0x20
    2dec:	00e686b3          	add	a3,a3,a4
    2df0:	40f68633          	sub	a2,a3,a5
    2df4:	02f68c63          	beq	a3,a5,2e2c <inferenceTPG+0x22dc>
    2df8:	00f7d713          	srli	a4,a5,0xf
    2dfc:	01179793          	slli	a5,a5,0x11
    2e00:	01071713          	slli	a4,a4,0x10
    2e04:	0107d793          	srli	a5,a5,0x10
    2e08:	00f707b3          	add	a5,a4,a5
    2e0c:	41f7d713          	srai	a4,a5,0x1f
    2e10:	0107d593          	srli	a1,a5,0x10
    2e14:	01071713          	slli	a4,a4,0x10
    2e18:	41f65693          	srai	a3,a2,0x1f
    2e1c:	01079513          	slli	a0,a5,0x10
    2e20:	00e585b3          	add	a1,a1,a4
    2e24:	7b1080ef          	jal	bdd4 <__divdi3>
    2e28:	00050613          	mv	a2,a0
    2e2c:	000107b7          	lui	a5,0x10
    2e30:	00f606b3          	add	a3,a2,a5
    2e34:	400b4263          	bltz	s6,3238 <inferenceTPG+0x26e8>
    2e38:	410b5b13          	srai	s6,s6,0x10
    2e3c:	000107b7          	lui	a5,0x10
    2e40:	016797b3          	sll	a5,a5,s6
    2e44:	41f7db13          	srai	s6,a5,0x1f
    2e48:	41f6d713          	srai	a4,a3,0x1f
    2e4c:	02db0b33          	mul	s6,s6,a3
    2e50:	02f70733          	mul	a4,a4,a5
    2e54:	00eb0b33          	add	s6,s6,a4
    2e58:	02d78733          	mul	a4,a5,a3
    2e5c:	02d7b7b3          	mulhu	a5,a5,a3
    2e60:	00fb0b33          	add	s6,s6,a5
    2e64:	010b1b13          	slli	s6,s6,0x10
    2e68:	01075793          	srli	a5,a4,0x10
    2e6c:	00fb0b33          	add	s6,s6,a5
    2e70:	016a8b33          	add	s6,s5,s6
    2e74:	0044a783          	lw	a5,4(s1)
    2e78:	00fb07b3          	add	a5,s6,a5
    2e7c:	00078d13          	mv	s10,a5
    2e80:	004a2b83          	lw	s7,4(s4)
    2e84:	41700bb3          	neg	s7,s7
    2e88:	008a2683          	lw	a3,8(s4)
    2e8c:	00000613          	li	a2,0
    2e90:	2406c063          	bltz	a3,30d0 <inferenceTPG+0x2580>
    2e94:	3c068263          	beqz	a3,3258 <inferenceTPG+0x2708>
    2e98:	000207b7          	lui	a5,0x20
    2e9c:	3ad7da63          	bge	a5,a3,3250 <inferenceTPG+0x2700>
    2ea0:	00000a93          	li	s5,0
    2ea4:	4016d693          	srai	a3,a3,0x1
    2ea8:	001a8a93          	addi	s5,s5,1 # 10001 <i2c.c.57379e11+0x763>
    2eac:	fed7cce3          	blt	a5,a3,2ea4 <inferenceTPG+0x2354>
    2eb0:	ffff07b7          	lui	a5,0xffff0
    2eb4:	00f68b33          	add	s6,a3,a5
    2eb8:	41fb5793          	srai	a5,s6,0x1f
    2ebc:	010b5593          	srli	a1,s6,0x10
    2ec0:	01079793          	slli	a5,a5,0x10
    2ec4:	00010737          	lui	a4,0x10
    2ec8:	00e68633          	add	a2,a3,a4
    2ecc:	41f65693          	srai	a3,a2,0x1f
    2ed0:	010b1513          	slli	a0,s6,0x10
    2ed4:	00f585b3          	add	a1,a1,a5
    2ed8:	6fd080ef          	jal	bdd4 <__divdi3>
    2edc:	41f55593          	srai	a1,a0,0x1f
    2ee0:	02a587b3          	mul	a5,a1,a0
    2ee4:	02a50733          	mul	a4,a0,a0
    2ee8:	02a536b3          	mulhu	a3,a0,a0
    2eec:	20d7a7b3          	sh1add	a5,a5,a3
    2ef0:	01079793          	slli	a5,a5,0x10
    2ef4:	01075713          	srli	a4,a4,0x10
    2ef8:	00e78733          	add	a4,a5,a4
    2efc:	41f75313          	srai	t1,a4,0x1f
    2f00:	02e306b3          	mul	a3,t1,a4
    2f04:	02e707b3          	mul	a5,a4,a4
    2f08:	02e73633          	mulhu	a2,a4,a4
    2f0c:	20c6a6b3          	sh1add	a3,a3,a2
    2f10:	01069693          	slli	a3,a3,0x10
    2f14:	0107d793          	srli	a5,a5,0x10
    2f18:	00f687b3          	add	a5,a3,a5
    2f1c:	41f7d813          	srai	a6,a5,0x1f
    2f20:	010a9a93          	slli	s5,s5,0x10
    2f24:	41fad693          	srai	a3,s5,0x1f
    2f28:	0000b8b7          	lui	a7,0xb
    2f2c:	17288893          	addi	a7,a7,370 # b172 <__muldf3+0x176>
    2f30:	031686b3          	mul	a3,a3,a7
    2f34:	031a8633          	mul	a2,s5,a7
    2f38:	031abab3          	mulhu	s5,s5,a7
    2f3c:	015686b3          	add	a3,a3,s5
    2f40:	01069693          	slli	a3,a3,0x10
    2f44:	01065613          	srli	a2,a2,0x10
    2f48:	00c68633          	add	a2,a3,a2
    2f4c:	00cb0633          	add	a2,s6,a2
    2f50:	000028b7          	lui	a7,0x2
    2f54:	5e288893          	addi	a7,a7,1506 # 25e2 <inferenceTPG+0x1a92>
    2f58:	03180e33          	mul	t3,a6,a7
    2f5c:	031786b3          	mul	a3,a5,a7
    2f60:	0317b8b3          	mulhu	a7,a5,a7
    2f64:	011e08b3          	add	a7,t3,a7
    2f68:	01089893          	slli	a7,a7,0x10
    2f6c:	0106d693          	srli	a3,a3,0x10
    2f70:	00d886b3          	add	a3,a7,a3
    2f74:	000038b7          	lui	a7,0x3
    2f78:	e8d88893          	addi	a7,a7,-371 # 2e8d <inferenceTPG+0x233d>
    2f7c:	011686b3          	add	a3,a3,a7
    2f80:	41f6de13          	srai	t3,a3,0x1f
    2f84:	02fe0e33          	mul	t3,t3,a5
    2f88:	02d808b3          	mul	a7,a6,a3
    2f8c:	011e0e33          	add	t3,t3,a7
    2f90:	02f688b3          	mul	a7,a3,a5
    2f94:	02f6b6b3          	mulhu	a3,a3,a5
    2f98:	00de06b3          	add	a3,t3,a3
    2f9c:	01069693          	slli	a3,a3,0x10
    2fa0:	0108d893          	srli	a7,a7,0x10
    2fa4:	011688b3          	add	a7,a3,a7
    2fa8:	000056b7          	lui	a3,0x5
    2fac:	92568693          	addi	a3,a3,-1755 # 4925 <__heap_size+0x925>
    2fb0:	00d888b3          	add	a7,a7,a3
    2fb4:	41f8de13          	srai	t3,a7,0x1f
    2fb8:	02fe0e33          	mul	t3,t3,a5
    2fbc:	031806b3          	mul	a3,a6,a7
    2fc0:	00de0e33          	add	t3,t3,a3
    2fc4:	02f886b3          	mul	a3,a7,a5
    2fc8:	02f8b8b3          	mulhu	a7,a7,a5
    2fcc:	011e08b3          	add	a7,t3,a7
    2fd0:	01089893          	slli	a7,a7,0x10
    2fd4:	0106d693          	srli	a3,a3,0x10
    2fd8:	00d886b3          	add	a3,a7,a3
    2fdc:	0000b8b7          	lui	a7,0xb
    2fe0:	aab88893          	addi	a7,a7,-1365 # aaab <__divdf3+0x27f>
    2fe4:	011686b3          	add	a3,a3,a7
    2fe8:	41f6d893          	srai	a7,a3,0x1f
    2fec:	02e888b3          	mul	a7,a7,a4
    2ff0:	02d30333          	mul	t1,t1,a3
    2ff4:	00688333          	add	t1,a7,t1
    2ff8:	02e688b3          	mul	a7,a3,a4
    2ffc:	02e6b6b3          	mulhu	a3,a3,a4
    3000:	00d30733          	add	a4,t1,a3
    3004:	01071713          	slli	a4,a4,0x10
    3008:	0108d893          	srli	a7,a7,0x10
    300c:	011708b3          	add	a7,a4,a7
    3010:	00002737          	lui	a4,0x2
    3014:	73470713          	addi	a4,a4,1844 # 2734 <inferenceTPG+0x1be4>
    3018:	02e80333          	mul	t1,a6,a4
    301c:	02e786b3          	mul	a3,a5,a4
    3020:	02e7b733          	mulhu	a4,a5,a4
    3024:	00e30733          	add	a4,t1,a4
    3028:	01071713          	slli	a4,a4,0x10
    302c:	0106d693          	srli	a3,a3,0x10
    3030:	00d706b3          	add	a3,a4,a3
    3034:	00004737          	lui	a4,0x4
    3038:	8e470713          	addi	a4,a4,-1820 # 38e4 <inferenceTPG+0x2d94>
    303c:	00e686b3          	add	a3,a3,a4
    3040:	41f6d313          	srai	t1,a3,0x1f
    3044:	02f30333          	mul	t1,t1,a5
    3048:	02d80733          	mul	a4,a6,a3
    304c:	00e30333          	add	t1,t1,a4
    3050:	02f68733          	mul	a4,a3,a5
    3054:	02f6b6b3          	mulhu	a3,a3,a5
    3058:	00d306b3          	add	a3,t1,a3
    305c:	01069693          	slli	a3,a3,0x10
    3060:	01075713          	srli	a4,a4,0x10
    3064:	00e68733          	add	a4,a3,a4
    3068:	000066b7          	lui	a3,0x6
    306c:	66668693          	addi	a3,a3,1638 # 6666 <__heap_size+0x2666>
    3070:	00d70733          	add	a4,a4,a3
    3074:	41f75693          	srai	a3,a4,0x1f
    3078:	02f686b3          	mul	a3,a3,a5
    307c:	02e80833          	mul	a6,a6,a4
    3080:	010686b3          	add	a3,a3,a6
    3084:	02f70833          	mul	a6,a4,a5
    3088:	02f73733          	mulhu	a4,a4,a5
    308c:	00e687b3          	add	a5,a3,a4
    3090:	01079793          	slli	a5,a5,0x10
    3094:	01085713          	srli	a4,a6,0x10
    3098:	00e78733          	add	a4,a5,a4
    309c:	00e888b3          	add	a7,a7,a4
    30a0:	411b07b3          	sub	a5,s6,a7
    30a4:	41f7d713          	srai	a4,a5,0x1f
    30a8:	02a70733          	mul	a4,a4,a0
    30ac:	02f585b3          	mul	a1,a1,a5
    30b0:	00b70733          	add	a4,a4,a1
    30b4:	02a786b3          	mul	a3,a5,a0
    30b8:	02a7b7b3          	mulhu	a5,a5,a0
    30bc:	00f707b3          	add	a5,a4,a5
    30c0:	01079793          	slli	a5,a5,0x10
    30c4:	0106d713          	srli	a4,a3,0x10
    30c8:	00e78733          	add	a4,a5,a4
    30cc:	40e60633          	sub	a2,a2,a4
    30d0:	0089a683          	lw	a3,8(s3)
    30d4:	517cd7b7          	lui	a5,0x517cd
    30d8:	c8378793          	addi	a5,a5,-893 # 517ccc83 <_sp+0x517a1c43>
    30dc:	02f697b3          	mulh	a5,a3,a5
    30e0:	4117d793          	srai	a5,a5,0x11
    30e4:	41f6d713          	srai	a4,a3,0x1f
    30e8:	40e787b3          	sub	a5,a5,a4
    30ec:	00065737          	lui	a4,0x65
    30f0:	87e70713          	addi	a4,a4,-1922 # 6487e <_sp+0x3983e>
    30f4:	02e787b3          	mul	a5,a5,a4
    30f8:	40f687b3          	sub	a5,a3,a5
    30fc:	1607c263          	bltz	a5,3260 <inferenceTPG+0x2710>
    3100:	fffe7737          	lui	a4,0xfffe7
    3104:	ddf70713          	addi	a4,a4,-545 # fffe6ddf <_sp+0xfffbbd9f>
    3108:	00e78733          	add	a4,a5,a4
    310c:	000196b7          	lui	a3,0x19
    3110:	21e68693          	addi	a3,a3,542 # 1921e <heap.cpp.6b15d6f6+0x3b65>
    3114:	14e6ee63          	bltu	a3,a4,3270 <inferenceTPG+0x2720>
    3118:	00032737          	lui	a4,0x32
    311c:	43f70713          	addi	a4,a4,1087 # 3243f <_sp+0x73ff>
    3120:	40f707b3          	sub	a5,a4,a5
    3124:	00100593          	li	a1,1
    3128:	41f7d813          	srai	a6,a5,0x1f
    312c:	02f80733          	mul	a4,a6,a5
    3130:	02f788b3          	mul	a7,a5,a5
    3134:	02f7b6b3          	mulhu	a3,a5,a5
    3138:	20d72733          	sh1add	a4,a4,a3
    313c:	01071713          	slli	a4,a4,0x10
    3140:	0108d893          	srli	a7,a7,0x10
    3144:	011708b3          	add	a7,a4,a7
    3148:	41f8d313          	srai	t1,a7,0x1f
    314c:	1f300513          	li	a0,499
    3150:	02a30733          	mul	a4,t1,a0
    3154:	02a886b3          	mul	a3,a7,a0
    3158:	02a8b533          	mulhu	a0,a7,a0
    315c:	00a70733          	add	a4,a4,a0
    3160:	01071713          	slli	a4,a4,0x10
    3164:	0106d693          	srli	a3,a3,0x10
    3168:	00d706b3          	add	a3,a4,a3
    316c:	ffffd737          	lui	a4,0xffffd
    3170:	57e70713          	addi	a4,a4,1406 # ffffd57e <_sp+0xfffd253e>
    3174:	00e686b3          	add	a3,a3,a4
    3178:	41f6d513          	srai	a0,a3,0x1f
    317c:	03150533          	mul	a0,a0,a7
    3180:	02d30333          	mul	t1,t1,a3
    3184:	00650533          	add	a0,a0,t1
    3188:	03168733          	mul	a4,a3,a7
    318c:	0316b6b3          	mulhu	a3,a3,a7
    3190:	00d506b3          	add	a3,a0,a3
    3194:	01069693          	slli	a3,a3,0x10
    3198:	01075713          	srli	a4,a4,0x10
    319c:	00e68733          	add	a4,a3,a4
    31a0:	000106b7          	lui	a3,0x10
    31a4:	00d70733          	add	a4,a4,a3
    31a8:	41f75693          	srai	a3,a4,0x1f
    31ac:	02f686b3          	mul	a3,a3,a5
    31b0:	02e80833          	mul	a6,a6,a4
    31b4:	010686b3          	add	a3,a3,a6
    31b8:	02f70533          	mul	a0,a4,a5
    31bc:	02f73733          	mulhu	a4,a4,a5
    31c0:	00e687b3          	add	a5,a3,a4
    31c4:	01079793          	slli	a5,a5,0x10
    31c8:	01055713          	srli	a4,a0,0x10
    31cc:	00e78733          	add	a4,a5,a4
    31d0:	02e585b3          	mul	a1,a1,a4
    31d4:	018585b3          	add	a1,a1,s8
    31d8:	00100793          	li	a5,1
    31dc:	01abd663          	bge	s7,s10,31e8 <inferenceTPG+0x2698>
    31e0:	000d0b93          	mv	s7,s10
    31e4:	00000793          	li	a5,0
    31e8:	0d765c63          	bge	a2,s7,32c0 <inferenceTPG+0x2770>
    31ec:	000b8613          	mv	a2,s7
    31f0:	00c5c463          	blt	a1,a2,31f8 <inferenceTPG+0x26a8>
    31f4:	00300793          	li	a5,3
    31f8:	00020737          	lui	a4,0x20
    31fc:	000206b7          	lui	a3,0x20
    3200:	0ec68693          	addi	a3,a3,236 # 200ec <next.13>
    3204:	20d7c7b3          	sh2add	a5,a5,a3
    3208:	0007a783          	lw	a5,0(a5)
    320c:	14470713          	addi	a4,a4,324 # 20144 <jump_table.23>
    3210:	20e7c7b3          	sh2add	a5,a5,a4
    3214:	0007a783          	lw	a5,0(a5)
    3218:	985fd06f          	j	b9c <inferenceTPG+0x4c>
    321c:	000a8693          	mv	a3,s5
    3220:	00000b93          	li	s7,0
    3224:	865ff06f          	j	2a88 <inferenceTPG+0x1f38>
    3228:	fff00713          	li	a4,-1
    322c:	a7dff06f          	j	2ca8 <inferenceTPG+0x2158>
    3230:	41600b33          	neg	s6,s6
    3234:	aedff06f          	j	2d20 <inferenceTPG+0x21d0>
    3238:	41600733          	neg	a4,s6
    323c:	41075713          	srai	a4,a4,0x10
    3240:	40e7d7b3          	sra	a5,a5,a4
    3244:	c01ff06f          	j	2e44 <inferenceTPG+0x22f4>
    3248:	00010b37          	lui	s6,0x10
    324c:	c25ff06f          	j	2e70 <inferenceTPG+0x2320>
    3250:	00000a93          	li	s5,0
    3254:	c5dff06f          	j	2eb0 <inferenceTPG+0x2360>
    3258:	fff00613          	li	a2,-1
    325c:	e75ff06f          	j	30d0 <inferenceTPG+0x2580>
    3260:	00065737          	lui	a4,0x65
    3264:	87e70713          	addi	a4,a4,-1922 # 6487e <_sp+0x3983e>
    3268:	00e787b3          	add	a5,a5,a4
    326c:	e95ff06f          	j	3100 <inferenceTPG+0x25b0>
    3270:	fffce737          	lui	a4,0xfffce
    3274:	bc070713          	addi	a4,a4,-1088 # fffcdbc0 <_sp+0xfffa2b80>
    3278:	00e78733          	add	a4,a5,a4
    327c:	000196b7          	lui	a3,0x19
    3280:	21f68693          	addi	a3,a3,543 # 1921f <heap.cpp.6b15d6f6+0x3b66>
    3284:	00e6ec63          	bltu	a3,a4,329c <inferenceTPG+0x274c>
    3288:	fffce737          	lui	a4,0xfffce
    328c:	bc170713          	addi	a4,a4,-1087 # fffcdbc1 <_sp+0xfffa2b81>
    3290:	00e787b3          	add	a5,a5,a4
    3294:	fff00593          	li	a1,-1
    3298:	e91ff06f          	j	3128 <inferenceTPG+0x25d8>
    329c:	0004b737          	lui	a4,0x4b
    32a0:	65f70713          	addi	a4,a4,1631 # 4b65f <_sp+0x2061f>
    32a4:	00100593          	li	a1,1
    32a8:	e8f750e3          	bge	a4,a5,3128 <inferenceTPG+0x25d8>
    32ac:	00065737          	lui	a4,0x65
    32b0:	87e70713          	addi	a4,a4,-1922 # 6487e <_sp+0x3983e>
    32b4:	40f707b3          	sub	a5,a4,a5
    32b8:	fff00593          	li	a1,-1
    32bc:	e6dff06f          	j	3128 <inferenceTPG+0x25d8>
    32c0:	00200793          	li	a5,2
    32c4:	f2dff06f          	j	31f0 <inferenceTPG+0x26a0>
    32c8:	09b12023          	sw	s11,128(sp)
    32cc:	00492783          	lw	a5,4(s2)
    32d0:	0049a703          	lw	a4,4(s3)
    32d4:	00070d13          	mv	s10,a4
    32d8:	0ae7e733          	max	a4,a5,a4
    32dc:	00070d93          	mv	s11,a4
    32e0:	00010b37          	lui	s6,0x10
    32e4:	18078c63          	beqz	a5,347c <inferenceTPG+0x292c>
    32e8:	40f006b3          	neg	a3,a5
    32ec:	0ad7e6b3          	max	a3,a5,a3
    32f0:	41f6d713          	srai	a4,a3,0x1f
    32f4:	00017637          	lui	a2,0x17
    32f8:	15460613          	addi	a2,a2,340 # 17154 <heap.cpp.6b15d6f6+0x1a9b>
    32fc:	02c70733          	mul	a4,a4,a2
    3300:	02c68ab3          	mul	s5,a3,a2
    3304:	02c6b6b3          	mulhu	a3,a3,a2
    3308:	00d70733          	add	a4,a4,a3
    330c:	01071713          	slli	a4,a4,0x10
    3310:	010ada93          	srli	s5,s5,0x10
    3314:	01570ab3          	add	s5,a4,s5
    3318:	00008737          	lui	a4,0x8
    331c:	00ea8ab3          	add	s5,s5,a4
    3320:	ffff0737          	lui	a4,0xffff0
    3324:	00eafab3          	and	s5,s5,a4
    3328:	5c07c063          	bltz	a5,38e8 <inferenceTPG+0x2d98>
    332c:	41fad713          	srai	a4,s5,0x1f
    3330:	0000b6b7          	lui	a3,0xb
    3334:	17268693          	addi	a3,a3,370 # b172 <__muldf3+0x176>
    3338:	02d70733          	mul	a4,a4,a3
    333c:	02da8633          	mul	a2,s5,a3
    3340:	02dab6b3          	mulhu	a3,s5,a3
    3344:	00d70733          	add	a4,a4,a3
    3348:	01071713          	slli	a4,a4,0x10
    334c:	01065693          	srli	a3,a2,0x10
    3350:	00d706b3          	add	a3,a4,a3
    3354:	40d787b3          	sub	a5,a5,a3
    3358:	41f7d713          	srai	a4,a5,0x1f
    335c:	02f70733          	mul	a4,a4,a5
    3360:	02f785b3          	mul	a1,a5,a5
    3364:	02f7b6b3          	mulhu	a3,a5,a5
    3368:	20d72733          	sh1add	a4,a4,a3
    336c:	01071713          	slli	a4,a4,0x10
    3370:	0105d593          	srli	a1,a1,0x10
    3374:	00b705b3          	add	a1,a4,a1
    3378:	41f5d513          	srai	a0,a1,0x1f
    337c:	01e5d713          	srli	a4,a1,0x1e
    3380:	20e54733          	sh2add	a4,a0,a4
    3384:	00259693          	slli	a3,a1,0x2
    3388:	01071713          	slli	a4,a4,0x10
    338c:	0106d693          	srli	a3,a3,0x10
    3390:	00d706b3          	add	a3,a4,a3
    3394:	f4a68693          	addi	a3,a3,-182
    3398:	41f6d613          	srai	a2,a3,0x1f
    339c:	02b60633          	mul	a2,a2,a1
    33a0:	02d50733          	mul	a4,a0,a3
    33a4:	00e60633          	add	a2,a2,a4
    33a8:	02b68733          	mul	a4,a3,a1
    33ac:	02b6b6b3          	mulhu	a3,a3,a1
    33b0:	00d606b3          	add	a3,a2,a3
    33b4:	01069693          	slli	a3,a3,0x10
    33b8:	01075713          	srli	a4,a4,0x10
    33bc:	00e68733          	add	a4,a3,a4
    33c0:	000036b7          	lui	a3,0x3
    33c4:	aab68693          	addi	a3,a3,-1365 # 2aab <inferenceTPG+0x1f5b>
    33c8:	00d70733          	add	a4,a4,a3
    33cc:	41f75693          	srai	a3,a4,0x1f
    33d0:	02b686b3          	mul	a3,a3,a1
    33d4:	02e50533          	mul	a0,a0,a4
    33d8:	00a686b3          	add	a3,a3,a0
    33dc:	02b70633          	mul	a2,a4,a1
    33e0:	02b73733          	mulhu	a4,a4,a1
    33e4:	00e68733          	add	a4,a3,a4
    33e8:	01071713          	slli	a4,a4,0x10
    33ec:	01065693          	srli	a3,a2,0x10
    33f0:	00d706b3          	add	a3,a4,a3
    33f4:	00020737          	lui	a4,0x20
    33f8:	00e686b3          	add	a3,a3,a4
    33fc:	40f68633          	sub	a2,a3,a5
    3400:	02f68c63          	beq	a3,a5,3438 <inferenceTPG+0x28e8>
    3404:	00f7d713          	srli	a4,a5,0xf
    3408:	01179793          	slli	a5,a5,0x11
    340c:	01071713          	slli	a4,a4,0x10
    3410:	0107d793          	srli	a5,a5,0x10
    3414:	00f707b3          	add	a5,a4,a5
    3418:	41f7d713          	srai	a4,a5,0x1f
    341c:	0107d593          	srli	a1,a5,0x10
    3420:	01071713          	slli	a4,a4,0x10
    3424:	41f65693          	srai	a3,a2,0x1f
    3428:	01079513          	slli	a0,a5,0x10
    342c:	00e585b3          	add	a1,a1,a4
    3430:	1a5080ef          	jal	bdd4 <__divdi3>
    3434:	00050613          	mv	a2,a0
    3438:	000107b7          	lui	a5,0x10
    343c:	00f606b3          	add	a3,a2,a5
    3440:	4a0ac863          	bltz	s5,38f0 <inferenceTPG+0x2da0>
    3444:	410ada93          	srai	s5,s5,0x10
    3448:	000107b7          	lui	a5,0x10
    344c:	015797b3          	sll	a5,a5,s5
    3450:	41f7db13          	srai	s6,a5,0x1f
    3454:	41f6d713          	srai	a4,a3,0x1f
    3458:	02db0b33          	mul	s6,s6,a3
    345c:	02f70733          	mul	a4,a4,a5
    3460:	00eb0b33          	add	s6,s6,a4
    3464:	02d78733          	mul	a4,a5,a3
    3468:	02d7b7b3          	mulhu	a5,a5,a3
    346c:	00fb0b33          	add	s6,s6,a5
    3470:	010b1b13          	slli	s6,s6,0x10
    3474:	01075793          	srli	a5,a4,0x10
    3478:	00fb0b33          	add	s6,s6,a5
    347c:	0004ac03          	lw	s8,0(s1)
    3480:	480c4a63          	bltz	s8,3914 <inferenceTPG+0x2dc4>
    3484:	480c0463          	beqz	s8,390c <inferenceTPG+0x2dbc>
    3488:	000207b7          	lui	a5,0x20
    348c:	4787da63          	bge	a5,s8,3900 <inferenceTPG+0x2db0>
    3490:	000c0693          	mv	a3,s8
    3494:	00000a93          	li	s5,0
    3498:	4016d693          	srai	a3,a3,0x1
    349c:	001a8a93          	addi	s5,s5,1
    34a0:	fed7cce3          	blt	a5,a3,3498 <inferenceTPG+0x2948>
    34a4:	ffff0bb7          	lui	s7,0xffff0
    34a8:	01768bb3          	add	s7,a3,s7
    34ac:	41fbd793          	srai	a5,s7,0x1f
    34b0:	010bd593          	srli	a1,s7,0x10
    34b4:	01079793          	slli	a5,a5,0x10
    34b8:	00010737          	lui	a4,0x10
    34bc:	00e68633          	add	a2,a3,a4
    34c0:	41f65693          	srai	a3,a2,0x1f
    34c4:	010b9513          	slli	a0,s7,0x10
    34c8:	00f585b3          	add	a1,a1,a5
    34cc:	109080ef          	jal	bdd4 <__divdi3>
    34d0:	41f55593          	srai	a1,a0,0x1f
    34d4:	02a587b3          	mul	a5,a1,a0
    34d8:	02a50733          	mul	a4,a0,a0
    34dc:	02a536b3          	mulhu	a3,a0,a0
    34e0:	20d7a7b3          	sh1add	a5,a5,a3
    34e4:	01079793          	slli	a5,a5,0x10
    34e8:	01075713          	srli	a4,a4,0x10
    34ec:	00e78733          	add	a4,a5,a4
    34f0:	41f75313          	srai	t1,a4,0x1f
    34f4:	02e306b3          	mul	a3,t1,a4
    34f8:	02e707b3          	mul	a5,a4,a4
    34fc:	02e73633          	mulhu	a2,a4,a4
    3500:	20c6a6b3          	sh1add	a3,a3,a2
    3504:	01069693          	slli	a3,a3,0x10
    3508:	0107d793          	srli	a5,a5,0x10
    350c:	00f687b3          	add	a5,a3,a5
    3510:	41f7d813          	srai	a6,a5,0x1f
    3514:	010a9a93          	slli	s5,s5,0x10
    3518:	41fad613          	srai	a2,s5,0x1f
    351c:	0000b8b7          	lui	a7,0xb
    3520:	17288893          	addi	a7,a7,370 # b172 <__muldf3+0x176>
    3524:	03160633          	mul	a2,a2,a7
    3528:	031a86b3          	mul	a3,s5,a7
    352c:	031abab3          	mulhu	s5,s5,a7
    3530:	01560633          	add	a2,a2,s5
    3534:	01061613          	slli	a2,a2,0x10
    3538:	0106d693          	srli	a3,a3,0x10
    353c:	00d606b3          	add	a3,a2,a3
    3540:	00db86b3          	add	a3,s7,a3
    3544:	000028b7          	lui	a7,0x2
    3548:	5e288893          	addi	a7,a7,1506 # 25e2 <inferenceTPG+0x1a92>
    354c:	03180e33          	mul	t3,a6,a7
    3550:	03178633          	mul	a2,a5,a7
    3554:	0317b8b3          	mulhu	a7,a5,a7
    3558:	011e08b3          	add	a7,t3,a7
    355c:	01089893          	slli	a7,a7,0x10
    3560:	01065613          	srli	a2,a2,0x10
    3564:	00c88633          	add	a2,a7,a2
    3568:	000038b7          	lui	a7,0x3
    356c:	e8d88893          	addi	a7,a7,-371 # 2e8d <inferenceTPG+0x233d>
    3570:	01160633          	add	a2,a2,a7
    3574:	41f65e13          	srai	t3,a2,0x1f
    3578:	02fe0e33          	mul	t3,t3,a5
    357c:	02c808b3          	mul	a7,a6,a2
    3580:	011e0e33          	add	t3,t3,a7
    3584:	02f608b3          	mul	a7,a2,a5
    3588:	02f63633          	mulhu	a2,a2,a5
    358c:	00ce0633          	add	a2,t3,a2
    3590:	01061613          	slli	a2,a2,0x10
    3594:	0108d893          	srli	a7,a7,0x10
    3598:	011608b3          	add	a7,a2,a7
    359c:	00005637          	lui	a2,0x5
    35a0:	92560613          	addi	a2,a2,-1755 # 4925 <__heap_size+0x925>
    35a4:	00c888b3          	add	a7,a7,a2
    35a8:	41f8de13          	srai	t3,a7,0x1f
    35ac:	02fe0e33          	mul	t3,t3,a5
    35b0:	03180633          	mul	a2,a6,a7
    35b4:	00ce0e33          	add	t3,t3,a2
    35b8:	02f88633          	mul	a2,a7,a5
    35bc:	02f8b8b3          	mulhu	a7,a7,a5
    35c0:	011e08b3          	add	a7,t3,a7
    35c4:	01089893          	slli	a7,a7,0x10
    35c8:	01065613          	srli	a2,a2,0x10
    35cc:	00c88633          	add	a2,a7,a2
    35d0:	0000b8b7          	lui	a7,0xb
    35d4:	aab88893          	addi	a7,a7,-1365 # aaab <__divdf3+0x27f>
    35d8:	01160633          	add	a2,a2,a7
    35dc:	41f65893          	srai	a7,a2,0x1f
    35e0:	02e888b3          	mul	a7,a7,a4
    35e4:	02c30333          	mul	t1,t1,a2
    35e8:	00688333          	add	t1,a7,t1
    35ec:	02e608b3          	mul	a7,a2,a4
    35f0:	02e63633          	mulhu	a2,a2,a4
    35f4:	00c30733          	add	a4,t1,a2
    35f8:	01071713          	slli	a4,a4,0x10
    35fc:	0108d893          	srli	a7,a7,0x10
    3600:	011708b3          	add	a7,a4,a7
    3604:	00002737          	lui	a4,0x2
    3608:	73470713          	addi	a4,a4,1844 # 2734 <inferenceTPG+0x1be4>
    360c:	02e80333          	mul	t1,a6,a4
    3610:	02e78633          	mul	a2,a5,a4
    3614:	02e7b733          	mulhu	a4,a5,a4
    3618:	00e30733          	add	a4,t1,a4
    361c:	01071713          	slli	a4,a4,0x10
    3620:	01065613          	srli	a2,a2,0x10
    3624:	00c70633          	add	a2,a4,a2
    3628:	00004737          	lui	a4,0x4
    362c:	8e470713          	addi	a4,a4,-1820 # 38e4 <inferenceTPG+0x2d94>
    3630:	00e60633          	add	a2,a2,a4
    3634:	41f65313          	srai	t1,a2,0x1f
    3638:	02f30333          	mul	t1,t1,a5
    363c:	02c80733          	mul	a4,a6,a2
    3640:	00e30333          	add	t1,t1,a4
    3644:	02f60733          	mul	a4,a2,a5
    3648:	02f63633          	mulhu	a2,a2,a5
    364c:	00c30633          	add	a2,t1,a2
    3650:	01061613          	slli	a2,a2,0x10
    3654:	01075713          	srli	a4,a4,0x10
    3658:	00e60733          	add	a4,a2,a4
    365c:	00006637          	lui	a2,0x6
    3660:	66660613          	addi	a2,a2,1638 # 6666 <__heap_size+0x2666>
    3664:	00c70733          	add	a4,a4,a2
    3668:	41f75613          	srai	a2,a4,0x1f
    366c:	02f60633          	mul	a2,a2,a5
    3670:	02e80833          	mul	a6,a6,a4
    3674:	01060633          	add	a2,a2,a6
    3678:	02f70833          	mul	a6,a4,a5
    367c:	02f73733          	mulhu	a4,a4,a5
    3680:	00e607b3          	add	a5,a2,a4
    3684:	01079793          	slli	a5,a5,0x10
    3688:	01085713          	srli	a4,a6,0x10
    368c:	00e78733          	add	a4,a5,a4
    3690:	00e888b3          	add	a7,a7,a4
    3694:	411b8bb3          	sub	s7,s7,a7
    3698:	41fbd793          	srai	a5,s7,0x1f
    369c:	02a787b3          	mul	a5,a5,a0
    36a0:	037585b3          	mul	a1,a1,s7
    36a4:	00b787b3          	add	a5,a5,a1
    36a8:	02ab8733          	mul	a4,s7,a0
    36ac:	02abbbb3          	mulhu	s7,s7,a0
    36b0:	017787b3          	add	a5,a5,s7
    36b4:	01079793          	slli	a5,a5,0x10
    36b8:	01075713          	srli	a4,a4,0x10
    36bc:	00e78733          	add	a4,a5,a4
    36c0:	40e686b3          	sub	a3,a3,a4
    36c4:	0084a703          	lw	a4,8(s1)
    36c8:	41f75793          	srai	a5,a4,0x1f
    36cc:	41f6d613          	srai	a2,a3,0x1f
    36d0:	02d787b3          	mul	a5,a5,a3
    36d4:	02e60633          	mul	a2,a2,a4
    36d8:	00c787b3          	add	a5,a5,a2
    36dc:	02d70633          	mul	a2,a4,a3
    36e0:	02d73733          	mulhu	a4,a4,a3
    36e4:	00e787b3          	add	a5,a5,a4
    36e8:	01079793          	slli	a5,a5,0x10
    36ec:	01065713          	srli	a4,a2,0x10
    36f0:	00e787b3          	add	a5,a5,a4
    36f4:	22078063          	beqz	a5,3914 <inferenceTPG+0x2dc4>
    36f8:	40f006b3          	neg	a3,a5
    36fc:	0ad7e6b3          	max	a3,a5,a3
    3700:	41f6d713          	srai	a4,a3,0x1f
    3704:	00017637          	lui	a2,0x17
    3708:	15460613          	addi	a2,a2,340 # 17154 <heap.cpp.6b15d6f6+0x1a9b>
    370c:	02c70733          	mul	a4,a4,a2
    3710:	02c68ab3          	mul	s5,a3,a2
    3714:	02c6b6b3          	mulhu	a3,a3,a2
    3718:	00d70733          	add	a4,a4,a3
    371c:	01071713          	slli	a4,a4,0x10
    3720:	010ada93          	srli	s5,s5,0x10
    3724:	01570ab3          	add	s5,a4,s5
    3728:	00008737          	lui	a4,0x8
    372c:	00ea8ab3          	add	s5,s5,a4
    3730:	ffff0737          	lui	a4,0xffff0
    3734:	00eafab3          	and	s5,s5,a4
    3738:	1e07c263          	bltz	a5,391c <inferenceTPG+0x2dcc>
    373c:	41fad713          	srai	a4,s5,0x1f
    3740:	0000b6b7          	lui	a3,0xb
    3744:	17268693          	addi	a3,a3,370 # b172 <__muldf3+0x176>
    3748:	02d70733          	mul	a4,a4,a3
    374c:	02da8633          	mul	a2,s5,a3
    3750:	02dab6b3          	mulhu	a3,s5,a3
    3754:	00d70733          	add	a4,a4,a3
    3758:	01071713          	slli	a4,a4,0x10
    375c:	01065693          	srli	a3,a2,0x10
    3760:	00d706b3          	add	a3,a4,a3
    3764:	40d787b3          	sub	a5,a5,a3
    3768:	41f7d713          	srai	a4,a5,0x1f
    376c:	02f70733          	mul	a4,a4,a5
    3770:	02f78633          	mul	a2,a5,a5
    3774:	02f7b6b3          	mulhu	a3,a5,a5
    3778:	20d72733          	sh1add	a4,a4,a3
    377c:	01071713          	slli	a4,a4,0x10
    3780:	01065613          	srli	a2,a2,0x10
    3784:	00c70633          	add	a2,a4,a2
    3788:	41f65513          	srai	a0,a2,0x1f
    378c:	01e65713          	srli	a4,a2,0x1e
    3790:	20e54733          	sh2add	a4,a0,a4
    3794:	00261693          	slli	a3,a2,0x2
    3798:	01071713          	slli	a4,a4,0x10
    379c:	0106d693          	srli	a3,a3,0x10
    37a0:	00d706b3          	add	a3,a4,a3
    37a4:	f4a68693          	addi	a3,a3,-182
    37a8:	41f6d593          	srai	a1,a3,0x1f
    37ac:	02c585b3          	mul	a1,a1,a2
    37b0:	02d50733          	mul	a4,a0,a3
    37b4:	00e585b3          	add	a1,a1,a4
    37b8:	02c68733          	mul	a4,a3,a2
    37bc:	02c6b6b3          	mulhu	a3,a3,a2
    37c0:	00d586b3          	add	a3,a1,a3
    37c4:	01069693          	slli	a3,a3,0x10
    37c8:	01075713          	srli	a4,a4,0x10
    37cc:	00e68733          	add	a4,a3,a4
    37d0:	000036b7          	lui	a3,0x3
    37d4:	aab68693          	addi	a3,a3,-1365 # 2aab <inferenceTPG+0x1f5b>
    37d8:	00d70733          	add	a4,a4,a3
    37dc:	41f75693          	srai	a3,a4,0x1f
    37e0:	02c686b3          	mul	a3,a3,a2
    37e4:	02e50533          	mul	a0,a0,a4
    37e8:	00a686b3          	add	a3,a3,a0
    37ec:	02c705b3          	mul	a1,a4,a2
    37f0:	02c73733          	mulhu	a4,a4,a2
    37f4:	00e68733          	add	a4,a3,a4
    37f8:	01071713          	slli	a4,a4,0x10
    37fc:	0105d693          	srli	a3,a1,0x10
    3800:	00d706b3          	add	a3,a4,a3
    3804:	00020737          	lui	a4,0x20
    3808:	00e686b3          	add	a3,a3,a4
    380c:	40f68633          	sub	a2,a3,a5
    3810:	02f68c63          	beq	a3,a5,3848 <inferenceTPG+0x2cf8>
    3814:	00f7d713          	srli	a4,a5,0xf
    3818:	01179793          	slli	a5,a5,0x11
    381c:	01071713          	slli	a4,a4,0x10
    3820:	0107d793          	srli	a5,a5,0x10
    3824:	00f707b3          	add	a5,a4,a5
    3828:	41f7d713          	srai	a4,a5,0x1f
    382c:	0107d593          	srli	a1,a5,0x10
    3830:	01071713          	slli	a4,a4,0x10
    3834:	41f65693          	srai	a3,a2,0x1f
    3838:	01079513          	slli	a0,a5,0x10
    383c:	00e585b3          	add	a1,a1,a4
    3840:	594080ef          	jal	bdd4 <__divdi3>
    3844:	00050613          	mv	a2,a0
    3848:	000107b7          	lui	a5,0x10
    384c:	00f606b3          	add	a3,a2,a5
    3850:	0c0aca63          	bltz	s5,3924 <inferenceTPG+0x2dd4>
    3854:	410ada93          	srai	s5,s5,0x10
    3858:	00010737          	lui	a4,0x10
    385c:	01571733          	sll	a4,a4,s5
    3860:	41f75793          	srai	a5,a4,0x1f
    3864:	41f6d613          	srai	a2,a3,0x1f
    3868:	02d787b3          	mul	a5,a5,a3
    386c:	02e60633          	mul	a2,a2,a4
    3870:	00c787b3          	add	a5,a5,a2
    3874:	02d70633          	mul	a2,a4,a3
    3878:	02d73733          	mulhu	a4,a4,a3
    387c:	00e787b3          	add	a5,a5,a4
    3880:	01079793          	slli	a5,a5,0x10
    3884:	01065713          	srli	a4,a2,0x10
    3888:	00e787b3          	add	a5,a5,a4
    388c:	00fc07b3          	add	a5,s8,a5
    3890:	0044a703          	lw	a4,4(s1)
    3894:	00e787b3          	add	a5,a5,a4
    3898:	00092703          	lw	a4,0(s2)
    389c:	0aed66b3          	max	a3,s10,a4
    38a0:	00100713          	li	a4,1
    38a4:	01bb5663          	bge	s6,s11,38b0 <inferenceTPG+0x2d60>
    38a8:	000d8b13          	mv	s6,s11
    38ac:	00000713          	li	a4,0
    38b0:	0967d463          	bge	a5,s6,3938 <inferenceTPG+0x2de8>
    38b4:	000b0793          	mv	a5,s6
    38b8:	00f6c463          	blt	a3,a5,38c0 <inferenceTPG+0x2d70>
    38bc:	00300713          	li	a4,3
    38c0:	000206b7          	lui	a3,0x20
    38c4:	000207b7          	lui	a5,0x20
    38c8:	0dc78793          	addi	a5,a5,220 # 200dc <next.12>
    38cc:	20f74733          	sh2add	a4,a4,a5
    38d0:	00072783          	lw	a5,0(a4) # 10000 <i2c.c.57379e11+0x762>
    38d4:	14468713          	addi	a4,a3,324 # 20144 <jump_table.23>
    38d8:	20e7c7b3          	sh2add	a5,a5,a4
    38dc:	0007a783          	lw	a5,0(a5)
    38e0:	08012d83          	lw	s11,128(sp)
    38e4:	ab8fd06f          	j	b9c <inferenceTPG+0x4c>
    38e8:	41500ab3          	neg	s5,s5
    38ec:	a41ff06f          	j	332c <inferenceTPG+0x27dc>
    38f0:	41500733          	neg	a4,s5
    38f4:	41075713          	srai	a4,a4,0x10
    38f8:	40e7d7b3          	sra	a5,a5,a4
    38fc:	b55ff06f          	j	3450 <inferenceTPG+0x2900>
    3900:	000c0693          	mv	a3,s8
    3904:	00000a93          	li	s5,0
    3908:	b9dff06f          	j	34a4 <inferenceTPG+0x2954>
    390c:	fff00693          	li	a3,-1
    3910:	db5ff06f          	j	36c4 <inferenceTPG+0x2b74>
    3914:	000107b7          	lui	a5,0x10
    3918:	f75ff06f          	j	388c <inferenceTPG+0x2d3c>
    391c:	41500ab3          	neg	s5,s5
    3920:	e1dff06f          	j	373c <inferenceTPG+0x2bec>
    3924:	415007b3          	neg	a5,s5
    3928:	4107d793          	srai	a5,a5,0x10
    392c:	00010737          	lui	a4,0x10
    3930:	40f75733          	sra	a4,a4,a5
    3934:	f2dff06f          	j	3860 <inferenceTPG+0x2d10>
    3938:	00200713          	li	a4,2
    393c:	f7dff06f          	j	38b8 <inferenceTPG+0x2d68>
    3940:	09b12023          	sw	s11,128(sp)
    3944:	0049a783          	lw	a5,4(s3)
    3948:	00492703          	lw	a4,4(s2)
    394c:	0ae7e733          	max	a4,a5,a4
    3950:	00e12423          	sw	a4,8(sp)
    3954:	00092703          	lw	a4,0(s2)
    3958:	0ae7e7b3          	max	a5,a5,a4
    395c:	00078d13          	mv	s10,a5
    3960:	00c92783          	lw	a5,12(s2)
    3964:	00010b37          	lui	s6,0x10
    3968:	18078c63          	beqz	a5,3b00 <inferenceTPG+0x2fb0>
    396c:	40f006b3          	neg	a3,a5
    3970:	0ad7e6b3          	max	a3,a5,a3
    3974:	41f6d713          	srai	a4,a3,0x1f
    3978:	00017637          	lui	a2,0x17
    397c:	15460613          	addi	a2,a2,340 # 17154 <heap.cpp.6b15d6f6+0x1a9b>
    3980:	02c70733          	mul	a4,a4,a2
    3984:	02c68ab3          	mul	s5,a3,a2
    3988:	02c6b6b3          	mulhu	a3,a3,a2
    398c:	00d70733          	add	a4,a4,a3
    3990:	01071713          	slli	a4,a4,0x10
    3994:	010ada93          	srli	s5,s5,0x10
    3998:	01570ab3          	add	s5,a4,s5
    399c:	00008737          	lui	a4,0x8
    39a0:	00ea8ab3          	add	s5,s5,a4
    39a4:	ffff0737          	lui	a4,0xffff0
    39a8:	00eafab3          	and	s5,s5,a4
    39ac:	5c07c263          	bltz	a5,3f70 <inferenceTPG+0x3420>
    39b0:	41fad713          	srai	a4,s5,0x1f
    39b4:	0000b6b7          	lui	a3,0xb
    39b8:	17268693          	addi	a3,a3,370 # b172 <__muldf3+0x176>
    39bc:	02d70733          	mul	a4,a4,a3
    39c0:	02da8633          	mul	a2,s5,a3
    39c4:	02dab6b3          	mulhu	a3,s5,a3
    39c8:	00d70733          	add	a4,a4,a3
    39cc:	01071713          	slli	a4,a4,0x10
    39d0:	01065693          	srli	a3,a2,0x10
    39d4:	00d706b3          	add	a3,a4,a3
    39d8:	40d787b3          	sub	a5,a5,a3
    39dc:	41f7d713          	srai	a4,a5,0x1f
    39e0:	02f70733          	mul	a4,a4,a5
    39e4:	02f785b3          	mul	a1,a5,a5
    39e8:	02f7b6b3          	mulhu	a3,a5,a5
    39ec:	20d72733          	sh1add	a4,a4,a3
    39f0:	01071713          	slli	a4,a4,0x10
    39f4:	0105d593          	srli	a1,a1,0x10
    39f8:	00b705b3          	add	a1,a4,a1
    39fc:	41f5d513          	srai	a0,a1,0x1f
    3a00:	01e5d713          	srli	a4,a1,0x1e
    3a04:	20e54733          	sh2add	a4,a0,a4
    3a08:	00259693          	slli	a3,a1,0x2
    3a0c:	01071713          	slli	a4,a4,0x10
    3a10:	0106d693          	srli	a3,a3,0x10
    3a14:	00d706b3          	add	a3,a4,a3
    3a18:	f4a68693          	addi	a3,a3,-182
    3a1c:	41f6d613          	srai	a2,a3,0x1f
    3a20:	02b60633          	mul	a2,a2,a1
    3a24:	02d50733          	mul	a4,a0,a3
    3a28:	00e60633          	add	a2,a2,a4
    3a2c:	02b68733          	mul	a4,a3,a1
    3a30:	02b6b6b3          	mulhu	a3,a3,a1
    3a34:	00d606b3          	add	a3,a2,a3
    3a38:	01069693          	slli	a3,a3,0x10
    3a3c:	01075713          	srli	a4,a4,0x10
    3a40:	00e68733          	add	a4,a3,a4
    3a44:	000036b7          	lui	a3,0x3
    3a48:	aab68693          	addi	a3,a3,-1365 # 2aab <inferenceTPG+0x1f5b>
    3a4c:	00d70733          	add	a4,a4,a3
    3a50:	41f75693          	srai	a3,a4,0x1f
    3a54:	02b686b3          	mul	a3,a3,a1
    3a58:	02e50533          	mul	a0,a0,a4
    3a5c:	00a686b3          	add	a3,a3,a0
    3a60:	02b70633          	mul	a2,a4,a1
    3a64:	02b73733          	mulhu	a4,a4,a1
    3a68:	00e68733          	add	a4,a3,a4
    3a6c:	01071713          	slli	a4,a4,0x10
    3a70:	01065693          	srli	a3,a2,0x10
    3a74:	00d706b3          	add	a3,a4,a3
    3a78:	00020737          	lui	a4,0x20
    3a7c:	00e686b3          	add	a3,a3,a4
    3a80:	40f68633          	sub	a2,a3,a5
    3a84:	02f68c63          	beq	a3,a5,3abc <inferenceTPG+0x2f6c>
    3a88:	00f7d713          	srli	a4,a5,0xf
    3a8c:	01179793          	slli	a5,a5,0x11
    3a90:	01071713          	slli	a4,a4,0x10
    3a94:	0107d793          	srli	a5,a5,0x10
    3a98:	00f707b3          	add	a5,a4,a5
    3a9c:	41f7d713          	srai	a4,a5,0x1f
    3aa0:	0107d593          	srli	a1,a5,0x10
    3aa4:	01071713          	slli	a4,a4,0x10
    3aa8:	41f65693          	srai	a3,a2,0x1f
    3aac:	01079513          	slli	a0,a5,0x10
    3ab0:	00e585b3          	add	a1,a1,a4
    3ab4:	320080ef          	jal	bdd4 <__divdi3>
    3ab8:	00050613          	mv	a2,a0
    3abc:	000107b7          	lui	a5,0x10
    3ac0:	00f606b3          	add	a3,a2,a5
    3ac4:	4a0aca63          	bltz	s5,3f78 <inferenceTPG+0x3428>
    3ac8:	410ada93          	srai	s5,s5,0x10
    3acc:	000107b7          	lui	a5,0x10
    3ad0:	015797b3          	sll	a5,a5,s5
    3ad4:	41f7db13          	srai	s6,a5,0x1f
    3ad8:	41f6d713          	srai	a4,a3,0x1f
    3adc:	02db0b33          	mul	s6,s6,a3
    3ae0:	02f70733          	mul	a4,a4,a5
    3ae4:	00eb0b33          	add	s6,s6,a4
    3ae8:	02d78733          	mul	a4,a5,a3
    3aec:	02d7b7b3          	mulhu	a5,a5,a3
    3af0:	00fb0b33          	add	s6,s6,a5
    3af4:	010b1b13          	slli	s6,s6,0x10
    3af8:	01075793          	srli	a5,a4,0x10
    3afc:	00fb0b33          	add	s6,s6,a5
    3b00:	0084ac03          	lw	s8,8(s1)
    3b04:	016c07b3          	add	a5,s8,s6
    3b08:	00078d93          	mv	s11,a5
    3b0c:	0004ab03          	lw	s6,0(s1)
    3b10:	480b4663          	bltz	s6,3f9c <inferenceTPG+0x344c>
    3b14:	480b0063          	beqz	s6,3f94 <inferenceTPG+0x3444>
    3b18:	000207b7          	lui	a5,0x20
    3b1c:	4767d663          	bge	a5,s6,3f88 <inferenceTPG+0x3438>
    3b20:	000b0693          	mv	a3,s6
    3b24:	00000a93          	li	s5,0
    3b28:	4016d693          	srai	a3,a3,0x1
    3b2c:	001a8a93          	addi	s5,s5,1
    3b30:	fed7cce3          	blt	a5,a3,3b28 <inferenceTPG+0x2fd8>
    3b34:	ffff0bb7          	lui	s7,0xffff0
    3b38:	01768bb3          	add	s7,a3,s7
    3b3c:	41fbd793          	srai	a5,s7,0x1f
    3b40:	010bd593          	srli	a1,s7,0x10
    3b44:	01079793          	slli	a5,a5,0x10
    3b48:	00010737          	lui	a4,0x10
    3b4c:	00e68633          	add	a2,a3,a4
    3b50:	41f65693          	srai	a3,a2,0x1f
    3b54:	010b9513          	slli	a0,s7,0x10
    3b58:	00f585b3          	add	a1,a1,a5
    3b5c:	278080ef          	jal	bdd4 <__divdi3>
    3b60:	41f55593          	srai	a1,a0,0x1f
    3b64:	02a587b3          	mul	a5,a1,a0
    3b68:	02a506b3          	mul	a3,a0,a0
    3b6c:	02a53733          	mulhu	a4,a0,a0
    3b70:	20e7a7b3          	sh1add	a5,a5,a4
    3b74:	01079793          	slli	a5,a5,0x10
    3b78:	0106d693          	srli	a3,a3,0x10
    3b7c:	00d786b3          	add	a3,a5,a3
    3b80:	41f6d313          	srai	t1,a3,0x1f
    3b84:	02d30733          	mul	a4,t1,a3
    3b88:	02d687b3          	mul	a5,a3,a3
    3b8c:	02d6b633          	mulhu	a2,a3,a3
    3b90:	20c72733          	sh1add	a4,a4,a2
    3b94:	01071713          	slli	a4,a4,0x10
    3b98:	0107d793          	srli	a5,a5,0x10
    3b9c:	00f707b3          	add	a5,a4,a5
    3ba0:	41f7d813          	srai	a6,a5,0x1f
    3ba4:	010a9a93          	slli	s5,s5,0x10
    3ba8:	41fad613          	srai	a2,s5,0x1f
    3bac:	0000b8b7          	lui	a7,0xb
    3bb0:	17288893          	addi	a7,a7,370 # b172 <__muldf3+0x176>
    3bb4:	03160633          	mul	a2,a2,a7
    3bb8:	031a8733          	mul	a4,s5,a7
    3bbc:	031abab3          	mulhu	s5,s5,a7
    3bc0:	01560633          	add	a2,a2,s5
    3bc4:	01061613          	slli	a2,a2,0x10
    3bc8:	01075713          	srli	a4,a4,0x10
    3bcc:	00e60733          	add	a4,a2,a4
    3bd0:	00eb8733          	add	a4,s7,a4
    3bd4:	000028b7          	lui	a7,0x2
    3bd8:	5e288893          	addi	a7,a7,1506 # 25e2 <inferenceTPG+0x1a92>
    3bdc:	03180e33          	mul	t3,a6,a7
    3be0:	03178633          	mul	a2,a5,a7
    3be4:	0317b8b3          	mulhu	a7,a5,a7
    3be8:	011e08b3          	add	a7,t3,a7
    3bec:	01089893          	slli	a7,a7,0x10
    3bf0:	01065613          	srli	a2,a2,0x10
    3bf4:	00c88633          	add	a2,a7,a2
    3bf8:	000038b7          	lui	a7,0x3
    3bfc:	e8d88893          	addi	a7,a7,-371 # 2e8d <inferenceTPG+0x233d>
    3c00:	01160633          	add	a2,a2,a7
    3c04:	41f65e13          	srai	t3,a2,0x1f
    3c08:	02fe0e33          	mul	t3,t3,a5
    3c0c:	02c808b3          	mul	a7,a6,a2
    3c10:	011e0e33          	add	t3,t3,a7
    3c14:	02f608b3          	mul	a7,a2,a5
    3c18:	02f63633          	mulhu	a2,a2,a5
    3c1c:	00ce0633          	add	a2,t3,a2
    3c20:	01061613          	slli	a2,a2,0x10
    3c24:	0108d893          	srli	a7,a7,0x10
    3c28:	011608b3          	add	a7,a2,a7
    3c2c:	00005637          	lui	a2,0x5
    3c30:	92560613          	addi	a2,a2,-1755 # 4925 <__heap_size+0x925>
    3c34:	00c888b3          	add	a7,a7,a2
    3c38:	41f8de13          	srai	t3,a7,0x1f
    3c3c:	02fe0e33          	mul	t3,t3,a5
    3c40:	03180633          	mul	a2,a6,a7
    3c44:	00ce0e33          	add	t3,t3,a2
    3c48:	02f88633          	mul	a2,a7,a5
    3c4c:	02f8b8b3          	mulhu	a7,a7,a5
    3c50:	011e08b3          	add	a7,t3,a7
    3c54:	01089893          	slli	a7,a7,0x10
    3c58:	01065613          	srli	a2,a2,0x10
    3c5c:	00c88633          	add	a2,a7,a2
    3c60:	0000b8b7          	lui	a7,0xb
    3c64:	aab88893          	addi	a7,a7,-1365 # aaab <__divdf3+0x27f>
    3c68:	01160633          	add	a2,a2,a7
    3c6c:	41f65893          	srai	a7,a2,0x1f
    3c70:	02d888b3          	mul	a7,a7,a3
    3c74:	02c30333          	mul	t1,t1,a2
    3c78:	00688333          	add	t1,a7,t1
    3c7c:	02d608b3          	mul	a7,a2,a3
    3c80:	02d63633          	mulhu	a2,a2,a3
    3c84:	00c306b3          	add	a3,t1,a2
    3c88:	01069693          	slli	a3,a3,0x10
    3c8c:	0108d893          	srli	a7,a7,0x10
    3c90:	011688b3          	add	a7,a3,a7
    3c94:	000026b7          	lui	a3,0x2
    3c98:	73468693          	addi	a3,a3,1844 # 2734 <inferenceTPG+0x1be4>
    3c9c:	02d80333          	mul	t1,a6,a3
    3ca0:	02d78633          	mul	a2,a5,a3
    3ca4:	02d7b6b3          	mulhu	a3,a5,a3
    3ca8:	00d306b3          	add	a3,t1,a3
    3cac:	01069693          	slli	a3,a3,0x10
    3cb0:	01065613          	srli	a2,a2,0x10
    3cb4:	00c68633          	add	a2,a3,a2
    3cb8:	000046b7          	lui	a3,0x4
    3cbc:	8e468693          	addi	a3,a3,-1820 # 38e4 <inferenceTPG+0x2d94>
    3cc0:	00d60633          	add	a2,a2,a3
    3cc4:	41f65313          	srai	t1,a2,0x1f
    3cc8:	02f30333          	mul	t1,t1,a5
    3ccc:	02c806b3          	mul	a3,a6,a2
    3cd0:	00d30333          	add	t1,t1,a3
    3cd4:	02f606b3          	mul	a3,a2,a5
    3cd8:	02f63633          	mulhu	a2,a2,a5
    3cdc:	00c30633          	add	a2,t1,a2
    3ce0:	01061613          	slli	a2,a2,0x10
    3ce4:	0106d693          	srli	a3,a3,0x10
    3ce8:	00d606b3          	add	a3,a2,a3
    3cec:	00006637          	lui	a2,0x6
    3cf0:	66660613          	addi	a2,a2,1638 # 6666 <__heap_size+0x2666>
    3cf4:	00c686b3          	add	a3,a3,a2
    3cf8:	41f6d613          	srai	a2,a3,0x1f
    3cfc:	02f60633          	mul	a2,a2,a5
    3d00:	02d80833          	mul	a6,a6,a3
    3d04:	01060633          	add	a2,a2,a6
    3d08:	02f68833          	mul	a6,a3,a5
    3d0c:	02f6b6b3          	mulhu	a3,a3,a5
    3d10:	00d607b3          	add	a5,a2,a3
    3d14:	01079793          	slli	a5,a5,0x10
    3d18:	01085693          	srli	a3,a6,0x10
    3d1c:	00d786b3          	add	a3,a5,a3
    3d20:	00d888b3          	add	a7,a7,a3
    3d24:	411b8bb3          	sub	s7,s7,a7
    3d28:	41fbd793          	srai	a5,s7,0x1f
    3d2c:	02a787b3          	mul	a5,a5,a0
    3d30:	037585b3          	mul	a1,a1,s7
    3d34:	00b787b3          	add	a5,a5,a1
    3d38:	02ab86b3          	mul	a3,s7,a0
    3d3c:	02abbbb3          	mulhu	s7,s7,a0
    3d40:	017787b3          	add	a5,a5,s7
    3d44:	01079793          	slli	a5,a5,0x10
    3d48:	0106d693          	srli	a3,a3,0x10
    3d4c:	00d786b3          	add	a3,a5,a3
    3d50:	40d70733          	sub	a4,a4,a3
    3d54:	41f75793          	srai	a5,a4,0x1f
    3d58:	41fc5693          	srai	a3,s8,0x1f
    3d5c:	038787b3          	mul	a5,a5,s8
    3d60:	02e686b3          	mul	a3,a3,a4
    3d64:	00d787b3          	add	a5,a5,a3
    3d68:	038706b3          	mul	a3,a4,s8
    3d6c:	03873733          	mulhu	a4,a4,s8
    3d70:	00e787b3          	add	a5,a5,a4
    3d74:	01079793          	slli	a5,a5,0x10
    3d78:	0106d713          	srli	a4,a3,0x10
    3d7c:	00e787b3          	add	a5,a5,a4
    3d80:	20078e63          	beqz	a5,3f9c <inferenceTPG+0x344c>
    3d84:	40f006b3          	neg	a3,a5
    3d88:	0ad7e6b3          	max	a3,a5,a3
    3d8c:	41f6d713          	srai	a4,a3,0x1f
    3d90:	00017637          	lui	a2,0x17
    3d94:	15460613          	addi	a2,a2,340 # 17154 <heap.cpp.6b15d6f6+0x1a9b>
    3d98:	02c70733          	mul	a4,a4,a2
    3d9c:	02c68ab3          	mul	s5,a3,a2
    3da0:	02c6b6b3          	mulhu	a3,a3,a2
    3da4:	00d70733          	add	a4,a4,a3
    3da8:	01071713          	slli	a4,a4,0x10
    3dac:	010ada93          	srli	s5,s5,0x10
    3db0:	01570ab3          	add	s5,a4,s5
    3db4:	00008737          	lui	a4,0x8
    3db8:	00ea8ab3          	add	s5,s5,a4
    3dbc:	ffff0737          	lui	a4,0xffff0
    3dc0:	00eafab3          	and	s5,s5,a4
    3dc4:	1e07c063          	bltz	a5,3fa4 <inferenceTPG+0x3454>
    3dc8:	41fad713          	srai	a4,s5,0x1f
    3dcc:	0000b6b7          	lui	a3,0xb
    3dd0:	17268693          	addi	a3,a3,370 # b172 <__muldf3+0x176>
    3dd4:	02d70733          	mul	a4,a4,a3
    3dd8:	02da8633          	mul	a2,s5,a3
    3ddc:	02dab6b3          	mulhu	a3,s5,a3
    3de0:	00d70733          	add	a4,a4,a3
    3de4:	01071713          	slli	a4,a4,0x10
    3de8:	01065693          	srli	a3,a2,0x10
    3dec:	00d706b3          	add	a3,a4,a3
    3df0:	40d787b3          	sub	a5,a5,a3
    3df4:	41f7d713          	srai	a4,a5,0x1f
    3df8:	02f70733          	mul	a4,a4,a5
    3dfc:	02f78633          	mul	a2,a5,a5
    3e00:	02f7b6b3          	mulhu	a3,a5,a5
    3e04:	20d72733          	sh1add	a4,a4,a3
    3e08:	01071713          	slli	a4,a4,0x10
    3e0c:	01065613          	srli	a2,a2,0x10
    3e10:	00c70633          	add	a2,a4,a2
    3e14:	41f65513          	srai	a0,a2,0x1f
    3e18:	01e65713          	srli	a4,a2,0x1e
    3e1c:	20e54733          	sh2add	a4,a0,a4
    3e20:	00261693          	slli	a3,a2,0x2
    3e24:	01071713          	slli	a4,a4,0x10
    3e28:	0106d693          	srli	a3,a3,0x10
    3e2c:	00d706b3          	add	a3,a4,a3
    3e30:	f4a68693          	addi	a3,a3,-182
    3e34:	41f6d593          	srai	a1,a3,0x1f
    3e38:	02c585b3          	mul	a1,a1,a2
    3e3c:	02d50733          	mul	a4,a0,a3
    3e40:	00e585b3          	add	a1,a1,a4
    3e44:	02c68733          	mul	a4,a3,a2
    3e48:	02c6b6b3          	mulhu	a3,a3,a2
    3e4c:	00d586b3          	add	a3,a1,a3
    3e50:	01069693          	slli	a3,a3,0x10
    3e54:	01075713          	srli	a4,a4,0x10
    3e58:	00e68733          	add	a4,a3,a4
    3e5c:	000036b7          	lui	a3,0x3
    3e60:	aab68693          	addi	a3,a3,-1365 # 2aab <inferenceTPG+0x1f5b>
    3e64:	00d70733          	add	a4,a4,a3
    3e68:	41f75693          	srai	a3,a4,0x1f
    3e6c:	02c686b3          	mul	a3,a3,a2
    3e70:	02e50533          	mul	a0,a0,a4
    3e74:	00a686b3          	add	a3,a3,a0
    3e78:	02c705b3          	mul	a1,a4,a2
    3e7c:	02c73733          	mulhu	a4,a4,a2
    3e80:	00e68733          	add	a4,a3,a4
    3e84:	01071713          	slli	a4,a4,0x10
    3e88:	0105d693          	srli	a3,a1,0x10
    3e8c:	00d706b3          	add	a3,a4,a3
    3e90:	00020737          	lui	a4,0x20
    3e94:	00e686b3          	add	a3,a3,a4
    3e98:	40f68633          	sub	a2,a3,a5
    3e9c:	02f68c63          	beq	a3,a5,3ed4 <inferenceTPG+0x3384>
    3ea0:	00f7d713          	srli	a4,a5,0xf
    3ea4:	01179793          	slli	a5,a5,0x11
    3ea8:	01071713          	slli	a4,a4,0x10
    3eac:	0107d793          	srli	a5,a5,0x10
    3eb0:	00f707b3          	add	a5,a4,a5
    3eb4:	41f7d713          	srai	a4,a5,0x1f
    3eb8:	0107d593          	srli	a1,a5,0x10
    3ebc:	01071713          	slli	a4,a4,0x10
    3ec0:	41f65693          	srai	a3,a2,0x1f
    3ec4:	01079513          	slli	a0,a5,0x10
    3ec8:	00e585b3          	add	a1,a1,a4
    3ecc:	709070ef          	jal	bdd4 <__divdi3>
    3ed0:	00050613          	mv	a2,a0
    3ed4:	000107b7          	lui	a5,0x10
    3ed8:	00f606b3          	add	a3,a2,a5
    3edc:	0c0ac863          	bltz	s5,3fac <inferenceTPG+0x345c>
    3ee0:	410ada93          	srai	s5,s5,0x10
    3ee4:	00010737          	lui	a4,0x10
    3ee8:	01571733          	sll	a4,a4,s5
    3eec:	41f75793          	srai	a5,a4,0x1f
    3ef0:	41f6d613          	srai	a2,a3,0x1f
    3ef4:	02d787b3          	mul	a5,a5,a3
    3ef8:	02e60633          	mul	a2,a2,a4
    3efc:	00c787b3          	add	a5,a5,a2
    3f00:	02d70633          	mul	a2,a4,a3
    3f04:	02d73733          	mulhu	a4,a4,a3
    3f08:	00e787b3          	add	a5,a5,a4
    3f0c:	01079793          	slli	a5,a5,0x10
    3f10:	01065713          	srli	a4,a2,0x10
    3f14:	00e787b3          	add	a5,a5,a4
    3f18:	00fb07b3          	add	a5,s6,a5
    3f1c:	0044a703          	lw	a4,4(s1)
    3f20:	00e787b3          	add	a5,a5,a4
    3f24:	00100713          	li	a4,1
    3f28:	00812603          	lw	a2,8(sp)
    3f2c:	00cd5663          	bge	s10,a2,3f38 <inferenceTPG+0x33e8>
    3f30:	00060d13          	mv	s10,a2
    3f34:	00000713          	li	a4,0
    3f38:	09add463          	bge	s11,s10,3fc0 <inferenceTPG+0x3470>
    3f3c:	000d0d93          	mv	s11,s10
    3f40:	01b7c463          	blt	a5,s11,3f48 <inferenceTPG+0x33f8>
    3f44:	00300713          	li	a4,3
    3f48:	000206b7          	lui	a3,0x20
    3f4c:	000207b7          	lui	a5,0x20
    3f50:	0cc78793          	addi	a5,a5,204 # 200cc <next.11>
    3f54:	20f74733          	sh2add	a4,a4,a5
    3f58:	00072783          	lw	a5,0(a4) # 10000 <i2c.c.57379e11+0x762>
    3f5c:	14468713          	addi	a4,a3,324 # 20144 <jump_table.23>
    3f60:	20e7c7b3          	sh2add	a5,a5,a4
    3f64:	0007a783          	lw	a5,0(a5)
    3f68:	08012d83          	lw	s11,128(sp)
    3f6c:	c31fc06f          	j	b9c <inferenceTPG+0x4c>
    3f70:	41500ab3          	neg	s5,s5
    3f74:	a3dff06f          	j	39b0 <inferenceTPG+0x2e60>
    3f78:	41500733          	neg	a4,s5
    3f7c:	41075713          	srai	a4,a4,0x10
    3f80:	40e7d7b3          	sra	a5,a5,a4
    3f84:	b51ff06f          	j	3ad4 <inferenceTPG+0x2f84>
    3f88:	000b0693          	mv	a3,s6
    3f8c:	00000a93          	li	s5,0
    3f90:	ba5ff06f          	j	3b34 <inferenceTPG+0x2fe4>
    3f94:	fff00713          	li	a4,-1
    3f98:	dbdff06f          	j	3d54 <inferenceTPG+0x3204>
    3f9c:	000107b7          	lui	a5,0x10
    3fa0:	f79ff06f          	j	3f18 <inferenceTPG+0x33c8>
    3fa4:	41500ab3          	neg	s5,s5
    3fa8:	e21ff06f          	j	3dc8 <inferenceTPG+0x3278>
    3fac:	415007b3          	neg	a5,s5
    3fb0:	4107d793          	srai	a5,a5,0x10
    3fb4:	00010737          	lui	a4,0x10
    3fb8:	40f75733          	sra	a4,a4,a5
    3fbc:	f31ff06f          	j	3eec <inferenceTPG+0x339c>
    3fc0:	00200713          	li	a4,2
    3fc4:	f7dff06f          	j	3f40 <inferenceTPG+0x33f0>
    3fc8:	0089a683          	lw	a3,8(s3)
    3fcc:	00000a93          	li	s5,0
    3fd0:	2206ce63          	bltz	a3,420c <__heap_size+0x20c>
    3fd4:	0a0688e3          	beqz	a3,4884 <__heap_size+0x884>
    3fd8:	000207b7          	lui	a5,0x20
    3fdc:	0ad7d0e3          	bge	a5,a3,487c <__heap_size+0x87c>
    3fe0:	4016d693          	srai	a3,a3,0x1
    3fe4:	001a8a93          	addi	s5,s5,1
    3fe8:	fed7cce3          	blt	a5,a3,3fe0 <inferenceTPG+0x3490>
    3fec:	ffff0b37          	lui	s6,0xffff0
    3ff0:	01668b33          	add	s6,a3,s6
    3ff4:	41fb5793          	srai	a5,s6,0x1f
    3ff8:	010b5593          	srli	a1,s6,0x10
    3ffc:	01079793          	slli	a5,a5,0x10
    4000:	00010737          	lui	a4,0x10
    4004:	00e68633          	add	a2,a3,a4
    4008:	41f65693          	srai	a3,a2,0x1f
    400c:	010b1513          	slli	a0,s6,0x10
    4010:	00f585b3          	add	a1,a1,a5
    4014:	5c1070ef          	jal	bdd4 <__divdi3>
    4018:	41f55613          	srai	a2,a0,0x1f
    401c:	02a607b3          	mul	a5,a2,a0
    4020:	02a506b3          	mul	a3,a0,a0
    4024:	02a53733          	mulhu	a4,a0,a0
    4028:	20e7a7b3          	sh1add	a5,a5,a4
    402c:	01079793          	slli	a5,a5,0x10
    4030:	0106d693          	srli	a3,a3,0x10
    4034:	00d786b3          	add	a3,a5,a3
    4038:	41f6d893          	srai	a7,a3,0x1f
    403c:	02d887b3          	mul	a5,a7,a3
    4040:	02d68733          	mul	a4,a3,a3
    4044:	02d6b5b3          	mulhu	a1,a3,a3
    4048:	20b7a7b3          	sh1add	a5,a5,a1
    404c:	01079793          	slli	a5,a5,0x10
    4050:	01075713          	srli	a4,a4,0x10
    4054:	00e78733          	add	a4,a5,a4
    4058:	41f75593          	srai	a1,a4,0x1f
    405c:	010a9793          	slli	a5,s5,0x10
    4060:	41f7d813          	srai	a6,a5,0x1f
    4064:	0000b337          	lui	t1,0xb
    4068:	17230313          	addi	t1,t1,370 # b172 <__muldf3+0x176>
    406c:	02680833          	mul	a6,a6,t1
    4070:	02678ab3          	mul	s5,a5,t1
    4074:	0267b7b3          	mulhu	a5,a5,t1
    4078:	00f807b3          	add	a5,a6,a5
    407c:	01079793          	slli	a5,a5,0x10
    4080:	010ada93          	srli	s5,s5,0x10
    4084:	01578ab3          	add	s5,a5,s5
    4088:	015b0ab3          	add	s5,s6,s5
    408c:	00002837          	lui	a6,0x2
    4090:	5e280813          	addi	a6,a6,1506 # 25e2 <inferenceTPG+0x1a92>
    4094:	03058333          	mul	t1,a1,a6
    4098:	030707b3          	mul	a5,a4,a6
    409c:	03073833          	mulhu	a6,a4,a6
    40a0:	01030833          	add	a6,t1,a6
    40a4:	01081813          	slli	a6,a6,0x10
    40a8:	0107d793          	srli	a5,a5,0x10
    40ac:	00f807b3          	add	a5,a6,a5
    40b0:	00003837          	lui	a6,0x3
    40b4:	e8d80813          	addi	a6,a6,-371 # 2e8d <inferenceTPG+0x233d>
    40b8:	010787b3          	add	a5,a5,a6
    40bc:	41f7d313          	srai	t1,a5,0x1f
    40c0:	02e30333          	mul	t1,t1,a4
    40c4:	02f58833          	mul	a6,a1,a5
    40c8:	01030333          	add	t1,t1,a6
    40cc:	02e78833          	mul	a6,a5,a4
    40d0:	02e7b7b3          	mulhu	a5,a5,a4
    40d4:	00f307b3          	add	a5,t1,a5
    40d8:	01079793          	slli	a5,a5,0x10
    40dc:	01085813          	srli	a6,a6,0x10
    40e0:	01078833          	add	a6,a5,a6
    40e4:	000057b7          	lui	a5,0x5
    40e8:	92578793          	addi	a5,a5,-1755 # 4925 <__heap_size+0x925>
    40ec:	00f80833          	add	a6,a6,a5
    40f0:	41f85313          	srai	t1,a6,0x1f
    40f4:	02e30333          	mul	t1,t1,a4
    40f8:	030587b3          	mul	a5,a1,a6
    40fc:	00f30333          	add	t1,t1,a5
    4100:	02e807b3          	mul	a5,a6,a4
    4104:	02e83833          	mulhu	a6,a6,a4
    4108:	01030833          	add	a6,t1,a6
    410c:	01081813          	slli	a6,a6,0x10
    4110:	0107d793          	srli	a5,a5,0x10
    4114:	00f807b3          	add	a5,a6,a5
    4118:	0000b837          	lui	a6,0xb
    411c:	aab80813          	addi	a6,a6,-1365 # aaab <__divdf3+0x27f>
    4120:	010787b3          	add	a5,a5,a6
    4124:	41f7d813          	srai	a6,a5,0x1f
    4128:	02d80833          	mul	a6,a6,a3
    412c:	02f888b3          	mul	a7,a7,a5
    4130:	011808b3          	add	a7,a6,a7
    4134:	02d78833          	mul	a6,a5,a3
    4138:	02d7b7b3          	mulhu	a5,a5,a3
    413c:	00f887b3          	add	a5,a7,a5
    4140:	01079793          	slli	a5,a5,0x10
    4144:	01085813          	srli	a6,a6,0x10
    4148:	01078833          	add	a6,a5,a6
    414c:	000027b7          	lui	a5,0x2
    4150:	73478793          	addi	a5,a5,1844 # 2734 <inferenceTPG+0x1be4>
    4154:	02f588b3          	mul	a7,a1,a5
    4158:	02f706b3          	mul	a3,a4,a5
    415c:	02f737b3          	mulhu	a5,a4,a5
    4160:	00f887b3          	add	a5,a7,a5
    4164:	01079793          	slli	a5,a5,0x10
    4168:	0106d693          	srli	a3,a3,0x10
    416c:	00d786b3          	add	a3,a5,a3
    4170:	000047b7          	lui	a5,0x4
    4174:	8e478793          	addi	a5,a5,-1820 # 38e4 <inferenceTPG+0x2d94>
    4178:	00f686b3          	add	a3,a3,a5
    417c:	41f6d893          	srai	a7,a3,0x1f
    4180:	02e888b3          	mul	a7,a7,a4
    4184:	02d587b3          	mul	a5,a1,a3
    4188:	00f888b3          	add	a7,a7,a5
    418c:	02e687b3          	mul	a5,a3,a4
    4190:	02e6b6b3          	mulhu	a3,a3,a4
    4194:	00d886b3          	add	a3,a7,a3
    4198:	01069693          	slli	a3,a3,0x10
    419c:	0107d793          	srli	a5,a5,0x10
    41a0:	00f687b3          	add	a5,a3,a5
    41a4:	000066b7          	lui	a3,0x6
    41a8:	66668693          	addi	a3,a3,1638 # 6666 <__heap_size+0x2666>
    41ac:	00d787b3          	add	a5,a5,a3
    41b0:	41f7d693          	srai	a3,a5,0x1f
    41b4:	02e686b3          	mul	a3,a3,a4
    41b8:	02f585b3          	mul	a1,a1,a5
    41bc:	00b686b3          	add	a3,a3,a1
    41c0:	02e785b3          	mul	a1,a5,a4
    41c4:	02e7b7b3          	mulhu	a5,a5,a4
    41c8:	00f687b3          	add	a5,a3,a5
    41cc:	01079793          	slli	a5,a5,0x10
    41d0:	0105d713          	srli	a4,a1,0x10
    41d4:	00e78733          	add	a4,a5,a4
    41d8:	00e80833          	add	a6,a6,a4
    41dc:	410b0b33          	sub	s6,s6,a6
    41e0:	41fb5793          	srai	a5,s6,0x1f
    41e4:	02a787b3          	mul	a5,a5,a0
    41e8:	03660633          	mul	a2,a2,s6
    41ec:	00c787b3          	add	a5,a5,a2
    41f0:	02ab0733          	mul	a4,s6,a0
    41f4:	02ab3b33          	mulhu	s6,s6,a0
    41f8:	016787b3          	add	a5,a5,s6
    41fc:	01079793          	slli	a5,a5,0x10
    4200:	01075713          	srli	a4,a4,0x10
    4204:	00e78733          	add	a4,a5,a4
    4208:	40ea8ab3          	sub	s5,s5,a4
    420c:	0044ab03          	lw	s6,4(s1)
    4210:	015b0ab3          	add	s5,s6,s5
    4214:	01512823          	sw	s5,16(sp)
    4218:	00092703          	lw	a4,0(s2)
    421c:	517cd5b7          	lui	a1,0x517cd
    4220:	c8358593          	addi	a1,a1,-893 # 517ccc83 <_sp+0x517a1c43>
    4224:	02b715b3          	mulh	a1,a4,a1
    4228:	4115d593          	srai	a1,a1,0x11
    422c:	41f75793          	srai	a5,a4,0x1f
    4230:	40f585b3          	sub	a1,a1,a5
    4234:	000657b7          	lui	a5,0x65
    4238:	87e78793          	addi	a5,a5,-1922 # 6487e <_sp+0x3983e>
    423c:	02f587b3          	mul	a5,a1,a5
    4240:	40f705b3          	sub	a1,a4,a5
    4244:	6405c463          	bltz	a1,488c <__heap_size+0x88c>
    4248:	fffe77b7          	lui	a5,0xfffe7
    424c:	ddf78793          	addi	a5,a5,-545 # fffe6ddf <_sp+0xfffbbd9f>
    4250:	00f587b3          	add	a5,a1,a5
    4254:	000196b7          	lui	a3,0x19
    4258:	21e68693          	addi	a3,a3,542 # 1921e <heap.cpp.6b15d6f6+0x3b65>
    425c:	64f6e063          	bltu	a3,a5,489c <__heap_size+0x89c>
    4260:	000327b7          	lui	a5,0x32
    4264:	43f78793          	addi	a5,a5,1087 # 3243f <_sp+0x73ff>
    4268:	40b785b3          	sub	a1,a5,a1
    426c:	00100813          	li	a6,1
    4270:	000197b7          	lui	a5,0x19
    4274:	22078793          	addi	a5,a5,544 # 19220 <heap.cpp.6b15d6f6+0x3b67>
    4278:	40e787b3          	sub	a5,a5,a4
    427c:	517cd537          	lui	a0,0x517cd
    4280:	c8350513          	addi	a0,a0,-893 # 517ccc83 <_sp+0x517a1c43>
    4284:	02a79533          	mulh	a0,a5,a0
    4288:	41155513          	srai	a0,a0,0x11
    428c:	41f7d713          	srai	a4,a5,0x1f
    4290:	40e50533          	sub	a0,a0,a4
    4294:	00065737          	lui	a4,0x65
    4298:	87e70713          	addi	a4,a4,-1922 # 6487e <_sp+0x3983e>
    429c:	02e50733          	mul	a4,a0,a4
    42a0:	40e78533          	sub	a0,a5,a4
    42a4:	64054463          	bltz	a0,48ec <__heap_size+0x8ec>
    42a8:	fffe77b7          	lui	a5,0xfffe7
    42ac:	ddf78793          	addi	a5,a5,-545 # fffe6ddf <_sp+0xfffbbd9f>
    42b0:	00f507b3          	add	a5,a0,a5
    42b4:	00019737          	lui	a4,0x19
    42b8:	21e70713          	addi	a4,a4,542 # 1921e <heap.cpp.6b15d6f6+0x3b65>
    42bc:	64f76063          	bltu	a4,a5,48fc <__heap_size+0x8fc>
    42c0:	000327b7          	lui	a5,0x32
    42c4:	43f78793          	addi	a5,a5,1087 # 3243f <_sp+0x73ff>
    42c8:	40a78533          	sub	a0,a5,a0
    42cc:	00100613          	li	a2,1
    42d0:	41f55893          	srai	a7,a0,0x1f
    42d4:	02a887b3          	mul	a5,a7,a0
    42d8:	02a50333          	mul	t1,a0,a0
    42dc:	02a53733          	mulhu	a4,a0,a0
    42e0:	20e7a7b3          	sh1add	a5,a5,a4
    42e4:	01079793          	slli	a5,a5,0x10
    42e8:	01035313          	srli	t1,t1,0x10
    42ec:	00678333          	add	t1,a5,t1
    42f0:	41f35e13          	srai	t3,t1,0x1f
    42f4:	1f300693          	li	a3,499
    42f8:	02de07b3          	mul	a5,t3,a3
    42fc:	02d30733          	mul	a4,t1,a3
    4300:	02d336b3          	mulhu	a3,t1,a3
    4304:	00d787b3          	add	a5,a5,a3
    4308:	01079793          	slli	a5,a5,0x10
    430c:	01075713          	srli	a4,a4,0x10
    4310:	00e78733          	add	a4,a5,a4
    4314:	ffffd7b7          	lui	a5,0xffffd
    4318:	57e78793          	addi	a5,a5,1406 # ffffd57e <_sp+0xfffd253e>
    431c:	00f70733          	add	a4,a4,a5
    4320:	41f75693          	srai	a3,a4,0x1f
    4324:	026686b3          	mul	a3,a3,t1
    4328:	02ee0e33          	mul	t3,t3,a4
    432c:	01c686b3          	add	a3,a3,t3
    4330:	026707b3          	mul	a5,a4,t1
    4334:	02673733          	mulhu	a4,a4,t1
    4338:	00e68733          	add	a4,a3,a4
    433c:	01071713          	slli	a4,a4,0x10
    4340:	0107d793          	srli	a5,a5,0x10
    4344:	00f707b3          	add	a5,a4,a5
    4348:	00010737          	lui	a4,0x10
    434c:	00e787b3          	add	a5,a5,a4
    4350:	41f7d713          	srai	a4,a5,0x1f
    4354:	02a70733          	mul	a4,a4,a0
    4358:	02f888b3          	mul	a7,a7,a5
    435c:	01170733          	add	a4,a4,a7
    4360:	02a786b3          	mul	a3,a5,a0
    4364:	02a7b7b3          	mulhu	a5,a5,a0
    4368:	00f707b3          	add	a5,a4,a5
    436c:	01079793          	slli	a5,a5,0x10
    4370:	0106d713          	srli	a4,a3,0x10
    4374:	00e78733          	add	a4,a5,a4
    4378:	02e60633          	mul	a2,a2,a4
    437c:	0c060863          	beqz	a2,444c <__heap_size+0x44c>
    4380:	41f5d893          	srai	a7,a1,0x1f
    4384:	02b887b3          	mul	a5,a7,a1
    4388:	02b58533          	mul	a0,a1,a1
    438c:	02b5b733          	mulhu	a4,a1,a1
    4390:	20e7a7b3          	sh1add	a5,a5,a4
    4394:	01079793          	slli	a5,a5,0x10
    4398:	01055513          	srli	a0,a0,0x10
    439c:	00a78533          	add	a0,a5,a0
    43a0:	41f55313          	srai	t1,a0,0x1f
    43a4:	1f300693          	li	a3,499
    43a8:	02d307b3          	mul	a5,t1,a3
    43ac:	02d50733          	mul	a4,a0,a3
    43b0:	02d536b3          	mulhu	a3,a0,a3
    43b4:	00d787b3          	add	a5,a5,a3
    43b8:	01079793          	slli	a5,a5,0x10
    43bc:	01075713          	srli	a4,a4,0x10
    43c0:	00e78733          	add	a4,a5,a4
    43c4:	ffffd7b7          	lui	a5,0xffffd
    43c8:	57e78793          	addi	a5,a5,1406 # ffffd57e <_sp+0xfffd253e>
    43cc:	00f70733          	add	a4,a4,a5
    43d0:	41f75693          	srai	a3,a4,0x1f
    43d4:	02a686b3          	mul	a3,a3,a0
    43d8:	02e30333          	mul	t1,t1,a4
    43dc:	006686b3          	add	a3,a3,t1
    43e0:	02a707b3          	mul	a5,a4,a0
    43e4:	02a73733          	mulhu	a4,a4,a0
    43e8:	00e68733          	add	a4,a3,a4
    43ec:	01071713          	slli	a4,a4,0x10
    43f0:	0107d793          	srli	a5,a5,0x10
    43f4:	00f707b3          	add	a5,a4,a5
    43f8:	00010737          	lui	a4,0x10
    43fc:	00e787b3          	add	a5,a5,a4
    4400:	41f7d713          	srai	a4,a5,0x1f
    4404:	02b70733          	mul	a4,a4,a1
    4408:	02f888b3          	mul	a7,a7,a5
    440c:	01170733          	add	a4,a4,a7
    4410:	02b786b3          	mul	a3,a5,a1
    4414:	02b7b7b3          	mulhu	a5,a5,a1
    4418:	00f707b3          	add	a5,a4,a5
    441c:	01079793          	slli	a5,a5,0x10
    4420:	0106d713          	srli	a4,a3,0x10
    4424:	00e78733          	add	a4,a5,a4
    4428:	02e80533          	mul	a0,a6,a4
    442c:	41f55793          	srai	a5,a0,0x1f
    4430:	01055593          	srli	a1,a0,0x10
    4434:	01079793          	slli	a5,a5,0x10
    4438:	41f65693          	srai	a3,a2,0x1f
    443c:	01051513          	slli	a0,a0,0x10
    4440:	00f585b3          	add	a1,a1,a5
    4444:	191070ef          	jal	bdd4 <__divdi3>
    4448:	00050613          	mv	a2,a0
    444c:	00c12a23          	sw	a2,20(sp)
    4450:	0004a783          	lw	a5,0(s1)
    4454:	0009a703          	lw	a4,0(s3)
    4458:	40f70733          	sub	a4,a4,a5
    445c:	00e12c23          	sw	a4,24(sp)
    4460:	00010737          	lui	a4,0x10
    4464:	00e787b3          	add	a5,a5,a4
    4468:	016787b3          	add	a5,a5,s6
    446c:	00f12e23          	sw	a5,28(sp)
    4470:	00492683          	lw	a3,4(s2)
    4474:	00000593          	li	a1,0
    4478:	2406c063          	bltz	a3,46b8 <__heap_size+0x6b8>
    447c:	4c068c63          	beqz	a3,4954 <__heap_size+0x954>
    4480:	000207b7          	lui	a5,0x20
    4484:	4cd7d463          	bge	a5,a3,494c <__heap_size+0x94c>
    4488:	00000b93          	li	s7,0
    448c:	4016d693          	srai	a3,a3,0x1
    4490:	001b8b93          	addi	s7,s7,1 # ffff0001 <_sp+0xfffc4fc1>
    4494:	fed7cce3          	blt	a5,a3,448c <__heap_size+0x48c>
    4498:	ffff0b37          	lui	s6,0xffff0
    449c:	01668b33          	add	s6,a3,s6
    44a0:	41fb5793          	srai	a5,s6,0x1f
    44a4:	010b5593          	srli	a1,s6,0x10
    44a8:	01079793          	slli	a5,a5,0x10
    44ac:	00010737          	lui	a4,0x10
    44b0:	00e68633          	add	a2,a3,a4
    44b4:	41f65693          	srai	a3,a2,0x1f
    44b8:	010b1513          	slli	a0,s6,0x10
    44bc:	00f585b3          	add	a1,a1,a5
    44c0:	115070ef          	jal	bdd4 <__divdi3>
    44c4:	41f55613          	srai	a2,a0,0x1f
    44c8:	02a607b3          	mul	a5,a2,a0
    44cc:	02a506b3          	mul	a3,a0,a0
    44d0:	02a53733          	mulhu	a4,a0,a0
    44d4:	20e7a7b3          	sh1add	a5,a5,a4
    44d8:	01079793          	slli	a5,a5,0x10
    44dc:	0106d693          	srli	a3,a3,0x10
    44e0:	00d786b3          	add	a3,a5,a3
    44e4:	41f6d313          	srai	t1,a3,0x1f
    44e8:	02d307b3          	mul	a5,t1,a3
    44ec:	02d68733          	mul	a4,a3,a3
    44f0:	02d6b5b3          	mulhu	a1,a3,a3
    44f4:	20b7a7b3          	sh1add	a5,a5,a1
    44f8:	01079793          	slli	a5,a5,0x10
    44fc:	01075713          	srli	a4,a4,0x10
    4500:	00e78733          	add	a4,a5,a4
    4504:	41f75813          	srai	a6,a4,0x1f
    4508:	010b9793          	slli	a5,s7,0x10
    450c:	41f7d893          	srai	a7,a5,0x1f
    4510:	0000be37          	lui	t3,0xb
    4514:	172e0e13          	addi	t3,t3,370 # b172 <__muldf3+0x176>
    4518:	03c888b3          	mul	a7,a7,t3
    451c:	03c785b3          	mul	a1,a5,t3
    4520:	03c7b7b3          	mulhu	a5,a5,t3
    4524:	00f887b3          	add	a5,a7,a5
    4528:	01079793          	slli	a5,a5,0x10
    452c:	0105d593          	srli	a1,a1,0x10
    4530:	00b785b3          	add	a1,a5,a1
    4534:	00bb05b3          	add	a1,s6,a1
    4538:	000028b7          	lui	a7,0x2
    453c:	5e288893          	addi	a7,a7,1506 # 25e2 <inferenceTPG+0x1a92>
    4540:	03180e33          	mul	t3,a6,a7
    4544:	031707b3          	mul	a5,a4,a7
    4548:	031738b3          	mulhu	a7,a4,a7
    454c:	011e08b3          	add	a7,t3,a7
    4550:	01089893          	slli	a7,a7,0x10
    4554:	0107d793          	srli	a5,a5,0x10
    4558:	00f887b3          	add	a5,a7,a5
    455c:	000038b7          	lui	a7,0x3
    4560:	e8d88893          	addi	a7,a7,-371 # 2e8d <inferenceTPG+0x233d>
    4564:	011787b3          	add	a5,a5,a7
    4568:	41f7de13          	srai	t3,a5,0x1f
    456c:	02ee0e33          	mul	t3,t3,a4
    4570:	02f808b3          	mul	a7,a6,a5
    4574:	011e0e33          	add	t3,t3,a7
    4578:	02e788b3          	mul	a7,a5,a4
    457c:	02e7b7b3          	mulhu	a5,a5,a4
    4580:	00fe07b3          	add	a5,t3,a5
    4584:	01079793          	slli	a5,a5,0x10
    4588:	0108d893          	srli	a7,a7,0x10
    458c:	011788b3          	add	a7,a5,a7
    4590:	000057b7          	lui	a5,0x5
    4594:	92578793          	addi	a5,a5,-1755 # 4925 <__heap_size+0x925>
    4598:	00f888b3          	add	a7,a7,a5
    459c:	41f8de13          	srai	t3,a7,0x1f
    45a0:	02ee0e33          	mul	t3,t3,a4
    45a4:	031807b3          	mul	a5,a6,a7
    45a8:	00fe0e33          	add	t3,t3,a5
    45ac:	02e887b3          	mul	a5,a7,a4
    45b0:	02e8b8b3          	mulhu	a7,a7,a4
    45b4:	011e08b3          	add	a7,t3,a7
    45b8:	01089893          	slli	a7,a7,0x10
    45bc:	0107d793          	srli	a5,a5,0x10
    45c0:	00f887b3          	add	a5,a7,a5
    45c4:	0000b8b7          	lui	a7,0xb
    45c8:	aab88893          	addi	a7,a7,-1365 # aaab <__divdf3+0x27f>
    45cc:	011787b3          	add	a5,a5,a7
    45d0:	41f7d893          	srai	a7,a5,0x1f
    45d4:	02d888b3          	mul	a7,a7,a3
    45d8:	02f30333          	mul	t1,t1,a5
    45dc:	00688333          	add	t1,a7,t1
    45e0:	02d788b3          	mul	a7,a5,a3
    45e4:	02d7b7b3          	mulhu	a5,a5,a3
    45e8:	00f307b3          	add	a5,t1,a5
    45ec:	01079793          	slli	a5,a5,0x10
    45f0:	0108d893          	srli	a7,a7,0x10
    45f4:	011788b3          	add	a7,a5,a7
    45f8:	000027b7          	lui	a5,0x2
    45fc:	73478793          	addi	a5,a5,1844 # 2734 <inferenceTPG+0x1be4>
    4600:	02f80333          	mul	t1,a6,a5
    4604:	02f706b3          	mul	a3,a4,a5
    4608:	02f737b3          	mulhu	a5,a4,a5
    460c:	00f307b3          	add	a5,t1,a5
    4610:	01079793          	slli	a5,a5,0x10
    4614:	0106d693          	srli	a3,a3,0x10
    4618:	00d786b3          	add	a3,a5,a3
    461c:	000047b7          	lui	a5,0x4
    4620:	8e478793          	addi	a5,a5,-1820 # 38e4 <inferenceTPG+0x2d94>
    4624:	00f686b3          	add	a3,a3,a5
    4628:	41f6d313          	srai	t1,a3,0x1f
    462c:	02e30333          	mul	t1,t1,a4
    4630:	02d807b3          	mul	a5,a6,a3
    4634:	00f30333          	add	t1,t1,a5
    4638:	02e687b3          	mul	a5,a3,a4
    463c:	02e6b6b3          	mulhu	a3,a3,a4
    4640:	00d306b3          	add	a3,t1,a3
    4644:	01069693          	slli	a3,a3,0x10
    4648:	0107d793          	srli	a5,a5,0x10
    464c:	00f687b3          	add	a5,a3,a5
    4650:	000066b7          	lui	a3,0x6
    4654:	66668693          	addi	a3,a3,1638 # 6666 <__heap_size+0x2666>
    4658:	00d787b3          	add	a5,a5,a3
    465c:	41f7d693          	srai	a3,a5,0x1f
    4660:	02e686b3          	mul	a3,a3,a4
    4664:	02f80833          	mul	a6,a6,a5
    4668:	010686b3          	add	a3,a3,a6
    466c:	02e78833          	mul	a6,a5,a4
    4670:	02e7b7b3          	mulhu	a5,a5,a4
    4674:	00f687b3          	add	a5,a3,a5
    4678:	01079793          	slli	a5,a5,0x10
    467c:	01085713          	srli	a4,a6,0x10
    4680:	00e78733          	add	a4,a5,a4
    4684:	00e888b3          	add	a7,a7,a4
    4688:	411b0b33          	sub	s6,s6,a7
    468c:	41fb5793          	srai	a5,s6,0x1f
    4690:	02a787b3          	mul	a5,a5,a0
    4694:	03660633          	mul	a2,a2,s6
    4698:	00c787b3          	add	a5,a5,a2
    469c:	02ab0733          	mul	a4,s6,a0
    46a0:	02ab3b33          	mulhu	s6,s6,a0
    46a4:	016787b3          	add	a5,a5,s6
    46a8:	01079793          	slli	a5,a5,0x10
    46ac:	01075713          	srli	a4,a4,0x10
    46b0:	00e78733          	add	a4,a5,a4
    46b4:	40e585b3          	sub	a1,a1,a4
    46b8:	02b12023          	sw	a1,32(sp)
    46bc:	01092783          	lw	a5,16(s2)
    46c0:	00010737          	lui	a4,0x10
    46c4:	18078c63          	beqz	a5,485c <__heap_size+0x85c>
    46c8:	40f006b3          	neg	a3,a5
    46cc:	0ad7e6b3          	max	a3,a5,a3
    46d0:	41f6d713          	srai	a4,a3,0x1f
    46d4:	00017637          	lui	a2,0x17
    46d8:	15460613          	addi	a2,a2,340 # 17154 <heap.cpp.6b15d6f6+0x1a9b>
    46dc:	02c70733          	mul	a4,a4,a2
    46e0:	02c68b33          	mul	s6,a3,a2
    46e4:	02c6b6b3          	mulhu	a3,a3,a2
    46e8:	00d70733          	add	a4,a4,a3
    46ec:	01071713          	slli	a4,a4,0x10
    46f0:	010b5b13          	srli	s6,s6,0x10
    46f4:	01670b33          	add	s6,a4,s6
    46f8:	00008737          	lui	a4,0x8
    46fc:	00eb0b33          	add	s6,s6,a4
    4700:	ffff0737          	lui	a4,0xffff0
    4704:	00eb7b33          	and	s6,s6,a4
    4708:	2407ca63          	bltz	a5,495c <__heap_size+0x95c>
    470c:	41fb5713          	srai	a4,s6,0x1f
    4710:	0000b6b7          	lui	a3,0xb
    4714:	17268693          	addi	a3,a3,370 # b172 <__muldf3+0x176>
    4718:	02d70733          	mul	a4,a4,a3
    471c:	02db0633          	mul	a2,s6,a3
    4720:	02db36b3          	mulhu	a3,s6,a3
    4724:	00d70733          	add	a4,a4,a3
    4728:	01071713          	slli	a4,a4,0x10
    472c:	01065693          	srli	a3,a2,0x10
    4730:	00d706b3          	add	a3,a4,a3
    4734:	40d787b3          	sub	a5,a5,a3
    4738:	41f7d713          	srai	a4,a5,0x1f
    473c:	02f70733          	mul	a4,a4,a5
    4740:	02f785b3          	mul	a1,a5,a5
    4744:	02f7b6b3          	mulhu	a3,a5,a5
    4748:	20d72733          	sh1add	a4,a4,a3
    474c:	01071713          	slli	a4,a4,0x10
    4750:	0105d593          	srli	a1,a1,0x10
    4754:	00b705b3          	add	a1,a4,a1
    4758:	41f5d513          	srai	a0,a1,0x1f
    475c:	01e5d713          	srli	a4,a1,0x1e
    4760:	20e54733          	sh2add	a4,a0,a4
    4764:	00259693          	slli	a3,a1,0x2
    4768:	01071713          	slli	a4,a4,0x10
    476c:	0106d693          	srli	a3,a3,0x10
    4770:	00d706b3          	add	a3,a4,a3
    4774:	f4a68693          	addi	a3,a3,-182
    4778:	41f6d613          	srai	a2,a3,0x1f
    477c:	02b60633          	mul	a2,a2,a1
    4780:	02d50733          	mul	a4,a0,a3
    4784:	00e60633          	add	a2,a2,a4
    4788:	02b68733          	mul	a4,a3,a1
    478c:	02b6b6b3          	mulhu	a3,a3,a1
    4790:	00d606b3          	add	a3,a2,a3
    4794:	01069693          	slli	a3,a3,0x10
    4798:	01075713          	srli	a4,a4,0x10
    479c:	00e68733          	add	a4,a3,a4
    47a0:	000036b7          	lui	a3,0x3
    47a4:	aab68693          	addi	a3,a3,-1365 # 2aab <inferenceTPG+0x1f5b>
    47a8:	00d70733          	add	a4,a4,a3
    47ac:	41f75693          	srai	a3,a4,0x1f
    47b0:	02b686b3          	mul	a3,a3,a1
    47b4:	02e50533          	mul	a0,a0,a4
    47b8:	00a686b3          	add	a3,a3,a0
    47bc:	02b70633          	mul	a2,a4,a1
    47c0:	02b73733          	mulhu	a4,a4,a1
    47c4:	00e68733          	add	a4,a3,a4
    47c8:	01071713          	slli	a4,a4,0x10
    47cc:	01065693          	srli	a3,a2,0x10
    47d0:	00d706b3          	add	a3,a4,a3
    47d4:	00020737          	lui	a4,0x20
    47d8:	00e686b3          	add	a3,a3,a4
    47dc:	40f68633          	sub	a2,a3,a5
    47e0:	02f68c63          	beq	a3,a5,4818 <__heap_size+0x818>
    47e4:	00f7d713          	srli	a4,a5,0xf
    47e8:	01179793          	slli	a5,a5,0x11
    47ec:	01071713          	slli	a4,a4,0x10
    47f0:	0107d793          	srli	a5,a5,0x10
    47f4:	00f707b3          	add	a5,a4,a5
    47f8:	41f7d713          	srai	a4,a5,0x1f
    47fc:	0107d593          	srli	a1,a5,0x10
    4800:	01071713          	slli	a4,a4,0x10
    4804:	41f65693          	srai	a3,a2,0x1f
    4808:	01079513          	slli	a0,a5,0x10
    480c:	00e585b3          	add	a1,a1,a4
    4810:	5c4070ef          	jal	bdd4 <__divdi3>
    4814:	00050613          	mv	a2,a0
    4818:	000107b7          	lui	a5,0x10
    481c:	00f606b3          	add	a3,a2,a5
    4820:	140b4263          	bltz	s6,4964 <__heap_size+0x964>
    4824:	410b5b13          	srai	s6,s6,0x10
    4828:	000107b7          	lui	a5,0x10
    482c:	016797b3          	sll	a5,a5,s6
    4830:	41f7d713          	srai	a4,a5,0x1f
    4834:	41f6d613          	srai	a2,a3,0x1f
    4838:	02d70733          	mul	a4,a4,a3
    483c:	02f60633          	mul	a2,a2,a5
    4840:	00c70733          	add	a4,a4,a2
    4844:	02d78633          	mul	a2,a5,a3
    4848:	02d7b7b3          	mulhu	a5,a5,a3
    484c:	00f70733          	add	a4,a4,a5
    4850:	01071713          	slli	a4,a4,0x10
    4854:	01065793          	srli	a5,a2,0x10
    4858:	00f70733          	add	a4,a4,a5
    485c:	0084a783          	lw	a5,8(s1)
    4860:	00e787b3          	add	a5,a5,a4
    4864:	02f12223          	sw	a5,36(sp)
    4868:	01410713          	addi	a4,sp,20
    486c:	00000593          	li	a1,0
    4870:	00100793          	li	a5,1
    4874:	00600613          	li	a2,6
    4878:	1080006f          	j	4980 <__heap_size+0x980>
    487c:	00000a93          	li	s5,0
    4880:	f6cff06f          	j	3fec <inferenceTPG+0x349c>
    4884:	fff00a93          	li	s5,-1
    4888:	985ff06f          	j	420c <__heap_size+0x20c>
    488c:	000657b7          	lui	a5,0x65
    4890:	87e78793          	addi	a5,a5,-1922 # 6487e <_sp+0x3983e>
    4894:	00f585b3          	add	a1,a1,a5
    4898:	9b1ff06f          	j	4248 <__heap_size+0x248>
    489c:	fffce7b7          	lui	a5,0xfffce
    48a0:	bc078793          	addi	a5,a5,-1088 # fffcdbc0 <_sp+0xfffa2b80>
    48a4:	00f587b3          	add	a5,a1,a5
    48a8:	000196b7          	lui	a3,0x19
    48ac:	21f68693          	addi	a3,a3,543 # 1921f <heap.cpp.6b15d6f6+0x3b66>
    48b0:	00f6ec63          	bltu	a3,a5,48c8 <__heap_size+0x8c8>
    48b4:	fffce7b7          	lui	a5,0xfffce
    48b8:	bc178793          	addi	a5,a5,-1087 # fffcdbc1 <_sp+0xfffa2b81>
    48bc:	00f585b3          	add	a1,a1,a5
    48c0:	fff00813          	li	a6,-1
    48c4:	9adff06f          	j	4270 <__heap_size+0x270>
    48c8:	0004b7b7          	lui	a5,0x4b
    48cc:	65f78793          	addi	a5,a5,1631 # 4b65f <_sp+0x2061f>
    48d0:	00100813          	li	a6,1
    48d4:	98b7dee3          	bge	a5,a1,4270 <__heap_size+0x270>
    48d8:	000657b7          	lui	a5,0x65
    48dc:	87e78793          	addi	a5,a5,-1922 # 6487e <_sp+0x3983e>
    48e0:	40b785b3          	sub	a1,a5,a1
    48e4:	fff00813          	li	a6,-1
    48e8:	989ff06f          	j	4270 <__heap_size+0x270>
    48ec:	000657b7          	lui	a5,0x65
    48f0:	87e78793          	addi	a5,a5,-1922 # 6487e <_sp+0x3983e>
    48f4:	00f50533          	add	a0,a0,a5
    48f8:	9b1ff06f          	j	42a8 <__heap_size+0x2a8>
    48fc:	fffce7b7          	lui	a5,0xfffce
    4900:	bc078793          	addi	a5,a5,-1088 # fffcdbc0 <_sp+0xfffa2b80>
    4904:	00f507b3          	add	a5,a0,a5
    4908:	00019737          	lui	a4,0x19
    490c:	21f70713          	addi	a4,a4,543 # 1921f <heap.cpp.6b15d6f6+0x3b66>
    4910:	00f76c63          	bltu	a4,a5,4928 <__heap_size+0x928>
    4914:	fffce7b7          	lui	a5,0xfffce
    4918:	bc178793          	addi	a5,a5,-1087 # fffcdbc1 <_sp+0xfffa2b81>
    491c:	00f50533          	add	a0,a0,a5
    4920:	fff00613          	li	a2,-1
    4924:	9adff06f          	j	42d0 <__heap_size+0x2d0>
    4928:	0004b7b7          	lui	a5,0x4b
    492c:	65f78793          	addi	a5,a5,1631 # 4b65f <_sp+0x2061f>
    4930:	00100613          	li	a2,1
    4934:	98a7dee3          	bge	a5,a0,42d0 <__heap_size+0x2d0>
    4938:	000657b7          	lui	a5,0x65
    493c:	87e78793          	addi	a5,a5,-1922 # 6487e <_sp+0x3983e>
    4940:	40a78533          	sub	a0,a5,a0
    4944:	fff00613          	li	a2,-1
    4948:	989ff06f          	j	42d0 <__heap_size+0x2d0>
    494c:	00000b93          	li	s7,0
    4950:	b49ff06f          	j	4498 <__heap_size+0x498>
    4954:	fff00593          	li	a1,-1
    4958:	d61ff06f          	j	46b8 <__heap_size+0x6b8>
    495c:	41600b33          	neg	s6,s6
    4960:	dadff06f          	j	470c <__heap_size+0x70c>
    4964:	41600733          	neg	a4,s6
    4968:	41075713          	srai	a4,a4,0x10
    496c:	40e7d7b3          	sra	a5,a5,a4
    4970:	ec1ff06f          	j	4830 <__heap_size+0x830>
    4974:	00178793          	addi	a5,a5,1
    4978:	00470713          	addi	a4,a4,4
    497c:	00c78c63          	beq	a5,a2,4994 <__heap_size+0x994>
    4980:	00072683          	lw	a3,0(a4)
    4984:	ff56c8e3          	blt	a3,s5,4974 <__heap_size+0x974>
    4988:	00068a93          	mv	s5,a3
    498c:	00078593          	mv	a1,a5
    4990:	fe5ff06f          	j	4974 <__heap_size+0x974>
    4994:	00020737          	lui	a4,0x20
    4998:	000207b7          	lui	a5,0x20
    499c:	0b478793          	addi	a5,a5,180 # 200b4 <next.10>
    49a0:	20f5c5b3          	sh2add	a1,a1,a5
    49a4:	0005a783          	lw	a5,0(a1)
    49a8:	14470713          	addi	a4,a4,324 # 20144 <jump_table.23>
    49ac:	20e7c7b3          	sh2add	a5,a5,a4
    49b0:	0007a783          	lw	a5,0(a5)
    49b4:	9e8fc06f          	j	b9c <inferenceTPG+0x4c>
    49b8:	09b12023          	sw	s11,128(sp)
    49bc:	0049a783          	lw	a5,4(s3)
    49c0:	00078d13          	mv	s10,a5
    49c4:	00492783          	lw	a5,4(s2)
    49c8:	0afd6c33          	max	s8,s10,a5
    49cc:	05812023          	sw	s8,64(sp)
    49d0:	00092a83          	lw	s5,0(s2)
    49d4:	0baae7b3          	max	a5,s5,s10
    49d8:	04f12223          	sw	a5,68(sp)
    49dc:	0004ab83          	lw	s7,0(s1)
    49e0:	000107b7          	lui	a5,0x10
    49e4:	180b8c63          	beqz	s7,4b7c <__heap_size+0xb7c>
    49e8:	41700733          	neg	a4,s7
    49ec:	0aebe733          	max	a4,s7,a4
    49f0:	41f75793          	srai	a5,a4,0x1f
    49f4:	000176b7          	lui	a3,0x17
    49f8:	15468693          	addi	a3,a3,340 # 17154 <heap.cpp.6b15d6f6+0x1a9b>
    49fc:	02d787b3          	mul	a5,a5,a3
    4a00:	02d70b33          	mul	s6,a4,a3
    4a04:	02d73733          	mulhu	a4,a4,a3
    4a08:	00e787b3          	add	a5,a5,a4
    4a0c:	01079793          	slli	a5,a5,0x10
    4a10:	010b5b13          	srli	s6,s6,0x10
    4a14:	01678b33          	add	s6,a5,s6
    4a18:	000087b7          	lui	a5,0x8
    4a1c:	00fb0b33          	add	s6,s6,a5
    4a20:	ffff07b7          	lui	a5,0xffff0
    4a24:	00fb7b33          	and	s6,s6,a5
    4a28:	3c0bc4e3          	bltz	s7,55f0 <__heap_size+0x15f0>
    4a2c:	41fb5713          	srai	a4,s6,0x1f
    4a30:	0000b6b7          	lui	a3,0xb
    4a34:	17268693          	addi	a3,a3,370 # b172 <__muldf3+0x176>
    4a38:	02d70733          	mul	a4,a4,a3
    4a3c:	02db07b3          	mul	a5,s6,a3
    4a40:	02db36b3          	mulhu	a3,s6,a3
    4a44:	00d70733          	add	a4,a4,a3
    4a48:	01071713          	slli	a4,a4,0x10
    4a4c:	0107d793          	srli	a5,a5,0x10
    4a50:	00f707b3          	add	a5,a4,a5
    4a54:	40fb87b3          	sub	a5,s7,a5
    4a58:	41f7d713          	srai	a4,a5,0x1f
    4a5c:	02f70733          	mul	a4,a4,a5
    4a60:	02f78633          	mul	a2,a5,a5
    4a64:	02f7b6b3          	mulhu	a3,a5,a5
    4a68:	20d72733          	sh1add	a4,a4,a3
    4a6c:	01071713          	slli	a4,a4,0x10
    4a70:	01065613          	srli	a2,a2,0x10
    4a74:	00c70633          	add	a2,a4,a2
    4a78:	41f65513          	srai	a0,a2,0x1f
    4a7c:	01e65713          	srli	a4,a2,0x1e
    4a80:	20e54733          	sh2add	a4,a0,a4
    4a84:	00261693          	slli	a3,a2,0x2
    4a88:	01071713          	slli	a4,a4,0x10
    4a8c:	0106d693          	srli	a3,a3,0x10
    4a90:	00d706b3          	add	a3,a4,a3
    4a94:	f4a68693          	addi	a3,a3,-182
    4a98:	41f6d593          	srai	a1,a3,0x1f
    4a9c:	02c585b3          	mul	a1,a1,a2
    4aa0:	02d50733          	mul	a4,a0,a3
    4aa4:	00e585b3          	add	a1,a1,a4
    4aa8:	02c68733          	mul	a4,a3,a2
    4aac:	02c6b6b3          	mulhu	a3,a3,a2
    4ab0:	00d586b3          	add	a3,a1,a3
    4ab4:	01069693          	slli	a3,a3,0x10
    4ab8:	01075713          	srli	a4,a4,0x10
    4abc:	00e68733          	add	a4,a3,a4
    4ac0:	000036b7          	lui	a3,0x3
    4ac4:	aab68693          	addi	a3,a3,-1365 # 2aab <inferenceTPG+0x1f5b>
    4ac8:	00d70733          	add	a4,a4,a3
    4acc:	41f75693          	srai	a3,a4,0x1f
    4ad0:	02c686b3          	mul	a3,a3,a2
    4ad4:	02e50533          	mul	a0,a0,a4
    4ad8:	00a686b3          	add	a3,a3,a0
    4adc:	02c705b3          	mul	a1,a4,a2
    4ae0:	02c73733          	mulhu	a4,a4,a2
    4ae4:	00e68733          	add	a4,a3,a4
    4ae8:	01071713          	slli	a4,a4,0x10
    4aec:	0105d693          	srli	a3,a1,0x10
    4af0:	00d706b3          	add	a3,a4,a3
    4af4:	00020737          	lui	a4,0x20
    4af8:	00e686b3          	add	a3,a3,a4
    4afc:	40f68633          	sub	a2,a3,a5
    4b00:	02f68c63          	beq	a3,a5,4b38 <__heap_size+0xb38>
    4b04:	00f7d713          	srli	a4,a5,0xf
    4b08:	01179793          	slli	a5,a5,0x11
    4b0c:	01071713          	slli	a4,a4,0x10
    4b10:	0107d793          	srli	a5,a5,0x10
    4b14:	00f707b3          	add	a5,a4,a5
    4b18:	41f7d713          	srai	a4,a5,0x1f
    4b1c:	0107d593          	srli	a1,a5,0x10
    4b20:	01071713          	slli	a4,a4,0x10
    4b24:	41f65693          	srai	a3,a2,0x1f
    4b28:	01079513          	slli	a0,a5,0x10
    4b2c:	00e585b3          	add	a1,a1,a4
    4b30:	2a4070ef          	jal	bdd4 <__divdi3>
    4b34:	00050613          	mv	a2,a0
    4b38:	000107b7          	lui	a5,0x10
    4b3c:	00f606b3          	add	a3,a2,a5
    4b40:	2a0b4ce3          	bltz	s6,55f8 <__heap_size+0x15f8>
    4b44:	410b5b13          	srai	s6,s6,0x10
    4b48:	00010737          	lui	a4,0x10
    4b4c:	01671733          	sll	a4,a4,s6
    4b50:	41f75793          	srai	a5,a4,0x1f
    4b54:	41f6d613          	srai	a2,a3,0x1f
    4b58:	02d787b3          	mul	a5,a5,a3
    4b5c:	02e60633          	mul	a2,a2,a4
    4b60:	00c787b3          	add	a5,a5,a2
    4b64:	02d70633          	mul	a2,a4,a3
    4b68:	02d73733          	mulhu	a4,a4,a3
    4b6c:	00e787b3          	add	a5,a5,a4
    4b70:	01079793          	slli	a5,a5,0x10
    4b74:	01065713          	srli	a4,a2,0x10
    4b78:	00e787b3          	add	a5,a5,a4
    4b7c:	04f12423          	sw	a5,72(sp)
    4b80:	0044a783          	lw	a5,4(s1)
    4b84:	00078d93          	mv	s11,a5
    4b88:	280782e3          	beqz	a5,560c <__heap_size+0x160c>
    4b8c:	41fad793          	srai	a5,s5,0x1f
    4b90:	010ad593          	srli	a1,s5,0x10
    4b94:	01079793          	slli	a5,a5,0x10
    4b98:	000d8613          	mv	a2,s11
    4b9c:	41fdd693          	srai	a3,s11,0x1f
    4ba0:	010a9513          	slli	a0,s5,0x10
    4ba4:	00f585b3          	add	a1,a1,a5
    4ba8:	22c070ef          	jal	bdd4 <__divdi3>
    4bac:	00050793          	mv	a5,a0
    4bb0:	24050ee3          	beqz	a0,560c <__heap_size+0x160c>
    4bb4:	40a006b3          	neg	a3,a0
    4bb8:	0ad566b3          	max	a3,a0,a3
    4bbc:	41f6d713          	srai	a4,a3,0x1f
    4bc0:	00017637          	lui	a2,0x17
    4bc4:	15460613          	addi	a2,a2,340 # 17154 <heap.cpp.6b15d6f6+0x1a9b>
    4bc8:	02c70733          	mul	a4,a4,a2
    4bcc:	02c68b33          	mul	s6,a3,a2
    4bd0:	02c6b6b3          	mulhu	a3,a3,a2
    4bd4:	00d70733          	add	a4,a4,a3
    4bd8:	01071713          	slli	a4,a4,0x10
    4bdc:	010b5b13          	srli	s6,s6,0x10
    4be0:	01670b33          	add	s6,a4,s6
    4be4:	00008737          	lui	a4,0x8
    4be8:	00eb0b33          	add	s6,s6,a4
    4bec:	ffff0737          	lui	a4,0xffff0
    4bf0:	00eb7b33          	and	s6,s6,a4
    4bf4:	220540e3          	bltz	a0,5614 <__heap_size+0x1614>
    4bf8:	41fb5713          	srai	a4,s6,0x1f
    4bfc:	0000b6b7          	lui	a3,0xb
    4c00:	17268693          	addi	a3,a3,370 # b172 <__muldf3+0x176>
    4c04:	02d70733          	mul	a4,a4,a3
    4c08:	02db0633          	mul	a2,s6,a3
    4c0c:	02db36b3          	mulhu	a3,s6,a3
    4c10:	00d70733          	add	a4,a4,a3
    4c14:	01071713          	slli	a4,a4,0x10
    4c18:	01065693          	srli	a3,a2,0x10
    4c1c:	00d706b3          	add	a3,a4,a3
    4c20:	40d787b3          	sub	a5,a5,a3
    4c24:	41f7d713          	srai	a4,a5,0x1f
    4c28:	02f70733          	mul	a4,a4,a5
    4c2c:	02f78633          	mul	a2,a5,a5
    4c30:	02f7b6b3          	mulhu	a3,a5,a5
    4c34:	20d72733          	sh1add	a4,a4,a3
    4c38:	01071713          	slli	a4,a4,0x10
    4c3c:	01065613          	srli	a2,a2,0x10
    4c40:	00c70633          	add	a2,a4,a2
    4c44:	41f65513          	srai	a0,a2,0x1f
    4c48:	01e65713          	srli	a4,a2,0x1e
    4c4c:	20e54733          	sh2add	a4,a0,a4
    4c50:	00261693          	slli	a3,a2,0x2
    4c54:	01071713          	slli	a4,a4,0x10
    4c58:	0106d693          	srli	a3,a3,0x10
    4c5c:	00d706b3          	add	a3,a4,a3
    4c60:	f4a68693          	addi	a3,a3,-182
    4c64:	41f6d593          	srai	a1,a3,0x1f
    4c68:	02c585b3          	mul	a1,a1,a2
    4c6c:	02d50733          	mul	a4,a0,a3
    4c70:	00e585b3          	add	a1,a1,a4
    4c74:	02c68733          	mul	a4,a3,a2
    4c78:	02c6b6b3          	mulhu	a3,a3,a2
    4c7c:	00d586b3          	add	a3,a1,a3
    4c80:	01069693          	slli	a3,a3,0x10
    4c84:	01075713          	srli	a4,a4,0x10
    4c88:	00e68733          	add	a4,a3,a4
    4c8c:	000036b7          	lui	a3,0x3
    4c90:	aab68693          	addi	a3,a3,-1365 # 2aab <inferenceTPG+0x1f5b>
    4c94:	00d70733          	add	a4,a4,a3
    4c98:	41f75693          	srai	a3,a4,0x1f
    4c9c:	02c686b3          	mul	a3,a3,a2
    4ca0:	02e50533          	mul	a0,a0,a4
    4ca4:	00a686b3          	add	a3,a3,a0
    4ca8:	02c705b3          	mul	a1,a4,a2
    4cac:	02c73733          	mulhu	a4,a4,a2
    4cb0:	00e68733          	add	a4,a3,a4
    4cb4:	01071713          	slli	a4,a4,0x10
    4cb8:	0105d693          	srli	a3,a1,0x10
    4cbc:	00d706b3          	add	a3,a4,a3
    4cc0:	00020737          	lui	a4,0x20
    4cc4:	00e686b3          	add	a3,a3,a4
    4cc8:	40f68633          	sub	a2,a3,a5
    4ccc:	02f68c63          	beq	a3,a5,4d04 <__heap_size+0xd04>
    4cd0:	00f7d713          	srli	a4,a5,0xf
    4cd4:	01179793          	slli	a5,a5,0x11
    4cd8:	01071713          	slli	a4,a4,0x10
    4cdc:	0107d793          	srli	a5,a5,0x10
    4ce0:	00f707b3          	add	a5,a4,a5
    4ce4:	41f7d713          	srai	a4,a5,0x1f
    4ce8:	0107d593          	srli	a1,a5,0x10
    4cec:	01071713          	slli	a4,a4,0x10
    4cf0:	41f65693          	srai	a3,a2,0x1f
    4cf4:	01079513          	slli	a0,a5,0x10
    4cf8:	00e585b3          	add	a1,a1,a4
    4cfc:	0d8070ef          	jal	bdd4 <__divdi3>
    4d00:	00050613          	mv	a2,a0
    4d04:	000107b7          	lui	a5,0x10
    4d08:	00f606b3          	add	a3,a2,a5
    4d0c:	100b48e3          	bltz	s6,561c <__heap_size+0x161c>
    4d10:	410b5b13          	srai	s6,s6,0x10
    4d14:	00010737          	lui	a4,0x10
    4d18:	01671733          	sll	a4,a4,s6
    4d1c:	41f75793          	srai	a5,a4,0x1f
    4d20:	41f6d613          	srai	a2,a3,0x1f
    4d24:	02d787b3          	mul	a5,a5,a3
    4d28:	02e60633          	mul	a2,a2,a4
    4d2c:	00c787b3          	add	a5,a5,a2
    4d30:	02d70633          	mul	a2,a4,a3
    4d34:	02d73733          	mulhu	a4,a4,a3
    4d38:	00e787b3          	add	a5,a5,a4
    4d3c:	01079793          	slli	a5,a5,0x10
    4d40:	01065713          	srli	a4,a2,0x10
    4d44:	00e787b3          	add	a5,a5,a4
    4d48:	04f12623          	sw	a5,76(sp)
    4d4c:	000ad463          	bgez	s5,4d54 <__heap_size+0xd54>
    4d50:	5380206f          	j	7288 <__heap_size+0x3288>
    4d54:	0e0a82e3          	beqz	s5,5638 <__heap_size+0x1638>
    4d58:	000207b7          	lui	a5,0x20
    4d5c:	0d57dae3          	bge	a5,s5,5630 <__heap_size+0x1630>
    4d60:	00000b13          	li	s6,0
    4d64:	401ada93          	srai	s5,s5,0x1
    4d68:	001b0b13          	addi	s6,s6,1 # ffff0001 <_sp+0xfffc4fc1>
    4d6c:	ff57cce3          	blt	a5,s5,4d64 <__heap_size+0xd64>
    4d70:	ffff07b7          	lui	a5,0xffff0
    4d74:	00fa87b3          	add	a5,s5,a5
    4d78:	00f12423          	sw	a5,8(sp)
    4d7c:	41f7d793          	srai	a5,a5,0x1f
    4d80:	00812703          	lw	a4,8(sp)
    4d84:	01075593          	srli	a1,a4,0x10
    4d88:	01079793          	slli	a5,a5,0x10
    4d8c:	00010737          	lui	a4,0x10
    4d90:	00ea8633          	add	a2,s5,a4
    4d94:	41f65693          	srai	a3,a2,0x1f
    4d98:	00812703          	lw	a4,8(sp)
    4d9c:	01071513          	slli	a0,a4,0x10
    4da0:	00f585b3          	add	a1,a1,a5
    4da4:	030070ef          	jal	bdd4 <__divdi3>
    4da8:	41f55593          	srai	a1,a0,0x1f
    4dac:	02a587b3          	mul	a5,a1,a0
    4db0:	02a506b3          	mul	a3,a0,a0
    4db4:	02a53733          	mulhu	a4,a0,a0
    4db8:	20e7a7b3          	sh1add	a5,a5,a4
    4dbc:	01079793          	slli	a5,a5,0x10
    4dc0:	0106d693          	srli	a3,a3,0x10
    4dc4:	00d786b3          	add	a3,a5,a3
    4dc8:	41f6d313          	srai	t1,a3,0x1f
    4dcc:	02d30733          	mul	a4,t1,a3
    4dd0:	02d687b3          	mul	a5,a3,a3
    4dd4:	02d6b633          	mulhu	a2,a3,a3
    4dd8:	20c72733          	sh1add	a4,a4,a2
    4ddc:	01071713          	slli	a4,a4,0x10
    4de0:	0107d793          	srli	a5,a5,0x10
    4de4:	00f707b3          	add	a5,a4,a5
    4de8:	41f7d813          	srai	a6,a5,0x1f
    4dec:	010b1b13          	slli	s6,s6,0x10
    4df0:	41fb5613          	srai	a2,s6,0x1f
    4df4:	0000b8b7          	lui	a7,0xb
    4df8:	17288893          	addi	a7,a7,370 # b172 <__muldf3+0x176>
    4dfc:	03160633          	mul	a2,a2,a7
    4e00:	031b0733          	mul	a4,s6,a7
    4e04:	031b3b33          	mulhu	s6,s6,a7
    4e08:	01660633          	add	a2,a2,s6
    4e0c:	01061613          	slli	a2,a2,0x10
    4e10:	01075713          	srli	a4,a4,0x10
    4e14:	00e60733          	add	a4,a2,a4
    4e18:	00812603          	lw	a2,8(sp)
    4e1c:	00e60733          	add	a4,a2,a4
    4e20:	000028b7          	lui	a7,0x2
    4e24:	5e288893          	addi	a7,a7,1506 # 25e2 <inferenceTPG+0x1a92>
    4e28:	03180e33          	mul	t3,a6,a7
    4e2c:	03178633          	mul	a2,a5,a7
    4e30:	0317b8b3          	mulhu	a7,a5,a7
    4e34:	011e08b3          	add	a7,t3,a7
    4e38:	01089893          	slli	a7,a7,0x10
    4e3c:	01065613          	srli	a2,a2,0x10
    4e40:	00c88633          	add	a2,a7,a2
    4e44:	000038b7          	lui	a7,0x3
    4e48:	e8d88893          	addi	a7,a7,-371 # 2e8d <inferenceTPG+0x233d>
    4e4c:	01160633          	add	a2,a2,a7
    4e50:	41f65e13          	srai	t3,a2,0x1f
    4e54:	02fe0e33          	mul	t3,t3,a5
    4e58:	02c808b3          	mul	a7,a6,a2
    4e5c:	011e0e33          	add	t3,t3,a7
    4e60:	02f608b3          	mul	a7,a2,a5
    4e64:	02f63633          	mulhu	a2,a2,a5
    4e68:	00ce0633          	add	a2,t3,a2
    4e6c:	01061613          	slli	a2,a2,0x10
    4e70:	0108d893          	srli	a7,a7,0x10
    4e74:	011608b3          	add	a7,a2,a7
    4e78:	00005637          	lui	a2,0x5
    4e7c:	92560613          	addi	a2,a2,-1755 # 4925 <__heap_size+0x925>
    4e80:	00c888b3          	add	a7,a7,a2
    4e84:	41f8de13          	srai	t3,a7,0x1f
    4e88:	02fe0e33          	mul	t3,t3,a5
    4e8c:	03180633          	mul	a2,a6,a7
    4e90:	00ce0e33          	add	t3,t3,a2
    4e94:	02f88633          	mul	a2,a7,a5
    4e98:	02f8b8b3          	mulhu	a7,a7,a5
    4e9c:	011e08b3          	add	a7,t3,a7
    4ea0:	01089893          	slli	a7,a7,0x10
    4ea4:	01065613          	srli	a2,a2,0x10
    4ea8:	00c88633          	add	a2,a7,a2
    4eac:	0000b8b7          	lui	a7,0xb
    4eb0:	aab88893          	addi	a7,a7,-1365 # aaab <__divdf3+0x27f>
    4eb4:	01160633          	add	a2,a2,a7
    4eb8:	41f65893          	srai	a7,a2,0x1f
    4ebc:	02d888b3          	mul	a7,a7,a3
    4ec0:	02c30333          	mul	t1,t1,a2
    4ec4:	00688333          	add	t1,a7,t1
    4ec8:	02d608b3          	mul	a7,a2,a3
    4ecc:	02d63633          	mulhu	a2,a2,a3
    4ed0:	00c306b3          	add	a3,t1,a2
    4ed4:	01069693          	slli	a3,a3,0x10
    4ed8:	0108d893          	srli	a7,a7,0x10
    4edc:	011688b3          	add	a7,a3,a7
    4ee0:	000026b7          	lui	a3,0x2
    4ee4:	73468693          	addi	a3,a3,1844 # 2734 <inferenceTPG+0x1be4>
    4ee8:	02d80333          	mul	t1,a6,a3
    4eec:	02d78633          	mul	a2,a5,a3
    4ef0:	02d7b6b3          	mulhu	a3,a5,a3
    4ef4:	00d306b3          	add	a3,t1,a3
    4ef8:	01069693          	slli	a3,a3,0x10
    4efc:	01065613          	srli	a2,a2,0x10
    4f00:	00c68633          	add	a2,a3,a2
    4f04:	000046b7          	lui	a3,0x4
    4f08:	8e468693          	addi	a3,a3,-1820 # 38e4 <inferenceTPG+0x2d94>
    4f0c:	00d60633          	add	a2,a2,a3
    4f10:	41f65313          	srai	t1,a2,0x1f
    4f14:	02f30333          	mul	t1,t1,a5
    4f18:	02c806b3          	mul	a3,a6,a2
    4f1c:	00d30333          	add	t1,t1,a3
    4f20:	02f606b3          	mul	a3,a2,a5
    4f24:	02f63633          	mulhu	a2,a2,a5
    4f28:	00c30633          	add	a2,t1,a2
    4f2c:	01061613          	slli	a2,a2,0x10
    4f30:	0106d693          	srli	a3,a3,0x10
    4f34:	00d606b3          	add	a3,a2,a3
    4f38:	00006637          	lui	a2,0x6
    4f3c:	66660613          	addi	a2,a2,1638 # 6666 <__heap_size+0x2666>
    4f40:	00c686b3          	add	a3,a3,a2
    4f44:	41f6d613          	srai	a2,a3,0x1f
    4f48:	02f60633          	mul	a2,a2,a5
    4f4c:	02d80833          	mul	a6,a6,a3
    4f50:	01060633          	add	a2,a2,a6
    4f54:	02f68833          	mul	a6,a3,a5
    4f58:	02f6b6b3          	mulhu	a3,a3,a5
    4f5c:	00d607b3          	add	a5,a2,a3
    4f60:	01079793          	slli	a5,a5,0x10
    4f64:	01085693          	srli	a3,a6,0x10
    4f68:	00d786b3          	add	a3,a5,a3
    4f6c:	00d888b3          	add	a7,a7,a3
    4f70:	00812783          	lw	a5,8(sp)
    4f74:	411787b3          	sub	a5,a5,a7
    4f78:	41f7d693          	srai	a3,a5,0x1f
    4f7c:	02a686b3          	mul	a3,a3,a0
    4f80:	02f585b3          	mul	a1,a1,a5
    4f84:	00b686b3          	add	a3,a3,a1
    4f88:	02a78633          	mul	a2,a5,a0
    4f8c:	02a7b7b3          	mulhu	a5,a5,a0
    4f90:	00f687b3          	add	a5,a3,a5
    4f94:	01079793          	slli	a5,a5,0x10
    4f98:	01065693          	srli	a3,a2,0x10
    4f9c:	00d786b3          	add	a3,a5,a3
    4fa0:	40d70733          	sub	a4,a4,a3
    4fa4:	0084ab03          	lw	s6,8(s1)
    4fa8:	41fb5793          	srai	a5,s6,0x1f
    4fac:	00f12623          	sw	a5,12(sp)
    4fb0:	41f75793          	srai	a5,a4,0x1f
    4fb4:	036787b3          	mul	a5,a5,s6
    4fb8:	00c12683          	lw	a3,12(sp)
    4fbc:	02e686b3          	mul	a3,a3,a4
    4fc0:	00d787b3          	add	a5,a5,a3
    4fc4:	036706b3          	mul	a3,a4,s6
    4fc8:	03673733          	mulhu	a4,a4,s6
    4fcc:	00e787b3          	add	a5,a5,a4
    4fd0:	01079793          	slli	a5,a5,0x10
    4fd4:	0106d713          	srli	a4,a3,0x10
    4fd8:	00e787b3          	add	a5,a5,a4
    4fdc:	68078063          	beqz	a5,565c <__heap_size+0x165c>
    4fe0:	40f006b3          	neg	a3,a5
    4fe4:	0ad7e6b3          	max	a3,a5,a3
    4fe8:	41f6d713          	srai	a4,a3,0x1f
    4fec:	00017637          	lui	a2,0x17
    4ff0:	15460613          	addi	a2,a2,340 # 17154 <heap.cpp.6b15d6f6+0x1a9b>
    4ff4:	02c70733          	mul	a4,a4,a2
    4ff8:	02c68ab3          	mul	s5,a3,a2
    4ffc:	02c6b6b3          	mulhu	a3,a3,a2
    5000:	00d70733          	add	a4,a4,a3
    5004:	01071713          	slli	a4,a4,0x10
    5008:	010ada93          	srli	s5,s5,0x10
    500c:	01570ab3          	add	s5,a4,s5
    5010:	00008737          	lui	a4,0x8
    5014:	00ea8ab3          	add	s5,s5,a4
    5018:	ffff0737          	lui	a4,0xffff0
    501c:	00eafab3          	and	s5,s5,a4
    5020:	6207c063          	bltz	a5,5640 <__heap_size+0x1640>
    5024:	41fad713          	srai	a4,s5,0x1f
    5028:	0000b6b7          	lui	a3,0xb
    502c:	17268693          	addi	a3,a3,370 # b172 <__muldf3+0x176>
    5030:	02d70733          	mul	a4,a4,a3
    5034:	02da8633          	mul	a2,s5,a3
    5038:	02dab6b3          	mulhu	a3,s5,a3
    503c:	00d70733          	add	a4,a4,a3
    5040:	01071713          	slli	a4,a4,0x10
    5044:	01065693          	srli	a3,a2,0x10
    5048:	00d706b3          	add	a3,a4,a3
    504c:	40d787b3          	sub	a5,a5,a3
    5050:	41f7d713          	srai	a4,a5,0x1f
    5054:	02f70733          	mul	a4,a4,a5
    5058:	02f78633          	mul	a2,a5,a5
    505c:	02f7b6b3          	mulhu	a3,a5,a5
    5060:	20d72733          	sh1add	a4,a4,a3
    5064:	01071713          	slli	a4,a4,0x10
    5068:	01065613          	srli	a2,a2,0x10
    506c:	00c70633          	add	a2,a4,a2
    5070:	41f65513          	srai	a0,a2,0x1f
    5074:	01e65713          	srli	a4,a2,0x1e
    5078:	20e54733          	sh2add	a4,a0,a4
    507c:	00261693          	slli	a3,a2,0x2
    5080:	01071713          	slli	a4,a4,0x10
    5084:	0106d693          	srli	a3,a3,0x10
    5088:	00d706b3          	add	a3,a4,a3
    508c:	f4a68693          	addi	a3,a3,-182
    5090:	41f6d593          	srai	a1,a3,0x1f
    5094:	02c585b3          	mul	a1,a1,a2
    5098:	02d50733          	mul	a4,a0,a3
    509c:	00e585b3          	add	a1,a1,a4
    50a0:	02c68733          	mul	a4,a3,a2
    50a4:	02c6b6b3          	mulhu	a3,a3,a2
    50a8:	00d586b3          	add	a3,a1,a3
    50ac:	01069693          	slli	a3,a3,0x10
    50b0:	01075713          	srli	a4,a4,0x10
    50b4:	00e68733          	add	a4,a3,a4
    50b8:	000036b7          	lui	a3,0x3
    50bc:	aab68693          	addi	a3,a3,-1365 # 2aab <inferenceTPG+0x1f5b>
    50c0:	00d70733          	add	a4,a4,a3
    50c4:	41f75693          	srai	a3,a4,0x1f
    50c8:	02c686b3          	mul	a3,a3,a2
    50cc:	02e50533          	mul	a0,a0,a4
    50d0:	00a686b3          	add	a3,a3,a0
    50d4:	02c705b3          	mul	a1,a4,a2
    50d8:	02c73733          	mulhu	a4,a4,a2
    50dc:	00e68733          	add	a4,a3,a4
    50e0:	01071713          	slli	a4,a4,0x10
    50e4:	0105d693          	srli	a3,a1,0x10
    50e8:	00d706b3          	add	a3,a4,a3
    50ec:	00020737          	lui	a4,0x20
    50f0:	00e686b3          	add	a3,a3,a4
    50f4:	40f68633          	sub	a2,a3,a5
    50f8:	02f68c63          	beq	a3,a5,5130 <__heap_size+0x1130>
    50fc:	00f7d713          	srli	a4,a5,0xf
    5100:	01179793          	slli	a5,a5,0x11
    5104:	01071713          	slli	a4,a4,0x10
    5108:	0107d793          	srli	a5,a5,0x10
    510c:	00f707b3          	add	a5,a4,a5
    5110:	41f7d713          	srai	a4,a5,0x1f
    5114:	0107d593          	srli	a1,a5,0x10
    5118:	01071713          	slli	a4,a4,0x10
    511c:	41f65693          	srai	a3,a2,0x1f
    5120:	01079513          	slli	a0,a5,0x10
    5124:	00e585b3          	add	a1,a1,a4
    5128:	4ad060ef          	jal	bdd4 <__divdi3>
    512c:	00050613          	mv	a2,a0
    5130:	000107b7          	lui	a5,0x10
    5134:	00f606b3          	add	a3,a2,a5
    5138:	500ac863          	bltz	s5,5648 <__heap_size+0x1648>
    513c:	410ada93          	srai	s5,s5,0x10
    5140:	00010737          	lui	a4,0x10
    5144:	01571733          	sll	a4,a4,s5
    5148:	41f75793          	srai	a5,a4,0x1f
    514c:	41f6d613          	srai	a2,a3,0x1f
    5150:	02d787b3          	mul	a5,a5,a3
    5154:	02e60633          	mul	a2,a2,a4
    5158:	00c787b3          	add	a5,a5,a2
    515c:	02d70633          	mul	a2,a4,a3
    5160:	02d73733          	mulhu	a4,a4,a3
    5164:	00e787b3          	add	a5,a5,a4
    5168:	01079793          	slli	a5,a5,0x10
    516c:	01065713          	srli	a4,a2,0x10
    5170:	00e787b3          	add	a5,a5,a4
    5174:	00fb87b3          	add	a5,s7,a5
    5178:	01b787b3          	add	a5,a5,s11
    517c:	04f12823          	sw	a5,80(sp)
    5180:	4e0bcc63          	bltz	s7,5678 <__heap_size+0x1678>
    5184:	4e0b8663          	beqz	s7,5670 <__heap_size+0x1670>
    5188:	000207b7          	lui	a5,0x20
    518c:	4d77dc63          	bge	a5,s7,5664 <__heap_size+0x1664>
    5190:	000b8693          	mv	a3,s7
    5194:	00000a93          	li	s5,0
    5198:	4016d693          	srai	a3,a3,0x1
    519c:	001a8a93          	addi	s5,s5,1
    51a0:	fed7cce3          	blt	a5,a3,5198 <__heap_size+0x1198>
    51a4:	ffff07b7          	lui	a5,0xffff0
    51a8:	00f687b3          	add	a5,a3,a5
    51ac:	00f12423          	sw	a5,8(sp)
    51b0:	41f7d793          	srai	a5,a5,0x1f
    51b4:	00812703          	lw	a4,8(sp)
    51b8:	01075593          	srli	a1,a4,0x10
    51bc:	01079793          	slli	a5,a5,0x10
    51c0:	00010737          	lui	a4,0x10
    51c4:	00e68633          	add	a2,a3,a4
    51c8:	41f65693          	srai	a3,a2,0x1f
    51cc:	00812703          	lw	a4,8(sp)
    51d0:	01071513          	slli	a0,a4,0x10
    51d4:	00f585b3          	add	a1,a1,a5
    51d8:	3fd060ef          	jal	bdd4 <__divdi3>
    51dc:	41f55593          	srai	a1,a0,0x1f
    51e0:	02a587b3          	mul	a5,a1,a0
    51e4:	02a506b3          	mul	a3,a0,a0
    51e8:	02a53733          	mulhu	a4,a0,a0
    51ec:	20e7a7b3          	sh1add	a5,a5,a4
    51f0:	01079793          	slli	a5,a5,0x10
    51f4:	0106d693          	srli	a3,a3,0x10
    51f8:	00d786b3          	add	a3,a5,a3
    51fc:	41f6d313          	srai	t1,a3,0x1f
    5200:	02d30733          	mul	a4,t1,a3
    5204:	02d687b3          	mul	a5,a3,a3
    5208:	02d6b633          	mulhu	a2,a3,a3
    520c:	20c72733          	sh1add	a4,a4,a2
    5210:	01071713          	slli	a4,a4,0x10
    5214:	0107d793          	srli	a5,a5,0x10
    5218:	00f707b3          	add	a5,a4,a5
    521c:	41f7d813          	srai	a6,a5,0x1f
    5220:	010a9a93          	slli	s5,s5,0x10
    5224:	41fad613          	srai	a2,s5,0x1f
    5228:	0000b8b7          	lui	a7,0xb
    522c:	17288893          	addi	a7,a7,370 # b172 <__muldf3+0x176>
    5230:	03160633          	mul	a2,a2,a7
    5234:	031a8733          	mul	a4,s5,a7
    5238:	031abab3          	mulhu	s5,s5,a7
    523c:	01560633          	add	a2,a2,s5
    5240:	01061613          	slli	a2,a2,0x10
    5244:	01075713          	srli	a4,a4,0x10
    5248:	00e60733          	add	a4,a2,a4
    524c:	00812603          	lw	a2,8(sp)
    5250:	00e60733          	add	a4,a2,a4
    5254:	000028b7          	lui	a7,0x2
    5258:	5e288893          	addi	a7,a7,1506 # 25e2 <inferenceTPG+0x1a92>
    525c:	03180e33          	mul	t3,a6,a7
    5260:	03178633          	mul	a2,a5,a7
    5264:	0317b8b3          	mulhu	a7,a5,a7
    5268:	011e08b3          	add	a7,t3,a7
    526c:	01089893          	slli	a7,a7,0x10
    5270:	01065613          	srli	a2,a2,0x10
    5274:	00c88633          	add	a2,a7,a2
    5278:	000038b7          	lui	a7,0x3
    527c:	e8d88893          	addi	a7,a7,-371 # 2e8d <inferenceTPG+0x233d>
    5280:	01160633          	add	a2,a2,a7
    5284:	41f65e13          	srai	t3,a2,0x1f
    5288:	02fe0e33          	mul	t3,t3,a5
    528c:	02c808b3          	mul	a7,a6,a2
    5290:	011e0e33          	add	t3,t3,a7
    5294:	02f608b3          	mul	a7,a2,a5
    5298:	02f63633          	mulhu	a2,a2,a5
    529c:	00ce0633          	add	a2,t3,a2
    52a0:	01061613          	slli	a2,a2,0x10
    52a4:	0108d893          	srli	a7,a7,0x10
    52a8:	011608b3          	add	a7,a2,a7
    52ac:	00005637          	lui	a2,0x5
    52b0:	92560613          	addi	a2,a2,-1755 # 4925 <__heap_size+0x925>
    52b4:	00c888b3          	add	a7,a7,a2
    52b8:	41f8de13          	srai	t3,a7,0x1f
    52bc:	02fe0e33          	mul	t3,t3,a5
    52c0:	03180633          	mul	a2,a6,a7
    52c4:	00ce0e33          	add	t3,t3,a2
    52c8:	02f88633          	mul	a2,a7,a5
    52cc:	02f8b8b3          	mulhu	a7,a7,a5
    52d0:	011e08b3          	add	a7,t3,a7
    52d4:	01089893          	slli	a7,a7,0x10
    52d8:	01065613          	srli	a2,a2,0x10
    52dc:	00c88633          	add	a2,a7,a2
    52e0:	0000b8b7          	lui	a7,0xb
    52e4:	aab88893          	addi	a7,a7,-1365 # aaab <__divdf3+0x27f>
    52e8:	01160633          	add	a2,a2,a7
    52ec:	41f65893          	srai	a7,a2,0x1f
    52f0:	02d888b3          	mul	a7,a7,a3
    52f4:	02c30333          	mul	t1,t1,a2
    52f8:	00688333          	add	t1,a7,t1
    52fc:	02d608b3          	mul	a7,a2,a3
    5300:	02d63633          	mulhu	a2,a2,a3
    5304:	00c306b3          	add	a3,t1,a2
    5308:	01069693          	slli	a3,a3,0x10
    530c:	0108d893          	srli	a7,a7,0x10
    5310:	011688b3          	add	a7,a3,a7
    5314:	000026b7          	lui	a3,0x2
    5318:	73468693          	addi	a3,a3,1844 # 2734 <inferenceTPG+0x1be4>
    531c:	02d80333          	mul	t1,a6,a3
    5320:	02d78633          	mul	a2,a5,a3
    5324:	02d7b6b3          	mulhu	a3,a5,a3
    5328:	00d306b3          	add	a3,t1,a3
    532c:	01069693          	slli	a3,a3,0x10
    5330:	01065613          	srli	a2,a2,0x10
    5334:	00c68633          	add	a2,a3,a2
    5338:	000046b7          	lui	a3,0x4
    533c:	8e468693          	addi	a3,a3,-1820 # 38e4 <inferenceTPG+0x2d94>
    5340:	00d60633          	add	a2,a2,a3
    5344:	41f65313          	srai	t1,a2,0x1f
    5348:	02f30333          	mul	t1,t1,a5
    534c:	02c806b3          	mul	a3,a6,a2
    5350:	00d30333          	add	t1,t1,a3
    5354:	02f606b3          	mul	a3,a2,a5
    5358:	02f63633          	mulhu	a2,a2,a5
    535c:	00c30633          	add	a2,t1,a2
    5360:	01061613          	slli	a2,a2,0x10
    5364:	0106d693          	srli	a3,a3,0x10
    5368:	00d606b3          	add	a3,a2,a3
    536c:	00006637          	lui	a2,0x6
    5370:	66660613          	addi	a2,a2,1638 # 6666 <__heap_size+0x2666>
    5374:	00c686b3          	add	a3,a3,a2
    5378:	41f6d613          	srai	a2,a3,0x1f
    537c:	02f60633          	mul	a2,a2,a5
    5380:	02d80833          	mul	a6,a6,a3
    5384:	01060633          	add	a2,a2,a6
    5388:	02f68833          	mul	a6,a3,a5
    538c:	02f6b6b3          	mulhu	a3,a3,a5
    5390:	00d607b3          	add	a5,a2,a3
    5394:	01079793          	slli	a5,a5,0x10
    5398:	01085693          	srli	a3,a6,0x10
    539c:	00d786b3          	add	a3,a5,a3
    53a0:	00d888b3          	add	a7,a7,a3
    53a4:	00812783          	lw	a5,8(sp)
    53a8:	411787b3          	sub	a5,a5,a7
    53ac:	41f7d693          	srai	a3,a5,0x1f
    53b0:	02a686b3          	mul	a3,a3,a0
    53b4:	02f585b3          	mul	a1,a1,a5
    53b8:	00b686b3          	add	a3,a3,a1
    53bc:	02a78633          	mul	a2,a5,a0
    53c0:	02a7b7b3          	mulhu	a5,a5,a0
    53c4:	00f687b3          	add	a5,a3,a5
    53c8:	01079793          	slli	a5,a5,0x10
    53cc:	01065693          	srli	a3,a2,0x10
    53d0:	00d786b3          	add	a3,a5,a3
    53d4:	40d70733          	sub	a4,a4,a3
    53d8:	41f75793          	srai	a5,a4,0x1f
    53dc:	036787b3          	mul	a5,a5,s6
    53e0:	00c12683          	lw	a3,12(sp)
    53e4:	02e686b3          	mul	a3,a3,a4
    53e8:	00d787b3          	add	a5,a5,a3
    53ec:	036706b3          	mul	a3,a4,s6
    53f0:	03673733          	mulhu	a4,a4,s6
    53f4:	00e787b3          	add	a5,a5,a4
    53f8:	01079793          	slli	a5,a5,0x10
    53fc:	0106d713          	srli	a4,a3,0x10
    5400:	00e787b3          	add	a5,a5,a4
    5404:	26078a63          	beqz	a5,5678 <__heap_size+0x1678>
    5408:	40f006b3          	neg	a3,a5
    540c:	0ad7e6b3          	max	a3,a5,a3
    5410:	41f6d713          	srai	a4,a3,0x1f
    5414:	00017637          	lui	a2,0x17
    5418:	15460613          	addi	a2,a2,340 # 17154 <heap.cpp.6b15d6f6+0x1a9b>
    541c:	02c70733          	mul	a4,a4,a2
    5420:	02c68ab3          	mul	s5,a3,a2
    5424:	02c6b6b3          	mulhu	a3,a3,a2
    5428:	00d70733          	add	a4,a4,a3
    542c:	01071713          	slli	a4,a4,0x10
    5430:	010ada93          	srli	s5,s5,0x10
    5434:	01570ab3          	add	s5,a4,s5
    5438:	00008737          	lui	a4,0x8
    543c:	00ea8ab3          	add	s5,s5,a4
    5440:	ffff0737          	lui	a4,0xffff0
    5444:	00eafab3          	and	s5,s5,a4
    5448:	2207cc63          	bltz	a5,5680 <__heap_size+0x1680>
    544c:	41fad713          	srai	a4,s5,0x1f
    5450:	0000b6b7          	lui	a3,0xb
    5454:	17268693          	addi	a3,a3,370 # b172 <__muldf3+0x176>
    5458:	02d70733          	mul	a4,a4,a3
    545c:	02da8633          	mul	a2,s5,a3
    5460:	02dab6b3          	mulhu	a3,s5,a3
    5464:	00d70733          	add	a4,a4,a3
    5468:	01071713          	slli	a4,a4,0x10
    546c:	01065693          	srli	a3,a2,0x10
    5470:	00d706b3          	add	a3,a4,a3
    5474:	40d787b3          	sub	a5,a5,a3
    5478:	41f7d713          	srai	a4,a5,0x1f
    547c:	02f70733          	mul	a4,a4,a5
    5480:	02f78633          	mul	a2,a5,a5
    5484:	02f7b6b3          	mulhu	a3,a5,a5
    5488:	20d72733          	sh1add	a4,a4,a3
    548c:	01071713          	slli	a4,a4,0x10
    5490:	01065613          	srli	a2,a2,0x10
    5494:	00c70633          	add	a2,a4,a2
    5498:	41f65513          	srai	a0,a2,0x1f
    549c:	01e65713          	srli	a4,a2,0x1e
    54a0:	20e54733          	sh2add	a4,a0,a4
    54a4:	00261693          	slli	a3,a2,0x2
    54a8:	01071713          	slli	a4,a4,0x10
    54ac:	0106d693          	srli	a3,a3,0x10
    54b0:	00d706b3          	add	a3,a4,a3
    54b4:	f4a68693          	addi	a3,a3,-182
    54b8:	41f6d593          	srai	a1,a3,0x1f
    54bc:	02c585b3          	mul	a1,a1,a2
    54c0:	02d50733          	mul	a4,a0,a3
    54c4:	00e585b3          	add	a1,a1,a4
    54c8:	02c68733          	mul	a4,a3,a2
    54cc:	02c6b6b3          	mulhu	a3,a3,a2
    54d0:	00d586b3          	add	a3,a1,a3
    54d4:	01069693          	slli	a3,a3,0x10
    54d8:	01075713          	srli	a4,a4,0x10
    54dc:	00e68733          	add	a4,a3,a4
    54e0:	000036b7          	lui	a3,0x3
    54e4:	aab68693          	addi	a3,a3,-1365 # 2aab <inferenceTPG+0x1f5b>
    54e8:	00d70733          	add	a4,a4,a3
    54ec:	41f75693          	srai	a3,a4,0x1f
    54f0:	02c686b3          	mul	a3,a3,a2
    54f4:	02e50533          	mul	a0,a0,a4
    54f8:	00a686b3          	add	a3,a3,a0
    54fc:	02c705b3          	mul	a1,a4,a2
    5500:	02c73733          	mulhu	a4,a4,a2
    5504:	00e68733          	add	a4,a3,a4
    5508:	01071713          	slli	a4,a4,0x10
    550c:	0105d693          	srli	a3,a1,0x10
    5510:	00d706b3          	add	a3,a4,a3
    5514:	00020737          	lui	a4,0x20
    5518:	00e686b3          	add	a3,a3,a4
    551c:	40f68633          	sub	a2,a3,a5
    5520:	02f68c63          	beq	a3,a5,5558 <__heap_size+0x1558>
    5524:	00f7d713          	srli	a4,a5,0xf
    5528:	01179793          	slli	a5,a5,0x11
    552c:	01071713          	slli	a4,a4,0x10
    5530:	0107d793          	srli	a5,a5,0x10
    5534:	00f707b3          	add	a5,a4,a5
    5538:	41f7d713          	srai	a4,a5,0x1f
    553c:	0107d593          	srli	a1,a5,0x10
    5540:	01071713          	slli	a4,a4,0x10
    5544:	41f65693          	srai	a3,a2,0x1f
    5548:	01079513          	slli	a0,a5,0x10
    554c:	00e585b3          	add	a1,a1,a4
    5550:	085060ef          	jal	bdd4 <__divdi3>
    5554:	00050613          	mv	a2,a0
    5558:	000107b7          	lui	a5,0x10
    555c:	00f606b3          	add	a3,a2,a5
    5560:	120ac463          	bltz	s5,5688 <__heap_size+0x1688>
    5564:	410ada93          	srai	s5,s5,0x10
    5568:	00010737          	lui	a4,0x10
    556c:	01571733          	sll	a4,a4,s5
    5570:	41f75793          	srai	a5,a4,0x1f
    5574:	41f6d613          	srai	a2,a3,0x1f
    5578:	02d787b3          	mul	a5,a5,a3
    557c:	02e60633          	mul	a2,a2,a4
    5580:	00c787b3          	add	a5,a5,a2
    5584:	02d70633          	mul	a2,a4,a3
    5588:	02d73733          	mulhu	a4,a4,a3
    558c:	00e787b3          	add	a5,a5,a4
    5590:	01079793          	slli	a5,a5,0x10
    5594:	01065713          	srli	a4,a2,0x10
    5598:	00e787b3          	add	a5,a5,a4
    559c:	00fb87b3          	add	a5,s7,a5
    55a0:	01b787b3          	add	a5,a5,s11
    55a4:	04f12a23          	sw	a5,84(sp)
    55a8:	0009a703          	lw	a4,0(s3)
    55ac:	41f75793          	srai	a5,a4,0x1f
    55b0:	41fd5693          	srai	a3,s10,0x1f
    55b4:	03a787b3          	mul	a5,a5,s10
    55b8:	02e686b3          	mul	a3,a3,a4
    55bc:	00d787b3          	add	a5,a5,a3
    55c0:	03a706b3          	mul	a3,a4,s10
    55c4:	03a73733          	mulhu	a4,a4,s10
    55c8:	00e787b3          	add	a5,a5,a4
    55cc:	01079793          	slli	a5,a5,0x10
    55d0:	0106d713          	srli	a4,a3,0x10
    55d4:	00e78733          	add	a4,a5,a4
    55d8:	04e12c23          	sw	a4,88(sp)
    55dc:	04010713          	addi	a4,sp,64
    55e0:	00000593          	li	a1,0
    55e4:	00100793          	li	a5,1
    55e8:	00700613          	li	a2,7
    55ec:	0bc0006f          	j	56a8 <__heap_size+0x16a8>
    55f0:	41600b33          	neg	s6,s6
    55f4:	c38ff06f          	j	4a2c <__heap_size+0xa2c>
    55f8:	416007b3          	neg	a5,s6
    55fc:	4107d793          	srai	a5,a5,0x10
    5600:	00010737          	lui	a4,0x10
    5604:	40f75733          	sra	a4,a4,a5
    5608:	d48ff06f          	j	4b50 <__heap_size+0xb50>
    560c:	000107b7          	lui	a5,0x10
    5610:	f38ff06f          	j	4d48 <__heap_size+0xd48>
    5614:	41600b33          	neg	s6,s6
    5618:	de0ff06f          	j	4bf8 <__heap_size+0xbf8>
    561c:	416007b3          	neg	a5,s6
    5620:	4107d793          	srai	a5,a5,0x10
    5624:	00010737          	lui	a4,0x10
    5628:	40f75733          	sra	a4,a4,a5
    562c:	ef0ff06f          	j	4d1c <__heap_size+0xd1c>
    5630:	00000b13          	li	s6,0
    5634:	f3cff06f          	j	4d70 <__heap_size+0xd70>
    5638:	fff00713          	li	a4,-1
    563c:	969ff06f          	j	4fa4 <__heap_size+0xfa4>
    5640:	41500ab3          	neg	s5,s5
    5644:	9e1ff06f          	j	5024 <__heap_size+0x1024>
    5648:	415007b3          	neg	a5,s5
    564c:	4107d793          	srai	a5,a5,0x10
    5650:	00010737          	lui	a4,0x10
    5654:	40f75733          	sra	a4,a4,a5
    5658:	af1ff06f          	j	5148 <__heap_size+0x1148>
    565c:	000107b7          	lui	a5,0x10
    5660:	b15ff06f          	j	5174 <__heap_size+0x1174>
    5664:	000b8693          	mv	a3,s7
    5668:	00000a93          	li	s5,0
    566c:	b39ff06f          	j	51a4 <__heap_size+0x11a4>
    5670:	fff00713          	li	a4,-1
    5674:	d65ff06f          	j	53d8 <__heap_size+0x13d8>
    5678:	000107b7          	lui	a5,0x10
    567c:	f21ff06f          	j	559c <__heap_size+0x159c>
    5680:	41500ab3          	neg	s5,s5
    5684:	dc9ff06f          	j	544c <__heap_size+0x144c>
    5688:	415007b3          	neg	a5,s5
    568c:	4107d793          	srai	a5,a5,0x10
    5690:	00010737          	lui	a4,0x10
    5694:	40f75733          	sra	a4,a4,a5
    5698:	ed9ff06f          	j	5570 <__heap_size+0x1570>
    569c:	00178793          	addi	a5,a5,1 # 10001 <i2c.c.57379e11+0x763>
    56a0:	00470713          	addi	a4,a4,4 # 10004 <i2c.c.57379e11+0x766>
    56a4:	00c78c63          	beq	a5,a2,56bc <__heap_size+0x16bc>
    56a8:	00472683          	lw	a3,4(a4)
    56ac:	ff86c8e3          	blt	a3,s8,569c <__heap_size+0x169c>
    56b0:	00068c13          	mv	s8,a3
    56b4:	00078593          	mv	a1,a5
    56b8:	fe5ff06f          	j	569c <__heap_size+0x169c>
    56bc:	00020737          	lui	a4,0x20
    56c0:	000207b7          	lui	a5,0x20
    56c4:	09878793          	addi	a5,a5,152 # 20098 <next.9>
    56c8:	20f5c5b3          	sh2add	a1,a1,a5
    56cc:	0005a783          	lw	a5,0(a1)
    56d0:	14470713          	addi	a4,a4,324 # 20144 <jump_table.23>
    56d4:	20e7c7b3          	sh2add	a5,a5,a4
    56d8:	0007a783          	lw	a5,0(a5)
    56dc:	08012d83          	lw	s11,128(sp)
    56e0:	cbcfb06f          	j	b9c <inferenceTPG+0x4c>
    56e4:	0049ac03          	lw	s8,4(s3)
    56e8:	00492a83          	lw	s5,4(s2)
    56ec:	0b5c6ab3          	max	s5,s8,s5
    56f0:	0044a603          	lw	a2,4(s1)
    56f4:	00092b83          	lw	s7,0(s2)
    56f8:	01760b33          	add	s6,a2,s7
    56fc:	02060263          	beqz	a2,5720 <__heap_size+0x1720>
    5700:	41fc5793          	srai	a5,s8,0x1f
    5704:	010c5593          	srli	a1,s8,0x10
    5708:	01079793          	slli	a5,a5,0x10
    570c:	41f65693          	srai	a3,a2,0x1f
    5710:	010c1513          	slli	a0,s8,0x10
    5714:	00f585b3          	add	a1,a1,a5
    5718:	6bc060ef          	jal	bdd4 <__divdi3>
    571c:	00050613          	mv	a2,a0
    5720:	0b8be733          	max	a4,s7,s8
    5724:	00100793          	li	a5,1
    5728:	015b5663          	bge	s6,s5,5734 <__heap_size+0x1734>
    572c:	000a8b13          	mv	s6,s5
    5730:	00000793          	li	a5,0
    5734:	03665a63          	bge	a2,s6,5768 <__heap_size+0x1768>
    5738:	000b0613          	mv	a2,s6
    573c:	00c74463          	blt	a4,a2,5744 <__heap_size+0x1744>
    5740:	00300793          	li	a5,3
    5744:	00020737          	lui	a4,0x20
    5748:	000206b7          	lui	a3,0x20
    574c:	08868693          	addi	a3,a3,136 # 20088 <next.8>
    5750:	20d7c7b3          	sh2add	a5,a5,a3
    5754:	0007a783          	lw	a5,0(a5)
    5758:	14470713          	addi	a4,a4,324 # 20144 <jump_table.23>
    575c:	20e7c7b3          	sh2add	a5,a5,a4
    5760:	0007a783          	lw	a5,0(a5)
    5764:	c38fb06f          	j	b9c <inferenceTPG+0x4c>
    5768:	00200793          	li	a5,2
    576c:	fd1ff06f          	j	573c <__heap_size+0x173c>
    5770:	0049ac03          	lw	s8,4(s3)
    5774:	00492b03          	lw	s6,4(s2)
    5778:	0b6c67b3          	max	a5,s8,s6
    577c:	00078d13          	mv	s10,a5
    5780:	0044a603          	lw	a2,4(s1)
    5784:	00092a83          	lw	s5,0(s2)
    5788:	01560bb3          	add	s7,a2,s5
    578c:	20060263          	beqz	a2,5990 <__heap_size+0x1990>
    5790:	41fad793          	srai	a5,s5,0x1f
    5794:	010ad593          	srli	a1,s5,0x10
    5798:	01079793          	slli	a5,a5,0x10
    579c:	41f65693          	srai	a3,a2,0x1f
    57a0:	010a9513          	slli	a0,s5,0x10
    57a4:	00f585b3          	add	a1,a1,a5
    57a8:	62c060ef          	jal	bdd4 <__divdi3>
    57ac:	00050793          	mv	a5,a0
    57b0:	1e050063          	beqz	a0,5990 <__heap_size+0x1990>
    57b4:	40a00633          	neg	a2,a0
    57b8:	0ac56633          	max	a2,a0,a2
    57bc:	41f65693          	srai	a3,a2,0x1f
    57c0:	000175b7          	lui	a1,0x17
    57c4:	15458593          	addi	a1,a1,340 # 17154 <heap.cpp.6b15d6f6+0x1a9b>
    57c8:	02b686b3          	mul	a3,a3,a1
    57cc:	02b60733          	mul	a4,a2,a1
    57d0:	02b63633          	mulhu	a2,a2,a1
    57d4:	00c686b3          	add	a3,a3,a2
    57d8:	01069693          	slli	a3,a3,0x10
    57dc:	01075713          	srli	a4,a4,0x10
    57e0:	00e68733          	add	a4,a3,a4
    57e4:	000086b7          	lui	a3,0x8
    57e8:	00d70733          	add	a4,a4,a3
    57ec:	ffff06b7          	lui	a3,0xffff0
    57f0:	00d77b33          	and	s6,a4,a3
    57f4:	1a07c263          	bltz	a5,5998 <__heap_size+0x1998>
    57f8:	41fb5713          	srai	a4,s6,0x1f
    57fc:	0000b6b7          	lui	a3,0xb
    5800:	17268693          	addi	a3,a3,370 # b172 <__muldf3+0x176>
    5804:	02d70733          	mul	a4,a4,a3
    5808:	02db0633          	mul	a2,s6,a3
    580c:	02db36b3          	mulhu	a3,s6,a3
    5810:	00d70733          	add	a4,a4,a3
    5814:	01071713          	slli	a4,a4,0x10
    5818:	01065693          	srli	a3,a2,0x10
    581c:	00d706b3          	add	a3,a4,a3
    5820:	40d787b3          	sub	a5,a5,a3
    5824:	41f7d713          	srai	a4,a5,0x1f
    5828:	02f70733          	mul	a4,a4,a5
    582c:	02f78633          	mul	a2,a5,a5
    5830:	02f7b6b3          	mulhu	a3,a5,a5
    5834:	20d72733          	sh1add	a4,a4,a3
    5838:	01071713          	slli	a4,a4,0x10
    583c:	01065613          	srli	a2,a2,0x10
    5840:	00c70633          	add	a2,a4,a2
    5844:	41f65513          	srai	a0,a2,0x1f
    5848:	01e65713          	srli	a4,a2,0x1e
    584c:	20e54733          	sh2add	a4,a0,a4
    5850:	00261693          	slli	a3,a2,0x2
    5854:	01071713          	slli	a4,a4,0x10
    5858:	0106d693          	srli	a3,a3,0x10
    585c:	00d706b3          	add	a3,a4,a3
    5860:	f4a68693          	addi	a3,a3,-182
    5864:	41f6d593          	srai	a1,a3,0x1f
    5868:	02c585b3          	mul	a1,a1,a2
    586c:	02d50733          	mul	a4,a0,a3
    5870:	00e585b3          	add	a1,a1,a4
    5874:	02c68733          	mul	a4,a3,a2
    5878:	02c6b6b3          	mulhu	a3,a3,a2
    587c:	00d586b3          	add	a3,a1,a3
    5880:	01069693          	slli	a3,a3,0x10
    5884:	01075713          	srli	a4,a4,0x10
    5888:	00e68733          	add	a4,a3,a4
    588c:	000036b7          	lui	a3,0x3
    5890:	aab68693          	addi	a3,a3,-1365 # 2aab <inferenceTPG+0x1f5b>
    5894:	00d70733          	add	a4,a4,a3
    5898:	41f75693          	srai	a3,a4,0x1f
    589c:	02c686b3          	mul	a3,a3,a2
    58a0:	02e50533          	mul	a0,a0,a4
    58a4:	00a686b3          	add	a3,a3,a0
    58a8:	02c705b3          	mul	a1,a4,a2
    58ac:	02c73733          	mulhu	a4,a4,a2
    58b0:	00e68733          	add	a4,a3,a4
    58b4:	01071713          	slli	a4,a4,0x10
    58b8:	0105d693          	srli	a3,a1,0x10
    58bc:	00d706b3          	add	a3,a4,a3
    58c0:	00020737          	lui	a4,0x20
    58c4:	00e686b3          	add	a3,a3,a4
    58c8:	40f68633          	sub	a2,a3,a5
    58cc:	02f68c63          	beq	a3,a5,5904 <__heap_size+0x1904>
    58d0:	00f7d713          	srli	a4,a5,0xf
    58d4:	01179793          	slli	a5,a5,0x11
    58d8:	01071713          	slli	a4,a4,0x10
    58dc:	0107d793          	srli	a5,a5,0x10
    58e0:	00f707b3          	add	a5,a4,a5
    58e4:	41f7d713          	srai	a4,a5,0x1f
    58e8:	0107d593          	srli	a1,a5,0x10
    58ec:	01071713          	slli	a4,a4,0x10
    58f0:	41f65693          	srai	a3,a2,0x1f
    58f4:	01079513          	slli	a0,a5,0x10
    58f8:	00e585b3          	add	a1,a1,a4
    58fc:	4d8060ef          	jal	bdd4 <__divdi3>
    5900:	00050613          	mv	a2,a0
    5904:	000107b7          	lui	a5,0x10
    5908:	00f606b3          	add	a3,a2,a5
    590c:	080b4a63          	bltz	s6,59a0 <__heap_size+0x19a0>
    5910:	410b5793          	srai	a5,s6,0x10
    5914:	00010737          	lui	a4,0x10
    5918:	00f71733          	sll	a4,a4,a5
    591c:	41f75793          	srai	a5,a4,0x1f
    5920:	41f6d613          	srai	a2,a3,0x1f
    5924:	02d787b3          	mul	a5,a5,a3
    5928:	02e60633          	mul	a2,a2,a4
    592c:	00c787b3          	add	a5,a5,a2
    5930:	02d70633          	mul	a2,a4,a3
    5934:	02d73733          	mulhu	a4,a4,a3
    5938:	00e787b3          	add	a5,a5,a4
    593c:	01079793          	slli	a5,a5,0x10
    5940:	01065713          	srli	a4,a2,0x10
    5944:	00e787b3          	add	a5,a5,a4
    5948:	0b8aeab3          	max	s5,s5,s8
    594c:	00100713          	li	a4,1
    5950:	01abd663          	bge	s7,s10,595c <__heap_size+0x195c>
    5954:	000d0b93          	mv	s7,s10
    5958:	00000713          	li	a4,0
    595c:	0577dc63          	bge	a5,s7,59b4 <__heap_size+0x19b4>
    5960:	000b8793          	mv	a5,s7
    5964:	00fac463          	blt	s5,a5,596c <__heap_size+0x196c>
    5968:	00300713          	li	a4,3
    596c:	000206b7          	lui	a3,0x20
    5970:	000207b7          	lui	a5,0x20
    5974:	07878793          	addi	a5,a5,120 # 20078 <next.7>
    5978:	20f74733          	sh2add	a4,a4,a5
    597c:	00072783          	lw	a5,0(a4) # 10000 <i2c.c.57379e11+0x762>
    5980:	14468713          	addi	a4,a3,324 # 20144 <jump_table.23>
    5984:	20e7c7b3          	sh2add	a5,a5,a4
    5988:	0007a783          	lw	a5,0(a5)
    598c:	a10fb06f          	j	b9c <inferenceTPG+0x4c>
    5990:	000107b7          	lui	a5,0x10
    5994:	fb5ff06f          	j	5948 <__heap_size+0x1948>
    5998:	41600b33          	neg	s6,s6
    599c:	e5dff06f          	j	57f8 <__heap_size+0x17f8>
    59a0:	416007b3          	neg	a5,s6
    59a4:	4107d793          	srai	a5,a5,0x10
    59a8:	00010737          	lui	a4,0x10
    59ac:	40f75733          	sra	a4,a4,a5
    59b0:	f6dff06f          	j	591c <__heap_size+0x191c>
    59b4:	00200713          	li	a4,2
    59b8:	fadff06f          	j	5964 <__heap_size+0x1964>
    59bc:	0049aa83          	lw	s5,4(s3)
    59c0:	00092783          	lw	a5,0(s2)
    59c4:	0afaeab3          	max	s5,s5,a5
    59c8:	00c92603          	lw	a2,12(s2)
    59cc:	000107b7          	lui	a5,0x10
    59d0:	18060c63          	beqz	a2,5b68 <__heap_size+0x1b68>
    59d4:	40c006b3          	neg	a3,a2
    59d8:	0ad666b3          	max	a3,a2,a3
    59dc:	41f6d713          	srai	a4,a3,0x1f
    59e0:	000177b7          	lui	a5,0x17
    59e4:	15478793          	addi	a5,a5,340 # 17154 <heap.cpp.6b15d6f6+0x1a9b>
    59e8:	02f70733          	mul	a4,a4,a5
    59ec:	02f68b33          	mul	s6,a3,a5
    59f0:	02f6b6b3          	mulhu	a3,a3,a5
    59f4:	00d70733          	add	a4,a4,a3
    59f8:	01071713          	slli	a4,a4,0x10
    59fc:	010b5b13          	srli	s6,s6,0x10
    5a00:	01670b33          	add	s6,a4,s6
    5a04:	000087b7          	lui	a5,0x8
    5a08:	00fb0b33          	add	s6,s6,a5
    5a0c:	ffff07b7          	lui	a5,0xffff0
    5a10:	00fb7b33          	and	s6,s6,a5
    5a14:	18064263          	bltz	a2,5b98 <__heap_size+0x1b98>
    5a18:	41fb5713          	srai	a4,s6,0x1f
    5a1c:	0000b6b7          	lui	a3,0xb
    5a20:	17268693          	addi	a3,a3,370 # b172 <__muldf3+0x176>
    5a24:	02d70733          	mul	a4,a4,a3
    5a28:	02db07b3          	mul	a5,s6,a3
    5a2c:	02db36b3          	mulhu	a3,s6,a3
    5a30:	00d70733          	add	a4,a4,a3
    5a34:	01071713          	slli	a4,a4,0x10
    5a38:	0107d793          	srli	a5,a5,0x10
    5a3c:	00f707b3          	add	a5,a4,a5
    5a40:	40f607b3          	sub	a5,a2,a5
    5a44:	41f7d713          	srai	a4,a5,0x1f
    5a48:	02f70733          	mul	a4,a4,a5
    5a4c:	02f785b3          	mul	a1,a5,a5
    5a50:	02f7b6b3          	mulhu	a3,a5,a5
    5a54:	20d72733          	sh1add	a4,a4,a3
    5a58:	01071713          	slli	a4,a4,0x10
    5a5c:	0105d593          	srli	a1,a1,0x10
    5a60:	00b705b3          	add	a1,a4,a1
    5a64:	41f5d513          	srai	a0,a1,0x1f
    5a68:	01e5d713          	srli	a4,a1,0x1e
    5a6c:	20e54733          	sh2add	a4,a0,a4
    5a70:	00259693          	slli	a3,a1,0x2
    5a74:	01071713          	slli	a4,a4,0x10
    5a78:	0106d693          	srli	a3,a3,0x10
    5a7c:	00d706b3          	add	a3,a4,a3
    5a80:	f4a68693          	addi	a3,a3,-182
    5a84:	41f6d613          	srai	a2,a3,0x1f
    5a88:	02b60633          	mul	a2,a2,a1
    5a8c:	02d50733          	mul	a4,a0,a3
    5a90:	00e60633          	add	a2,a2,a4
    5a94:	02b68733          	mul	a4,a3,a1
    5a98:	02b6b6b3          	mulhu	a3,a3,a1
    5a9c:	00d606b3          	add	a3,a2,a3
    5aa0:	01069693          	slli	a3,a3,0x10
    5aa4:	01075713          	srli	a4,a4,0x10
    5aa8:	00e68733          	add	a4,a3,a4
    5aac:	000036b7          	lui	a3,0x3
    5ab0:	aab68693          	addi	a3,a3,-1365 # 2aab <inferenceTPG+0x1f5b>
    5ab4:	00d70733          	add	a4,a4,a3
    5ab8:	41f75693          	srai	a3,a4,0x1f
    5abc:	02b686b3          	mul	a3,a3,a1
    5ac0:	02e50533          	mul	a0,a0,a4
    5ac4:	00a686b3          	add	a3,a3,a0
    5ac8:	02b70633          	mul	a2,a4,a1
    5acc:	02b73733          	mulhu	a4,a4,a1
    5ad0:	00e68733          	add	a4,a3,a4
    5ad4:	01071713          	slli	a4,a4,0x10
    5ad8:	01065693          	srli	a3,a2,0x10
    5adc:	00d706b3          	add	a3,a4,a3
    5ae0:	00020737          	lui	a4,0x20
    5ae4:	00e686b3          	add	a3,a3,a4
    5ae8:	40f68633          	sub	a2,a3,a5
    5aec:	02f68c63          	beq	a3,a5,5b24 <__heap_size+0x1b24>
    5af0:	00f7d713          	srli	a4,a5,0xf
    5af4:	01179793          	slli	a5,a5,0x11
    5af8:	01071713          	slli	a4,a4,0x10
    5afc:	0107d793          	srli	a5,a5,0x10
    5b00:	00f707b3          	add	a5,a4,a5
    5b04:	41f7d713          	srai	a4,a5,0x1f
    5b08:	0107d593          	srli	a1,a5,0x10
    5b0c:	01071713          	slli	a4,a4,0x10
    5b10:	41f65693          	srai	a3,a2,0x1f
    5b14:	01079513          	slli	a0,a5,0x10
    5b18:	00e585b3          	add	a1,a1,a4
    5b1c:	2b8060ef          	jal	bdd4 <__divdi3>
    5b20:	00050613          	mv	a2,a0
    5b24:	000107b7          	lui	a5,0x10
    5b28:	00f606b3          	add	a3,a2,a5
    5b2c:	060b4a63          	bltz	s6,5ba0 <__heap_size+0x1ba0>
    5b30:	410b5b13          	srai	s6,s6,0x10
    5b34:	00010737          	lui	a4,0x10
    5b38:	01671733          	sll	a4,a4,s6
    5b3c:	41f75793          	srai	a5,a4,0x1f
    5b40:	41f6d613          	srai	a2,a3,0x1f
    5b44:	02d787b3          	mul	a5,a5,a3
    5b48:	02e60633          	mul	a2,a2,a4
    5b4c:	00c787b3          	add	a5,a5,a2
    5b50:	02d70633          	mul	a2,a4,a3
    5b54:	02d73733          	mulhu	a4,a4,a3
    5b58:	00e787b3          	add	a5,a5,a4
    5b5c:	01079793          	slli	a5,a5,0x10
    5b60:	01065713          	srli	a4,a2,0x10
    5b64:	00e787b3          	add	a5,a5,a4
    5b68:	00020737          	lui	a4,0x20
    5b6c:	0084a603          	lw	a2,8(s1)
    5b70:	00c787b3          	add	a5,a5,a2
    5b74:	0157a7b3          	slt	a5,a5,s5
    5b78:	0017b793          	seqz	a5,a5
    5b7c:	93018693          	addi	a3,gp,-1744 # 22da8 <next.6>
    5b80:	20d7c7b3          	sh2add	a5,a5,a3
    5b84:	0007a783          	lw	a5,0(a5) # 10000 <i2c.c.57379e11+0x762>
    5b88:	14470713          	addi	a4,a4,324 # 20144 <jump_table.23>
    5b8c:	20e7c7b3          	sh2add	a5,a5,a4
    5b90:	0007a783          	lw	a5,0(a5)
    5b94:	808fb06f          	j	b9c <inferenceTPG+0x4c>
    5b98:	41600b33          	neg	s6,s6
    5b9c:	e7dff06f          	j	5a18 <__heap_size+0x1a18>
    5ba0:	416007b3          	neg	a5,s6
    5ba4:	4107d793          	srai	a5,a5,0x10
    5ba8:	00010737          	lui	a4,0x10
    5bac:	40f75733          	sra	a4,a4,a5
    5bb0:	f8dff06f          	j	5b3c <__heap_size+0x1b3c>
    5bb4:	0049a683          	lw	a3,4(s3)
    5bb8:	00492583          	lw	a1,4(s2)
    5bbc:	0ab6e5b3          	max	a1,a3,a1
    5bc0:	000a2703          	lw	a4,0(s4)
    5bc4:	40e68733          	sub	a4,a3,a4
    5bc8:	41f75793          	srai	a5,a4,0x1f
    5bcc:	00092603          	lw	a2,0(s2)
    5bd0:	41f65513          	srai	a0,a2,0x1f
    5bd4:	02c787b3          	mul	a5,a5,a2
    5bd8:	02e50533          	mul	a0,a0,a4
    5bdc:	00a787b3          	add	a5,a5,a0
    5be0:	02c70533          	mul	a0,a4,a2
    5be4:	02c73733          	mulhu	a4,a4,a2
    5be8:	00e787b3          	add	a5,a5,a4
    5bec:	01079793          	slli	a5,a5,0x10
    5bf0:	01055713          	srli	a4,a0,0x10
    5bf4:	00e787b3          	add	a5,a5,a4
    5bf8:	00892703          	lw	a4,8(s2)
    5bfc:	0ae6e6b3          	max	a3,a3,a4
    5c00:	00100713          	li	a4,1
    5c04:	00b7d663          	bge	a5,a1,5c10 <__heap_size+0x1c10>
    5c08:	00058793          	mv	a5,a1
    5c0c:	00000713          	li	a4,0
    5c10:	00f6c463          	blt	a3,a5,5c18 <__heap_size+0x1c18>
    5c14:	00200713          	li	a4,2
    5c18:	000206b7          	lui	a3,0x20
    5c1c:	000207b7          	lui	a5,0x20
    5c20:	06c78793          	addi	a5,a5,108 # 2006c <next.5>
    5c24:	20f74733          	sh2add	a4,a4,a5
    5c28:	00072783          	lw	a5,0(a4) # 10000 <i2c.c.57379e11+0x762>
    5c2c:	14468713          	addi	a4,a3,324 # 20144 <jump_table.23>
    5c30:	20e7c7b3          	sh2add	a5,a5,a4
    5c34:	0007a783          	lw	a5,0(a5)
    5c38:	f65fa06f          	j	b9c <inferenceTPG+0x4c>
    5c3c:	0089a683          	lw	a3,8(s3)
    5c40:	00000b13          	li	s6,0
    5c44:	2406c063          	bltz	a3,5e84 <__heap_size+0x1e84>
    5c48:	76068463          	beqz	a3,63b0 <__heap_size+0x23b0>
    5c4c:	000207b7          	lui	a5,0x20
    5c50:	74d7dc63          	bge	a5,a3,63a8 <__heap_size+0x23a8>
    5c54:	00000a93          	li	s5,0
    5c58:	4016d693          	srai	a3,a3,0x1
    5c5c:	001a8a93          	addi	s5,s5,1
    5c60:	fed7cce3          	blt	a5,a3,5c58 <__heap_size+0x1c58>
    5c64:	ffff0bb7          	lui	s7,0xffff0
    5c68:	01768bb3          	add	s7,a3,s7
    5c6c:	41fbd793          	srai	a5,s7,0x1f
    5c70:	010bd593          	srli	a1,s7,0x10
    5c74:	01079793          	slli	a5,a5,0x10
    5c78:	00010737          	lui	a4,0x10
    5c7c:	00e68633          	add	a2,a3,a4
    5c80:	41f65693          	srai	a3,a2,0x1f
    5c84:	010b9513          	slli	a0,s7,0x10
    5c88:	00f585b3          	add	a1,a1,a5
    5c8c:	148060ef          	jal	bdd4 <__divdi3>
    5c90:	41f55613          	srai	a2,a0,0x1f
    5c94:	02a607b3          	mul	a5,a2,a0
    5c98:	02a506b3          	mul	a3,a0,a0
    5c9c:	02a53733          	mulhu	a4,a0,a0
    5ca0:	20e7a7b3          	sh1add	a5,a5,a4
    5ca4:	01079793          	slli	a5,a5,0x10
    5ca8:	0106d693          	srli	a3,a3,0x10
    5cac:	00d786b3          	add	a3,a5,a3
    5cb0:	41f6d893          	srai	a7,a3,0x1f
    5cb4:	02d887b3          	mul	a5,a7,a3
    5cb8:	02d68733          	mul	a4,a3,a3
    5cbc:	02d6b5b3          	mulhu	a1,a3,a3
    5cc0:	20b7a7b3          	sh1add	a5,a5,a1
    5cc4:	01079793          	slli	a5,a5,0x10
    5cc8:	01075713          	srli	a4,a4,0x10
    5ccc:	00e78733          	add	a4,a5,a4
    5cd0:	41f75593          	srai	a1,a4,0x1f
    5cd4:	010a9793          	slli	a5,s5,0x10
    5cd8:	41f7d813          	srai	a6,a5,0x1f
    5cdc:	0000b337          	lui	t1,0xb
    5ce0:	17230313          	addi	t1,t1,370 # b172 <__muldf3+0x176>
    5ce4:	02680833          	mul	a6,a6,t1
    5ce8:	02678b33          	mul	s6,a5,t1
    5cec:	0267b7b3          	mulhu	a5,a5,t1
    5cf0:	00f807b3          	add	a5,a6,a5
    5cf4:	01079793          	slli	a5,a5,0x10
    5cf8:	010b5b13          	srli	s6,s6,0x10
    5cfc:	01678b33          	add	s6,a5,s6
    5d00:	016b8b33          	add	s6,s7,s6
    5d04:	00002837          	lui	a6,0x2
    5d08:	5e280813          	addi	a6,a6,1506 # 25e2 <inferenceTPG+0x1a92>
    5d0c:	03058333          	mul	t1,a1,a6
    5d10:	030707b3          	mul	a5,a4,a6
    5d14:	03073833          	mulhu	a6,a4,a6
    5d18:	01030833          	add	a6,t1,a6
    5d1c:	01081813          	slli	a6,a6,0x10
    5d20:	0107d793          	srli	a5,a5,0x10
    5d24:	00f807b3          	add	a5,a6,a5
    5d28:	00003837          	lui	a6,0x3
    5d2c:	e8d80813          	addi	a6,a6,-371 # 2e8d <inferenceTPG+0x233d>
    5d30:	010787b3          	add	a5,a5,a6
    5d34:	41f7d313          	srai	t1,a5,0x1f
    5d38:	02e30333          	mul	t1,t1,a4
    5d3c:	02f58833          	mul	a6,a1,a5
    5d40:	01030333          	add	t1,t1,a6
    5d44:	02e78833          	mul	a6,a5,a4
    5d48:	02e7b7b3          	mulhu	a5,a5,a4
    5d4c:	00f307b3          	add	a5,t1,a5
    5d50:	01079793          	slli	a5,a5,0x10
    5d54:	01085813          	srli	a6,a6,0x10
    5d58:	01078833          	add	a6,a5,a6
    5d5c:	000057b7          	lui	a5,0x5
    5d60:	92578793          	addi	a5,a5,-1755 # 4925 <__heap_size+0x925>
    5d64:	00f80833          	add	a6,a6,a5
    5d68:	41f85313          	srai	t1,a6,0x1f
    5d6c:	02e30333          	mul	t1,t1,a4
    5d70:	030587b3          	mul	a5,a1,a6
    5d74:	00f30333          	add	t1,t1,a5
    5d78:	02e807b3          	mul	a5,a6,a4
    5d7c:	02e83833          	mulhu	a6,a6,a4
    5d80:	01030833          	add	a6,t1,a6
    5d84:	01081813          	slli	a6,a6,0x10
    5d88:	0107d793          	srli	a5,a5,0x10
    5d8c:	00f807b3          	add	a5,a6,a5
    5d90:	0000b837          	lui	a6,0xb
    5d94:	aab80813          	addi	a6,a6,-1365 # aaab <__divdf3+0x27f>
    5d98:	010787b3          	add	a5,a5,a6
    5d9c:	41f7d813          	srai	a6,a5,0x1f
    5da0:	02d80833          	mul	a6,a6,a3
    5da4:	02f888b3          	mul	a7,a7,a5
    5da8:	011808b3          	add	a7,a6,a7
    5dac:	02d78833          	mul	a6,a5,a3
    5db0:	02d7b7b3          	mulhu	a5,a5,a3
    5db4:	00f887b3          	add	a5,a7,a5
    5db8:	01079793          	slli	a5,a5,0x10
    5dbc:	01085813          	srli	a6,a6,0x10
    5dc0:	01078833          	add	a6,a5,a6
    5dc4:	000027b7          	lui	a5,0x2
    5dc8:	73478793          	addi	a5,a5,1844 # 2734 <inferenceTPG+0x1be4>
    5dcc:	02f588b3          	mul	a7,a1,a5
    5dd0:	02f706b3          	mul	a3,a4,a5
    5dd4:	02f737b3          	mulhu	a5,a4,a5
    5dd8:	00f887b3          	add	a5,a7,a5
    5ddc:	01079793          	slli	a5,a5,0x10
    5de0:	0106d693          	srli	a3,a3,0x10
    5de4:	00d786b3          	add	a3,a5,a3
    5de8:	000047b7          	lui	a5,0x4
    5dec:	8e478793          	addi	a5,a5,-1820 # 38e4 <inferenceTPG+0x2d94>
    5df0:	00f686b3          	add	a3,a3,a5
    5df4:	41f6d893          	srai	a7,a3,0x1f
    5df8:	02e888b3          	mul	a7,a7,a4
    5dfc:	02d587b3          	mul	a5,a1,a3
    5e00:	00f888b3          	add	a7,a7,a5
    5e04:	02e687b3          	mul	a5,a3,a4
    5e08:	02e6b6b3          	mulhu	a3,a3,a4
    5e0c:	00d886b3          	add	a3,a7,a3
    5e10:	01069693          	slli	a3,a3,0x10
    5e14:	0107d793          	srli	a5,a5,0x10
    5e18:	00f687b3          	add	a5,a3,a5
    5e1c:	000066b7          	lui	a3,0x6
    5e20:	66668693          	addi	a3,a3,1638 # 6666 <__heap_size+0x2666>
    5e24:	00d787b3          	add	a5,a5,a3
    5e28:	41f7d693          	srai	a3,a5,0x1f
    5e2c:	02e686b3          	mul	a3,a3,a4
    5e30:	02f585b3          	mul	a1,a1,a5
    5e34:	00b686b3          	add	a3,a3,a1
    5e38:	02e785b3          	mul	a1,a5,a4
    5e3c:	02e7b7b3          	mulhu	a5,a5,a4
    5e40:	00f687b3          	add	a5,a3,a5
    5e44:	01079793          	slli	a5,a5,0x10
    5e48:	0105d713          	srli	a4,a1,0x10
    5e4c:	00e78733          	add	a4,a5,a4
    5e50:	00e80833          	add	a6,a6,a4
    5e54:	410b8bb3          	sub	s7,s7,a6
    5e58:	41fbd793          	srai	a5,s7,0x1f
    5e5c:	02a787b3          	mul	a5,a5,a0
    5e60:	03760633          	mul	a2,a2,s7
    5e64:	00c787b3          	add	a5,a5,a2
    5e68:	02ab8733          	mul	a4,s7,a0
    5e6c:	02abbbb3          	mulhu	s7,s7,a0
    5e70:	017787b3          	add	a5,a5,s7
    5e74:	01079793          	slli	a5,a5,0x10
    5e78:	01075713          	srli	a4,a4,0x10
    5e7c:	00e78733          	add	a4,a5,a4
    5e80:	40eb0b33          	sub	s6,s6,a4
    5e84:	0004a703          	lw	a4,0(s1)
    5e88:	0b676b33          	max	s6,a4,s6
    5e8c:	03612423          	sw	s6,40(sp)
    5e90:	000a2783          	lw	a5,0(s4)
    5e94:	40f007b3          	neg	a5,a5
    5e98:	02f12623          	sw	a5,44(sp)
    5e9c:	0044a783          	lw	a5,4(s1)
    5ea0:	00e787b3          	add	a5,a5,a4
    5ea4:	02f12823          	sw	a5,48(sp)
    5ea8:	00892683          	lw	a3,8(s2)
    5eac:	517cd5b7          	lui	a1,0x517cd
    5eb0:	c8358593          	addi	a1,a1,-893 # 517ccc83 <_sp+0x517a1c43>
    5eb4:	02b695b3          	mulh	a1,a3,a1
    5eb8:	4115d593          	srai	a1,a1,0x11
    5ebc:	41f6d793          	srai	a5,a3,0x1f
    5ec0:	40f585b3          	sub	a1,a1,a5
    5ec4:	000657b7          	lui	a5,0x65
    5ec8:	87e78793          	addi	a5,a5,-1922 # 6487e <_sp+0x3983e>
    5ecc:	02f587b3          	mul	a5,a1,a5
    5ed0:	40f685b3          	sub	a1,a3,a5
    5ed4:	4e05c263          	bltz	a1,63b8 <__heap_size+0x23b8>
    5ed8:	fffe77b7          	lui	a5,0xfffe7
    5edc:	ddf78793          	addi	a5,a5,-545 # fffe6ddf <_sp+0xfffbbd9f>
    5ee0:	00f587b3          	add	a5,a1,a5
    5ee4:	00019737          	lui	a4,0x19
    5ee8:	21e70713          	addi	a4,a4,542 # 1921e <heap.cpp.6b15d6f6+0x3b65>
    5eec:	4cf76e63          	bltu	a4,a5,63c8 <__heap_size+0x23c8>
    5ef0:	000327b7          	lui	a5,0x32
    5ef4:	43f78793          	addi	a5,a5,1087 # 3243f <_sp+0x73ff>
    5ef8:	40b785b3          	sub	a1,a5,a1
    5efc:	00100813          	li	a6,1
    5f00:	00019737          	lui	a4,0x19
    5f04:	22070713          	addi	a4,a4,544 # 19220 <heap.cpp.6b15d6f6+0x3b67>
    5f08:	40d70733          	sub	a4,a4,a3
    5f0c:	517cd7b7          	lui	a5,0x517cd
    5f10:	c8378793          	addi	a5,a5,-893 # 517ccc83 <_sp+0x517a1c43>
    5f14:	02f717b3          	mulh	a5,a4,a5
    5f18:	4117d793          	srai	a5,a5,0x11
    5f1c:	41f75693          	srai	a3,a4,0x1f
    5f20:	40d787b3          	sub	a5,a5,a3
    5f24:	000656b7          	lui	a3,0x65
    5f28:	87e68693          	addi	a3,a3,-1922 # 6487e <_sp+0x3983e>
    5f2c:	02d787b3          	mul	a5,a5,a3
    5f30:	40f707b3          	sub	a5,a4,a5
    5f34:	4e07c263          	bltz	a5,6418 <__heap_size+0x2418>
    5f38:	fffe7737          	lui	a4,0xfffe7
    5f3c:	ddf70713          	addi	a4,a4,-545 # fffe6ddf <_sp+0xfffbbd9f>
    5f40:	00e78733          	add	a4,a5,a4
    5f44:	000196b7          	lui	a3,0x19
    5f48:	21e68693          	addi	a3,a3,542 # 1921e <heap.cpp.6b15d6f6+0x3b65>
    5f4c:	4ce6ea63          	bltu	a3,a4,6420 <__heap_size+0x2420>
    5f50:	00032737          	lui	a4,0x32
    5f54:	43f70713          	addi	a4,a4,1087 # 3243f <_sp+0x73ff>
    5f58:	40f707b3          	sub	a5,a4,a5
    5f5c:	00100513          	li	a0,1
    5f60:	41f7d893          	srai	a7,a5,0x1f
    5f64:	02f88733          	mul	a4,a7,a5
    5f68:	02f78333          	mul	t1,a5,a5
    5f6c:	02f7b6b3          	mulhu	a3,a5,a5
    5f70:	20d72733          	sh1add	a4,a4,a3
    5f74:	01071713          	slli	a4,a4,0x10
    5f78:	01035313          	srli	t1,t1,0x10
    5f7c:	00670333          	add	t1,a4,t1
    5f80:	41f35e13          	srai	t3,t1,0x1f
    5f84:	1f300613          	li	a2,499
    5f88:	02ce0733          	mul	a4,t3,a2
    5f8c:	02c306b3          	mul	a3,t1,a2
    5f90:	02c33633          	mulhu	a2,t1,a2
    5f94:	00c70733          	add	a4,a4,a2
    5f98:	01071713          	slli	a4,a4,0x10
    5f9c:	0106d693          	srli	a3,a3,0x10
    5fa0:	00d706b3          	add	a3,a4,a3
    5fa4:	ffffd737          	lui	a4,0xffffd
    5fa8:	57e70713          	addi	a4,a4,1406 # ffffd57e <_sp+0xfffd253e>
    5fac:	00e686b3          	add	a3,a3,a4
    5fb0:	41f6d613          	srai	a2,a3,0x1f
    5fb4:	02660633          	mul	a2,a2,t1
    5fb8:	02de0e33          	mul	t3,t3,a3
    5fbc:	01c60633          	add	a2,a2,t3
    5fc0:	02668733          	mul	a4,a3,t1
    5fc4:	0266b6b3          	mulhu	a3,a3,t1
    5fc8:	00d606b3          	add	a3,a2,a3
    5fcc:	01069693          	slli	a3,a3,0x10
    5fd0:	01075713          	srli	a4,a4,0x10
    5fd4:	00e68733          	add	a4,a3,a4
    5fd8:	000106b7          	lui	a3,0x10
    5fdc:	00d70733          	add	a4,a4,a3
    5fe0:	41f75693          	srai	a3,a4,0x1f
    5fe4:	02f686b3          	mul	a3,a3,a5
    5fe8:	02e888b3          	mul	a7,a7,a4
    5fec:	011686b3          	add	a3,a3,a7
    5ff0:	02f70633          	mul	a2,a4,a5
    5ff4:	02f73733          	mulhu	a4,a4,a5
    5ff8:	00e687b3          	add	a5,a3,a4
    5ffc:	01079793          	slli	a5,a5,0x10
    6000:	01065613          	srli	a2,a2,0x10
    6004:	00c78633          	add	a2,a5,a2
    6008:	02c50633          	mul	a2,a0,a2
    600c:	0c060863          	beqz	a2,60dc <__heap_size+0x20dc>
    6010:	41f5d893          	srai	a7,a1,0x1f
    6014:	02b887b3          	mul	a5,a7,a1
    6018:	02b586b3          	mul	a3,a1,a1
    601c:	02b5b733          	mulhu	a4,a1,a1
    6020:	20e7a7b3          	sh1add	a5,a5,a4
    6024:	01079793          	slli	a5,a5,0x10
    6028:	0106d693          	srli	a3,a3,0x10
    602c:	00d786b3          	add	a3,a5,a3
    6030:	41f6d313          	srai	t1,a3,0x1f
    6034:	1f300513          	li	a0,499
    6038:	02a307b3          	mul	a5,t1,a0
    603c:	02a68733          	mul	a4,a3,a0
    6040:	02a6b533          	mulhu	a0,a3,a0
    6044:	00a787b3          	add	a5,a5,a0
    6048:	01079793          	slli	a5,a5,0x10
    604c:	01075713          	srli	a4,a4,0x10
    6050:	00e78733          	add	a4,a5,a4
    6054:	ffffd7b7          	lui	a5,0xffffd
    6058:	57e78793          	addi	a5,a5,1406 # ffffd57e <_sp+0xfffd253e>
    605c:	00f70733          	add	a4,a4,a5
    6060:	41f75513          	srai	a0,a4,0x1f
    6064:	02d50533          	mul	a0,a0,a3
    6068:	02e30333          	mul	t1,t1,a4
    606c:	00650533          	add	a0,a0,t1
    6070:	02d707b3          	mul	a5,a4,a3
    6074:	02d73733          	mulhu	a4,a4,a3
    6078:	00e50733          	add	a4,a0,a4
    607c:	01071713          	slli	a4,a4,0x10
    6080:	0107d793          	srli	a5,a5,0x10
    6084:	00f707b3          	add	a5,a4,a5
    6088:	00010737          	lui	a4,0x10
    608c:	00e787b3          	add	a5,a5,a4
    6090:	41f7d713          	srai	a4,a5,0x1f
    6094:	02b70733          	mul	a4,a4,a1
    6098:	02f888b3          	mul	a7,a7,a5
    609c:	01170733          	add	a4,a4,a7
    60a0:	02b786b3          	mul	a3,a5,a1
    60a4:	02b7b7b3          	mulhu	a5,a5,a1
    60a8:	00f707b3          	add	a5,a4,a5
    60ac:	01079793          	slli	a5,a5,0x10
    60b0:	0106d713          	srli	a4,a3,0x10
    60b4:	00e78733          	add	a4,a5,a4
    60b8:	02e80533          	mul	a0,a6,a4
    60bc:	41f55793          	srai	a5,a0,0x1f
    60c0:	01055593          	srli	a1,a0,0x10
    60c4:	01079793          	slli	a5,a5,0x10
    60c8:	41f65693          	srai	a3,a2,0x1f
    60cc:	01051513          	slli	a0,a0,0x10
    60d0:	00f585b3          	add	a1,a1,a5
    60d4:	501050ef          	jal	bdd4 <__divdi3>
    60d8:	00050613          	mv	a2,a0
    60dc:	02c12a23          	sw	a2,52(sp)
    60e0:	00092783          	lw	a5,0(s2)
    60e4:	00078d13          	mv	s10,a5
    60e8:	0084aa83          	lw	s5,8(s1)
    60ec:	fff00713          	li	a4,-1
    60f0:	260a8863          	beqz	s5,6360 <__heap_size+0x2360>
    60f4:	09b12023          	sw	s11,128(sp)
    60f8:	41f7d793          	srai	a5,a5,0x1f
    60fc:	010d5593          	srli	a1,s10,0x10
    6100:	01079793          	slli	a5,a5,0x10
    6104:	000a8613          	mv	a2,s5
    6108:	41fad693          	srai	a3,s5,0x1f
    610c:	010d1513          	slli	a0,s10,0x10
    6110:	00f585b3          	add	a1,a1,a5
    6114:	4c1050ef          	jal	bdd4 <__divdi3>
    6118:	00050d93          	mv	s11,a0
    611c:	340ace63          	bltz	s5,6478 <__heap_size+0x2478>
    6120:	000207b7          	lui	a5,0x20
    6124:	3557d663          	bge	a5,s5,6470 <__heap_size+0x2470>
    6128:	00000c13          	li	s8,0
    612c:	401ada93          	srai	s5,s5,0x1
    6130:	001c0c13          	addi	s8,s8,1
    6134:	ff57cce3          	blt	a5,s5,612c <__heap_size+0x212c>
    6138:	ffff0bb7          	lui	s7,0xffff0
    613c:	017a8bb3          	add	s7,s5,s7
    6140:	41fbd793          	srai	a5,s7,0x1f
    6144:	010bd593          	srli	a1,s7,0x10
    6148:	01079793          	slli	a5,a5,0x10
    614c:	00010637          	lui	a2,0x10
    6150:	00ca8633          	add	a2,s5,a2
    6154:	41f65693          	srai	a3,a2,0x1f
    6158:	010b9513          	slli	a0,s7,0x10
    615c:	00f585b3          	add	a1,a1,a5
    6160:	475050ef          	jal	bdd4 <__divdi3>
    6164:	41f55593          	srai	a1,a0,0x1f
    6168:	02a587b3          	mul	a5,a1,a0
    616c:	02a506b3          	mul	a3,a0,a0
    6170:	02a53733          	mulhu	a4,a0,a0
    6174:	20e7a7b3          	sh1add	a5,a5,a4
    6178:	01079793          	slli	a5,a5,0x10
    617c:	0106d693          	srli	a3,a3,0x10
    6180:	00d786b3          	add	a3,a5,a3
    6184:	41f6d313          	srai	t1,a3,0x1f
    6188:	02d307b3          	mul	a5,t1,a3
    618c:	02d68733          	mul	a4,a3,a3
    6190:	02d6b633          	mulhu	a2,a3,a3
    6194:	20c7a7b3          	sh1add	a5,a5,a2
    6198:	01079793          	slli	a5,a5,0x10
    619c:	01075713          	srli	a4,a4,0x10
    61a0:	00e78733          	add	a4,a5,a4
    61a4:	41f75813          	srai	a6,a4,0x1f
    61a8:	010c1793          	slli	a5,s8,0x10
    61ac:	41f7d613          	srai	a2,a5,0x1f
    61b0:	0000be37          	lui	t3,0xb
    61b4:	172e0e13          	addi	t3,t3,370 # b172 <__muldf3+0x176>
    61b8:	03c60633          	mul	a2,a2,t3
    61bc:	03c788b3          	mul	a7,a5,t3
    61c0:	03c7b7b3          	mulhu	a5,a5,t3
    61c4:	00f60633          	add	a2,a2,a5
    61c8:	01061613          	slli	a2,a2,0x10
    61cc:	0108d793          	srli	a5,a7,0x10
    61d0:	00f607b3          	add	a5,a2,a5
    61d4:	00fb87b3          	add	a5,s7,a5
    61d8:	000028b7          	lui	a7,0x2
    61dc:	5e288893          	addi	a7,a7,1506 # 25e2 <inferenceTPG+0x1a92>
    61e0:	03180e33          	mul	t3,a6,a7
    61e4:	03170633          	mul	a2,a4,a7
    61e8:	031738b3          	mulhu	a7,a4,a7
    61ec:	011e08b3          	add	a7,t3,a7
    61f0:	01089893          	slli	a7,a7,0x10
    61f4:	01065613          	srli	a2,a2,0x10
    61f8:	00c88633          	add	a2,a7,a2
    61fc:	000038b7          	lui	a7,0x3
    6200:	e8d88893          	addi	a7,a7,-371 # 2e8d <inferenceTPG+0x233d>
    6204:	01160633          	add	a2,a2,a7
    6208:	41f65e13          	srai	t3,a2,0x1f
    620c:	02ee0e33          	mul	t3,t3,a4
    6210:	02c808b3          	mul	a7,a6,a2
    6214:	011e0e33          	add	t3,t3,a7
    6218:	02e608b3          	mul	a7,a2,a4
    621c:	02e63633          	mulhu	a2,a2,a4
    6220:	00ce0633          	add	a2,t3,a2
    6224:	01061613          	slli	a2,a2,0x10
    6228:	0108d893          	srli	a7,a7,0x10
    622c:	011608b3          	add	a7,a2,a7
    6230:	00005637          	lui	a2,0x5
    6234:	92560613          	addi	a2,a2,-1755 # 4925 <__heap_size+0x925>
    6238:	00c888b3          	add	a7,a7,a2
    623c:	41f8de13          	srai	t3,a7,0x1f
    6240:	02ee0e33          	mul	t3,t3,a4
    6244:	03180633          	mul	a2,a6,a7
    6248:	00ce0e33          	add	t3,t3,a2
    624c:	02e88633          	mul	a2,a7,a4
    6250:	02e8b8b3          	mulhu	a7,a7,a4
    6254:	011e08b3          	add	a7,t3,a7
    6258:	01089893          	slli	a7,a7,0x10
    625c:	01065613          	srli	a2,a2,0x10
    6260:	00c88633          	add	a2,a7,a2
    6264:	0000b8b7          	lui	a7,0xb
    6268:	aab88893          	addi	a7,a7,-1365 # aaab <__divdf3+0x27f>
    626c:	01160633          	add	a2,a2,a7
    6270:	41f65893          	srai	a7,a2,0x1f
    6274:	02d888b3          	mul	a7,a7,a3
    6278:	02c30333          	mul	t1,t1,a2
    627c:	00688333          	add	t1,a7,t1
    6280:	02d608b3          	mul	a7,a2,a3
    6284:	02d63633          	mulhu	a2,a2,a3
    6288:	00c306b3          	add	a3,t1,a2
    628c:	01069693          	slli	a3,a3,0x10
    6290:	0108d893          	srli	a7,a7,0x10
    6294:	011688b3          	add	a7,a3,a7
    6298:	000026b7          	lui	a3,0x2
    629c:	73468693          	addi	a3,a3,1844 # 2734 <inferenceTPG+0x1be4>
    62a0:	02d80333          	mul	t1,a6,a3
    62a4:	02d70633          	mul	a2,a4,a3
    62a8:	02d736b3          	mulhu	a3,a4,a3
    62ac:	00d306b3          	add	a3,t1,a3
    62b0:	01069693          	slli	a3,a3,0x10
    62b4:	01065613          	srli	a2,a2,0x10
    62b8:	00c68633          	add	a2,a3,a2
    62bc:	000046b7          	lui	a3,0x4
    62c0:	8e468693          	addi	a3,a3,-1820 # 38e4 <inferenceTPG+0x2d94>
    62c4:	00d60633          	add	a2,a2,a3
    62c8:	41f65313          	srai	t1,a2,0x1f
    62cc:	02e30333          	mul	t1,t1,a4
    62d0:	02c806b3          	mul	a3,a6,a2
    62d4:	00d30333          	add	t1,t1,a3
    62d8:	02e606b3          	mul	a3,a2,a4
    62dc:	02e63633          	mulhu	a2,a2,a4
    62e0:	00c30633          	add	a2,t1,a2
    62e4:	01061613          	slli	a2,a2,0x10
    62e8:	0106d693          	srli	a3,a3,0x10
    62ec:	00d606b3          	add	a3,a2,a3
    62f0:	00006637          	lui	a2,0x6
    62f4:	66660613          	addi	a2,a2,1638 # 6666 <__heap_size+0x2666>
    62f8:	00c686b3          	add	a3,a3,a2
    62fc:	41f6d613          	srai	a2,a3,0x1f
    6300:	02e60633          	mul	a2,a2,a4
    6304:	02d80833          	mul	a6,a6,a3
    6308:	01060633          	add	a2,a2,a6
    630c:	02e68833          	mul	a6,a3,a4
    6310:	02e6b6b3          	mulhu	a3,a3,a4
    6314:	00d60733          	add	a4,a2,a3
    6318:	01071713          	slli	a4,a4,0x10
    631c:	01085693          	srli	a3,a6,0x10
    6320:	00d706b3          	add	a3,a4,a3
    6324:	00d888b3          	add	a7,a7,a3
    6328:	411b8bb3          	sub	s7,s7,a7
    632c:	41fbd713          	srai	a4,s7,0x1f
    6330:	02a70733          	mul	a4,a4,a0
    6334:	037585b3          	mul	a1,a1,s7
    6338:	00b70733          	add	a4,a4,a1
    633c:	02ab86b3          	mul	a3,s7,a0
    6340:	02abbbb3          	mulhu	s7,s7,a0
    6344:	01770733          	add	a4,a4,s7
    6348:	01071713          	slli	a4,a4,0x10
    634c:	0106d693          	srli	a3,a3,0x10
    6350:	00d706b3          	add	a3,a4,a3
    6354:	40d78733          	sub	a4,a5,a3
    6358:	000d8a93          	mv	s5,s11
    635c:	08012d83          	lw	s11,128(sp)
    6360:	03512c23          	sw	s5,56(sp)
    6364:	41f75793          	srai	a5,a4,0x1f
    6368:	41fd5693          	srai	a3,s10,0x1f
    636c:	03a787b3          	mul	a5,a5,s10
    6370:	02e686b3          	mul	a3,a3,a4
    6374:	00d787b3          	add	a5,a5,a3
    6378:	03a706b3          	mul	a3,a4,s10
    637c:	03a73733          	mulhu	a4,a4,s10
    6380:	00e787b3          	add	a5,a5,a4
    6384:	01079793          	slli	a5,a5,0x10
    6388:	0106d713          	srli	a4,a3,0x10
    638c:	00e78733          	add	a4,a5,a4
    6390:	02e12e23          	sw	a4,60(sp)
    6394:	02c10713          	addi	a4,sp,44
    6398:	00000593          	li	a1,0
    639c:	00100793          	li	a5,1
    63a0:	00600613          	li	a2,6
    63a4:	0f00006f          	j	6494 <__heap_size+0x2494>
    63a8:	00000a93          	li	s5,0
    63ac:	8b9ff06f          	j	5c64 <__heap_size+0x1c64>
    63b0:	fff00b13          	li	s6,-1
    63b4:	ad1ff06f          	j	5e84 <__heap_size+0x1e84>
    63b8:	000657b7          	lui	a5,0x65
    63bc:	87e78793          	addi	a5,a5,-1922 # 6487e <_sp+0x3983e>
    63c0:	00f585b3          	add	a1,a1,a5
    63c4:	b15ff06f          	j	5ed8 <__heap_size+0x1ed8>
    63c8:	fffce7b7          	lui	a5,0xfffce
    63cc:	bc078793          	addi	a5,a5,-1088 # fffcdbc0 <_sp+0xfffa2b80>
    63d0:	00f587b3          	add	a5,a1,a5
    63d4:	00019737          	lui	a4,0x19
    63d8:	21f70713          	addi	a4,a4,543 # 1921f <heap.cpp.6b15d6f6+0x3b66>
    63dc:	00f76c63          	bltu	a4,a5,63f4 <__heap_size+0x23f4>
    63e0:	fffce7b7          	lui	a5,0xfffce
    63e4:	bc178793          	addi	a5,a5,-1087 # fffcdbc1 <_sp+0xfffa2b81>
    63e8:	00f585b3          	add	a1,a1,a5
    63ec:	fff00813          	li	a6,-1
    63f0:	b11ff06f          	j	5f00 <__heap_size+0x1f00>
    63f4:	0004b7b7          	lui	a5,0x4b
    63f8:	65f78793          	addi	a5,a5,1631 # 4b65f <_sp+0x2061f>
    63fc:	00100813          	li	a6,1
    6400:	b0b7d0e3          	bge	a5,a1,5f00 <__heap_size+0x1f00>
    6404:	000657b7          	lui	a5,0x65
    6408:	87e78793          	addi	a5,a5,-1922 # 6487e <_sp+0x3983e>
    640c:	40b785b3          	sub	a1,a5,a1
    6410:	fff00813          	li	a6,-1
    6414:	aedff06f          	j	5f00 <__heap_size+0x1f00>
    6418:	00d787b3          	add	a5,a5,a3
    641c:	b1dff06f          	j	5f38 <__heap_size+0x1f38>
    6420:	fffce737          	lui	a4,0xfffce
    6424:	bc070713          	addi	a4,a4,-1088 # fffcdbc0 <_sp+0xfffa2b80>
    6428:	00e78733          	add	a4,a5,a4
    642c:	000196b7          	lui	a3,0x19
    6430:	21f68693          	addi	a3,a3,543 # 1921f <heap.cpp.6b15d6f6+0x3b66>
    6434:	00e6ec63          	bltu	a3,a4,644c <__heap_size+0x244c>
    6438:	fffce737          	lui	a4,0xfffce
    643c:	bc170713          	addi	a4,a4,-1087 # fffcdbc1 <_sp+0xfffa2b81>
    6440:	00e787b3          	add	a5,a5,a4
    6444:	fff00513          	li	a0,-1
    6448:	b19ff06f          	j	5f60 <__heap_size+0x1f60>
    644c:	0004b737          	lui	a4,0x4b
    6450:	65f70713          	addi	a4,a4,1631 # 4b65f <_sp+0x2061f>
    6454:	00100513          	li	a0,1
    6458:	b0f754e3          	bge	a4,a5,5f60 <__heap_size+0x1f60>
    645c:	00065737          	lui	a4,0x65
    6460:	87e70713          	addi	a4,a4,-1922 # 6487e <_sp+0x3983e>
    6464:	40f707b3          	sub	a5,a4,a5
    6468:	fff00513          	li	a0,-1
    646c:	af5ff06f          	j	5f60 <__heap_size+0x1f60>
    6470:	00000c13          	li	s8,0
    6474:	cc5ff06f          	j	6138 <__heap_size+0x2138>
    6478:	00050a93          	mv	s5,a0
    647c:	00000713          	li	a4,0
    6480:	08012d83          	lw	s11,128(sp)
    6484:	eddff06f          	j	6360 <__heap_size+0x2360>
    6488:	00178793          	addi	a5,a5,1
    648c:	00470713          	addi	a4,a4,4
    6490:	00c78c63          	beq	a5,a2,64a8 <__heap_size+0x24a8>
    6494:	00072683          	lw	a3,0(a4)
    6498:	ff66c8e3          	blt	a3,s6,6488 <__heap_size+0x2488>
    649c:	00068b13          	mv	s6,a3
    64a0:	00078593          	mv	a1,a5
    64a4:	fe5ff06f          	j	6488 <__heap_size+0x2488>
    64a8:	00020737          	lui	a4,0x20
    64ac:	000207b7          	lui	a5,0x20
    64b0:	05478793          	addi	a5,a5,84 # 20054 <next.4>
    64b4:	20f5c5b3          	sh2add	a1,a1,a5
    64b8:	0005a783          	lw	a5,0(a1)
    64bc:	14470713          	addi	a4,a4,324 # 20144 <jump_table.23>
    64c0:	20e7c7b3          	sh2add	a5,a5,a4
    64c4:	0007a783          	lw	a5,0(a5)
    64c8:	ed4fa06f          	j	b9c <inferenceTPG+0x4c>
    64cc:	09b12023          	sw	s11,128(sp)
    64d0:	0004ac03          	lw	s8,0(s1)
    64d4:	41fc5793          	srai	a5,s8,0x1f
    64d8:	00f12423          	sw	a5,8(sp)
    64dc:	0009a783          	lw	a5,0(s3)
    64e0:	41f7db13          	srai	s6,a5,0x1f
    64e4:	038b0b33          	mul	s6,s6,s8
    64e8:	00812703          	lw	a4,8(sp)
    64ec:	02f70733          	mul	a4,a4,a5
    64f0:	00eb0b33          	add	s6,s6,a4
    64f4:	03878733          	mul	a4,a5,s8
    64f8:	0387b7b3          	mulhu	a5,a5,s8
    64fc:	00fb0b33          	add	s6,s6,a5
    6500:	010b1b13          	slli	s6,s6,0x10
    6504:	01075793          	srli	a5,a4,0x10
    6508:	00fb0b33          	add	s6,s6,a5
    650c:	05612e23          	sw	s6,92(sp)
    6510:	01492683          	lw	a3,20(s2)
    6514:	00000593          	li	a1,0
    6518:	2406c063          	bltz	a3,6758 <__heap_size+0x2758>
    651c:	44068ae3          	beqz	a3,7170 <__heap_size+0x3170>
    6520:	000207b7          	lui	a5,0x20
    6524:	44d7d2e3          	bge	a5,a3,7168 <__heap_size+0x3168>
    6528:	00000a93          	li	s5,0
    652c:	4016d693          	srai	a3,a3,0x1
    6530:	001a8a93          	addi	s5,s5,1
    6534:	fed7cce3          	blt	a5,a3,652c <__heap_size+0x252c>
    6538:	ffff0bb7          	lui	s7,0xffff0
    653c:	01768bb3          	add	s7,a3,s7
    6540:	41fbd793          	srai	a5,s7,0x1f
    6544:	010bd593          	srli	a1,s7,0x10
    6548:	01079793          	slli	a5,a5,0x10
    654c:	00010737          	lui	a4,0x10
    6550:	00e68633          	add	a2,a3,a4
    6554:	41f65693          	srai	a3,a2,0x1f
    6558:	010b9513          	slli	a0,s7,0x10
    655c:	00f585b3          	add	a1,a1,a5
    6560:	075050ef          	jal	bdd4 <__divdi3>
    6564:	41f55613          	srai	a2,a0,0x1f
    6568:	02a607b3          	mul	a5,a2,a0
    656c:	02a50733          	mul	a4,a0,a0
    6570:	02a536b3          	mulhu	a3,a0,a0
    6574:	20d7a7b3          	sh1add	a5,a5,a3
    6578:	01079793          	slli	a5,a5,0x10
    657c:	01075713          	srli	a4,a4,0x10
    6580:	00e78733          	add	a4,a5,a4
    6584:	41f75313          	srai	t1,a4,0x1f
    6588:	02e306b3          	mul	a3,t1,a4
    658c:	02e707b3          	mul	a5,a4,a4
    6590:	02e735b3          	mulhu	a1,a4,a4
    6594:	20b6a6b3          	sh1add	a3,a3,a1
    6598:	01069693          	slli	a3,a3,0x10
    659c:	0107d793          	srli	a5,a5,0x10
    65a0:	00f687b3          	add	a5,a3,a5
    65a4:	41f7d813          	srai	a6,a5,0x1f
    65a8:	010a9a93          	slli	s5,s5,0x10
    65ac:	41fad693          	srai	a3,s5,0x1f
    65b0:	0000b8b7          	lui	a7,0xb
    65b4:	17288893          	addi	a7,a7,370 # b172 <__muldf3+0x176>
    65b8:	031686b3          	mul	a3,a3,a7
    65bc:	031a85b3          	mul	a1,s5,a7
    65c0:	031abab3          	mulhu	s5,s5,a7
    65c4:	015686b3          	add	a3,a3,s5
    65c8:	01069693          	slli	a3,a3,0x10
    65cc:	0105d593          	srli	a1,a1,0x10
    65d0:	00b685b3          	add	a1,a3,a1
    65d4:	00bb85b3          	add	a1,s7,a1
    65d8:	000028b7          	lui	a7,0x2
    65dc:	5e288893          	addi	a7,a7,1506 # 25e2 <inferenceTPG+0x1a92>
    65e0:	03180e33          	mul	t3,a6,a7
    65e4:	031786b3          	mul	a3,a5,a7
    65e8:	0317b8b3          	mulhu	a7,a5,a7
    65ec:	011e08b3          	add	a7,t3,a7
    65f0:	01089893          	slli	a7,a7,0x10
    65f4:	0106d693          	srli	a3,a3,0x10
    65f8:	00d886b3          	add	a3,a7,a3
    65fc:	000038b7          	lui	a7,0x3
    6600:	e8d88893          	addi	a7,a7,-371 # 2e8d <inferenceTPG+0x233d>
    6604:	011686b3          	add	a3,a3,a7
    6608:	41f6de13          	srai	t3,a3,0x1f
    660c:	02fe0e33          	mul	t3,t3,a5
    6610:	02d808b3          	mul	a7,a6,a3
    6614:	011e0e33          	add	t3,t3,a7
    6618:	02f688b3          	mul	a7,a3,a5
    661c:	02f6b6b3          	mulhu	a3,a3,a5
    6620:	00de06b3          	add	a3,t3,a3
    6624:	01069693          	slli	a3,a3,0x10
    6628:	0108d893          	srli	a7,a7,0x10
    662c:	011688b3          	add	a7,a3,a7
    6630:	000056b7          	lui	a3,0x5
    6634:	92568693          	addi	a3,a3,-1755 # 4925 <__heap_size+0x925>
    6638:	00d888b3          	add	a7,a7,a3
    663c:	41f8de13          	srai	t3,a7,0x1f
    6640:	02fe0e33          	mul	t3,t3,a5
    6644:	031806b3          	mul	a3,a6,a7
    6648:	00de0e33          	add	t3,t3,a3
    664c:	02f886b3          	mul	a3,a7,a5
    6650:	02f8b8b3          	mulhu	a7,a7,a5
    6654:	011e08b3          	add	a7,t3,a7
    6658:	01089893          	slli	a7,a7,0x10
    665c:	0106d693          	srli	a3,a3,0x10
    6660:	00d886b3          	add	a3,a7,a3
    6664:	0000b8b7          	lui	a7,0xb
    6668:	aab88893          	addi	a7,a7,-1365 # aaab <__divdf3+0x27f>
    666c:	011686b3          	add	a3,a3,a7
    6670:	41f6d893          	srai	a7,a3,0x1f
    6674:	02e888b3          	mul	a7,a7,a4
    6678:	02d30333          	mul	t1,t1,a3
    667c:	00688333          	add	t1,a7,t1
    6680:	02e688b3          	mul	a7,a3,a4
    6684:	02e6b6b3          	mulhu	a3,a3,a4
    6688:	00d30733          	add	a4,t1,a3
    668c:	01071713          	slli	a4,a4,0x10
    6690:	0108d893          	srli	a7,a7,0x10
    6694:	011708b3          	add	a7,a4,a7
    6698:	00002737          	lui	a4,0x2
    669c:	73470713          	addi	a4,a4,1844 # 2734 <inferenceTPG+0x1be4>
    66a0:	02e80333          	mul	t1,a6,a4
    66a4:	02e786b3          	mul	a3,a5,a4
    66a8:	02e7b733          	mulhu	a4,a5,a4
    66ac:	00e30733          	add	a4,t1,a4
    66b0:	01071713          	slli	a4,a4,0x10
    66b4:	0106d693          	srli	a3,a3,0x10
    66b8:	00d706b3          	add	a3,a4,a3
    66bc:	00004737          	lui	a4,0x4
    66c0:	8e470713          	addi	a4,a4,-1820 # 38e4 <inferenceTPG+0x2d94>
    66c4:	00e686b3          	add	a3,a3,a4
    66c8:	41f6d313          	srai	t1,a3,0x1f
    66cc:	02f30333          	mul	t1,t1,a5
    66d0:	02d80733          	mul	a4,a6,a3
    66d4:	00e30333          	add	t1,t1,a4
    66d8:	02f68733          	mul	a4,a3,a5
    66dc:	02f6b6b3          	mulhu	a3,a3,a5
    66e0:	00d306b3          	add	a3,t1,a3
    66e4:	01069693          	slli	a3,a3,0x10
    66e8:	01075713          	srli	a4,a4,0x10
    66ec:	00e68733          	add	a4,a3,a4
    66f0:	000066b7          	lui	a3,0x6
    66f4:	66668693          	addi	a3,a3,1638 # 6666 <__heap_size+0x2666>
    66f8:	00d70733          	add	a4,a4,a3
    66fc:	41f75693          	srai	a3,a4,0x1f
    6700:	02f686b3          	mul	a3,a3,a5
    6704:	02e80833          	mul	a6,a6,a4
    6708:	010686b3          	add	a3,a3,a6
    670c:	02f70833          	mul	a6,a4,a5
    6710:	02f73733          	mulhu	a4,a4,a5
    6714:	00e687b3          	add	a5,a3,a4
    6718:	01079793          	slli	a5,a5,0x10
    671c:	01085713          	srli	a4,a6,0x10
    6720:	00e78733          	add	a4,a5,a4
    6724:	00e888b3          	add	a7,a7,a4
    6728:	411b8bb3          	sub	s7,s7,a7
    672c:	41fbd793          	srai	a5,s7,0x1f
    6730:	02a787b3          	mul	a5,a5,a0
    6734:	03760633          	mul	a2,a2,s7
    6738:	00c787b3          	add	a5,a5,a2
    673c:	02ab8733          	mul	a4,s7,a0
    6740:	02abbbb3          	mulhu	s7,s7,a0
    6744:	017787b3          	add	a5,a5,s7
    6748:	01079793          	slli	a5,a5,0x10
    674c:	01075713          	srli	a4,a4,0x10
    6750:	00e78733          	add	a4,a5,a4
    6754:	40e585b3          	sub	a1,a1,a4
    6758:	06b12023          	sw	a1,96(sp)
    675c:	00092783          	lw	a5,0(s2)
    6760:	00078d13          	mv	s10,a5
    6764:	0084aa83          	lw	s5,8(s1)
    6768:	340a88e3          	beqz	s5,72b8 <__heap_size+0x32b8>
    676c:	41f7d793          	srai	a5,a5,0x1f
    6770:	010d5593          	srli	a1,s10,0x10
    6774:	01079793          	slli	a5,a5,0x10
    6778:	000a8613          	mv	a2,s5
    677c:	41fad693          	srai	a3,s5,0x1f
    6780:	010d1513          	slli	a0,s10,0x10
    6784:	00f585b3          	add	a1,a1,a5
    6788:	64c050ef          	jal	bdd4 <__divdi3>
    678c:	06a12223          	sw	a0,100(sp)
    6790:	0044a503          	lw	a0,4(s1)
    6794:	300544e3          	bltz	a0,729c <__heap_size+0x329c>
    6798:	38050ee3          	beqz	a0,7334 <__heap_size+0x3334>
    679c:	000207b7          	lui	a5,0x20
    67a0:	1ca7dce3          	bge	a5,a0,7178 <__heap_size+0x3178>
    67a4:	00000b93          	li	s7,0
    67a8:	40155513          	srai	a0,a0,0x1
    67ac:	001b8b93          	addi	s7,s7,1 # ffff0001 <_sp+0xfffc4fc1>
    67b0:	fea7cce3          	blt	a5,a0,67a8 <__heap_size+0x27a8>
    67b4:	ffff07b7          	lui	a5,0xffff0
    67b8:	00f507b3          	add	a5,a0,a5
    67bc:	00078d93          	mv	s11,a5
    67c0:	41f7d793          	srai	a5,a5,0x1f
    67c4:	010dd593          	srli	a1,s11,0x10
    67c8:	01079793          	slli	a5,a5,0x10
    67cc:	00010737          	lui	a4,0x10
    67d0:	00e50633          	add	a2,a0,a4
    67d4:	41f65693          	srai	a3,a2,0x1f
    67d8:	010d9513          	slli	a0,s11,0x10
    67dc:	00f585b3          	add	a1,a1,a5
    67e0:	5f4050ef          	jal	bdd4 <__divdi3>
    67e4:	41f55613          	srai	a2,a0,0x1f
    67e8:	02a607b3          	mul	a5,a2,a0
    67ec:	02a50733          	mul	a4,a0,a0
    67f0:	02a536b3          	mulhu	a3,a0,a0
    67f4:	20d7a7b3          	sh1add	a5,a5,a3
    67f8:	01079793          	slli	a5,a5,0x10
    67fc:	01075713          	srli	a4,a4,0x10
    6800:	00e78733          	add	a4,a5,a4
    6804:	41f75313          	srai	t1,a4,0x1f
    6808:	02e306b3          	mul	a3,t1,a4
    680c:	02e707b3          	mul	a5,a4,a4
    6810:	02e735b3          	mulhu	a1,a4,a4
    6814:	20b6a6b3          	sh1add	a3,a3,a1
    6818:	01069693          	slli	a3,a3,0x10
    681c:	0107d793          	srli	a5,a5,0x10
    6820:	00f687b3          	add	a5,a3,a5
    6824:	41f7d813          	srai	a6,a5,0x1f
    6828:	010b9b93          	slli	s7,s7,0x10
    682c:	41fbd693          	srai	a3,s7,0x1f
    6830:	0000b8b7          	lui	a7,0xb
    6834:	17288893          	addi	a7,a7,370 # b172 <__muldf3+0x176>
    6838:	031686b3          	mul	a3,a3,a7
    683c:	031b85b3          	mul	a1,s7,a7
    6840:	031bbbb3          	mulhu	s7,s7,a7
    6844:	017686b3          	add	a3,a3,s7
    6848:	01069693          	slli	a3,a3,0x10
    684c:	0105d593          	srli	a1,a1,0x10
    6850:	00b685b3          	add	a1,a3,a1
    6854:	00bd85b3          	add	a1,s11,a1
    6858:	000028b7          	lui	a7,0x2
    685c:	5e288893          	addi	a7,a7,1506 # 25e2 <inferenceTPG+0x1a92>
    6860:	03180e33          	mul	t3,a6,a7
    6864:	031786b3          	mul	a3,a5,a7
    6868:	0317b8b3          	mulhu	a7,a5,a7
    686c:	011e08b3          	add	a7,t3,a7
    6870:	01089893          	slli	a7,a7,0x10
    6874:	0106d693          	srli	a3,a3,0x10
    6878:	00d886b3          	add	a3,a7,a3
    687c:	000038b7          	lui	a7,0x3
    6880:	e8d88893          	addi	a7,a7,-371 # 2e8d <inferenceTPG+0x233d>
    6884:	011686b3          	add	a3,a3,a7
    6888:	41f6de13          	srai	t3,a3,0x1f
    688c:	02fe0e33          	mul	t3,t3,a5
    6890:	02d808b3          	mul	a7,a6,a3
    6894:	011e0e33          	add	t3,t3,a7
    6898:	02f688b3          	mul	a7,a3,a5
    689c:	02f6b6b3          	mulhu	a3,a3,a5
    68a0:	00de06b3          	add	a3,t3,a3
    68a4:	01069693          	slli	a3,a3,0x10
    68a8:	0108d893          	srli	a7,a7,0x10
    68ac:	011688b3          	add	a7,a3,a7
    68b0:	000056b7          	lui	a3,0x5
    68b4:	92568693          	addi	a3,a3,-1755 # 4925 <__heap_size+0x925>
    68b8:	00d888b3          	add	a7,a7,a3
    68bc:	41f8de13          	srai	t3,a7,0x1f
    68c0:	02fe0e33          	mul	t3,t3,a5
    68c4:	031806b3          	mul	a3,a6,a7
    68c8:	00de0e33          	add	t3,t3,a3
    68cc:	02f886b3          	mul	a3,a7,a5
    68d0:	02f8b8b3          	mulhu	a7,a7,a5
    68d4:	011e08b3          	add	a7,t3,a7
    68d8:	01089893          	slli	a7,a7,0x10
    68dc:	0106d693          	srli	a3,a3,0x10
    68e0:	00d886b3          	add	a3,a7,a3
    68e4:	0000b8b7          	lui	a7,0xb
    68e8:	aab88893          	addi	a7,a7,-1365 # aaab <__divdf3+0x27f>
    68ec:	011686b3          	add	a3,a3,a7
    68f0:	41f6d893          	srai	a7,a3,0x1f
    68f4:	02e888b3          	mul	a7,a7,a4
    68f8:	02d30333          	mul	t1,t1,a3
    68fc:	00688333          	add	t1,a7,t1
    6900:	02e688b3          	mul	a7,a3,a4
    6904:	02e6b6b3          	mulhu	a3,a3,a4
    6908:	00d30733          	add	a4,t1,a3
    690c:	01071713          	slli	a4,a4,0x10
    6910:	0108d893          	srli	a7,a7,0x10
    6914:	011708b3          	add	a7,a4,a7
    6918:	00002737          	lui	a4,0x2
    691c:	73470713          	addi	a4,a4,1844 # 2734 <inferenceTPG+0x1be4>
    6920:	02e80333          	mul	t1,a6,a4
    6924:	02e786b3          	mul	a3,a5,a4
    6928:	02e7b733          	mulhu	a4,a5,a4
    692c:	00e30733          	add	a4,t1,a4
    6930:	01071713          	slli	a4,a4,0x10
    6934:	0106d693          	srli	a3,a3,0x10
    6938:	00d706b3          	add	a3,a4,a3
    693c:	00004737          	lui	a4,0x4
    6940:	8e470713          	addi	a4,a4,-1820 # 38e4 <inferenceTPG+0x2d94>
    6944:	00e686b3          	add	a3,a3,a4
    6948:	41f6d313          	srai	t1,a3,0x1f
    694c:	02f30333          	mul	t1,t1,a5
    6950:	02d80733          	mul	a4,a6,a3
    6954:	00e30333          	add	t1,t1,a4
    6958:	02f68733          	mul	a4,a3,a5
    695c:	02f6b6b3          	mulhu	a3,a3,a5
    6960:	00d306b3          	add	a3,t1,a3
    6964:	01069693          	slli	a3,a3,0x10
    6968:	01075713          	srli	a4,a4,0x10
    696c:	00e68733          	add	a4,a3,a4
    6970:	000066b7          	lui	a3,0x6
    6974:	66668693          	addi	a3,a3,1638 # 6666 <__heap_size+0x2666>
    6978:	00d70733          	add	a4,a4,a3
    697c:	41f75693          	srai	a3,a4,0x1f
    6980:	02f686b3          	mul	a3,a3,a5
    6984:	02e80833          	mul	a6,a6,a4
    6988:	010686b3          	add	a3,a3,a6
    698c:	02f70833          	mul	a6,a4,a5
    6990:	02f73733          	mulhu	a4,a4,a5
    6994:	00e687b3          	add	a5,a3,a4
    6998:	01079793          	slli	a5,a5,0x10
    699c:	01085713          	srli	a4,a6,0x10
    69a0:	00e78733          	add	a4,a5,a4
    69a4:	00e888b3          	add	a7,a7,a4
    69a8:	411d87b3          	sub	a5,s11,a7
    69ac:	41f7d713          	srai	a4,a5,0x1f
    69b0:	02a70733          	mul	a4,a4,a0
    69b4:	02f60633          	mul	a2,a2,a5
    69b8:	00c70733          	add	a4,a4,a2
    69bc:	02a786b3          	mul	a3,a5,a0
    69c0:	02a7b7b3          	mulhu	a5,a5,a0
    69c4:	00f707b3          	add	a5,a4,a5
    69c8:	01079793          	slli	a5,a5,0x10
    69cc:	0106d713          	srli	a4,a3,0x10
    69d0:	00e78733          	add	a4,a5,a4
    69d4:	40e585b3          	sub	a1,a1,a4
    69d8:	0049a783          	lw	a5,4(s3)
    69dc:	00f585b3          	add	a1,a1,a5
    69e0:	06b12423          	sw	a1,104(sp)
    69e4:	0c0a86e3          	beqz	s5,72b0 <__heap_size+0x32b0>
    69e8:	010c5593          	srli	a1,s8,0x10
    69ec:	00812783          	lw	a5,8(sp)
    69f0:	01079793          	slli	a5,a5,0x10
    69f4:	000a8613          	mv	a2,s5
    69f8:	41fad693          	srai	a3,s5,0x1f
    69fc:	010c1513          	slli	a0,s8,0x10
    6a00:	00f585b3          	add	a1,a1,a5
    6a04:	3d0050ef          	jal	bdd4 <__divdi3>
    6a08:	06a12623          	sw	a0,108(sp)
    6a0c:	0089a683          	lw	a3,8(s3)
    6a10:	00000713          	li	a4,0
    6a14:	2406c263          	bltz	a3,6c58 <__heap_size+0x2c58>
    6a18:	76068863          	beqz	a3,7188 <__heap_size+0x3188>
    6a1c:	000207b7          	lui	a5,0x20
    6a20:	76d7d063          	bge	a5,a3,7180 <__heap_size+0x3180>
    6a24:	00000b93          	li	s7,0
    6a28:	4016d693          	srai	a3,a3,0x1
    6a2c:	001b8b93          	addi	s7,s7,1
    6a30:	fed7cce3          	blt	a5,a3,6a28 <__heap_size+0x2a28>
    6a34:	ffff07b7          	lui	a5,0xffff0
    6a38:	00f687b3          	add	a5,a3,a5
    6a3c:	00078d93          	mv	s11,a5
    6a40:	41f7d793          	srai	a5,a5,0x1f
    6a44:	010dd593          	srli	a1,s11,0x10
    6a48:	01079793          	slli	a5,a5,0x10
    6a4c:	00010737          	lui	a4,0x10
    6a50:	00e68633          	add	a2,a3,a4
    6a54:	41f65693          	srai	a3,a2,0x1f
    6a58:	010d9513          	slli	a0,s11,0x10
    6a5c:	00f585b3          	add	a1,a1,a5
    6a60:	374050ef          	jal	bdd4 <__divdi3>
    6a64:	41f55593          	srai	a1,a0,0x1f
    6a68:	02a587b3          	mul	a5,a1,a0
    6a6c:	02a506b3          	mul	a3,a0,a0
    6a70:	02a53733          	mulhu	a4,a0,a0
    6a74:	20e7a7b3          	sh1add	a5,a5,a4
    6a78:	01079793          	slli	a5,a5,0x10
    6a7c:	0106d693          	srli	a3,a3,0x10
    6a80:	00d786b3          	add	a3,a5,a3
    6a84:	41f6d313          	srai	t1,a3,0x1f
    6a88:	02d30733          	mul	a4,t1,a3
    6a8c:	02d687b3          	mul	a5,a3,a3
    6a90:	02d6b633          	mulhu	a2,a3,a3
    6a94:	20c72733          	sh1add	a4,a4,a2
    6a98:	01071713          	slli	a4,a4,0x10
    6a9c:	0107d793          	srli	a5,a5,0x10
    6aa0:	00f707b3          	add	a5,a4,a5
    6aa4:	41f7d813          	srai	a6,a5,0x1f
    6aa8:	010b9b93          	slli	s7,s7,0x10
    6aac:	41fbd613          	srai	a2,s7,0x1f
    6ab0:	0000b8b7          	lui	a7,0xb
    6ab4:	17288893          	addi	a7,a7,370 # b172 <__muldf3+0x176>
    6ab8:	03160633          	mul	a2,a2,a7
    6abc:	031b8733          	mul	a4,s7,a7
    6ac0:	031bbbb3          	mulhu	s7,s7,a7
    6ac4:	01760633          	add	a2,a2,s7
    6ac8:	01061613          	slli	a2,a2,0x10
    6acc:	01075713          	srli	a4,a4,0x10
    6ad0:	00e60733          	add	a4,a2,a4
    6ad4:	00ed8733          	add	a4,s11,a4
    6ad8:	000028b7          	lui	a7,0x2
    6adc:	5e288893          	addi	a7,a7,1506 # 25e2 <inferenceTPG+0x1a92>
    6ae0:	03180e33          	mul	t3,a6,a7
    6ae4:	03178633          	mul	a2,a5,a7
    6ae8:	0317b8b3          	mulhu	a7,a5,a7
    6aec:	011e08b3          	add	a7,t3,a7
    6af0:	01089893          	slli	a7,a7,0x10
    6af4:	01065613          	srli	a2,a2,0x10
    6af8:	00c88633          	add	a2,a7,a2
    6afc:	000038b7          	lui	a7,0x3
    6b00:	e8d88893          	addi	a7,a7,-371 # 2e8d <inferenceTPG+0x233d>
    6b04:	01160633          	add	a2,a2,a7
    6b08:	41f65e13          	srai	t3,a2,0x1f
    6b0c:	02fe0e33          	mul	t3,t3,a5
    6b10:	02c808b3          	mul	a7,a6,a2
    6b14:	011e0e33          	add	t3,t3,a7
    6b18:	02f608b3          	mul	a7,a2,a5
    6b1c:	02f63633          	mulhu	a2,a2,a5
    6b20:	00ce0633          	add	a2,t3,a2
    6b24:	01061613          	slli	a2,a2,0x10
    6b28:	0108d893          	srli	a7,a7,0x10
    6b2c:	011608b3          	add	a7,a2,a7
    6b30:	00005637          	lui	a2,0x5
    6b34:	92560613          	addi	a2,a2,-1755 # 4925 <__heap_size+0x925>
    6b38:	00c888b3          	add	a7,a7,a2
    6b3c:	41f8de13          	srai	t3,a7,0x1f
    6b40:	02fe0e33          	mul	t3,t3,a5
    6b44:	03180633          	mul	a2,a6,a7
    6b48:	00ce0e33          	add	t3,t3,a2
    6b4c:	02f88633          	mul	a2,a7,a5
    6b50:	02f8b8b3          	mulhu	a7,a7,a5
    6b54:	011e08b3          	add	a7,t3,a7
    6b58:	01089893          	slli	a7,a7,0x10
    6b5c:	01065613          	srli	a2,a2,0x10
    6b60:	00c88633          	add	a2,a7,a2
    6b64:	0000b8b7          	lui	a7,0xb
    6b68:	aab88893          	addi	a7,a7,-1365 # aaab <__divdf3+0x27f>
    6b6c:	01160633          	add	a2,a2,a7
    6b70:	41f65893          	srai	a7,a2,0x1f
    6b74:	02d888b3          	mul	a7,a7,a3
    6b78:	02c30333          	mul	t1,t1,a2
    6b7c:	00688333          	add	t1,a7,t1
    6b80:	02d608b3          	mul	a7,a2,a3
    6b84:	02d63633          	mulhu	a2,a2,a3
    6b88:	00c306b3          	add	a3,t1,a2
    6b8c:	01069693          	slli	a3,a3,0x10
    6b90:	0108d893          	srli	a7,a7,0x10
    6b94:	011688b3          	add	a7,a3,a7
    6b98:	000026b7          	lui	a3,0x2
    6b9c:	73468693          	addi	a3,a3,1844 # 2734 <inferenceTPG+0x1be4>
    6ba0:	02d80333          	mul	t1,a6,a3
    6ba4:	02d78633          	mul	a2,a5,a3
    6ba8:	02d7b6b3          	mulhu	a3,a5,a3
    6bac:	00d306b3          	add	a3,t1,a3
    6bb0:	01069693          	slli	a3,a3,0x10
    6bb4:	01065613          	srli	a2,a2,0x10
    6bb8:	00c68633          	add	a2,a3,a2
    6bbc:	000046b7          	lui	a3,0x4
    6bc0:	8e468693          	addi	a3,a3,-1820 # 38e4 <inferenceTPG+0x2d94>
    6bc4:	00d60633          	add	a2,a2,a3
    6bc8:	41f65313          	srai	t1,a2,0x1f
    6bcc:	02f30333          	mul	t1,t1,a5
    6bd0:	02c806b3          	mul	a3,a6,a2
    6bd4:	00d30333          	add	t1,t1,a3
    6bd8:	02f606b3          	mul	a3,a2,a5
    6bdc:	02f63633          	mulhu	a2,a2,a5
    6be0:	00c30633          	add	a2,t1,a2
    6be4:	01061613          	slli	a2,a2,0x10
    6be8:	0106d693          	srli	a3,a3,0x10
    6bec:	00d606b3          	add	a3,a2,a3
    6bf0:	00006637          	lui	a2,0x6
    6bf4:	66660613          	addi	a2,a2,1638 # 6666 <__heap_size+0x2666>
    6bf8:	00c686b3          	add	a3,a3,a2
    6bfc:	41f6d613          	srai	a2,a3,0x1f
    6c00:	02f60633          	mul	a2,a2,a5
    6c04:	02d80833          	mul	a6,a6,a3
    6c08:	01060633          	add	a2,a2,a6
    6c0c:	02f68833          	mul	a6,a3,a5
    6c10:	02f6b6b3          	mulhu	a3,a3,a5
    6c14:	00d607b3          	add	a5,a2,a3
    6c18:	01079793          	slli	a5,a5,0x10
    6c1c:	01085693          	srli	a3,a6,0x10
    6c20:	00d786b3          	add	a3,a5,a3
    6c24:	00d888b3          	add	a7,a7,a3
    6c28:	411d87b3          	sub	a5,s11,a7
    6c2c:	41f7d693          	srai	a3,a5,0x1f
    6c30:	02a686b3          	mul	a3,a3,a0
    6c34:	02f585b3          	mul	a1,a1,a5
    6c38:	00b686b3          	add	a3,a3,a1
    6c3c:	02a78633          	mul	a2,a5,a0
    6c40:	02a7b7b3          	mulhu	a5,a5,a0
    6c44:	00f687b3          	add	a5,a3,a5
    6c48:	01079793          	slli	a5,a5,0x10
    6c4c:	01065693          	srli	a3,a2,0x10
    6c50:	00d786b3          	add	a3,a5,a3
    6c54:	40d70733          	sub	a4,a4,a3
    6c58:	0aec6733          	max	a4,s8,a4
    6c5c:	06e12823          	sw	a4,112(sp)
    6c60:	008a2683          	lw	a3,8(s4)
    6c64:	00000593          	li	a1,0
    6c68:	2406c263          	bltz	a3,6eac <__heap_size+0x2eac>
    6c6c:	52068663          	beqz	a3,7198 <__heap_size+0x3198>
    6c70:	000207b7          	lui	a5,0x20
    6c74:	50d7de63          	bge	a5,a3,7190 <__heap_size+0x3190>
    6c78:	00000b93          	li	s7,0
    6c7c:	4016d693          	srai	a3,a3,0x1
    6c80:	001b8b93          	addi	s7,s7,1
    6c84:	fed7cce3          	blt	a5,a3,6c7c <__heap_size+0x2c7c>
    6c88:	ffff07b7          	lui	a5,0xffff0
    6c8c:	00f687b3          	add	a5,a3,a5
    6c90:	00078d93          	mv	s11,a5
    6c94:	41f7d793          	srai	a5,a5,0x1f
    6c98:	010dd593          	srli	a1,s11,0x10
    6c9c:	01079793          	slli	a5,a5,0x10
    6ca0:	00010737          	lui	a4,0x10
    6ca4:	00e68633          	add	a2,a3,a4
    6ca8:	41f65693          	srai	a3,a2,0x1f
    6cac:	010d9513          	slli	a0,s11,0x10
    6cb0:	00f585b3          	add	a1,a1,a5
    6cb4:	120050ef          	jal	bdd4 <__divdi3>
    6cb8:	41f55613          	srai	a2,a0,0x1f
    6cbc:	02a607b3          	mul	a5,a2,a0
    6cc0:	02a50733          	mul	a4,a0,a0
    6cc4:	02a536b3          	mulhu	a3,a0,a0
    6cc8:	20d7a7b3          	sh1add	a5,a5,a3
    6ccc:	01079793          	slli	a5,a5,0x10
    6cd0:	01075713          	srli	a4,a4,0x10
    6cd4:	00e78733          	add	a4,a5,a4
    6cd8:	41f75313          	srai	t1,a4,0x1f
    6cdc:	02e306b3          	mul	a3,t1,a4
    6ce0:	02e707b3          	mul	a5,a4,a4
    6ce4:	02e735b3          	mulhu	a1,a4,a4
    6ce8:	20b6a6b3          	sh1add	a3,a3,a1
    6cec:	01069693          	slli	a3,a3,0x10
    6cf0:	0107d793          	srli	a5,a5,0x10
    6cf4:	00f687b3          	add	a5,a3,a5
    6cf8:	41f7d813          	srai	a6,a5,0x1f
    6cfc:	010b9b93          	slli	s7,s7,0x10
    6d00:	41fbd693          	srai	a3,s7,0x1f
    6d04:	0000b8b7          	lui	a7,0xb
    6d08:	17288893          	addi	a7,a7,370 # b172 <__muldf3+0x176>
    6d0c:	031686b3          	mul	a3,a3,a7
    6d10:	031b85b3          	mul	a1,s7,a7
    6d14:	031bbbb3          	mulhu	s7,s7,a7
    6d18:	017686b3          	add	a3,a3,s7
    6d1c:	01069693          	slli	a3,a3,0x10
    6d20:	0105d593          	srli	a1,a1,0x10
    6d24:	00b685b3          	add	a1,a3,a1
    6d28:	00bd85b3          	add	a1,s11,a1
    6d2c:	000028b7          	lui	a7,0x2
    6d30:	5e288893          	addi	a7,a7,1506 # 25e2 <inferenceTPG+0x1a92>
    6d34:	03180e33          	mul	t3,a6,a7
    6d38:	031786b3          	mul	a3,a5,a7
    6d3c:	0317b8b3          	mulhu	a7,a5,a7
    6d40:	011e08b3          	add	a7,t3,a7
    6d44:	01089893          	slli	a7,a7,0x10
    6d48:	0106d693          	srli	a3,a3,0x10
    6d4c:	00d886b3          	add	a3,a7,a3
    6d50:	000038b7          	lui	a7,0x3
    6d54:	e8d88893          	addi	a7,a7,-371 # 2e8d <inferenceTPG+0x233d>
    6d58:	011686b3          	add	a3,a3,a7
    6d5c:	41f6de13          	srai	t3,a3,0x1f
    6d60:	02fe0e33          	mul	t3,t3,a5
    6d64:	02d808b3          	mul	a7,a6,a3
    6d68:	011e0e33          	add	t3,t3,a7
    6d6c:	02f688b3          	mul	a7,a3,a5
    6d70:	02f6b6b3          	mulhu	a3,a3,a5
    6d74:	00de06b3          	add	a3,t3,a3
    6d78:	01069693          	slli	a3,a3,0x10
    6d7c:	0108d893          	srli	a7,a7,0x10
    6d80:	011688b3          	add	a7,a3,a7
    6d84:	000056b7          	lui	a3,0x5
    6d88:	92568693          	addi	a3,a3,-1755 # 4925 <__heap_size+0x925>
    6d8c:	00d888b3          	add	a7,a7,a3
    6d90:	41f8de13          	srai	t3,a7,0x1f
    6d94:	02fe0e33          	mul	t3,t3,a5
    6d98:	031806b3          	mul	a3,a6,a7
    6d9c:	00de0e33          	add	t3,t3,a3
    6da0:	02f886b3          	mul	a3,a7,a5
    6da4:	02f8b8b3          	mulhu	a7,a7,a5
    6da8:	011e08b3          	add	a7,t3,a7
    6dac:	01089893          	slli	a7,a7,0x10
    6db0:	0106d693          	srli	a3,a3,0x10
    6db4:	00d886b3          	add	a3,a7,a3
    6db8:	0000b8b7          	lui	a7,0xb
    6dbc:	aab88893          	addi	a7,a7,-1365 # aaab <__divdf3+0x27f>
    6dc0:	011686b3          	add	a3,a3,a7
    6dc4:	41f6d893          	srai	a7,a3,0x1f
    6dc8:	02e888b3          	mul	a7,a7,a4
    6dcc:	02d30333          	mul	t1,t1,a3
    6dd0:	00688333          	add	t1,a7,t1
    6dd4:	02e688b3          	mul	a7,a3,a4
    6dd8:	02e6b6b3          	mulhu	a3,a3,a4
    6ddc:	00d30733          	add	a4,t1,a3
    6de0:	01071713          	slli	a4,a4,0x10
    6de4:	0108d893          	srli	a7,a7,0x10
    6de8:	011708b3          	add	a7,a4,a7
    6dec:	00002737          	lui	a4,0x2
    6df0:	73470713          	addi	a4,a4,1844 # 2734 <inferenceTPG+0x1be4>
    6df4:	02e80333          	mul	t1,a6,a4
    6df8:	02e786b3          	mul	a3,a5,a4
    6dfc:	02e7b733          	mulhu	a4,a5,a4
    6e00:	00e30733          	add	a4,t1,a4
    6e04:	01071713          	slli	a4,a4,0x10
    6e08:	0106d693          	srli	a3,a3,0x10
    6e0c:	00d706b3          	add	a3,a4,a3
    6e10:	00004737          	lui	a4,0x4
    6e14:	8e470713          	addi	a4,a4,-1820 # 38e4 <inferenceTPG+0x2d94>
    6e18:	00e686b3          	add	a3,a3,a4
    6e1c:	41f6d313          	srai	t1,a3,0x1f
    6e20:	02f30333          	mul	t1,t1,a5
    6e24:	02d80733          	mul	a4,a6,a3
    6e28:	00e30333          	add	t1,t1,a4
    6e2c:	02f68733          	mul	a4,a3,a5
    6e30:	02f6b6b3          	mulhu	a3,a3,a5
    6e34:	00d306b3          	add	a3,t1,a3
    6e38:	01069693          	slli	a3,a3,0x10
    6e3c:	01075713          	srli	a4,a4,0x10
    6e40:	00e68733          	add	a4,a3,a4
    6e44:	000066b7          	lui	a3,0x6
    6e48:	66668693          	addi	a3,a3,1638 # 6666 <__heap_size+0x2666>
    6e4c:	00d70733          	add	a4,a4,a3
    6e50:	41f75693          	srai	a3,a4,0x1f
    6e54:	02f686b3          	mul	a3,a3,a5
    6e58:	02e80833          	mul	a6,a6,a4
    6e5c:	010686b3          	add	a3,a3,a6
    6e60:	02f70833          	mul	a6,a4,a5
    6e64:	02f73733          	mulhu	a4,a4,a5
    6e68:	00e687b3          	add	a5,a3,a4
    6e6c:	01079793          	slli	a5,a5,0x10
    6e70:	01085713          	srli	a4,a6,0x10
    6e74:	00e78733          	add	a4,a5,a4
    6e78:	00e888b3          	add	a7,a7,a4
    6e7c:	411d87b3          	sub	a5,s11,a7
    6e80:	41f7d713          	srai	a4,a5,0x1f
    6e84:	02a70733          	mul	a4,a4,a0
    6e88:	02f60633          	mul	a2,a2,a5
    6e8c:	00c70733          	add	a4,a4,a2
    6e90:	02a786b3          	mul	a3,a5,a0
    6e94:	02a7b7b3          	mulhu	a5,a5,a0
    6e98:	00f707b3          	add	a5,a4,a5
    6e9c:	01079793          	slli	a5,a5,0x10
    6ea0:	0106d713          	srli	a4,a3,0x10
    6ea4:	00e78733          	add	a4,a5,a4
    6ea8:	40e585b3          	sub	a1,a1,a4
    6eac:	06b12a23          	sw	a1,116(sp)
    6eb0:	41fad793          	srai	a5,s5,0x1f
    6eb4:	038787b3          	mul	a5,a5,s8
    6eb8:	00812703          	lw	a4,8(sp)
    6ebc:	03570733          	mul	a4,a4,s5
    6ec0:	00e787b3          	add	a5,a5,a4
    6ec4:	038a8733          	mul	a4,s5,s8
    6ec8:	038ab6b3          	mulhu	a3,s5,s8
    6ecc:	00d787b3          	add	a5,a5,a3
    6ed0:	01079793          	slli	a5,a5,0x10
    6ed4:	01075713          	srli	a4,a4,0x10
    6ed8:	00e78733          	add	a4,a5,a4
    6edc:	06e12c23          	sw	a4,120(sp)
    6ee0:	00000713          	li	a4,0
    6ee4:	240ac063          	bltz	s5,7124 <__heap_size+0x3124>
    6ee8:	2c0a8063          	beqz	s5,71a8 <__heap_size+0x31a8>
    6eec:	000207b7          	lui	a5,0x20
    6ef0:	2b57d863          	bge	a5,s5,71a0 <__heap_size+0x31a0>
    6ef4:	00000c13          	li	s8,0
    6ef8:	401ada93          	srai	s5,s5,0x1
    6efc:	001c0c13          	addi	s8,s8,1
    6f00:	ff57cce3          	blt	a5,s5,6ef8 <__heap_size+0x2ef8>
    6f04:	ffff0bb7          	lui	s7,0xffff0
    6f08:	017a8bb3          	add	s7,s5,s7
    6f0c:	41fbd793          	srai	a5,s7,0x1f
    6f10:	010bd593          	srli	a1,s7,0x10
    6f14:	01079793          	slli	a5,a5,0x10
    6f18:	00010637          	lui	a2,0x10
    6f1c:	00ca8633          	add	a2,s5,a2
    6f20:	41f65693          	srai	a3,a2,0x1f
    6f24:	010b9513          	slli	a0,s7,0x10
    6f28:	00f585b3          	add	a1,a1,a5
    6f2c:	6a9040ef          	jal	bdd4 <__divdi3>
    6f30:	41f55593          	srai	a1,a0,0x1f
    6f34:	02a587b3          	mul	a5,a1,a0
    6f38:	02a506b3          	mul	a3,a0,a0
    6f3c:	02a53733          	mulhu	a4,a0,a0
    6f40:	20e7a7b3          	sh1add	a5,a5,a4
    6f44:	01079793          	slli	a5,a5,0x10
    6f48:	0106d693          	srli	a3,a3,0x10
    6f4c:	00d786b3          	add	a3,a5,a3
    6f50:	41f6d313          	srai	t1,a3,0x1f
    6f54:	02d307b3          	mul	a5,t1,a3
    6f58:	02d68733          	mul	a4,a3,a3
    6f5c:	02d6b633          	mulhu	a2,a3,a3
    6f60:	20c7a7b3          	sh1add	a5,a5,a2
    6f64:	01079793          	slli	a5,a5,0x10
    6f68:	01075713          	srli	a4,a4,0x10
    6f6c:	00e78733          	add	a4,a5,a4
    6f70:	41f75813          	srai	a6,a4,0x1f
    6f74:	010c1793          	slli	a5,s8,0x10
    6f78:	41f7d613          	srai	a2,a5,0x1f
    6f7c:	0000be37          	lui	t3,0xb
    6f80:	172e0e13          	addi	t3,t3,370 # b172 <__muldf3+0x176>
    6f84:	03c60633          	mul	a2,a2,t3
    6f88:	03c788b3          	mul	a7,a5,t3
    6f8c:	03c7b7b3          	mulhu	a5,a5,t3
    6f90:	00f60633          	add	a2,a2,a5
    6f94:	01061613          	slli	a2,a2,0x10
    6f98:	0108d793          	srli	a5,a7,0x10
    6f9c:	00f607b3          	add	a5,a2,a5
    6fa0:	00fb87b3          	add	a5,s7,a5
    6fa4:	000028b7          	lui	a7,0x2
    6fa8:	5e288893          	addi	a7,a7,1506 # 25e2 <inferenceTPG+0x1a92>
    6fac:	03180e33          	mul	t3,a6,a7
    6fb0:	03170633          	mul	a2,a4,a7
    6fb4:	031738b3          	mulhu	a7,a4,a7
    6fb8:	011e08b3          	add	a7,t3,a7
    6fbc:	01089893          	slli	a7,a7,0x10
    6fc0:	01065613          	srli	a2,a2,0x10
    6fc4:	00c88633          	add	a2,a7,a2
    6fc8:	000038b7          	lui	a7,0x3
    6fcc:	e8d88893          	addi	a7,a7,-371 # 2e8d <inferenceTPG+0x233d>
    6fd0:	01160633          	add	a2,a2,a7
    6fd4:	41f65e13          	srai	t3,a2,0x1f
    6fd8:	02ee0e33          	mul	t3,t3,a4
    6fdc:	02c808b3          	mul	a7,a6,a2
    6fe0:	011e0e33          	add	t3,t3,a7
    6fe4:	02e608b3          	mul	a7,a2,a4
    6fe8:	02e63633          	mulhu	a2,a2,a4
    6fec:	00ce0633          	add	a2,t3,a2
    6ff0:	01061613          	slli	a2,a2,0x10
    6ff4:	0108d893          	srli	a7,a7,0x10
    6ff8:	011608b3          	add	a7,a2,a7
    6ffc:	00005637          	lui	a2,0x5
    7000:	92560613          	addi	a2,a2,-1755 # 4925 <__heap_size+0x925>
    7004:	00c888b3          	add	a7,a7,a2
    7008:	41f8de13          	srai	t3,a7,0x1f
    700c:	02ee0e33          	mul	t3,t3,a4
    7010:	03180633          	mul	a2,a6,a7
    7014:	00ce0e33          	add	t3,t3,a2
    7018:	02e88633          	mul	a2,a7,a4
    701c:	02e8b8b3          	mulhu	a7,a7,a4
    7020:	011e08b3          	add	a7,t3,a7
    7024:	01089893          	slli	a7,a7,0x10
    7028:	01065613          	srli	a2,a2,0x10
    702c:	00c88633          	add	a2,a7,a2
    7030:	0000b8b7          	lui	a7,0xb
    7034:	aab88893          	addi	a7,a7,-1365 # aaab <__divdf3+0x27f>
    7038:	01160633          	add	a2,a2,a7
    703c:	41f65893          	srai	a7,a2,0x1f
    7040:	02d888b3          	mul	a7,a7,a3
    7044:	02c30333          	mul	t1,t1,a2
    7048:	00688333          	add	t1,a7,t1
    704c:	02d608b3          	mul	a7,a2,a3
    7050:	02d63633          	mulhu	a2,a2,a3
    7054:	00c306b3          	add	a3,t1,a2
    7058:	01069693          	slli	a3,a3,0x10
    705c:	0108d893          	srli	a7,a7,0x10
    7060:	011688b3          	add	a7,a3,a7
    7064:	000026b7          	lui	a3,0x2
    7068:	73468693          	addi	a3,a3,1844 # 2734 <inferenceTPG+0x1be4>
    706c:	02d80333          	mul	t1,a6,a3
    7070:	02d70633          	mul	a2,a4,a3
    7074:	02d736b3          	mulhu	a3,a4,a3
    7078:	00d306b3          	add	a3,t1,a3
    707c:	01069693          	slli	a3,a3,0x10
    7080:	01065613          	srli	a2,a2,0x10
    7084:	00c68633          	add	a2,a3,a2
    7088:	000046b7          	lui	a3,0x4
    708c:	8e468693          	addi	a3,a3,-1820 # 38e4 <inferenceTPG+0x2d94>
    7090:	00d60633          	add	a2,a2,a3
    7094:	41f65313          	srai	t1,a2,0x1f
    7098:	02e30333          	mul	t1,t1,a4
    709c:	02c806b3          	mul	a3,a6,a2
    70a0:	00d30333          	add	t1,t1,a3
    70a4:	02e606b3          	mul	a3,a2,a4
    70a8:	02e63633          	mulhu	a2,a2,a4
    70ac:	00c30633          	add	a2,t1,a2
    70b0:	01061613          	slli	a2,a2,0x10
    70b4:	0106d693          	srli	a3,a3,0x10
    70b8:	00d606b3          	add	a3,a2,a3
    70bc:	00006637          	lui	a2,0x6
    70c0:	66660613          	addi	a2,a2,1638 # 6666 <__heap_size+0x2666>
    70c4:	00c686b3          	add	a3,a3,a2
    70c8:	41f6d613          	srai	a2,a3,0x1f
    70cc:	02e60633          	mul	a2,a2,a4
    70d0:	02d80833          	mul	a6,a6,a3
    70d4:	01060633          	add	a2,a2,a6
    70d8:	02e68833          	mul	a6,a3,a4
    70dc:	02e6b6b3          	mulhu	a3,a3,a4
    70e0:	00d60733          	add	a4,a2,a3
    70e4:	01071713          	slli	a4,a4,0x10
    70e8:	01085693          	srli	a3,a6,0x10
    70ec:	00d706b3          	add	a3,a4,a3
    70f0:	00d888b3          	add	a7,a7,a3
    70f4:	411b8bb3          	sub	s7,s7,a7
    70f8:	41fbd713          	srai	a4,s7,0x1f
    70fc:	02a70733          	mul	a4,a4,a0
    7100:	037585b3          	mul	a1,a1,s7
    7104:	00b70733          	add	a4,a4,a1
    7108:	02ab86b3          	mul	a3,s7,a0
    710c:	02abbbb3          	mulhu	s7,s7,a0
    7110:	01770733          	add	a4,a4,s7
    7114:	01071713          	slli	a4,a4,0x10
    7118:	0106d693          	srli	a3,a3,0x10
    711c:	00d706b3          	add	a3,a4,a3
    7120:	40d78733          	sub	a4,a5,a3
    7124:	41f75793          	srai	a5,a4,0x1f
    7128:	41fd5693          	srai	a3,s10,0x1f
    712c:	03a787b3          	mul	a5,a5,s10
    7130:	02e686b3          	mul	a3,a3,a4
    7134:	00d787b3          	add	a5,a5,a3
    7138:	03a706b3          	mul	a3,a4,s10
    713c:	03a73733          	mulhu	a4,a4,s10
    7140:	00e787b3          	add	a5,a5,a4
    7144:	01079793          	slli	a5,a5,0x10
    7148:	0106d713          	srli	a4,a3,0x10
    714c:	00e78733          	add	a4,a5,a4
    7150:	06e12e23          	sw	a4,124(sp)
    7154:	05c10713          	addi	a4,sp,92
    7158:	00000593          	li	a1,0
    715c:	00100793          	li	a5,1
    7160:	00900613          	li	a2,9
    7164:	0580006f          	j	71bc <__heap_size+0x31bc>
    7168:	00000a93          	li	s5,0
    716c:	bccff06f          	j	6538 <__heap_size+0x2538>
    7170:	fff00593          	li	a1,-1
    7174:	de4ff06f          	j	6758 <__heap_size+0x2758>
    7178:	00000b93          	li	s7,0
    717c:	e38ff06f          	j	67b4 <__heap_size+0x27b4>
    7180:	00000b93          	li	s7,0
    7184:	8b1ff06f          	j	6a34 <__heap_size+0x2a34>
    7188:	fff00713          	li	a4,-1
    718c:	acdff06f          	j	6c58 <__heap_size+0x2c58>
    7190:	00000b93          	li	s7,0
    7194:	af5ff06f          	j	6c88 <__heap_size+0x2c88>
    7198:	fff00593          	li	a1,-1
    719c:	d11ff06f          	j	6eac <__heap_size+0x2eac>
    71a0:	00000c13          	li	s8,0
    71a4:	d61ff06f          	j	6f04 <__heap_size+0x2f04>
    71a8:	fff00713          	li	a4,-1
    71ac:	f79ff06f          	j	7124 <__heap_size+0x3124>
    71b0:	00178793          	addi	a5,a5,1 # 20001 <heap.cpp.6b15d6f6+0xa948>
    71b4:	00470713          	addi	a4,a4,4
    71b8:	00c78c63          	beq	a5,a2,71d0 <__heap_size+0x31d0>
    71bc:	00472683          	lw	a3,4(a4)
    71c0:	ff66c8e3          	blt	a3,s6,71b0 <__heap_size+0x31b0>
    71c4:	00068b13          	mv	s6,a3
    71c8:	00078593          	mv	a1,a5
    71cc:	fe5ff06f          	j	71b0 <__heap_size+0x31b0>
    71d0:	00020737          	lui	a4,0x20
    71d4:	000207b7          	lui	a5,0x20
    71d8:	03078793          	addi	a5,a5,48 # 20030 <next.3>
    71dc:	20f5c5b3          	sh2add	a1,a1,a5
    71e0:	0005a783          	lw	a5,0(a1)
    71e4:	14470713          	addi	a4,a4,324 # 20144 <jump_table.23>
    71e8:	20e7c7b3          	sh2add	a5,a5,a4
    71ec:	0007a783          	lw	a5,0(a5)
    71f0:	08012d83          	lw	s11,128(sp)
    71f4:	9a9f906f          	j	b9c <inferenceTPG+0x4c>
    71f8:	00500793          	li	a5,5
    71fc:	00fca023          	sw	a5,0(s9)
    7200:	0ac12083          	lw	ra,172(sp)
    7204:	0a812483          	lw	s1,168(sp)
    7208:	0a412903          	lw	s2,164(sp)
    720c:	0a012983          	lw	s3,160(sp)
    7210:	09c12a03          	lw	s4,156(sp)
    7214:	09812a83          	lw	s5,152(sp)
    7218:	09412b03          	lw	s6,148(sp)
    721c:	09012b83          	lw	s7,144(sp)
    7220:	08c12c03          	lw	s8,140(sp)
    7224:	08812c83          	lw	s9,136(sp)
    7228:	08412d03          	lw	s10,132(sp)
    722c:	0b010113          	addi	sp,sp,176
    7230:	00008067          	ret
    7234:	00600793          	li	a5,6
    7238:	fc5ff06f          	j	71fc <__heap_size+0x31fc>
    723c:	00400793          	li	a5,4
    7240:	fbdff06f          	j	71fc <__heap_size+0x31fc>
    7244:	00000793          	li	a5,0
    7248:	fb5ff06f          	j	71fc <__heap_size+0x31fc>
    724c:	00300793          	li	a5,3
    7250:	fadff06f          	j	71fc <__heap_size+0x31fc>
    7254:	00200793          	li	a5,2
    7258:	fa5ff06f          	j	71fc <__heap_size+0x31fc>
    725c:	00100793          	li	a5,1
    7260:	f9dff06f          	j	71fc <__heap_size+0x31fc>
    7264:	0084a583          	lw	a1,8(s1)
    7268:	00100793          	li	a5,1
    726c:	00000a93          	li	s5,0
    7270:	00058463          	beqz	a1,7278 <__heap_size+0x3278>
    7274:	d9cfa06f          	j	1810 <inferenceTPG+0xcc0>
    7278:	f34fa06f          	j	19ac <inferenceTPG+0xe5c>
    727c:	0084ac03          	lw	s8,8(s1)
    7280:	00010b37          	lui	s6,0x10
    7284:	bedfb06f          	j	2e70 <inferenceTPG+0x2320>
    7288:	0084ab03          	lw	s6,8(s1)
    728c:	41fb5793          	srai	a5,s6,0x1f
    7290:	00f12623          	sw	a5,12(sp)
    7294:	000107b7          	lui	a5,0x10
    7298:	eddfd06f          	j	5174 <__heap_size+0x1174>
    729c:	0049a783          	lw	a5,4(s3)
    72a0:	06f12423          	sw	a5,104(sp)
    72a4:	f44ff06f          	j	69e8 <__heap_size+0x29e8>
    72a8:	0049a783          	lw	a5,4(s3)
    72ac:	06f12423          	sw	a5,104(sp)
    72b0:	000a8513          	mv	a0,s5
    72b4:	f54ff06f          	j	6a08 <__heap_size+0x2a08>
    72b8:	06012223          	sw	zero,100(sp)
    72bc:	0044a503          	lw	a0,4(s1)
    72c0:	fe0544e3          	bltz	a0,72a8 <__heap_size+0x32a8>
    72c4:	cc051c63          	bnez	a0,679c <__heap_size+0x279c>
    72c8:	0049a783          	lw	a5,4(s3)
    72cc:	fff78793          	addi	a5,a5,-1 # ffff <i2c.c.57379e11+0x761>
    72d0:	06f12423          	sw	a5,104(sp)
    72d4:	f34ff06f          	j	6a08 <__heap_size+0x2a08>
    72d8:	00000b13          	li	s6,0
    72dc:	0089ab83          	lw	s7,8(s3)
    72e0:	0044aa83          	lw	s5,4(s1)
    72e4:	000a8463          	beqz	s5,72ec <__heap_size+0x32ec>
    72e8:	b15f906f          	j	dfc <inferenceTPG+0x2ac>
    72ec:	417a87b3          	sub	a5,s5,s7
    72f0:	0084a683          	lw	a3,8(s1)
    72f4:	00100713          	li	a4,1
    72f8:	b45f906f          	j	e3c <inferenceTPG+0x2ec>
    72fc:	fff00b13          	li	s6,-1
    7300:	fddff06f          	j	72dc <__heap_size+0x32dc>
    7304:	00000a93          	li	s5,0
    7308:	00492603          	lw	a2,4(s2)
    730c:	00060463          	beqz	a2,7314 <__heap_size+0x3314>
    7310:	dc5f906f          	j	10d4 <inferenceTPG+0x584>
    7314:	0049a783          	lw	a5,4(s3)
    7318:	004a2703          	lw	a4,4(s4)
    731c:	40e787b3          	sub	a5,a5,a4
    7320:	0084a683          	lw	a3,8(s1)
    7324:	00100713          	li	a4,1
    7328:	df1f906f          	j	1118 <inferenceTPG+0x5c8>
    732c:	fff00a93          	li	s5,-1
    7330:	fd9ff06f          	j	7308 <__heap_size+0x3308>
    7334:	0049a783          	lw	a5,4(s3)
    7338:	fff78793          	addi	a5,a5,-1
    733c:	06f12423          	sw	a5,104(sp)
    7340:	ea8ff06f          	j	69e8 <__heap_size+0x29e8>

00007344 <handler_irq_fast_timer_1>:
    7344:	fc010113          	addi	sp,sp,-64
    7348:	02112e23          	sw	ra,60(sp)
    734c:	02512c23          	sw	t0,56(sp)
    7350:	02612a23          	sw	t1,52(sp)
    7354:	02712823          	sw	t2,48(sp)
    7358:	02a12623          	sw	a0,44(sp)
    735c:	02b12423          	sw	a1,40(sp)
    7360:	02c12223          	sw	a2,36(sp)
    7364:	02d12023          	sw	a3,32(sp)
    7368:	00e12e23          	sw	a4,28(sp)
    736c:	00f12c23          	sw	a5,24(sp)
    7370:	01012a23          	sw	a6,20(sp)
    7374:	01112823          	sw	a7,16(sp)
    7378:	01c12623          	sw	t3,12(sp)
    737c:	01d12423          	sw	t4,8(sp)
    7380:	01e12223          	sw	t5,4(sp)
    7384:	01f12023          	sw	t6,0(sp)
    7388:	200607b7          	lui	a5,0x20060
    738c:	00100713          	li	a4,1
    7390:	00e7a223          	sw	a4,4(a5) # 20060004 <_sp+0x20034fc4>
    7394:	81cf90ef          	jal	3b0 <fic_irq_timer_1>
    7398:	03c12083          	lw	ra,60(sp)
    739c:	03812283          	lw	t0,56(sp)
    73a0:	03412303          	lw	t1,52(sp)
    73a4:	03012383          	lw	t2,48(sp)
    73a8:	02c12503          	lw	a0,44(sp)
    73ac:	02812583          	lw	a1,40(sp)
    73b0:	02412603          	lw	a2,36(sp)
    73b4:	02012683          	lw	a3,32(sp)
    73b8:	01c12703          	lw	a4,28(sp)
    73bc:	01812783          	lw	a5,24(sp)
    73c0:	01412803          	lw	a6,20(sp)
    73c4:	01012883          	lw	a7,16(sp)
    73c8:	00c12e03          	lw	t3,12(sp)
    73cc:	00812e83          	lw	t4,8(sp)
    73d0:	00412f03          	lw	t5,4(sp)
    73d4:	00012f83          	lw	t6,0(sp)
    73d8:	04010113          	addi	sp,sp,64
    73dc:	30200073          	mret

000073e0 <handler_irq_fast_timer_2>:
    73e0:	fc010113          	addi	sp,sp,-64
    73e4:	02112e23          	sw	ra,60(sp)
    73e8:	02512c23          	sw	t0,56(sp)
    73ec:	02612a23          	sw	t1,52(sp)
    73f0:	02712823          	sw	t2,48(sp)
    73f4:	02a12623          	sw	a0,44(sp)
    73f8:	02b12423          	sw	a1,40(sp)
    73fc:	02c12223          	sw	a2,36(sp)
    7400:	02d12023          	sw	a3,32(sp)
    7404:	00e12e23          	sw	a4,28(sp)
    7408:	00f12c23          	sw	a5,24(sp)
    740c:	01012a23          	sw	a6,20(sp)
    7410:	01112823          	sw	a7,16(sp)
    7414:	01c12623          	sw	t3,12(sp)
    7418:	01d12423          	sw	t4,8(sp)
    741c:	01e12223          	sw	t5,4(sp)
    7420:	01f12023          	sw	t6,0(sp)
    7424:	200607b7          	lui	a5,0x20060
    7428:	00200713          	li	a4,2
    742c:	00e7a223          	sw	a4,4(a5) # 20060004 <_sp+0x20034fc4>
    7430:	fa5f80ef          	jal	3d4 <fic_irq_timer_2>
    7434:	03c12083          	lw	ra,60(sp)
    7438:	03812283          	lw	t0,56(sp)
    743c:	03412303          	lw	t1,52(sp)
    7440:	03012383          	lw	t2,48(sp)
    7444:	02c12503          	lw	a0,44(sp)
    7448:	02812583          	lw	a1,40(sp)
    744c:	02412603          	lw	a2,36(sp)
    7450:	02012683          	lw	a3,32(sp)
    7454:	01c12703          	lw	a4,28(sp)
    7458:	01812783          	lw	a5,24(sp)
    745c:	01412803          	lw	a6,20(sp)
    7460:	01012883          	lw	a7,16(sp)
    7464:	00c12e03          	lw	t3,12(sp)
    7468:	00812e83          	lw	t4,8(sp)
    746c:	00412f03          	lw	t5,4(sp)
    7470:	00012f83          	lw	t6,0(sp)
    7474:	04010113          	addi	sp,sp,64
    7478:	30200073          	mret

0000747c <handler_irq_fast_timer_3>:
    747c:	fc010113          	addi	sp,sp,-64
    7480:	02112e23          	sw	ra,60(sp)
    7484:	02512c23          	sw	t0,56(sp)
    7488:	02612a23          	sw	t1,52(sp)
    748c:	02712823          	sw	t2,48(sp)
    7490:	02a12623          	sw	a0,44(sp)
    7494:	02b12423          	sw	a1,40(sp)
    7498:	02c12223          	sw	a2,36(sp)
    749c:	02d12023          	sw	a3,32(sp)
    74a0:	00e12e23          	sw	a4,28(sp)
    74a4:	00f12c23          	sw	a5,24(sp)
    74a8:	01012a23          	sw	a6,20(sp)
    74ac:	01112823          	sw	a7,16(sp)
    74b0:	01c12623          	sw	t3,12(sp)
    74b4:	01d12423          	sw	t4,8(sp)
    74b8:	01e12223          	sw	t5,4(sp)
    74bc:	01f12023          	sw	t6,0(sp)
    74c0:	200607b7          	lui	a5,0x20060
    74c4:	00400713          	li	a4,4
    74c8:	00e7a223          	sw	a4,4(a5) # 20060004 <_sp+0x20034fc4>
    74cc:	f2df80ef          	jal	3f8 <fic_irq_timer_3>
    74d0:	03c12083          	lw	ra,60(sp)
    74d4:	03812283          	lw	t0,56(sp)
    74d8:	03412303          	lw	t1,52(sp)
    74dc:	03012383          	lw	t2,48(sp)
    74e0:	02c12503          	lw	a0,44(sp)
    74e4:	02812583          	lw	a1,40(sp)
    74e8:	02412603          	lw	a2,36(sp)
    74ec:	02012683          	lw	a3,32(sp)
    74f0:	01c12703          	lw	a4,28(sp)
    74f4:	01812783          	lw	a5,24(sp)
    74f8:	01412803          	lw	a6,20(sp)
    74fc:	01012883          	lw	a7,16(sp)
    7500:	00c12e03          	lw	t3,12(sp)
    7504:	00812e83          	lw	t4,8(sp)
    7508:	00412f03          	lw	t5,4(sp)
    750c:	00012f83          	lw	t6,0(sp)
    7510:	04010113          	addi	sp,sp,64
    7514:	30200073          	mret

00007518 <handler_irq_fast_dma_done>:
    7518:	fc010113          	addi	sp,sp,-64
    751c:	02112e23          	sw	ra,60(sp)
    7520:	02512c23          	sw	t0,56(sp)
    7524:	02612a23          	sw	t1,52(sp)
    7528:	02712823          	sw	t2,48(sp)
    752c:	02a12623          	sw	a0,44(sp)
    7530:	02b12423          	sw	a1,40(sp)
    7534:	02c12223          	sw	a2,36(sp)
    7538:	02d12023          	sw	a3,32(sp)
    753c:	00e12e23          	sw	a4,28(sp)
    7540:	00f12c23          	sw	a5,24(sp)
    7544:	01012a23          	sw	a6,20(sp)
    7548:	01112823          	sw	a7,16(sp)
    754c:	01c12623          	sw	t3,12(sp)
    7550:	01d12423          	sw	t4,8(sp)
    7554:	01e12223          	sw	t5,4(sp)
    7558:	01f12023          	sw	t6,0(sp)
    755c:	200607b7          	lui	a5,0x20060
    7560:	00800713          	li	a4,8
    7564:	00e7a223          	sw	a4,4(a5) # 20060004 <_sp+0x20034fc4>
    7568:	d4df80ef          	jal	2b4 <fic_irq_dma_done>
    756c:	03c12083          	lw	ra,60(sp)
    7570:	03812283          	lw	t0,56(sp)
    7574:	03412303          	lw	t1,52(sp)
    7578:	03012383          	lw	t2,48(sp)
    757c:	02c12503          	lw	a0,44(sp)
    7580:	02812583          	lw	a1,40(sp)
    7584:	02412603          	lw	a2,36(sp)
    7588:	02012683          	lw	a3,32(sp)
    758c:	01c12703          	lw	a4,28(sp)
    7590:	01812783          	lw	a5,24(sp)
    7594:	01412803          	lw	a6,20(sp)
    7598:	01012883          	lw	a7,16(sp)
    759c:	00c12e03          	lw	t3,12(sp)
    75a0:	00812e83          	lw	t4,8(sp)
    75a4:	00412f03          	lw	t5,4(sp)
    75a8:	00012f83          	lw	t6,0(sp)
    75ac:	04010113          	addi	sp,sp,64
    75b0:	30200073          	mret

000075b4 <handler_irq_fast_dma_window>:
    75b4:	fc010113          	addi	sp,sp,-64
    75b8:	02112e23          	sw	ra,60(sp)
    75bc:	02512c23          	sw	t0,56(sp)
    75c0:	02612a23          	sw	t1,52(sp)
    75c4:	02712823          	sw	t2,48(sp)
    75c8:	02a12623          	sw	a0,44(sp)
    75cc:	02b12423          	sw	a1,40(sp)
    75d0:	02c12223          	sw	a2,36(sp)
    75d4:	02d12023          	sw	a3,32(sp)
    75d8:	00e12e23          	sw	a4,28(sp)
    75dc:	00f12c23          	sw	a5,24(sp)
    75e0:	01012a23          	sw	a6,20(sp)
    75e4:	01112823          	sw	a7,16(sp)
    75e8:	01c12623          	sw	t3,12(sp)
    75ec:	01d12423          	sw	t4,8(sp)
    75f0:	01e12223          	sw	t5,4(sp)
    75f4:	01f12023          	sw	t6,0(sp)
    75f8:	200607b7          	lui	a5,0x20060
    75fc:	00004737          	lui	a4,0x4
    7600:	00e7a223          	sw	a4,4(a5) # 20060004 <_sp+0x20034fc4>
    7604:	c31f80ef          	jal	234 <fic_irq_dma_window>
    7608:	03c12083          	lw	ra,60(sp)
    760c:	03812283          	lw	t0,56(sp)
    7610:	03412303          	lw	t1,52(sp)
    7614:	03012383          	lw	t2,48(sp)
    7618:	02c12503          	lw	a0,44(sp)
    761c:	02812583          	lw	a1,40(sp)
    7620:	02412603          	lw	a2,36(sp)
    7624:	02012683          	lw	a3,32(sp)
    7628:	01c12703          	lw	a4,28(sp)
    762c:	01812783          	lw	a5,24(sp)
    7630:	01412803          	lw	a6,20(sp)
    7634:	01012883          	lw	a7,16(sp)
    7638:	00c12e03          	lw	t3,12(sp)
    763c:	00812e83          	lw	t4,8(sp)
    7640:	00412f03          	lw	t5,4(sp)
    7644:	00012f83          	lw	t6,0(sp)
    7648:	04010113          	addi	sp,sp,64
    764c:	30200073          	mret

00007650 <handler_irq_fast_external_peripheral>:
    7650:	fc010113          	addi	sp,sp,-64
    7654:	02112e23          	sw	ra,60(sp)
    7658:	02512c23          	sw	t0,56(sp)
    765c:	02612a23          	sw	t1,52(sp)
    7660:	02712823          	sw	t2,48(sp)
    7664:	02a12623          	sw	a0,44(sp)
    7668:	02b12423          	sw	a1,40(sp)
    766c:	02c12223          	sw	a2,36(sp)
    7670:	02d12023          	sw	a3,32(sp)
    7674:	00e12e23          	sw	a4,28(sp)
    7678:	00f12c23          	sw	a5,24(sp)
    767c:	01012a23          	sw	a6,20(sp)
    7680:	01112823          	sw	a7,16(sp)
    7684:	01c12623          	sw	t3,12(sp)
    7688:	01d12423          	sw	t4,8(sp)
    768c:	01e12223          	sw	t5,4(sp)
    7690:	01f12023          	sw	t6,0(sp)
    7694:	200607b7          	lui	a5,0x20060
    7698:	00008737          	lui	a4,0x8
    769c:	00e7a223          	sw	a4,4(a5) # 20060004 <_sp+0x20034fc4>
    76a0:	d7df80ef          	jal	41c <fic_irq_ext_peripheral>
    76a4:	03c12083          	lw	ra,60(sp)
    76a8:	03812283          	lw	t0,56(sp)
    76ac:	03412303          	lw	t1,52(sp)
    76b0:	03012383          	lw	t2,48(sp)
    76b4:	02c12503          	lw	a0,44(sp)
    76b8:	02812583          	lw	a1,40(sp)
    76bc:	02412603          	lw	a2,36(sp)
    76c0:	02012683          	lw	a3,32(sp)
    76c4:	01c12703          	lw	a4,28(sp)
    76c8:	01812783          	lw	a5,24(sp)
    76cc:	01412803          	lw	a6,20(sp)
    76d0:	01012883          	lw	a7,16(sp)
    76d4:	00c12e03          	lw	t3,12(sp)
    76d8:	00812e83          	lw	t4,8(sp)
    76dc:	00412f03          	lw	t5,4(sp)
    76e0:	00012f83          	lw	t6,0(sp)
    76e4:	04010113          	addi	sp,sp,64
    76e8:	30200073          	mret

000076ec <handler_irq_fast_gpio_0>:
    76ec:	fc010113          	addi	sp,sp,-64
    76f0:	02112e23          	sw	ra,60(sp)
    76f4:	02512c23          	sw	t0,56(sp)
    76f8:	02612a23          	sw	t1,52(sp)
    76fc:	02712823          	sw	t2,48(sp)
    7700:	02a12623          	sw	a0,44(sp)
    7704:	02b12423          	sw	a1,40(sp)
    7708:	02c12223          	sw	a2,36(sp)
    770c:	02d12023          	sw	a3,32(sp)
    7710:	00e12e23          	sw	a4,28(sp)
    7714:	00f12c23          	sw	a5,24(sp)
    7718:	01012a23          	sw	a6,20(sp)
    771c:	01112823          	sw	a7,16(sp)
    7720:	01c12623          	sw	t3,12(sp)
    7724:	01d12423          	sw	t4,8(sp)
    7728:	01e12223          	sw	t5,4(sp)
    772c:	01f12023          	sw	t6,0(sp)
    7730:	200607b7          	lui	a5,0x20060
    7734:	04000713          	li	a4,64
    7738:	00e7a223          	sw	a4,4(a5) # 20060004 <_sp+0x20034fc4>
    773c:	d05f80ef          	jal	440 <fic_irq_gpio_0>
    7740:	03c12083          	lw	ra,60(sp)
    7744:	03812283          	lw	t0,56(sp)
    7748:	03412303          	lw	t1,52(sp)
    774c:	03012383          	lw	t2,48(sp)
    7750:	02c12503          	lw	a0,44(sp)
    7754:	02812583          	lw	a1,40(sp)
    7758:	02412603          	lw	a2,36(sp)
    775c:	02012683          	lw	a3,32(sp)
    7760:	01c12703          	lw	a4,28(sp)
    7764:	01812783          	lw	a5,24(sp)
    7768:	01412803          	lw	a6,20(sp)
    776c:	01012883          	lw	a7,16(sp)
    7770:	00c12e03          	lw	t3,12(sp)
    7774:	00812e83          	lw	t4,8(sp)
    7778:	00412f03          	lw	t5,4(sp)
    777c:	00012f83          	lw	t6,0(sp)
    7780:	04010113          	addi	sp,sp,64
    7784:	30200073          	mret

00007788 <handler_irq_fast_gpio_1>:
    7788:	fc010113          	addi	sp,sp,-64
    778c:	02112e23          	sw	ra,60(sp)
    7790:	02512c23          	sw	t0,56(sp)
    7794:	02612a23          	sw	t1,52(sp)
    7798:	02712823          	sw	t2,48(sp)
    779c:	02a12623          	sw	a0,44(sp)
    77a0:	02b12423          	sw	a1,40(sp)
    77a4:	02c12223          	sw	a2,36(sp)
    77a8:	02d12023          	sw	a3,32(sp)
    77ac:	00e12e23          	sw	a4,28(sp)
    77b0:	00f12c23          	sw	a5,24(sp)
    77b4:	01012a23          	sw	a6,20(sp)
    77b8:	01112823          	sw	a7,16(sp)
    77bc:	01c12623          	sw	t3,12(sp)
    77c0:	01d12423          	sw	t4,8(sp)
    77c4:	01e12223          	sw	t5,4(sp)
    77c8:	01f12023          	sw	t6,0(sp)
    77cc:	200607b7          	lui	a5,0x20060
    77d0:	08000713          	li	a4,128
    77d4:	00e7a223          	sw	a4,4(a5) # 20060004 <_sp+0x20034fc4>
    77d8:	c8df80ef          	jal	464 <fic_irq_gpio_1>
    77dc:	03c12083          	lw	ra,60(sp)
    77e0:	03812283          	lw	t0,56(sp)
    77e4:	03412303          	lw	t1,52(sp)
    77e8:	03012383          	lw	t2,48(sp)
    77ec:	02c12503          	lw	a0,44(sp)
    77f0:	02812583          	lw	a1,40(sp)
    77f4:	02412603          	lw	a2,36(sp)
    77f8:	02012683          	lw	a3,32(sp)
    77fc:	01c12703          	lw	a4,28(sp)
    7800:	01812783          	lw	a5,24(sp)
    7804:	01412803          	lw	a6,20(sp)
    7808:	01012883          	lw	a7,16(sp)
    780c:	00c12e03          	lw	t3,12(sp)
    7810:	00812e83          	lw	t4,8(sp)
    7814:	00412f03          	lw	t5,4(sp)
    7818:	00012f83          	lw	t6,0(sp)
    781c:	04010113          	addi	sp,sp,64
    7820:	30200073          	mret

00007824 <handler_irq_fast_gpio_2>:
    7824:	fc010113          	addi	sp,sp,-64
    7828:	02112e23          	sw	ra,60(sp)
    782c:	02512c23          	sw	t0,56(sp)
    7830:	02612a23          	sw	t1,52(sp)
    7834:	02712823          	sw	t2,48(sp)
    7838:	02a12623          	sw	a0,44(sp)
    783c:	02b12423          	sw	a1,40(sp)
    7840:	02c12223          	sw	a2,36(sp)
    7844:	02d12023          	sw	a3,32(sp)
    7848:	00e12e23          	sw	a4,28(sp)
    784c:	00f12c23          	sw	a5,24(sp)
    7850:	01012a23          	sw	a6,20(sp)
    7854:	01112823          	sw	a7,16(sp)
    7858:	01c12623          	sw	t3,12(sp)
    785c:	01d12423          	sw	t4,8(sp)
    7860:	01e12223          	sw	t5,4(sp)
    7864:	01f12023          	sw	t6,0(sp)
    7868:	200607b7          	lui	a5,0x20060
    786c:	10000713          	li	a4,256
    7870:	00e7a223          	sw	a4,4(a5) # 20060004 <_sp+0x20034fc4>
    7874:	c15f80ef          	jal	488 <fic_irq_gpio_2>
    7878:	03c12083          	lw	ra,60(sp)
    787c:	03812283          	lw	t0,56(sp)
    7880:	03412303          	lw	t1,52(sp)
    7884:	03012383          	lw	t2,48(sp)
    7888:	02c12503          	lw	a0,44(sp)
    788c:	02812583          	lw	a1,40(sp)
    7890:	02412603          	lw	a2,36(sp)
    7894:	02012683          	lw	a3,32(sp)
    7898:	01c12703          	lw	a4,28(sp)
    789c:	01812783          	lw	a5,24(sp)
    78a0:	01412803          	lw	a6,20(sp)
    78a4:	01012883          	lw	a7,16(sp)
    78a8:	00c12e03          	lw	t3,12(sp)
    78ac:	00812e83          	lw	t4,8(sp)
    78b0:	00412f03          	lw	t5,4(sp)
    78b4:	00012f83          	lw	t6,0(sp)
    78b8:	04010113          	addi	sp,sp,64
    78bc:	30200073          	mret

000078c0 <handler_irq_fast_gpio_3>:
    78c0:	fc010113          	addi	sp,sp,-64
    78c4:	02112e23          	sw	ra,60(sp)
    78c8:	02512c23          	sw	t0,56(sp)
    78cc:	02612a23          	sw	t1,52(sp)
    78d0:	02712823          	sw	t2,48(sp)
    78d4:	02a12623          	sw	a0,44(sp)
    78d8:	02b12423          	sw	a1,40(sp)
    78dc:	02c12223          	sw	a2,36(sp)
    78e0:	02d12023          	sw	a3,32(sp)
    78e4:	00e12e23          	sw	a4,28(sp)
    78e8:	00f12c23          	sw	a5,24(sp)
    78ec:	01012a23          	sw	a6,20(sp)
    78f0:	01112823          	sw	a7,16(sp)
    78f4:	01c12623          	sw	t3,12(sp)
    78f8:	01d12423          	sw	t4,8(sp)
    78fc:	01e12223          	sw	t5,4(sp)
    7900:	01f12023          	sw	t6,0(sp)
    7904:	200607b7          	lui	a5,0x20060
    7908:	20000713          	li	a4,512
    790c:	00e7a223          	sw	a4,4(a5) # 20060004 <_sp+0x20034fc4>
    7910:	b9df80ef          	jal	4ac <fic_irq_gpio_3>
    7914:	03c12083          	lw	ra,60(sp)
    7918:	03812283          	lw	t0,56(sp)
    791c:	03412303          	lw	t1,52(sp)
    7920:	03012383          	lw	t2,48(sp)
    7924:	02c12503          	lw	a0,44(sp)
    7928:	02812583          	lw	a1,40(sp)
    792c:	02412603          	lw	a2,36(sp)
    7930:	02012683          	lw	a3,32(sp)
    7934:	01c12703          	lw	a4,28(sp)
    7938:	01812783          	lw	a5,24(sp)
    793c:	01412803          	lw	a6,20(sp)
    7940:	01012883          	lw	a7,16(sp)
    7944:	00c12e03          	lw	t3,12(sp)
    7948:	00812e83          	lw	t4,8(sp)
    794c:	00412f03          	lw	t5,4(sp)
    7950:	00012f83          	lw	t6,0(sp)
    7954:	04010113          	addi	sp,sp,64
    7958:	30200073          	mret

0000795c <handler_irq_fast_gpio_4>:
    795c:	fc010113          	addi	sp,sp,-64
    7960:	02112e23          	sw	ra,60(sp)
    7964:	02512c23          	sw	t0,56(sp)
    7968:	02612a23          	sw	t1,52(sp)
    796c:	02712823          	sw	t2,48(sp)
    7970:	02a12623          	sw	a0,44(sp)
    7974:	02b12423          	sw	a1,40(sp)
    7978:	02c12223          	sw	a2,36(sp)
    797c:	02d12023          	sw	a3,32(sp)
    7980:	00e12e23          	sw	a4,28(sp)
    7984:	00f12c23          	sw	a5,24(sp)
    7988:	01012a23          	sw	a6,20(sp)
    798c:	01112823          	sw	a7,16(sp)
    7990:	01c12623          	sw	t3,12(sp)
    7994:	01d12423          	sw	t4,8(sp)
    7998:	01e12223          	sw	t5,4(sp)
    799c:	01f12023          	sw	t6,0(sp)
    79a0:	200607b7          	lui	a5,0x20060
    79a4:	40000713          	li	a4,1024
    79a8:	00e7a223          	sw	a4,4(a5) # 20060004 <_sp+0x20034fc4>
    79ac:	b25f80ef          	jal	4d0 <fic_irq_gpio_4>
    79b0:	03c12083          	lw	ra,60(sp)
    79b4:	03812283          	lw	t0,56(sp)
    79b8:	03412303          	lw	t1,52(sp)
    79bc:	03012383          	lw	t2,48(sp)
    79c0:	02c12503          	lw	a0,44(sp)
    79c4:	02812583          	lw	a1,40(sp)
    79c8:	02412603          	lw	a2,36(sp)
    79cc:	02012683          	lw	a3,32(sp)
    79d0:	01c12703          	lw	a4,28(sp)
    79d4:	01812783          	lw	a5,24(sp)
    79d8:	01412803          	lw	a6,20(sp)
    79dc:	01012883          	lw	a7,16(sp)
    79e0:	00c12e03          	lw	t3,12(sp)
    79e4:	00812e83          	lw	t4,8(sp)
    79e8:	00412f03          	lw	t5,4(sp)
    79ec:	00012f83          	lw	t6,0(sp)
    79f0:	04010113          	addi	sp,sp,64
    79f4:	30200073          	mret

000079f8 <handler_irq_fast_gpio_5>:
    79f8:	fc010113          	addi	sp,sp,-64
    79fc:	02112e23          	sw	ra,60(sp)
    7a00:	02512c23          	sw	t0,56(sp)
    7a04:	02612a23          	sw	t1,52(sp)
    7a08:	02712823          	sw	t2,48(sp)
    7a0c:	02a12623          	sw	a0,44(sp)
    7a10:	02b12423          	sw	a1,40(sp)
    7a14:	02c12223          	sw	a2,36(sp)
    7a18:	02d12023          	sw	a3,32(sp)
    7a1c:	00e12e23          	sw	a4,28(sp)
    7a20:	00f12c23          	sw	a5,24(sp)
    7a24:	01012a23          	sw	a6,20(sp)
    7a28:	01112823          	sw	a7,16(sp)
    7a2c:	01c12623          	sw	t3,12(sp)
    7a30:	01d12423          	sw	t4,8(sp)
    7a34:	01e12223          	sw	t5,4(sp)
    7a38:	01f12023          	sw	t6,0(sp)
    7a3c:	20060737          	lui	a4,0x20060
    7a40:	000017b7          	lui	a5,0x1
    7a44:	80078793          	addi	a5,a5,-2048 # 800 <spi_event_handler+0x110>
    7a48:	00f72223          	sw	a5,4(a4) # 20060004 <_sp+0x20034fc4>
    7a4c:	aa9f80ef          	jal	4f4 <fic_irq_gpio_5>
    7a50:	03c12083          	lw	ra,60(sp)
    7a54:	03812283          	lw	t0,56(sp)
    7a58:	03412303          	lw	t1,52(sp)
    7a5c:	03012383          	lw	t2,48(sp)
    7a60:	02c12503          	lw	a0,44(sp)
    7a64:	02812583          	lw	a1,40(sp)
    7a68:	02412603          	lw	a2,36(sp)
    7a6c:	02012683          	lw	a3,32(sp)
    7a70:	01c12703          	lw	a4,28(sp)
    7a74:	01812783          	lw	a5,24(sp)
    7a78:	01412803          	lw	a6,20(sp)
    7a7c:	01012883          	lw	a7,16(sp)
    7a80:	00c12e03          	lw	t3,12(sp)
    7a84:	00812e83          	lw	t4,8(sp)
    7a88:	00412f03          	lw	t5,4(sp)
    7a8c:	00012f83          	lw	t6,0(sp)
    7a90:	04010113          	addi	sp,sp,64
    7a94:	30200073          	mret

00007a98 <handler_irq_fast_gpio_6>:
    7a98:	fc010113          	addi	sp,sp,-64
    7a9c:	02112e23          	sw	ra,60(sp)
    7aa0:	02512c23          	sw	t0,56(sp)
    7aa4:	02612a23          	sw	t1,52(sp)
    7aa8:	02712823          	sw	t2,48(sp)
    7aac:	02a12623          	sw	a0,44(sp)
    7ab0:	02b12423          	sw	a1,40(sp)
    7ab4:	02c12223          	sw	a2,36(sp)
    7ab8:	02d12023          	sw	a3,32(sp)
    7abc:	00e12e23          	sw	a4,28(sp)
    7ac0:	00f12c23          	sw	a5,24(sp)
    7ac4:	01012a23          	sw	a6,20(sp)
    7ac8:	01112823          	sw	a7,16(sp)
    7acc:	01c12623          	sw	t3,12(sp)
    7ad0:	01d12423          	sw	t4,8(sp)
    7ad4:	01e12223          	sw	t5,4(sp)
    7ad8:	01f12023          	sw	t6,0(sp)
    7adc:	200607b7          	lui	a5,0x20060
    7ae0:	00001737          	lui	a4,0x1
    7ae4:	00e7a223          	sw	a4,4(a5) # 20060004 <_sp+0x20034fc4>
    7ae8:	a31f80ef          	jal	518 <fic_irq_gpio_6>
    7aec:	03c12083          	lw	ra,60(sp)
    7af0:	03812283          	lw	t0,56(sp)
    7af4:	03412303          	lw	t1,52(sp)
    7af8:	03012383          	lw	t2,48(sp)
    7afc:	02c12503          	lw	a0,44(sp)
    7b00:	02812583          	lw	a1,40(sp)
    7b04:	02412603          	lw	a2,36(sp)
    7b08:	02012683          	lw	a3,32(sp)
    7b0c:	01c12703          	lw	a4,28(sp)
    7b10:	01812783          	lw	a5,24(sp)
    7b14:	01412803          	lw	a6,20(sp)
    7b18:	01012883          	lw	a7,16(sp)
    7b1c:	00c12e03          	lw	t3,12(sp)
    7b20:	00812e83          	lw	t4,8(sp)
    7b24:	00412f03          	lw	t5,4(sp)
    7b28:	00012f83          	lw	t6,0(sp)
    7b2c:	04010113          	addi	sp,sp,64
    7b30:	30200073          	mret

00007b34 <handler_irq_fast_gpio_7>:
    7b34:	fc010113          	addi	sp,sp,-64
    7b38:	02112e23          	sw	ra,60(sp)
    7b3c:	02512c23          	sw	t0,56(sp)
    7b40:	02612a23          	sw	t1,52(sp)
    7b44:	02712823          	sw	t2,48(sp)
    7b48:	02a12623          	sw	a0,44(sp)
    7b4c:	02b12423          	sw	a1,40(sp)
    7b50:	02c12223          	sw	a2,36(sp)
    7b54:	02d12023          	sw	a3,32(sp)
    7b58:	00e12e23          	sw	a4,28(sp)
    7b5c:	00f12c23          	sw	a5,24(sp)
    7b60:	01012a23          	sw	a6,20(sp)
    7b64:	01112823          	sw	a7,16(sp)
    7b68:	01c12623          	sw	t3,12(sp)
    7b6c:	01d12423          	sw	t4,8(sp)
    7b70:	01e12223          	sw	t5,4(sp)
    7b74:	01f12023          	sw	t6,0(sp)
    7b78:	200607b7          	lui	a5,0x20060
    7b7c:	00002737          	lui	a4,0x2
    7b80:	00e7a223          	sw	a4,4(a5) # 20060004 <_sp+0x20034fc4>
    7b84:	9b9f80ef          	jal	53c <fic_irq_gpio_7>
    7b88:	03c12083          	lw	ra,60(sp)
    7b8c:	03812283          	lw	t0,56(sp)
    7b90:	03412303          	lw	t1,52(sp)
    7b94:	03012383          	lw	t2,48(sp)
    7b98:	02c12503          	lw	a0,44(sp)
    7b9c:	02812583          	lw	a1,40(sp)
    7ba0:	02412603          	lw	a2,36(sp)
    7ba4:	02012683          	lw	a3,32(sp)
    7ba8:	01c12703          	lw	a4,28(sp)
    7bac:	01812783          	lw	a5,24(sp)
    7bb0:	01412803          	lw	a6,20(sp)
    7bb4:	01012883          	lw	a7,16(sp)
    7bb8:	00c12e03          	lw	t3,12(sp)
    7bbc:	00812e83          	lw	t4,8(sp)
    7bc0:	00412f03          	lw	t5,4(sp)
    7bc4:	00012f83          	lw	t6,0(sp)
    7bc8:	04010113          	addi	sp,sp,64
    7bcc:	30200073          	mret

00007bd0 <handler_irq_external>:
    7bd0:	fb010113          	addi	sp,sp,-80
    7bd4:	04112623          	sw	ra,76(sp)
    7bd8:	04512423          	sw	t0,72(sp)
    7bdc:	04612223          	sw	t1,68(sp)
    7be0:	04712023          	sw	t2,64(sp)
    7be4:	02912e23          	sw	s1,60(sp)
    7be8:	02a12c23          	sw	a0,56(sp)
    7bec:	02b12a23          	sw	a1,52(sp)
    7bf0:	02c12823          	sw	a2,48(sp)
    7bf4:	02d12623          	sw	a3,44(sp)
    7bf8:	02e12423          	sw	a4,40(sp)
    7bfc:	02f12223          	sw	a5,36(sp)
    7c00:	03012023          	sw	a6,32(sp)
    7c04:	01112e23          	sw	a7,28(sp)
    7c08:	01212c23          	sw	s2,24(sp)
    7c0c:	01c12a23          	sw	t3,20(sp)
    7c10:	01d12823          	sw	t4,16(sp)
    7c14:	01e12623          	sw	t5,12(sp)
    7c18:	01f12423          	sw	t6,8(sp)
    7c1c:	300004b7          	lui	s1,0x30000
    7c20:	20c4a903          	lw	s2,524(s1) # 3000020c <_sp+0x2ffd51cc>
    7c24:	00090513          	mv	a0,s2
    7c28:	00000793          	li	a5,0
    7c2c:	000780e7          	jalr	a5
    7c30:	2124a623          	sw	s2,524(s1)
    7c34:	04c12083          	lw	ra,76(sp)
    7c38:	04812283          	lw	t0,72(sp)
    7c3c:	04412303          	lw	t1,68(sp)
    7c40:	04012383          	lw	t2,64(sp)
    7c44:	03c12483          	lw	s1,60(sp)
    7c48:	03812503          	lw	a0,56(sp)
    7c4c:	03412583          	lw	a1,52(sp)
    7c50:	03012603          	lw	a2,48(sp)
    7c54:	02c12683          	lw	a3,44(sp)
    7c58:	02812703          	lw	a4,40(sp)
    7c5c:	02412783          	lw	a5,36(sp)
    7c60:	02012803          	lw	a6,32(sp)
    7c64:	01c12883          	lw	a7,28(sp)
    7c68:	01812903          	lw	s2,24(sp)
    7c6c:	01412e03          	lw	t3,20(sp)
    7c70:	01012e83          	lw	t4,16(sp)
    7c74:	00c12f03          	lw	t5,12(sp)
    7c78:	00812f83          	lw	t6,8(sp)
    7c7c:	05010113          	addi	sp,sp,80
    7c80:	30200073          	mret

00007c84 <handler_exception>:
    7c84:	fc010113          	addi	sp,sp,-64
    7c88:	02112e23          	sw	ra,60(sp)
    7c8c:	02512c23          	sw	t0,56(sp)
    7c90:	02612a23          	sw	t1,52(sp)
    7c94:	02712823          	sw	t2,48(sp)
    7c98:	02a12623          	sw	a0,44(sp)
    7c9c:	02b12423          	sw	a1,40(sp)
    7ca0:	02c12223          	sw	a2,36(sp)
    7ca4:	02d12023          	sw	a3,32(sp)
    7ca8:	00e12e23          	sw	a4,28(sp)
    7cac:	00f12c23          	sw	a5,24(sp)
    7cb0:	01012a23          	sw	a6,20(sp)
    7cb4:	01112823          	sw	a7,16(sp)
    7cb8:	01c12623          	sw	t3,12(sp)
    7cbc:	01d12423          	sw	t4,8(sp)
    7cc0:	01e12223          	sw	t5,4(sp)
    7cc4:	01f12023          	sw	t6,0(sp)
    7cc8:	342027f3          	csrr	a5,mcause
    7ccc:	01f7f793          	andi	a5,a5,31
    7cd0:	00b00713          	li	a4,11
    7cd4:	06f76863          	bltu	a4,a5,7d44 <handler_exception+0xc0>
    7cd8:	00020737          	lui	a4,0x20
    7cdc:	00070713          	mv	a4,a4
    7ce0:	20e7c7b3          	sh2add	a5,a5,a4
    7ce4:	0007a783          	lw	a5,0(a5)
    7ce8:	00078067          	jr	a5
    7cec:	00020537          	lui	a0,0x20
    7cf0:	3a450513          	addi	a0,a0,932 # 203a4 <__clz_tab+0x174>
    7cf4:	e09f80ef          	jal	afc <print_exc_msg>
    7cf8:	00020537          	lui	a0,0x20
    7cfc:	3a450513          	addi	a0,a0,932 # 203a4 <__clz_tab+0x174>
    7d00:	dfdf80ef          	jal	afc <print_exc_msg>
    7d04:	00020537          	lui	a0,0x20
    7d08:	3dc50513          	addi	a0,a0,988 # 203dc <__clz_tab+0x1ac>
    7d0c:	df1f80ef          	jal	afc <print_exc_msg>
    7d10:	00020537          	lui	a0,0x20
    7d14:	41850513          	addi	a0,a0,1048 # 20418 <__clz_tab+0x1e8>
    7d18:	de5f80ef          	jal	afc <print_exc_msg>
    7d1c:	00020537          	lui	a0,0x20
    7d20:	45450513          	addi	a0,a0,1108 # 20454 <__clz_tab+0x224>
    7d24:	dd9f80ef          	jal	afc <print_exc_msg>
    7d28:	00020537          	lui	a0,0x20
    7d2c:	45450513          	addi	a0,a0,1108 # 20454 <__clz_tab+0x224>
    7d30:	dcdf80ef          	jal	afc <print_exc_msg>
    7d34:	00020537          	lui	a0,0x20
    7d38:	48850513          	addi	a0,a0,1160 # 20488 <__clz_tab+0x258>
    7d3c:	d8df80ef          	jal	ac8 <_writestr>
    7d40:	0000006f          	j	7d40 <handler_exception+0xbc>
    7d44:	0000006f          	j	7d44 <handler_exception+0xc0>

00007d48 <handler_irq_software>:
    7d48:	fc010113          	addi	sp,sp,-64
    7d4c:	02112e23          	sw	ra,60(sp)
    7d50:	02512c23          	sw	t0,56(sp)
    7d54:	02612a23          	sw	t1,52(sp)
    7d58:	02712823          	sw	t2,48(sp)
    7d5c:	02a12623          	sw	a0,44(sp)
    7d60:	02b12423          	sw	a1,40(sp)
    7d64:	02c12223          	sw	a2,36(sp)
    7d68:	02d12023          	sw	a3,32(sp)
    7d6c:	00e12e23          	sw	a4,28(sp)
    7d70:	00f12c23          	sw	a5,24(sp)
    7d74:	01012a23          	sw	a6,20(sp)
    7d78:	01112823          	sw	a7,16(sp)
    7d7c:	01c12623          	sw	t3,12(sp)
    7d80:	01d12423          	sw	t4,8(sp)
    7d84:	01e12223          	sw	t5,4(sp)
    7d88:	01f12023          	sw	t6,0(sp)
    7d8c:	00020537          	lui	a0,0x20
    7d90:	4a850513          	addi	a0,a0,1192 # 204a8 <__clz_tab+0x278>
    7d94:	d35f80ef          	jal	ac8 <_writestr>
    7d98:	0000006f          	j	7d98 <handler_irq_software+0x50>

00007d9c <handler_irq_timer>:
    7d9c:	fc010113          	addi	sp,sp,-64
    7da0:	02112e23          	sw	ra,60(sp)
    7da4:	02512c23          	sw	t0,56(sp)
    7da8:	02612a23          	sw	t1,52(sp)
    7dac:	02712823          	sw	t2,48(sp)
    7db0:	02a12623          	sw	a0,44(sp)
    7db4:	02b12423          	sw	a1,40(sp)
    7db8:	02c12223          	sw	a2,36(sp)
    7dbc:	02d12023          	sw	a3,32(sp)
    7dc0:	00e12e23          	sw	a4,28(sp)
    7dc4:	00f12c23          	sw	a5,24(sp)
    7dc8:	01012a23          	sw	a6,20(sp)
    7dcc:	01112823          	sw	a7,16(sp)
    7dd0:	01c12623          	sw	t3,12(sp)
    7dd4:	01d12423          	sw	t4,8(sp)
    7dd8:	01e12223          	sw	t5,4(sp)
    7ddc:	01f12023          	sw	t6,0(sp)
    7de0:	00020537          	lui	a0,0x20
    7de4:	4c450513          	addi	a0,a0,1220 # 204c4 <__clz_tab+0x294>
    7de8:	ce1f80ef          	jal	ac8 <_writestr>
    7dec:	0000006f          	j	7dec <handler_irq_timer+0x50>

00007df0 <init>:
    7df0:	00000513          	li	a0,0
    7df4:	00008067          	ret

00007df8 <_close>:
    7df8:	fff00513          	li	a0,-1
    7dfc:	00008067          	ret

00007e00 <_exit>:
    7e00:	200007b7          	lui	a5,0x20000
    7e04:	00a7a223          	sw	a0,4(a5) # 20000004 <_sp+0x1ffd4fc4>
    7e08:	00100713          	li	a4,1
    7e0c:	00e78023          	sb	a4,0(a5)
    7e10:	10500073          	wfi

00007e14 <_fstat>:
    7e14:	000027b7          	lui	a5,0x2
    7e18:	00f5a223          	sw	a5,4(a1)
    7e1c:	00000513          	li	a0,0
    7e20:	00008067          	ret

00007e24 <_isatty>:
    7e24:	fff50513          	addi	a0,a0,-1
    7e28:	00153513          	seqz	a0,a0
    7e2c:	00008067          	ret

00007e30 <_lseek>:
    7e30:	00000513          	li	a0,0
    7e34:	00008067          	ret

00007e38 <_read>:
    7e38:	00000513          	li	a0,0
    7e3c:	00008067          	ret

00007e40 <_write_r>:
    7e40:	ff010113          	addi	sp,sp,-16
    7e44:	00112623          	sw	ra,12(sp)
    7e48:	00058513          	mv	a0,a1
    7e4c:	00060593          	mv	a1,a2
    7e50:	00068613          	mv	a2,a3
    7e54:	f9cf80ef          	jal	5f0 <_write>
    7e58:	00c12083          	lw	ra,12(sp)
    7e5c:	01010113          	addi	sp,sp,16
    7e60:	00008067          	ret

00007e64 <_sbrk>:
    7e64:	00050713          	mv	a4,a0
    7e68:	bbc18693          	addi	a3,gp,-1092 # 23034 <__BSS_END__>
    7e6c:	000277b7          	lui	a5,0x27
    7e70:	03478793          	addi	a5,a5,52 # 27034 <__heap_end>
    7e74:	02f68c63          	beq	a3,a5,7eac <_sbrk+0x48>
    7e78:	9601a503          	lw	a0,-1696(gp) # 22dd8 <brk>
    7e7c:	00e50733          	add	a4,a0,a4
    7e80:	00d737b3          	sltu	a5,a4,a3
    7e84:	0017b793          	seqz	a5,a5
    7e88:	000276b7          	lui	a3,0x27
    7e8c:	03468693          	addi	a3,a3,52 # 27034 <__heap_end>
    7e90:	00d736b3          	sltu	a3,a4,a3
    7e94:	00d7f7b3          	and	a5,a5,a3
    7e98:	00079663          	bnez	a5,7ea4 <_sbrk+0x40>
    7e9c:	fff00513          	li	a0,-1
    7ea0:	00008067          	ret
    7ea4:	96e1a023          	sw	a4,-1696(gp) # 22dd8 <brk>
    7ea8:	00008067          	ret
    7eac:	00000513          	li	a0,0
    7eb0:	00008067          	ret

00007eb4 <spi_intr_handler_event_flash>:
    7eb4:	000237b7          	lui	a5,0x23
    7eb8:	c887a703          	lw	a4,-888(a5) # 22c88 <peripherals+0x10>
    7ebc:	00200793          	li	a5,2
    7ec0:	00f70463          	beq	a4,a5,7ec8 <spi_intr_handler_event_flash+0x14>
    7ec4:	00008067          	ret
    7ec8:	ff010113          	addi	sp,sp,-16
    7ecc:	00112623          	sw	ra,12(sp)
    7ed0:	00050593          	mv	a1,a0
    7ed4:	00023537          	lui	a0,0x23
    7ed8:	c7850513          	addi	a0,a0,-904 # 22c78 <peripherals>
    7edc:	815f80ef          	jal	6f0 <spi_event_handler>
    7ee0:	00c12083          	lw	ra,12(sp)
    7ee4:	01010113          	addi	sp,sp,16
    7ee8:	00008067          	ret

00007eec <spi_intr_handler_error_flash>:
    7eec:	000237b7          	lui	a5,0x23
    7ef0:	c887a703          	lw	a4,-888(a5) # 22c88 <peripherals+0x10>
    7ef4:	00200793          	li	a5,2
    7ef8:	00f70463          	beq	a4,a5,7f00 <spi_intr_handler_error_flash+0x14>
    7efc:	00008067          	ret
    7f00:	ff010113          	addi	sp,sp,-16
    7f04:	00112623          	sw	ra,12(sp)
    7f08:	00050593          	mv	a1,a0
    7f0c:	00023537          	lui	a0,0x23
    7f10:	c7850513          	addi	a0,a0,-904 # 22c78 <peripherals>
    7f14:	a05f80ef          	jal	918 <spi_error_handler>
    7f18:	00c12083          	lw	ra,12(sp)
    7f1c:	01010113          	addi	sp,sp,16
    7f20:	00008067          	ret

00007f24 <fic_irq_spi_flash>:
    7f24:	fe010113          	addi	sp,sp,-32
    7f28:	00112e23          	sw	ra,28(sp)
    7f2c:	200207b7          	lui	a5,0x20020
    7f30:	0347a503          	lw	a0,52(a5) # 20020034 <_sp+0x1fff4ff4>
    7f34:	03f57513          	andi	a0,a0,63
    7f38:	00050a63          	beqz	a0,7f4c <fic_irq_spi_flash+0x28>
    7f3c:	fb1ff0ef          	jal	7eec <spi_intr_handler_error_flash>
    7f40:	01c12083          	lw	ra,28(sp)
    7f44:	02010113          	addi	sp,sp,32
    7f48:	00008067          	ret
    7f4c:	20020737          	lui	a4,0x20020
    7f50:	00072783          	lw	a5,0(a4) # 20020000 <_sp+0x1fff4fc0>
    7f54:	0027e793          	ori	a5,a5,2
    7f58:	00f72023          	sw	a5,0(a4)
    7f5c:	00c10593          	addi	a1,sp,12
    7f60:	00070513          	mv	a0,a4
    7f64:	dfcf80ef          	jal	560 <spi_get_events>
    7f68:	00c12503          	lw	a0,12(sp)
    7f6c:	f49ff0ef          	jal	7eb4 <spi_intr_handler_event_flash>
    7f70:	fd1ff06f          	j	7f40 <fic_irq_spi_flash+0x1c>

00007f74 <handler_irq_fast_spi_flash>:
    7f74:	fc010113          	addi	sp,sp,-64
    7f78:	02112e23          	sw	ra,60(sp)
    7f7c:	02512c23          	sw	t0,56(sp)
    7f80:	02612a23          	sw	t1,52(sp)
    7f84:	02712823          	sw	t2,48(sp)
    7f88:	02a12623          	sw	a0,44(sp)
    7f8c:	02b12423          	sw	a1,40(sp)
    7f90:	02c12223          	sw	a2,36(sp)
    7f94:	02d12023          	sw	a3,32(sp)
    7f98:	00e12e23          	sw	a4,28(sp)
    7f9c:	00f12c23          	sw	a5,24(sp)
    7fa0:	01012a23          	sw	a6,20(sp)
    7fa4:	01112823          	sw	a7,16(sp)
    7fa8:	01c12623          	sw	t3,12(sp)
    7fac:	01d12423          	sw	t4,8(sp)
    7fb0:	01e12223          	sw	t5,4(sp)
    7fb4:	01f12023          	sw	t6,0(sp)
    7fb8:	200607b7          	lui	a5,0x20060
    7fbc:	02000713          	li	a4,32
    7fc0:	00e7a223          	sw	a4,4(a5) # 20060004 <_sp+0x20034fc4>
    7fc4:	f61ff0ef          	jal	7f24 <fic_irq_spi_flash>
    7fc8:	03c12083          	lw	ra,60(sp)
    7fcc:	03812283          	lw	t0,56(sp)
    7fd0:	03412303          	lw	t1,52(sp)
    7fd4:	03012383          	lw	t2,48(sp)
    7fd8:	02c12503          	lw	a0,44(sp)
    7fdc:	02812583          	lw	a1,40(sp)
    7fe0:	02412603          	lw	a2,36(sp)
    7fe4:	02012683          	lw	a3,32(sp)
    7fe8:	01c12703          	lw	a4,28(sp)
    7fec:	01812783          	lw	a5,24(sp)
    7ff0:	01412803          	lw	a6,20(sp)
    7ff4:	01012883          	lw	a7,16(sp)
    7ff8:	00c12e03          	lw	t3,12(sp)
    7ffc:	00812e83          	lw	t4,8(sp)
    8000:	00412f03          	lw	t5,4(sp)
    8004:	00012f83          	lw	t6,0(sp)
    8008:	04010113          	addi	sp,sp,64
    800c:	30200073          	mret

00008010 <spi_intr_handler_event_host>:
    8010:	000237b7          	lui	a5,0x23
    8014:	cd07a703          	lw	a4,-816(a5) # 22cd0 <peripherals+0x58>
    8018:	00200793          	li	a5,2
    801c:	00f70463          	beq	a4,a5,8024 <spi_intr_handler_event_host+0x14>
    8020:	00008067          	ret
    8024:	ff010113          	addi	sp,sp,-16
    8028:	00112623          	sw	ra,12(sp)
    802c:	00050593          	mv	a1,a0
    8030:	00023537          	lui	a0,0x23
    8034:	cc050513          	addi	a0,a0,-832 # 22cc0 <peripherals+0x48>
    8038:	eb8f80ef          	jal	6f0 <spi_event_handler>
    803c:	00c12083          	lw	ra,12(sp)
    8040:	01010113          	addi	sp,sp,16
    8044:	00008067          	ret

00008048 <spi_intr_handler_error_host>:
    8048:	000237b7          	lui	a5,0x23
    804c:	cd07a703          	lw	a4,-816(a5) # 22cd0 <peripherals+0x58>
    8050:	00200793          	li	a5,2
    8054:	00f70463          	beq	a4,a5,805c <spi_intr_handler_error_host+0x14>
    8058:	00008067          	ret
    805c:	ff010113          	addi	sp,sp,-16
    8060:	00112623          	sw	ra,12(sp)
    8064:	00050593          	mv	a1,a0
    8068:	00023537          	lui	a0,0x23
    806c:	cc050513          	addi	a0,a0,-832 # 22cc0 <peripherals+0x48>
    8070:	8a9f80ef          	jal	918 <spi_error_handler>
    8074:	00c12083          	lw	ra,12(sp)
    8078:	01010113          	addi	sp,sp,16
    807c:	00008067          	ret

00008080 <fic_irq_spi>:
    8080:	fe010113          	addi	sp,sp,-32
    8084:	00112e23          	sw	ra,28(sp)
    8088:	300107b7          	lui	a5,0x30010
    808c:	0347a503          	lw	a0,52(a5) # 30010034 <_sp+0x2ffe4ff4>
    8090:	03f57513          	andi	a0,a0,63
    8094:	00050a63          	beqz	a0,80a8 <fic_irq_spi+0x28>
    8098:	fb1ff0ef          	jal	8048 <spi_intr_handler_error_host>
    809c:	01c12083          	lw	ra,28(sp)
    80a0:	02010113          	addi	sp,sp,32
    80a4:	00008067          	ret
    80a8:	30010737          	lui	a4,0x30010
    80ac:	00072783          	lw	a5,0(a4) # 30010000 <_sp+0x2ffe4fc0>
    80b0:	0027e793          	ori	a5,a5,2
    80b4:	00f72023          	sw	a5,0(a4)
    80b8:	00c10593          	addi	a1,sp,12
    80bc:	00070513          	mv	a0,a4
    80c0:	ca0f80ef          	jal	560 <spi_get_events>
    80c4:	00c12503          	lw	a0,12(sp)
    80c8:	f49ff0ef          	jal	8010 <spi_intr_handler_event_host>
    80cc:	fd1ff06f          	j	809c <fic_irq_spi+0x1c>

000080d0 <handler_irq_fast_spi>:
    80d0:	fc010113          	addi	sp,sp,-64
    80d4:	02112e23          	sw	ra,60(sp)
    80d8:	02512c23          	sw	t0,56(sp)
    80dc:	02612a23          	sw	t1,52(sp)
    80e0:	02712823          	sw	t2,48(sp)
    80e4:	02a12623          	sw	a0,44(sp)
    80e8:	02b12423          	sw	a1,40(sp)
    80ec:	02c12223          	sw	a2,36(sp)
    80f0:	02d12023          	sw	a3,32(sp)
    80f4:	00e12e23          	sw	a4,28(sp)
    80f8:	00f12c23          	sw	a5,24(sp)
    80fc:	01012a23          	sw	a6,20(sp)
    8100:	01112823          	sw	a7,16(sp)
    8104:	01c12623          	sw	t3,12(sp)
    8108:	01d12423          	sw	t4,8(sp)
    810c:	01e12223          	sw	t5,4(sp)
    8110:	01f12023          	sw	t6,0(sp)
    8114:	200607b7          	lui	a5,0x20060
    8118:	01000713          	li	a4,16
    811c:	00e7a223          	sw	a4,4(a5) # 20060004 <_sp+0x20034fc4>
    8120:	f61ff0ef          	jal	8080 <fic_irq_spi>
    8124:	03c12083          	lw	ra,60(sp)
    8128:	03812283          	lw	t0,56(sp)
    812c:	03412303          	lw	t1,52(sp)
    8130:	03012383          	lw	t2,48(sp)
    8134:	02c12503          	lw	a0,44(sp)
    8138:	02812583          	lw	a1,40(sp)
    813c:	02412603          	lw	a2,36(sp)
    8140:	02012683          	lw	a3,32(sp)
    8144:	01c12703          	lw	a4,28(sp)
    8148:	01812783          	lw	a5,24(sp)
    814c:	01412803          	lw	a6,20(sp)
    8150:	01012883          	lw	a7,16(sp)
    8154:	00c12e03          	lw	t3,12(sp)
    8158:	00812e83          	lw	t4,8(sp)
    815c:	00412f03          	lw	t5,4(sp)
    8160:	00012f83          	lw	t6,0(sp)
    8164:	04010113          	addi	sp,sp,64
    8168:	30200073          	mret

0000816c <atexit>:
    816c:	00050593          	mv	a1,a0
    8170:	00000693          	li	a3,0
    8174:	00000613          	li	a2,0
    8178:	00000513          	li	a0,0
    817c:	5400006f          	j	86bc <__register_exitproc>

00008180 <std>:
    8180:	ff010113          	addi	sp,sp,-16
    8184:	00812423          	sw	s0,8(sp)
    8188:	00112623          	sw	ra,12(sp)
    818c:	00050413          	mv	s0,a0
    8190:	00b51623          	sh	a1,12(a0)
    8194:	00c51723          	sh	a2,14(a0)
    8198:	00052023          	sw	zero,0(a0)
    819c:	00052223          	sw	zero,4(a0)
    81a0:	00052423          	sw	zero,8(a0)
    81a4:	06052223          	sw	zero,100(a0)
    81a8:	00052823          	sw	zero,16(a0)
    81ac:	00052a23          	sw	zero,20(a0)
    81b0:	00052c23          	sw	zero,24(a0)
    81b4:	00800613          	li	a2,8
    81b8:	00000593          	li	a1,0
    81bc:	05c50513          	addi	a0,a0,92
    81c0:	4e0000ef          	jal	86a0 <memset>
    81c4:	000087b7          	lui	a5,0x8
    81c8:	39878793          	addi	a5,a5,920 # 8398 <__sread>
    81cc:	02f42223          	sw	a5,36(s0)
    81d0:	000087b7          	lui	a5,0x8
    81d4:	3e878793          	addi	a5,a5,1000 # 83e8 <__swrite>
    81d8:	02f42423          	sw	a5,40(s0)
    81dc:	000087b7          	lui	a5,0x8
    81e0:	46c78793          	addi	a5,a5,1132 # 846c <__sseek>
    81e4:	02f42623          	sw	a5,44(s0)
    81e8:	000087b7          	lui	a5,0x8
    81ec:	4c478793          	addi	a5,a5,1220 # 84c4 <__sclose>
    81f0:	00c12083          	lw	ra,12(sp)
    81f4:	02842023          	sw	s0,32(s0)
    81f8:	02f42823          	sw	a5,48(s0)
    81fc:	00812403          	lw	s0,8(sp)
    8200:	01010113          	addi	sp,sp,16
    8204:	00008067          	ret

00008208 <stdio_exit_handler>:
    8208:	000095b7          	lui	a1,0x9
    820c:	8d818613          	addi	a2,gp,-1832 # 22d50 <__sglue>
    8210:	da858593          	addi	a1,a1,-600 # 8da8 <_fflush_r>
    8214:	8e418513          	addi	a0,gp,-1820 # 22d5c <_impure_data>
    8218:	0d80006f          	j	82f0 <_fwalk_sglue>

0000821c <cleanup_stdio>:
    821c:	00452583          	lw	a1,4(a0)
    8220:	ff010113          	addi	sp,sp,-16
    8224:	00812423          	sw	s0,8(sp)
    8228:	00112623          	sw	ra,12(sp)
    822c:	9bc18793          	addi	a5,gp,-1604 # 22e34 <__sf>
    8230:	00050413          	mv	s0,a0
    8234:	00f58463          	beq	a1,a5,823c <cleanup_stdio+0x20>
    8238:	371000ef          	jal	8da8 <_fflush_r>
    823c:	00842583          	lw	a1,8(s0)
    8240:	a2418793          	addi	a5,gp,-1500 # 22e9c <__sf+0x68>
    8244:	00f58663          	beq	a1,a5,8250 <cleanup_stdio+0x34>
    8248:	00040513          	mv	a0,s0
    824c:	35d000ef          	jal	8da8 <_fflush_r>
    8250:	00c42583          	lw	a1,12(s0)
    8254:	a8c18793          	addi	a5,gp,-1396 # 22f04 <__sf+0xd0>
    8258:	00f58c63          	beq	a1,a5,8270 <cleanup_stdio+0x54>
    825c:	00040513          	mv	a0,s0
    8260:	00812403          	lw	s0,8(sp)
    8264:	00c12083          	lw	ra,12(sp)
    8268:	01010113          	addi	sp,sp,16
    826c:	33d0006f          	j	8da8 <_fflush_r>
    8270:	00c12083          	lw	ra,12(sp)
    8274:	00812403          	lw	s0,8(sp)
    8278:	01010113          	addi	sp,sp,16
    827c:	00008067          	ret

00008280 <global_stdio_init.part.0>:
    8280:	000087b7          	lui	a5,0x8
    8284:	ff010113          	addi	sp,sp,-16
    8288:	20878793          	addi	a5,a5,520 # 8208 <stdio_exit_handler>
    828c:	00000613          	li	a2,0
    8290:	00400593          	li	a1,4
    8294:	9bc18513          	addi	a0,gp,-1604 # 22e34 <__sf>
    8298:	00112623          	sw	ra,12(sp)
    829c:	96f1a423          	sw	a5,-1688(gp) # 22de0 <__stdio_exit_handler>
    82a0:	ee1ff0ef          	jal	8180 <std>
    82a4:	00100613          	li	a2,1
    82a8:	00900593          	li	a1,9
    82ac:	a2418513          	addi	a0,gp,-1500 # 22e9c <__sf+0x68>
    82b0:	ed1ff0ef          	jal	8180 <std>
    82b4:	00c12083          	lw	ra,12(sp)
    82b8:	00200613          	li	a2,2
    82bc:	01200593          	li	a1,18
    82c0:	a8c18513          	addi	a0,gp,-1396 # 22f04 <__sf+0xd0>
    82c4:	01010113          	addi	sp,sp,16
    82c8:	eb9ff06f          	j	8180 <std>

000082cc <__sinit>:
    82cc:	02052783          	lw	a5,32(a0)
    82d0:	00079e63          	bnez	a5,82ec <__sinit+0x20>
    82d4:	000087b7          	lui	a5,0x8
    82d8:	21c78793          	addi	a5,a5,540 # 821c <cleanup_stdio>
    82dc:	02f52023          	sw	a5,32(a0)
    82e0:	9681a783          	lw	a5,-1688(gp) # 22de0 <__stdio_exit_handler>
    82e4:	00079463          	bnez	a5,82ec <__sinit+0x20>
    82e8:	f99ff06f          	j	8280 <global_stdio_init.part.0>
    82ec:	00008067          	ret

000082f0 <_fwalk_sglue>:
    82f0:	fd010113          	addi	sp,sp,-48
    82f4:	02812423          	sw	s0,40(sp)
    82f8:	03212023          	sw	s2,32(sp)
    82fc:	01312e23          	sw	s3,28(sp)
    8300:	01412c23          	sw	s4,24(sp)
    8304:	01512a23          	sw	s5,20(sp)
    8308:	02112623          	sw	ra,44(sp)
    830c:	02912223          	sw	s1,36(sp)
    8310:	00050a13          	mv	s4,a0
    8314:	00058a93          	mv	s5,a1
    8318:	00000413          	li	s0,0
    831c:	00100913          	li	s2,1
    8320:	fff00993          	li	s3,-1
    8324:	00862583          	lw	a1,8(a2)
    8328:	00462483          	lw	s1,4(a2)
    832c:	fff48493          	addi	s1,s1,-1
    8330:	0204da63          	bgez	s1,8364 <_fwalk_sglue+0x74>
    8334:	00062603          	lw	a2,0(a2)
    8338:	fe0616e3          	bnez	a2,8324 <_fwalk_sglue+0x34>
    833c:	02c12083          	lw	ra,44(sp)
    8340:	00040513          	mv	a0,s0
    8344:	02812403          	lw	s0,40(sp)
    8348:	02412483          	lw	s1,36(sp)
    834c:	02012903          	lw	s2,32(sp)
    8350:	01c12983          	lw	s3,28(sp)
    8354:	01812a03          	lw	s4,24(sp)
    8358:	01412a83          	lw	s5,20(sp)
    835c:	03010113          	addi	sp,sp,48
    8360:	00008067          	ret
    8364:	00c5d783          	lhu	a5,12(a1)
    8368:	02f97463          	bgeu	s2,a5,8390 <_fwalk_sglue+0xa0>
    836c:	00e59783          	lh	a5,14(a1)
    8370:	03378063          	beq	a5,s3,8390 <_fwalk_sglue+0xa0>
    8374:	000a0513          	mv	a0,s4
    8378:	00c12623          	sw	a2,12(sp)
    837c:	00b12423          	sw	a1,8(sp)
    8380:	000a80e7          	jalr	s5
    8384:	00c12603          	lw	a2,12(sp)
    8388:	00812583          	lw	a1,8(sp)
    838c:	00a46433          	or	s0,s0,a0
    8390:	06858593          	addi	a1,a1,104
    8394:	f99ff06f          	j	832c <_fwalk_sglue+0x3c>

00008398 <__sread>:
    8398:	ff010113          	addi	sp,sp,-16
    839c:	00812423          	sw	s0,8(sp)
    83a0:	00058413          	mv	s0,a1
    83a4:	00e59583          	lh	a1,14(a1)
    83a8:	00112623          	sw	ra,12(sp)
    83ac:	1b8000ef          	jal	8564 <_read_r>
    83b0:	02054063          	bltz	a0,83d0 <__sread+0x38>
    83b4:	05442783          	lw	a5,84(s0)
    83b8:	00a787b3          	add	a5,a5,a0
    83bc:	04f42a23          	sw	a5,84(s0)
    83c0:	00c12083          	lw	ra,12(sp)
    83c4:	00812403          	lw	s0,8(sp)
    83c8:	01010113          	addi	sp,sp,16
    83cc:	00008067          	ret
    83d0:	00c45783          	lhu	a5,12(s0)
    83d4:	fffff737          	lui	a4,0xfffff
    83d8:	fff70713          	addi	a4,a4,-1 # ffffefff <_sp+0xfffd3fbf>
    83dc:	00e7f7b3          	and	a5,a5,a4
    83e0:	00f41623          	sh	a5,12(s0)
    83e4:	fddff06f          	j	83c0 <__sread+0x28>

000083e8 <__swrite>:
    83e8:	00c5d783          	lhu	a5,12(a1)
    83ec:	fe010113          	addi	sp,sp,-32
    83f0:	00812c23          	sw	s0,24(sp)
    83f4:	00912a23          	sw	s1,20(sp)
    83f8:	01212823          	sw	s2,16(sp)
    83fc:	01312623          	sw	s3,12(sp)
    8400:	00112e23          	sw	ra,28(sp)
    8404:	1007f793          	andi	a5,a5,256
    8408:	00050493          	mv	s1,a0
    840c:	00058413          	mv	s0,a1
    8410:	00060913          	mv	s2,a2
    8414:	00068993          	mv	s3,a3
    8418:	00078a63          	beqz	a5,842c <__swrite+0x44>
    841c:	00e59583          	lh	a1,14(a1)
    8420:	00200693          	li	a3,2
    8424:	00000613          	li	a2,0
    8428:	0ec000ef          	jal	8514 <_lseek_r>
    842c:	00c45783          	lhu	a5,12(s0)
    8430:	fffff737          	lui	a4,0xfffff
    8434:	fff70713          	addi	a4,a4,-1 # ffffefff <_sp+0xfffd3fbf>
    8438:	00e7f7b3          	and	a5,a5,a4
    843c:	00e41583          	lh	a1,14(s0)
    8440:	00f41623          	sh	a5,12(s0)
    8444:	01812403          	lw	s0,24(sp)
    8448:	01c12083          	lw	ra,28(sp)
    844c:	00098693          	mv	a3,s3
    8450:	00090613          	mv	a2,s2
    8454:	00c12983          	lw	s3,12(sp)
    8458:	01012903          	lw	s2,16(sp)
    845c:	00048513          	mv	a0,s1
    8460:	01412483          	lw	s1,20(sp)
    8464:	02010113          	addi	sp,sp,32
    8468:	9d9ff06f          	j	7e40 <_write_r>

0000846c <__sseek>:
    846c:	ff010113          	addi	sp,sp,-16
    8470:	00812423          	sw	s0,8(sp)
    8474:	00058413          	mv	s0,a1
    8478:	00e59583          	lh	a1,14(a1)
    847c:	00112623          	sw	ra,12(sp)
    8480:	094000ef          	jal	8514 <_lseek_r>
    8484:	fff00713          	li	a4,-1
    8488:	00c41783          	lh	a5,12(s0)
    848c:	02e51263          	bne	a0,a4,84b0 <__sseek+0x44>
    8490:	fffff737          	lui	a4,0xfffff
    8494:	00a70733          	add	a4,a4,a0
    8498:	00e7f7b3          	and	a5,a5,a4
    849c:	00f41623          	sh	a5,12(s0)
    84a0:	00c12083          	lw	ra,12(sp)
    84a4:	00812403          	lw	s0,8(sp)
    84a8:	01010113          	addi	sp,sp,16
    84ac:	00008067          	ret
    84b0:	00001737          	lui	a4,0x1
    84b4:	00e7e7b3          	or	a5,a5,a4
    84b8:	00f41623          	sh	a5,12(s0)
    84bc:	04a42a23          	sw	a0,84(s0)
    84c0:	fe1ff06f          	j	84a0 <__sseek+0x34>

000084c4 <__sclose>:
    84c4:	00e59583          	lh	a1,14(a1)
    84c8:	0040006f          	j	84cc <_close_r>

000084cc <_close_r>:
    84cc:	ff010113          	addi	sp,sp,-16
    84d0:	00812423          	sw	s0,8(sp)
    84d4:	00912223          	sw	s1,4(sp)
    84d8:	00050493          	mv	s1,a0
    84dc:	00058513          	mv	a0,a1
    84e0:	00112623          	sw	ra,12(sp)
    84e4:	9601a623          	sw	zero,-1684(gp) # 22de4 <errno>
    84e8:	911ff0ef          	jal	7df8 <_close>
    84ec:	fff00793          	li	a5,-1
    84f0:	00f51863          	bne	a0,a5,8500 <_close_r+0x34>
    84f4:	96c1a783          	lw	a5,-1684(gp) # 22de4 <errno>
    84f8:	00078463          	beqz	a5,8500 <_close_r+0x34>
    84fc:	00f4a023          	sw	a5,0(s1)
    8500:	00c12083          	lw	ra,12(sp)
    8504:	00812403          	lw	s0,8(sp)
    8508:	00412483          	lw	s1,4(sp)
    850c:	01010113          	addi	sp,sp,16
    8510:	00008067          	ret

00008514 <_lseek_r>:
    8514:	ff010113          	addi	sp,sp,-16
    8518:	00812423          	sw	s0,8(sp)
    851c:	00912223          	sw	s1,4(sp)
    8520:	00050493          	mv	s1,a0
    8524:	00058513          	mv	a0,a1
    8528:	00060593          	mv	a1,a2
    852c:	00068613          	mv	a2,a3
    8530:	00112623          	sw	ra,12(sp)
    8534:	9601a623          	sw	zero,-1684(gp) # 22de4 <errno>
    8538:	8f9ff0ef          	jal	7e30 <_lseek>
    853c:	fff00793          	li	a5,-1
    8540:	00f51863          	bne	a0,a5,8550 <_lseek_r+0x3c>
    8544:	96c1a783          	lw	a5,-1684(gp) # 22de4 <errno>
    8548:	00078463          	beqz	a5,8550 <_lseek_r+0x3c>
    854c:	00f4a023          	sw	a5,0(s1)
    8550:	00c12083          	lw	ra,12(sp)
    8554:	00812403          	lw	s0,8(sp)
    8558:	00412483          	lw	s1,4(sp)
    855c:	01010113          	addi	sp,sp,16
    8560:	00008067          	ret

00008564 <_read_r>:
    8564:	ff010113          	addi	sp,sp,-16
    8568:	00812423          	sw	s0,8(sp)
    856c:	00912223          	sw	s1,4(sp)
    8570:	00050493          	mv	s1,a0
    8574:	00058513          	mv	a0,a1
    8578:	00060593          	mv	a1,a2
    857c:	00068613          	mv	a2,a3
    8580:	00112623          	sw	ra,12(sp)
    8584:	9601a623          	sw	zero,-1684(gp) # 22de4 <errno>
    8588:	8b1ff0ef          	jal	7e38 <_read>
    858c:	fff00793          	li	a5,-1
    8590:	00f51863          	bne	a0,a5,85a0 <_read_r+0x3c>
    8594:	96c1a783          	lw	a5,-1684(gp) # 22de4 <errno>
    8598:	00078463          	beqz	a5,85a0 <_read_r+0x3c>
    859c:	00f4a023          	sw	a5,0(s1)
    85a0:	00c12083          	lw	ra,12(sp)
    85a4:	00812403          	lw	s0,8(sp)
    85a8:	00412483          	lw	s1,4(sp)
    85ac:	01010113          	addi	sp,sp,16
    85b0:	00008067          	ret

000085b4 <__libc_init_array>:
    85b4:	ff010113          	addi	sp,sp,-16
    85b8:	00812423          	sw	s0,8(sp)
    85bc:	00912223          	sw	s1,4(sp)
    85c0:	00023437          	lui	s0,0x23
    85c4:	000234b7          	lui	s1,0x23
    85c8:	c7840413          	addi	s0,s0,-904 # 22c78 <peripherals>
    85cc:	c7848493          	addi	s1,s1,-904 # 22c78 <peripherals>
    85d0:	408484b3          	sub	s1,s1,s0
    85d4:	01212023          	sw	s2,0(sp)
    85d8:	00112623          	sw	ra,12(sp)
    85dc:	4024d493          	srai	s1,s1,0x2
    85e0:	00000913          	li	s2,0
    85e4:	02991e63          	bne	s2,s1,8620 <__libc_init_array+0x6c>
    85e8:	00023437          	lui	s0,0x23
    85ec:	000234b7          	lui	s1,0x23
    85f0:	c7840413          	addi	s0,s0,-904 # 22c78 <peripherals>
    85f4:	c7848493          	addi	s1,s1,-904 # 22c78 <peripherals>
    85f8:	408484b3          	sub	s1,s1,s0
    85fc:	4024d493          	srai	s1,s1,0x2
    8600:	00000913          	li	s2,0
    8604:	02991863          	bne	s2,s1,8634 <__libc_init_array+0x80>
    8608:	00c12083          	lw	ra,12(sp)
    860c:	00812403          	lw	s0,8(sp)
    8610:	00412483          	lw	s1,4(sp)
    8614:	00012903          	lw	s2,0(sp)
    8618:	01010113          	addi	sp,sp,16
    861c:	00008067          	ret
    8620:	00042783          	lw	a5,0(s0)
    8624:	00190913          	addi	s2,s2,1
    8628:	00440413          	addi	s0,s0,4
    862c:	000780e7          	jalr	a5
    8630:	fb5ff06f          	j	85e4 <__libc_init_array+0x30>
    8634:	00042783          	lw	a5,0(s0)
    8638:	00190913          	addi	s2,s2,1
    863c:	00440413          	addi	s0,s0,4
    8640:	000780e7          	jalr	a5
    8644:	fc1ff06f          	j	8604 <__libc_init_array+0x50>

00008648 <__libc_fini_array>:
    8648:	ff010113          	addi	sp,sp,-16
    864c:	00812423          	sw	s0,8(sp)
    8650:	00912223          	sw	s1,4(sp)
    8654:	00023437          	lui	s0,0x23
    8658:	000234b7          	lui	s1,0x23
    865c:	c7848493          	addi	s1,s1,-904 # 22c78 <peripherals>
    8660:	c7840413          	addi	s0,s0,-904 # 22c78 <peripherals>
    8664:	40940433          	sub	s0,s0,s1
    8668:	00112623          	sw	ra,12(sp)
    866c:	40245413          	srai	s0,s0,0x2
    8670:	00041c63          	bnez	s0,8688 <__libc_fini_array+0x40>
    8674:	00c12083          	lw	ra,12(sp)
    8678:	00812403          	lw	s0,8(sp)
    867c:	00412483          	lw	s1,4(sp)
    8680:	01010113          	addi	sp,sp,16
    8684:	00008067          	ret
    8688:	fff40413          	addi	s0,s0,-1
    868c:	00241793          	slli	a5,s0,0x2
    8690:	00f487b3          	add	a5,s1,a5
    8694:	0007a783          	lw	a5,0(a5)
    8698:	000780e7          	jalr	a5
    869c:	fd5ff06f          	j	8670 <__libc_fini_array+0x28>

000086a0 <memset>:
    86a0:	00050693          	mv	a3,a0
    86a4:	00060a63          	beqz	a2,86b8 <memset+0x18>
    86a8:	00b68023          	sb	a1,0(a3)
    86ac:	fff60613          	addi	a2,a2,-1
    86b0:	00168693          	addi	a3,a3,1
    86b4:	fe061ae3          	bnez	a2,86a8 <memset+0x8>
    86b8:	00008067          	ret

000086bc <__register_exitproc>:
    86bc:	9701a783          	lw	a5,-1680(gp) # 22de8 <__atexit>
    86c0:	00079e63          	bnez	a5,86dc <__register_exitproc+0x20>
    86c4:	af418793          	addi	a5,gp,-1292 # 22f6c <__atexit0>
    86c8:	96f1a823          	sw	a5,-1680(gp) # 22de8 <__atexit>
    86cc:	00000813          	li	a6,0
    86d0:	00080663          	beqz	a6,86dc <__register_exitproc+0x20>
    86d4:	00002703          	lw	a4,0(zero) # 0 <__vector_start>
    86d8:	08e7a423          	sw	a4,136(a5)
    86dc:	0047a703          	lw	a4,4(a5)
    86e0:	01f00813          	li	a6,31
    86e4:	00e85663          	bge	a6,a4,86f0 <__register_exitproc+0x34>
    86e8:	fff00513          	li	a0,-1
    86ec:	00008067          	ret
    86f0:	04050263          	beqz	a0,8734 <__register_exitproc+0x78>
    86f4:	0887a803          	lw	a6,136(a5)
    86f8:	fe0808e3          	beqz	a6,86e8 <__register_exitproc+0x2c>
    86fc:	00271893          	slli	a7,a4,0x2
    8700:	011808b3          	add	a7,a6,a7
    8704:	00c8a023          	sw	a2,0(a7)
    8708:	10082303          	lw	t1,256(a6)
    870c:	00100613          	li	a2,1
    8710:	00e61633          	sll	a2,a2,a4
    8714:	00c36333          	or	t1,t1,a2
    8718:	10682023          	sw	t1,256(a6)
    871c:	08d8a023          	sw	a3,128(a7)
    8720:	00200693          	li	a3,2
    8724:	00d51863          	bne	a0,a3,8734 <__register_exitproc+0x78>
    8728:	10482683          	lw	a3,260(a6)
    872c:	00c6e6b3          	or	a3,a3,a2
    8730:	10d82223          	sw	a3,260(a6)
    8734:	00170693          	addi	a3,a4,1 # 1001 <inferenceTPG+0x4b1>
    8738:	00271713          	slli	a4,a4,0x2
    873c:	00d7a223          	sw	a3,4(a5)
    8740:	00e787b3          	add	a5,a5,a4
    8744:	00b7a423          	sw	a1,8(a5)
    8748:	00000513          	li	a0,0
    874c:	00008067          	ret

00008750 <__call_exitprocs>:
    8750:	fd010113          	addi	sp,sp,-48
    8754:	01512a23          	sw	s5,20(sp)
    8758:	01612823          	sw	s6,16(sp)
    875c:	01712623          	sw	s7,12(sp)
    8760:	01912223          	sw	s9,4(sp)
    8764:	02112623          	sw	ra,44(sp)
    8768:	02812423          	sw	s0,40(sp)
    876c:	02912223          	sw	s1,36(sp)
    8770:	03212023          	sw	s2,32(sp)
    8774:	01312e23          	sw	s3,28(sp)
    8778:	01412c23          	sw	s4,24(sp)
    877c:	01812423          	sw	s8,8(sp)
    8780:	00050c93          	mv	s9,a0
    8784:	00058b13          	mv	s6,a1
    8788:	00100b93          	li	s7,1
    878c:	9701a483          	lw	s1,-1680(gp) # 22de8 <__atexit>
    8790:	02048063          	beqz	s1,87b0 <__call_exitprocs+0x60>
    8794:	0044a403          	lw	s0,4(s1)
    8798:	0884a983          	lw	s3,136(s1)
    879c:	fff40913          	addi	s2,s0,-1
    87a0:	00241413          	slli	s0,s0,0x2
    87a4:	00848a33          	add	s4,s1,s0
    87a8:	00898433          	add	s0,s3,s0
    87ac:	02095c63          	bgez	s2,87e4 <__call_exitprocs+0x94>
    87b0:	02c12083          	lw	ra,44(sp)
    87b4:	02812403          	lw	s0,40(sp)
    87b8:	02412483          	lw	s1,36(sp)
    87bc:	02012903          	lw	s2,32(sp)
    87c0:	01c12983          	lw	s3,28(sp)
    87c4:	01812a03          	lw	s4,24(sp)
    87c8:	01412a83          	lw	s5,20(sp)
    87cc:	01012b03          	lw	s6,16(sp)
    87d0:	00c12b83          	lw	s7,12(sp)
    87d4:	00812c03          	lw	s8,8(sp)
    87d8:	00412c83          	lw	s9,4(sp)
    87dc:	03010113          	addi	sp,sp,48
    87e0:	00008067          	ret
    87e4:	000b0863          	beqz	s6,87f4 <__call_exitprocs+0xa4>
    87e8:	04098663          	beqz	s3,8834 <__call_exitprocs+0xe4>
    87ec:	07c42783          	lw	a5,124(s0)
    87f0:	05679263          	bne	a5,s6,8834 <__call_exitprocs+0xe4>
    87f4:	0044a703          	lw	a4,4(s1)
    87f8:	004a2783          	lw	a5,4(s4)
    87fc:	fff70713          	addi	a4,a4,-1
    8800:	05271263          	bne	a4,s2,8844 <__call_exitprocs+0xf4>
    8804:	0124a223          	sw	s2,4(s1)
    8808:	02078663          	beqz	a5,8834 <__call_exitprocs+0xe4>
    880c:	1009a683          	lw	a3,256(s3)
    8810:	012b9733          	sll	a4,s7,s2
    8814:	0044ac03          	lw	s8,4(s1)
    8818:	00d776b3          	and	a3,a4,a3
    881c:	02069863          	bnez	a3,884c <__call_exitprocs+0xfc>
    8820:	000780e7          	jalr	a5
    8824:	0044a783          	lw	a5,4(s1)
    8828:	f78792e3          	bne	a5,s8,878c <__call_exitprocs+0x3c>
    882c:	9701a783          	lw	a5,-1680(gp) # 22de8 <__atexit>
    8830:	f4f49ee3          	bne	s1,a5,878c <__call_exitprocs+0x3c>
    8834:	fff90913          	addi	s2,s2,-1
    8838:	ffca0a13          	addi	s4,s4,-4
    883c:	ffc40413          	addi	s0,s0,-4
    8840:	f6dff06f          	j	87ac <__call_exitprocs+0x5c>
    8844:	000a2223          	sw	zero,4(s4)
    8848:	fc1ff06f          	j	8808 <__call_exitprocs+0xb8>
    884c:	1049a683          	lw	a3,260(s3)
    8850:	ffc42583          	lw	a1,-4(s0)
    8854:	00d77733          	and	a4,a4,a3
    8858:	00071863          	bnez	a4,8868 <__call_exitprocs+0x118>
    885c:	000c8513          	mv	a0,s9
    8860:	000780e7          	jalr	a5
    8864:	fc1ff06f          	j	8824 <__call_exitprocs+0xd4>
    8868:	00058513          	mv	a0,a1
    886c:	000780e7          	jalr	a5
    8870:	fb5ff06f          	j	8824 <__call_exitprocs+0xd4>

00008874 <_free_r>:
    8874:	0e058a63          	beqz	a1,8968 <_free_r+0xf4>
    8878:	ffc5a783          	lw	a5,-4(a1)
    887c:	fe010113          	addi	sp,sp,-32
    8880:	00812c23          	sw	s0,24(sp)
    8884:	00112e23          	sw	ra,28(sp)
    8888:	ffc58413          	addi	s0,a1,-4
    888c:	0007d463          	bgez	a5,8894 <_free_r+0x20>
    8890:	00f40433          	add	s0,s0,a5
    8894:	00a12623          	sw	a0,12(sp)
    8898:	320000ef          	jal	8bb8 <__malloc_lock>
    889c:	9781a783          	lw	a5,-1672(gp) # 22df0 <__malloc_free_list>
    88a0:	00c12503          	lw	a0,12(sp)
    88a4:	00079e63          	bnez	a5,88c0 <_free_r+0x4c>
    88a8:	00042223          	sw	zero,4(s0)
    88ac:	9681ac23          	sw	s0,-1672(gp) # 22df0 <__malloc_free_list>
    88b0:	01812403          	lw	s0,24(sp)
    88b4:	01c12083          	lw	ra,28(sp)
    88b8:	02010113          	addi	sp,sp,32
    88bc:	3000006f          	j	8bbc <__malloc_unlock>
    88c0:	02f47463          	bgeu	s0,a5,88e8 <_free_r+0x74>
    88c4:	00042603          	lw	a2,0(s0)
    88c8:	00c406b3          	add	a3,s0,a2
    88cc:	00d79a63          	bne	a5,a3,88e0 <_free_r+0x6c>
    88d0:	0007a683          	lw	a3,0(a5)
    88d4:	0047a783          	lw	a5,4(a5)
    88d8:	00c686b3          	add	a3,a3,a2
    88dc:	00d42023          	sw	a3,0(s0)
    88e0:	00f42223          	sw	a5,4(s0)
    88e4:	fc9ff06f          	j	88ac <_free_r+0x38>
    88e8:	00078713          	mv	a4,a5
    88ec:	0047a783          	lw	a5,4(a5)
    88f0:	00078463          	beqz	a5,88f8 <_free_r+0x84>
    88f4:	fef47ae3          	bgeu	s0,a5,88e8 <_free_r+0x74>
    88f8:	00072683          	lw	a3,0(a4)
    88fc:	00d70633          	add	a2,a4,a3
    8900:	02861863          	bne	a2,s0,8930 <_free_r+0xbc>
    8904:	00042603          	lw	a2,0(s0)
    8908:	00c686b3          	add	a3,a3,a2
    890c:	00d72023          	sw	a3,0(a4)
    8910:	00d70633          	add	a2,a4,a3
    8914:	f8c79ee3          	bne	a5,a2,88b0 <_free_r+0x3c>
    8918:	0007a603          	lw	a2,0(a5)
    891c:	0047a783          	lw	a5,4(a5)
    8920:	00d606b3          	add	a3,a2,a3
    8924:	00d72023          	sw	a3,0(a4)
    8928:	00f72223          	sw	a5,4(a4)
    892c:	f85ff06f          	j	88b0 <_free_r+0x3c>
    8930:	00c47863          	bgeu	s0,a2,8940 <_free_r+0xcc>
    8934:	00c00793          	li	a5,12
    8938:	00f52023          	sw	a5,0(a0)
    893c:	f75ff06f          	j	88b0 <_free_r+0x3c>
    8940:	00042603          	lw	a2,0(s0)
    8944:	00c406b3          	add	a3,s0,a2
    8948:	00d79a63          	bne	a5,a3,895c <_free_r+0xe8>
    894c:	0007a683          	lw	a3,0(a5)
    8950:	0047a783          	lw	a5,4(a5)
    8954:	00c686b3          	add	a3,a3,a2
    8958:	00d42023          	sw	a3,0(s0)
    895c:	00f42223          	sw	a5,4(s0)
    8960:	00872223          	sw	s0,4(a4)
    8964:	f4dff06f          	j	88b0 <_free_r+0x3c>
    8968:	00008067          	ret

0000896c <sbrk_aligned>:
    896c:	ff010113          	addi	sp,sp,-16
    8970:	00812423          	sw	s0,8(sp)
    8974:	9741a783          	lw	a5,-1676(gp) # 22dec <__malloc_sbrk_start>
    8978:	00912223          	sw	s1,4(sp)
    897c:	01212023          	sw	s2,0(sp)
    8980:	00112623          	sw	ra,12(sp)
    8984:	00050913          	mv	s2,a0
    8988:	00058493          	mv	s1,a1
    898c:	00079863          	bnez	a5,899c <sbrk_aligned+0x30>
    8990:	00000593          	li	a1,0
    8994:	47c000ef          	jal	8e10 <_sbrk_r>
    8998:	96a1aa23          	sw	a0,-1676(gp) # 22dec <__malloc_sbrk_start>
    899c:	00048593          	mv	a1,s1
    89a0:	00090513          	mv	a0,s2
    89a4:	46c000ef          	jal	8e10 <_sbrk_r>
    89a8:	fff00493          	li	s1,-1
    89ac:	00050413          	mv	s0,a0
    89b0:	02950263          	beq	a0,s1,89d4 <sbrk_aligned+0x68>
    89b4:	00350413          	addi	s0,a0,3
    89b8:	ffc47413          	andi	s0,s0,-4
    89bc:	00850c63          	beq	a0,s0,89d4 <sbrk_aligned+0x68>
    89c0:	40a405b3          	sub	a1,s0,a0
    89c4:	00090513          	mv	a0,s2
    89c8:	448000ef          	jal	8e10 <_sbrk_r>
    89cc:	00951463          	bne	a0,s1,89d4 <sbrk_aligned+0x68>
    89d0:	00050413          	mv	s0,a0
    89d4:	00c12083          	lw	ra,12(sp)
    89d8:	00040513          	mv	a0,s0
    89dc:	00812403          	lw	s0,8(sp)
    89e0:	00412483          	lw	s1,4(sp)
    89e4:	00012903          	lw	s2,0(sp)
    89e8:	01010113          	addi	sp,sp,16
    89ec:	00008067          	ret

000089f0 <_malloc_r>:
    89f0:	fe010113          	addi	sp,sp,-32
    89f4:	00912a23          	sw	s1,20(sp)
    89f8:	00358493          	addi	s1,a1,3
    89fc:	ffc4f493          	andi	s1,s1,-4
    8a00:	00112e23          	sw	ra,28(sp)
    8a04:	00812c23          	sw	s0,24(sp)
    8a08:	01212823          	sw	s2,16(sp)
    8a0c:	01312623          	sw	s3,12(sp)
    8a10:	01412423          	sw	s4,8(sp)
    8a14:	01512223          	sw	s5,4(sp)
    8a18:	00848493          	addi	s1,s1,8
    8a1c:	00c00793          	li	a5,12
    8a20:	00f4f463          	bgeu	s1,a5,8a28 <_malloc_r+0x38>
    8a24:	00078493          	mv	s1,a5
    8a28:	0004c463          	bltz	s1,8a30 <_malloc_r+0x40>
    8a2c:	02b4fc63          	bgeu	s1,a1,8a64 <_malloc_r+0x74>
    8a30:	00c00793          	li	a5,12
    8a34:	00f52023          	sw	a5,0(a0)
    8a38:	00000913          	li	s2,0
    8a3c:	01c12083          	lw	ra,28(sp)
    8a40:	01812403          	lw	s0,24(sp)
    8a44:	01412483          	lw	s1,20(sp)
    8a48:	00c12983          	lw	s3,12(sp)
    8a4c:	00812a03          	lw	s4,8(sp)
    8a50:	00412a83          	lw	s5,4(sp)
    8a54:	00090513          	mv	a0,s2
    8a58:	01012903          	lw	s2,16(sp)
    8a5c:	02010113          	addi	sp,sp,32
    8a60:	00008067          	ret
    8a64:	00050993          	mv	s3,a0
    8a68:	150000ef          	jal	8bb8 <__malloc_lock>
    8a6c:	9781a783          	lw	a5,-1672(gp) # 22df0 <__malloc_free_list>
    8a70:	00078413          	mv	s0,a5
    8a74:	08041063          	bnez	s0,8af4 <_malloc_r+0x104>
    8a78:	00048593          	mv	a1,s1
    8a7c:	00098513          	mv	a0,s3
    8a80:	eedff0ef          	jal	896c <sbrk_aligned>
    8a84:	fff00793          	li	a5,-1
    8a88:	00050413          	mv	s0,a0
    8a8c:	12f51263          	bne	a0,a5,8bb0 <_malloc_r+0x1c0>
    8a90:	9781a403          	lw	s0,-1672(gp) # 22df0 <__malloc_free_list>
    8a94:	00040913          	mv	s2,s0
    8a98:	0e091263          	bnez	s2,8b7c <_malloc_r+0x18c>
    8a9c:	10040063          	beqz	s0,8b9c <_malloc_r+0x1ac>
    8aa0:	00042a83          	lw	s5,0(s0)
    8aa4:	00000593          	li	a1,0
    8aa8:	00098513          	mv	a0,s3
    8aac:	01540ab3          	add	s5,s0,s5
    8ab0:	360000ef          	jal	8e10 <_sbrk_r>
    8ab4:	0eaa9463          	bne	s5,a0,8b9c <_malloc_r+0x1ac>
    8ab8:	00042783          	lw	a5,0(s0)
    8abc:	00098513          	mv	a0,s3
    8ac0:	40f484b3          	sub	s1,s1,a5
    8ac4:	00048593          	mv	a1,s1
    8ac8:	ea5ff0ef          	jal	896c <sbrk_aligned>
    8acc:	fff00793          	li	a5,-1
    8ad0:	0cf50663          	beq	a0,a5,8b9c <_malloc_r+0x1ac>
    8ad4:	00042783          	lw	a5,0(s0)
    8ad8:	009787b3          	add	a5,a5,s1
    8adc:	00f42023          	sw	a5,0(s0)
    8ae0:	9781a783          	lw	a5,-1672(gp) # 22df0 <__malloc_free_list>
    8ae4:	0047a703          	lw	a4,4(a5)
    8ae8:	0a071063          	bnez	a4,8b88 <_malloc_r+0x198>
    8aec:	9601ac23          	sw	zero,-1672(gp) # 22df0 <__malloc_free_list>
    8af0:	0340006f          	j	8b24 <_malloc_r+0x134>
    8af4:	00042683          	lw	a3,0(s0)
    8af8:	409686b3          	sub	a3,a3,s1
    8afc:	0606ca63          	bltz	a3,8b70 <_malloc_r+0x180>
    8b00:	00b00713          	li	a4,11
    8b04:	04d77a63          	bgeu	a4,a3,8b58 <_malloc_r+0x168>
    8b08:	00942023          	sw	s1,0(s0)
    8b0c:	00940733          	add	a4,s0,s1
    8b10:	04879063          	bne	a5,s0,8b50 <_malloc_r+0x160>
    8b14:	96e1ac23          	sw	a4,-1672(gp) # 22df0 <__malloc_free_list>
    8b18:	00442783          	lw	a5,4(s0)
    8b1c:	00d72023          	sw	a3,0(a4)
    8b20:	00f72223          	sw	a5,4(a4)
    8b24:	00098513          	mv	a0,s3
    8b28:	094000ef          	jal	8bbc <__malloc_unlock>
    8b2c:	00b40913          	addi	s2,s0,11
    8b30:	00440793          	addi	a5,s0,4
    8b34:	ff897913          	andi	s2,s2,-8
    8b38:	40f90733          	sub	a4,s2,a5
    8b3c:	f0f900e3          	beq	s2,a5,8a3c <_malloc_r+0x4c>
    8b40:	00e40433          	add	s0,s0,a4
    8b44:	412787b3          	sub	a5,a5,s2
    8b48:	00f42023          	sw	a5,0(s0)
    8b4c:	ef1ff06f          	j	8a3c <_malloc_r+0x4c>
    8b50:	00e7a223          	sw	a4,4(a5)
    8b54:	fc5ff06f          	j	8b18 <_malloc_r+0x128>
    8b58:	00442703          	lw	a4,4(s0)
    8b5c:	00879663          	bne	a5,s0,8b68 <_malloc_r+0x178>
    8b60:	96e1ac23          	sw	a4,-1672(gp) # 22df0 <__malloc_free_list>
    8b64:	fc1ff06f          	j	8b24 <_malloc_r+0x134>
    8b68:	00e7a223          	sw	a4,4(a5)
    8b6c:	fb9ff06f          	j	8b24 <_malloc_r+0x134>
    8b70:	00040793          	mv	a5,s0
    8b74:	00442403          	lw	s0,4(s0)
    8b78:	efdff06f          	j	8a74 <_malloc_r+0x84>
    8b7c:	00090413          	mv	s0,s2
    8b80:	00492903          	lw	s2,4(s2)
    8b84:	f15ff06f          	j	8a98 <_malloc_r+0xa8>
    8b88:	00078713          	mv	a4,a5
    8b8c:	0047a783          	lw	a5,4(a5)
    8b90:	fe879ce3          	bne	a5,s0,8b88 <_malloc_r+0x198>
    8b94:	00072223          	sw	zero,4(a4)
    8b98:	f8dff06f          	j	8b24 <_malloc_r+0x134>
    8b9c:	00c00793          	li	a5,12
    8ba0:	00f9a023          	sw	a5,0(s3)
    8ba4:	00098513          	mv	a0,s3
    8ba8:	014000ef          	jal	8bbc <__malloc_unlock>
    8bac:	e91ff06f          	j	8a3c <_malloc_r+0x4c>
    8bb0:	00952023          	sw	s1,0(a0)
    8bb4:	f71ff06f          	j	8b24 <_malloc_r+0x134>

00008bb8 <__malloc_lock>:
    8bb8:	00008067          	ret

00008bbc <__malloc_unlock>:
    8bbc:	00008067          	ret

00008bc0 <__sflush_r>:
    8bc0:	00c59783          	lh	a5,12(a1)
    8bc4:	fe010113          	addi	sp,sp,-32
    8bc8:	00812c23          	sw	s0,24(sp)
    8bcc:	00912a23          	sw	s1,20(sp)
    8bd0:	00112e23          	sw	ra,28(sp)
    8bd4:	01212823          	sw	s2,16(sp)
    8bd8:	0087f713          	andi	a4,a5,8
    8bdc:	00050493          	mv	s1,a0
    8be0:	00058413          	mv	s0,a1
    8be4:	14071c63          	bnez	a4,8d3c <__sflush_r+0x17c>
    8be8:	0045a703          	lw	a4,4(a1)
    8bec:	00e04663          	bgtz	a4,8bf8 <__sflush_r+0x38>
    8bf0:	0405a703          	lw	a4,64(a1)
    8bf4:	00e05663          	blez	a4,8c00 <__sflush_r+0x40>
    8bf8:	02c42703          	lw	a4,44(s0)
    8bfc:	02071063          	bnez	a4,8c1c <__sflush_r+0x5c>
    8c00:	00000513          	li	a0,0
    8c04:	01c12083          	lw	ra,28(sp)
    8c08:	01812403          	lw	s0,24(sp)
    8c0c:	01412483          	lw	s1,20(sp)
    8c10:	01012903          	lw	s2,16(sp)
    8c14:	02010113          	addi	sp,sp,32
    8c18:	00008067          	ret
    8c1c:	0004a903          	lw	s2,0(s1)
    8c20:	01379693          	slli	a3,a5,0x13
    8c24:	0004a023          	sw	zero,0(s1)
    8c28:	0a06de63          	bgez	a3,8ce4 <__sflush_r+0x124>
    8c2c:	05442503          	lw	a0,84(s0)
    8c30:	00c45783          	lhu	a5,12(s0)
    8c34:	0047f793          	andi	a5,a5,4
    8c38:	00078e63          	beqz	a5,8c54 <__sflush_r+0x94>
    8c3c:	00442783          	lw	a5,4(s0)
    8c40:	40f50533          	sub	a0,a0,a5
    8c44:	03442783          	lw	a5,52(s0)
    8c48:	00078663          	beqz	a5,8c54 <__sflush_r+0x94>
    8c4c:	04042783          	lw	a5,64(s0)
    8c50:	40f50533          	sub	a0,a0,a5
    8c54:	02c42783          	lw	a5,44(s0)
    8c58:	02042583          	lw	a1,32(s0)
    8c5c:	00050613          	mv	a2,a0
    8c60:	00000693          	li	a3,0
    8c64:	00048513          	mv	a0,s1
    8c68:	000780e7          	jalr	a5
    8c6c:	fff00793          	li	a5,-1
    8c70:	00c41703          	lh	a4,12(s0)
    8c74:	02f51263          	bne	a0,a5,8c98 <__sflush_r+0xd8>
    8c78:	0004a683          	lw	a3,0(s1)
    8c7c:	01d00793          	li	a5,29
    8c80:	0ad7e863          	bltu	a5,a3,8d30 <__sflush_r+0x170>
    8c84:	204007b7          	lui	a5,0x20400
    8c88:	00178793          	addi	a5,a5,1 # 20400001 <_sp+0x203d4fc1>
    8c8c:	00d7d7b3          	srl	a5,a5,a3
    8c90:	0017f793          	andi	a5,a5,1
    8c94:	08078e63          	beqz	a5,8d30 <__sflush_r+0x170>
    8c98:	01042783          	lw	a5,16(s0)
    8c9c:	00042223          	sw	zero,4(s0)
    8ca0:	00f42023          	sw	a5,0(s0)
    8ca4:	01371793          	slli	a5,a4,0x13
    8ca8:	0007dc63          	bgez	a5,8cc0 <__sflush_r+0x100>
    8cac:	fff00793          	li	a5,-1
    8cb0:	00f51663          	bne	a0,a5,8cbc <__sflush_r+0xfc>
    8cb4:	0004a783          	lw	a5,0(s1)
    8cb8:	00079463          	bnez	a5,8cc0 <__sflush_r+0x100>
    8cbc:	04a42a23          	sw	a0,84(s0)
    8cc0:	03442583          	lw	a1,52(s0)
    8cc4:	0124a023          	sw	s2,0(s1)
    8cc8:	f2058ce3          	beqz	a1,8c00 <__sflush_r+0x40>
    8ccc:	04440793          	addi	a5,s0,68
    8cd0:	00f58663          	beq	a1,a5,8cdc <__sflush_r+0x11c>
    8cd4:	00048513          	mv	a0,s1
    8cd8:	b9dff0ef          	jal	8874 <_free_r>
    8cdc:	02042a23          	sw	zero,52(s0)
    8ce0:	f21ff06f          	j	8c00 <__sflush_r+0x40>
    8ce4:	02042583          	lw	a1,32(s0)
    8ce8:	00100693          	li	a3,1
    8cec:	00000613          	li	a2,0
    8cf0:	00048513          	mv	a0,s1
    8cf4:	000700e7          	jalr	a4
    8cf8:	fff00793          	li	a5,-1
    8cfc:	f2f51ae3          	bne	a0,a5,8c30 <__sflush_r+0x70>
    8d00:	0004a783          	lw	a5,0(s1)
    8d04:	f20786e3          	beqz	a5,8c30 <__sflush_r+0x70>
    8d08:	fea78713          	addi	a4,a5,-22
    8d0c:	00070663          	beqz	a4,8d18 <__sflush_r+0x158>
    8d10:	fe378793          	addi	a5,a5,-29
    8d14:	00079663          	bnez	a5,8d20 <__sflush_r+0x160>
    8d18:	0124a023          	sw	s2,0(s1)
    8d1c:	ee5ff06f          	j	8c00 <__sflush_r+0x40>
    8d20:	00c45783          	lhu	a5,12(s0)
    8d24:	0407e793          	ori	a5,a5,64
    8d28:	00f41623          	sh	a5,12(s0)
    8d2c:	ed9ff06f          	j	8c04 <__sflush_r+0x44>
    8d30:	04076713          	ori	a4,a4,64
    8d34:	00e41623          	sh	a4,12(s0)
    8d38:	ecdff06f          	j	8c04 <__sflush_r+0x44>
    8d3c:	0105a603          	lw	a2,16(a1)
    8d40:	ec0600e3          	beqz	a2,8c00 <__sflush_r+0x40>
    8d44:	0005a683          	lw	a3,0(a1)
    8d48:	0037f793          	andi	a5,a5,3
    8d4c:	00c5a023          	sw	a2,0(a1)
    8d50:	40c68933          	sub	s2,a3,a2
    8d54:	00000713          	li	a4,0
    8d58:	00079463          	bnez	a5,8d60 <__sflush_r+0x1a0>
    8d5c:	0145a703          	lw	a4,20(a1)
    8d60:	00e42423          	sw	a4,8(s0)
    8d64:	e9205ee3          	blez	s2,8c00 <__sflush_r+0x40>
    8d68:	02842783          	lw	a5,40(s0)
    8d6c:	02042583          	lw	a1,32(s0)
    8d70:	00090693          	mv	a3,s2
    8d74:	00048513          	mv	a0,s1
    8d78:	00c12623          	sw	a2,12(sp)
    8d7c:	000780e7          	jalr	a5
    8d80:	00c12603          	lw	a2,12(sp)
    8d84:	00a04c63          	bgtz	a0,8d9c <__sflush_r+0x1dc>
    8d88:	00c45783          	lhu	a5,12(s0)
    8d8c:	fff00513          	li	a0,-1
    8d90:	0407e793          	ori	a5,a5,64
    8d94:	00f41623          	sh	a5,12(s0)
    8d98:	e6dff06f          	j	8c04 <__sflush_r+0x44>
    8d9c:	00a60633          	add	a2,a2,a0
    8da0:	40a90933          	sub	s2,s2,a0
    8da4:	fc1ff06f          	j	8d64 <__sflush_r+0x1a4>

00008da8 <_fflush_r>:
    8da8:	0105a783          	lw	a5,16(a1)
    8dac:	04078e63          	beqz	a5,8e08 <_fflush_r+0x60>
    8db0:	fe010113          	addi	sp,sp,-32
    8db4:	00812c23          	sw	s0,24(sp)
    8db8:	00112e23          	sw	ra,28(sp)
    8dbc:	00050413          	mv	s0,a0
    8dc0:	00050c63          	beqz	a0,8dd8 <_fflush_r+0x30>
    8dc4:	02052783          	lw	a5,32(a0)
    8dc8:	00079863          	bnez	a5,8dd8 <_fflush_r+0x30>
    8dcc:	00b12623          	sw	a1,12(sp)
    8dd0:	cfcff0ef          	jal	82cc <__sinit>
    8dd4:	00c12583          	lw	a1,12(sp)
    8dd8:	00c59783          	lh	a5,12(a1)
    8ddc:	00078c63          	beqz	a5,8df4 <_fflush_r+0x4c>
    8de0:	00040513          	mv	a0,s0
    8de4:	01812403          	lw	s0,24(sp)
    8de8:	01c12083          	lw	ra,28(sp)
    8dec:	02010113          	addi	sp,sp,32
    8df0:	dd1ff06f          	j	8bc0 <__sflush_r>
    8df4:	01c12083          	lw	ra,28(sp)
    8df8:	01812403          	lw	s0,24(sp)
    8dfc:	00000513          	li	a0,0
    8e00:	02010113          	addi	sp,sp,32
    8e04:	00008067          	ret
    8e08:	00000513          	li	a0,0
    8e0c:	00008067          	ret

00008e10 <_sbrk_r>:
    8e10:	ff010113          	addi	sp,sp,-16
    8e14:	00812423          	sw	s0,8(sp)
    8e18:	00912223          	sw	s1,4(sp)
    8e1c:	00050493          	mv	s1,a0
    8e20:	00058513          	mv	a0,a1
    8e24:	00112623          	sw	ra,12(sp)
    8e28:	9601a623          	sw	zero,-1684(gp) # 22de4 <errno>
    8e2c:	838ff0ef          	jal	7e64 <_sbrk>
    8e30:	fff00793          	li	a5,-1
    8e34:	00f51863          	bne	a0,a5,8e44 <_sbrk_r+0x34>
    8e38:	96c1a783          	lw	a5,-1684(gp) # 22de4 <errno>
    8e3c:	00078463          	beqz	a5,8e44 <_sbrk_r+0x34>
    8e40:	00f4a023          	sw	a5,0(s1)
    8e44:	00c12083          	lw	ra,12(sp)
    8e48:	00812403          	lw	s0,8(sp)
    8e4c:	00412483          	lw	s1,4(sp)
    8e50:	01010113          	addi	sp,sp,16
    8e54:	00008067          	ret

00008e58 <iprintf>:
    8e58:	fc010113          	addi	sp,sp,-64
    8e5c:	02f12a23          	sw	a5,52(sp)
    8e60:	9641a783          	lw	a5,-1692(gp) # 22ddc <_impure_ptr>
    8e64:	02c12423          	sw	a2,40(sp)
    8e68:	02d12623          	sw	a3,44(sp)
    8e6c:	02b12223          	sw	a1,36(sp)
    8e70:	02e12823          	sw	a4,48(sp)
    8e74:	03012c23          	sw	a6,56(sp)
    8e78:	03112e23          	sw	a7,60(sp)
    8e7c:	0087a583          	lw	a1,8(a5)
    8e80:	02410693          	addi	a3,sp,36
    8e84:	00050613          	mv	a2,a0
    8e88:	00078513          	mv	a0,a5
    8e8c:	00112e23          	sw	ra,28(sp)
    8e90:	00d12623          	sw	a3,12(sp)
    8e94:	414000ef          	jal	92a8 <_vfiprintf_r>
    8e98:	01c12083          	lw	ra,28(sp)
    8e9c:	04010113          	addi	sp,sp,64
    8ea0:	00008067          	ret

00008ea4 <_puts_r>:
    8ea4:	02052783          	lw	a5,32(a0)
    8ea8:	fe010113          	addi	sp,sp,-32
    8eac:	00812c23          	sw	s0,24(sp)
    8eb0:	00912a23          	sw	s1,20(sp)
    8eb4:	01212823          	sw	s2,16(sp)
    8eb8:	00112e23          	sw	ra,28(sp)
    8ebc:	01312623          	sw	s3,12(sp)
    8ec0:	00852403          	lw	s0,8(a0)
    8ec4:	00050493          	mv	s1,a0
    8ec8:	00058913          	mv	s2,a1
    8ecc:	00079463          	bnez	a5,8ed4 <_puts_r+0x30>
    8ed0:	bfcff0ef          	jal	82cc <__sinit>
    8ed4:	00c45783          	lhu	a5,12(s0)
    8ed8:	0087f793          	andi	a5,a5,8
    8edc:	00078663          	beqz	a5,8ee8 <_puts_r+0x44>
    8ee0:	01042783          	lw	a5,16(s0)
    8ee4:	0a079663          	bnez	a5,8f90 <_puts_r+0xec>
    8ee8:	00040593          	mv	a1,s0
    8eec:	00048513          	mv	a0,s1
    8ef0:	1c8000ef          	jal	90b8 <__swsetup_r>
    8ef4:	00050793          	mv	a5,a0
    8ef8:	fff00513          	li	a0,-1
    8efc:	08078a63          	beqz	a5,8f90 <_puts_r+0xec>
    8f00:	01c12083          	lw	ra,28(sp)
    8f04:	01812403          	lw	s0,24(sp)
    8f08:	01412483          	lw	s1,20(sp)
    8f0c:	01012903          	lw	s2,16(sp)
    8f10:	00c12983          	lw	s3,12(sp)
    8f14:	02010113          	addi	sp,sp,32
    8f18:	00008067          	ret
    8f1c:	0007da63          	bgez	a5,8f30 <_puts_r+0x8c>
    8f20:	01842703          	lw	a4,24(s0)
    8f24:	04e7cc63          	blt	a5,a4,8f7c <_puts_r+0xd8>
    8f28:	ff658793          	addi	a5,a1,-10
    8f2c:	04078863          	beqz	a5,8f7c <_puts_r+0xd8>
    8f30:	00042783          	lw	a5,0(s0)
    8f34:	00178713          	addi	a4,a5,1
    8f38:	00e42023          	sw	a4,0(s0)
    8f3c:	00b78023          	sb	a1,0(a5)
    8f40:	00190913          	addi	s2,s2,1
    8f44:	00842783          	lw	a5,8(s0)
    8f48:	00094583          	lbu	a1,0(s2)
    8f4c:	fff78793          	addi	a5,a5,-1
    8f50:	00f42423          	sw	a5,8(s0)
    8f54:	fc0594e3          	bnez	a1,8f1c <_puts_r+0x78>
    8f58:	0407d063          	bgez	a5,8f98 <_puts_r+0xf4>
    8f5c:	00040613          	mv	a2,s0
    8f60:	00a00593          	li	a1,10
    8f64:	00048513          	mv	a0,s1
    8f68:	054000ef          	jal	8fbc <__swbuf_r>
    8f6c:	fff00793          	li	a5,-1
    8f70:	f8f508e3          	beq	a0,a5,8f00 <_puts_r+0x5c>
    8f74:	00a00513          	li	a0,10
    8f78:	f89ff06f          	j	8f00 <_puts_r+0x5c>
    8f7c:	00040613          	mv	a2,s0
    8f80:	00048513          	mv	a0,s1
    8f84:	038000ef          	jal	8fbc <__swbuf_r>
    8f88:	fb351ce3          	bne	a0,s3,8f40 <_puts_r+0x9c>
    8f8c:	f75ff06f          	j	8f00 <_puts_r+0x5c>
    8f90:	fff00993          	li	s3,-1
    8f94:	fb1ff06f          	j	8f44 <_puts_r+0xa0>
    8f98:	00042783          	lw	a5,0(s0)
    8f9c:	00a00513          	li	a0,10
    8fa0:	00178713          	addi	a4,a5,1
    8fa4:	00e42023          	sw	a4,0(s0)
    8fa8:	00a78023          	sb	a0,0(a5)
    8fac:	f55ff06f          	j	8f00 <_puts_r+0x5c>

00008fb0 <puts>:
    8fb0:	00050593          	mv	a1,a0
    8fb4:	9641a503          	lw	a0,-1692(gp) # 22ddc <_impure_ptr>
    8fb8:	eedff06f          	j	8ea4 <_puts_r>

00008fbc <__swbuf_r>:
    8fbc:	fe010113          	addi	sp,sp,-32
    8fc0:	00812c23          	sw	s0,24(sp)
    8fc4:	00912a23          	sw	s1,20(sp)
    8fc8:	01312623          	sw	s3,12(sp)
    8fcc:	00112e23          	sw	ra,28(sp)
    8fd0:	01212823          	sw	s2,16(sp)
    8fd4:	00050493          	mv	s1,a0
    8fd8:	00058993          	mv	s3,a1
    8fdc:	00060413          	mv	s0,a2
    8fe0:	00050863          	beqz	a0,8ff0 <__swbuf_r+0x34>
    8fe4:	02052783          	lw	a5,32(a0)
    8fe8:	00079463          	bnez	a5,8ff0 <__swbuf_r+0x34>
    8fec:	ae0ff0ef          	jal	82cc <__sinit>
    8ff0:	01842783          	lw	a5,24(s0)
    8ff4:	00f42423          	sw	a5,8(s0)
    8ff8:	00c45783          	lhu	a5,12(s0)
    8ffc:	0087f793          	andi	a5,a5,8
    9000:	0a078063          	beqz	a5,90a0 <__swbuf_r+0xe4>
    9004:	01042783          	lw	a5,16(s0)
    9008:	08078c63          	beqz	a5,90a0 <__swbuf_r+0xe4>
    900c:	01042783          	lw	a5,16(s0)
    9010:	00042503          	lw	a0,0(s0)
    9014:	40f50533          	sub	a0,a0,a5
    9018:	01442783          	lw	a5,20(s0)
    901c:	00f54a63          	blt	a0,a5,9030 <__swbuf_r+0x74>
    9020:	00040593          	mv	a1,s0
    9024:	00048513          	mv	a0,s1
    9028:	d81ff0ef          	jal	8da8 <_fflush_r>
    902c:	08051263          	bnez	a0,90b0 <__swbuf_r+0xf4>
    9030:	00842783          	lw	a5,8(s0)
    9034:	00150513          	addi	a0,a0,1
    9038:	0ff9f913          	zext.b	s2,s3
    903c:	fff78793          	addi	a5,a5,-1
    9040:	00f42423          	sw	a5,8(s0)
    9044:	00042783          	lw	a5,0(s0)
    9048:	00178713          	addi	a4,a5,1
    904c:	00e42023          	sw	a4,0(s0)
    9050:	01378023          	sb	s3,0(a5)
    9054:	01442783          	lw	a5,20(s0)
    9058:	00a78c63          	beq	a5,a0,9070 <__swbuf_r+0xb4>
    905c:	ff690793          	addi	a5,s2,-10
    9060:	02079063          	bnez	a5,9080 <__swbuf_r+0xc4>
    9064:	00c45783          	lhu	a5,12(s0)
    9068:	0017f793          	andi	a5,a5,1
    906c:	00078a63          	beqz	a5,9080 <__swbuf_r+0xc4>
    9070:	00040593          	mv	a1,s0
    9074:	00048513          	mv	a0,s1
    9078:	d31ff0ef          	jal	8da8 <_fflush_r>
    907c:	02051a63          	bnez	a0,90b0 <__swbuf_r+0xf4>
    9080:	01c12083          	lw	ra,28(sp)
    9084:	01812403          	lw	s0,24(sp)
    9088:	01412483          	lw	s1,20(sp)
    908c:	00c12983          	lw	s3,12(sp)
    9090:	00090513          	mv	a0,s2
    9094:	01012903          	lw	s2,16(sp)
    9098:	02010113          	addi	sp,sp,32
    909c:	00008067          	ret
    90a0:	00040593          	mv	a1,s0
    90a4:	00048513          	mv	a0,s1
    90a8:	010000ef          	jal	90b8 <__swsetup_r>
    90ac:	f60500e3          	beqz	a0,900c <__swbuf_r+0x50>
    90b0:	fff00913          	li	s2,-1
    90b4:	fcdff06f          	j	9080 <__swbuf_r+0xc4>

000090b8 <__swsetup_r>:
    90b8:	ff010113          	addi	sp,sp,-16
    90bc:	00912223          	sw	s1,4(sp)
    90c0:	00050493          	mv	s1,a0
    90c4:	9641a503          	lw	a0,-1692(gp) # 22ddc <_impure_ptr>
    90c8:	00812423          	sw	s0,8(sp)
    90cc:	00112623          	sw	ra,12(sp)
    90d0:	00058413          	mv	s0,a1
    90d4:	00050863          	beqz	a0,90e4 <__swsetup_r+0x2c>
    90d8:	02052783          	lw	a5,32(a0)
    90dc:	00079463          	bnez	a5,90e4 <__swsetup_r+0x2c>
    90e0:	9ecff0ef          	jal	82cc <__sinit>
    90e4:	00c41783          	lh	a5,12(s0)
    90e8:	0087f713          	andi	a4,a5,8
    90ec:	06071a63          	bnez	a4,9160 <__swsetup_r+0xa8>
    90f0:	0107f713          	andi	a4,a5,16
    90f4:	02071663          	bnez	a4,9120 <__swsetup_r+0x68>
    90f8:	00900713          	li	a4,9
    90fc:	00e4a023          	sw	a4,0(s1)
    9100:	0407e793          	ori	a5,a5,64
    9104:	00f41623          	sh	a5,12(s0)
    9108:	fff00513          	li	a0,-1
    910c:	00c12083          	lw	ra,12(sp)
    9110:	00812403          	lw	s0,8(sp)
    9114:	00412483          	lw	s1,4(sp)
    9118:	01010113          	addi	sp,sp,16
    911c:	00008067          	ret
    9120:	0047f713          	andi	a4,a5,4
    9124:	02070a63          	beqz	a4,9158 <__swsetup_r+0xa0>
    9128:	03442583          	lw	a1,52(s0)
    912c:	00058c63          	beqz	a1,9144 <__swsetup_r+0x8c>
    9130:	04440793          	addi	a5,s0,68
    9134:	00f58663          	beq	a1,a5,9140 <__swsetup_r+0x88>
    9138:	00048513          	mv	a0,s1
    913c:	f38ff0ef          	jal	8874 <_free_r>
    9140:	02042a23          	sw	zero,52(s0)
    9144:	00c45783          	lhu	a5,12(s0)
    9148:	01042703          	lw	a4,16(s0)
    914c:	00042223          	sw	zero,4(s0)
    9150:	fdb7f793          	andi	a5,a5,-37
    9154:	00e42023          	sw	a4,0(s0)
    9158:	0087e793          	ori	a5,a5,8
    915c:	00f41623          	sh	a5,12(s0)
    9160:	01042783          	lw	a5,16(s0)
    9164:	02079063          	bnez	a5,9184 <__swsetup_r+0xcc>
    9168:	00c42783          	lw	a5,12(s0)
    916c:	20000713          	li	a4,512
    9170:	2807f793          	andi	a5,a5,640
    9174:	00e78863          	beq	a5,a4,9184 <__swsetup_r+0xcc>
    9178:	00040593          	mv	a1,s0
    917c:	00048513          	mv	a0,s1
    9180:	25d000ef          	jal	9bdc <__smakebuf_r>
    9184:	00c41783          	lh	a5,12(s0)
    9188:	0017f713          	andi	a4,a5,1
    918c:	02070263          	beqz	a4,91b0 <__swsetup_r+0xf8>
    9190:	01442703          	lw	a4,20(s0)
    9194:	00042423          	sw	zero,8(s0)
    9198:	40e00733          	neg	a4,a4
    919c:	00e42c23          	sw	a4,24(s0)
    91a0:	01042703          	lw	a4,16(s0)
    91a4:	02070263          	beqz	a4,91c8 <__swsetup_r+0x110>
    91a8:	00000513          	li	a0,0
    91ac:	f61ff06f          	j	910c <__swsetup_r+0x54>
    91b0:	0027f713          	andi	a4,a5,2
    91b4:	00000693          	li	a3,0
    91b8:	00071463          	bnez	a4,91c0 <__swsetup_r+0x108>
    91bc:	01442683          	lw	a3,20(s0)
    91c0:	00d42423          	sw	a3,8(s0)
    91c4:	fddff06f          	j	91a0 <__swsetup_r+0xe8>
    91c8:	0807f713          	andi	a4,a5,128
    91cc:	fc070ee3          	beqz	a4,91a8 <__swsetup_r+0xf0>
    91d0:	f31ff06f          	j	9100 <__swsetup_r+0x48>

000091d4 <__errno>:
    91d4:	9641a503          	lw	a0,-1692(gp) # 22ddc <_impure_ptr>
    91d8:	00008067          	ret

000091dc <strlen>:
    91dc:	00050793          	mv	a5,a0
    91e0:	0007c703          	lbu	a4,0(a5)
    91e4:	00178793          	addi	a5,a5,1
    91e8:	fe071ce3          	bnez	a4,91e0 <strlen+0x4>
    91ec:	40a78533          	sub	a0,a5,a0
    91f0:	fff50513          	addi	a0,a0,-1
    91f4:	00008067          	ret

000091f8 <__sfputc_r>:
    91f8:	00862783          	lw	a5,8(a2)
    91fc:	fff78793          	addi	a5,a5,-1
    9200:	00f62423          	sw	a5,8(a2)
    9204:	0007dc63          	bgez	a5,921c <__sfputc_r+0x24>
    9208:	01862703          	lw	a4,24(a2)
    920c:	00e7c663          	blt	a5,a4,9218 <__sfputc_r+0x20>
    9210:	ff658793          	addi	a5,a1,-10
    9214:	00079463          	bnez	a5,921c <__sfputc_r+0x24>
    9218:	da5ff06f          	j	8fbc <__swbuf_r>
    921c:	00062783          	lw	a5,0(a2)
    9220:	00058513          	mv	a0,a1
    9224:	00178713          	addi	a4,a5,1
    9228:	00e62023          	sw	a4,0(a2)
    922c:	00b78023          	sb	a1,0(a5)
    9230:	00008067          	ret

00009234 <__sfputs_r>:
    9234:	fe010113          	addi	sp,sp,-32
    9238:	00812c23          	sw	s0,24(sp)
    923c:	00912a23          	sw	s1,20(sp)
    9240:	01212823          	sw	s2,16(sp)
    9244:	01312623          	sw	s3,12(sp)
    9248:	01412423          	sw	s4,8(sp)
    924c:	00112e23          	sw	ra,28(sp)
    9250:	00050993          	mv	s3,a0
    9254:	00058a13          	mv	s4,a1
    9258:	00060413          	mv	s0,a2
    925c:	00d604b3          	add	s1,a2,a3
    9260:	fff00913          	li	s2,-1
    9264:	00941663          	bne	s0,s1,9270 <__sfputs_r+0x3c>
    9268:	00000513          	li	a0,0
    926c:	01c0006f          	j	9288 <__sfputs_r+0x54>
    9270:	00044583          	lbu	a1,0(s0)
    9274:	000a0613          	mv	a2,s4
    9278:	00098513          	mv	a0,s3
    927c:	f7dff0ef          	jal	91f8 <__sfputc_r>
    9280:	00140413          	addi	s0,s0,1
    9284:	ff2510e3          	bne	a0,s2,9264 <__sfputs_r+0x30>
    9288:	01c12083          	lw	ra,28(sp)
    928c:	01812403          	lw	s0,24(sp)
    9290:	01412483          	lw	s1,20(sp)
    9294:	01012903          	lw	s2,16(sp)
    9298:	00c12983          	lw	s3,12(sp)
    929c:	00812a03          	lw	s4,8(sp)
    92a0:	02010113          	addi	sp,sp,32
    92a4:	00008067          	ret

000092a8 <_vfiprintf_r>:
    92a8:	f5010113          	addi	sp,sp,-176
    92ac:	0a812423          	sw	s0,168(sp)
    92b0:	0a912223          	sw	s1,164(sp)
    92b4:	0b212023          	sw	s2,160(sp)
    92b8:	09312e23          	sw	s3,156(sp)
    92bc:	0a112623          	sw	ra,172(sp)
    92c0:	09412c23          	sw	s4,152(sp)
    92c4:	09512a23          	sw	s5,148(sp)
    92c8:	09612823          	sw	s6,144(sp)
    92cc:	09712623          	sw	s7,140(sp)
    92d0:	00050913          	mv	s2,a0
    92d4:	00058493          	mv	s1,a1
    92d8:	00060413          	mv	s0,a2
    92dc:	00068993          	mv	s3,a3
    92e0:	00050863          	beqz	a0,92f0 <_vfiprintf_r+0x48>
    92e4:	02052783          	lw	a5,32(a0)
    92e8:	00079463          	bnez	a5,92f0 <_vfiprintf_r+0x48>
    92ec:	fe1fe0ef          	jal	82cc <__sinit>
    92f0:	00c4d783          	lhu	a5,12(s1)
    92f4:	0087f793          	andi	a5,a5,8
    92f8:	00078663          	beqz	a5,9304 <_vfiprintf_r+0x5c>
    92fc:	0104a783          	lw	a5,16(s1)
    9300:	00079a63          	bnez	a5,9314 <_vfiprintf_r+0x6c>
    9304:	00048593          	mv	a1,s1
    9308:	00090513          	mv	a0,s2
    930c:	dadff0ef          	jal	90b8 <__swsetup_r>
    9310:	2a051a63          	bnez	a0,95c4 <_vfiprintf_r+0x31c>
    9314:	02000793          	li	a5,32
    9318:	02f10ca3          	sb	a5,57(sp)
    931c:	00020a37          	lui	s4,0x20
    9320:	03000793          	li	a5,48
    9324:	01312e23          	sw	s3,28(sp)
    9328:	02012a23          	sw	zero,52(sp)
    932c:	02f10d23          	sb	a5,58(sp)
    9330:	02500a93          	li	s5,37
    9334:	fff00993          	li	s3,-1
    9338:	4dca0a13          	addi	s4,s4,1244 # 204dc <__clz_tab+0x2ac>
    933c:	00100b13          	li	s6,1
    9340:	00040b93          	mv	s7,s0
    9344:	000bc783          	lbu	a5,0(s7) # ffff0000 <_sp+0xfffc4fc0>
    9348:	00078463          	beqz	a5,9350 <_vfiprintf_r+0xa8>
    934c:	0d579463          	bne	a5,s5,9414 <_vfiprintf_r+0x16c>
    9350:	408b86b3          	sub	a3,s7,s0
    9354:	028b8663          	beq	s7,s0,9380 <_vfiprintf_r+0xd8>
    9358:	00040613          	mv	a2,s0
    935c:	00048593          	mv	a1,s1
    9360:	00090513          	mv	a0,s2
    9364:	00d12623          	sw	a3,12(sp)
    9368:	ecdff0ef          	jal	9234 <__sfputs_r>
    936c:	25350663          	beq	a0,s3,95b8 <_vfiprintf_r+0x310>
    9370:	03412783          	lw	a5,52(sp)
    9374:	00c12683          	lw	a3,12(sp)
    9378:	00d787b3          	add	a5,a5,a3
    937c:	02f12a23          	sw	a5,52(sp)
    9380:	000bc783          	lbu	a5,0(s7)
    9384:	22078a63          	beqz	a5,95b8 <_vfiprintf_r+0x310>
    9388:	001b8413          	addi	s0,s7,1
    938c:	02012023          	sw	zero,32(sp)
    9390:	02012623          	sw	zero,44(sp)
    9394:	03312223          	sw	s3,36(sp)
    9398:	02012423          	sw	zero,40(sp)
    939c:	060101a3          	sb	zero,99(sp)
    93a0:	06012c23          	sw	zero,120(sp)
    93a4:	00044583          	lbu	a1,0(s0)
    93a8:	00500613          	li	a2,5
    93ac:	000a0513          	mv	a0,s4
    93b0:	18d000ef          	jal	9d3c <memchr>
    93b4:	02012783          	lw	a5,32(sp)
    93b8:	00140693          	addi	a3,s0,1
    93bc:	06051063          	bnez	a0,941c <_vfiprintf_r+0x174>
    93c0:	0107f713          	andi	a4,a5,16
    93c4:	00070663          	beqz	a4,93d0 <_vfiprintf_r+0x128>
    93c8:	02000713          	li	a4,32
    93cc:	06e101a3          	sb	a4,99(sp)
    93d0:	0087f713          	andi	a4,a5,8
    93d4:	00070663          	beqz	a4,93e0 <_vfiprintf_r+0x138>
    93d8:	02b00713          	li	a4,43
    93dc:	06e101a3          	sb	a4,99(sp)
    93e0:	00044603          	lbu	a2,0(s0)
    93e4:	02a00713          	li	a4,42
    93e8:	04e60663          	beq	a2,a4,9434 <_vfiprintf_r+0x18c>
    93ec:	02c12783          	lw	a5,44(sp)
    93f0:	00000693          	li	a3,0
    93f4:	00900613          	li	a2,9
    93f8:	00a00593          	li	a1,10
    93fc:	00044703          	lbu	a4,0(s0)
    9400:	fd070713          	addi	a4,a4,-48
    9404:	08e67c63          	bgeu	a2,a4,949c <_vfiprintf_r+0x1f4>
    9408:	04068463          	beqz	a3,9450 <_vfiprintf_r+0x1a8>
    940c:	02f12623          	sw	a5,44(sp)
    9410:	0400006f          	j	9450 <_vfiprintf_r+0x1a8>
    9414:	001b8b93          	addi	s7,s7,1
    9418:	f2dff06f          	j	9344 <_vfiprintf_r+0x9c>
    941c:	41450533          	sub	a0,a0,s4
    9420:	00ab1533          	sll	a0,s6,a0
    9424:	00f56533          	or	a0,a0,a5
    9428:	02a12023          	sw	a0,32(sp)
    942c:	00068413          	mv	s0,a3
    9430:	f75ff06f          	j	93a4 <_vfiprintf_r+0xfc>
    9434:	01c12703          	lw	a4,28(sp)
    9438:	00470613          	addi	a2,a4,4
    943c:	00072703          	lw	a4,0(a4)
    9440:	00c12e23          	sw	a2,28(sp)
    9444:	04074263          	bltz	a4,9488 <_vfiprintf_r+0x1e0>
    9448:	02e12623          	sw	a4,44(sp)
    944c:	00068413          	mv	s0,a3
    9450:	00044703          	lbu	a4,0(s0)
    9454:	02e00793          	li	a5,46
    9458:	04f71e63          	bne	a4,a5,94b4 <_vfiprintf_r+0x20c>
    945c:	00144703          	lbu	a4,1(s0)
    9460:	02a00793          	li	a5,42
    9464:	0cf71e63          	bne	a4,a5,9540 <_vfiprintf_r+0x298>
    9468:	01c12783          	lw	a5,28(sp)
    946c:	00240413          	addi	s0,s0,2
    9470:	00478713          	addi	a4,a5,4
    9474:	0007a783          	lw	a5,0(a5)
    9478:	00e12e23          	sw	a4,28(sp)
    947c:	0207ca63          	bltz	a5,94b0 <_vfiprintf_r+0x208>
    9480:	02f12223          	sw	a5,36(sp)
    9484:	0300006f          	j	94b4 <_vfiprintf_r+0x20c>
    9488:	40e00733          	neg	a4,a4
    948c:	0027e793          	ori	a5,a5,2
    9490:	02e12623          	sw	a4,44(sp)
    9494:	02f12023          	sw	a5,32(sp)
    9498:	fb5ff06f          	j	944c <_vfiprintf_r+0x1a4>
    949c:	02b787b3          	mul	a5,a5,a1
    94a0:	00140413          	addi	s0,s0,1
    94a4:	00100693          	li	a3,1
    94a8:	00e787b3          	add	a5,a5,a4
    94ac:	f51ff06f          	j	93fc <_vfiprintf_r+0x154>
    94b0:	03312223          	sw	s3,36(sp)
    94b4:	00044583          	lbu	a1,0(s0)
    94b8:	00020bb7          	lui	s7,0x20
    94bc:	00300613          	li	a2,3
    94c0:	4e4b8513          	addi	a0,s7,1252 # 204e4 <__clz_tab+0x2b4>
    94c4:	079000ef          	jal	9d3c <memchr>
    94c8:	02050263          	beqz	a0,94ec <_vfiprintf_r+0x244>
    94cc:	02012783          	lw	a5,32(sp)
    94d0:	4e4b8b93          	addi	s7,s7,1252
    94d4:	41750533          	sub	a0,a0,s7
    94d8:	04000713          	li	a4,64
    94dc:	00a71733          	sll	a4,a4,a0
    94e0:	00e7e7b3          	or	a5,a5,a4
    94e4:	00140413          	addi	s0,s0,1
    94e8:	02f12023          	sw	a5,32(sp)
    94ec:	00044583          	lbu	a1,0(s0)
    94f0:	00020537          	lui	a0,0x20
    94f4:	00600613          	li	a2,6
    94f8:	4e850513          	addi	a0,a0,1256 # 204e8 <__clz_tab+0x2b8>
    94fc:	02b10c23          	sb	a1,56(sp)
    9500:	03d000ef          	jal	9d3c <memchr>
    9504:	0e050863          	beqz	a0,95f4 <_vfiprintf_r+0x34c>
    9508:	00000793          	li	a5,0
    950c:	08079463          	bnez	a5,9594 <_vfiprintf_r+0x2ec>
    9510:	02012503          	lw	a0,32(sp)
    9514:	01c12783          	lw	a5,28(sp)
    9518:	10057513          	andi	a0,a0,256
    951c:	06050263          	beqz	a0,9580 <_vfiprintf_r+0x2d8>
    9520:	00478793          	addi	a5,a5,4
    9524:	00f12e23          	sw	a5,28(sp)
    9528:	00000513          	li	a0,0
    952c:	03412783          	lw	a5,52(sp)
    9530:	00140413          	addi	s0,s0,1
    9534:	00a787b3          	add	a5,a5,a0
    9538:	02f12a23          	sw	a5,52(sp)
    953c:	e05ff06f          	j	9340 <_vfiprintf_r+0x98>
    9540:	00140413          	addi	s0,s0,1
    9544:	00000713          	li	a4,0
    9548:	00000793          	li	a5,0
    954c:	00900613          	li	a2,9
    9550:	00a00593          	li	a1,10
    9554:	00044683          	lbu	a3,0(s0)
    9558:	fd068693          	addi	a3,a3,-48
    955c:	00d67863          	bgeu	a2,a3,956c <_vfiprintf_r+0x2c4>
    9560:	40e00733          	neg	a4,a4
    9564:	00e7f7b3          	and	a5,a5,a4
    9568:	f19ff06f          	j	9480 <_vfiprintf_r+0x1d8>
    956c:	02b787b3          	mul	a5,a5,a1
    9570:	00140413          	addi	s0,s0,1
    9574:	00100713          	li	a4,1
    9578:	00d787b3          	add	a5,a5,a3
    957c:	fd9ff06f          	j	9554 <_vfiprintf_r+0x2ac>
    9580:	00778793          	addi	a5,a5,7
    9584:	ff87f793          	andi	a5,a5,-8
    9588:	00878793          	addi	a5,a5,8
    958c:	00f12e23          	sw	a5,28(sp)
    9590:	f9dff06f          	j	952c <_vfiprintf_r+0x284>
    9594:	000096b7          	lui	a3,0x9
    9598:	01c10713          	addi	a4,sp,28
    959c:	23468693          	addi	a3,a3,564 # 9234 <__sfputs_r>
    95a0:	00048613          	mv	a2,s1
    95a4:	02010593          	addi	a1,sp,32
    95a8:	00090513          	mv	a0,s2
    95ac:	00000097          	auipc	ra,0x0
    95b0:	000000e7          	jalr	zero # 0 <__vector_start>
    95b4:	f7351ce3          	bne	a0,s3,952c <_vfiprintf_r+0x284>
    95b8:	00c4d783          	lhu	a5,12(s1)
    95bc:	0407f793          	andi	a5,a5,64
    95c0:	04078a63          	beqz	a5,9614 <_vfiprintf_r+0x36c>
    95c4:	fff00513          	li	a0,-1
    95c8:	0ac12083          	lw	ra,172(sp)
    95cc:	0a812403          	lw	s0,168(sp)
    95d0:	0a412483          	lw	s1,164(sp)
    95d4:	0a012903          	lw	s2,160(sp)
    95d8:	09c12983          	lw	s3,156(sp)
    95dc:	09812a03          	lw	s4,152(sp)
    95e0:	09412a83          	lw	s5,148(sp)
    95e4:	09012b03          	lw	s6,144(sp)
    95e8:	08c12b83          	lw	s7,140(sp)
    95ec:	0b010113          	addi	sp,sp,176
    95f0:	00008067          	ret
    95f4:	000096b7          	lui	a3,0x9
    95f8:	01c10713          	addi	a4,sp,28
    95fc:	23468693          	addi	a3,a3,564 # 9234 <__sfputs_r>
    9600:	00048613          	mv	a2,s1
    9604:	02010593          	addi	a1,sp,32
    9608:	00090513          	mv	a0,s2
    960c:	1bc000ef          	jal	97c8 <_printf_i>
    9610:	fa5ff06f          	j	95b4 <_vfiprintf_r+0x30c>
    9614:	03412503          	lw	a0,52(sp)
    9618:	fb1ff06f          	j	95c8 <_vfiprintf_r+0x320>

0000961c <_printf_common>:
    961c:	fd010113          	addi	sp,sp,-48
    9620:	03212023          	sw	s2,32(sp)
    9624:	0105a783          	lw	a5,16(a1)
    9628:	00070913          	mv	s2,a4
    962c:	0085a703          	lw	a4,8(a1)
    9630:	02812423          	sw	s0,40(sp)
    9634:	01312e23          	sw	s3,28(sp)
    9638:	01612823          	sw	s6,16(sp)
    963c:	01712623          	sw	s7,12(sp)
    9640:	02112623          	sw	ra,44(sp)
    9644:	02912223          	sw	s1,36(sp)
    9648:	01412c23          	sw	s4,24(sp)
    964c:	01512a23          	sw	s5,20(sp)
    9650:	00050b13          	mv	s6,a0
    9654:	00058413          	mv	s0,a1
    9658:	00060993          	mv	s3,a2
    965c:	00068b93          	mv	s7,a3
    9660:	00e7d463          	bge	a5,a4,9668 <_printf_common+0x4c>
    9664:	00070793          	mv	a5,a4
    9668:	00f9a023          	sw	a5,0(s3)
    966c:	04344703          	lbu	a4,67(s0)
    9670:	00070663          	beqz	a4,967c <_printf_common+0x60>
    9674:	00178793          	addi	a5,a5,1
    9678:	00f9a023          	sw	a5,0(s3)
    967c:	00042783          	lw	a5,0(s0)
    9680:	0207f793          	andi	a5,a5,32
    9684:	00078863          	beqz	a5,9694 <_printf_common+0x78>
    9688:	0009a783          	lw	a5,0(s3)
    968c:	00278793          	addi	a5,a5,2
    9690:	00f9a023          	sw	a5,0(s3)
    9694:	00042483          	lw	s1,0(s0)
    9698:	0064f493          	andi	s1,s1,6
    969c:	00049e63          	bnez	s1,96b8 <_printf_common+0x9c>
    96a0:	01940a13          	addi	s4,s0,25
    96a4:	fff00a93          	li	s5,-1
    96a8:	00c42783          	lw	a5,12(s0)
    96ac:	0009a703          	lw	a4,0(s3)
    96b0:	40e787b3          	sub	a5,a5,a4
    96b4:	0af4c863          	blt	s1,a5,9764 <_printf_common+0x148>
    96b8:	00042783          	lw	a5,0(s0)
    96bc:	04344683          	lbu	a3,67(s0)
    96c0:	0207f793          	andi	a5,a5,32
    96c4:	00d036b3          	snez	a3,a3
    96c8:	0a079e63          	bnez	a5,9784 <_printf_common+0x168>
    96cc:	04340613          	addi	a2,s0,67
    96d0:	000b8593          	mv	a1,s7
    96d4:	000b0513          	mv	a0,s6
    96d8:	000900e7          	jalr	s2
    96dc:	fff00793          	li	a5,-1
    96e0:	04f50c63          	beq	a0,a5,9738 <_printf_common+0x11c>
    96e4:	00042783          	lw	a5,0(s0)
    96e8:	00400713          	li	a4,4
    96ec:	00000493          	li	s1,0
    96f0:	0067f793          	andi	a5,a5,6
    96f4:	00e79e63          	bne	a5,a4,9710 <_printf_common+0xf4>
    96f8:	0009a783          	lw	a5,0(s3)
    96fc:	00c42483          	lw	s1,12(s0)
    9700:	40f484b3          	sub	s1,s1,a5
    9704:	fff4c793          	not	a5,s1
    9708:	41f7d793          	srai	a5,a5,0x1f
    970c:	00f4f4b3          	and	s1,s1,a5
    9710:	00842783          	lw	a5,8(s0)
    9714:	01042703          	lw	a4,16(s0)
    9718:	00f75663          	bge	a4,a5,9724 <_printf_common+0x108>
    971c:	40e787b3          	sub	a5,a5,a4
    9720:	00f484b3          	add	s1,s1,a5
    9724:	00000993          	li	s3,0
    9728:	01a40413          	addi	s0,s0,26
    972c:	fff00a13          	li	s4,-1
    9730:	07349c63          	bne	s1,s3,97a8 <_printf_common+0x18c>
    9734:	00000513          	li	a0,0
    9738:	02c12083          	lw	ra,44(sp)
    973c:	02812403          	lw	s0,40(sp)
    9740:	02412483          	lw	s1,36(sp)
    9744:	02012903          	lw	s2,32(sp)
    9748:	01c12983          	lw	s3,28(sp)
    974c:	01812a03          	lw	s4,24(sp)
    9750:	01412a83          	lw	s5,20(sp)
    9754:	01012b03          	lw	s6,16(sp)
    9758:	00c12b83          	lw	s7,12(sp)
    975c:	03010113          	addi	sp,sp,48
    9760:	00008067          	ret
    9764:	00100693          	li	a3,1
    9768:	000a0613          	mv	a2,s4
    976c:	000b8593          	mv	a1,s7
    9770:	000b0513          	mv	a0,s6
    9774:	000900e7          	jalr	s2
    9778:	fd5500e3          	beq	a0,s5,9738 <_printf_common+0x11c>
    977c:	00148493          	addi	s1,s1,1
    9780:	f29ff06f          	j	96a8 <_printf_common+0x8c>
    9784:	00d40733          	add	a4,s0,a3
    9788:	03000613          	li	a2,48
    978c:	04c701a3          	sb	a2,67(a4)
    9790:	04544703          	lbu	a4,69(s0)
    9794:	00168793          	addi	a5,a3,1
    9798:	00f407b3          	add	a5,s0,a5
    979c:	00268693          	addi	a3,a3,2
    97a0:	04e781a3          	sb	a4,67(a5)
    97a4:	f29ff06f          	j	96cc <_printf_common+0xb0>
    97a8:	00100693          	li	a3,1
    97ac:	00040613          	mv	a2,s0
    97b0:	000b8593          	mv	a1,s7
    97b4:	000b0513          	mv	a0,s6
    97b8:	000900e7          	jalr	s2
    97bc:	f7450ee3          	beq	a0,s4,9738 <_printf_common+0x11c>
    97c0:	00198993          	addi	s3,s3,1
    97c4:	f6dff06f          	j	9730 <_printf_common+0x114>

000097c8 <_printf_i>:
    97c8:	fc010113          	addi	sp,sp,-64
    97cc:	02812c23          	sw	s0,56(sp)
    97d0:	02912a23          	sw	s1,52(sp)
    97d4:	03412423          	sw	s4,40(sp)
    97d8:	03512223          	sw	s5,36(sp)
    97dc:	02112e23          	sw	ra,60(sp)
    97e0:	03212823          	sw	s2,48(sp)
    97e4:	03312623          	sw	s3,44(sp)
    97e8:	0185c783          	lbu	a5,24(a1)
    97ec:	00068493          	mv	s1,a3
    97f0:	07800693          	li	a3,120
    97f4:	00050a13          	mv	s4,a0
    97f8:	00058413          	mv	s0,a1
    97fc:	00060a93          	mv	s5,a2
    9800:	00f6ee63          	bltu	a3,a5,981c <_printf_i+0x54>
    9804:	06200693          	li	a3,98
    9808:	04358613          	addi	a2,a1,67
    980c:	00f6ec63          	bltu	a3,a5,9824 <_printf_i+0x5c>
    9810:	2a078e63          	beqz	a5,9acc <_printf_i+0x304>
    9814:	05800693          	li	a3,88
    9818:	20d78463          	beq	a5,a3,9a20 <_printf_i+0x258>
    981c:	04240913          	addi	s2,s0,66
    9820:	0400006f          	j	9860 <_printf_i+0x98>
    9824:	f9d78693          	addi	a3,a5,-99
    9828:	0ff6f693          	zext.b	a3,a3
    982c:	01500593          	li	a1,21
    9830:	fed5e6e3          	bltu	a1,a3,981c <_printf_i+0x54>
    9834:	000205b7          	lui	a1,0x20
    9838:	00269693          	slli	a3,a3,0x2
    983c:	1c058593          	addi	a1,a1,448 # 201c0 <next.22+0x10>
    9840:	00b686b3          	add	a3,a3,a1
    9844:	0006a683          	lw	a3,0(a3)
    9848:	00068067          	jr	a3
    984c:	00072783          	lw	a5,0(a4)
    9850:	04240913          	addi	s2,s0,66
    9854:	00478693          	addi	a3,a5,4
    9858:	0007a783          	lw	a5,0(a5)
    985c:	00d72023          	sw	a3,0(a4)
    9860:	04f40123          	sb	a5,66(s0)
    9864:	00100793          	li	a5,1
    9868:	2a00006f          	j	9b08 <_printf_i+0x340>
    986c:	00042783          	lw	a5,0(s0)
    9870:	00072503          	lw	a0,0(a4)
    9874:	0807f693          	andi	a3,a5,128
    9878:	00450593          	addi	a1,a0,4
    987c:	02068663          	beqz	a3,98a8 <_printf_i+0xe0>
    9880:	00052783          	lw	a5,0(a0)
    9884:	00b72023          	sw	a1,0(a4)
    9888:	000206b7          	lui	a3,0x20
    988c:	0007d863          	bgez	a5,989c <_printf_i+0xd4>
    9890:	02d00713          	li	a4,45
    9894:	40f007b3          	neg	a5,a5
    9898:	04e401a3          	sb	a4,67(s0)
    989c:	4f068693          	addi	a3,a3,1264 # 204f0 <__clz_tab+0x2c0>
    98a0:	00a00713          	li	a4,10
    98a4:	06c0006f          	j	9910 <_printf_i+0x148>
    98a8:	0407f693          	andi	a3,a5,64
    98ac:	00052783          	lw	a5,0(a0)
    98b0:	00b72023          	sw	a1,0(a4)
    98b4:	fc068ae3          	beqz	a3,9888 <_printf_i+0xc0>
    98b8:	01079793          	slli	a5,a5,0x10
    98bc:	4107d793          	srai	a5,a5,0x10
    98c0:	fc9ff06f          	j	9888 <_printf_i+0xc0>
    98c4:	00042683          	lw	a3,0(s0)
    98c8:	00072783          	lw	a5,0(a4)
    98cc:	0806f513          	andi	a0,a3,128
    98d0:	00478593          	addi	a1,a5,4
    98d4:	00050863          	beqz	a0,98e4 <_printf_i+0x11c>
    98d8:	00b72023          	sw	a1,0(a4)
    98dc:	0007a783          	lw	a5,0(a5)
    98e0:	0140006f          	j	98f4 <_printf_i+0x12c>
    98e4:	0406f693          	andi	a3,a3,64
    98e8:	00b72023          	sw	a1,0(a4)
    98ec:	fe0688e3          	beqz	a3,98dc <_printf_i+0x114>
    98f0:	0007d783          	lhu	a5,0(a5)
    98f4:	01844583          	lbu	a1,24(s0)
    98f8:	000206b7          	lui	a3,0x20
    98fc:	06f00713          	li	a4,111
    9900:	4f068693          	addi	a3,a3,1264 # 204f0 <__clz_tab+0x2c0>
    9904:	18e59263          	bne	a1,a4,9a88 <_printf_i+0x2c0>
    9908:	00800713          	li	a4,8
    990c:	040401a3          	sb	zero,67(s0)
    9910:	00442583          	lw	a1,4(s0)
    9914:	00b42423          	sw	a1,8(s0)
    9918:	0005ce63          	bltz	a1,9934 <_printf_i+0x16c>
    991c:	00042503          	lw	a0,0(s0)
    9920:	00b7e5b3          	or	a1,a5,a1
    9924:	00060913          	mv	s2,a2
    9928:	ffb57513          	andi	a0,a0,-5
    992c:	00a42023          	sw	a0,0(s0)
    9930:	02058463          	beqz	a1,9958 <_printf_i+0x190>
    9934:	00060913          	mv	s2,a2
    9938:	02e7f5b3          	remu	a1,a5,a4
    993c:	fff90913          	addi	s2,s2,-1
    9940:	00b685b3          	add	a1,a3,a1
    9944:	0005c583          	lbu	a1,0(a1)
    9948:	00b90023          	sb	a1,0(s2)
    994c:	00078593          	mv	a1,a5
    9950:	02e7d7b3          	divu	a5,a5,a4
    9954:	fee5f2e3          	bgeu	a1,a4,9938 <_printf_i+0x170>
    9958:	00800793          	li	a5,8
    995c:	02f71463          	bne	a4,a5,9984 <_printf_i+0x1bc>
    9960:	00042783          	lw	a5,0(s0)
    9964:	0017f793          	andi	a5,a5,1
    9968:	00078e63          	beqz	a5,9984 <_printf_i+0x1bc>
    996c:	00442703          	lw	a4,4(s0)
    9970:	01042783          	lw	a5,16(s0)
    9974:	00e7c863          	blt	a5,a4,9984 <_printf_i+0x1bc>
    9978:	03000793          	li	a5,48
    997c:	fef90fa3          	sb	a5,-1(s2)
    9980:	fff90913          	addi	s2,s2,-1
    9984:	41260633          	sub	a2,a2,s2
    9988:	00c42823          	sw	a2,16(s0)
    998c:	00048713          	mv	a4,s1
    9990:	000a8693          	mv	a3,s5
    9994:	01c10613          	addi	a2,sp,28
    9998:	00040593          	mv	a1,s0
    999c:	000a0513          	mv	a0,s4
    99a0:	c7dff0ef          	jal	961c <_printf_common>
    99a4:	fff00993          	li	s3,-1
    99a8:	03350c63          	beq	a0,s3,99e0 <_printf_i+0x218>
    99ac:	01042683          	lw	a3,16(s0)
    99b0:	00090613          	mv	a2,s2
    99b4:	000a8593          	mv	a1,s5
    99b8:	000a0513          	mv	a0,s4
    99bc:	000480e7          	jalr	s1
    99c0:	03350063          	beq	a0,s3,99e0 <_printf_i+0x218>
    99c4:	00042783          	lw	a5,0(s0)
    99c8:	0027f793          	andi	a5,a5,2
    99cc:	16079e63          	bnez	a5,9b48 <_printf_i+0x380>
    99d0:	01c12783          	lw	a5,28(sp)
    99d4:	00c42503          	lw	a0,12(s0)
    99d8:	00f55463          	bge	a0,a5,99e0 <_printf_i+0x218>
    99dc:	00078513          	mv	a0,a5
    99e0:	03c12083          	lw	ra,60(sp)
    99e4:	03812403          	lw	s0,56(sp)
    99e8:	03412483          	lw	s1,52(sp)
    99ec:	03012903          	lw	s2,48(sp)
    99f0:	02c12983          	lw	s3,44(sp)
    99f4:	02812a03          	lw	s4,40(sp)
    99f8:	02412a83          	lw	s5,36(sp)
    99fc:	04010113          	addi	sp,sp,64
    9a00:	00008067          	ret
    9a04:	00042783          	lw	a5,0(s0)
    9a08:	0207e793          	ori	a5,a5,32
    9a0c:	00f42023          	sw	a5,0(s0)
    9a10:	07800793          	li	a5,120
    9a14:	000206b7          	lui	a3,0x20
    9a18:	50468693          	addi	a3,a3,1284 # 20504 <__clz_tab+0x2d4>
    9a1c:	00c0006f          	j	9a28 <_printf_i+0x260>
    9a20:	000206b7          	lui	a3,0x20
    9a24:	4f068693          	addi	a3,a3,1264 # 204f0 <__clz_tab+0x2c0>
    9a28:	00042583          	lw	a1,0(s0)
    9a2c:	04f402a3          	sb	a5,69(s0)
    9a30:	00072783          	lw	a5,0(a4)
    9a34:	0805f813          	andi	a6,a1,128
    9a38:	00478513          	addi	a0,a5,4
    9a3c:	00080863          	beqz	a6,9a4c <_printf_i+0x284>
    9a40:	00a72023          	sw	a0,0(a4)
    9a44:	0007a783          	lw	a5,0(a5)
    9a48:	0140006f          	j	9a5c <_printf_i+0x294>
    9a4c:	0405f813          	andi	a6,a1,64
    9a50:	00a72023          	sw	a0,0(a4)
    9a54:	fe0808e3          	beqz	a6,9a44 <_printf_i+0x27c>
    9a58:	0007d783          	lhu	a5,0(a5)
    9a5c:	0015f713          	andi	a4,a1,1
    9a60:	00070663          	beqz	a4,9a6c <_printf_i+0x2a4>
    9a64:	0205e593          	ori	a1,a1,32
    9a68:	00b42023          	sw	a1,0(s0)
    9a6c:	00078663          	beqz	a5,9a78 <_printf_i+0x2b0>
    9a70:	01000713          	li	a4,16
    9a74:	e99ff06f          	j	990c <_printf_i+0x144>
    9a78:	00042703          	lw	a4,0(s0)
    9a7c:	fdf77713          	andi	a4,a4,-33
    9a80:	00e42023          	sw	a4,0(s0)
    9a84:	fedff06f          	j	9a70 <_printf_i+0x2a8>
    9a88:	00a00713          	li	a4,10
    9a8c:	e81ff06f          	j	990c <_printf_i+0x144>
    9a90:	00042683          	lw	a3,0(s0)
    9a94:	00072783          	lw	a5,0(a4)
    9a98:	01442583          	lw	a1,20(s0)
    9a9c:	0806f813          	andi	a6,a3,128
    9aa0:	00478513          	addi	a0,a5,4
    9aa4:	00080a63          	beqz	a6,9ab8 <_printf_i+0x2f0>
    9aa8:	00a72023          	sw	a0,0(a4)
    9aac:	0007a783          	lw	a5,0(a5)
    9ab0:	00b7a023          	sw	a1,0(a5)
    9ab4:	0180006f          	j	9acc <_printf_i+0x304>
    9ab8:	00a72023          	sw	a0,0(a4)
    9abc:	0406f693          	andi	a3,a3,64
    9ac0:	0007a783          	lw	a5,0(a5)
    9ac4:	fe0686e3          	beqz	a3,9ab0 <_printf_i+0x2e8>
    9ac8:	00b79023          	sh	a1,0(a5)
    9acc:	00042823          	sw	zero,16(s0)
    9ad0:	00060913          	mv	s2,a2
    9ad4:	eb9ff06f          	j	998c <_printf_i+0x1c4>
    9ad8:	00072783          	lw	a5,0(a4)
    9adc:	00442603          	lw	a2,4(s0)
    9ae0:	00000593          	li	a1,0
    9ae4:	00478693          	addi	a3,a5,4
    9ae8:	00d72023          	sw	a3,0(a4)
    9aec:	0007a903          	lw	s2,0(a5)
    9af0:	00090513          	mv	a0,s2
    9af4:	248000ef          	jal	9d3c <memchr>
    9af8:	00050663          	beqz	a0,9b04 <_printf_i+0x33c>
    9afc:	41250533          	sub	a0,a0,s2
    9b00:	00a42223          	sw	a0,4(s0)
    9b04:	00442783          	lw	a5,4(s0)
    9b08:	00f42823          	sw	a5,16(s0)
    9b0c:	040401a3          	sb	zero,67(s0)
    9b10:	e7dff06f          	j	998c <_printf_i+0x1c4>
    9b14:	00100693          	li	a3,1
    9b18:	000a8593          	mv	a1,s5
    9b1c:	000a0513          	mv	a0,s4
    9b20:	00c12623          	sw	a2,12(sp)
    9b24:	000480e7          	jalr	s1
    9b28:	eb350ce3          	beq	a0,s3,99e0 <_printf_i+0x218>
    9b2c:	00c12603          	lw	a2,12(sp)
    9b30:	00190913          	addi	s2,s2,1
    9b34:	00c42783          	lw	a5,12(s0)
    9b38:	01c12703          	lw	a4,28(sp)
    9b3c:	40e787b3          	sub	a5,a5,a4
    9b40:	fcf94ae3          	blt	s2,a5,9b14 <_printf_i+0x34c>
    9b44:	e8dff06f          	j	99d0 <_printf_i+0x208>
    9b48:	00000913          	li	s2,0
    9b4c:	01940613          	addi	a2,s0,25
    9b50:	fe5ff06f          	j	9b34 <_printf_i+0x36c>

00009b54 <__swhatbuf_r>:
    9b54:	f8010113          	addi	sp,sp,-128
    9b58:	06812c23          	sw	s0,120(sp)
    9b5c:	00058413          	mv	s0,a1
    9b60:	00e59583          	lh	a1,14(a1)
    9b64:	06912a23          	sw	s1,116(sp)
    9b68:	06112e23          	sw	ra,124(sp)
    9b6c:	00060493          	mv	s1,a2
    9b70:	0005cc63          	bltz	a1,9b88 <__swhatbuf_r+0x34>
    9b74:	01810613          	addi	a2,sp,24
    9b78:	00d12623          	sw	a3,12(sp)
    9b7c:	12c000ef          	jal	9ca8 <_fstat_r>
    9b80:	00c12683          	lw	a3,12(sp)
    9b84:	02055c63          	bgez	a0,9bbc <__swhatbuf_r+0x68>
    9b88:	00c45783          	lhu	a5,12(s0)
    9b8c:	0807f793          	andi	a5,a5,128
    9b90:	04078263          	beqz	a5,9bd4 <__swhatbuf_r+0x80>
    9b94:	00000793          	li	a5,0
    9b98:	04000713          	li	a4,64
    9b9c:	07c12083          	lw	ra,124(sp)
    9ba0:	07812403          	lw	s0,120(sp)
    9ba4:	00f6a023          	sw	a5,0(a3)
    9ba8:	00e4a023          	sw	a4,0(s1)
    9bac:	00000513          	li	a0,0
    9bb0:	07412483          	lw	s1,116(sp)
    9bb4:	08010113          	addi	sp,sp,128
    9bb8:	00008067          	ret
    9bbc:	01c12783          	lw	a5,28(sp)
    9bc0:	0000f737          	lui	a4,0xf
    9bc4:	00e7f7b3          	and	a5,a5,a4
    9bc8:	ffffe737          	lui	a4,0xffffe
    9bcc:	00e787b3          	add	a5,a5,a4
    9bd0:	0017b793          	seqz	a5,a5
    9bd4:	40000713          	li	a4,1024
    9bd8:	fc5ff06f          	j	9b9c <__swhatbuf_r+0x48>

00009bdc <__smakebuf_r>:
    9bdc:	00c5d703          	lhu	a4,12(a1)
    9be0:	fd010113          	addi	sp,sp,-48
    9be4:	02812423          	sw	s0,40(sp)
    9be8:	02112623          	sw	ra,44(sp)
    9bec:	02912223          	sw	s1,36(sp)
    9bf0:	00277713          	andi	a4,a4,2
    9bf4:	00058413          	mv	s0,a1
    9bf8:	02070663          	beqz	a4,9c24 <__smakebuf_r+0x48>
    9bfc:	04740793          	addi	a5,s0,71
    9c00:	00f42023          	sw	a5,0(s0)
    9c04:	00f42823          	sw	a5,16(s0)
    9c08:	00100793          	li	a5,1
    9c0c:	00f42a23          	sw	a5,20(s0)
    9c10:	02c12083          	lw	ra,44(sp)
    9c14:	02812403          	lw	s0,40(sp)
    9c18:	02412483          	lw	s1,36(sp)
    9c1c:	03010113          	addi	sp,sp,48
    9c20:	00008067          	ret
    9c24:	01c10693          	addi	a3,sp,28
    9c28:	01810613          	addi	a2,sp,24
    9c2c:	00050493          	mv	s1,a0
    9c30:	f25ff0ef          	jal	9b54 <__swhatbuf_r>
    9c34:	01812583          	lw	a1,24(sp)
    9c38:	00048513          	mv	a0,s1
    9c3c:	00b12623          	sw	a1,12(sp)
    9c40:	db1fe0ef          	jal	89f0 <_malloc_r>
    9c44:	00c41783          	lh	a5,12(s0)
    9c48:	00c12583          	lw	a1,12(sp)
    9c4c:	00051e63          	bnez	a0,9c68 <__smakebuf_r+0x8c>
    9c50:	2007f713          	andi	a4,a5,512
    9c54:	fa071ee3          	bnez	a4,9c10 <__smakebuf_r+0x34>
    9c58:	ffc7f793          	andi	a5,a5,-4
    9c5c:	0027e793          	ori	a5,a5,2
    9c60:	00f41623          	sh	a5,12(s0)
    9c64:	f99ff06f          	j	9bfc <__smakebuf_r+0x20>
    9c68:	0807e793          	ori	a5,a5,128
    9c6c:	00f41623          	sh	a5,12(s0)
    9c70:	01c12783          	lw	a5,28(sp)
    9c74:	00a42023          	sw	a0,0(s0)
    9c78:	00a42823          	sw	a0,16(s0)
    9c7c:	00b42a23          	sw	a1,20(s0)
    9c80:	f80788e3          	beqz	a5,9c10 <__smakebuf_r+0x34>
    9c84:	00e41583          	lh	a1,14(s0)
    9c88:	00048513          	mv	a0,s1
    9c8c:	068000ef          	jal	9cf4 <_isatty_r>
    9c90:	f80500e3          	beqz	a0,9c10 <__smakebuf_r+0x34>
    9c94:	00c45783          	lhu	a5,12(s0)
    9c98:	ffc7f793          	andi	a5,a5,-4
    9c9c:	0017e793          	ori	a5,a5,1
    9ca0:	00f41623          	sh	a5,12(s0)
    9ca4:	f6dff06f          	j	9c10 <__smakebuf_r+0x34>

00009ca8 <_fstat_r>:
    9ca8:	ff010113          	addi	sp,sp,-16
    9cac:	00812423          	sw	s0,8(sp)
    9cb0:	00912223          	sw	s1,4(sp)
    9cb4:	00050493          	mv	s1,a0
    9cb8:	00058513          	mv	a0,a1
    9cbc:	00060593          	mv	a1,a2
    9cc0:	00112623          	sw	ra,12(sp)
    9cc4:	9601a623          	sw	zero,-1684(gp) # 22de4 <errno>
    9cc8:	94cfe0ef          	jal	7e14 <_fstat>
    9ccc:	fff00793          	li	a5,-1
    9cd0:	00f51863          	bne	a0,a5,9ce0 <_fstat_r+0x38>
    9cd4:	96c1a783          	lw	a5,-1684(gp) # 22de4 <errno>
    9cd8:	00078463          	beqz	a5,9ce0 <_fstat_r+0x38>
    9cdc:	00f4a023          	sw	a5,0(s1)
    9ce0:	00c12083          	lw	ra,12(sp)
    9ce4:	00812403          	lw	s0,8(sp)
    9ce8:	00412483          	lw	s1,4(sp)
    9cec:	01010113          	addi	sp,sp,16
    9cf0:	00008067          	ret

00009cf4 <_isatty_r>:
    9cf4:	ff010113          	addi	sp,sp,-16
    9cf8:	00812423          	sw	s0,8(sp)
    9cfc:	00912223          	sw	s1,4(sp)
    9d00:	00050493          	mv	s1,a0
    9d04:	00058513          	mv	a0,a1
    9d08:	00112623          	sw	ra,12(sp)
    9d0c:	9601a623          	sw	zero,-1684(gp) # 22de4 <errno>
    9d10:	914fe0ef          	jal	7e24 <_isatty>
    9d14:	fff00793          	li	a5,-1
    9d18:	00f51863          	bne	a0,a5,9d28 <_isatty_r+0x34>
    9d1c:	96c1a783          	lw	a5,-1684(gp) # 22de4 <errno>
    9d20:	00078463          	beqz	a5,9d28 <_isatty_r+0x34>
    9d24:	00f4a023          	sw	a5,0(s1)
    9d28:	00c12083          	lw	ra,12(sp)
    9d2c:	00812403          	lw	s0,8(sp)
    9d30:	00412483          	lw	s1,4(sp)
    9d34:	01010113          	addi	sp,sp,16
    9d38:	00008067          	ret

00009d3c <memchr>:
    9d3c:	0ff5f593          	zext.b	a1,a1
    9d40:	00c50633          	add	a2,a0,a2
    9d44:	00c51663          	bne	a0,a2,9d50 <memchr+0x14>
    9d48:	00000513          	li	a0,0
    9d4c:	00008067          	ret
    9d50:	00054783          	lbu	a5,0(a0)
    9d54:	feb78ce3          	beq	a5,a1,9d4c <memchr+0x10>
    9d58:	00150513          	addi	a0,a0,1
    9d5c:	fe9ff06f          	j	9d44 <memchr+0x8>

00009d60 <sqrt>:
    9d60:	fe010113          	addi	sp,sp,-32
    9d64:	00812c23          	sw	s0,24(sp)
    9d68:	00912a23          	sw	s1,20(sp)
    9d6c:	01212823          	sw	s2,16(sp)
    9d70:	01312623          	sw	s3,12(sp)
    9d74:	00050913          	mv	s2,a0
    9d78:	00058993          	mv	s3,a1
    9d7c:	00112e23          	sw	ra,28(sp)
    9d80:	088000ef          	jal	9e08 <__ieee754_sqrt>
    9d84:	00050493          	mv	s1,a0
    9d88:	00058413          	mv	s0,a1
    9d8c:	00090613          	mv	a2,s2
    9d90:	00098693          	mv	a3,s3
    9d94:	00090513          	mv	a0,s2
    9d98:	00098593          	mv	a1,s3
    9d9c:	7a5010ef          	jal	bd40 <__unorddf2>
    9da0:	04051263          	bnez	a0,9de4 <sqrt+0x84>
    9da4:	00000613          	li	a2,0
    9da8:	00000693          	li	a3,0
    9dac:	00090513          	mv	a0,s2
    9db0:	00098593          	mv	a1,s3
    9db4:	42c020ef          	jal	c1e0 <__ledf2>
    9db8:	02055663          	bgez	a0,9de4 <sqrt+0x84>
    9dbc:	c18ff0ef          	jal	91d4 <__errno>
    9dc0:	02100793          	li	a5,33
    9dc4:	00000613          	li	a2,0
    9dc8:	00000693          	li	a3,0
    9dcc:	00f52023          	sw	a5,0(a0)
    9dd0:	00068593          	mv	a1,a3
    9dd4:	00060513          	mv	a0,a2
    9dd8:	255000ef          	jal	a82c <__divdf3>
    9ddc:	00050493          	mv	s1,a0
    9de0:	00058413          	mv	s0,a1
    9de4:	01c12083          	lw	ra,28(sp)
    9de8:	00040593          	mv	a1,s0
    9dec:	01812403          	lw	s0,24(sp)
    9df0:	01012903          	lw	s2,16(sp)
    9df4:	00c12983          	lw	s3,12(sp)
    9df8:	00048513          	mv	a0,s1
    9dfc:	01412483          	lw	s1,20(sp)
    9e00:	02010113          	addi	sp,sp,32
    9e04:	00008067          	ret

00009e08 <__ieee754_sqrt>:
    9e08:	fd010113          	addi	sp,sp,-48
    9e0c:	7ff007b7          	lui	a5,0x7ff00
    9e10:	02812423          	sw	s0,40(sp)
    9e14:	02912223          	sw	s1,36(sp)
    9e18:	02112623          	sw	ra,44(sp)
    9e1c:	03212023          	sw	s2,32(sp)
    9e20:	01312e23          	sw	s3,28(sp)
    9e24:	01412c23          	sw	s4,24(sp)
    9e28:	01512a23          	sw	s5,20(sp)
    9e2c:	01612823          	sw	s6,16(sp)
    9e30:	01712623          	sw	s7,12(sp)
    9e34:	00b7f733          	and	a4,a5,a1
    9e38:	00050493          	mv	s1,a0
    9e3c:	00058413          	mv	s0,a1
    9e40:	06f71063          	bne	a4,a5,9ea0 <__ieee754_sqrt+0x98>
    9e44:	00050613          	mv	a2,a0
    9e48:	00058693          	mv	a3,a1
    9e4c:	1b0010ef          	jal	affc <__muldf3>
    9e50:	00050613          	mv	a2,a0
    9e54:	00058693          	mv	a3,a1
    9e58:	00048513          	mv	a0,s1
    9e5c:	00040593          	mv	a1,s0
    9e60:	280000ef          	jal	a0e0 <__adddf3>
    9e64:	00050493          	mv	s1,a0
    9e68:	00058413          	mv	s0,a1
    9e6c:	02c12083          	lw	ra,44(sp)
    9e70:	00040593          	mv	a1,s0
    9e74:	02812403          	lw	s0,40(sp)
    9e78:	02012903          	lw	s2,32(sp)
    9e7c:	01c12983          	lw	s3,28(sp)
    9e80:	01812a03          	lw	s4,24(sp)
    9e84:	01412a83          	lw	s5,20(sp)
    9e88:	01012b03          	lw	s6,16(sp)
    9e8c:	00c12b83          	lw	s7,12(sp)
    9e90:	00048513          	mv	a0,s1
    9e94:	02412483          	lw	s1,36(sp)
    9e98:	03010113          	addi	sp,sp,48
    9e9c:	00008067          	ret
    9ea0:	00058713          	mv	a4,a1
    9ea4:	00050793          	mv	a5,a0
    9ea8:	02b04c63          	bgtz	a1,9ee0 <__ieee754_sqrt+0xd8>
    9eac:	00159693          	slli	a3,a1,0x1
    9eb0:	0016d693          	srli	a3,a3,0x1
    9eb4:	00a6e6b3          	or	a3,a3,a0
    9eb8:	fa068ae3          	beqz	a3,9e6c <__ieee754_sqrt+0x64>
    9ebc:	00000693          	li	a3,0
    9ec0:	02058e63          	beqz	a1,9efc <__ieee754_sqrt+0xf4>
    9ec4:	00050613          	mv	a2,a0
    9ec8:	00058693          	mv	a3,a1
    9ecc:	718010ef          	jal	b5e4 <__subdf3>
    9ed0:	00050613          	mv	a2,a0
    9ed4:	00058693          	mv	a3,a1
    9ed8:	155000ef          	jal	a82c <__divdf3>
    9edc:	f89ff06f          	j	9e64 <__ieee754_sqrt+0x5c>
    9ee0:	4145d693          	srai	a3,a1,0x14
    9ee4:	04069663          	bnez	a3,9f30 <__ieee754_sqrt+0x128>
    9ee8:	00000613          	li	a2,0
    9eec:	0200006f          	j	9f0c <__ieee754_sqrt+0x104>
    9ef0:	00b7d713          	srli	a4,a5,0xb
    9ef4:	feb68693          	addi	a3,a3,-21
    9ef8:	01579793          	slli	a5,a5,0x15
    9efc:	fe070ae3          	beqz	a4,9ef0 <__ieee754_sqrt+0xe8>
    9f00:	fe9ff06f          	j	9ee8 <__ieee754_sqrt+0xe0>
    9f04:	00171713          	slli	a4,a4,0x1
    9f08:	00160613          	addi	a2,a2,1
    9f0c:	00b71593          	slli	a1,a4,0xb
    9f10:	fe05dae3          	bgez	a1,9f04 <__ieee754_sqrt+0xfc>
    9f14:	fff60593          	addi	a1,a2,-1
    9f18:	40b686b3          	sub	a3,a3,a1
    9f1c:	02000593          	li	a1,32
    9f20:	40c585b3          	sub	a1,a1,a2
    9f24:	00b7d5b3          	srl	a1,a5,a1
    9f28:	00b76733          	or	a4,a4,a1
    9f2c:	00c797b3          	sll	a5,a5,a2
    9f30:	c0168613          	addi	a2,a3,-1023
    9f34:	00c71693          	slli	a3,a4,0xc
    9f38:	00c6d693          	srli	a3,a3,0xc
    9f3c:	00100737          	lui	a4,0x100
    9f40:	00e6e6b3          	or	a3,a3,a4
    9f44:	00167713          	andi	a4,a2,1
    9f48:	00070a63          	beqz	a4,9f5c <__ieee754_sqrt+0x154>
    9f4c:	01f7d713          	srli	a4,a5,0x1f
    9f50:	00169693          	slli	a3,a3,0x1
    9f54:	00d706b3          	add	a3,a4,a3
    9f58:	00179793          	slli	a5,a5,0x1
    9f5c:	01f7d713          	srli	a4,a5,0x1f
    9f60:	00169693          	slli	a3,a3,0x1
    9f64:	40165413          	srai	s0,a2,0x1
    9f68:	00d70733          	add	a4,a4,a3
    9f6c:	00179793          	slli	a5,a5,0x1
    9f70:	01600693          	li	a3,22
    9f74:	00000993          	li	s3,0
    9f78:	00000613          	li	a2,0
    9f7c:	002005b7          	lui	a1,0x200
    9f80:	00b60533          	add	a0,a2,a1
    9f84:	00a74863          	blt	a4,a0,9f94 <__ieee754_sqrt+0x18c>
    9f88:	00b50633          	add	a2,a0,a1
    9f8c:	40a70733          	sub	a4,a4,a0
    9f90:	00b989b3          	add	s3,s3,a1
    9f94:	01f7d513          	srli	a0,a5,0x1f
    9f98:	00171713          	slli	a4,a4,0x1
    9f9c:	fff68693          	addi	a3,a3,-1
    9fa0:	00e50733          	add	a4,a0,a4
    9fa4:	00179793          	slli	a5,a5,0x1
    9fa8:	0015d593          	srli	a1,a1,0x1
    9fac:	fc069ae3          	bnez	a3,9f80 <__ieee754_sqrt+0x178>
    9fb0:	00000913          	li	s2,0
    9fb4:	02000a13          	li	s4,32
    9fb8:	800005b7          	lui	a1,0x80000
    9fbc:	00d58833          	add	a6,a1,a3
    9fc0:	40c708b3          	sub	a7,a4,a2
    9fc4:	00e64663          	blt	a2,a4,9fd0 <__ieee754_sqrt+0x1c8>
    9fc8:	02089663          	bnez	a7,9ff4 <__ieee754_sqrt+0x1ec>
    9fcc:	0307e463          	bltu	a5,a6,9ff4 <__ieee754_sqrt+0x1ec>
    9fd0:	00b806b3          	add	a3,a6,a1
    9fd4:	fff6c513          	not	a0,a3
    9fd8:	01057533          	and	a0,a0,a6
    9fdc:	0107b733          	sltu	a4,a5,a6
    9fe0:	01f55513          	srli	a0,a0,0x1f
    9fe4:	40e88733          	sub	a4,a7,a4
    9fe8:	410787b3          	sub	a5,a5,a6
    9fec:	00b90933          	add	s2,s2,a1
    9ff0:	00c50633          	add	a2,a0,a2
    9ff4:	01f7d513          	srli	a0,a5,0x1f
    9ff8:	00171713          	slli	a4,a4,0x1
    9ffc:	fffa0a13          	addi	s4,s4,-1
    a000:	00e50733          	add	a4,a0,a4
    a004:	00179793          	slli	a5,a5,0x1
    a008:	0015d593          	srli	a1,a1,0x1
    a00c:	fa0a18e3          	bnez	s4,9fbc <__ieee754_sqrt+0x1b4>
    a010:	00f76733          	or	a4,a4,a5
    a014:	04070063          	beqz	a4,a054 <__ieee754_sqrt+0x24c>
    a018:	9581a503          	lw	a0,-1704(gp) # 22dd0 <one>
    a01c:	95c1a583          	lw	a1,-1700(gp) # 22dd4 <one+0x4>
    a020:	9501a603          	lw	a2,-1712(gp) # 22dc8 <tiny>
    a024:	9541a683          	lw	a3,-1708(gp) # 22dcc <tiny+0x4>
    a028:	9581a783          	lw	a5,-1704(gp) # 22dd0 <one>
    a02c:	95c1a803          	lw	a6,-1700(gp) # 22dd4 <one+0x4>
    a030:	00078b13          	mv	s6,a5
    a034:	00080b93          	mv	s7,a6
    a038:	5ac010ef          	jal	b5e4 <__subdf3>
    a03c:	00050613          	mv	a2,a0
    a040:	00058693          	mv	a3,a1
    a044:	000b0513          	mv	a0,s6
    a048:	000b8593          	mv	a1,s7
    a04c:	194020ef          	jal	c1e0 <__ledf2>
    a050:	02a05663          	blez	a0,a07c <__ieee754_sqrt+0x274>
    a054:	00090a13          	mv	s4,s2
    a058:	3fe007b7          	lui	a5,0x3fe00
    a05c:	4019d593          	srai	a1,s3,0x1
    a060:	00f585b3          	add	a1,a1,a5
    a064:	01441613          	slli	a2,s0,0x14
    a068:	01f99793          	slli	a5,s3,0x1f
    a06c:	001a5713          	srli	a4,s4,0x1
    a070:	00e7e4b3          	or	s1,a5,a4
    a074:	00b60433          	add	s0,a2,a1
    a078:	df5ff06f          	j	9e6c <__ieee754_sqrt+0x64>
    a07c:	9581a503          	lw	a0,-1704(gp) # 22dd0 <one>
    a080:	95c1a583          	lw	a1,-1700(gp) # 22dd4 <one+0x4>
    a084:	9501a603          	lw	a2,-1712(gp) # 22dc8 <tiny>
    a088:	9541a683          	lw	a3,-1708(gp) # 22dcc <tiny+0x4>
    a08c:	fff00793          	li	a5,-1
    a090:	00f91663          	bne	s2,a5,a09c <__ieee754_sqrt+0x294>
    a094:	00198993          	addi	s3,s3,1
    a098:	fc1ff06f          	j	a058 <__ieee754_sqrt+0x250>
    a09c:	9581aa03          	lw	s4,-1704(gp) # 22dd0 <one>
    a0a0:	95c1aa83          	lw	s5,-1700(gp) # 22dd4 <one+0x4>
    a0a4:	03c000ef          	jal	a0e0 <__adddf3>
    a0a8:	00050613          	mv	a2,a0
    a0ac:	00058693          	mv	a3,a1
    a0b0:	000a0513          	mv	a0,s4
    a0b4:	000a8593          	mv	a1,s5
    a0b8:	128020ef          	jal	c1e0 <__ledf2>
    a0bc:	00055c63          	bgez	a0,a0d4 <__ieee754_sqrt+0x2cc>
    a0c0:	00290713          	addi	a4,s2,2
    a0c4:	00173793          	seqz	a5,a4
    a0c8:	00f989b3          	add	s3,s3,a5
    a0cc:	00070a13          	mv	s4,a4
    a0d0:	f89ff06f          	j	a058 <__ieee754_sqrt+0x250>
    a0d4:	00190713          	addi	a4,s2,1
    a0d8:	ffe77a13          	andi	s4,a4,-2
    a0dc:	f7dff06f          	j	a058 <__ieee754_sqrt+0x250>

0000a0e0 <__adddf3>:
    a0e0:	00c59793          	slli	a5,a1,0xc
    a0e4:	fe010113          	addi	sp,sp,-32
    a0e8:	01d55713          	srli	a4,a0,0x1d
    a0ec:	0097d793          	srli	a5,a5,0x9
    a0f0:	0146d893          	srli	a7,a3,0x14
    a0f4:	00812c23          	sw	s0,24(sp)
    a0f8:	00f767b3          	or	a5,a4,a5
    a0fc:	0145d413          	srli	s0,a1,0x14
    a100:	00c69713          	slli	a4,a3,0xc
    a104:	00912a23          	sw	s1,20(sp)
    a108:	7ff47413          	andi	s0,s0,2047
    a10c:	01f5d493          	srli	s1,a1,0x1f
    a110:	7ff8f893          	andi	a7,a7,2047
    a114:	01d65593          	srli	a1,a2,0x1d
    a118:	00975713          	srli	a4,a4,0x9
    a11c:	00112e23          	sw	ra,28(sp)
    a120:	01212823          	sw	s2,16(sp)
    a124:	01312623          	sw	s3,12(sp)
    a128:	01f6d693          	srli	a3,a3,0x1f
    a12c:	00351513          	slli	a0,a0,0x3
    a130:	00e5e733          	or	a4,a1,a4
    a134:	00361613          	slli	a2,a2,0x3
    a138:	41140833          	sub	a6,s0,a7
    a13c:	7ff00313          	li	t1,2047
    a140:	30d49663          	bne	s1,a3,a44c <__adddf3+0x36c>
    a144:	17005663          	blez	a6,a2b0 <__adddf3+0x1d0>
    a148:	0a089063          	bnez	a7,a1e8 <__adddf3+0x108>
    a14c:	00c766b3          	or	a3,a4,a2
    a150:	02068463          	beqz	a3,a178 <__adddf3+0x98>
    a154:	fff40813          	addi	a6,s0,-1
    a158:	00081e63          	bnez	a6,a174 <__adddf3+0x94>
    a15c:	00c50633          	add	a2,a0,a2
    a160:	00e787b3          	add	a5,a5,a4
    a164:	00a63533          	sltu	a0,a2,a0
    a168:	00a78733          	add	a4,a5,a0
    a16c:	00100413          	li	s0,1
    a170:	0c80006f          	j	a238 <__adddf3+0x158>
    a174:	08641063          	bne	s0,t1,a1f4 <__adddf3+0x114>
    a178:	01d79713          	slli	a4,a5,0x1d
    a17c:	00355513          	srli	a0,a0,0x3
    a180:	7ff00693          	li	a3,2047
    a184:	00a76733          	or	a4,a4,a0
    a188:	0037d793          	srli	a5,a5,0x3
    a18c:	00d41e63          	bne	s0,a3,a1a8 <__adddf3+0xc8>
    a190:	00f76733          	or	a4,a4,a5
    a194:	00000793          	li	a5,0
    a198:	00070863          	beqz	a4,a1a8 <__adddf3+0xc8>
    a19c:	000807b7          	lui	a5,0x80
    a1a0:	00000713          	li	a4,0
    a1a4:	00000493          	li	s1,0
    a1a8:	7ff47413          	andi	s0,s0,2047
    a1ac:	00c79793          	slli	a5,a5,0xc
    a1b0:	00c7d793          	srli	a5,a5,0xc
    a1b4:	01441413          	slli	s0,s0,0x14
    a1b8:	01f49593          	slli	a1,s1,0x1f
    a1bc:	00f46433          	or	s0,s0,a5
    a1c0:	01c12083          	lw	ra,28(sp)
    a1c4:	00b467b3          	or	a5,s0,a1
    a1c8:	01812403          	lw	s0,24(sp)
    a1cc:	01412483          	lw	s1,20(sp)
    a1d0:	01012903          	lw	s2,16(sp)
    a1d4:	00c12983          	lw	s3,12(sp)
    a1d8:	00070513          	mv	a0,a4
    a1dc:	00078593          	mv	a1,a5
    a1e0:	02010113          	addi	sp,sp,32
    a1e4:	00008067          	ret
    a1e8:	28640c63          	beq	s0,t1,a480 <__adddf3+0x3a0>
    a1ec:	008006b7          	lui	a3,0x800
    a1f0:	00d76733          	or	a4,a4,a3
    a1f4:	03800693          	li	a3,56
    a1f8:	0b06c663          	blt	a3,a6,a2a4 <__adddf3+0x1c4>
    a1fc:	01f00693          	li	a3,31
    a200:	02000893          	li	a7,32
    a204:	0706c863          	blt	a3,a6,a274 <__adddf3+0x194>
    a208:	410888b3          	sub	a7,a7,a6
    a20c:	011716b3          	sll	a3,a4,a7
    a210:	010655b3          	srl	a1,a2,a6
    a214:	011618b3          	sll	a7,a2,a7
    a218:	00b6e6b3          	or	a3,a3,a1
    a21c:	011038b3          	snez	a7,a7
    a220:	0116e6b3          	or	a3,a3,a7
    a224:	01075833          	srl	a6,a4,a6
    a228:	00a68633          	add	a2,a3,a0
    a22c:	00f80833          	add	a6,a6,a5
    a230:	00d636b3          	sltu	a3,a2,a3
    a234:	00d80733          	add	a4,a6,a3
    a238:	00871793          	slli	a5,a4,0x8
    a23c:	1c07de63          	bgez	a5,a418 <__adddf3+0x338>
    a240:	00140413          	addi	s0,s0,1
    a244:	7ff00793          	li	a5,2047
    a248:	5af40c63          	beq	s0,a5,a800 <__adddf3+0x720>
    a24c:	ff8007b7          	lui	a5,0xff800
    a250:	fff78793          	addi	a5,a5,-1 # ff7fffff <_sp+0xff7d4fbf>
    a254:	00f777b3          	and	a5,a4,a5
    a258:	00165713          	srli	a4,a2,0x1
    a25c:	00167613          	andi	a2,a2,1
    a260:	00c76733          	or	a4,a4,a2
    a264:	01f79613          	slli	a2,a5,0x1f
    a268:	00e66633          	or	a2,a2,a4
    a26c:	0017d713          	srli	a4,a5,0x1
    a270:	1a80006f          	j	a418 <__adddf3+0x338>
    a274:	fe080693          	addi	a3,a6,-32
    a278:	00d756b3          	srl	a3,a4,a3
    a27c:	00000593          	li	a1,0
    a280:	01180863          	beq	a6,a7,a290 <__adddf3+0x1b0>
    a284:	04000593          	li	a1,64
    a288:	410585b3          	sub	a1,a1,a6
    a28c:	00b715b3          	sll	a1,a4,a1
    a290:	00c5e5b3          	or	a1,a1,a2
    a294:	00b035b3          	snez	a1,a1
    a298:	00b6e6b3          	or	a3,a3,a1
    a29c:	00000813          	li	a6,0
    a2a0:	f89ff06f          	j	a228 <__adddf3+0x148>
    a2a4:	00c766b3          	or	a3,a4,a2
    a2a8:	00d036b3          	snez	a3,a3
    a2ac:	ff1ff06f          	j	a29c <__adddf3+0x1bc>
    a2b0:	0c080663          	beqz	a6,a37c <__adddf3+0x29c>
    a2b4:	408886b3          	sub	a3,a7,s0
    a2b8:	06041a63          	bnez	s0,a32c <__adddf3+0x24c>
    a2bc:	00a7e5b3          	or	a1,a5,a0
    a2c0:	00059a63          	bnez	a1,a2d4 <__adddf3+0x1f4>
    a2c4:	00070793          	mv	a5,a4
    a2c8:	00060513          	mv	a0,a2
    a2cc:	00068413          	mv	s0,a3
    a2d0:	ea9ff06f          	j	a178 <__adddf3+0x98>
    a2d4:	fff68593          	addi	a1,a3,-1 # 7fffff <_sp+0x7d4fbf>
    a2d8:	e80582e3          	beqz	a1,a15c <__adddf3+0x7c>
    a2dc:	fe6684e3          	beq	a3,t1,a2c4 <__adddf3+0x1e4>
    a2e0:	03800693          	li	a3,56
    a2e4:	08b6c663          	blt	a3,a1,a370 <__adddf3+0x290>
    a2e8:	01f00693          	li	a3,31
    a2ec:	02000313          	li	t1,32
    a2f0:	04b6c863          	blt	a3,a1,a340 <__adddf3+0x260>
    a2f4:	40b30333          	sub	t1,t1,a1
    a2f8:	006796b3          	sll	a3,a5,t1
    a2fc:	00b55833          	srl	a6,a0,a1
    a300:	00651333          	sll	t1,a0,t1
    a304:	0106e6b3          	or	a3,a3,a6
    a308:	00603333          	snez	t1,t1
    a30c:	0066e6b3          	or	a3,a3,t1
    a310:	00b7d5b3          	srl	a1,a5,a1
    a314:	00c68633          	add	a2,a3,a2
    a318:	00e585b3          	add	a1,a1,a4
    a31c:	00d636b3          	sltu	a3,a2,a3
    a320:	00d58733          	add	a4,a1,a3
    a324:	00088413          	mv	s0,a7
    a328:	f11ff06f          	j	a238 <__adddf3+0x158>
    a32c:	4e688a63          	beq	a7,t1,a820 <__adddf3+0x740>
    a330:	008005b7          	lui	a1,0x800
    a334:	00b7e7b3          	or	a5,a5,a1
    a338:	00068593          	mv	a1,a3
    a33c:	fa5ff06f          	j	a2e0 <__adddf3+0x200>
    a340:	fe058693          	addi	a3,a1,-32 # 7fffe0 <_sp+0x7d4fa0>
    a344:	00d7d6b3          	srl	a3,a5,a3
    a348:	00000813          	li	a6,0
    a34c:	00658863          	beq	a1,t1,a35c <__adddf3+0x27c>
    a350:	04000813          	li	a6,64
    a354:	40b80833          	sub	a6,a6,a1
    a358:	01079833          	sll	a6,a5,a6
    a35c:	00a86833          	or	a6,a6,a0
    a360:	01003833          	snez	a6,a6
    a364:	0106e6b3          	or	a3,a3,a6
    a368:	00000593          	li	a1,0
    a36c:	fa9ff06f          	j	a314 <__adddf3+0x234>
    a370:	00a7e6b3          	or	a3,a5,a0
    a374:	00d036b3          	snez	a3,a3
    a378:	ff1ff06f          	j	a368 <__adddf3+0x288>
    a37c:	00140693          	addi	a3,s0,1
    a380:	7fe6f593          	andi	a1,a3,2046
    a384:	06059663          	bnez	a1,a3f0 <__adddf3+0x310>
    a388:	00a7e6b3          	or	a3,a5,a0
    a38c:	04041263          	bnez	s0,a3d0 <__adddf3+0x2f0>
    a390:	2a068a63          	beqz	a3,a644 <__adddf3+0x564>
    a394:	00c766b3          	or	a3,a4,a2
    a398:	42068e63          	beqz	a3,a7d4 <__adddf3+0x6f4>
    a39c:	00c506b3          	add	a3,a0,a2
    a3a0:	00e787b3          	add	a5,a5,a4
    a3a4:	00a6b533          	sltu	a0,a3,a0
    a3a8:	00a78733          	add	a4,a5,a0
    a3ac:	00871793          	slli	a5,a4,0x8
    a3b0:	00068613          	mv	a2,a3
    a3b4:	2807d863          	bgez	a5,a644 <__adddf3+0x564>
    a3b8:	ff8007b7          	lui	a5,0xff800
    a3bc:	fff78793          	addi	a5,a5,-1 # ff7fffff <_sp+0xff7d4fbf>
    a3c0:	00f777b3          	and	a5,a4,a5
    a3c4:	00068513          	mv	a0,a3
    a3c8:	00100413          	li	s0,1
    a3cc:	dadff06f          	j	a178 <__adddf3+0x98>
    a3d0:	44068863          	beqz	a3,a820 <__adddf3+0x740>
    a3d4:	00c76733          	or	a4,a4,a2
    a3d8:	00030413          	mv	s0,t1
    a3dc:	d8070ee3          	beqz	a4,a178 <__adddf3+0x98>
    a3e0:	00000493          	li	s1,0
    a3e4:	004007b7          	lui	a5,0x400
    a3e8:	00000513          	li	a0,0
    a3ec:	d8dff06f          	j	a178 <__adddf3+0x98>
    a3f0:	40668663          	beq	a3,t1,a7fc <__adddf3+0x71c>
    a3f4:	00c50633          	add	a2,a0,a2
    a3f8:	00e787b3          	add	a5,a5,a4
    a3fc:	00a63533          	sltu	a0,a2,a0
    a400:	00a787b3          	add	a5,a5,a0
    a404:	01f79713          	slli	a4,a5,0x1f
    a408:	00165613          	srli	a2,a2,0x1
    a40c:	00c76633          	or	a2,a4,a2
    a410:	00068413          	mv	s0,a3
    a414:	0017d713          	srli	a4,a5,0x1
    a418:	00767793          	andi	a5,a2,7
    a41c:	3c079263          	bnez	a5,a7e0 <__adddf3+0x700>
    a420:	00070793          	mv	a5,a4
    a424:	00060513          	mv	a0,a2
    a428:	00879713          	slli	a4,a5,0x8
    a42c:	d40756e3          	bgez	a4,a178 <__adddf3+0x98>
    a430:	00140413          	addi	s0,s0,1
    a434:	7ff00713          	li	a4,2047
    a438:	3ce40463          	beq	s0,a4,a800 <__adddf3+0x720>
    a43c:	ff800737          	lui	a4,0xff800
    a440:	fff70713          	addi	a4,a4,-1 # ff7fffff <_sp+0xff7d4fbf>
    a444:	00e7f7b3          	and	a5,a5,a4
    a448:	d31ff06f          	j	a178 <__adddf3+0x98>
    a44c:	0f005063          	blez	a6,a52c <__adddf3+0x44c>
    a450:	02089c63          	bnez	a7,a488 <__adddf3+0x3a8>
    a454:	00c766b3          	or	a3,a4,a2
    a458:	d20680e3          	beqz	a3,a178 <__adddf3+0x98>
    a45c:	fff40813          	addi	a6,s0,-1
    a460:	00081e63          	bnez	a6,a47c <__adddf3+0x39c>
    a464:	40c50633          	sub	a2,a0,a2
    a468:	40e787b3          	sub	a5,a5,a4
    a46c:	00c53533          	sltu	a0,a0,a2
    a470:	40a78733          	sub	a4,a5,a0
    a474:	00100413          	li	s0,1
    a478:	0600006f          	j	a4d8 <__adddf3+0x3f8>
    a47c:	00641c63          	bne	s0,t1,a494 <__adddf3+0x3b4>
    a480:	7ff00413          	li	s0,2047
    a484:	cf5ff06f          	j	a178 <__adddf3+0x98>
    a488:	ce6408e3          	beq	s0,t1,a178 <__adddf3+0x98>
    a48c:	008006b7          	lui	a3,0x800
    a490:	00d76733          	or	a4,a4,a3
    a494:	03800693          	li	a3,56
    a498:	0906c463          	blt	a3,a6,a520 <__adddf3+0x440>
    a49c:	01f00693          	li	a3,31
    a4a0:	02000893          	li	a7,32
    a4a4:	0506c663          	blt	a3,a6,a4f0 <__adddf3+0x410>
    a4a8:	410888b3          	sub	a7,a7,a6
    a4ac:	011716b3          	sll	a3,a4,a7
    a4b0:	010655b3          	srl	a1,a2,a6
    a4b4:	011618b3          	sll	a7,a2,a7
    a4b8:	00b6e6b3          	or	a3,a3,a1
    a4bc:	011038b3          	snez	a7,a7
    a4c0:	0116e6b3          	or	a3,a3,a7
    a4c4:	01075833          	srl	a6,a4,a6
    a4c8:	40d50633          	sub	a2,a0,a3
    a4cc:	41078833          	sub	a6,a5,a6
    a4d0:	00c53533          	sltu	a0,a0,a2
    a4d4:	40a80733          	sub	a4,a6,a0
    a4d8:	00871793          	slli	a5,a4,0x8
    a4dc:	f207dee3          	bgez	a5,a418 <__adddf3+0x338>
    a4e0:	00971913          	slli	s2,a4,0x9
    a4e4:	00995913          	srli	s2,s2,0x9
    a4e8:	00060993          	mv	s3,a2
    a4ec:	2040006f          	j	a6f0 <__adddf3+0x610>
    a4f0:	fe080693          	addi	a3,a6,-32
    a4f4:	00d756b3          	srl	a3,a4,a3
    a4f8:	00000593          	li	a1,0
    a4fc:	01180863          	beq	a6,a7,a50c <__adddf3+0x42c>
    a500:	04000593          	li	a1,64
    a504:	410585b3          	sub	a1,a1,a6
    a508:	00b715b3          	sll	a1,a4,a1
    a50c:	00c5e5b3          	or	a1,a1,a2
    a510:	00b035b3          	snez	a1,a1
    a514:	00b6e6b3          	or	a3,a3,a1
    a518:	00000813          	li	a6,0
    a51c:	fadff06f          	j	a4c8 <__adddf3+0x3e8>
    a520:	00c766b3          	or	a3,a4,a2
    a524:	00d036b3          	snez	a3,a3
    a528:	ff1ff06f          	j	a518 <__adddf3+0x438>
    a52c:	0e080a63          	beqz	a6,a620 <__adddf3+0x540>
    a530:	40888833          	sub	a6,a7,s0
    a534:	08041e63          	bnez	s0,a5d0 <__adddf3+0x4f0>
    a538:	00a7e5b3          	or	a1,a5,a0
    a53c:	00059c63          	bnez	a1,a554 <__adddf3+0x474>
    a540:	00068493          	mv	s1,a3
    a544:	00070793          	mv	a5,a4
    a548:	00060513          	mv	a0,a2
    a54c:	00080413          	mv	s0,a6
    a550:	c29ff06f          	j	a178 <__adddf3+0x98>
    a554:	fff80593          	addi	a1,a6,-1
    a558:	02059063          	bnez	a1,a578 <__adddf3+0x498>
    a55c:	40a60533          	sub	a0,a2,a0
    a560:	00a635b3          	sltu	a1,a2,a0
    a564:	40f707b3          	sub	a5,a4,a5
    a568:	00050613          	mv	a2,a0
    a56c:	40b78733          	sub	a4,a5,a1
    a570:	00068493          	mv	s1,a3
    a574:	f01ff06f          	j	a474 <__adddf3+0x394>
    a578:	fc6804e3          	beq	a6,t1,a540 <__adddf3+0x460>
    a57c:	03800813          	li	a6,56
    a580:	08b84a63          	blt	a6,a1,a614 <__adddf3+0x534>
    a584:	01f00813          	li	a6,31
    a588:	02000e13          	li	t3,32
    a58c:	04b84c63          	blt	a6,a1,a5e4 <__adddf3+0x504>
    a590:	40be0e33          	sub	t3,t3,a1
    a594:	00b55333          	srl	t1,a0,a1
    a598:	01c79833          	sll	a6,a5,t3
    a59c:	01c51e33          	sll	t3,a0,t3
    a5a0:	00686833          	or	a6,a6,t1
    a5a4:	01c03e33          	snez	t3,t3
    a5a8:	01c86533          	or	a0,a6,t3
    a5ac:	00b7d5b3          	srl	a1,a5,a1
    a5b0:	40a60533          	sub	a0,a2,a0
    a5b4:	00a637b3          	sltu	a5,a2,a0
    a5b8:	40b705b3          	sub	a1,a4,a1
    a5bc:	00050613          	mv	a2,a0
    a5c0:	40f58733          	sub	a4,a1,a5
    a5c4:	00088413          	mv	s0,a7
    a5c8:	00068493          	mv	s1,a3
    a5cc:	f0dff06f          	j	a4d8 <__adddf3+0x3f8>
    a5d0:	24688663          	beq	a7,t1,a81c <__adddf3+0x73c>
    a5d4:	008005b7          	lui	a1,0x800
    a5d8:	00b7e7b3          	or	a5,a5,a1
    a5dc:	00080593          	mv	a1,a6
    a5e0:	f9dff06f          	j	a57c <__adddf3+0x49c>
    a5e4:	fe058813          	addi	a6,a1,-32 # 7fffe0 <_sp+0x7d4fa0>
    a5e8:	0107d833          	srl	a6,a5,a6
    a5ec:	00000313          	li	t1,0
    a5f0:	01c58863          	beq	a1,t3,a600 <__adddf3+0x520>
    a5f4:	04000313          	li	t1,64
    a5f8:	40b30333          	sub	t1,t1,a1
    a5fc:	00679333          	sll	t1,a5,t1
    a600:	00a36333          	or	t1,t1,a0
    a604:	00603333          	snez	t1,t1
    a608:	00686533          	or	a0,a6,t1
    a60c:	00000593          	li	a1,0
    a610:	fa1ff06f          	j	a5b0 <__adddf3+0x4d0>
    a614:	00a7e533          	or	a0,a5,a0
    a618:	00a03533          	snez	a0,a0
    a61c:	ff1ff06f          	j	a60c <__adddf3+0x52c>
    a620:	00140593          	addi	a1,s0,1
    a624:	7fe5f593          	andi	a1,a1,2046
    a628:	08059c63          	bnez	a1,a6c0 <__adddf3+0x5e0>
    a62c:	00a7e833          	or	a6,a5,a0
    a630:	00c765b3          	or	a1,a4,a2
    a634:	06041463          	bnez	s0,a69c <__adddf3+0x5bc>
    a638:	00081e63          	bnez	a6,a654 <__adddf3+0x574>
    a63c:	1c058663          	beqz	a1,a808 <__adddf3+0x728>
    a640:	00068493          	mv	s1,a3
    a644:	00c76533          	or	a0,a4,a2
    a648:	10050c63          	beqz	a0,a760 <__adddf3+0x680>
    a64c:	00000413          	li	s0,0
    a650:	dc9ff06f          	j	a418 <__adddf3+0x338>
    a654:	18058063          	beqz	a1,a7d4 <__adddf3+0x6f4>
    a658:	40c50833          	sub	a6,a0,a2
    a65c:	010538b3          	sltu	a7,a0,a6
    a660:	40e785b3          	sub	a1,a5,a4
    a664:	411585b3          	sub	a1,a1,a7
    a668:	00859893          	slli	a7,a1,0x8
    a66c:	0008de63          	bgez	a7,a688 <__adddf3+0x5a8>
    a670:	40a60533          	sub	a0,a2,a0
    a674:	00a635b3          	sltu	a1,a2,a0
    a678:	40f707b3          	sub	a5,a4,a5
    a67c:	00050613          	mv	a2,a0
    a680:	40b78733          	sub	a4,a5,a1
    a684:	fbdff06f          	j	a640 <__adddf3+0x560>
    a688:	00b86533          	or	a0,a6,a1
    a68c:	18050263          	beqz	a0,a810 <__adddf3+0x730>
    a690:	00058713          	mv	a4,a1
    a694:	00080613          	mv	a2,a6
    a698:	fadff06f          	j	a644 <__adddf3+0x564>
    a69c:	00081c63          	bnez	a6,a6b4 <__adddf3+0x5d4>
    a6a0:	16059e63          	bnez	a1,a81c <__adddf3+0x73c>
    a6a4:	00000493          	li	s1,0
    a6a8:	00000513          	li	a0,0
    a6ac:	004007b7          	lui	a5,0x400
    a6b0:	dd1ff06f          	j	a480 <__adddf3+0x3a0>
    a6b4:	00030413          	mv	s0,t1
    a6b8:	ac0580e3          	beqz	a1,a178 <__adddf3+0x98>
    a6bc:	d25ff06f          	j	a3e0 <__adddf3+0x300>
    a6c0:	40c505b3          	sub	a1,a0,a2
    a6c4:	00b53833          	sltu	a6,a0,a1
    a6c8:	40e78933          	sub	s2,a5,a4
    a6cc:	41090933          	sub	s2,s2,a6
    a6d0:	00891813          	slli	a6,s2,0x8
    a6d4:	00058993          	mv	s3,a1
    a6d8:	06085e63          	bgez	a6,a754 <__adddf3+0x674>
    a6dc:	40a609b3          	sub	s3,a2,a0
    a6e0:	40f70933          	sub	s2,a4,a5
    a6e4:	01363633          	sltu	a2,a2,s3
    a6e8:	40c90933          	sub	s2,s2,a2
    a6ec:	00068493          	mv	s1,a3
    a6f0:	06090e63          	beqz	s2,a76c <__adddf3+0x68c>
    a6f4:	00090513          	mv	a0,s2
    a6f8:	690010ef          	jal	bd88 <__clzsi2>
    a6fc:	ff850793          	addi	a5,a0,-8
    a700:	02000713          	li	a4,32
    a704:	40f70733          	sub	a4,a4,a5
    a708:	00f91933          	sll	s2,s2,a5
    a70c:	00e9d733          	srl	a4,s3,a4
    a710:	01276733          	or	a4,a4,s2
    a714:	00f99633          	sll	a2,s3,a5
    a718:	0a87c463          	blt	a5,s0,a7c0 <__adddf3+0x6e0>
    a71c:	408787b3          	sub	a5,a5,s0
    a720:	00178513          	addi	a0,a5,1 # 400001 <_sp+0x3d4fc1>
    a724:	01f00693          	li	a3,31
    a728:	02000593          	li	a1,32
    a72c:	06a6c263          	blt	a3,a0,a790 <__adddf3+0x6b0>
    a730:	40a585b3          	sub	a1,a1,a0
    a734:	00b717b3          	sll	a5,a4,a1
    a738:	00a656b3          	srl	a3,a2,a0
    a73c:	00b615b3          	sll	a1,a2,a1
    a740:	00d7e7b3          	or	a5,a5,a3
    a744:	00b035b3          	snez	a1,a1
    a748:	00b7e633          	or	a2,a5,a1
    a74c:	00a75733          	srl	a4,a4,a0
    a750:	ef5ff06f          	j	a644 <__adddf3+0x564>
    a754:	0125e533          	or	a0,a1,s2
    a758:	f8051ce3          	bnez	a0,a6f0 <__adddf3+0x610>
    a75c:	00000493          	li	s1,0
    a760:	00000793          	li	a5,0
    a764:	00000413          	li	s0,0
    a768:	a11ff06f          	j	a178 <__adddf3+0x98>
    a76c:	00098513          	mv	a0,s3
    a770:	618010ef          	jal	bd88 <__clzsi2>
    a774:	01850793          	addi	a5,a0,24
    a778:	01f00713          	li	a4,31
    a77c:	f8f752e3          	bge	a4,a5,a700 <__adddf3+0x620>
    a780:	ff850713          	addi	a4,a0,-8
    a784:	00e99733          	sll	a4,s3,a4
    a788:	00000613          	li	a2,0
    a78c:	f8dff06f          	j	a718 <__adddf3+0x638>
    a790:	fe178793          	addi	a5,a5,-31
    a794:	00f757b3          	srl	a5,a4,a5
    a798:	00000693          	li	a3,0
    a79c:	00b50863          	beq	a0,a1,a7ac <__adddf3+0x6cc>
    a7a0:	04000693          	li	a3,64
    a7a4:	40a686b3          	sub	a3,a3,a0
    a7a8:	00d716b3          	sll	a3,a4,a3
    a7ac:	00d666b3          	or	a3,a2,a3
    a7b0:	00d036b3          	snez	a3,a3
    a7b4:	00d7e633          	or	a2,a5,a3
    a7b8:	00000713          	li	a4,0
    a7bc:	e89ff06f          	j	a644 <__adddf3+0x564>
    a7c0:	40f40433          	sub	s0,s0,a5
    a7c4:	ff8007b7          	lui	a5,0xff800
    a7c8:	fff78793          	addi	a5,a5,-1 # ff7fffff <_sp+0xff7d4fbf>
    a7cc:	00f77733          	and	a4,a4,a5
    a7d0:	c49ff06f          	j	a418 <__adddf3+0x338>
    a7d4:	00078713          	mv	a4,a5
    a7d8:	00050613          	mv	a2,a0
    a7dc:	e69ff06f          	j	a644 <__adddf3+0x564>
    a7e0:	00f67793          	andi	a5,a2,15
    a7e4:	00400693          	li	a3,4
    a7e8:	c2d78ce3          	beq	a5,a3,a420 <__adddf3+0x340>
    a7ec:	00d60533          	add	a0,a2,a3
    a7f0:	00c537b3          	sltu	a5,a0,a2
    a7f4:	00e787b3          	add	a5,a5,a4
    a7f8:	c31ff06f          	j	a428 <__adddf3+0x348>
    a7fc:	00068413          	mv	s0,a3
    a800:	00000793          	li	a5,0
    a804:	be5ff06f          	j	a3e8 <__adddf3+0x308>
    a808:	00000493          	li	s1,0
    a80c:	ff5ff06f          	j	a800 <__adddf3+0x720>
    a810:	00000493          	li	s1,0
    a814:	00000793          	li	a5,0
    a818:	961ff06f          	j	a178 <__adddf3+0x98>
    a81c:	00068493          	mv	s1,a3
    a820:	00070793          	mv	a5,a4
    a824:	00060513          	mv	a0,a2
    a828:	c59ff06f          	j	a480 <__adddf3+0x3a0>

0000a82c <__divdf3>:
    a82c:	fd010113          	addi	sp,sp,-48
    a830:	01512a23          	sw	s5,20(sp)
    a834:	0145da93          	srli	s5,a1,0x14
    a838:	02812423          	sw	s0,40(sp)
    a83c:	02912223          	sw	s1,36(sp)
    a840:	03212023          	sw	s2,32(sp)
    a844:	01312e23          	sw	s3,28(sp)
    a848:	01612823          	sw	s6,16(sp)
    a84c:	01712623          	sw	s7,12(sp)
    a850:	00050b13          	mv	s6,a0
    a854:	00050413          	mv	s0,a0
    a858:	00c59493          	slli	s1,a1,0xc
    a85c:	02112623          	sw	ra,44(sp)
    a860:	01412c23          	sw	s4,24(sp)
    a864:	7ffaf513          	andi	a0,s5,2047
    a868:	00060b93          	mv	s7,a2
    a86c:	00068913          	mv	s2,a3
    a870:	00c4d493          	srli	s1,s1,0xc
    a874:	01f5d993          	srli	s3,a1,0x1f
    a878:	38050463          	beqz	a0,ac00 <__divdf3+0x3d4>
    a87c:	7ff00793          	li	a5,2047
    a880:	3ef50663          	beq	a0,a5,ac6c <__divdf3+0x440>
    a884:	01db5693          	srli	a3,s6,0x1d
    a888:	00349493          	slli	s1,s1,0x3
    a88c:	0096e6b3          	or	a3,a3,s1
    a890:	008007b7          	lui	a5,0x800
    a894:	00f6ea33          	or	s4,a3,a5
    a898:	003b1413          	slli	s0,s6,0x3
    a89c:	c0150a93          	addi	s5,a0,-1023
    a8a0:	00000b13          	li	s6,0
    a8a4:	01495713          	srli	a4,s2,0x14
    a8a8:	00c91493          	slli	s1,s2,0xc
    a8ac:	7ff77713          	andi	a4,a4,2047
    a8b0:	000b8893          	mv	a7,s7
    a8b4:	00c4d493          	srli	s1,s1,0xc
    a8b8:	01f95913          	srli	s2,s2,0x1f
    a8bc:	3e070463          	beqz	a4,aca4 <__divdf3+0x478>
    a8c0:	7ff00793          	li	a5,2047
    a8c4:	44f70663          	beq	a4,a5,ad10 <__divdf3+0x4e4>
    a8c8:	01dbd793          	srli	a5,s7,0x1d
    a8cc:	00349493          	slli	s1,s1,0x3
    a8d0:	00f4e4b3          	or	s1,s1,a5
    a8d4:	008007b7          	lui	a5,0x800
    a8d8:	00f4e7b3          	or	a5,s1,a5
    a8dc:	003b9893          	slli	a7,s7,0x3
    a8e0:	c0170713          	addi	a4,a4,-1023
    a8e4:	00000693          	li	a3,0
    a8e8:	40ea8533          	sub	a0,s5,a4
    a8ec:	002b1713          	slli	a4,s6,0x2
    a8f0:	00d76733          	or	a4,a4,a3
    a8f4:	00700613          	li	a2,7
    a8f8:	0129c833          	xor	a6,s3,s2
    a8fc:	44e64263          	blt	a2,a4,ad40 <__divdf3+0x514>
    a900:	00100613          	li	a2,1
    a904:	60c70463          	beq	a4,a2,af0c <__divdf3+0x6e0>
    a908:	ffe70593          	addi	a1,a4,-2
    a90c:	00500313          	li	t1,5
    a910:	44b37a63          	bgeu	t1,a1,ad64 <__divdf3+0x538>
    a914:	0147e663          	bltu	a5,s4,a920 <__divdf3+0xf4>
    a918:	4b146063          	bltu	s0,a7,adb8 <__divdf3+0x58c>
    a91c:	48fa1e63          	bne	s4,a5,adb8 <__divdf3+0x58c>
    a920:	01fa1693          	slli	a3,s4,0x1f
    a924:	00145713          	srli	a4,s0,0x1
    a928:	01f41293          	slli	t0,s0,0x1f
    a92c:	001a5a13          	srli	s4,s4,0x1
    a930:	00e6e433          	or	s0,a3,a4
    a934:	00879e13          	slli	t3,a5,0x8
    a938:	0188d613          	srli	a2,a7,0x18
    a93c:	01c66633          	or	a2,a2,t3
    a940:	010e5e13          	srli	t3,t3,0x10
    a944:	03ca57b3          	divu	a5,s4,t3
    a948:	01061e93          	slli	t4,a2,0x10
    a94c:	010ede93          	srli	t4,t4,0x10
    a950:	01045713          	srli	a4,s0,0x10
    a954:	00889593          	slli	a1,a7,0x8
    a958:	03ca76b3          	remu	a3,s4,t3
    a95c:	02fe8333          	mul	t1,t4,a5
    a960:	01069693          	slli	a3,a3,0x10
    a964:	00d76733          	or	a4,a4,a3
    a968:	00677a63          	bgeu	a4,t1,a97c <__divdf3+0x150>
    a96c:	00e60733          	add	a4,a2,a4
    a970:	00c76463          	bltu	a4,a2,a978 <__divdf3+0x14c>
    a974:	44676863          	bltu	a4,t1,adc4 <__divdf3+0x598>
    a978:	fff78793          	addi	a5,a5,-1 # 7fffff <_sp+0x7d4fbf>
    a97c:	40670733          	sub	a4,a4,t1
    a980:	03c75333          	divu	t1,a4,t3
    a984:	01041693          	slli	a3,s0,0x10
    a988:	0106d693          	srli	a3,a3,0x10
    a98c:	03c77733          	remu	a4,a4,t3
    a990:	026e8f33          	mul	t5,t4,t1
    a994:	01071713          	slli	a4,a4,0x10
    a998:	00e6e733          	or	a4,a3,a4
    a99c:	01e77a63          	bgeu	a4,t5,a9b0 <__divdf3+0x184>
    a9a0:	00e60733          	add	a4,a2,a4
    a9a4:	01e77463          	bgeu	a4,t5,a9ac <__divdf3+0x180>
    a9a8:	42c77463          	bgeu	a4,a2,add0 <__divdf3+0x5a4>
    a9ac:	fff30313          	addi	t1,t1,-1
    a9b0:	01079793          	slli	a5,a5,0x10
    a9b4:	0067e7b3          	or	a5,a5,t1
    a9b8:	01079693          	slli	a3,a5,0x10
    a9bc:	01059f93          	slli	t6,a1,0x10
    a9c0:	0107d393          	srli	t2,a5,0x10
    a9c4:	0106d693          	srli	a3,a3,0x10
    a9c8:	010fdf93          	srli	t6,t6,0x10
    a9cc:	41e70733          	sub	a4,a4,t5
    a9d0:	0105df13          	srli	t5,a1,0x10
    a9d4:	03f68433          	mul	s0,a3,t6
    a9d8:	03f384b3          	mul	s1,t2,t6
    a9dc:	01045313          	srli	t1,s0,0x10
    a9e0:	02df06b3          	mul	a3,t5,a3
    a9e4:	03e383b3          	mul	t2,t2,t5
    a9e8:	009686b3          	add	a3,a3,s1
    a9ec:	00d30333          	add	t1,t1,a3
    a9f0:	00937663          	bgeu	t1,s1,a9fc <__divdf3+0x1d0>
    a9f4:	000106b7          	lui	a3,0x10
    a9f8:	00d383b3          	add	t2,t2,a3
    a9fc:	01035693          	srli	a3,t1,0x10
    aa00:	01041413          	slli	s0,s0,0x10
    aa04:	01031313          	slli	t1,t1,0x10
    aa08:	01045413          	srli	s0,s0,0x10
    aa0c:	007686b3          	add	a3,a3,t2
    aa10:	00830333          	add	t1,t1,s0
    aa14:	00d76663          	bltu	a4,a3,aa20 <__divdf3+0x1f4>
    aa18:	02d71e63          	bne	a4,a3,aa54 <__divdf3+0x228>
    aa1c:	0262fc63          	bgeu	t0,t1,aa54 <__divdf3+0x228>
    aa20:	00b283b3          	add	t2,t0,a1
    aa24:	0053b433          	sltu	s0,t2,t0
    aa28:	00c40933          	add	s2,s0,a2
    aa2c:	01270733          	add	a4,a4,s2
    aa30:	fff78493          	addi	s1,a5,-1
    aa34:	00038293          	mv	t0,t2
    aa38:	00e66663          	bltu	a2,a4,aa44 <__divdf3+0x218>
    aa3c:	00e61a63          	bne	a2,a4,aa50 <__divdf3+0x224>
    aa40:	00041863          	bnez	s0,aa50 <__divdf3+0x224>
    aa44:	38d76c63          	bltu	a4,a3,addc <__divdf3+0x5b0>
    aa48:	0063f463          	bgeu	t2,t1,aa50 <__divdf3+0x224>
    aa4c:	38e68863          	beq	a3,a4,addc <__divdf3+0x5b0>
    aa50:	00048793          	mv	a5,s1
    aa54:	40628333          	sub	t1,t0,t1
    aa58:	40d70733          	sub	a4,a4,a3
    aa5c:	0062b2b3          	sltu	t0,t0,t1
    aa60:	40570733          	sub	a4,a4,t0
    aa64:	fff00413          	li	s0,-1
    aa68:	0ee60a63          	beq	a2,a4,ab5c <__divdf3+0x330>
    aa6c:	03c75433          	divu	s0,a4,t3
    aa70:	01035693          	srli	a3,t1,0x10
    aa74:	03c77733          	remu	a4,a4,t3
    aa78:	028e82b3          	mul	t0,t4,s0
    aa7c:	01071713          	slli	a4,a4,0x10
    aa80:	00e6e6b3          	or	a3,a3,a4
    aa84:	0056fa63          	bgeu	a3,t0,aa98 <__divdf3+0x26c>
    aa88:	00d606b3          	add	a3,a2,a3
    aa8c:	0056f463          	bgeu	a3,t0,aa94 <__divdf3+0x268>
    aa90:	36c6f263          	bgeu	a3,a2,adf4 <__divdf3+0x5c8>
    aa94:	fff40413          	addi	s0,s0,-1
    aa98:	405686b3          	sub	a3,a3,t0
    aa9c:	03c6d2b3          	divu	t0,a3,t3
    aaa0:	01031713          	slli	a4,t1,0x10
    aaa4:	01075713          	srli	a4,a4,0x10
    aaa8:	03c6f6b3          	remu	a3,a3,t3
    aaac:	025e8eb3          	mul	t4,t4,t0
    aab0:	01069693          	slli	a3,a3,0x10
    aab4:	00d76733          	or	a4,a4,a3
    aab8:	01d77a63          	bgeu	a4,t4,aacc <__divdf3+0x2a0>
    aabc:	00e60733          	add	a4,a2,a4
    aac0:	01d77463          	bgeu	a4,t4,aac8 <__divdf3+0x29c>
    aac4:	32c77e63          	bgeu	a4,a2,ae00 <__divdf3+0x5d4>
    aac8:	fff28293          	addi	t0,t0,-1
    aacc:	01041413          	slli	s0,s0,0x10
    aad0:	00546433          	or	s0,s0,t0
    aad4:	01041693          	slli	a3,s0,0x10
    aad8:	0106d693          	srli	a3,a3,0x10
    aadc:	01045e13          	srli	t3,s0,0x10
    aae0:	41d70733          	sub	a4,a4,t4
    aae4:	02df8eb3          	mul	t4,t6,a3
    aae8:	03cf8fb3          	mul	t6,t6,t3
    aaec:	03cf0e33          	mul	t3,t5,t3
    aaf0:	02df0f33          	mul	t5,t5,a3
    aaf4:	010ed693          	srli	a3,t4,0x10
    aaf8:	01ff0f33          	add	t5,t5,t6
    aafc:	01e686b3          	add	a3,a3,t5
    ab00:	01f6f663          	bgeu	a3,t6,ab0c <__divdf3+0x2e0>
    ab04:	00010337          	lui	t1,0x10
    ab08:	006e0e33          	add	t3,t3,t1
    ab0c:	0106d313          	srli	t1,a3,0x10
    ab10:	010e9e93          	slli	t4,t4,0x10
    ab14:	01069693          	slli	a3,a3,0x10
    ab18:	010ede93          	srli	t4,t4,0x10
    ab1c:	01c30333          	add	t1,t1,t3
    ab20:	01d686b3          	add	a3,a3,t4
    ab24:	00676663          	bltu	a4,t1,ab30 <__divdf3+0x304>
    ab28:	30671463          	bne	a4,t1,ae30 <__divdf3+0x604>
    ab2c:	2e068c63          	beqz	a3,ae24 <__divdf3+0x5f8>
    ab30:	00e60e33          	add	t3,a2,a4
    ab34:	fff40e93          	addi	t4,s0,-1
    ab38:	000e0713          	mv	a4,t3
    ab3c:	00ce6863          	bltu	t3,a2,ab4c <__divdf3+0x320>
    ab40:	2c6e6663          	bltu	t3,t1,ae0c <__divdf3+0x5e0>
    ab44:	2e6e1463          	bne	t3,t1,ae2c <__divdf3+0x600>
    ab48:	2cd5e263          	bltu	a1,a3,ae0c <__divdf3+0x5e0>
    ab4c:	00058893          	mv	a7,a1
    ab50:	000e8413          	mv	s0,t4
    ab54:	2cd89e63          	bne	a7,a3,ae30 <__divdf3+0x604>
    ab58:	2c671c63          	bne	a4,t1,ae30 <__divdf3+0x604>
    ab5c:	3ff50713          	addi	a4,a0,1023
    ab60:	2ee05463          	blez	a4,ae48 <__divdf3+0x61c>
    ab64:	00747693          	andi	a3,s0,7
    ab68:	02068063          	beqz	a3,ab88 <__divdf3+0x35c>
    ab6c:	00f47693          	andi	a3,s0,15
    ab70:	00400613          	li	a2,4
    ab74:	00c68a63          	beq	a3,a2,ab88 <__divdf3+0x35c>
    ab78:	00c406b3          	add	a3,s0,a2
    ab7c:	0086b633          	sltu	a2,a3,s0
    ab80:	00c787b3          	add	a5,a5,a2
    ab84:	00068413          	mv	s0,a3
    ab88:	00779693          	slli	a3,a5,0x7
    ab8c:	0006da63          	bgez	a3,aba0 <__divdf3+0x374>
    ab90:	ff000737          	lui	a4,0xff000
    ab94:	fff70713          	addi	a4,a4,-1 # feffffff <_sp+0xfefd4fbf>
    ab98:	00e7f7b3          	and	a5,a5,a4
    ab9c:	40050713          	addi	a4,a0,1024
    aba0:	7fe00693          	li	a3,2046
    aba4:	36e6c463          	blt	a3,a4,af0c <__divdf3+0x6e0>
    aba8:	01d79613          	slli	a2,a5,0x1d
    abac:	00345413          	srli	s0,s0,0x3
    abb0:	00866633          	or	a2,a2,s0
    abb4:	0037d793          	srli	a5,a5,0x3
    abb8:	02c12083          	lw	ra,44(sp)
    abbc:	02812403          	lw	s0,40(sp)
    abc0:	00c79793          	slli	a5,a5,0xc
    abc4:	01471713          	slli	a4,a4,0x14
    abc8:	00c7d793          	srli	a5,a5,0xc
    abcc:	00f76733          	or	a4,a4,a5
    abd0:	01f81813          	slli	a6,a6,0x1f
    abd4:	02412483          	lw	s1,36(sp)
    abd8:	02012903          	lw	s2,32(sp)
    abdc:	01c12983          	lw	s3,28(sp)
    abe0:	01812a03          	lw	s4,24(sp)
    abe4:	01412a83          	lw	s5,20(sp)
    abe8:	01012b03          	lw	s6,16(sp)
    abec:	00c12b83          	lw	s7,12(sp)
    abf0:	00060513          	mv	a0,a2
    abf4:	010765b3          	or	a1,a4,a6
    abf8:	03010113          	addi	sp,sp,48
    abfc:	00008067          	ret
    ac00:	0164ea33          	or	s4,s1,s6
    ac04:	080a0063          	beqz	s4,ac84 <__divdf3+0x458>
    ac08:	04048063          	beqz	s1,ac48 <__divdf3+0x41c>
    ac0c:	00048513          	mv	a0,s1
    ac10:	178010ef          	jal	bd88 <__clzsi2>
    ac14:	00050793          	mv	a5,a0
    ac18:	ff550713          	addi	a4,a0,-11
    ac1c:	01d00693          	li	a3,29
    ac20:	ff878613          	addi	a2,a5,-8
    ac24:	40e686b3          	sub	a3,a3,a4
    ac28:	00c494b3          	sll	s1,s1,a2
    ac2c:	00db56b3          	srl	a3,s6,a3
    ac30:	0096ea33          	or	s4,a3,s1
    ac34:	00cb14b3          	sll	s1,s6,a2
    ac38:	c0d00513          	li	a0,-1011
    ac3c:	40f50ab3          	sub	s5,a0,a5
    ac40:	00048413          	mv	s0,s1
    ac44:	c5dff06f          	j	a8a0 <__divdf3+0x74>
    ac48:	000b0513          	mv	a0,s6
    ac4c:	13c010ef          	jal	bd88 <__clzsi2>
    ac50:	01550713          	addi	a4,a0,21
    ac54:	01c00693          	li	a3,28
    ac58:	02050793          	addi	a5,a0,32
    ac5c:	fce6d0e3          	bge	a3,a4,ac1c <__divdf3+0x3f0>
    ac60:	ff850693          	addi	a3,a0,-8
    ac64:	00db1a33          	sll	s4,s6,a3
    ac68:	fd1ff06f          	j	ac38 <__divdf3+0x40c>
    ac6c:	0164ea33          	or	s4,s1,s6
    ac70:	020a1263          	bnez	s4,ac94 <__divdf3+0x468>
    ac74:	00000413          	li	s0,0
    ac78:	00050a93          	mv	s5,a0
    ac7c:	00200b13          	li	s6,2
    ac80:	c25ff06f          	j	a8a4 <__divdf3+0x78>
    ac84:	00000413          	li	s0,0
    ac88:	00000a93          	li	s5,0
    ac8c:	00100b13          	li	s6,1
    ac90:	c15ff06f          	j	a8a4 <__divdf3+0x78>
    ac94:	00048a13          	mv	s4,s1
    ac98:	00050a93          	mv	s5,a0
    ac9c:	00300b13          	li	s6,3
    aca0:	c05ff06f          	j	a8a4 <__divdf3+0x78>
    aca4:	0174e7b3          	or	a5,s1,s7
    aca8:	06078e63          	beqz	a5,ad24 <__divdf3+0x4f8>
    acac:	04048063          	beqz	s1,acec <__divdf3+0x4c0>
    acb0:	00048513          	mv	a0,s1
    acb4:	0d4010ef          	jal	bd88 <__clzsi2>
    acb8:	00050693          	mv	a3,a0
    acbc:	ff550713          	addi	a4,a0,-11
    acc0:	01d00793          	li	a5,29
    acc4:	ff868613          	addi	a2,a3,-8 # fff8 <i2c.c.57379e11+0x75a>
    acc8:	40e787b3          	sub	a5,a5,a4
    accc:	00c494b3          	sll	s1,s1,a2
    acd0:	00fbd7b3          	srl	a5,s7,a5
    acd4:	0097e7b3          	or	a5,a5,s1
    acd8:	00cb94b3          	sll	s1,s7,a2
    acdc:	c0d00713          	li	a4,-1011
    ace0:	40d70733          	sub	a4,a4,a3
    ace4:	00048893          	mv	a7,s1
    ace8:	bfdff06f          	j	a8e4 <__divdf3+0xb8>
    acec:	000b8513          	mv	a0,s7
    acf0:	098010ef          	jal	bd88 <__clzsi2>
    acf4:	01550713          	addi	a4,a0,21
    acf8:	01c00793          	li	a5,28
    acfc:	02050693          	addi	a3,a0,32
    ad00:	fce7d0e3          	bge	a5,a4,acc0 <__divdf3+0x494>
    ad04:	ff850793          	addi	a5,a0,-8
    ad08:	00fb97b3          	sll	a5,s7,a5
    ad0c:	fd1ff06f          	j	acdc <__divdf3+0x4b0>
    ad10:	0174e7b3          	or	a5,s1,s7
    ad14:	02079063          	bnez	a5,ad34 <__divdf3+0x508>
    ad18:	00000893          	li	a7,0
    ad1c:	00200693          	li	a3,2
    ad20:	bc9ff06f          	j	a8e8 <__divdf3+0xbc>
    ad24:	00000893          	li	a7,0
    ad28:	00000713          	li	a4,0
    ad2c:	00100693          	li	a3,1
    ad30:	bb9ff06f          	j	a8e8 <__divdf3+0xbc>
    ad34:	00048793          	mv	a5,s1
    ad38:	00300693          	li	a3,3
    ad3c:	badff06f          	j	a8e8 <__divdf3+0xbc>
    ad40:	ff670713          	addi	a4,a4,-10
    ad44:	00500613          	li	a2,5
    ad48:	1ce66263          	bltu	a2,a4,af0c <__divdf3+0x6e0>
    ad4c:	00020637          	lui	a2,0x20
    ad50:	00271713          	slli	a4,a4,0x2
    ad54:	21860613          	addi	a2,a2,536 # 20218 <next.22+0x68>
    ad58:	00c70733          	add	a4,a4,a2
    ad5c:	00072703          	lw	a4,0(a4)
    ad60:	00070067          	jr	a4
    ad64:	00e61633          	sll	a2,a2,a4
    ad68:	05467593          	andi	a1,a2,84
    ad6c:	04059063          	bnez	a1,adac <__divdf3+0x580>
    ad70:	08867613          	andi	a2,a2,136
    ad74:	0c061263          	bnez	a2,ae38 <__divdf3+0x60c>
    ad78:	b8671ee3          	bne	a4,t1,a914 <__divdf3+0xe8>
    ad7c:	000807b7          	lui	a5,0x80
    ad80:	7ff00713          	li	a4,2047
    ad84:	00000813          	li	a6,0
    ad88:	e31ff06f          	j	abb8 <__divdf3+0x38c>
    ad8c:	00098813          	mv	a6,s3
    ad90:	000a0793          	mv	a5,s4
    ad94:	00200713          	li	a4,2
    ad98:	16eb0a63          	beq	s6,a4,af0c <__divdf3+0x6e0>
    ad9c:	00300713          	li	a4,3
    ada0:	16eb0063          	beq	s6,a4,af00 <__divdf3+0x6d4>
    ada4:	00100713          	li	a4,1
    ada8:	daeb1ae3          	bne	s6,a4,ab5c <__divdf3+0x330>
    adac:	00000793          	li	a5,0
    adb0:	00000613          	li	a2,0
    adb4:	10c0006f          	j	aec0 <__divdf3+0x694>
    adb8:	fff50513          	addi	a0,a0,-1
    adbc:	00000293          	li	t0,0
    adc0:	b75ff06f          	j	a934 <__divdf3+0x108>
    adc4:	ffe78793          	addi	a5,a5,-2 # 7fffe <_sp+0x54fbe>
    adc8:	00c70733          	add	a4,a4,a2
    adcc:	bb1ff06f          	j	a97c <__divdf3+0x150>
    add0:	ffe30313          	addi	t1,t1,-2 # fffe <i2c.c.57379e11+0x760>
    add4:	00c70733          	add	a4,a4,a2
    add8:	bd9ff06f          	j	a9b0 <__divdf3+0x184>
    addc:	007582b3          	add	t0,a1,t2
    ade0:	00b2b3b3          	sltu	t2,t0,a1
    ade4:	00c383b3          	add	t2,t2,a2
    ade8:	ffe78793          	addi	a5,a5,-2
    adec:	00770733          	add	a4,a4,t2
    adf0:	c65ff06f          	j	aa54 <__divdf3+0x228>
    adf4:	ffe40413          	addi	s0,s0,-2
    adf8:	00c686b3          	add	a3,a3,a2
    adfc:	c9dff06f          	j	aa98 <__divdf3+0x26c>
    ae00:	ffe28293          	addi	t0,t0,-2
    ae04:	00c70733          	add	a4,a4,a2
    ae08:	cc5ff06f          	j	aacc <__divdf3+0x2a0>
    ae0c:	00989893          	slli	a7,a7,0x9
    ae10:	00b8b5b3          	sltu	a1,a7,a1
    ae14:	00c585b3          	add	a1,a1,a2
    ae18:	ffe40413          	addi	s0,s0,-2
    ae1c:	00be0733          	add	a4,t3,a1
    ae20:	d35ff06f          	j	ab54 <__divdf3+0x328>
    ae24:	00000893          	li	a7,0
    ae28:	d2dff06f          	j	ab54 <__divdf3+0x328>
    ae2c:	000e8413          	mv	s0,t4
    ae30:	00146413          	ori	s0,s0,1
    ae34:	d29ff06f          	j	ab5c <__divdf3+0x330>
    ae38:	00090813          	mv	a6,s2
    ae3c:	00088413          	mv	s0,a7
    ae40:	00068b13          	mv	s6,a3
    ae44:	f51ff06f          	j	ad94 <__divdf3+0x568>
    ae48:	08070063          	beqz	a4,aec8 <__divdf3+0x69c>
    ae4c:	fc900693          	li	a3,-55
    ae50:	f4d74ee3          	blt	a4,a3,adac <__divdf3+0x580>
    ae54:	fe200693          	li	a3,-30
    ae58:	06d74c63          	blt	a4,a3,aed0 <__divdf3+0x6a4>
    ae5c:	00100693          	li	a3,1
    ae60:	40e686b3          	sub	a3,a3,a4
    ae64:	41e50513          	addi	a0,a0,1054
    ae68:	00d45733          	srl	a4,s0,a3
    ae6c:	00a41433          	sll	s0,s0,a0
    ae70:	00803433          	snez	s0,s0
    ae74:	00a79533          	sll	a0,a5,a0
    ae78:	00a46433          	or	s0,s0,a0
    ae7c:	00876733          	or	a4,a4,s0
    ae80:	00d7d7b3          	srl	a5,a5,a3
    ae84:	00777693          	andi	a3,a4,7
    ae88:	02068063          	beqz	a3,aea8 <__divdf3+0x67c>
    ae8c:	00f77693          	andi	a3,a4,15
    ae90:	00400613          	li	a2,4
    ae94:	00c68a63          	beq	a3,a2,aea8 <__divdf3+0x67c>
    ae98:	00c706b3          	add	a3,a4,a2
    ae9c:	00e6b633          	sltu	a2,a3,a4
    aea0:	00c787b3          	add	a5,a5,a2
    aea4:	00068713          	mv	a4,a3
    aea8:	00879693          	slli	a3,a5,0x8
    aeac:	0606c863          	bltz	a3,af1c <__divdf3+0x6f0>
    aeb0:	01d79613          	slli	a2,a5,0x1d
    aeb4:	00375713          	srli	a4,a4,0x3
    aeb8:	00e66633          	or	a2,a2,a4
    aebc:	0037d793          	srli	a5,a5,0x3
    aec0:	00000713          	li	a4,0
    aec4:	cf5ff06f          	j	abb8 <__divdf3+0x38c>
    aec8:	00100693          	li	a3,1
    aecc:	f99ff06f          	j	ae64 <__divdf3+0x638>
    aed0:	fe100593          	li	a1,-31
    aed4:	40e586b3          	sub	a3,a1,a4
    aed8:	00d7d6b3          	srl	a3,a5,a3
    aedc:	00000613          	li	a2,0
    aee0:	00b70663          	beq	a4,a1,aeec <__divdf3+0x6c0>
    aee4:	43e50513          	addi	a0,a0,1086
    aee8:	00a79633          	sll	a2,a5,a0
    aeec:	00866633          	or	a2,a2,s0
    aef0:	00c03633          	snez	a2,a2
    aef4:	00c6e733          	or	a4,a3,a2
    aef8:	00000793          	li	a5,0
    aefc:	f89ff06f          	j	ae84 <__divdf3+0x658>
    af00:	000807b7          	lui	a5,0x80
    af04:	00000613          	li	a2,0
    af08:	e79ff06f          	j	ad80 <__divdf3+0x554>
    af0c:	00000793          	li	a5,0
    af10:	00000613          	li	a2,0
    af14:	7ff00713          	li	a4,2047
    af18:	ca1ff06f          	j	abb8 <__divdf3+0x38c>
    af1c:	00000793          	li	a5,0
    af20:	00000613          	li	a2,0
    af24:	00100713          	li	a4,1
    af28:	c91ff06f          	j	abb8 <__divdf3+0x38c>

0000af2c <__gedf2>:
    af2c:	0145d313          	srli	t1,a1,0x14
    af30:	00c59893          	slli	a7,a1,0xc
    af34:	00c69713          	slli	a4,a3,0xc
    af38:	0146d813          	srli	a6,a3,0x14
    af3c:	7ff37313          	andi	t1,t1,2047
    af40:	7ff00793          	li	a5,2047
    af44:	00c8d893          	srli	a7,a7,0xc
    af48:	01f5d593          	srli	a1,a1,0x1f
    af4c:	00c75713          	srli	a4,a4,0xc
    af50:	7ff87813          	andi	a6,a6,2047
    af54:	01f6d693          	srli	a3,a3,0x1f
    af58:	04f30263          	beq	t1,a5,af9c <__gedf2+0x70>
    af5c:	7ff00e13          	li	t3,2047
    af60:	00080793          	mv	a5,a6
    af64:	01c81663          	bne	a6,t3,af70 <__gedf2+0x44>
    af68:	00c76e33          	or	t3,a4,a2
    af6c:	020e1c63          	bnez	t3,afa4 <__gedf2+0x78>
    af70:	00000e13          	li	t3,0
    af74:	00031663          	bnez	t1,af80 <__gedf2+0x54>
    af78:	00a8ee33          	or	t3,a7,a0
    af7c:	001e3e13          	seqz	t3,t3
    af80:	06081263          	bnez	a6,afe4 <__gedf2+0xb8>
    af84:	00c76eb3          	or	t4,a4,a2
    af88:	020e0463          	beqz	t3,afb0 <__gedf2+0x84>
    af8c:	000e8e63          	beqz	t4,afa8 <__gedf2+0x7c>
    af90:	00169793          	slli	a5,a3,0x1
    af94:	fff78793          	addi	a5,a5,-1 # 7ffff <_sp+0x54fbf>
    af98:	0100006f          	j	afa8 <__gedf2+0x7c>
    af9c:	00a8e7b3          	or	a5,a7,a0
    afa0:	fa078ee3          	beqz	a5,af5c <__gedf2+0x30>
    afa4:	ffe00793          	li	a5,-2
    afa8:	00078513          	mv	a0,a5
    afac:	00008067          	ret
    afb0:	020e9c63          	bnez	t4,afe8 <__gedf2+0xbc>
    afb4:	40b005b3          	neg	a1,a1
    afb8:	0015e793          	ori	a5,a1,1
    afbc:	fedff06f          	j	afa8 <__gedf2+0x7c>
    afc0:	fd0348e3          	blt	t1,a6,af90 <__gedf2+0x64>
    afc4:	ff1768e3          	bltu	a4,a7,afb4 <__gedf2+0x88>
    afc8:	00a67463          	bgeu	a2,a0,afd0 <__gedf2+0xa4>
    afcc:	fee884e3          	beq	a7,a4,afb4 <__gedf2+0x88>
    afd0:	00c56663          	bltu	a0,a2,afdc <__gedf2+0xb0>
    afd4:	00000793          	li	a5,0
    afd8:	fce8f8e3          	bgeu	a7,a4,afa8 <__gedf2+0x7c>
    afdc:	00159793          	slli	a5,a1,0x1
    afe0:	fb5ff06f          	j	af94 <__gedf2+0x68>
    afe4:	fa0e16e3          	bnez	t3,af90 <__gedf2+0x64>
    afe8:	fcb696e3          	bne	a3,a1,afb4 <__gedf2+0x88>
    afec:	fc685ae3          	bge	a6,t1,afc0 <__gedf2+0x94>
    aff0:	40d006b3          	neg	a3,a3
    aff4:	0016e793          	ori	a5,a3,1
    aff8:	fb1ff06f          	j	afa8 <__gedf2+0x7c>

0000affc <__muldf3>:
    affc:	fd010113          	addi	sp,sp,-48
    b000:	01412c23          	sw	s4,24(sp)
    b004:	0145da13          	srli	s4,a1,0x14
    b008:	02812423          	sw	s0,40(sp)
    b00c:	02912223          	sw	s1,36(sp)
    b010:	01312e23          	sw	s3,28(sp)
    b014:	01512a23          	sw	s5,20(sp)
    b018:	01712623          	sw	s7,12(sp)
    b01c:	00c59493          	slli	s1,a1,0xc
    b020:	02112623          	sw	ra,44(sp)
    b024:	03212023          	sw	s2,32(sp)
    b028:	01612823          	sw	s6,16(sp)
    b02c:	7ffa7a13          	andi	s4,s4,2047
    b030:	00050413          	mv	s0,a0
    b034:	00060b93          	mv	s7,a2
    b038:	00068993          	mv	s3,a3
    b03c:	00c4d493          	srli	s1,s1,0xc
    b040:	01f5da93          	srli	s5,a1,0x1f
    b044:	0c0a0263          	beqz	s4,b108 <__muldf3+0x10c>
    b048:	7ff00793          	li	a5,2047
    b04c:	12fa0463          	beq	s4,a5,b174 <__muldf3+0x178>
    b050:	00349493          	slli	s1,s1,0x3
    b054:	01d55793          	srli	a5,a0,0x1d
    b058:	0097e7b3          	or	a5,a5,s1
    b05c:	008004b7          	lui	s1,0x800
    b060:	0097e4b3          	or	s1,a5,s1
    b064:	00351913          	slli	s2,a0,0x3
    b068:	c01a0a13          	addi	s4,s4,-1023
    b06c:	00000b13          	li	s6,0
    b070:	0149d713          	srli	a4,s3,0x14
    b074:	00c99413          	slli	s0,s3,0xc
    b078:	7ff77713          	andi	a4,a4,2047
    b07c:	00c45413          	srli	s0,s0,0xc
    b080:	01f9d993          	srli	s3,s3,0x1f
    b084:	12070063          	beqz	a4,b1a4 <__muldf3+0x1a8>
    b088:	7ff00793          	li	a5,2047
    b08c:	18f70463          	beq	a4,a5,b214 <__muldf3+0x218>
    b090:	00341413          	slli	s0,s0,0x3
    b094:	01dbd793          	srli	a5,s7,0x1d
    b098:	0087e7b3          	or	a5,a5,s0
    b09c:	00800437          	lui	s0,0x800
    b0a0:	0087e433          	or	s0,a5,s0
    b0a4:	c0170713          	addi	a4,a4,-1023
    b0a8:	003b9793          	slli	a5,s7,0x3
    b0ac:	00000813          	li	a6,0
    b0b0:	00ea0a33          	add	s4,s4,a4
    b0b4:	002b1713          	slli	a4,s6,0x2
    b0b8:	01076733          	or	a4,a4,a6
    b0bc:	00b00693          	li	a3,11
    b0c0:	001a0513          	addi	a0,s4,1
    b0c4:	1ae6c663          	blt	a3,a4,b270 <__muldf3+0x274>
    b0c8:	00200613          	li	a2,2
    b0cc:	013ac5b3          	xor	a1,s5,s3
    b0d0:	00100693          	li	a3,1
    b0d4:	16e64863          	blt	a2,a4,b244 <__muldf3+0x248>
    b0d8:	fff70713          	addi	a4,a4,-1
    b0dc:	1ae6ea63          	bltu	a3,a4,b290 <__muldf3+0x294>
    b0e0:	00080b13          	mv	s6,a6
    b0e4:	00200713          	li	a4,2
    b0e8:	4ceb0e63          	beq	s6,a4,b5c4 <__muldf3+0x5c8>
    b0ec:	00300713          	li	a4,3
    b0f0:	18eb0663          	beq	s6,a4,b27c <__muldf3+0x280>
    b0f4:	00100713          	li	a4,1
    b0f8:	34eb1863          	bne	s6,a4,b448 <__muldf3+0x44c>
    b0fc:	00000413          	li	s0,0
    b100:	00000613          	li	a2,0
    b104:	4800006f          	j	b584 <__muldf3+0x588>
    b108:	00a4e933          	or	s2,s1,a0
    b10c:	06090e63          	beqz	s2,b188 <__muldf3+0x18c>
    b110:	04048263          	beqz	s1,b154 <__muldf3+0x158>
    b114:	00048513          	mv	a0,s1
    b118:	471000ef          	jal	bd88 <__clzsi2>
    b11c:	00050713          	mv	a4,a0
    b120:	ff550693          	addi	a3,a0,-11
    b124:	01d00793          	li	a5,29
    b128:	ff870613          	addi	a2,a4,-8
    b12c:	40d787b3          	sub	a5,a5,a3
    b130:	00c494b3          	sll	s1,s1,a2
    b134:	00f457b3          	srl	a5,s0,a5
    b138:	0097e7b3          	or	a5,a5,s1
    b13c:	00c414b3          	sll	s1,s0,a2
    b140:	c0d00a13          	li	s4,-1011
    b144:	00048913          	mv	s2,s1
    b148:	40ea0a33          	sub	s4,s4,a4
    b14c:	00078493          	mv	s1,a5
    b150:	f1dff06f          	j	b06c <__muldf3+0x70>
    b154:	435000ef          	jal	bd88 <__clzsi2>
    b158:	01550693          	addi	a3,a0,21
    b15c:	01c00793          	li	a5,28
    b160:	02050713          	addi	a4,a0,32
    b164:	fcd7d0e3          	bge	a5,a3,b124 <__muldf3+0x128>
    b168:	ff850793          	addi	a5,a0,-8
    b16c:	00f417b3          	sll	a5,s0,a5
    b170:	fd1ff06f          	j	b140 <__muldf3+0x144>
    b174:	00a4e933          	or	s2,s1,a0
    b178:	02091063          	bnez	s2,b198 <__muldf3+0x19c>
    b17c:	00000493          	li	s1,0
    b180:	00200b13          	li	s6,2
    b184:	eedff06f          	j	b070 <__muldf3+0x74>
    b188:	00000493          	li	s1,0
    b18c:	00000a13          	li	s4,0
    b190:	00100b13          	li	s6,1
    b194:	eddff06f          	j	b070 <__muldf3+0x74>
    b198:	00050913          	mv	s2,a0
    b19c:	00300b13          	li	s6,3
    b1a0:	ed1ff06f          	j	b070 <__muldf3+0x74>
    b1a4:	017467b3          	or	a5,s0,s7
    b1a8:	08078063          	beqz	a5,b228 <__muldf3+0x22c>
    b1ac:	04040263          	beqz	s0,b1f0 <__muldf3+0x1f4>
    b1b0:	00040513          	mv	a0,s0
    b1b4:	3d5000ef          	jal	bd88 <__clzsi2>
    b1b8:	00050793          	mv	a5,a0
    b1bc:	ff550713          	addi	a4,a0,-11
    b1c0:	01d00693          	li	a3,29
    b1c4:	ff878613          	addi	a2,a5,-8
    b1c8:	40e686b3          	sub	a3,a3,a4
    b1cc:	00c41433          	sll	s0,s0,a2
    b1d0:	00dbd6b3          	srl	a3,s7,a3
    b1d4:	0086e6b3          	or	a3,a3,s0
    b1d8:	00cb9433          	sll	s0,s7,a2
    b1dc:	c0d00713          	li	a4,-1011
    b1e0:	40f70733          	sub	a4,a4,a5
    b1e4:	00040793          	mv	a5,s0
    b1e8:	00068413          	mv	s0,a3
    b1ec:	ec1ff06f          	j	b0ac <__muldf3+0xb0>
    b1f0:	000b8513          	mv	a0,s7
    b1f4:	395000ef          	jal	bd88 <__clzsi2>
    b1f8:	01550713          	addi	a4,a0,21
    b1fc:	01c00693          	li	a3,28
    b200:	02050793          	addi	a5,a0,32
    b204:	fae6dee3          	bge	a3,a4,b1c0 <__muldf3+0x1c4>
    b208:	ff850693          	addi	a3,a0,-8
    b20c:	00db96b3          	sll	a3,s7,a3
    b210:	fcdff06f          	j	b1dc <__muldf3+0x1e0>
    b214:	017467b3          	or	a5,s0,s7
    b218:	02079063          	bnez	a5,b238 <__muldf3+0x23c>
    b21c:	00000413          	li	s0,0
    b220:	00200813          	li	a6,2
    b224:	e8dff06f          	j	b0b0 <__muldf3+0xb4>
    b228:	00000413          	li	s0,0
    b22c:	00000713          	li	a4,0
    b230:	00100813          	li	a6,1
    b234:	e7dff06f          	j	b0b0 <__muldf3+0xb4>
    b238:	000b8793          	mv	a5,s7
    b23c:	00300813          	li	a6,3
    b240:	e71ff06f          	j	b0b0 <__muldf3+0xb4>
    b244:	00e69733          	sll	a4,a3,a4
    b248:	53077693          	andi	a3,a4,1328
    b24c:	2a069663          	bnez	a3,b4f8 <__muldf3+0x4fc>
    b250:	00001637          	lui	a2,0x1
    b254:	88860613          	addi	a2,a2,-1912 # 888 <spi_event_handler+0x198>
    b258:	00c77633          	and	a2,a4,a2
    b25c:	28061a63          	bnez	a2,b4f0 <__muldf3+0x4f4>
    b260:	24077713          	andi	a4,a4,576
    b264:	02070663          	beqz	a4,b290 <__muldf3+0x294>
    b268:	00080437          	lui	s0,0x80
    b26c:	0180006f          	j	b284 <__muldf3+0x288>
    b270:	00f00793          	li	a5,15
    b274:	000a8593          	mv	a1,s5
    b278:	28f71063          	bne	a4,a5,b4f8 <__muldf3+0x4fc>
    b27c:	00080437          	lui	s0,0x80
    b280:	00000613          	li	a2,0
    b284:	7ff00713          	li	a4,2047
    b288:	00000593          	li	a1,0
    b28c:	2180006f          	j	b4a4 <__muldf3+0x4a8>
    b290:	01095893          	srli	a7,s2,0x10
    b294:	01079e13          	slli	t3,a5,0x10
    b298:	01091913          	slli	s2,s2,0x10
    b29c:	0107d613          	srli	a2,a5,0x10
    b2a0:	01095913          	srli	s2,s2,0x10
    b2a4:	010e5e13          	srli	t3,t3,0x10
    b2a8:	03c907b3          	mul	a5,s2,t3
    b2ac:	03c88333          	mul	t1,a7,t3
    b2b0:	0107d813          	srli	a6,a5,0x10
    b2b4:	03260733          	mul	a4,a2,s2
    b2b8:	02c886b3          	mul	a3,a7,a2
    b2bc:	00670733          	add	a4,a4,t1
    b2c0:	00e80833          	add	a6,a6,a4
    b2c4:	00687663          	bgeu	a6,t1,b2d0 <__muldf3+0x2d4>
    b2c8:	00010737          	lui	a4,0x10
    b2cc:	00e686b3          	add	a3,a3,a4
    b2d0:	01045713          	srli	a4,s0,0x10
    b2d4:	01079793          	slli	a5,a5,0x10
    b2d8:	01041413          	slli	s0,s0,0x10
    b2dc:	0107d793          	srli	a5,a5,0x10
    b2e0:	01045413          	srli	s0,s0,0x10
    b2e4:	01085f93          	srli	t6,a6,0x10
    b2e8:	01081813          	slli	a6,a6,0x10
    b2ec:	02890f33          	mul	t5,s2,s0
    b2f0:	00f80833          	add	a6,a6,a5
    b2f4:	02e90933          	mul	s2,s2,a4
    b2f8:	010f5313          	srli	t1,t5,0x10
    b2fc:	028887b3          	mul	a5,a7,s0
    b300:	02e888b3          	mul	a7,a7,a4
    b304:	00f90933          	add	s2,s2,a5
    b308:	01230333          	add	t1,t1,s2
    b30c:	00f37663          	bgeu	t1,a5,b318 <__muldf3+0x31c>
    b310:	000107b7          	lui	a5,0x10
    b314:	00f888b3          	add	a7,a7,a5
    b318:	010f1f13          	slli	t5,t5,0x10
    b31c:	010f5f13          	srli	t5,t5,0x10
    b320:	01031793          	slli	a5,t1,0x10
    b324:	01e787b3          	add	a5,a5,t5
    b328:	0104df13          	srli	t5,s1,0x10
    b32c:	01049493          	slli	s1,s1,0x10
    b330:	0104d493          	srli	s1,s1,0x10
    b334:	029e02b3          	mul	t0,t3,s1
    b338:	01035e93          	srli	t4,t1,0x10
    b33c:	011e8eb3          	add	t4,t4,a7
    b340:	00ff8fb3          	add	t6,t6,a5
    b344:	03ee0e33          	mul	t3,t3,t5
    b348:	0102d893          	srli	a7,t0,0x10
    b34c:	03e603b3          	mul	t2,a2,t5
    b350:	02960633          	mul	a2,a2,s1
    b354:	01c60633          	add	a2,a2,t3
    b358:	00c888b3          	add	a7,a7,a2
    b35c:	01c8f663          	bgeu	a7,t3,b368 <__muldf3+0x36c>
    b360:	00010637          	lui	a2,0x10
    b364:	00c383b3          	add	t2,t2,a2
    b368:	02940633          	mul	a2,s0,s1
    b36c:	01029293          	slli	t0,t0,0x10
    b370:	0108d313          	srli	t1,a7,0x10
    b374:	0102d293          	srli	t0,t0,0x10
    b378:	01089893          	slli	a7,a7,0x10
    b37c:	00730333          	add	t1,t1,t2
    b380:	005888b3          	add	a7,a7,t0
    b384:	03e40433          	mul	s0,s0,t5
    b388:	01065e13          	srli	t3,a2,0x10
    b38c:	03e70f33          	mul	t5,a4,t5
    b390:	02970733          	mul	a4,a4,s1
    b394:	00870733          	add	a4,a4,s0
    b398:	00ee0e33          	add	t3,t3,a4
    b39c:	008e7663          	bgeu	t3,s0,b3a8 <__muldf3+0x3ac>
    b3a0:	00010737          	lui	a4,0x10
    b3a4:	00ef0f33          	add	t5,t5,a4
    b3a8:	01061613          	slli	a2,a2,0x10
    b3ac:	010e1713          	slli	a4,t3,0x10
    b3b0:	01065613          	srli	a2,a2,0x10
    b3b4:	01f686b3          	add	a3,a3,t6
    b3b8:	00c70733          	add	a4,a4,a2
    b3bc:	01d70eb3          	add	t4,a4,t4
    b3c0:	00f6b7b3          	sltu	a5,a3,a5
    b3c4:	00fe87b3          	add	a5,t4,a5
    b3c8:	011688b3          	add	a7,a3,a7
    b3cc:	00678333          	add	t1,a5,t1
    b3d0:	00d8b6b3          	sltu	a3,a7,a3
    b3d4:	00eeb633          	sltu	a2,t4,a4
    b3d8:	00d306b3          	add	a3,t1,a3
    b3dc:	01d7beb3          	sltu	t4,a5,t4
    b3e0:	00f33733          	sltu	a4,t1,a5
    b3e4:	01d66633          	or	a2,a2,t4
    b3e8:	0066b333          	sltu	t1,a3,t1
    b3ec:	010e5e13          	srli	t3,t3,0x10
    b3f0:	00989793          	slli	a5,a7,0x9
    b3f4:	01c60633          	add	a2,a2,t3
    b3f8:	00676733          	or	a4,a4,t1
    b3fc:	00c70733          	add	a4,a4,a2
    b400:	0107e7b3          	or	a5,a5,a6
    b404:	01e70733          	add	a4,a4,t5
    b408:	00f037b3          	snez	a5,a5
    b40c:	0178d893          	srli	a7,a7,0x17
    b410:	00971713          	slli	a4,a4,0x9
    b414:	0176d413          	srli	s0,a3,0x17
    b418:	0117e7b3          	or	a5,a5,a7
    b41c:	00969693          	slli	a3,a3,0x9
    b420:	00d7e7b3          	or	a5,a5,a3
    b424:	00771693          	slli	a3,a4,0x7
    b428:	00876433          	or	s0,a4,s0
    b42c:	0c06dc63          	bgez	a3,b504 <__muldf3+0x508>
    b430:	0017d713          	srli	a4,a5,0x1
    b434:	0017f793          	andi	a5,a5,1
    b438:	00f76733          	or	a4,a4,a5
    b43c:	01f41793          	slli	a5,s0,0x1f
    b440:	00f767b3          	or	a5,a4,a5
    b444:	00145413          	srli	s0,s0,0x1
    b448:	3ff50713          	addi	a4,a0,1023
    b44c:	0ce05063          	blez	a4,b50c <__muldf3+0x510>
    b450:	0077f693          	andi	a3,a5,7
    b454:	02068063          	beqz	a3,b474 <__muldf3+0x478>
    b458:	00f7f693          	andi	a3,a5,15
    b45c:	00400613          	li	a2,4
    b460:	00c68a63          	beq	a3,a2,b474 <__muldf3+0x478>
    b464:	00c786b3          	add	a3,a5,a2
    b468:	00f6b633          	sltu	a2,a3,a5
    b46c:	00c40433          	add	s0,s0,a2
    b470:	00068793          	mv	a5,a3
    b474:	00741693          	slli	a3,s0,0x7
    b478:	0006da63          	bgez	a3,b48c <__muldf3+0x490>
    b47c:	ff000737          	lui	a4,0xff000
    b480:	fff70713          	addi	a4,a4,-1 # feffffff <_sp+0xfefd4fbf>
    b484:	00e47433          	and	s0,s0,a4
    b488:	40050713          	addi	a4,a0,1024
    b48c:	7fe00693          	li	a3,2046
    b490:	12e6ca63          	blt	a3,a4,b5c4 <__muldf3+0x5c8>
    b494:	01d41613          	slli	a2,s0,0x1d
    b498:	0037d793          	srli	a5,a5,0x3
    b49c:	00f66633          	or	a2,a2,a5
    b4a0:	00345413          	srli	s0,s0,0x3
    b4a4:	00c41413          	slli	s0,s0,0xc
    b4a8:	00c45413          	srli	s0,s0,0xc
    b4ac:	01471713          	slli	a4,a4,0x14
    b4b0:	02c12083          	lw	ra,44(sp)
    b4b4:	00876733          	or	a4,a4,s0
    b4b8:	02812403          	lw	s0,40(sp)
    b4bc:	01f59593          	slli	a1,a1,0x1f
    b4c0:	00b767b3          	or	a5,a4,a1
    b4c4:	02412483          	lw	s1,36(sp)
    b4c8:	02012903          	lw	s2,32(sp)
    b4cc:	01c12983          	lw	s3,28(sp)
    b4d0:	01812a03          	lw	s4,24(sp)
    b4d4:	01412a83          	lw	s5,20(sp)
    b4d8:	01012b03          	lw	s6,16(sp)
    b4dc:	00c12b83          	lw	s7,12(sp)
    b4e0:	00060513          	mv	a0,a2
    b4e4:	00078593          	mv	a1,a5
    b4e8:	03010113          	addi	sp,sp,48
    b4ec:	00008067          	ret
    b4f0:	00098593          	mv	a1,s3
    b4f4:	bedff06f          	j	b0e0 <__muldf3+0xe4>
    b4f8:	00048413          	mv	s0,s1
    b4fc:	00090793          	mv	a5,s2
    b500:	be5ff06f          	j	b0e4 <__muldf3+0xe8>
    b504:	000a0513          	mv	a0,s4
    b508:	f41ff06f          	j	b448 <__muldf3+0x44c>
    b50c:	08070063          	beqz	a4,b58c <__muldf3+0x590>
    b510:	fc900693          	li	a3,-55
    b514:	bed744e3          	blt	a4,a3,b0fc <__muldf3+0x100>
    b518:	fe200693          	li	a3,-30
    b51c:	06d74c63          	blt	a4,a3,b594 <__muldf3+0x598>
    b520:	00100693          	li	a3,1
    b524:	40e68733          	sub	a4,a3,a4
    b528:	41e50513          	addi	a0,a0,1054
    b52c:	00e7d6b3          	srl	a3,a5,a4
    b530:	00a797b3          	sll	a5,a5,a0
    b534:	00f037b3          	snez	a5,a5
    b538:	00a41533          	sll	a0,s0,a0
    b53c:	00a7e7b3          	or	a5,a5,a0
    b540:	00d7e7b3          	or	a5,a5,a3
    b544:	00e45433          	srl	s0,s0,a4
    b548:	0077f713          	andi	a4,a5,7
    b54c:	02070063          	beqz	a4,b56c <__muldf3+0x570>
    b550:	00f7f713          	andi	a4,a5,15
    b554:	00400693          	li	a3,4
    b558:	00d70a63          	beq	a4,a3,b56c <__muldf3+0x570>
    b55c:	00d78733          	add	a4,a5,a3
    b560:	00f736b3          	sltu	a3,a4,a5
    b564:	00d40433          	add	s0,s0,a3
    b568:	00070793          	mv	a5,a4
    b56c:	00841713          	slli	a4,s0,0x8
    b570:	06074263          	bltz	a4,b5d4 <__muldf3+0x5d8>
    b574:	01d41613          	slli	a2,s0,0x1d
    b578:	0037d793          	srli	a5,a5,0x3
    b57c:	00f66633          	or	a2,a2,a5
    b580:	00345413          	srli	s0,s0,0x3
    b584:	00000713          	li	a4,0
    b588:	f1dff06f          	j	b4a4 <__muldf3+0x4a8>
    b58c:	00100713          	li	a4,1
    b590:	f99ff06f          	j	b528 <__muldf3+0x52c>
    b594:	fe100813          	li	a6,-31
    b598:	40e806b3          	sub	a3,a6,a4
    b59c:	00d456b3          	srl	a3,s0,a3
    b5a0:	00000613          	li	a2,0
    b5a4:	01070663          	beq	a4,a6,b5b0 <__muldf3+0x5b4>
    b5a8:	43e50513          	addi	a0,a0,1086
    b5ac:	00a41633          	sll	a2,s0,a0
    b5b0:	00c7e7b3          	or	a5,a5,a2
    b5b4:	00f037b3          	snez	a5,a5
    b5b8:	00f6e7b3          	or	a5,a3,a5
    b5bc:	00000413          	li	s0,0
    b5c0:	f89ff06f          	j	b548 <__muldf3+0x54c>
    b5c4:	00000413          	li	s0,0
    b5c8:	00000613          	li	a2,0
    b5cc:	7ff00713          	li	a4,2047
    b5d0:	ed5ff06f          	j	b4a4 <__muldf3+0x4a8>
    b5d4:	00000413          	li	s0,0
    b5d8:	00000613          	li	a2,0
    b5dc:	00100713          	li	a4,1
    b5e0:	ec5ff06f          	j	b4a4 <__muldf3+0x4a8>

0000b5e4 <__subdf3>:
    b5e4:	fe010113          	addi	sp,sp,-32
    b5e8:	0145d713          	srli	a4,a1,0x14
    b5ec:	00c59793          	slli	a5,a1,0xc
    b5f0:	00812c23          	sw	s0,24(sp)
    b5f4:	0097d793          	srli	a5,a5,0x9
    b5f8:	7ff77413          	andi	s0,a4,2047
    b5fc:	01d55713          	srli	a4,a0,0x1d
    b600:	00f767b3          	or	a5,a4,a5
    b604:	00c69713          	slli	a4,a3,0xc
    b608:	0146d893          	srli	a7,a3,0x14
    b60c:	00912a23          	sw	s1,20(sp)
    b610:	00975713          	srli	a4,a4,0x9
    b614:	01f5d493          	srli	s1,a1,0x1f
    b618:	01d65593          	srli	a1,a2,0x1d
    b61c:	00e5e733          	or	a4,a1,a4
    b620:	00112e23          	sw	ra,28(sp)
    b624:	01212823          	sw	s2,16(sp)
    b628:	01312623          	sw	s3,12(sp)
    b62c:	7ff8f893          	andi	a7,a7,2047
    b630:	7ff00593          	li	a1,2047
    b634:	00351513          	slli	a0,a0,0x3
    b638:	01f6d693          	srli	a3,a3,0x1f
    b63c:	00361613          	slli	a2,a2,0x3
    b640:	00b89663          	bne	a7,a1,b64c <__subdf3+0x68>
    b644:	00c765b3          	or	a1,a4,a2
    b648:	00059463          	bnez	a1,b650 <__subdf3+0x6c>
    b64c:	0016c693          	xori	a3,a3,1
    b650:	41140833          	sub	a6,s0,a7
    b654:	7ff00313          	li	t1,2047
    b658:	30969263          	bne	a3,s1,b95c <__subdf3+0x378>
    b65c:	17005663          	blez	a6,b7c8 <__subdf3+0x1e4>
    b660:	0a089063          	bnez	a7,b700 <__subdf3+0x11c>
    b664:	00c766b3          	or	a3,a4,a2
    b668:	02068463          	beqz	a3,b690 <__subdf3+0xac>
    b66c:	fff40813          	addi	a6,s0,-1 # 7ffff <_sp+0x54fbf>
    b670:	00081e63          	bnez	a6,b68c <__subdf3+0xa8>
    b674:	00c50633          	add	a2,a0,a2
    b678:	00e787b3          	add	a5,a5,a4
    b67c:	00a63533          	sltu	a0,a2,a0
    b680:	00a787b3          	add	a5,a5,a0
    b684:	00100413          	li	s0,1
    b688:	0c80006f          	j	b750 <__subdf3+0x16c>
    b68c:	08641063          	bne	s0,t1,b70c <__subdf3+0x128>
    b690:	01d79693          	slli	a3,a5,0x1d
    b694:	00355513          	srli	a0,a0,0x3
    b698:	7ff00713          	li	a4,2047
    b69c:	00a6e6b3          	or	a3,a3,a0
    b6a0:	0037d793          	srli	a5,a5,0x3
    b6a4:	00e41e63          	bne	s0,a4,b6c0 <__subdf3+0xdc>
    b6a8:	00f6e6b3          	or	a3,a3,a5
    b6ac:	00000793          	li	a5,0
    b6b0:	00068863          	beqz	a3,b6c0 <__subdf3+0xdc>
    b6b4:	000807b7          	lui	a5,0x80
    b6b8:	00000693          	li	a3,0
    b6bc:	00000493          	li	s1,0
    b6c0:	7ff47713          	andi	a4,s0,2047
    b6c4:	00c79793          	slli	a5,a5,0xc
    b6c8:	01c12083          	lw	ra,28(sp)
    b6cc:	01812403          	lw	s0,24(sp)
    b6d0:	00c7d793          	srli	a5,a5,0xc
    b6d4:	01471713          	slli	a4,a4,0x14
    b6d8:	01f49593          	slli	a1,s1,0x1f
    b6dc:	00f76733          	or	a4,a4,a5
    b6e0:	00b767b3          	or	a5,a4,a1
    b6e4:	01412483          	lw	s1,20(sp)
    b6e8:	01012903          	lw	s2,16(sp)
    b6ec:	00c12983          	lw	s3,12(sp)
    b6f0:	00068513          	mv	a0,a3
    b6f4:	00078593          	mv	a1,a5
    b6f8:	02010113          	addi	sp,sp,32
    b6fc:	00008067          	ret
    b700:	28640863          	beq	s0,t1,b990 <__subdf3+0x3ac>
    b704:	008006b7          	lui	a3,0x800
    b708:	00d76733          	or	a4,a4,a3
    b70c:	03800693          	li	a3,56
    b710:	0b06c663          	blt	a3,a6,b7bc <__subdf3+0x1d8>
    b714:	01f00693          	li	a3,31
    b718:	02000893          	li	a7,32
    b71c:	0706c863          	blt	a3,a6,b78c <__subdf3+0x1a8>
    b720:	410888b3          	sub	a7,a7,a6
    b724:	011716b3          	sll	a3,a4,a7
    b728:	010655b3          	srl	a1,a2,a6
    b72c:	011618b3          	sll	a7,a2,a7
    b730:	00b6e6b3          	or	a3,a3,a1
    b734:	011038b3          	snez	a7,a7
    b738:	0116e6b3          	or	a3,a3,a7
    b73c:	01075833          	srl	a6,a4,a6
    b740:	00a68633          	add	a2,a3,a0
    b744:	00f80833          	add	a6,a6,a5
    b748:	00d636b3          	sltu	a3,a2,a3
    b74c:	00d807b3          	add	a5,a6,a3
    b750:	00879713          	slli	a4,a5,0x8
    b754:	1c075c63          	bgez	a4,b92c <__subdf3+0x348>
    b758:	00140413          	addi	s0,s0,1
    b75c:	7ff00713          	li	a4,2047
    b760:	5ae40e63          	beq	s0,a4,bd1c <__subdf3+0x738>
    b764:	ff800737          	lui	a4,0xff800
    b768:	fff70713          	addi	a4,a4,-1 # ff7fffff <_sp+0xff7d4fbf>
    b76c:	00e7f7b3          	and	a5,a5,a4
    b770:	00165713          	srli	a4,a2,0x1
    b774:	00167613          	andi	a2,a2,1
    b778:	00c76733          	or	a4,a4,a2
    b77c:	01f79613          	slli	a2,a5,0x1f
    b780:	00e66633          	or	a2,a2,a4
    b784:	0017d793          	srli	a5,a5,0x1
    b788:	1a40006f          	j	b92c <__subdf3+0x348>
    b78c:	fe080693          	addi	a3,a6,-32
    b790:	00d756b3          	srl	a3,a4,a3
    b794:	00000593          	li	a1,0
    b798:	01180863          	beq	a6,a7,b7a8 <__subdf3+0x1c4>
    b79c:	04000593          	li	a1,64
    b7a0:	410585b3          	sub	a1,a1,a6
    b7a4:	00b715b3          	sll	a1,a4,a1
    b7a8:	00c5e5b3          	or	a1,a1,a2
    b7ac:	00b035b3          	snez	a1,a1
    b7b0:	00b6e6b3          	or	a3,a3,a1
    b7b4:	00000813          	li	a6,0
    b7b8:	f89ff06f          	j	b740 <__subdf3+0x15c>
    b7bc:	00c766b3          	or	a3,a4,a2
    b7c0:	00d036b3          	snez	a3,a3
    b7c4:	ff1ff06f          	j	b7b4 <__subdf3+0x1d0>
    b7c8:	0c080663          	beqz	a6,b894 <__subdf3+0x2b0>
    b7cc:	408886b3          	sub	a3,a7,s0
    b7d0:	06041a63          	bnez	s0,b844 <__subdf3+0x260>
    b7d4:	00a7e5b3          	or	a1,a5,a0
    b7d8:	00059a63          	bnez	a1,b7ec <__subdf3+0x208>
    b7dc:	00070793          	mv	a5,a4
    b7e0:	00060513          	mv	a0,a2
    b7e4:	00068413          	mv	s0,a3
    b7e8:	ea9ff06f          	j	b690 <__subdf3+0xac>
    b7ec:	fff68593          	addi	a1,a3,-1 # 7fffff <_sp+0x7d4fbf>
    b7f0:	e80582e3          	beqz	a1,b674 <__subdf3+0x90>
    b7f4:	fe6684e3          	beq	a3,t1,b7dc <__subdf3+0x1f8>
    b7f8:	03800693          	li	a3,56
    b7fc:	08b6c663          	blt	a3,a1,b888 <__subdf3+0x2a4>
    b800:	01f00693          	li	a3,31
    b804:	02000313          	li	t1,32
    b808:	04b6c863          	blt	a3,a1,b858 <__subdf3+0x274>
    b80c:	40b30333          	sub	t1,t1,a1
    b810:	006796b3          	sll	a3,a5,t1
    b814:	00b55833          	srl	a6,a0,a1
    b818:	00651333          	sll	t1,a0,t1
    b81c:	0106e6b3          	or	a3,a3,a6
    b820:	00603333          	snez	t1,t1
    b824:	0066e6b3          	or	a3,a3,t1
    b828:	00b7d5b3          	srl	a1,a5,a1
    b82c:	00c68633          	add	a2,a3,a2
    b830:	00e585b3          	add	a1,a1,a4
    b834:	00d636b3          	sltu	a3,a2,a3
    b838:	00d587b3          	add	a5,a1,a3
    b83c:	00088413          	mv	s0,a7
    b840:	f11ff06f          	j	b750 <__subdf3+0x16c>
    b844:	4e688863          	beq	a7,t1,bd34 <__subdf3+0x750>
    b848:	008005b7          	lui	a1,0x800
    b84c:	00b7e7b3          	or	a5,a5,a1
    b850:	00068593          	mv	a1,a3
    b854:	fa5ff06f          	j	b7f8 <__subdf3+0x214>
    b858:	fe058693          	addi	a3,a1,-32 # 7fffe0 <_sp+0x7d4fa0>
    b85c:	00d7d6b3          	srl	a3,a5,a3
    b860:	00000813          	li	a6,0
    b864:	00658863          	beq	a1,t1,b874 <__subdf3+0x290>
    b868:	04000813          	li	a6,64
    b86c:	40b80833          	sub	a6,a6,a1
    b870:	01079833          	sll	a6,a5,a6
    b874:	00a86833          	or	a6,a6,a0
    b878:	01003833          	snez	a6,a6
    b87c:	0106e6b3          	or	a3,a3,a6
    b880:	00000593          	li	a1,0
    b884:	fa9ff06f          	j	b82c <__subdf3+0x248>
    b888:	00a7e6b3          	or	a3,a5,a0
    b88c:	00d036b3          	snez	a3,a3
    b890:	ff1ff06f          	j	b880 <__subdf3+0x29c>
    b894:	00140693          	addi	a3,s0,1
    b898:	7fe6f593          	andi	a1,a3,2046
    b89c:	06059463          	bnez	a1,b904 <__subdf3+0x320>
    b8a0:	00a7e6b3          	or	a3,a5,a0
    b8a4:	04041063          	bnez	s0,b8e4 <__subdf3+0x300>
    b8a8:	44068263          	beqz	a3,bcec <__subdf3+0x708>
    b8ac:	00c766b3          	or	a3,a4,a2
    b8b0:	44068263          	beqz	a3,bcf4 <__subdf3+0x710>
    b8b4:	00c50633          	add	a2,a0,a2
    b8b8:	00e787b3          	add	a5,a5,a4
    b8bc:	00a63533          	sltu	a0,a2,a0
    b8c0:	00a787b3          	add	a5,a5,a0
    b8c4:	00879713          	slli	a4,a5,0x8
    b8c8:	2c075463          	bgez	a4,bb90 <__subdf3+0x5ac>
    b8cc:	ff800737          	lui	a4,0xff800
    b8d0:	fff70713          	addi	a4,a4,-1 # ff7fffff <_sp+0xff7d4fbf>
    b8d4:	00e7f7b3          	and	a5,a5,a4
    b8d8:	00060513          	mv	a0,a2
    b8dc:	00100413          	li	s0,1
    b8e0:	db1ff06f          	j	b690 <__subdf3+0xac>
    b8e4:	44068863          	beqz	a3,bd34 <__subdf3+0x750>
    b8e8:	00c76733          	or	a4,a4,a2
    b8ec:	00030413          	mv	s0,t1
    b8f0:	da0700e3          	beqz	a4,b690 <__subdf3+0xac>
    b8f4:	00000493          	li	s1,0
    b8f8:	004007b7          	lui	a5,0x400
    b8fc:	00000513          	li	a0,0
    b900:	d91ff06f          	j	b690 <__subdf3+0xac>
    b904:	40668a63          	beq	a3,t1,bd18 <__subdf3+0x734>
    b908:	00c50633          	add	a2,a0,a2
    b90c:	00e787b3          	add	a5,a5,a4
    b910:	00a63533          	sltu	a0,a2,a0
    b914:	00a787b3          	add	a5,a5,a0
    b918:	01f79713          	slli	a4,a5,0x1f
    b91c:	00165613          	srli	a2,a2,0x1
    b920:	00c76633          	or	a2,a4,a2
    b924:	0017d793          	srli	a5,a5,0x1
    b928:	00068413          	mv	s0,a3
    b92c:	00767713          	andi	a4,a2,7
    b930:	3c071663          	bnez	a4,bcfc <__subdf3+0x718>
    b934:	00060513          	mv	a0,a2
    b938:	00879713          	slli	a4,a5,0x8
    b93c:	d4075ae3          	bgez	a4,b690 <__subdf3+0xac>
    b940:	00140413          	addi	s0,s0,1
    b944:	7ff00713          	li	a4,2047
    b948:	3ce40a63          	beq	s0,a4,bd1c <__subdf3+0x738>
    b94c:	ff800737          	lui	a4,0xff800
    b950:	fff70713          	addi	a4,a4,-1 # ff7fffff <_sp+0xff7d4fbf>
    b954:	00e7f7b3          	and	a5,a5,a4
    b958:	d39ff06f          	j	b690 <__subdf3+0xac>
    b95c:	0f005063          	blez	a6,ba3c <__subdf3+0x458>
    b960:	02089c63          	bnez	a7,b998 <__subdf3+0x3b4>
    b964:	00c766b3          	or	a3,a4,a2
    b968:	d20684e3          	beqz	a3,b690 <__subdf3+0xac>
    b96c:	fff40813          	addi	a6,s0,-1
    b970:	00081e63          	bnez	a6,b98c <__subdf3+0x3a8>
    b974:	40c50633          	sub	a2,a0,a2
    b978:	40e787b3          	sub	a5,a5,a4
    b97c:	00c53533          	sltu	a0,a0,a2
    b980:	40a787b3          	sub	a5,a5,a0
    b984:	00100413          	li	s0,1
    b988:	0600006f          	j	b9e8 <__subdf3+0x404>
    b98c:	00641c63          	bne	s0,t1,b9a4 <__subdf3+0x3c0>
    b990:	7ff00413          	li	s0,2047
    b994:	cfdff06f          	j	b690 <__subdf3+0xac>
    b998:	ce640ce3          	beq	s0,t1,b690 <__subdf3+0xac>
    b99c:	008006b7          	lui	a3,0x800
    b9a0:	00d76733          	or	a4,a4,a3
    b9a4:	03800693          	li	a3,56
    b9a8:	0906c463          	blt	a3,a6,ba30 <__subdf3+0x44c>
    b9ac:	01f00693          	li	a3,31
    b9b0:	02000893          	li	a7,32
    b9b4:	0506c663          	blt	a3,a6,ba00 <__subdf3+0x41c>
    b9b8:	410888b3          	sub	a7,a7,a6
    b9bc:	011716b3          	sll	a3,a4,a7
    b9c0:	010655b3          	srl	a1,a2,a6
    b9c4:	011618b3          	sll	a7,a2,a7
    b9c8:	00b6e6b3          	or	a3,a3,a1
    b9cc:	011038b3          	snez	a7,a7
    b9d0:	0116e6b3          	or	a3,a3,a7
    b9d4:	01075833          	srl	a6,a4,a6
    b9d8:	40d50633          	sub	a2,a0,a3
    b9dc:	41078833          	sub	a6,a5,a6
    b9e0:	00c53533          	sltu	a0,a0,a2
    b9e4:	40a807b3          	sub	a5,a6,a0
    b9e8:	00879713          	slli	a4,a5,0x8
    b9ec:	f40750e3          	bgez	a4,b92c <__subdf3+0x348>
    b9f0:	00979913          	slli	s2,a5,0x9
    b9f4:	00995913          	srli	s2,s2,0x9
    b9f8:	00060993          	mv	s3,a2
    b9fc:	20c0006f          	j	bc08 <__subdf3+0x624>
    ba00:	fe080693          	addi	a3,a6,-32
    ba04:	00d756b3          	srl	a3,a4,a3
    ba08:	00000593          	li	a1,0
    ba0c:	01180863          	beq	a6,a7,ba1c <__subdf3+0x438>
    ba10:	04000593          	li	a1,64
    ba14:	410585b3          	sub	a1,a1,a6
    ba18:	00b715b3          	sll	a1,a4,a1
    ba1c:	00c5e5b3          	or	a1,a1,a2
    ba20:	00b035b3          	snez	a1,a1
    ba24:	00b6e6b3          	or	a3,a3,a1
    ba28:	00000813          	li	a6,0
    ba2c:	fadff06f          	j	b9d8 <__subdf3+0x3f4>
    ba30:	00c766b3          	or	a3,a4,a2
    ba34:	00d036b3          	snez	a3,a3
    ba38:	ff1ff06f          	j	ba28 <__subdf3+0x444>
    ba3c:	0e080a63          	beqz	a6,bb30 <__subdf3+0x54c>
    ba40:	40888833          	sub	a6,a7,s0
    ba44:	08041e63          	bnez	s0,bae0 <__subdf3+0x4fc>
    ba48:	00a7e5b3          	or	a1,a5,a0
    ba4c:	00059c63          	bnez	a1,ba64 <__subdf3+0x480>
    ba50:	00068493          	mv	s1,a3
    ba54:	00070793          	mv	a5,a4
    ba58:	00060513          	mv	a0,a2
    ba5c:	00080413          	mv	s0,a6
    ba60:	c31ff06f          	j	b690 <__subdf3+0xac>
    ba64:	fff80593          	addi	a1,a6,-1
    ba68:	02059063          	bnez	a1,ba88 <__subdf3+0x4a4>
    ba6c:	40a60533          	sub	a0,a2,a0
    ba70:	00a635b3          	sltu	a1,a2,a0
    ba74:	40f707b3          	sub	a5,a4,a5
    ba78:	00050613          	mv	a2,a0
    ba7c:	40b787b3          	sub	a5,a5,a1
    ba80:	00068493          	mv	s1,a3
    ba84:	f01ff06f          	j	b984 <__subdf3+0x3a0>
    ba88:	fc6804e3          	beq	a6,t1,ba50 <__subdf3+0x46c>
    ba8c:	03800813          	li	a6,56
    ba90:	08b84a63          	blt	a6,a1,bb24 <__subdf3+0x540>
    ba94:	01f00813          	li	a6,31
    ba98:	02000e13          	li	t3,32
    ba9c:	04b84c63          	blt	a6,a1,baf4 <__subdf3+0x510>
    baa0:	40be0e33          	sub	t3,t3,a1
    baa4:	00b55333          	srl	t1,a0,a1
    baa8:	01c79833          	sll	a6,a5,t3
    baac:	01c51e33          	sll	t3,a0,t3
    bab0:	00686833          	or	a6,a6,t1
    bab4:	01c03e33          	snez	t3,t3
    bab8:	01c86533          	or	a0,a6,t3
    babc:	00b7d5b3          	srl	a1,a5,a1
    bac0:	40a60533          	sub	a0,a2,a0
    bac4:	00a637b3          	sltu	a5,a2,a0
    bac8:	40b705b3          	sub	a1,a4,a1
    bacc:	00050613          	mv	a2,a0
    bad0:	40f587b3          	sub	a5,a1,a5
    bad4:	00088413          	mv	s0,a7
    bad8:	00068493          	mv	s1,a3
    badc:	f0dff06f          	j	b9e8 <__subdf3+0x404>
    bae0:	24688863          	beq	a7,t1,bd30 <__subdf3+0x74c>
    bae4:	008005b7          	lui	a1,0x800
    bae8:	00b7e7b3          	or	a5,a5,a1
    baec:	00080593          	mv	a1,a6
    baf0:	f9dff06f          	j	ba8c <__subdf3+0x4a8>
    baf4:	fe058813          	addi	a6,a1,-32 # 7fffe0 <_sp+0x7d4fa0>
    baf8:	0107d833          	srl	a6,a5,a6
    bafc:	00000313          	li	t1,0
    bb00:	01c58863          	beq	a1,t3,bb10 <__subdf3+0x52c>
    bb04:	04000313          	li	t1,64
    bb08:	40b30333          	sub	t1,t1,a1
    bb0c:	00679333          	sll	t1,a5,t1
    bb10:	00a36333          	or	t1,t1,a0
    bb14:	00603333          	snez	t1,t1
    bb18:	00686533          	or	a0,a6,t1
    bb1c:	00000593          	li	a1,0
    bb20:	fa1ff06f          	j	bac0 <__subdf3+0x4dc>
    bb24:	00a7e533          	or	a0,a5,a0
    bb28:	00a03533          	snez	a0,a0
    bb2c:	ff1ff06f          	j	bb1c <__subdf3+0x538>
    bb30:	00140593          	addi	a1,s0,1
    bb34:	7fe5f593          	andi	a1,a1,2046
    bb38:	0a059063          	bnez	a1,bbd8 <__subdf3+0x5f4>
    bb3c:	00c765b3          	or	a1,a4,a2
    bb40:	00a7e833          	or	a6,a5,a0
    bb44:	06041863          	bnez	s0,bbb4 <__subdf3+0x5d0>
    bb48:	00081a63          	bnez	a6,bb5c <__subdf3+0x578>
    bb4c:	00070793          	mv	a5,a4
    bb50:	02059e63          	bnez	a1,bb8c <__subdf3+0x5a8>
    bb54:	00000493          	li	s1,0
    bb58:	1c40006f          	j	bd1c <__subdf3+0x738>
    bb5c:	18058c63          	beqz	a1,bcf4 <__subdf3+0x710>
    bb60:	40c50833          	sub	a6,a0,a2
    bb64:	010538b3          	sltu	a7,a0,a6
    bb68:	40e785b3          	sub	a1,a5,a4
    bb6c:	411585b3          	sub	a1,a1,a7
    bb70:	00859893          	slli	a7,a1,0x8
    bb74:	0208d663          	bgez	a7,bba0 <__subdf3+0x5bc>
    bb78:	40a60533          	sub	a0,a2,a0
    bb7c:	00a635b3          	sltu	a1,a2,a0
    bb80:	40f707b3          	sub	a5,a4,a5
    bb84:	00050613          	mv	a2,a0
    bb88:	40b787b3          	sub	a5,a5,a1
    bb8c:	00068493          	mv	s1,a3
    bb90:	00c7e533          	or	a0,a5,a2
    bb94:	0e050263          	beqz	a0,bc78 <__subdf3+0x694>
    bb98:	00000413          	li	s0,0
    bb9c:	d91ff06f          	j	b92c <__subdf3+0x348>
    bba0:	00b86533          	or	a0,a6,a1
    bba4:	18050063          	beqz	a0,bd24 <__subdf3+0x740>
    bba8:	00058793          	mv	a5,a1
    bbac:	00080613          	mv	a2,a6
    bbb0:	fe1ff06f          	j	bb90 <__subdf3+0x5ac>
    bbb4:	00081c63          	bnez	a6,bbcc <__subdf3+0x5e8>
    bbb8:	16059c63          	bnez	a1,bd30 <__subdf3+0x74c>
    bbbc:	00000493          	li	s1,0
    bbc0:	00000513          	li	a0,0
    bbc4:	004007b7          	lui	a5,0x400
    bbc8:	dc9ff06f          	j	b990 <__subdf3+0x3ac>
    bbcc:	00030413          	mv	s0,t1
    bbd0:	ac0580e3          	beqz	a1,b690 <__subdf3+0xac>
    bbd4:	d21ff06f          	j	b8f4 <__subdf3+0x310>
    bbd8:	40c505b3          	sub	a1,a0,a2
    bbdc:	00b53833          	sltu	a6,a0,a1
    bbe0:	40e78933          	sub	s2,a5,a4
    bbe4:	41090933          	sub	s2,s2,a6
    bbe8:	00891813          	slli	a6,s2,0x8
    bbec:	00058993          	mv	s3,a1
    bbf0:	06085e63          	bgez	a6,bc6c <__subdf3+0x688>
    bbf4:	40a609b3          	sub	s3,a2,a0
    bbf8:	40f70933          	sub	s2,a4,a5
    bbfc:	01363633          	sltu	a2,a2,s3
    bc00:	40c90933          	sub	s2,s2,a2
    bc04:	00068493          	mv	s1,a3
    bc08:	06090e63          	beqz	s2,bc84 <__subdf3+0x6a0>
    bc0c:	00090513          	mv	a0,s2
    bc10:	178000ef          	jal	bd88 <__clzsi2>
    bc14:	ff850713          	addi	a4,a0,-8
    bc18:	02000793          	li	a5,32
    bc1c:	40e787b3          	sub	a5,a5,a4
    bc20:	00e91933          	sll	s2,s2,a4
    bc24:	00f9d7b3          	srl	a5,s3,a5
    bc28:	0127e7b3          	or	a5,a5,s2
    bc2c:	00e99633          	sll	a2,s3,a4
    bc30:	0a874463          	blt	a4,s0,bcd8 <__subdf3+0x6f4>
    bc34:	40870733          	sub	a4,a4,s0
    bc38:	00170513          	addi	a0,a4,1
    bc3c:	01f00693          	li	a3,31
    bc40:	02000593          	li	a1,32
    bc44:	06a6c263          	blt	a3,a0,bca8 <__subdf3+0x6c4>
    bc48:	40a585b3          	sub	a1,a1,a0
    bc4c:	00b79733          	sll	a4,a5,a1
    bc50:	00a656b3          	srl	a3,a2,a0
    bc54:	00b615b3          	sll	a1,a2,a1
    bc58:	00d76733          	or	a4,a4,a3
    bc5c:	00b035b3          	snez	a1,a1
    bc60:	00b76633          	or	a2,a4,a1
    bc64:	00a7d7b3          	srl	a5,a5,a0
    bc68:	f29ff06f          	j	bb90 <__subdf3+0x5ac>
    bc6c:	0125e533          	or	a0,a1,s2
    bc70:	f8051ce3          	bnez	a0,bc08 <__subdf3+0x624>
    bc74:	00000493          	li	s1,0
    bc78:	00000793          	li	a5,0
    bc7c:	00000413          	li	s0,0
    bc80:	a11ff06f          	j	b690 <__subdf3+0xac>
    bc84:	00098513          	mv	a0,s3
    bc88:	100000ef          	jal	bd88 <__clzsi2>
    bc8c:	01850713          	addi	a4,a0,24
    bc90:	01f00793          	li	a5,31
    bc94:	f8e7d2e3          	bge	a5,a4,bc18 <__subdf3+0x634>
    bc98:	ff850793          	addi	a5,a0,-8
    bc9c:	00f997b3          	sll	a5,s3,a5
    bca0:	00000613          	li	a2,0
    bca4:	f8dff06f          	j	bc30 <__subdf3+0x64c>
    bca8:	fe170713          	addi	a4,a4,-31
    bcac:	00e7d733          	srl	a4,a5,a4
    bcb0:	00000693          	li	a3,0
    bcb4:	00b50863          	beq	a0,a1,bcc4 <__subdf3+0x6e0>
    bcb8:	04000693          	li	a3,64
    bcbc:	40a686b3          	sub	a3,a3,a0
    bcc0:	00d796b3          	sll	a3,a5,a3
    bcc4:	00d666b3          	or	a3,a2,a3
    bcc8:	00d036b3          	snez	a3,a3
    bccc:	00d76633          	or	a2,a4,a3
    bcd0:	00000793          	li	a5,0
    bcd4:	ebdff06f          	j	bb90 <__subdf3+0x5ac>
    bcd8:	40e40433          	sub	s0,s0,a4
    bcdc:	ff800737          	lui	a4,0xff800
    bce0:	fff70713          	addi	a4,a4,-1 # ff7fffff <_sp+0xff7d4fbf>
    bce4:	00e7f7b3          	and	a5,a5,a4
    bce8:	c45ff06f          	j	b92c <__subdf3+0x348>
    bcec:	00070793          	mv	a5,a4
    bcf0:	ea1ff06f          	j	bb90 <__subdf3+0x5ac>
    bcf4:	00050613          	mv	a2,a0
    bcf8:	e99ff06f          	j	bb90 <__subdf3+0x5ac>
    bcfc:	00f67713          	andi	a4,a2,15
    bd00:	00400693          	li	a3,4
    bd04:	c2d708e3          	beq	a4,a3,b934 <__subdf3+0x350>
    bd08:	00d60533          	add	a0,a2,a3
    bd0c:	00c53633          	sltu	a2,a0,a2
    bd10:	00c787b3          	add	a5,a5,a2
    bd14:	c25ff06f          	j	b938 <__subdf3+0x354>
    bd18:	00068413          	mv	s0,a3
    bd1c:	00000793          	li	a5,0
    bd20:	bddff06f          	j	b8fc <__subdf3+0x318>
    bd24:	00000493          	li	s1,0
    bd28:	00000793          	li	a5,0
    bd2c:	965ff06f          	j	b690 <__subdf3+0xac>
    bd30:	00068493          	mv	s1,a3
    bd34:	00070793          	mv	a5,a4
    bd38:	00060513          	mv	a0,a2
    bd3c:	c55ff06f          	j	b990 <__subdf3+0x3ac>

0000bd40 <__unorddf2>:
    bd40:	00c59713          	slli	a4,a1,0xc
    bd44:	0145d593          	srli	a1,a1,0x14
    bd48:	00c69793          	slli	a5,a3,0xc
    bd4c:	7ff5f593          	andi	a1,a1,2047
    bd50:	0146d693          	srli	a3,a3,0x14
    bd54:	7ff00813          	li	a6,2047
    bd58:	00c75713          	srli	a4,a4,0xc
    bd5c:	00c7d793          	srli	a5,a5,0xc
    bd60:	7ff6f693          	andi	a3,a3,2047
    bd64:	01059863          	bne	a1,a6,bd74 <__unorddf2+0x34>
    bd68:	00a76733          	or	a4,a4,a0
    bd6c:	00100513          	li	a0,1
    bd70:	00071a63          	bnez	a4,bd84 <__unorddf2+0x44>
    bd74:	00000513          	li	a0,0
    bd78:	01069663          	bne	a3,a6,bd84 <__unorddf2+0x44>
    bd7c:	00c7e7b3          	or	a5,a5,a2
    bd80:	00f03533          	snez	a0,a5
    bd84:	00008067          	ret

0000bd88 <__clzsi2>:
    bd88:	000107b7          	lui	a5,0x10
    bd8c:	02f57a63          	bgeu	a0,a5,bdc0 <__clzsi2+0x38>
    bd90:	10053793          	sltiu	a5,a0,256
    bd94:	0017b793          	seqz	a5,a5
    bd98:	00379793          	slli	a5,a5,0x3
    bd9c:	00020737          	lui	a4,0x20
    bda0:	00f55533          	srl	a0,a0,a5
    bda4:	23070713          	addi	a4,a4,560 # 20230 <__clz_tab>
    bda8:	00a70733          	add	a4,a4,a0
    bdac:	00074503          	lbu	a0,0(a4)
    bdb0:	02000693          	li	a3,32
    bdb4:	40f686b3          	sub	a3,a3,a5
    bdb8:	40a68533          	sub	a0,a3,a0
    bdbc:	00008067          	ret
    bdc0:	01000737          	lui	a4,0x1000
    bdc4:	01800793          	li	a5,24
    bdc8:	fce57ae3          	bgeu	a0,a4,bd9c <__clzsi2+0x14>
    bdcc:	01000793          	li	a5,16
    bdd0:	fcdff06f          	j	bd9c <__clzsi2+0x14>

0000bdd4 <__divdi3>:
    bdd4:	00050e13          	mv	t3,a0
    bdd8:	00058313          	mv	t1,a1
    bddc:	00000713          	li	a4,0
    bde0:	0005dc63          	bgez	a1,bdf8 <__divdi3+0x24>
    bde4:	00a037b3          	snez	a5,a0
    bde8:	40b00333          	neg	t1,a1
    bdec:	40f30333          	sub	t1,t1,a5
    bdf0:	40a00e33          	neg	t3,a0
    bdf4:	fff00713          	li	a4,-1
    bdf8:	0006dc63          	bgez	a3,be10 <__divdi3+0x3c>
    bdfc:	00c037b3          	snez	a5,a2
    be00:	40d006b3          	neg	a3,a3
    be04:	fff74713          	not	a4,a4
    be08:	40f686b3          	sub	a3,a3,a5
    be0c:	40c00633          	neg	a2,a2
    be10:	00060813          	mv	a6,a2
    be14:	00068593          	mv	a1,a3
    be18:	000e0893          	mv	a7,t3
    be1c:	00030793          	mv	a5,t1
    be20:	22069663          	bnez	a3,c04c <TPG.c.5ee70cb6+0x1fb>
    be24:	00020537          	lui	a0,0x20
    be28:	23050513          	addi	a0,a0,560 # 20230 <__clz_tab>
    be2c:	0ec37463          	bgeu	t1,a2,bf14 <TPG.c.5ee70cb6+0xc3>
    be30:	000106b7          	lui	a3,0x10
    be34:	0cd67663          	bgeu	a2,a3,bf00 <TPG.c.5ee70cb6+0xaf>
    be38:	10063693          	sltiu	a3,a2,256
    be3c:	0016b693          	seqz	a3,a3
    be40:	00369693          	slli	a3,a3,0x3
    be44:	00d65eb3          	srl	t4,a2,a3
    be48:	01d50533          	add	a0,a0,t4
    be4c:	00054503          	lbu	a0,0(a0)
    be50:	00d506b3          	add	a3,a0,a3
    be54:	02000513          	li	a0,32
    be58:	00a68e63          	beq	a3,a0,be74 <TPG.c.5ee70cb6+0x23>
    be5c:	40d50533          	sub	a0,a0,a3
    be60:	00a317b3          	sll	a5,t1,a0
    be64:	00de56b3          	srl	a3,t3,a3
    be68:	00a61833          	sll	a6,a2,a0
    be6c:	00f6e7b3          	or	a5,a3,a5
    be70:	00ae18b3          	sll	a7,t3,a0
    be74:	01085313          	srli	t1,a6,0x10
    be78:	0267d533          	divu	a0,a5,t1
    be7c:	01081613          	slli	a2,a6,0x10
    be80:	01065613          	srli	a2,a2,0x10
    be84:	0267f7b3          	remu	a5,a5,t1
    be88:	02a60e33          	mul	t3,a2,a0
    be8c:	01079693          	slli	a3,a5,0x10
    be90:	0108d793          	srli	a5,a7,0x10
    be94:	00f6e7b3          	or	a5,a3,a5
    be98:	01c7fa63          	bgeu	a5,t3,beac <TPG.c.5ee70cb6+0x5b>
    be9c:	00f807b3          	add	a5,a6,a5
    bea0:	01c7f463          	bgeu	a5,t3,bea8 <TPG.c.5ee70cb6+0x57>
    bea4:	1907fa63          	bgeu	a5,a6,c038 <TPG.c.5ee70cb6+0x1e7>
    bea8:	fff50513          	addi	a0,a0,-1
    beac:	41c787b3          	sub	a5,a5,t3
    beb0:	0267d6b3          	divu	a3,a5,t1
    beb4:	01089893          	slli	a7,a7,0x10
    beb8:	0108d893          	srli	a7,a7,0x10
    bebc:	0267f7b3          	remu	a5,a5,t1
    bec0:	02d60633          	mul	a2,a2,a3
    bec4:	01079793          	slli	a5,a5,0x10
    bec8:	00f8e8b3          	or	a7,a7,a5
    becc:	00c8fa63          	bgeu	a7,a2,bee0 <TPG.c.5ee70cb6+0x8f>
    bed0:	011808b3          	add	a7,a6,a7
    bed4:	00c8f463          	bgeu	a7,a2,bedc <TPG.c.5ee70cb6+0x8b>
    bed8:	1708f663          	bgeu	a7,a6,c044 <TPG.c.5ee70cb6+0x1f3>
    bedc:	fff68693          	addi	a3,a3,-1 # ffff <i2c.c.57379e11+0x761>
    bee0:	01051513          	slli	a0,a0,0x10
    bee4:	00d56533          	or	a0,a0,a3
    bee8:	00070a63          	beqz	a4,befc <TPG.c.5ee70cb6+0xab>
    beec:	00a037b3          	snez	a5,a0
    bef0:	40b005b3          	neg	a1,a1
    bef4:	40f585b3          	sub	a1,a1,a5
    bef8:	40a00533          	neg	a0,a0
    befc:	00008067          	ret
    bf00:	01000eb7          	lui	t4,0x1000
    bf04:	01800693          	li	a3,24
    bf08:	f3d67ee3          	bgeu	a2,t4,be44 <__divdi3+0x70>
    bf0c:	01000693          	li	a3,16
    bf10:	f35ff06f          	j	be44 <__divdi3+0x70>
    bf14:	00000693          	li	a3,0
    bf18:	00060c63          	beqz	a2,bf30 <TPG.c.5ee70cb6+0xdf>
    bf1c:	000107b7          	lui	a5,0x10
    bf20:	04f67a63          	bgeu	a2,a5,bf74 <TPG.c.5ee70cb6+0x123>
    bf24:	10063693          	sltiu	a3,a2,256
    bf28:	0016b693          	seqz	a3,a3
    bf2c:	00369693          	slli	a3,a3,0x3
    bf30:	00d657b3          	srl	a5,a2,a3
    bf34:	00f50533          	add	a0,a0,a5
    bf38:	00054783          	lbu	a5,0(a0)
    bf3c:	02000593          	li	a1,32
    bf40:	00d787b3          	add	a5,a5,a3
    bf44:	04b79263          	bne	a5,a1,bf88 <TPG.c.5ee70cb6+0x137>
    bf48:	40c307b3          	sub	a5,t1,a2
    bf4c:	00100593          	li	a1,1
    bf50:	01085313          	srli	t1,a6,0x10
    bf54:	0267d533          	divu	a0,a5,t1
    bf58:	01081613          	slli	a2,a6,0x10
    bf5c:	01065613          	srli	a2,a2,0x10
    bf60:	0108d693          	srli	a3,a7,0x10
    bf64:	0267f7b3          	remu	a5,a5,t1
    bf68:	02a60e33          	mul	t3,a2,a0
    bf6c:	01079793          	slli	a5,a5,0x10
    bf70:	f25ff06f          	j	be94 <TPG.c.5ee70cb6+0x43>
    bf74:	010007b7          	lui	a5,0x1000
    bf78:	01800693          	li	a3,24
    bf7c:	faf67ae3          	bgeu	a2,a5,bf30 <TPG.c.5ee70cb6+0xdf>
    bf80:	01000693          	li	a3,16
    bf84:	fadff06f          	j	bf30 <TPG.c.5ee70cb6+0xdf>
    bf88:	40f585b3          	sub	a1,a1,a5
    bf8c:	00b61833          	sll	a6,a2,a1
    bf90:	00f356b3          	srl	a3,t1,a5
    bf94:	00b31333          	sll	t1,t1,a1
    bf98:	00fe57b3          	srl	a5,t3,a5
    bf9c:	0067e7b3          	or	a5,a5,t1
    bfa0:	01085313          	srli	t1,a6,0x10
    bfa4:	00be18b3          	sll	a7,t3,a1
    bfa8:	0266d5b3          	divu	a1,a3,t1
    bfac:	01081513          	slli	a0,a6,0x10
    bfb0:	01055513          	srli	a0,a0,0x10
    bfb4:	0266f6b3          	remu	a3,a3,t1
    bfb8:	02b50e33          	mul	t3,a0,a1
    bfbc:	01069613          	slli	a2,a3,0x10
    bfc0:	0107d693          	srli	a3,a5,0x10
    bfc4:	00c6e6b3          	or	a3,a3,a2
    bfc8:	01c6fa63          	bgeu	a3,t3,bfdc <TPG.c.5ee70cb6+0x18b>
    bfcc:	00d806b3          	add	a3,a6,a3
    bfd0:	01c6f463          	bgeu	a3,t3,bfd8 <TPG.c.5ee70cb6+0x187>
    bfd4:	0506f663          	bgeu	a3,a6,c020 <TPG.c.5ee70cb6+0x1cf>
    bfd8:	fff58593          	addi	a1,a1,-1
    bfdc:	41c686b3          	sub	a3,a3,t3
    bfe0:	0266d633          	divu	a2,a3,t1
    bfe4:	01079793          	slli	a5,a5,0x10
    bfe8:	0107d793          	srli	a5,a5,0x10
    bfec:	0266f6b3          	remu	a3,a3,t1
    bff0:	02c50533          	mul	a0,a0,a2
    bff4:	01069693          	slli	a3,a3,0x10
    bff8:	00d7e7b3          	or	a5,a5,a3
    bffc:	00a7fa63          	bgeu	a5,a0,c010 <TPG.c.5ee70cb6+0x1bf>
    c000:	00f807b3          	add	a5,a6,a5
    c004:	00a7f463          	bgeu	a5,a0,c00c <TPG.c.5ee70cb6+0x1bb>
    c008:	0307f263          	bgeu	a5,a6,c02c <TPG.c.5ee70cb6+0x1db>
    c00c:	fff60613          	addi	a2,a2,-1 # ffff <i2c.c.57379e11+0x761>
    c010:	01059593          	slli	a1,a1,0x10
    c014:	40a787b3          	sub	a5,a5,a0
    c018:	00c5e5b3          	or	a1,a1,a2
    c01c:	f35ff06f          	j	bf50 <TPG.c.5ee70cb6+0xff>
    c020:	ffe58593          	addi	a1,a1,-2
    c024:	010686b3          	add	a3,a3,a6
    c028:	fb5ff06f          	j	bfdc <TPG.c.5ee70cb6+0x18b>
    c02c:	ffe60613          	addi	a2,a2,-2
    c030:	010787b3          	add	a5,a5,a6
    c034:	fddff06f          	j	c010 <TPG.c.5ee70cb6+0x1bf>
    c038:	ffe50513          	addi	a0,a0,-2
    c03c:	010787b3          	add	a5,a5,a6
    c040:	e6dff06f          	j	beac <TPG.c.5ee70cb6+0x5b>
    c044:	ffe68693          	addi	a3,a3,-2
    c048:	e99ff06f          	j	bee0 <TPG.c.5ee70cb6+0x8f>
    c04c:	18d36463          	bltu	t1,a3,c1d4 <TPG.c.5ee70cb6+0x383>
    c050:	000107b7          	lui	a5,0x10
    c054:	04f6f463          	bgeu	a3,a5,c09c <TPG.c.5ee70cb6+0x24b>
    c058:	1006b593          	sltiu	a1,a3,256
    c05c:	0015b593          	seqz	a1,a1
    c060:	00359593          	slli	a1,a1,0x3
    c064:	000207b7          	lui	a5,0x20
    c068:	00b6d533          	srl	a0,a3,a1
    c06c:	23078793          	addi	a5,a5,560 # 20230 <__clz_tab>
    c070:	00a787b3          	add	a5,a5,a0
    c074:	0007c783          	lbu	a5,0(a5)
    c078:	02000e93          	li	t4,32
    c07c:	00b787b3          	add	a5,a5,a1
    c080:	03d79863          	bne	a5,t4,c0b0 <TPG.c.5ee70cb6+0x25f>
    c084:	00ce3533          	sltu	a0,t3,a2
    c088:	00153513          	seqz	a0,a0
    c08c:	0066b6b3          	sltu	a3,a3,t1
    c090:	00d56533          	or	a0,a0,a3
    c094:	00000593          	li	a1,0
    c098:	e51ff06f          	j	bee8 <TPG.c.5ee70cb6+0x97>
    c09c:	010007b7          	lui	a5,0x1000
    c0a0:	01800593          	li	a1,24
    c0a4:	fcf6f0e3          	bgeu	a3,a5,c064 <TPG.c.5ee70cb6+0x213>
    c0a8:	01000593          	li	a1,16
    c0ac:	fb9ff06f          	j	c064 <TPG.c.5ee70cb6+0x213>
    c0b0:	40fe8eb3          	sub	t4,t4,a5
    c0b4:	00f655b3          	srl	a1,a2,a5
    c0b8:	01d696b3          	sll	a3,a3,t4
    c0bc:	00f35833          	srl	a6,t1,a5
    c0c0:	00d5e6b3          	or	a3,a1,a3
    c0c4:	01d31333          	sll	t1,t1,t4
    c0c8:	00fe57b3          	srl	a5,t3,a5
    c0cc:	0067e5b3          	or	a1,a5,t1
    c0d0:	0106d313          	srli	t1,a3,0x10
    c0d4:	026857b3          	divu	a5,a6,t1
    c0d8:	01069513          	slli	a0,a3,0x10
    c0dc:	01055513          	srli	a0,a0,0x10
    c0e0:	01d61633          	sll	a2,a2,t4
    c0e4:	02687833          	remu	a6,a6,t1
    c0e8:	02f50f33          	mul	t5,a0,a5
    c0ec:	01081893          	slli	a7,a6,0x10
    c0f0:	0105d813          	srli	a6,a1,0x10
    c0f4:	01186833          	or	a6,a6,a7
    c0f8:	01e87a63          	bgeu	a6,t5,c10c <TPG.c.5ee70cb6+0x2bb>
    c0fc:	01068833          	add	a6,a3,a6
    c100:	01e87463          	bgeu	a6,t5,c108 <TPG.c.5ee70cb6+0x2b7>
    c104:	0ad87c63          	bgeu	a6,a3,c1bc <TPG.c.5ee70cb6+0x36b>
    c108:	fff78793          	addi	a5,a5,-1 # ffffff <_sp+0xfd4fbf>
    c10c:	41e80833          	sub	a6,a6,t5
    c110:	026858b3          	divu	a7,a6,t1
    c114:	01059593          	slli	a1,a1,0x10
    c118:	0105d593          	srli	a1,a1,0x10
    c11c:	02687833          	remu	a6,a6,t1
    c120:	03150533          	mul	a0,a0,a7
    c124:	01081813          	slli	a6,a6,0x10
    c128:	0105e5b3          	or	a1,a1,a6
    c12c:	00a5fa63          	bgeu	a1,a0,c140 <TPG.c.5ee70cb6+0x2ef>
    c130:	00b685b3          	add	a1,a3,a1
    c134:	00a5f463          	bgeu	a1,a0,c13c <TPG.c.5ee70cb6+0x2eb>
    c138:	08d5f863          	bgeu	a1,a3,c1c8 <TPG.c.5ee70cb6+0x377>
    c13c:	fff88893          	addi	a7,a7,-1
    c140:	01079793          	slli	a5,a5,0x10
    c144:	01061813          	slli	a6,a2,0x10
    c148:	40a585b3          	sub	a1,a1,a0
    c14c:	0117e533          	or	a0,a5,a7
    c150:	01089893          	slli	a7,a7,0x10
    c154:	0108d893          	srli	a7,a7,0x10
    c158:	01055693          	srli	a3,a0,0x10
    c15c:	01085813          	srli	a6,a6,0x10
    c160:	01065613          	srli	a2,a2,0x10
    c164:	03088333          	mul	t1,a7,a6
    c168:	03068833          	mul	a6,a3,a6
    c16c:	01035793          	srli	a5,t1,0x10
    c170:	02c888b3          	mul	a7,a7,a2
    c174:	02c686b3          	mul	a3,a3,a2
    c178:	010888b3          	add	a7,a7,a6
    c17c:	011787b3          	add	a5,a5,a7
    c180:	0107f663          	bgeu	a5,a6,c18c <TPG.c.5ee70cb6+0x33b>
    c184:	00010637          	lui	a2,0x10
    c188:	00c686b3          	add	a3,a3,a2
    c18c:	0107d613          	srli	a2,a5,0x10
    c190:	00d606b3          	add	a3,a2,a3
    c194:	02d5e063          	bltu	a1,a3,c1b4 <TPG.c.5ee70cb6+0x363>
    c198:	01031313          	slli	t1,t1,0x10
    c19c:	01079793          	slli	a5,a5,0x10
    c1a0:	01035313          	srli	t1,t1,0x10
    c1a4:	01de1e33          	sll	t3,t3,t4
    c1a8:	006787b3          	add	a5,a5,t1
    c1ac:	eefe74e3          	bgeu	t3,a5,c094 <TPG.c.5ee70cb6+0x243>
    c1b0:	eed592e3          	bne	a1,a3,c094 <TPG.c.5ee70cb6+0x243>
    c1b4:	fff50513          	addi	a0,a0,-1
    c1b8:	eddff06f          	j	c094 <TPG.c.5ee70cb6+0x243>
    c1bc:	ffe78793          	addi	a5,a5,-2
    c1c0:	00d80833          	add	a6,a6,a3
    c1c4:	f49ff06f          	j	c10c <TPG.c.5ee70cb6+0x2bb>
    c1c8:	ffe88893          	addi	a7,a7,-2
    c1cc:	00d585b3          	add	a1,a1,a3
    c1d0:	f71ff06f          	j	c140 <TPG.c.5ee70cb6+0x2ef>
    c1d4:	00000593          	li	a1,0
    c1d8:	00000513          	li	a0,0
    c1dc:	d0dff06f          	j	bee8 <TPG.c.5ee70cb6+0x97>

0000c1e0 <__ledf2>:
    c1e0:	0145d313          	srli	t1,a1,0x14
    c1e4:	00c59893          	slli	a7,a1,0xc
    c1e8:	00c69713          	slli	a4,a3,0xc
    c1ec:	0146d813          	srli	a6,a3,0x14
    c1f0:	7ff37313          	andi	t1,t1,2047
    c1f4:	7ff00793          	li	a5,2047
    c1f8:	00c8d893          	srli	a7,a7,0xc
    c1fc:	01f5d593          	srli	a1,a1,0x1f
    c200:	00c75713          	srli	a4,a4,0xc
    c204:	7ff87813          	andi	a6,a6,2047
    c208:	01f6d693          	srli	a3,a3,0x1f
    c20c:	04f30263          	beq	t1,a5,c250 <__ledf2+0x70>
    c210:	7ff00e13          	li	t3,2047
    c214:	00080793          	mv	a5,a6
    c218:	01c81663          	bne	a6,t3,c224 <__ledf2+0x44>
    c21c:	00c76e33          	or	t3,a4,a2
    c220:	020e1c63          	bnez	t3,c258 <__ledf2+0x78>
    c224:	00000e13          	li	t3,0
    c228:	00031663          	bnez	t1,c234 <__ledf2+0x54>
    c22c:	00a8ee33          	or	t3,a7,a0
    c230:	001e3e13          	seqz	t3,t3
    c234:	06081263          	bnez	a6,c298 <__ledf2+0xb8>
    c238:	00c76eb3          	or	t4,a4,a2
    c23c:	020e0463          	beqz	t3,c264 <__ledf2+0x84>
    c240:	000e8e63          	beqz	t4,c25c <__ledf2+0x7c>
    c244:	00169793          	slli	a5,a3,0x1
    c248:	fff78793          	addi	a5,a5,-1
    c24c:	0100006f          	j	c25c <__ledf2+0x7c>
    c250:	00a8e7b3          	or	a5,a7,a0
    c254:	fa078ee3          	beqz	a5,c210 <__ledf2+0x30>
    c258:	00200793          	li	a5,2
    c25c:	00078513          	mv	a0,a5
    c260:	00008067          	ret
    c264:	020e9c63          	bnez	t4,c29c <__ledf2+0xbc>
    c268:	40b005b3          	neg	a1,a1
    c26c:	0015e793          	ori	a5,a1,1
    c270:	fedff06f          	j	c25c <__ledf2+0x7c>
    c274:	fd0348e3          	blt	t1,a6,c244 <__ledf2+0x64>
    c278:	ff1768e3          	bltu	a4,a7,c268 <__ledf2+0x88>
    c27c:	00a67463          	bgeu	a2,a0,c284 <__ledf2+0xa4>
    c280:	fee884e3          	beq	a7,a4,c268 <__ledf2+0x88>
    c284:	00c56663          	bltu	a0,a2,c290 <__ledf2+0xb0>
    c288:	00000793          	li	a5,0
    c28c:	fce8f8e3          	bgeu	a7,a4,c25c <__ledf2+0x7c>
    c290:	00159793          	slli	a5,a1,0x1
    c294:	fb5ff06f          	j	c248 <__ledf2+0x68>
    c298:	fa0e16e3          	bnez	t3,c244 <__ledf2+0x64>
    c29c:	fcb696e3          	bne	a3,a1,c268 <__ledf2+0x88>
    c2a0:	fc685ae3          	bge	a6,t1,c274 <__ledf2+0x94>
    c2a4:	40d006b3          	neg	a3,a3
    c2a8:	0016e793          	ori	a5,a3,1
    c2ac:	fb1ff06f          	j	c25c <__ledf2+0x7c>

0000c2b0 <__fixdfsi>:
    c2b0:	0145d713          	srli	a4,a1,0x14
    c2b4:	00c59793          	slli	a5,a1,0xc
    c2b8:	7ff77713          	andi	a4,a4,2047
    c2bc:	3fe00693          	li	a3,1022
    c2c0:	00c7d793          	srli	a5,a5,0xc
    c2c4:	01f5d593          	srli	a1,a1,0x1f
    c2c8:	04e6de63          	bge	a3,a4,c324 <__fixdfsi+0x74>
    c2cc:	41d00693          	li	a3,1053
    c2d0:	00e6da63          	bge	a3,a4,c2e4 <__fixdfsi+0x34>
    c2d4:	80000537          	lui	a0,0x80000
    c2d8:	fff50513          	addi	a0,a0,-1 # 7fffffff <_sp+0x7ffd4fbf>
    c2dc:	00a58533          	add	a0,a1,a0
    c2e0:	00008067          	ret
    c2e4:	001006b7          	lui	a3,0x100
    c2e8:	00d7e7b3          	or	a5,a5,a3
    c2ec:	41300693          	li	a3,1043
    c2f0:	02e6d463          	bge	a3,a4,c318 <__fixdfsi+0x68>
    c2f4:	bed70693          	addi	a3,a4,-1043 # fffbed <_sp+0xfd4bad>
    c2f8:	00d797b3          	sll	a5,a5,a3
    c2fc:	43300693          	li	a3,1075
    c300:	40e68733          	sub	a4,a3,a4
    c304:	00e55533          	srl	a0,a0,a4
    c308:	00a7e533          	or	a0,a5,a0
    c30c:	00058e63          	beqz	a1,c328 <__fixdfsi+0x78>
    c310:	40a00533          	neg	a0,a0
    c314:	00008067          	ret
    c318:	40e686b3          	sub	a3,a3,a4
    c31c:	00d7d533          	srl	a0,a5,a3
    c320:	fedff06f          	j	c30c <__fixdfsi+0x5c>
    c324:	00000513          	li	a0,0
    c328:	00008067          	ret

0000c32c <__floatunsidf>:
    c32c:	ff010113          	addi	sp,sp,-16
    c330:	00812423          	sw	s0,8(sp)
    c334:	00112623          	sw	ra,12(sp)
    c338:	00050413          	mv	s0,a0
    c33c:	06050063          	beqz	a0,c39c <__floatunsidf+0x70>
    c340:	a49ff0ef          	jal	bd88 <__clzsi2>
    c344:	41e00713          	li	a4,1054
    c348:	00a00793          	li	a5,10
    c34c:	40a70733          	sub	a4,a4,a0
    c350:	02a7ce63          	blt	a5,a0,c38c <__floatunsidf+0x60>
    c354:	00b00793          	li	a5,11
    c358:	40a787b3          	sub	a5,a5,a0
    c35c:	01550513          	addi	a0,a0,21
    c360:	00f457b3          	srl	a5,s0,a5
    c364:	00a41433          	sll	s0,s0,a0
    c368:	00c12083          	lw	ra,12(sp)
    c36c:	00040513          	mv	a0,s0
    c370:	00812403          	lw	s0,8(sp)
    c374:	00c79793          	slli	a5,a5,0xc
    c378:	01471713          	slli	a4,a4,0x14
    c37c:	00c7d793          	srli	a5,a5,0xc
    c380:	00f765b3          	or	a1,a4,a5
    c384:	01010113          	addi	sp,sp,16
    c388:	00008067          	ret
    c38c:	ff550513          	addi	a0,a0,-11
    c390:	00a417b3          	sll	a5,s0,a0
    c394:	00000413          	li	s0,0
    c398:	fd1ff06f          	j	c368 <__floatunsidf+0x3c>
    c39c:	00000793          	li	a5,0
    c3a0:	00000713          	li	a4,0
    c3a4:	fc5ff06f          	j	c368 <__floatunsidf+0x3c>

0000c3a8 <main>:
    c3a8:	c3010113          	addi	sp,sp,-976
    c3ac:	3c112623          	sw	ra,972(sp)
    c3b0:	3c812423          	sw	s0,968(sp)
    c3b4:	3c912223          	sw	s1,964(sp)
    c3b8:	3d212023          	sw	s2,960(sp)
    c3bc:	3b312e23          	sw	s3,956(sp)
    c3c0:	3b412c23          	sw	s4,952(sp)
    c3c4:	3b512a23          	sw	s5,948(sp)
    c3c8:	3b612823          	sw	s6,944(sp)
    c3cc:	3b712623          	sw	s7,940(sp)
    c3d0:	3b812423          	sw	s8,936(sp)
    c3d4:	3b912223          	sw	s9,932(sp)
    c3d8:	3ba12023          	sw	s10,928(sp)
    c3dc:	39b12e23          	sw	s11,924(sp)
    c3e0:	00100793          	li	a5,1
    c3e4:	3207b073          	csrc	mcountinhibit,a5
    c3e8:	03010793          	addi	a5,sp,48
    c3ec:	00f12e23          	sw	a5,28(sp)
    c3f0:	39010713          	addi	a4,sp,912
    c3f4:	0007a023          	sw	zero,0(a5)
    c3f8:	0007a423          	sw	zero,8(a5)
    c3fc:	0007a623          	sw	zero,12(a5)
    c400:	0007a823          	sw	zero,16(a5)
    c404:	0007aa23          	sw	zero,20(a5)
    c408:	01878793          	addi	a5,a5,24
    c40c:	fee794e3          	bne	a5,a4,c3f4 <main+0x4c>
    c410:	fff00793          	li	a5,-1
    c414:	02f12623          	sw	a5,44(sp)
    c418:	00020cb7          	lui	s9,0x20
    c41c:	518c8c93          	addi	s9,s9,1304 # 20518 <dataSourcesLE_0>
    c420:	5a0c8d93          	addi	s11,s9,1440
    c424:	000217b7          	lui	a5,0x21
    c428:	51878793          	addi	a5,a5,1304 # 21518 <dataSourcesLE_2+0x4c0>
    c42c:	b4078d13          	addi	s10,a5,-1216
    c430:	0e078c13          	addi	s8,a5,224
    c434:	68078b93          	addi	s7,a5,1664
    c438:	000227b7          	lui	a5,0x22
    c43c:	51878793          	addi	a5,a5,1304 # 22518 <dataSourcesLE_8+0x3e0>
    c440:	c2078b13          	addi	s6,a5,-992
    c444:	1c078a93          	addi	s5,a5,448
    c448:	00000a13          	li	s4,0
    c44c:	b8018413          	addi	s0,gp,-1152 # 22ff8 <in1_buf>
    c450:	0ec0006f          	j	c53c <main+0x194>
    c454:	ed9ff0ef          	jal	c32c <__floatunsidf>
    c458:	00a12823          	sw	a0,16(sp)
    c45c:	00b12a23          	sw	a1,20(sp)
    c460:	00191793          	slli	a5,s2,0x1
    c464:	00f12623          	sw	a5,12(sp)
    c468:	212924b3          	sh1add	s1,s2,s2
    c46c:	39010793          	addi	a5,sp,912
    c470:	20f4e4b3          	sh3add	s1,s1,a5
    c474:	ca04a983          	lw	s3,-864(s1) # 7ffca0 <_sp+0x7d4c60>
    c478:	00198993          	addi	s3,s3,1
    c47c:	cb34a023          	sw	s3,-864(s1)
    c480:	ca84a783          	lw	a5,-856(s1)
    c484:	cac4a803          	lw	a6,-852(s1)
    c488:	00f12023          	sw	a5,0(sp)
    c48c:	01012223          	sw	a6,4(sp)
    c490:	00078613          	mv	a2,a5
    c494:	00080693          	mv	a3,a6
    c498:	94cff0ef          	jal	b5e4 <__subdf3>
    c49c:	00a12423          	sw	a0,8(sp)
    c4a0:	00b12c23          	sw	a1,24(sp)
    c4a4:	00098513          	mv	a0,s3
    c4a8:	e85ff0ef          	jal	c32c <__floatunsidf>
    c4ac:	00050613          	mv	a2,a0
    c4b0:	00058693          	mv	a3,a1
    c4b4:	00812503          	lw	a0,8(sp)
    c4b8:	01812983          	lw	s3,24(sp)
    c4bc:	00098593          	mv	a1,s3
    c4c0:	b6cfe0ef          	jal	a82c <__divdf3>
    c4c4:	00012603          	lw	a2,0(sp)
    c4c8:	00412683          	lw	a3,4(sp)
    c4cc:	c15fd0ef          	jal	a0e0 <__adddf3>
    c4d0:	caa4a423          	sw	a0,-856(s1)
    c4d4:	cab4a623          	sw	a1,-852(s1)
    c4d8:	00050613          	mv	a2,a0
    c4dc:	00058693          	mv	a3,a1
    c4e0:	01012503          	lw	a0,16(sp)
    c4e4:	01412583          	lw	a1,20(sp)
    c4e8:	8fcff0ef          	jal	b5e4 <__subdf3>
    c4ec:	00812603          	lw	a2,8(sp)
    c4f0:	00098693          	mv	a3,s3
    c4f4:	b09fe0ef          	jal	affc <__muldf3>
    c4f8:	00050613          	mv	a2,a0
    c4fc:	00058693          	mv	a3,a1
    c500:	cb04a503          	lw	a0,-848(s1)
    c504:	cb44a583          	lw	a1,-844(s1)
    c508:	bd9fd0ef          	jal	a0e0 <__adddf3>
    c50c:	caa4a823          	sw	a0,-848(s1)
    c510:	cab4aa23          	sw	a1,-844(s1)
    c514:	001a0a13          	addi	s4,s4,1
    c518:	004c8c93          	addi	s9,s9,4
    c51c:	004d8d93          	addi	s11,s11,4
    c520:	004d0d13          	addi	s10,s10,4
    c524:	004c0c13          	addi	s8,s8,4
    c528:	004b8b93          	addi	s7,s7,4
    c52c:	004b0b13          	addi	s6,s6,4 # 10004 <i2c.c.57379e11+0x766>
    c530:	004a8a93          	addi	s5,s5,4
    c534:	16800793          	li	a5,360
    c538:	0cfa0863          	beq	s4,a5,c608 <main+0x260>
    c53c:	000ca783          	lw	a5,0(s9)
    c540:	00f42023          	sw	a5,0(s0)
    c544:	000da783          	lw	a5,0(s11)
    c548:	00f42223          	sw	a5,4(s0)
    c54c:	000d2783          	lw	a5,0(s10)
    c550:	00f42423          	sw	a5,8(s0)
    c554:	00042623          	sw	zero,12(s0)
    c558:	015a07b7          	lui	a5,0x15a0
    c55c:	00f42823          	sw	a5,16(s0)
    c560:	010b07b7          	lui	a5,0x10b0
    c564:	00f42a23          	sw	a5,20(s0)
    c568:	000c2783          	lw	a5,0(s8)
    c56c:	00f42c23          	sw	a5,24(s0)
    c570:	000ba783          	lw	a5,0(s7)
    c574:	00f42e23          	sw	a5,28(s0)
    c578:	000b2783          	lw	a5,0(s6)
    c57c:	02f42023          	sw	a5,32(s0)
    c580:	080007b7          	lui	a5,0x8000
    c584:	02f42223          	sw	a5,36(s0)
    c588:	02f42423          	sw	a5,40(s0)
    c58c:	02f42623          	sw	a5,44(s0)
    c590:	02f42823          	sw	a5,48(s0)
    c594:	020007b7          	lui	a5,0x2000
    c598:	02f42a23          	sw	a5,52(s0)
    c59c:	010007b7          	lui	a5,0x1000
    c5a0:	02f42c23          	sw	a5,56(s0)
    c5a4:	9881a423          	sw	s0,-1656(gp) # 22e00 <in1>
    c5a8:	b8c18713          	addi	a4,gp,-1140 # 23004 <in2_buf>
    c5ac:	98e1a223          	sw	a4,-1660(gp) # 22dfc <in2>
    c5b0:	b9818713          	addi	a4,gp,-1128 # 23010 <in3_buf>
    c5b4:	98e1a023          	sw	a4,-1664(gp) # 22df8 <in3>
    c5b8:	ba418593          	addi	a1,gp,-1116 # 2301c <in4_buf>
    c5bc:	96b1ae23          	sw	a1,-1668(gp) # 22df4 <in4>
    c5c0:	00000793          	li	a5,0
    c5c4:	b0079073          	csrw	mcycle,a5
    c5c8:	00058713          	mv	a4,a1
    c5cc:	b9818693          	addi	a3,gp,-1128 # 23010 <in3_buf>
    c5d0:	b8c18613          	addi	a2,gp,-1140 # 23004 <in2_buf>
    c5d4:	00040593          	mv	a1,s0
    c5d8:	02c10513          	addi	a0,sp,44
    c5dc:	d74f40ef          	jal	b50 <inferenceTPG>
    c5e0:	b0002573          	csrr	a0,mcycle
    c5e4:	000aa903          	lw	s2,0(s5)
    c5e8:	02300793          	li	a5,35
    c5ec:	e727f4e3          	bgeu	a5,s2,c454 <main+0xac>
    c5f0:	00090613          	mv	a2,s2
    c5f4:	000a0593          	mv	a1,s4
    c5f8:	00020537          	lui	a0,0x20
    c5fc:	33050513          	addi	a0,a0,816 # 20330 <__clz_tab+0x100>
    c600:	859fc0ef          	jal	8e58 <iprintf>
    c604:	f11ff06f          	j	c514 <main+0x16c>
    c608:	00020537          	lui	a0,0x20
    c60c:	35050513          	addi	a0,a0,848 # 20350 <__clz_tab+0x120>
    c610:	9a1fc0ef          	jal	8fb0 <puts>
    c614:	00000493          	li	s1,0
    c618:	00100d13          	li	s10,1
    c61c:	00020cb7          	lui	s9,0x20
    c620:	384c8c93          	addi	s9,s9,900 # 20384 <__clz_tab+0x154>
    c624:	00000c13          	li	s8,0
    c628:	00000a93          	li	s5,0
    c62c:	02400993          	li	s3,36
    c630:	01c12403          	lw	s0,28(sp)
    c634:	04c0006f          	j	c680 <main+0x2d8>
    c638:	000c0713          	mv	a4,s8
    c63c:	000a8793          	mv	a5,s5
    c640:	00070513          	mv	a0,a4
    c644:	00078593          	mv	a1,a5
    c648:	c69ff0ef          	jal	c2b0 <__fixdfsi>
    c64c:	00050a13          	mv	s4,a0
    c650:	000b0513          	mv	a0,s6
    c654:	000b8593          	mv	a1,s7
    c658:	c59ff0ef          	jal	c2b0 <__fixdfsi>
    c65c:	00050693          	mv	a3,a0
    c660:	000a0713          	mv	a4,s4
    c664:	00090613          	mv	a2,s2
    c668:	00048593          	mv	a1,s1
    c66c:	000c8513          	mv	a0,s9
    c670:	fe8fc0ef          	jal	8e58 <iprintf>
    c674:	00148493          	addi	s1,s1,1
    c678:	01840413          	addi	s0,s0,24
    c67c:	07348263          	beq	s1,s3,c6e0 <main+0x338>
    c680:	00042903          	lw	s2,0(s0)
    c684:	fe0908e3          	beqz	s2,c674 <main+0x2cc>
    c688:	00842b03          	lw	s6,8(s0)
    c68c:	00c42b83          	lw	s7,12(s0)
    c690:	fb2d74e3          	bgeu	s10,s2,c638 <main+0x290>
    c694:	fff90513          	addi	a0,s2,-1
    c698:	c95ff0ef          	jal	c32c <__floatunsidf>
    c69c:	00050613          	mv	a2,a0
    c6a0:	00058693          	mv	a3,a1
    c6a4:	01042503          	lw	a0,16(s0)
    c6a8:	01442583          	lw	a1,20(s0)
    c6ac:	980fe0ef          	jal	a82c <__divdf3>
    c6b0:	00050d93          	mv	s11,a0
    c6b4:	00058a13          	mv	s4,a1
    c6b8:	000c0613          	mv	a2,s8
    c6bc:	000a8693          	mv	a3,s5
    c6c0:	86dfe0ef          	jal	af2c <__gedf2>
    c6c4:	f6a05ae3          	blez	a0,c638 <main+0x290>
    c6c8:	000d8513          	mv	a0,s11
    c6cc:	000a0593          	mv	a1,s4
    c6d0:	e90fd0ef          	jal	9d60 <sqrt>
    c6d4:	00050713          	mv	a4,a0
    c6d8:	00058793          	mv	a5,a1
    c6dc:	f65ff06f          	j	c640 <main+0x298>
    c6e0:	00000513          	li	a0,0
    c6e4:	3cc12083          	lw	ra,972(sp)
    c6e8:	3c812403          	lw	s0,968(sp)
    c6ec:	3c412483          	lw	s1,964(sp)
    c6f0:	3c012903          	lw	s2,960(sp)
    c6f4:	3bc12983          	lw	s3,956(sp)
    c6f8:	3b812a03          	lw	s4,952(sp)
    c6fc:	3b412a83          	lw	s5,948(sp)
    c700:	3b012b03          	lw	s6,944(sp)
    c704:	3ac12b83          	lw	s7,940(sp)
    c708:	3a812c03          	lw	s8,936(sp)
    c70c:	3a412c83          	lw	s9,932(sp)
    c710:	3a012d03          	lw	s10,928(sp)
    c714:	39c12d83          	lw	s11,924(sp)
    c718:	3d010113          	addi	sp,sp,976
    c71c:	00008067          	ret
