
sw/build/main.elf:     file format elf32-littleriscv


Disassembly of section .vectors:

00000000 <__vector_start>:
   0:	4850706f          	j	7c84 <handler_exception>
   4:	22c0006f          	j	230 <__no_irq_handler>
   8:	2280006f          	j	230 <__no_irq_handler>
   c:	53d0706f          	j	7d48 <handler_irq_software>
  10:	2200006f          	j	230 <__no_irq_handler>
  14:	21c0006f          	j	230 <__no_irq_handler>
  18:	2180006f          	j	230 <__no_irq_handler>
  1c:	5810706f          	j	7d9c <handler_irq_timer>
  20:	2100006f          	j	230 <__no_irq_handler>
  24:	20c0006f          	j	230 <__no_irq_handler>
  28:	2080006f          	j	230 <__no_irq_handler>
  2c:	3a50706f          	j	7bd0 <handler_irq_external>
  30:	2000006f          	j	230 <__no_irq_handler>
  34:	1fc0006f          	j	230 <__no_irq_handler>
  38:	1f80006f          	j	230 <__no_irq_handler>
  3c:	1f40006f          	j	230 <__no_irq_handler>
  40:	3040706f          	j	7344 <handler_irq_fast_timer_1>
  44:	39c0706f          	j	73e0 <handler_irq_fast_timer_2>
  48:	4340706f          	j	747c <handler_irq_fast_timer_3>
  4c:	4cc0706f          	j	7518 <handler_irq_fast_dma_done>
  50:	0800806f          	j	80d0 <handler_irq_fast_spi>
  54:	7210706f          	j	7f74 <handler_irq_fast_spi_flash>
  58:	6940706f          	j	76ec <handler_irq_fast_gpio_0>
  5c:	72c0706f          	j	7788 <handler_irq_fast_gpio_1>
  60:	7c40706f          	j	7824 <handler_irq_fast_gpio_2>
  64:	05d0706f          	j	78c0 <handler_irq_fast_gpio_3>
  68:	0f50706f          	j	795c <handler_irq_fast_gpio_4>
  6c:	18d0706f          	j	79f8 <handler_irq_fast_gpio_5>
  70:	2290706f          	j	7a98 <handler_irq_fast_gpio_6>
  74:	2c10706f          	j	7b34 <handler_irq_fast_gpio_7>
  78:	53c0706f          	j	75b4 <handler_irq_fast_dma_window>
  7c:	5d40706f          	j	7650 <handler_irq_fast_external_peripheral>

Disassembly of section .init:

00000180 <_start>:
 180:	00023197          	auipc	gp,0x23
 184:	2f818193          	addi	gp,gp,760 # 23478 <__global_pointer$>
 188:	0002b117          	auipc	sp,0x2b
 18c:	eb810113          	addi	sp,sp,-328 # 2b040 <_sp>
 190:	20000537          	lui	a0,0x20000
 194:	05f5e637          	lui	a2,0x5f5e
 198:	10060613          	addi	a2,a2,256 # 5f5e100 <_sp+0x5f330c0>
 19c:	00c52e23          	sw	a2,28(a0) # 2000001c <_sp+0x1ffd4fdc>

000001a0 <_init_bss>:
 1a0:	00023517          	auipc	a0,0x23
 1a4:	c4050513          	addi	a0,a0,-960 # 22de0 <__stdio_exit_handler>
 1a8:	00023617          	auipc	a2,0x23
 1ac:	e8c60613          	addi	a2,a2,-372 # 23034 <__BSS_END__>
 1b0:	40a60633          	sub	a2,a2,a0
 1b4:	00000593          	li	a1,0
 1b8:	4e8080ef          	jal	86a0 <memset>
 1bc:	00000517          	auipc	a0,0x0
 1c0:	e4450513          	addi	a0,a0,-444 # 0 <__vector_start>
 1c4:	00156513          	ori	a0,a0,1
 1c8:	30551073          	csrw	mtvec,a0
 1cc:	00008517          	auipc	a0,0x8
 1d0:	47c50513          	addi	a0,a0,1148 # 8648 <__libc_fini_array>
 1d4:	799070ef          	jal	816c <atexit>
 1d8:	3dc080ef          	jal	85b4 <__libc_init_array>
 1dc:	00012503          	lw	a0,0(sp)
 1e0:	00410593          	addi	a1,sp,4
 1e4:	00000613          	li	a2,0
 1e8:	1c00c0ef          	jal	c3a8 <main>
 1ec:	00c0006f          	j	1f8 <exit>

000001f0 <_init>:
 1f0:	401070ef          	jal	7df0 <init>

000001f4 <_fini>:
 1f4:	00008067          	ret

Disassembly of section .text:

000001f8 <exit>:
     1f8:	ff010113          	addi	sp,sp,-16
     1fc:	000087b7          	lui	a5,0x8
     200:	00812423          	sw	s0,8(sp)
     204:	00112623          	sw	ra,12(sp)
     208:	75078793          	addi	a5,a5,1872 # 8750 <__call_exitprocs>
     20c:	00050413          	mv	s0,a0
     210:	00078663          	beqz	a5,21c <exit+0x24>
     214:	00000593          	li	a1,0
     218:	538080ef          	jal	8750 <__call_exitprocs>
     21c:	9681a783          	lw	a5,-1688(gp) # 22de0 <__stdio_exit_handler>
     220:	00078463          	beqz	a5,228 <exit+0x30>
     224:	000780e7          	jalr	a5
     228:	00040513          	mv	a0,s0
     22c:	3d5070ef          	jal	7e00 <_exit>

00000230 <__no_irq_handler>:
     230:	0000006f          	j	230 <__no_irq_handler>

00000234 <fic_irq_dma_window>:
     234:	fe010113          	addi	sp,sp,-32
     238:	00112e23          	sw	ra,28(sp)
     23c:	00812c23          	sw	s0,24(sp)
     240:	02010413          	addi	s0,sp,32
     244:	fe042623          	sw	zero,-20(s0)
     248:	04c0006f          	j	294 <fic_irq_dma_window+0x60>
     24c:	98c18693          	addi	a3,gp,-1652 # 22e04 <dma_subsys_per>
     250:	fec42703          	lw	a4,-20(s0)
     254:	00070793          	mv	a5,a4
     258:	00179793          	slli	a5,a5,0x1
     25c:	00e787b3          	add	a5,a5,a4
     260:	00279793          	slli	a5,a5,0x2
     264:	00f687b3          	add	a5,a3,a5
     268:	0087a783          	lw	a5,8(a5)
     26c:	0687a703          	lw	a4,104(a5)
     270:	00100793          	li	a5,1
     274:	00f71a63          	bne	a4,a5,288 <fic_irq_dma_window+0x54>
     278:	fec42783          	lw	a5,-20(s0)
     27c:	0ff7f793          	zext.b	a5,a5
     280:	00078513          	mv	a0,a5
     284:	100000ef          	jal	384 <dma_intr_handler_window_done>
     288:	fec42783          	lw	a5,-20(s0)
     28c:	00178793          	addi	a5,a5,1
     290:	fef42623          	sw	a5,-20(s0)
     294:	fec42703          	lw	a4,-20(s0)
     298:	00300793          	li	a5,3
     29c:	fae7d8e3          	bge	a5,a4,24c <fic_irq_dma_window+0x18>
     2a0:	00000013          	nop
     2a4:	01c12083          	lw	ra,28(sp)
     2a8:	01812403          	lw	s0,24(sp)
     2ac:	02010113          	addi	sp,sp,32
     2b0:	00008067          	ret

000002b4 <fic_irq_dma_done>:
     2b4:	fe010113          	addi	sp,sp,-32
     2b8:	00112e23          	sw	ra,28(sp)
     2bc:	00812c23          	sw	s0,24(sp)
     2c0:	02010413          	addi	s0,sp,32
     2c4:	fe042623          	sw	zero,-20(s0)
     2c8:	0700006f          	j	338 <fic_irq_dma_done+0x84>
     2cc:	98c18693          	addi	a3,gp,-1652 # 22e04 <dma_subsys_per>
     2d0:	fec42703          	lw	a4,-20(s0)
     2d4:	00070793          	mv	a5,a4
     2d8:	00179793          	slli	a5,a5,0x1
     2dc:	00e787b3          	add	a5,a5,a4
     2e0:	00279793          	slli	a5,a5,0x2
     2e4:	00f687b3          	add	a5,a3,a5
     2e8:	0087a783          	lw	a5,8(a5)
     2ec:	0647a703          	lw	a4,100(a5)
     2f0:	00100793          	li	a5,1
     2f4:	02f71c63          	bne	a4,a5,32c <fic_irq_dma_done+0x78>
     2f8:	98c18693          	addi	a3,gp,-1652 # 22e04 <dma_subsys_per>
     2fc:	fec42703          	lw	a4,-20(s0)
     300:	00070793          	mv	a5,a4
     304:	00179793          	slli	a5,a5,0x1
     308:	00e787b3          	add	a5,a5,a4
     30c:	00279793          	slli	a5,a5,0x2
     310:	00f687b3          	add	a5,a3,a5
     314:	00100713          	li	a4,1
     318:	00e78223          	sb	a4,4(a5)
     31c:	fec42783          	lw	a5,-20(s0)
     320:	0ff7f793          	zext.b	a5,a5
     324:	00078513          	mv	a0,a5
     328:	030000ef          	jal	358 <dma_intr_handler_trans_done>
     32c:	fec42783          	lw	a5,-20(s0)
     330:	00178793          	addi	a5,a5,1
     334:	fef42623          	sw	a5,-20(s0)
     338:	fec42703          	lw	a4,-20(s0)
     33c:	00300793          	li	a5,3
     340:	f8e7d6e3          	bge	a5,a4,2cc <fic_irq_dma_done+0x18>
     344:	00000013          	nop
     348:	01c12083          	lw	ra,28(sp)
     34c:	01812403          	lw	s0,24(sp)
     350:	02010113          	addi	sp,sp,32
     354:	00008067          	ret

00000358 <dma_intr_handler_trans_done>:
     358:	fe010113          	addi	sp,sp,-32
     35c:	00112e23          	sw	ra,28(sp)
     360:	00812c23          	sw	s0,24(sp)
     364:	02010413          	addi	s0,sp,32
     368:	00050793          	mv	a5,a0
     36c:	fef407a3          	sb	a5,-17(s0)
     370:	00000013          	nop
     374:	01c12083          	lw	ra,28(sp)
     378:	01812403          	lw	s0,24(sp)
     37c:	02010113          	addi	sp,sp,32
     380:	00008067          	ret

00000384 <dma_intr_handler_window_done>:
     384:	fe010113          	addi	sp,sp,-32
     388:	00112e23          	sw	ra,28(sp)
     38c:	00812c23          	sw	s0,24(sp)
     390:	02010413          	addi	s0,sp,32
     394:	00050793          	mv	a5,a0
     398:	fef407a3          	sb	a5,-17(s0)
     39c:	00000013          	nop
     3a0:	01c12083          	lw	ra,28(sp)
     3a4:	01812403          	lw	s0,24(sp)
     3a8:	02010113          	addi	sp,sp,32
     3ac:	00008067          	ret

000003b0 <fic_irq_timer_1>:
     3b0:	ff010113          	addi	sp,sp,-16
     3b4:	00112623          	sw	ra,12(sp)
     3b8:	00812423          	sw	s0,8(sp)
     3bc:	01010413          	addi	s0,sp,16
     3c0:	00000013          	nop
     3c4:	00c12083          	lw	ra,12(sp)
     3c8:	00812403          	lw	s0,8(sp)
     3cc:	01010113          	addi	sp,sp,16
     3d0:	00008067          	ret

000003d4 <fic_irq_timer_2>:
     3d4:	ff010113          	addi	sp,sp,-16
     3d8:	00112623          	sw	ra,12(sp)
     3dc:	00812423          	sw	s0,8(sp)
     3e0:	01010413          	addi	s0,sp,16
     3e4:	00000013          	nop
     3e8:	00c12083          	lw	ra,12(sp)
     3ec:	00812403          	lw	s0,8(sp)
     3f0:	01010113          	addi	sp,sp,16
     3f4:	00008067          	ret

000003f8 <fic_irq_timer_3>:
     3f8:	ff010113          	addi	sp,sp,-16
     3fc:	00112623          	sw	ra,12(sp)
     400:	00812423          	sw	s0,8(sp)
     404:	01010413          	addi	s0,sp,16
     408:	00000013          	nop
     40c:	00c12083          	lw	ra,12(sp)
     410:	00812403          	lw	s0,8(sp)
     414:	01010113          	addi	sp,sp,16
     418:	00008067          	ret

0000041c <fic_irq_ext_peripheral>:
     41c:	ff010113          	addi	sp,sp,-16
     420:	00112623          	sw	ra,12(sp)
     424:	00812423          	sw	s0,8(sp)
     428:	01010413          	addi	s0,sp,16
     42c:	00000013          	nop
     430:	00c12083          	lw	ra,12(sp)
     434:	00812403          	lw	s0,8(sp)
     438:	01010113          	addi	sp,sp,16
     43c:	00008067          	ret

00000440 <fic_irq_gpio_0>:
     440:	ff010113          	addi	sp,sp,-16
     444:	00112623          	sw	ra,12(sp)
     448:	00812423          	sw	s0,8(sp)
     44c:	01010413          	addi	s0,sp,16
     450:	00000013          	nop
     454:	00c12083          	lw	ra,12(sp)
     458:	00812403          	lw	s0,8(sp)
     45c:	01010113          	addi	sp,sp,16
     460:	00008067          	ret

00000464 <fic_irq_gpio_1>:
     464:	ff010113          	addi	sp,sp,-16
     468:	00112623          	sw	ra,12(sp)
     46c:	00812423          	sw	s0,8(sp)
     470:	01010413          	addi	s0,sp,16
     474:	00000013          	nop
     478:	00c12083          	lw	ra,12(sp)
     47c:	00812403          	lw	s0,8(sp)
     480:	01010113          	addi	sp,sp,16
     484:	00008067          	ret

00000488 <fic_irq_gpio_2>:
     488:	ff010113          	addi	sp,sp,-16
     48c:	00112623          	sw	ra,12(sp)
     490:	00812423          	sw	s0,8(sp)
     494:	01010413          	addi	s0,sp,16
     498:	00000013          	nop
     49c:	00c12083          	lw	ra,12(sp)
     4a0:	00812403          	lw	s0,8(sp)
     4a4:	01010113          	addi	sp,sp,16
     4a8:	00008067          	ret

000004ac <fic_irq_gpio_3>:
     4ac:	ff010113          	addi	sp,sp,-16
     4b0:	00112623          	sw	ra,12(sp)
     4b4:	00812423          	sw	s0,8(sp)
     4b8:	01010413          	addi	s0,sp,16
     4bc:	00000013          	nop
     4c0:	00c12083          	lw	ra,12(sp)
     4c4:	00812403          	lw	s0,8(sp)
     4c8:	01010113          	addi	sp,sp,16
     4cc:	00008067          	ret

000004d0 <fic_irq_gpio_4>:
     4d0:	ff010113          	addi	sp,sp,-16
     4d4:	00112623          	sw	ra,12(sp)
     4d8:	00812423          	sw	s0,8(sp)
     4dc:	01010413          	addi	s0,sp,16
     4e0:	00000013          	nop
     4e4:	00c12083          	lw	ra,12(sp)
     4e8:	00812403          	lw	s0,8(sp)
     4ec:	01010113          	addi	sp,sp,16
     4f0:	00008067          	ret

000004f4 <fic_irq_gpio_5>:
     4f4:	ff010113          	addi	sp,sp,-16
     4f8:	00112623          	sw	ra,12(sp)
     4fc:	00812423          	sw	s0,8(sp)
     500:	01010413          	addi	s0,sp,16
     504:	00000013          	nop
     508:	00c12083          	lw	ra,12(sp)
     50c:	00812403          	lw	s0,8(sp)
     510:	01010113          	addi	sp,sp,16
     514:	00008067          	ret

00000518 <fic_irq_gpio_6>:
     518:	ff010113          	addi	sp,sp,-16
     51c:	00112623          	sw	ra,12(sp)
     520:	00812423          	sw	s0,8(sp)
     524:	01010413          	addi	s0,sp,16
     528:	00000013          	nop
     52c:	00c12083          	lw	ra,12(sp)
     530:	00812403          	lw	s0,8(sp)
     534:	01010113          	addi	sp,sp,16
     538:	00008067          	ret

0000053c <fic_irq_gpio_7>:
     53c:	ff010113          	addi	sp,sp,-16
     540:	00112623          	sw	ra,12(sp)
     544:	00812423          	sw	s0,8(sp)
     548:	01010413          	addi	s0,sp,16
     54c:	00000013          	nop
     550:	00c12083          	lw	ra,12(sp)
     554:	00812403          	lw	s0,8(sp)
     558:	01010113          	addi	sp,sp,16
     55c:	00008067          	ret

00000560 <spi_get_events>:
     560:	ff010113          	addi	sp,sp,-16
     564:	01452783          	lw	a5,20(a0)
     568:	00f12623          	sw	a5,12(sp)
     56c:	00c12683          	lw	a3,12(sp)
     570:	0196d693          	srli	a3,a3,0x19
     574:	0016f693          	andi	a3,a3,1
     578:	0005a783          	lw	a5,0(a1)
     57c:	00c12703          	lw	a4,12(sp)
     580:	01b75713          	srli	a4,a4,0x1b
     584:	ffc7f793          	andi	a5,a5,-4
     588:	00d7e7b3          	or	a5,a5,a3
     58c:	00c12683          	lw	a3,12(sp)
     590:	0126d693          	srli	a3,a3,0x12
     594:	00277713          	andi	a4,a4,2
     598:	00f76733          	or	a4,a4,a5
     59c:	00c12783          	lw	a5,12(sp)
     5a0:	0177d793          	srli	a5,a5,0x17
     5a4:	0046f693          	andi	a3,a3,4
     5a8:	ff377713          	andi	a4,a4,-13
     5ac:	00d76733          	or	a4,a4,a3
     5b0:	00c12683          	lw	a3,12(sp)
     5b4:	01f6d693          	srli	a3,a3,0x1f
     5b8:	0087f793          	andi	a5,a5,8
     5bc:	00e7e7b3          	or	a5,a5,a4
     5c0:	00c12703          	lw	a4,12(sp)
     5c4:	01975713          	srli	a4,a4,0x19
     5c8:	00469693          	slli	a3,a3,0x4
     5cc:	fcf7f793          	andi	a5,a5,-49
     5d0:	00d7e7b3          	or	a5,a5,a3
     5d4:	02077713          	andi	a4,a4,32
     5d8:	02074713          	xori	a4,a4,32
     5dc:	00f767b3          	or	a5,a4,a5
     5e0:	00f5a023          	sw	a5,0(a1)
     5e4:	00000513          	li	a0,0
     5e8:	01010113          	addi	sp,sp,16
     5ec:	00008067          	ret

000005f0 <_write>:
     5f0:	00100793          	li	a5,1
     5f4:	08f51063          	bne	a0,a5,674 <_write+0x84>
     5f8:	200007b7          	lui	a5,0x20000
     5fc:	01c7a783          	lw	a5,28(a5) # 2000001c <_sp+0x1ffd4fdc>
     600:	08078263          	beqz	a5,684 <_write+0x94>
     604:	300807b7          	lui	a5,0x30080
     608:	0007a623          	sw	zero,12(a5) # 3008000c <_sp+0x30054fcc>
     60c:	00300713          	li	a4,3
     610:	00e7ae23          	sw	a4,28(a5)
     614:	0207a223          	sw	zero,36(a5)
     618:	0207a623          	sw	zero,44(a5)
     61c:	0007a223          	sw	zero,4(a5)
     620:	fff00713          	li	a4,-1
     624:	00e7a023          	sw	a4,0(a5)
     628:	0a7c0737          	lui	a4,0xa7c0
     62c:	00370713          	addi	a4,a4,3 # a7c0003 <_sp+0xa794fc3>
     630:	00e7a623          	sw	a4,12(a5)
     634:	0007a223          	sw	zero,4(a5)
     638:	02060a63          	beqz	a2,66c <_write+0x7c>
     63c:	00c58833          	add	a6,a1,a2
     640:	00078713          	mv	a4,a5
     644:	0005c683          	lbu	a3,0(a1)
     648:	01072783          	lw	a5,16(a4)
     64c:	0017f793          	andi	a5,a5,1
     650:	fe079ce3          	bnez	a5,648 <_write+0x58>
     654:	00d72c23          	sw	a3,24(a4)
     658:	01072783          	lw	a5,16(a4)
     65c:	0087f793          	andi	a5,a5,8
     660:	fe078ce3          	beqz	a5,658 <_write+0x68>
     664:	00158593          	addi	a1,a1,1
     668:	fd059ee3          	bne	a1,a6,644 <_write+0x54>
     66c:	00060513          	mv	a0,a2
     670:	00008067          	ret
     674:	05800713          	li	a4,88
     678:	96e1a623          	sw	a4,-1684(gp) # 22de4 <errno>
     67c:	fff00613          	li	a2,-1
     680:	fedff06f          	j	66c <_write+0x7c>
     684:	05800713          	li	a4,88
     688:	96e1a623          	sw	a4,-1684(gp) # 22de4 <errno>
     68c:	ff1ff06f          	j	67c <_write+0x8c>

00000690 <spi_empty_rx>:
     690:	02452783          	lw	a5,36(a0)
     694:	00078863          	beqz	a5,6a4 <spi_empty_rx+0x14>
     698:	03452783          	lw	a5,52(a0)
     69c:	02852703          	lw	a4,40(a0)
     6a0:	02e7e863          	bltu	a5,a4,6d0 <spi_empty_rx+0x40>
     6a4:	00000513          	li	a0,0
     6a8:	00008067          	ret
     6ac:	0286a703          	lw	a4,40(a3)
     6b0:	02452683          	lw	a3,36(a0)
     6b4:	20d7c7b3          	sh2add	a5,a5,a3
     6b8:	00e7a023          	sw	a4,0(a5)
     6bc:	03452783          	lw	a5,52(a0)
     6c0:	00178793          	addi	a5,a5,1
     6c4:	02f52a23          	sw	a5,52(a0)
     6c8:	02852703          	lw	a4,40(a0)
     6cc:	00e7fe63          	bgeu	a5,a4,6e8 <spi_empty_rx+0x58>
     6d0:	00052683          	lw	a3,0(a0)
     6d4:	00068a63          	beqz	a3,6e8 <spi_empty_rx+0x58>
     6d8:	0146a703          	lw	a4,20(a3)
     6dc:	00875713          	srli	a4,a4,0x8
     6e0:	0ff77713          	zext.b	a4,a4
     6e4:	fc0714e3          	bnez	a4,6ac <spi_empty_rx+0x1c>
     6e8:	00100513          	li	a0,1
     6ec:	00008067          	ret

000006f0 <spi_event_handler>:
     6f0:	ff010113          	addi	sp,sp,-16
     6f4:	00112623          	sw	ra,12(sp)
     6f8:	00912423          	sw	s1,8(sp)
     6fc:	01212223          	sw	s2,4(sp)
     700:	00050493          	mv	s1,a0
     704:	00058913          	mv	s2,a1
     708:	0105f793          	andi	a5,a1,16
     70c:	02078063          	beqz	a5,72c <spi_event_handler+0x3c>
     710:	01452703          	lw	a4,20(a0)
     714:	00070863          	beqz	a4,724 <spi_event_handler+0x34>
     718:	02c52683          	lw	a3,44(a0)
     71c:	01854783          	lbu	a5,24(a0)
     720:	02f6e863          	bltu	a3,a5,750 <spi_event_handler+0x60>
     724:	02097793          	andi	a5,s2,32
     728:	0a079e63          	bnez	a5,7e4 <spi_event_handler+0xf4>
     72c:	00897793          	andi	a5,s2,8
     730:	14079063          	bnez	a5,870 <spi_event_handler+0x180>
     734:	00497913          	andi	s2,s2,4
     738:	1a091663          	bnez	s2,8e4 <spi_event_handler+0x1f4>
     73c:	00c12083          	lw	ra,12(sp)
     740:	00812483          	lw	s1,8(sp)
     744:	00412903          	lw	s2,4(sp)
     748:	01010113          	addi	sp,sp,16
     74c:	00008067          	ret
     750:	20e6c733          	sh2add	a4,a3,a4
     754:	00072703          	lw	a4,0(a4)
     758:	00871613          	slli	a2,a4,0x8
     75c:	00865593          	srli	a1,a2,0x8
     760:	01875713          	srli	a4,a4,0x18
     764:	00f77613          	andi	a2,a4,15
     768:	00168693          	addi	a3,a3,1
     76c:	02d52623          	sw	a3,44(a0)
     770:	00052503          	lw	a0,0(a0)
     774:	fa050ce3          	beqz	a0,72c <spi_event_handler+0x3c>
     778:	00265713          	srli	a4,a2,0x2
     77c:	01971713          	slli	a4,a4,0x19
     780:	00367613          	andi	a2,a2,3
     784:	01b61613          	slli	a2,a2,0x1b
     788:	00c76733          	or	a4,a4,a2
     78c:	40d787b3          	sub	a5,a5,a3
     790:	00f037b3          	snez	a5,a5
     794:	01879793          	slli	a5,a5,0x18
     798:	00f767b3          	or	a5,a4,a5
     79c:	fff58613          	addi	a2,a1,-1
     7a0:	00861613          	slli	a2,a2,0x8
     7a4:	00865613          	srli	a2,a2,0x8
     7a8:	00c7e633          	or	a2,a5,a2
     7ac:	0197d793          	srli	a5,a5,0x19
     7b0:	0037f793          	andi	a5,a5,3
     7b4:	00200713          	li	a4,2
     7b8:	14f76c63          	bltu	a4,a5,910 <spi_event_handler+0x220>
     7bc:	01452703          	lw	a4,20(a0)
     7c0:	f60756e3          	bgez	a4,72c <spi_event_handler+0x3c>
     7c4:	01b65713          	srli	a4,a2,0x1b
     7c8:	ffd70713          	addi	a4,a4,-3
     7cc:	00173713          	seqz	a4,a4
     7d0:	00f037b3          	snez	a5,a5
     7d4:	00f777b3          	and	a5,a4,a5
     7d8:	f4079ae3          	bnez	a5,72c <spi_event_handler+0x3c>
     7dc:	02c52223          	sw	a2,36(a0)
     7e0:	f4dff06f          	j	72c <spi_event_handler+0x3c>
     7e4:	0004a783          	lw	a5,0(s1)
     7e8:	02078263          	beqz	a5,80c <spi_event_handler+0x11c>
     7ec:	0387a703          	lw	a4,56(a5)
     7f0:	fc077713          	andi	a4,a4,-64
     7f4:	02e7ac23          	sw	a4,56(a5)
     7f8:	0004a783          	lw	a5,0(s1)
     7fc:	00078863          	beqz	a5,80c <spi_event_handler+0x11c>
     800:	0047a703          	lw	a4,4(a5)
     804:	ffd77713          	andi	a4,a4,-3
     808:	00e7a223          	sw	a4,4(a5)
     80c:	00048513          	mv	a0,s1
     810:	e81ff0ef          	jal	690 <spi_empty_rx>
     814:	00400793          	li	a5,4
     818:	00f4a823          	sw	a5,16(s1)
     81c:	0384a783          	lw	a5,56(s1)
     820:	00078c63          	beqz	a5,838 <spi_event_handler+0x148>
     824:	0344a683          	lw	a3,52(s1)
     828:	0244a603          	lw	a2,36(s1)
     82c:	0304a583          	lw	a1,48(s1)
     830:	01c4a503          	lw	a0,28(s1)
     834:	000780e7          	jalr	a5
     838:	0204a623          	sw	zero,44(s1)
     83c:	0204a823          	sw	zero,48(s1)
     840:	0204aa23          	sw	zero,52(s1)
     844:	0004aa23          	sw	zero,20(s1)
     848:	0004ac23          	sw	zero,24(s1)
     84c:	0004ae23          	sw	zero,28(s1)
     850:	0204a023          	sw	zero,32(s1)
     854:	0204a223          	sw	zero,36(s1)
     858:	0204a423          	sw	zero,40(s1)
     85c:	0204ac23          	sw	zero,56(s1)
     860:	0204ae23          	sw	zero,60(s1)
     864:	0404a023          	sw	zero,64(s1)
     868:	0404a223          	sw	zero,68(s1)
     86c:	ed1ff06f          	j	73c <spi_event_handler+0x4c>
     870:	01c4a783          	lw	a5,28(s1)
     874:	ec0780e3          	beqz	a5,734 <spi_event_handler+0x44>
     878:	0304a783          	lw	a5,48(s1)
     87c:	0204a703          	lw	a4,32(s1)
     880:	eae7fae3          	bgeu	a5,a4,734 <spi_event_handler+0x44>
     884:	04700613          	li	a2,71
     888:	0280006f          	j	8b0 <spi_event_handler+0x1c0>
     88c:	01c4a683          	lw	a3,28(s1)
     890:	20d7c7b3          	sh2add	a5,a5,a3
     894:	0007a783          	lw	a5,0(a5)
     898:	02f72623          	sw	a5,44(a4)
     89c:	0304a783          	lw	a5,48(s1)
     8a0:	00178793          	addi	a5,a5,1
     8a4:	02f4a823          	sw	a5,48(s1)
     8a8:	0204a703          	lw	a4,32(s1)
     8ac:	00e7fc63          	bgeu	a5,a4,8c4 <spi_event_handler+0x1d4>
     8b0:	0004a703          	lw	a4,0(s1)
     8b4:	00070863          	beqz	a4,8c4 <spi_event_handler+0x1d4>
     8b8:	01472683          	lw	a3,20(a4)
     8bc:	0ff6f693          	zext.b	a3,a3
     8c0:	fcd676e3          	bgeu	a2,a3,88c <spi_event_handler+0x19c>
     8c4:	03c4a783          	lw	a5,60(s1)
     8c8:	e60786e3          	beqz	a5,734 <spi_event_handler+0x44>
     8cc:	0344a683          	lw	a3,52(s1)
     8d0:	0244a603          	lw	a2,36(s1)
     8d4:	0304a583          	lw	a1,48(s1)
     8d8:	01c4a503          	lw	a0,28(s1)
     8dc:	000780e7          	jalr	a5
     8e0:	e55ff06f          	j	734 <spi_event_handler+0x44>
     8e4:	00048513          	mv	a0,s1
     8e8:	da9ff0ef          	jal	690 <spi_empty_rx>
     8ec:	e40508e3          	beqz	a0,73c <spi_event_handler+0x4c>
     8f0:	0404a783          	lw	a5,64(s1)
     8f4:	e40784e3          	beqz	a5,73c <spi_event_handler+0x4c>
     8f8:	0344a683          	lw	a3,52(s1)
     8fc:	0244a603          	lw	a2,36(s1)
     900:	0304a583          	lw	a1,48(s1)
     904:	01c4a503          	lw	a0,28(s1)
     908:	000780e7          	jalr	a5
     90c:	e31ff06f          	j	73c <spi_event_handler+0x4c>
     910:	01452783          	lw	a5,20(a0)
     914:	e19ff06f          	j	72c <spi_event_handler+0x3c>

00000918 <spi_error_handler>:
     918:	fe010113          	addi	sp,sp,-32
     91c:	00112e23          	sw	ra,28(sp)
     920:	00912c23          	sw	s1,24(sp)
     924:	00050493          	mv	s1,a0
     928:	00052783          	lw	a5,0(a0)
     92c:	02078263          	beqz	a5,950 <spi_error_handler+0x38>
     930:	0387a703          	lw	a4,56(a5)
     934:	fc077713          	andi	a4,a4,-64
     938:	02e7ac23          	sw	a4,56(a5)
     93c:	00052783          	lw	a5,0(a0)
     940:	00078863          	beqz	a5,950 <spi_error_handler+0x38>
     944:	0047a703          	lw	a4,4(a5)
     948:	ffd77713          	andi	a4,a4,-3
     94c:	00e7a223          	sw	a4,4(a5)
     950:	0444a783          	lw	a5,68(s1)
     954:	00078c63          	beqz	a5,96c <spi_error_handler+0x54>
     958:	0344a683          	lw	a3,52(s1)
     95c:	0244a603          	lw	a2,36(s1)
     960:	0304a583          	lw	a1,48(s1)
     964:	01c4a503          	lw	a0,28(s1)
     968:	000780e7          	jalr	a5
     96c:	0204a623          	sw	zero,44(s1)
     970:	0204a823          	sw	zero,48(s1)
     974:	0204aa23          	sw	zero,52(s1)
     978:	0004aa23          	sw	zero,20(s1)
     97c:	0004ac23          	sw	zero,24(s1)
     980:	0004ae23          	sw	zero,28(s1)
     984:	0204a023          	sw	zero,32(s1)
     988:	0204a223          	sw	zero,36(s1)
     98c:	0204a423          	sw	zero,40(s1)
     990:	0204ac23          	sw	zero,56(s1)
     994:	0204ae23          	sw	zero,60(s1)
     998:	0404a023          	sw	zero,64(s1)
     99c:	0404a223          	sw	zero,68(s1)
     9a0:	0004a683          	lw	a3,0(s1)
     9a4:	10068463          	beqz	a3,aac <spi_error_handler+0x194>
     9a8:	0106a783          	lw	a5,16(a3)
     9ac:	40000737          	lui	a4,0x40000
     9b0:	00e7e7b3          	or	a5,a5,a4
     9b4:	00f6a823          	sw	a5,16(a3)
     9b8:	0146a783          	lw	a5,20(a3)
     9bc:	00f12623          	sw	a5,12(sp)
     9c0:	00c12783          	lw	a5,12(sp)
     9c4:	00179713          	slli	a4,a5,0x1
     9c8:	fe074ce3          	bltz	a4,9c0 <spi_error_handler+0xa8>
     9cc:	00c14783          	lbu	a5,12(sp)
     9d0:	fe0798e3          	bnez	a5,9c0 <spi_error_handler+0xa8>
     9d4:	00d14783          	lbu	a5,13(sp)
     9d8:	fe0794e3          	bnez	a5,9c0 <spi_error_handler+0xa8>
     9dc:	0106a783          	lw	a5,16(a3)
     9e0:	c0000737          	lui	a4,0xc0000
     9e4:	fff70713          	addi	a4,a4,-1 # bfffffff <_sp+0xbffd4fbf>
     9e8:	00e7f7b3          	and	a5,a5,a4
     9ec:	00f6a823          	sw	a5,16(a3)
     9f0:	0004a783          	lw	a5,0(s1)
     9f4:	0a078c63          	beqz	a5,aac <spi_error_handler+0x194>
     9f8:	0107a703          	lw	a4,16(a5)
     9fc:	800006b7          	lui	a3,0x80000
     a00:	00d76733          	or	a4,a4,a3
     a04:	00e7a823          	sw	a4,16(a5)
     a08:	0004a783          	lw	a5,0(s1)
     a0c:	0a078063          	beqz	a5,aac <spi_error_handler+0x194>
     a10:	0107a703          	lw	a4,16(a5)
     a14:	200006b7          	lui	a3,0x20000
     a18:	00d76733          	or	a4,a4,a3
     a1c:	00e7a823          	sw	a4,16(a5)
     a20:	0004a783          	lw	a5,0(s1)
     a24:	08078463          	beqz	a5,aac <spi_error_handler+0x194>
     a28:	0307a703          	lw	a4,48(a5)
     a2c:	01f76713          	ori	a4,a4,31
     a30:	02e7a823          	sw	a4,48(a5)
     a34:	0004a783          	lw	a5,0(s1)
     a38:	06078a63          	beqz	a5,aac <spi_error_handler+0x194>
     a3c:	0047a703          	lw	a4,4(a5)
     a40:	00176713          	ori	a4,a4,1
     a44:	00e7a223          	sw	a4,4(a5)
     a48:	0004a703          	lw	a4,0(s1)
     a4c:	0044c783          	lbu	a5,4(s1)
     a50:	00173693          	seqz	a3,a4
     a54:	0497b613          	sltiu	a2,a5,73
     a58:	00163613          	seqz	a2,a2
     a5c:	00c6e6b3          	or	a3,a3,a2
     a60:	02069063          	bnez	a3,a80 <spi_error_handler+0x168>
     a64:	01072683          	lw	a3,16(a4)
     a68:	ffff0637          	lui	a2,0xffff0
     a6c:	0ff60613          	addi	a2,a2,255 # ffff00ff <_sp+0xfffc50bf>
     a70:	00c6f6b3          	and	a3,a3,a2
     a74:	00879793          	slli	a5,a5,0x8
     a78:	00d7e7b3          	or	a5,a5,a3
     a7c:	00f72823          	sw	a5,16(a4)
     a80:	0004a683          	lw	a3,0(s1)
     a84:	0054c703          	lbu	a4,5(s1)
     a88:	04173793          	sltiu	a5,a4,65
     a8c:	0017b793          	seqz	a5,a5
     a90:	0016b613          	seqz	a2,a3
     a94:	00c7e7b3          	or	a5,a5,a2
     a98:	00079a63          	bnez	a5,aac <spi_error_handler+0x194>
     a9c:	0106a783          	lw	a5,16(a3) # 20000010 <_sp+0x1ffd4fd0>
     aa0:	f007f793          	andi	a5,a5,-256
     aa4:	00f76733          	or	a4,a4,a5
     aa8:	00e6a823          	sw	a4,16(a3)
     aac:	0004a423          	sw	zero,8(s1)
     ab0:	00800793          	li	a5,8
     ab4:	00f4a823          	sw	a5,16(s1)
     ab8:	01c12083          	lw	ra,28(sp)
     abc:	01812483          	lw	s1,24(sp)
     ac0:	02010113          	addi	sp,sp,32
     ac4:	00008067          	ret

00000ac8 <_writestr>:
     ac8:	ff010113          	addi	sp,sp,-16
     acc:	00112623          	sw	ra,12(sp)
     ad0:	00912423          	sw	s1,8(sp)
     ad4:	00050493          	mv	s1,a0
     ad8:	704080ef          	jal	91dc <strlen>
     adc:	00150613          	addi	a2,a0,1
     ae0:	00048593          	mv	a1,s1
     ae4:	00100513          	li	a0,1
     ae8:	b09ff0ef          	jal	5f0 <_write>
     aec:	00c12083          	lw	ra,12(sp)
     af0:	00812483          	lw	s1,8(sp)
     af4:	01010113          	addi	sp,sp,16
     af8:	00008067          	ret

00000afc <print_exc_msg>:
     afc:	fe010113          	addi	sp,sp,-32
     b00:	00112e23          	sw	ra,28(sp)
     b04:	00912c23          	sw	s1,24(sp)
     b08:	fc1ff0ef          	jal	ac8 <_writestr>
     b0c:	343024f3          	csrr	s1,mtval
     b10:	00020537          	lui	a0,0x20
     b14:	39450513          	addi	a0,a0,916 # 20394 <__clz_tab+0x164>
     b18:	fb1ff0ef          	jal	ac8 <_writestr>
     b1c:	0184d793          	srli	a5,s1,0x18
     b20:	00f10423          	sb	a5,8(sp)
     b24:	0104d793          	srli	a5,s1,0x10
     b28:	00f104a3          	sb	a5,9(sp)
     b2c:	0084d793          	srli	a5,s1,0x8
     b30:	00f10523          	sb	a5,10(sp)
     b34:	009105a3          	sb	s1,11(sp)
     b38:	00a00793          	li	a5,10
     b3c:	00f10623          	sb	a5,12(sp)
     b40:	000106a3          	sb	zero,13(sp)
     b44:	00810513          	addi	a0,sp,8
     b48:	f81ff0ef          	jal	ac8 <_writestr>
     b4c:	0000006f          	j	b4c <print_exc_msg+0x50>

00000b50 <inferenceTPG>:
     b50:	f5010113          	addi	sp,sp,-176
     b54:	0a112623          	sw	ra,172(sp)
     b58:	0a912423          	sw	s1,168(sp)
     b5c:	0b212223          	sw	s2,164(sp)
     b60:	0b312023          	sw	s3,160(sp)
     b64:	09412e23          	sw	s4,156(sp)
     b68:	09512c23          	sw	s5,152(sp)
     b6c:	09612a23          	sw	s6,148(sp)
     b70:	09712823          	sw	s7,144(sp)
     b74:	09812623          	sw	s8,140(sp)
     b78:	09912423          	sw	s9,136(sp)
     b7c:	09a12223          	sw	s10,132(sp)
     b80:	00050c93          	mv	s9,a0
     b84:	00058993          	mv	s3,a1
     b88:	00060a13          	mv	s4,a2
     b8c:	00068493          	mv	s1,a3
     b90:	00070913          	mv	s2,a4
     b94:	000067b7          	lui	a5,0x6
     b98:	4cc78793          	addi	a5,a5,1228 # 64cc <__heap_size+0x24cc>
     b9c:	00078067          	jr	a5
     ba0:	0009a683          	lw	a3,0(s3)
     ba4:	0006d463          	bgez	a3,bac <inferenceTPG+0x5c>
     ba8:	7300606f          	j	72d8 <__heap_size+0x32d8>
     bac:	00069463          	bnez	a3,bb4 <inferenceTPG+0x64>
     bb0:	74c0606f          	j	72fc <__heap_size+0x32fc>
     bb4:	000207b7          	lui	a5,0x20
     bb8:	2ad7dc63          	bge	a5,a3,e70 <inferenceTPG+0x320>
     bbc:	00000a93          	li	s5,0
     bc0:	4016d693          	srai	a3,a3,0x1
     bc4:	001a8a93          	addi	s5,s5,1
     bc8:	fed7cce3          	blt	a5,a3,bc0 <inferenceTPG+0x70>
     bcc:	ffff0b37          	lui	s6,0xffff0
     bd0:	01668b33          	add	s6,a3,s6
     bd4:	41fb5793          	srai	a5,s6,0x1f
     bd8:	010b5593          	srli	a1,s6,0x10
     bdc:	01079793          	slli	a5,a5,0x10
     be0:	00010737          	lui	a4,0x10
     be4:	00e68633          	add	a2,a3,a4
     be8:	41f65693          	srai	a3,a2,0x1f
     bec:	010b1513          	slli	a0,s6,0x10
     bf0:	00f585b3          	add	a1,a1,a5
     bf4:	1e00b0ef          	jal	bdd4 <__divdi3>
     bf8:	41f55613          	srai	a2,a0,0x1f
     bfc:	02a607b3          	mul	a5,a2,a0
     c00:	02a506b3          	mul	a3,a0,a0
     c04:	02a53733          	mulhu	a4,a0,a0
     c08:	20e7a7b3          	sh1add	a5,a5,a4
     c0c:	01079793          	slli	a5,a5,0x10
     c10:	0106d693          	srli	a3,a3,0x10
     c14:	00d786b3          	add	a3,a5,a3
     c18:	41f6d313          	srai	t1,a3,0x1f
     c1c:	02d307b3          	mul	a5,t1,a3
     c20:	02d68733          	mul	a4,a3,a3
     c24:	02d6b5b3          	mulhu	a1,a3,a3
     c28:	20b7a7b3          	sh1add	a5,a5,a1
     c2c:	01079793          	slli	a5,a5,0x10
     c30:	01075713          	srli	a4,a4,0x10
     c34:	00e78733          	add	a4,a5,a4
     c38:	41f75593          	srai	a1,a4,0x1f
     c3c:	010a9793          	slli	a5,s5,0x10
     c40:	41f7d893          	srai	a7,a5,0x1f
     c44:	0000be37          	lui	t3,0xb
     c48:	172e0e13          	addi	t3,t3,370 # b172 <__muldf3+0x176>
     c4c:	03c888b3          	mul	a7,a7,t3
     c50:	03c78833          	mul	a6,a5,t3
     c54:	03c7b7b3          	mulhu	a5,a5,t3
     c58:	00f887b3          	add	a5,a7,a5
     c5c:	01079793          	slli	a5,a5,0x10
     c60:	01085813          	srli	a6,a6,0x10
     c64:	01078833          	add	a6,a5,a6
     c68:	010b0833          	add	a6,s6,a6
     c6c:	000028b7          	lui	a7,0x2
     c70:	5e288893          	addi	a7,a7,1506 # 25e2 <inferenceTPG+0x1a92>
     c74:	03158e33          	mul	t3,a1,a7
     c78:	031707b3          	mul	a5,a4,a7
     c7c:	031738b3          	mulhu	a7,a4,a7
     c80:	011e08b3          	add	a7,t3,a7
     c84:	01089893          	slli	a7,a7,0x10
     c88:	0107d793          	srli	a5,a5,0x10
     c8c:	00f887b3          	add	a5,a7,a5
     c90:	000038b7          	lui	a7,0x3
     c94:	e8d88893          	addi	a7,a7,-371 # 2e8d <inferenceTPG+0x233d>
     c98:	011787b3          	add	a5,a5,a7
     c9c:	41f7de13          	srai	t3,a5,0x1f
     ca0:	02ee0e33          	mul	t3,t3,a4
     ca4:	02f588b3          	mul	a7,a1,a5
     ca8:	011e0e33          	add	t3,t3,a7
     cac:	02e788b3          	mul	a7,a5,a4
     cb0:	02e7b7b3          	mulhu	a5,a5,a4
     cb4:	00fe07b3          	add	a5,t3,a5
     cb8:	01079793          	slli	a5,a5,0x10
     cbc:	0108d893          	srli	a7,a7,0x10
     cc0:	011788b3          	add	a7,a5,a7
     cc4:	000057b7          	lui	a5,0x5
     cc8:	92578793          	addi	a5,a5,-1755 # 4925 <__heap_size+0x925>
     ccc:	00f888b3          	add	a7,a7,a5
     cd0:	41f8de13          	srai	t3,a7,0x1f
     cd4:	02ee0e33          	mul	t3,t3,a4
     cd8:	031587b3          	mul	a5,a1,a7
     cdc:	00fe0e33          	add	t3,t3,a5
     ce0:	02e887b3          	mul	a5,a7,a4
     ce4:	02e8b8b3          	mulhu	a7,a7,a4
     ce8:	011e08b3          	add	a7,t3,a7
     cec:	01089893          	slli	a7,a7,0x10
     cf0:	0107d793          	srli	a5,a5,0x10
     cf4:	00f887b3          	add	a5,a7,a5
     cf8:	0000b8b7          	lui	a7,0xb
     cfc:	aab88893          	addi	a7,a7,-1365 # aaab <__divdf3+0x27f>
     d00:	011787b3          	add	a5,a5,a7
     d04:	41f7d893          	srai	a7,a5,0x1f
     d08:	02d888b3          	mul	a7,a7,a3
     d0c:	02f30333          	mul	t1,t1,a5
     d10:	00688333          	add	t1,a7,t1
     d14:	02d788b3          	mul	a7,a5,a3
     d18:	02d7b7b3          	mulhu	a5,a5,a3
     d1c:	00f307b3          	add	a5,t1,a5
     d20:	01079793          	slli	a5,a5,0x10
     d24:	0108d893          	srli	a7,a7,0x10
     d28:	011788b3          	add	a7,a5,a7
     d2c:	000027b7          	lui	a5,0x2
     d30:	73478793          	addi	a5,a5,1844 # 2734 <inferenceTPG+0x1be4>
     d34:	02f58333          	mul	t1,a1,a5
     d38:	02f706b3          	mul	a3,a4,a5
     d3c:	02f737b3          	mulhu	a5,a4,a5
     d40:	00f307b3          	add	a5,t1,a5
     d44:	01079793          	slli	a5,a5,0x10
     d48:	0106d693          	srli	a3,a3,0x10
     d4c:	00d786b3          	add	a3,a5,a3
     d50:	000047b7          	lui	a5,0x4
     d54:	8e478793          	addi	a5,a5,-1820 # 38e4 <inferenceTPG+0x2d94>
     d58:	00f686b3          	add	a3,a3,a5
     d5c:	41f6d313          	srai	t1,a3,0x1f
     d60:	02e30333          	mul	t1,t1,a4
     d64:	02d587b3          	mul	a5,a1,a3
     d68:	00f30333          	add	t1,t1,a5
     d6c:	02e687b3          	mul	a5,a3,a4
     d70:	02e6b6b3          	mulhu	a3,a3,a4
     d74:	00d306b3          	add	a3,t1,a3
     d78:	01069693          	slli	a3,a3,0x10
     d7c:	0107d793          	srli	a5,a5,0x10
     d80:	00f687b3          	add	a5,a3,a5
     d84:	000066b7          	lui	a3,0x6
     d88:	66668693          	addi	a3,a3,1638 # 6666 <__heap_size+0x2666>
     d8c:	00d787b3          	add	a5,a5,a3
     d90:	41f7d693          	srai	a3,a5,0x1f
     d94:	02e686b3          	mul	a3,a3,a4
     d98:	02f585b3          	mul	a1,a1,a5
     d9c:	00b686b3          	add	a3,a3,a1
     da0:	02e785b3          	mul	a1,a5,a4
     da4:	02e7b7b3          	mulhu	a5,a5,a4
     da8:	00f687b3          	add	a5,a3,a5
     dac:	01079793          	slli	a5,a5,0x10
     db0:	0105d713          	srli	a4,a1,0x10
     db4:	00e78733          	add	a4,a5,a4
     db8:	00e888b3          	add	a7,a7,a4
     dbc:	411b0b33          	sub	s6,s6,a7
     dc0:	41fb5793          	srai	a5,s6,0x1f
     dc4:	02a787b3          	mul	a5,a5,a0
     dc8:	03660633          	mul	a2,a2,s6
     dcc:	00c787b3          	add	a5,a5,a2
     dd0:	02ab0733          	mul	a4,s6,a0
     dd4:	02ab3b33          	mulhu	s6,s6,a0
     dd8:	016787b3          	add	a5,a5,s6
     ddc:	01079793          	slli	a5,a5,0x10
     de0:	01075713          	srli	a4,a4,0x10
     de4:	00e78733          	add	a4,a5,a4
     de8:	40e80b33          	sub	s6,a6,a4
     dec:	0089ab83          	lw	s7,8(s3)
     df0:	0044aa83          	lw	s5,4(s1)
     df4:	000a8793          	mv	a5,s5
     df8:	020a8663          	beqz	s5,e24 <inferenceTPG+0x2d4>
     dfc:	41fbd793          	srai	a5,s7,0x1f
     e00:	010bd593          	srli	a1,s7,0x10
     e04:	01079793          	slli	a5,a5,0x10
     e08:	000a8613          	mv	a2,s5
     e0c:	41fad693          	srai	a3,s5,0x1f
     e10:	010b9513          	slli	a0,s7,0x10
     e14:	00f585b3          	add	a1,a1,a5
     e18:	7bd0a0ef          	jal	bdd4 <__divdi3>
     e1c:	000a8793          	mv	a5,s5
     e20:	00050a93          	mv	s5,a0
     e24:	417787b3          	sub	a5,a5,s7
     e28:	0084a683          	lw	a3,8(s1)
     e2c:	00100713          	li	a4,1
     e30:	016ad663          	bge	s5,s6,e3c <inferenceTPG+0x2ec>
     e34:	000b0a93          	mv	s5,s6
     e38:	00000713          	li	a4,0
     e3c:	0357de63          	bge	a5,s5,e78 <inferenceTPG+0x328>
     e40:	000a8793          	mv	a5,s5
     e44:	00f6c463          	blt	a3,a5,e4c <inferenceTPG+0x2fc>
     e48:	00300713          	li	a4,3
     e4c:	000206b7          	lui	a3,0x20
     e50:	000207b7          	lui	a5,0x20
     e54:	1b078793          	addi	a5,a5,432 # 201b0 <next.22>
     e58:	20f74733          	sh2add	a4,a4,a5
     e5c:	00072783          	lw	a5,0(a4) # 10000 <i2c.c.57379e11+0x762>
     e60:	14468713          	addi	a4,a3,324 # 20144 <jump_table.23>
     e64:	20e7c7b3          	sh2add	a5,a5,a4
     e68:	0007a783          	lw	a5,0(a5)
     e6c:	d31ff06f          	j	b9c <inferenceTPG+0x4c>
     e70:	00000a93          	li	s5,0
     e74:	d59ff06f          	j	bcc <inferenceTPG+0x7c>
     e78:	00200713          	li	a4,2
     e7c:	fc9ff06f          	j	e44 <inferenceTPG+0x2f4>
     e80:	0009a683          	lw	a3,0(s3)
     e84:	0006d463          	bgez	a3,e8c <inferenceTPG+0x33c>
     e88:	47c0606f          	j	7304 <__heap_size+0x3304>
     e8c:	00069463          	bnez	a3,e94 <inferenceTPG+0x344>
     e90:	49c0606f          	j	732c <__heap_size+0x332c>
     e94:	000207b7          	lui	a5,0x20
     e98:	2ad7da63          	bge	a5,a3,114c <inferenceTPG+0x5fc>
     e9c:	00000a93          	li	s5,0
     ea0:	4016d693          	srai	a3,a3,0x1
     ea4:	001a8a93          	addi	s5,s5,1
     ea8:	fed7cce3          	blt	a5,a3,ea0 <inferenceTPG+0x350>
     eac:	ffff0b37          	lui	s6,0xffff0
     eb0:	01668b33          	add	s6,a3,s6
     eb4:	41fb5793          	srai	a5,s6,0x1f
     eb8:	010b5593          	srli	a1,s6,0x10
     ebc:	01079793          	slli	a5,a5,0x10
     ec0:	00010737          	lui	a4,0x10
     ec4:	00e68633          	add	a2,a3,a4
     ec8:	41f65693          	srai	a3,a2,0x1f
     ecc:	010b1513          	slli	a0,s6,0x10
     ed0:	00f585b3          	add	a1,a1,a5
     ed4:	7010a0ef          	jal	bdd4 <__divdi3>
     ed8:	41f55613          	srai	a2,a0,0x1f
     edc:	02a607b3          	mul	a5,a2,a0
     ee0:	02a506b3          	mul	a3,a0,a0
     ee4:	02a53733          	mulhu	a4,a0,a0
     ee8:	20e7a7b3          	sh1add	a5,a5,a4
     eec:	01079793          	slli	a5,a5,0x10
     ef0:	0106d693          	srli	a3,a3,0x10
     ef4:	00d786b3          	add	a3,a5,a3
     ef8:	41f6d313          	srai	t1,a3,0x1f
     efc:	02d307b3          	mul	a5,t1,a3
     f00:	02d68733          	mul	a4,a3,a3
     f04:	02d6b5b3          	mulhu	a1,a3,a3
     f08:	20b7a7b3          	sh1add	a5,a5,a1
     f0c:	01079793          	slli	a5,a5,0x10
     f10:	01075713          	srli	a4,a4,0x10
     f14:	00e78733          	add	a4,a5,a4
     f18:	41f75593          	srai	a1,a4,0x1f
     f1c:	010a9793          	slli	a5,s5,0x10
     f20:	41f7d893          	srai	a7,a5,0x1f
     f24:	0000be37          	lui	t3,0xb
     f28:	172e0e13          	addi	t3,t3,370 # b172 <__muldf3+0x176>
     f2c:	03c888b3          	mul	a7,a7,t3
     f30:	03c78833          	mul	a6,a5,t3
     f34:	03c7b7b3          	mulhu	a5,a5,t3
     f38:	00f887b3          	add	a5,a7,a5
     f3c:	01079793          	slli	a5,a5,0x10
     f40:	01085813          	srli	a6,a6,0x10
     f44:	01078833          	add	a6,a5,a6
     f48:	010b0833          	add	a6,s6,a6
     f4c:	000028b7          	lui	a7,0x2
     f50:	5e288893          	addi	a7,a7,1506 # 25e2 <inferenceTPG+0x1a92>
     f54:	03158e33          	mul	t3,a1,a7
     f58:	031707b3          	mul	a5,a4,a7
     f5c:	031738b3          	mulhu	a7,a4,a7
     f60:	011e08b3          	add	a7,t3,a7
     f64:	01089893          	slli	a7,a7,0x10
     f68:	0107d793          	srli	a5,a5,0x10
     f6c:	00f887b3          	add	a5,a7,a5
     f70:	000038b7          	lui	a7,0x3
     f74:	e8d88893          	addi	a7,a7,-371 # 2e8d <inferenceTPG+0x233d>
     f78:	011787b3          	add	a5,a5,a7
     f7c:	41f7de13          	srai	t3,a5,0x1f
     f80:	02ee0e33          	mul	t3,t3,a4
     f84:	02f588b3          	mul	a7,a1,a5
     f88:	011e0e33          	add	t3,t3,a7
     f8c:	02e788b3          	mul	a7,a5,a4
     f90:	02e7b7b3          	mulhu	a5,a5,a4
     f94:	00fe07b3          	add	a5,t3,a5
     f98:	01079793          	slli	a5,a5,0x10
     f9c:	0108d893          	srli	a7,a7,0x10
     fa0:	011788b3          	add	a7,a5,a7
     fa4:	000057b7          	lui	a5,0x5
     fa8:	92578793          	addi	a5,a5,-1755 # 4925 <__heap_size+0x925>
     fac:	00f888b3          	add	a7,a7,a5
     fb0:	41f8de13          	srai	t3,a7,0x1f
     fb4:	02ee0e33          	mul	t3,t3,a4
     fb8:	031587b3          	mul	a5,a1,a7
     fbc:	00fe0e33          	add	t3,t3,a5
     fc0:	02e887b3          	mul	a5,a7,a4
     fc4:	02e8b8b3          	mulhu	a7,a7,a4
     fc8:	011e08b3          	add	a7,t3,a7
     fcc:	01089893          	slli	a7,a7,0x10
     fd0:	0107d793          	srli	a5,a5,0x10
     fd4:	00f887b3          	add	a5,a7,a5
     fd8:	0000b8b7          	lui	a7,0xb
     fdc:	aab88893          	addi	a7,a7,-1365 # aaab <__divdf3+0x27f>
     fe0:	011787b3          	add	a5,a5,a7
     fe4:	41f7d893          	srai	a7,a5,0x1f
     fe8:	02d888b3          	mul	a7,a7,a3
     fec:	02f30333          	mul	t1,t1,a5
     ff0:	00688333          	add	t1,a7,t1
     ff4:	02d788b3          	mul	a7,a5,a3
     ff8:	02d7b7b3          	mulhu	a5,a5,a3
     ffc:	00f307b3          	add	a5,t1,a5
    1000:	01079793          	slli	a5,a5,0x10
    1004:	0108d893          	srli	a7,a7,0x10
    1008:	011788b3          	add	a7,a5,a7
    100c:	000027b7          	lui	a5,0x2
    1010:	73478793          	addi	a5,a5,1844 # 2734 <inferenceTPG+0x1be4>
    1014:	02f58333          	mul	t1,a1,a5
    1018:	02f706b3          	mul	a3,a4,a5
    101c:	02f737b3          	mulhu	a5,a4,a5
    1020:	00f307b3          	add	a5,t1,a5
    1024:	01079793          	slli	a5,a5,0x10
    1028:	0106d693          	srli	a3,a3,0x10
    102c:	00d786b3          	add	a3,a5,a3
    1030:	000047b7          	lui	a5,0x4
    1034:	8e478793          	addi	a5,a5,-1820 # 38e4 <inferenceTPG+0x2d94>
    1038:	00f686b3          	add	a3,a3,a5
    103c:	41f6d313          	srai	t1,a3,0x1f
    1040:	02e30333          	mul	t1,t1,a4
    1044:	02d587b3          	mul	a5,a1,a3
    1048:	00f30333          	add	t1,t1,a5
    104c:	02e687b3          	mul	a5,a3,a4
    1050:	02e6b6b3          	mulhu	a3,a3,a4
    1054:	00d306b3          	add	a3,t1,a3
    1058:	01069693          	slli	a3,a3,0x10
    105c:	0107d793          	srli	a5,a5,0x10
    1060:	00f687b3          	add	a5,a3,a5
    1064:	000066b7          	lui	a3,0x6
    1068:	66668693          	addi	a3,a3,1638 # 6666 <__heap_size+0x2666>
    106c:	00d787b3          	add	a5,a5,a3
    1070:	41f7d693          	srai	a3,a5,0x1f
    1074:	02e686b3          	mul	a3,a3,a4
    1078:	02f585b3          	mul	a1,a1,a5
    107c:	00b686b3          	add	a3,a3,a1
    1080:	02e785b3          	mul	a1,a5,a4
    1084:	02e7b7b3          	mulhu	a5,a5,a4
    1088:	00f687b3          	add	a5,a3,a5
    108c:	01079793          	slli	a5,a5,0x10
    1090:	0105d713          	srli	a4,a1,0x10
    1094:	00e78733          	add	a4,a5,a4
    1098:	00e888b3          	add	a7,a7,a4
    109c:	411b0b33          	sub	s6,s6,a7
    10a0:	41fb5793          	srai	a5,s6,0x1f
    10a4:	02a787b3          	mul	a5,a5,a0
    10a8:	03660633          	mul	a2,a2,s6
    10ac:	00c787b3          	add	a5,a5,a2
    10b0:	02ab0733          	mul	a4,s6,a0
    10b4:	02ab3b33          	mulhu	s6,s6,a0
    10b8:	016787b3          	add	a5,a5,s6
    10bc:	01079793          	slli	a5,a5,0x10
    10c0:	01075713          	srli	a4,a4,0x10
    10c4:	00e78733          	add	a4,a5,a4
    10c8:	40e80ab3          	sub	s5,a6,a4
    10cc:	00492603          	lw	a2,4(s2)
    10d0:	02060463          	beqz	a2,10f8 <inferenceTPG+0x5a8>
    10d4:	01492503          	lw	a0,20(s2)
    10d8:	41f55793          	srai	a5,a0,0x1f
    10dc:	01055593          	srli	a1,a0,0x10
    10e0:	01079793          	slli	a5,a5,0x10
    10e4:	41f65693          	srai	a3,a2,0x1f
    10e8:	01051513          	slli	a0,a0,0x10
    10ec:	00f585b3          	add	a1,a1,a5
    10f0:	4e50a0ef          	jal	bdd4 <__divdi3>
    10f4:	00050613          	mv	a2,a0
    10f8:	0049a783          	lw	a5,4(s3)
    10fc:	004a2703          	lw	a4,4(s4)
    1100:	40e787b3          	sub	a5,a5,a4
    1104:	0084a683          	lw	a3,8(s1)
    1108:	00100713          	li	a4,1
    110c:	01565663          	bge	a2,s5,1118 <inferenceTPG+0x5c8>
    1110:	000a8613          	mv	a2,s5
    1114:	00000713          	li	a4,0
    1118:	02c7de63          	bge	a5,a2,1154 <inferenceTPG+0x604>
    111c:	00060793          	mv	a5,a2
    1120:	00f6c463          	blt	a3,a5,1128 <inferenceTPG+0x5d8>
    1124:	00300713          	li	a4,3
    1128:	000206b7          	lui	a3,0x20
    112c:	000207b7          	lui	a5,0x20
    1130:	13478793          	addi	a5,a5,308 # 20134 <next.21>
    1134:	20f74733          	sh2add	a4,a4,a5
    1138:	00072783          	lw	a5,0(a4) # 10000 <i2c.c.57379e11+0x762>
    113c:	14468713          	addi	a4,a3,324 # 20144 <jump_table.23>
    1140:	20e7c7b3          	sh2add	a5,a5,a4
    1144:	0007a783          	lw	a5,0(a5)
    1148:	a55ff06f          	j	b9c <inferenceTPG+0x4c>
    114c:	00000a93          	li	s5,0
    1150:	d5dff06f          	j	eac <inferenceTPG+0x35c>
    1154:	00200713          	li	a4,2
    1158:	fc9ff06f          	j	1120 <inferenceTPG+0x5d0>
    115c:	0089aa83          	lw	s5,8(s3)
    1160:	008a2603          	lw	a2,8(s4)
    1164:	02060263          	beqz	a2,1188 <inferenceTPG+0x638>
    1168:	41fad793          	srai	a5,s5,0x1f
    116c:	010ad593          	srli	a1,s5,0x10
    1170:	01079793          	slli	a5,a5,0x10
    1174:	41f65693          	srai	a3,a2,0x1f
    1178:	010a9513          	slli	a0,s5,0x10
    117c:	00f585b3          	add	a1,a1,a5
    1180:	4550a0ef          	jal	bdd4 <__divdi3>
    1184:	00050613          	mv	a2,a0
    1188:	517cd7b7          	lui	a5,0x517cd
    118c:	c8378793          	addi	a5,a5,-893 # 517ccc83 <_sp+0x517a1c43>
    1190:	02fa97b3          	mulh	a5,s5,a5
    1194:	4117d793          	srai	a5,a5,0x11
    1198:	41fad713          	srai	a4,s5,0x1f
    119c:	40e787b3          	sub	a5,a5,a4
    11a0:	00065737          	lui	a4,0x65
    11a4:	87e70713          	addi	a4,a4,-1922 # 6487e <_sp+0x3983e>
    11a8:	02e787b3          	mul	a5,a5,a4
    11ac:	40fa87b3          	sub	a5,s5,a5
    11b0:	1207c463          	bltz	a5,12d8 <inferenceTPG+0x788>
    11b4:	fffe7737          	lui	a4,0xfffe7
    11b8:	ddf70713          	addi	a4,a4,-545 # fffe6ddf <_sp+0xfffbbd9f>
    11bc:	00e78733          	add	a4,a5,a4
    11c0:	000196b7          	lui	a3,0x19
    11c4:	21e68693          	addi	a3,a3,542 # 1921e <heap.cpp.6b15d6f6+0x3b65>
    11c8:	12e6e063          	bltu	a3,a4,12e8 <inferenceTPG+0x798>
    11cc:	00032737          	lui	a4,0x32
    11d0:	43f70713          	addi	a4,a4,1087 # 3243f <_sp+0x73ff>
    11d4:	40f707b3          	sub	a5,a4,a5
    11d8:	00100313          	li	t1,1
    11dc:	41f7d693          	srai	a3,a5,0x1f
    11e0:	02f68733          	mul	a4,a3,a5
    11e4:	02f78833          	mul	a6,a5,a5
    11e8:	02f7b5b3          	mulhu	a1,a5,a5
    11ec:	20b72733          	sh1add	a4,a4,a1
    11f0:	01071713          	slli	a4,a4,0x10
    11f4:	01085813          	srli	a6,a6,0x10
    11f8:	01070833          	add	a6,a4,a6
    11fc:	41f85e13          	srai	t3,a6,0x1f
    1200:	1f300513          	li	a0,499
    1204:	02ae0733          	mul	a4,t3,a0
    1208:	02a805b3          	mul	a1,a6,a0
    120c:	02a83533          	mulhu	a0,a6,a0
    1210:	00a70733          	add	a4,a4,a0
    1214:	01071713          	slli	a4,a4,0x10
    1218:	0105d593          	srli	a1,a1,0x10
    121c:	00b705b3          	add	a1,a4,a1
    1220:	ffffd737          	lui	a4,0xffffd
    1224:	57e70713          	addi	a4,a4,1406 # ffffd57e <_sp+0xfffd253e>
    1228:	00e585b3          	add	a1,a1,a4
    122c:	41f5d893          	srai	a7,a1,0x1f
    1230:	030888b3          	mul	a7,a7,a6
    1234:	02be0e33          	mul	t3,t3,a1
    1238:	01c888b3          	add	a7,a7,t3
    123c:	03058733          	mul	a4,a1,a6
    1240:	0305b5b3          	mulhu	a1,a1,a6
    1244:	00b885b3          	add	a1,a7,a1
    1248:	01059593          	slli	a1,a1,0x10
    124c:	01075713          	srli	a4,a4,0x10
    1250:	00e58733          	add	a4,a1,a4
    1254:	000105b7          	lui	a1,0x10
    1258:	00b70733          	add	a4,a4,a1
    125c:	41f75593          	srai	a1,a4,0x1f
    1260:	02f585b3          	mul	a1,a1,a5
    1264:	02e686b3          	mul	a3,a3,a4
    1268:	00d585b3          	add	a1,a1,a3
    126c:	02f706b3          	mul	a3,a4,a5
    1270:	02f73733          	mulhu	a4,a4,a5
    1274:	00e587b3          	add	a5,a1,a4
    1278:	01079793          	slli	a5,a5,0x10
    127c:	0106d713          	srli	a4,a3,0x10
    1280:	00e78733          	add	a4,a5,a4
    1284:	02e30333          	mul	t1,t1,a4
    1288:	0084a783          	lw	a5,8(s1)
    128c:	00f30333          	add	t1,t1,a5
    1290:	0049a703          	lw	a4,4(s3)
    1294:	004a2783          	lw	a5,4(s4)
    1298:	40f70733          	sub	a4,a4,a5
    129c:	00100793          	li	a5,1
    12a0:	00c35663          	bge	t1,a2,12ac <inferenceTPG+0x75c>
    12a4:	00060313          	mv	t1,a2
    12a8:	00000793          	li	a5,0
    12ac:	00674463          	blt	a4,t1,12b4 <inferenceTPG+0x764>
    12b0:	00200793          	li	a5,2
    12b4:	00020737          	lui	a4,0x20
    12b8:	000206b7          	lui	a3,0x20
    12bc:	12868693          	addi	a3,a3,296 # 20128 <next.20>
    12c0:	20d7c7b3          	sh2add	a5,a5,a3
    12c4:	0007a783          	lw	a5,0(a5)
    12c8:	14470713          	addi	a4,a4,324 # 20144 <jump_table.23>
    12cc:	20e7c7b3          	sh2add	a5,a5,a4
    12d0:	0007a783          	lw	a5,0(a5)
    12d4:	8c9ff06f          	j	b9c <inferenceTPG+0x4c>
    12d8:	00065737          	lui	a4,0x65
    12dc:	87e70713          	addi	a4,a4,-1922 # 6487e <_sp+0x3983e>
    12e0:	00e787b3          	add	a5,a5,a4
    12e4:	ed1ff06f          	j	11b4 <inferenceTPG+0x664>
    12e8:	fffce737          	lui	a4,0xfffce
    12ec:	bc070713          	addi	a4,a4,-1088 # fffcdbc0 <_sp+0xfffa2b80>
    12f0:	00e78733          	add	a4,a5,a4
    12f4:	000196b7          	lui	a3,0x19
    12f8:	21f68693          	addi	a3,a3,543 # 1921f <heap.cpp.6b15d6f6+0x3b66>
    12fc:	00e6ec63          	bltu	a3,a4,1314 <inferenceTPG+0x7c4>
    1300:	fffce737          	lui	a4,0xfffce
    1304:	bc170713          	addi	a4,a4,-1087 # fffcdbc1 <_sp+0xfffa2b81>
    1308:	00e787b3          	add	a5,a5,a4
    130c:	fff00313          	li	t1,-1
    1310:	ecdff06f          	j	11dc <inferenceTPG+0x68c>
    1314:	0004b737          	lui	a4,0x4b
    1318:	65f70713          	addi	a4,a4,1631 # 4b65f <_sp+0x2061f>
    131c:	00100313          	li	t1,1
    1320:	eaf75ee3          	bge	a4,a5,11dc <inferenceTPG+0x68c>
    1324:	00065737          	lui	a4,0x65
    1328:	87e70713          	addi	a4,a4,-1922 # 6487e <_sp+0x3983e>
    132c:	40f707b3          	sub	a5,a4,a5
    1330:	fff00313          	li	t1,-1
    1334:	ea9ff06f          	j	11dc <inferenceTPG+0x68c>
    1338:	008a2683          	lw	a3,8(s4)
    133c:	00000593          	li	a1,0
    1340:	2406c063          	bltz	a3,1580 <inferenceTPG+0xa30>
    1344:	26068863          	beqz	a3,15b4 <inferenceTPG+0xa64>
    1348:	000207b7          	lui	a5,0x20
    134c:	26d7d063          	bge	a5,a3,15ac <inferenceTPG+0xa5c>
    1350:	00000a93          	li	s5,0
    1354:	4016d693          	srai	a3,a3,0x1
    1358:	001a8a93          	addi	s5,s5,1
    135c:	fed7cce3          	blt	a5,a3,1354 <inferenceTPG+0x804>
    1360:	ffff0b37          	lui	s6,0xffff0
    1364:	01668b33          	add	s6,a3,s6
    1368:	41fb5793          	srai	a5,s6,0x1f
    136c:	010b5593          	srli	a1,s6,0x10
    1370:	01079793          	slli	a5,a5,0x10
    1374:	00010737          	lui	a4,0x10
    1378:	00e68633          	add	a2,a3,a4
    137c:	41f65693          	srai	a3,a2,0x1f
    1380:	010b1513          	slli	a0,s6,0x10
    1384:	00f585b3          	add	a1,a1,a5
    1388:	24d0a0ef          	jal	bdd4 <__divdi3>
    138c:	41f55613          	srai	a2,a0,0x1f
    1390:	02a607b3          	mul	a5,a2,a0
    1394:	02a506b3          	mul	a3,a0,a0
    1398:	02a53733          	mulhu	a4,a0,a0
    139c:	20e7a7b3          	sh1add	a5,a5,a4
    13a0:	01079793          	slli	a5,a5,0x10
    13a4:	0106d693          	srli	a3,a3,0x10
    13a8:	00d786b3          	add	a3,a5,a3
    13ac:	41f6d313          	srai	t1,a3,0x1f
    13b0:	02d307b3          	mul	a5,t1,a3
    13b4:	02d68733          	mul	a4,a3,a3
    13b8:	02d6b5b3          	mulhu	a1,a3,a3
    13bc:	20b7a7b3          	sh1add	a5,a5,a1
    13c0:	01079793          	slli	a5,a5,0x10
    13c4:	01075713          	srli	a4,a4,0x10
    13c8:	00e78733          	add	a4,a5,a4
    13cc:	41f75813          	srai	a6,a4,0x1f
    13d0:	010a9793          	slli	a5,s5,0x10
    13d4:	41f7d893          	srai	a7,a5,0x1f
    13d8:	0000be37          	lui	t3,0xb
    13dc:	172e0e13          	addi	t3,t3,370 # b172 <__muldf3+0x176>
    13e0:	03c888b3          	mul	a7,a7,t3
    13e4:	03c785b3          	mul	a1,a5,t3
    13e8:	03c7b7b3          	mulhu	a5,a5,t3
    13ec:	00f887b3          	add	a5,a7,a5
    13f0:	01079793          	slli	a5,a5,0x10
    13f4:	0105d593          	srli	a1,a1,0x10
    13f8:	00b785b3          	add	a1,a5,a1
    13fc:	00bb05b3          	add	a1,s6,a1
    1400:	000028b7          	lui	a7,0x2
    1404:	5e288893          	addi	a7,a7,1506 # 25e2 <inferenceTPG+0x1a92>
    1408:	03180e33          	mul	t3,a6,a7
    140c:	031707b3          	mul	a5,a4,a7
    1410:	031738b3          	mulhu	a7,a4,a7
    1414:	011e08b3          	add	a7,t3,a7
    1418:	01089893          	slli	a7,a7,0x10
    141c:	0107d793          	srli	a5,a5,0x10
    1420:	00f887b3          	add	a5,a7,a5
    1424:	000038b7          	lui	a7,0x3
    1428:	e8d88893          	addi	a7,a7,-371 # 2e8d <inferenceTPG+0x233d>
    142c:	011787b3          	add	a5,a5,a7
    1430:	41f7de13          	srai	t3,a5,0x1f
    1434:	02ee0e33          	mul	t3,t3,a4
    1438:	02f808b3          	mul	a7,a6,a5
    143c:	011e0e33          	add	t3,t3,a7
    1440:	02e788b3          	mul	a7,a5,a4
    1444:	02e7b7b3          	mulhu	a5,a5,a4
    1448:	00fe07b3          	add	a5,t3,a5
    144c:	01079793          	slli	a5,a5,0x10
    1450:	0108d893          	srli	a7,a7,0x10
    1454:	011788b3          	add	a7,a5,a7
    1458:	000057b7          	lui	a5,0x5
    145c:	92578793          	addi	a5,a5,-1755 # 4925 <__heap_size+0x925>
    1460:	00f888b3          	add	a7,a7,a5
    1464:	41f8de13          	srai	t3,a7,0x1f
    1468:	02ee0e33          	mul	t3,t3,a4
    146c:	031807b3          	mul	a5,a6,a7
    1470:	00fe0e33          	add	t3,t3,a5
    1474:	02e887b3          	mul	a5,a7,a4
    1478:	02e8b8b3          	mulhu	a7,a7,a4
    147c:	011e08b3          	add	a7,t3,a7
    1480:	01089893          	slli	a7,a7,0x10
    1484:	0107d793          	srli	a5,a5,0x10
    1488:	00f887b3          	add	a5,a7,a5
    148c:	0000b8b7          	lui	a7,0xb
    1490:	aab88893          	addi	a7,a7,-1365 # aaab <__divdf3+0x27f>
    1494:	011787b3          	add	a5,a5,a7
    1498:	41f7d893          	srai	a7,a5,0x1f
    149c:	02d888b3          	mul	a7,a7,a3
    14a0:	02f30333          	mul	t1,t1,a5
    14a4:	00688333          	add	t1,a7,t1
    14a8:	02d788b3          	mul	a7,a5,a3
    14ac:	02d7b7b3          	mulhu	a5,a5,a3
    14b0:	00f307b3          	add	a5,t1,a5
    14b4:	01079793          	slli	a5,a5,0x10
    14b8:	0108d893          	srli	a7,a7,0x10
    14bc:	011788b3          	add	a7,a5,a7
    14c0:	000027b7          	lui	a5,0x2
    14c4:	73478793          	addi	a5,a5,1844 # 2734 <inferenceTPG+0x1be4>
    14c8:	02f80333          	mul	t1,a6,a5
    14cc:	02f706b3          	mul	a3,a4,a5
    14d0:	02f737b3          	mulhu	a5,a4,a5
    14d4:	00f307b3          	add	a5,t1,a5
    14d8:	01079793          	slli	a5,a5,0x10
    14dc:	0106d693          	srli	a3,a3,0x10
    14e0:	00d786b3          	add	a3,a5,a3
    14e4:	000047b7          	lui	a5,0x4
    14e8:	8e478793          	addi	a5,a5,-1820 # 38e4 <inferenceTPG+0x2d94>
    14ec:	00f686b3          	add	a3,a3,a5
    14f0:	41f6d313          	srai	t1,a3,0x1f
    14f4:	02e30333          	mul	t1,t1,a4
    14f8:	02d807b3          	mul	a5,a6,a3
    14fc:	00f30333          	add	t1,t1,a5
    1500:	02e687b3          	mul	a5,a3,a4
    1504:	02e6b6b3          	mulhu	a3,a3,a4
    1508:	00d306b3          	add	a3,t1,a3
    150c:	01069693          	slli	a3,a3,0x10
    1510:	0107d793          	srli	a5,a5,0x10
    1514:	00f687b3          	add	a5,a3,a5
    1518:	000066b7          	lui	a3,0x6
    151c:	66668693          	addi	a3,a3,1638 # 6666 <__heap_size+0x2666>
    1520:	00d787b3          	add	a5,a5,a3
    1524:	41f7d693          	srai	a3,a5,0x1f
    1528:	02e686b3          	mul	a3,a3,a4
    152c:	02f80833          	mul	a6,a6,a5
    1530:	010686b3          	add	a3,a3,a6
    1534:	02e78833          	mul	a6,a5,a4
    1538:	02e7b7b3          	mulhu	a5,a5,a4
    153c:	00f687b3          	add	a5,a3,a5
    1540:	01079793          	slli	a5,a5,0x10
    1544:	01085713          	srli	a4,a6,0x10
    1548:	00e78733          	add	a4,a5,a4
    154c:	00e888b3          	add	a7,a7,a4
    1550:	411b0b33          	sub	s6,s6,a7
    1554:	41fb5793          	srai	a5,s6,0x1f
    1558:	02a787b3          	mul	a5,a5,a0
    155c:	03660633          	mul	a2,a2,s6
    1560:	00c787b3          	add	a5,a5,a2
    1564:	02ab0733          	mul	a4,s6,a0
    1568:	02ab3b33          	mulhu	s6,s6,a0
    156c:	016787b3          	add	a5,a5,s6
    1570:	01079793          	slli	a5,a5,0x10
    1574:	01075713          	srli	a4,a4,0x10
    1578:	00e78733          	add	a4,a5,a4
    157c:	40e585b3          	sub	a1,a1,a4
    1580:	00020737          	lui	a4,0x20
    1584:	0084a783          	lw	a5,8(s1)
    1588:	00b7a7b3          	slt	a5,a5,a1
    158c:	0017b793          	seqz	a5,a5
    1590:	94818693          	addi	a3,gp,-1720 # 22dc0 <next.19>
    1594:	20d7c7b3          	sh2add	a5,a5,a3
    1598:	0007a783          	lw	a5,0(a5)
    159c:	14470713          	addi	a4,a4,324 # 20144 <jump_table.23>
    15a0:	20e7c7b3          	sh2add	a5,a5,a4
    15a4:	0007a783          	lw	a5,0(a5)
    15a8:	df4ff06f          	j	b9c <inferenceTPG+0x4c>
    15ac:	00000a93          	li	s5,0
    15b0:	db1ff06f          	j	1360 <inferenceTPG+0x810>
    15b4:	fff00593          	li	a1,-1
    15b8:	fc9ff06f          	j	1580 <inferenceTPG+0xa30>
    15bc:	008a2683          	lw	a3,8(s4)
    15c0:	0006d463          	bgez	a3,15c8 <inferenceTPG+0xa78>
    15c4:	4a10506f          	j	7264 <__heap_size+0x3264>
    15c8:	40068663          	beqz	a3,19d4 <inferenceTPG+0xe84>
    15cc:	000207b7          	lui	a5,0x20
    15d0:	3ed7de63          	bge	a5,a3,19cc <inferenceTPG+0xe7c>
    15d4:	00000a93          	li	s5,0
    15d8:	4016d693          	srai	a3,a3,0x1
    15dc:	001a8a93          	addi	s5,s5,1
    15e0:	fed7cce3          	blt	a5,a3,15d8 <inferenceTPG+0xa88>
    15e4:	ffff0b37          	lui	s6,0xffff0
    15e8:	01668b33          	add	s6,a3,s6
    15ec:	41fb5793          	srai	a5,s6,0x1f
    15f0:	010b5593          	srli	a1,s6,0x10
    15f4:	01079793          	slli	a5,a5,0x10
    15f8:	00010737          	lui	a4,0x10
    15fc:	00e68633          	add	a2,a3,a4
    1600:	41f65693          	srai	a3,a2,0x1f
    1604:	010b1513          	slli	a0,s6,0x10
    1608:	00f585b3          	add	a1,a1,a5
    160c:	7c80a0ef          	jal	bdd4 <__divdi3>
    1610:	41f55613          	srai	a2,a0,0x1f
    1614:	02a607b3          	mul	a5,a2,a0
    1618:	02a506b3          	mul	a3,a0,a0
    161c:	02a53733          	mulhu	a4,a0,a0
    1620:	20e7a7b3          	sh1add	a5,a5,a4
    1624:	01079793          	slli	a5,a5,0x10
    1628:	0106d693          	srli	a3,a3,0x10
    162c:	00d786b3          	add	a3,a5,a3
    1630:	41f6d893          	srai	a7,a3,0x1f
    1634:	02d887b3          	mul	a5,a7,a3
    1638:	02d68733          	mul	a4,a3,a3
    163c:	02d6b5b3          	mulhu	a1,a3,a3
    1640:	20b7a7b3          	sh1add	a5,a5,a1
    1644:	01079793          	slli	a5,a5,0x10
    1648:	01075713          	srli	a4,a4,0x10
    164c:	00e78733          	add	a4,a5,a4
    1650:	41f75593          	srai	a1,a4,0x1f
    1654:	010a9793          	slli	a5,s5,0x10
    1658:	41f7d813          	srai	a6,a5,0x1f
    165c:	0000b337          	lui	t1,0xb
    1660:	17230313          	addi	t1,t1,370 # b172 <__muldf3+0x176>
    1664:	02680833          	mul	a6,a6,t1
    1668:	02678ab3          	mul	s5,a5,t1
    166c:	0267b7b3          	mulhu	a5,a5,t1
    1670:	00f807b3          	add	a5,a6,a5
    1674:	01079793          	slli	a5,a5,0x10
    1678:	010ada93          	srli	s5,s5,0x10
    167c:	01578ab3          	add	s5,a5,s5
    1680:	015b0ab3          	add	s5,s6,s5
    1684:	00002837          	lui	a6,0x2
    1688:	5e280813          	addi	a6,a6,1506 # 25e2 <inferenceTPG+0x1a92>
    168c:	03058333          	mul	t1,a1,a6
    1690:	030707b3          	mul	a5,a4,a6
    1694:	03073833          	mulhu	a6,a4,a6
    1698:	01030833          	add	a6,t1,a6
    169c:	01081813          	slli	a6,a6,0x10
    16a0:	0107d793          	srli	a5,a5,0x10
    16a4:	00f807b3          	add	a5,a6,a5
    16a8:	00003837          	lui	a6,0x3
    16ac:	e8d80813          	addi	a6,a6,-371 # 2e8d <inferenceTPG+0x233d>
    16b0:	010787b3          	add	a5,a5,a6
    16b4:	41f7d313          	srai	t1,a5,0x1f
    16b8:	02e30333          	mul	t1,t1,a4
    16bc:	02f58833          	mul	a6,a1,a5
    16c0:	01030333          	add	t1,t1,a6
    16c4:	02e78833          	mul	a6,a5,a4
    16c8:	02e7b7b3          	mulhu	a5,a5,a4
    16cc:	00f307b3          	add	a5,t1,a5
    16d0:	01079793          	slli	a5,a5,0x10
    16d4:	01085813          	srli	a6,a6,0x10
    16d8:	01078833          	add	a6,a5,a6
    16dc:	000057b7          	lui	a5,0x5
    16e0:	92578793          	addi	a5,a5,-1755 # 4925 <__heap_size+0x925>
    16e4:	00f80833          	add	a6,a6,a5
    16e8:	41f85313          	srai	t1,a6,0x1f
    16ec:	02e30333          	mul	t1,t1,a4
    16f0:	030587b3          	mul	a5,a1,a6
    16f4:	00f30333          	add	t1,t1,a5
    16f8:	02e807b3          	mul	a5,a6,a4
    16fc:	02e83833          	mulhu	a6,a6,a4
    1700:	01030833          	add	a6,t1,a6
    1704:	01081813          	slli	a6,a6,0x10
    1708:	0107d793          	srli	a5,a5,0x10
    170c:	00f807b3          	add	a5,a6,a5
    1710:	0000b837          	lui	a6,0xb
    1714:	aab80813          	addi	a6,a6,-1365 # aaab <__divdf3+0x27f>
    1718:	010787b3          	add	a5,a5,a6
    171c:	41f7d813          	srai	a6,a5,0x1f
    1720:	02d80833          	mul	a6,a6,a3
    1724:	02f888b3          	mul	a7,a7,a5
    1728:	011808b3          	add	a7,a6,a7
    172c:	02d78833          	mul	a6,a5,a3
    1730:	02d7b7b3          	mulhu	a5,a5,a3
    1734:	00f887b3          	add	a5,a7,a5
    1738:	01079793          	slli	a5,a5,0x10
    173c:	01085813          	srli	a6,a6,0x10
    1740:	01078833          	add	a6,a5,a6
    1744:	000027b7          	lui	a5,0x2
    1748:	73478793          	addi	a5,a5,1844 # 2734 <inferenceTPG+0x1be4>
    174c:	02f588b3          	mul	a7,a1,a5
    1750:	02f706b3          	mul	a3,a4,a5
    1754:	02f737b3          	mulhu	a5,a4,a5
    1758:	00f887b3          	add	a5,a7,a5
    175c:	01079793          	slli	a5,a5,0x10
    1760:	0106d693          	srli	a3,a3,0x10
    1764:	00d786b3          	add	a3,a5,a3
    1768:	000047b7          	lui	a5,0x4
    176c:	8e478793          	addi	a5,a5,-1820 # 38e4 <inferenceTPG+0x2d94>
    1770:	00f686b3          	add	a3,a3,a5
    1774:	41f6d893          	srai	a7,a3,0x1f
    1778:	02e888b3          	mul	a7,a7,a4
    177c:	02d587b3          	mul	a5,a1,a3
    1780:	00f888b3          	add	a7,a7,a5
    1784:	02e687b3          	mul	a5,a3,a4
    1788:	02e6b6b3          	mulhu	a3,a3,a4
    178c:	00d886b3          	add	a3,a7,a3
    1790:	01069693          	slli	a3,a3,0x10
    1794:	0107d793          	srli	a5,a5,0x10
    1798:	00f687b3          	add	a5,a3,a5
    179c:	000066b7          	lui	a3,0x6
    17a0:	66668693          	addi	a3,a3,1638 # 6666 <__heap_size+0x2666>
    17a4:	00d787b3          	add	a5,a5,a3
    17a8:	41f7d693          	srai	a3,a5,0x1f
    17ac:	02e686b3          	mul	a3,a3,a4
    17b0:	02f585b3          	mul	a1,a1,a5
    17b4:	00b686b3          	add	a3,a3,a1
    17b8:	02e785b3          	mul	a1,a5,a4
    17bc:	02e7b7b3          	mulhu	a5,a5,a4
    17c0:	00f687b3          	add	a5,a3,a5
    17c4:	01079793          	slli	a5,a5,0x10
    17c8:	0105d713          	srli	a4,a1,0x10
    17cc:	00e78733          	add	a4,a5,a4
    17d0:	00e80833          	add	a6,a6,a4
    17d4:	410b0b33          	sub	s6,s6,a6
    17d8:	41fb5793          	srai	a5,s6,0x1f
    17dc:	02a787b3          	mul	a5,a5,a0
    17e0:	03660633          	mul	a2,a2,s6
    17e4:	00c787b3          	add	a5,a5,a2
    17e8:	02ab0733          	mul	a4,s6,a0
    17ec:	02ab3b33          	mulhu	s6,s6,a0
    17f0:	016787b3          	add	a5,a5,s6
    17f4:	01079793          	slli	a5,a5,0x10
    17f8:	01075713          	srli	a4,a4,0x10
    17fc:	00e78733          	add	a4,a5,a4
    1800:	40ea8ab3          	sub	s5,s5,a4
    1804:	0084a583          	lw	a1,8(s1)
    1808:	000107b7          	lui	a5,0x10
    180c:	18058c63          	beqz	a1,19a4 <inferenceTPG+0xe54>
    1810:	40b006b3          	neg	a3,a1
    1814:	0ad5e6b3          	max	a3,a1,a3
    1818:	41f6d713          	srai	a4,a3,0x1f
    181c:	000177b7          	lui	a5,0x17
    1820:	15478793          	addi	a5,a5,340 # 17154 <heap.cpp.6b15d6f6+0x1a9b>
    1824:	02f70733          	mul	a4,a4,a5
    1828:	02f68b33          	mul	s6,a3,a5
    182c:	02f6b6b3          	mulhu	a3,a3,a5
    1830:	00d70733          	add	a4,a4,a3
    1834:	01071713          	slli	a4,a4,0x10
    1838:	010b5b13          	srli	s6,s6,0x10
    183c:	01670b33          	add	s6,a4,s6
    1840:	000087b7          	lui	a5,0x8
    1844:	00fb0b33          	add	s6,s6,a5
    1848:	ffff07b7          	lui	a5,0xffff0
    184c:	00fb7b33          	and	s6,s6,a5
    1850:	1805c663          	bltz	a1,19dc <inferenceTPG+0xe8c>
    1854:	41fb5713          	srai	a4,s6,0x1f
    1858:	0000b6b7          	lui	a3,0xb
    185c:	17268693          	addi	a3,a3,370 # b172 <__muldf3+0x176>
    1860:	02d70733          	mul	a4,a4,a3
    1864:	02db07b3          	mul	a5,s6,a3
    1868:	02db36b3          	mulhu	a3,s6,a3
    186c:	00d70733          	add	a4,a4,a3
    1870:	01071713          	slli	a4,a4,0x10
    1874:	0107d793          	srli	a5,a5,0x10
    1878:	00f707b3          	add	a5,a4,a5
    187c:	40f585b3          	sub	a1,a1,a5
    1880:	41f5d713          	srai	a4,a1,0x1f
    1884:	02b70733          	mul	a4,a4,a1
    1888:	02b587b3          	mul	a5,a1,a1
    188c:	02b5b6b3          	mulhu	a3,a1,a1
    1890:	20d72733          	sh1add	a4,a4,a3
    1894:	01071713          	slli	a4,a4,0x10
    1898:	0107d793          	srli	a5,a5,0x10
    189c:	00f707b3          	add	a5,a4,a5
    18a0:	41f7d513          	srai	a0,a5,0x1f
    18a4:	01e7d713          	srli	a4,a5,0x1e
    18a8:	20e54733          	sh2add	a4,a0,a4
    18ac:	00279693          	slli	a3,a5,0x2
    18b0:	01071713          	slli	a4,a4,0x10
    18b4:	0106d693          	srli	a3,a3,0x10
    18b8:	00d706b3          	add	a3,a4,a3
    18bc:	f4a68693          	addi	a3,a3,-182
    18c0:	41f6d613          	srai	a2,a3,0x1f
    18c4:	02f60633          	mul	a2,a2,a5
    18c8:	02d50733          	mul	a4,a0,a3
    18cc:	00e60633          	add	a2,a2,a4
    18d0:	02f68733          	mul	a4,a3,a5
    18d4:	02f6b6b3          	mulhu	a3,a3,a5
    18d8:	00d606b3          	add	a3,a2,a3
    18dc:	01069693          	slli	a3,a3,0x10
    18e0:	01075713          	srli	a4,a4,0x10
    18e4:	00e68733          	add	a4,a3,a4
    18e8:	000036b7          	lui	a3,0x3
    18ec:	aab68693          	addi	a3,a3,-1365 # 2aab <inferenceTPG+0x1f5b>
    18f0:	00d70733          	add	a4,a4,a3
    18f4:	41f75693          	srai	a3,a4,0x1f
    18f8:	02f686b3          	mul	a3,a3,a5
    18fc:	02e50533          	mul	a0,a0,a4
    1900:	00a686b3          	add	a3,a3,a0
    1904:	02f70633          	mul	a2,a4,a5
    1908:	02f73733          	mulhu	a4,a4,a5
    190c:	00e687b3          	add	a5,a3,a4
    1910:	01079793          	slli	a5,a5,0x10
    1914:	01065713          	srli	a4,a2,0x10
    1918:	00e78733          	add	a4,a5,a4
    191c:	000207b7          	lui	a5,0x20
    1920:	00f70733          	add	a4,a4,a5
    1924:	40b70633          	sub	a2,a4,a1
    1928:	02b70c63          	beq	a4,a1,1960 <inferenceTPG+0xe10>
    192c:	00f5d713          	srli	a4,a1,0xf
    1930:	01159793          	slli	a5,a1,0x11
    1934:	01071713          	slli	a4,a4,0x10
    1938:	0107d793          	srli	a5,a5,0x10
    193c:	00f707b3          	add	a5,a4,a5
    1940:	41f7d713          	srai	a4,a5,0x1f
    1944:	0107d593          	srli	a1,a5,0x10
    1948:	01071713          	slli	a4,a4,0x10
    194c:	41f65693          	srai	a3,a2,0x1f
    1950:	01079513          	slli	a0,a5,0x10
    1954:	00e585b3          	add	a1,a1,a4
    1958:	47c0a0ef          	jal	bdd4 <__divdi3>
    195c:	00050613          	mv	a2,a0
    1960:	000107b7          	lui	a5,0x10
    1964:	00f606b3          	add	a3,a2,a5
    1968:	060b4e63          	bltz	s6,19e4 <inferenceTPG+0xe94>
    196c:	410b5b13          	srai	s6,s6,0x10
    1970:	00010737          	lui	a4,0x10
    1974:	01671733          	sll	a4,a4,s6
    1978:	41f75793          	srai	a5,a4,0x1f
    197c:	41f6d613          	srai	a2,a3,0x1f
    1980:	02d787b3          	mul	a5,a5,a3
    1984:	02e60633          	mul	a2,a2,a4
    1988:	00c787b3          	add	a5,a5,a2
    198c:	02d70633          	mul	a2,a4,a3
    1990:	02d73733          	mulhu	a4,a4,a3
    1994:	00e787b3          	add	a5,a5,a4
    1998:	01079793          	slli	a5,a5,0x10
    199c:	01065713          	srli	a4,a2,0x10
    19a0:	00e787b3          	add	a5,a5,a4
    19a4:	0157a7b3          	slt	a5,a5,s5
    19a8:	0017b793          	seqz	a5,a5
    19ac:	00020737          	lui	a4,0x20
    19b0:	94018693          	addi	a3,gp,-1728 # 22db8 <next.18>
    19b4:	20d7c7b3          	sh2add	a5,a5,a3
    19b8:	0007a783          	lw	a5,0(a5) # 10000 <i2c.c.57379e11+0x762>
    19bc:	14470713          	addi	a4,a4,324 # 20144 <jump_table.23>
    19c0:	20e7c7b3          	sh2add	a5,a5,a4
    19c4:	0007a783          	lw	a5,0(a5)
    19c8:	9d4ff06f          	j	b9c <inferenceTPG+0x4c>
    19cc:	00000a93          	li	s5,0
    19d0:	c15ff06f          	j	15e4 <inferenceTPG+0xa94>
    19d4:	fff00a93          	li	s5,-1
    19d8:	e2dff06f          	j	1804 <inferenceTPG+0xcb4>
    19dc:	41600b33          	neg	s6,s6
    19e0:	e75ff06f          	j	1854 <inferenceTPG+0xd04>
    19e4:	416007b3          	neg	a5,s6
    19e8:	4107d793          	srai	a5,a5,0x10
    19ec:	00010737          	lui	a4,0x10
    19f0:	40f75733          	sra	a4,a4,a5
    19f4:	f85ff06f          	j	1978 <inferenceTPG+0xe28>
    19f8:	008a2683          	lw	a3,8(s4)
    19fc:	00000a93          	li	s5,0
    1a00:	2206ce63          	bltz	a3,1c3c <inferenceTPG+0x10ec>
    1a04:	66068663          	beqz	a3,2070 <inferenceTPG+0x1520>
    1a08:	000207b7          	lui	a5,0x20
    1a0c:	64d7de63          	bge	a5,a3,2068 <inferenceTPG+0x1518>
    1a10:	4016d693          	srai	a3,a3,0x1
    1a14:	001a8a93          	addi	s5,s5,1
    1a18:	fed7cce3          	blt	a5,a3,1a10 <inferenceTPG+0xec0>
    1a1c:	ffff0b37          	lui	s6,0xffff0
    1a20:	01668b33          	add	s6,a3,s6
    1a24:	41fb5793          	srai	a5,s6,0x1f
    1a28:	010b5593          	srli	a1,s6,0x10
    1a2c:	01079793          	slli	a5,a5,0x10
    1a30:	00010737          	lui	a4,0x10
    1a34:	00e68633          	add	a2,a3,a4
    1a38:	41f65693          	srai	a3,a2,0x1f
    1a3c:	010b1513          	slli	a0,s6,0x10
    1a40:	00f585b3          	add	a1,a1,a5
    1a44:	3900a0ef          	jal	bdd4 <__divdi3>
    1a48:	41f55613          	srai	a2,a0,0x1f
    1a4c:	02a607b3          	mul	a5,a2,a0
    1a50:	02a506b3          	mul	a3,a0,a0
    1a54:	02a53733          	mulhu	a4,a0,a0
    1a58:	20e7a7b3          	sh1add	a5,a5,a4
    1a5c:	01079793          	slli	a5,a5,0x10
    1a60:	0106d693          	srli	a3,a3,0x10
    1a64:	00d786b3          	add	a3,a5,a3
    1a68:	41f6d893          	srai	a7,a3,0x1f
    1a6c:	02d887b3          	mul	a5,a7,a3
    1a70:	02d68733          	mul	a4,a3,a3
    1a74:	02d6b5b3          	mulhu	a1,a3,a3
    1a78:	20b7a7b3          	sh1add	a5,a5,a1
    1a7c:	01079793          	slli	a5,a5,0x10
    1a80:	01075713          	srli	a4,a4,0x10
    1a84:	00e78733          	add	a4,a5,a4
    1a88:	41f75593          	srai	a1,a4,0x1f
    1a8c:	010a9793          	slli	a5,s5,0x10
    1a90:	41f7d813          	srai	a6,a5,0x1f
    1a94:	0000b337          	lui	t1,0xb
    1a98:	17230313          	addi	t1,t1,370 # b172 <__muldf3+0x176>
    1a9c:	02680833          	mul	a6,a6,t1
    1aa0:	02678ab3          	mul	s5,a5,t1
    1aa4:	0267b7b3          	mulhu	a5,a5,t1
    1aa8:	00f807b3          	add	a5,a6,a5
    1aac:	01079793          	slli	a5,a5,0x10
    1ab0:	010ada93          	srli	s5,s5,0x10
    1ab4:	01578ab3          	add	s5,a5,s5
    1ab8:	015b0ab3          	add	s5,s6,s5
    1abc:	00002837          	lui	a6,0x2
    1ac0:	5e280813          	addi	a6,a6,1506 # 25e2 <inferenceTPG+0x1a92>
    1ac4:	03058333          	mul	t1,a1,a6
    1ac8:	030707b3          	mul	a5,a4,a6
    1acc:	03073833          	mulhu	a6,a4,a6
    1ad0:	01030833          	add	a6,t1,a6
    1ad4:	01081813          	slli	a6,a6,0x10
    1ad8:	0107d793          	srli	a5,a5,0x10
    1adc:	00f807b3          	add	a5,a6,a5
    1ae0:	00003837          	lui	a6,0x3
    1ae4:	e8d80813          	addi	a6,a6,-371 # 2e8d <inferenceTPG+0x233d>
    1ae8:	010787b3          	add	a5,a5,a6
    1aec:	41f7d313          	srai	t1,a5,0x1f
    1af0:	02e30333          	mul	t1,t1,a4
    1af4:	02f58833          	mul	a6,a1,a5
    1af8:	01030333          	add	t1,t1,a6
    1afc:	02e78833          	mul	a6,a5,a4
    1b00:	02e7b7b3          	mulhu	a5,a5,a4
    1b04:	00f307b3          	add	a5,t1,a5
    1b08:	01079793          	slli	a5,a5,0x10
    1b0c:	01085813          	srli	a6,a6,0x10
    1b10:	01078833          	add	a6,a5,a6
    1b14:	000057b7          	lui	a5,0x5
    1b18:	92578793          	addi	a5,a5,-1755 # 4925 <__heap_size+0x925>
    1b1c:	00f80833          	add	a6,a6,a5
    1b20:	41f85313          	srai	t1,a6,0x1f
    1b24:	02e30333          	mul	t1,t1,a4
    1b28:	030587b3          	mul	a5,a1,a6
    1b2c:	00f30333          	add	t1,t1,a5
    1b30:	02e807b3          	mul	a5,a6,a4
    1b34:	02e83833          	mulhu	a6,a6,a4
    1b38:	01030833          	add	a6,t1,a6
    1b3c:	01081813          	slli	a6,a6,0x10
    1b40:	0107d793          	srli	a5,a5,0x10
    1b44:	00f807b3          	add	a5,a6,a5
    1b48:	0000b837          	lui	a6,0xb
    1b4c:	aab80813          	addi	a6,a6,-1365 # aaab <__divdf3+0x27f>
    1b50:	010787b3          	add	a5,a5,a6
    1b54:	41f7d813          	srai	a6,a5,0x1f
    1b58:	02d80833          	mul	a6,a6,a3
    1b5c:	02f888b3          	mul	a7,a7,a5
    1b60:	011808b3          	add	a7,a6,a7
    1b64:	02d78833          	mul	a6,a5,a3
    1b68:	02d7b7b3          	mulhu	a5,a5,a3
    1b6c:	00f887b3          	add	a5,a7,a5
    1b70:	01079793          	slli	a5,a5,0x10
    1b74:	01085813          	srli	a6,a6,0x10
    1b78:	01078833          	add	a6,a5,a6
    1b7c:	000027b7          	lui	a5,0x2
    1b80:	73478793          	addi	a5,a5,1844 # 2734 <inferenceTPG+0x1be4>
    1b84:	02f588b3          	mul	a7,a1,a5
    1b88:	02f706b3          	mul	a3,a4,a5
    1b8c:	02f737b3          	mulhu	a5,a4,a5
    1b90:	00f887b3          	add	a5,a7,a5
    1b94:	01079793          	slli	a5,a5,0x10
    1b98:	0106d693          	srli	a3,a3,0x10
    1b9c:	00d786b3          	add	a3,a5,a3
    1ba0:	000047b7          	lui	a5,0x4
    1ba4:	8e478793          	addi	a5,a5,-1820 # 38e4 <inferenceTPG+0x2d94>
    1ba8:	00f686b3          	add	a3,a3,a5
    1bac:	41f6d893          	srai	a7,a3,0x1f
    1bb0:	02e888b3          	mul	a7,a7,a4
    1bb4:	02d587b3          	mul	a5,a1,a3
    1bb8:	00f888b3          	add	a7,a7,a5
    1bbc:	02e687b3          	mul	a5,a3,a4
    1bc0:	02e6b6b3          	mulhu	a3,a3,a4
    1bc4:	00d886b3          	add	a3,a7,a3
    1bc8:	01069693          	slli	a3,a3,0x10
    1bcc:	0107d793          	srli	a5,a5,0x10
    1bd0:	00f687b3          	add	a5,a3,a5
    1bd4:	000066b7          	lui	a3,0x6
    1bd8:	66668693          	addi	a3,a3,1638 # 6666 <__heap_size+0x2666>
    1bdc:	00d787b3          	add	a5,a5,a3
    1be0:	41f7d693          	srai	a3,a5,0x1f
    1be4:	02e686b3          	mul	a3,a3,a4
    1be8:	02f585b3          	mul	a1,a1,a5
    1bec:	00b686b3          	add	a3,a3,a1
    1bf0:	02e785b3          	mul	a1,a5,a4
    1bf4:	02e7b7b3          	mulhu	a5,a5,a4
    1bf8:	00f687b3          	add	a5,a3,a5
    1bfc:	01079793          	slli	a5,a5,0x10
    1c00:	0105d713          	srli	a4,a1,0x10
    1c04:	00e78733          	add	a4,a5,a4
    1c08:	00e80833          	add	a6,a6,a4
    1c0c:	410b0b33          	sub	s6,s6,a6
    1c10:	41fb5793          	srai	a5,s6,0x1f
    1c14:	02a787b3          	mul	a5,a5,a0
    1c18:	03660633          	mul	a2,a2,s6
    1c1c:	00c787b3          	add	a5,a5,a2
    1c20:	02ab0733          	mul	a4,s6,a0
    1c24:	02ab3b33          	mulhu	s6,s6,a0
    1c28:	016787b3          	add	a5,a5,s6
    1c2c:	01079793          	slli	a5,a5,0x10
    1c30:	01075713          	srli	a4,a4,0x10
    1c34:	00e78733          	add	a4,a5,a4
    1c38:	40ea8ab3          	sub	s5,s5,a4
    1c3c:	00492703          	lw	a4,4(s2)
    1c40:	517cd6b7          	lui	a3,0x517cd
    1c44:	c8368693          	addi	a3,a3,-893 # 517ccc83 <_sp+0x517a1c43>
    1c48:	02d716b3          	mulh	a3,a4,a3
    1c4c:	4116d693          	srai	a3,a3,0x11
    1c50:	41f75793          	srai	a5,a4,0x1f
    1c54:	40f686b3          	sub	a3,a3,a5
    1c58:	000657b7          	lui	a5,0x65
    1c5c:	87e78793          	addi	a5,a5,-1922 # 6487e <_sp+0x3983e>
    1c60:	02f687b3          	mul	a5,a3,a5
    1c64:	40f706b3          	sub	a3,a4,a5
    1c68:	4006c863          	bltz	a3,2078 <inferenceTPG+0x1528>
    1c6c:	fffe77b7          	lui	a5,0xfffe7
    1c70:	ddf78793          	addi	a5,a5,-545 # fffe6ddf <_sp+0xfffbbd9f>
    1c74:	00f687b3          	add	a5,a3,a5
    1c78:	00019637          	lui	a2,0x19
    1c7c:	21e60613          	addi	a2,a2,542 # 1921e <heap.cpp.6b15d6f6+0x3b65>
    1c80:	40f66463          	bltu	a2,a5,2088 <inferenceTPG+0x1538>
    1c84:	000327b7          	lui	a5,0x32
    1c88:	43f78793          	addi	a5,a5,1087 # 3243f <_sp+0x73ff>
    1c8c:	40d786b3          	sub	a3,a5,a3
    1c90:	00100513          	li	a0,1
    1c94:	000197b7          	lui	a5,0x19
    1c98:	22078793          	addi	a5,a5,544 # 19220 <heap.cpp.6b15d6f6+0x3b67>
    1c9c:	40e787b3          	sub	a5,a5,a4
    1ca0:	517cd5b7          	lui	a1,0x517cd
    1ca4:	c8358593          	addi	a1,a1,-893 # 517ccc83 <_sp+0x517a1c43>
    1ca8:	02b795b3          	mulh	a1,a5,a1
    1cac:	4115d593          	srai	a1,a1,0x11
    1cb0:	41f7d713          	srai	a4,a5,0x1f
    1cb4:	40e585b3          	sub	a1,a1,a4
    1cb8:	00065737          	lui	a4,0x65
    1cbc:	87e70713          	addi	a4,a4,-1922 # 6487e <_sp+0x3983e>
    1cc0:	02e58733          	mul	a4,a1,a4
    1cc4:	40e785b3          	sub	a1,a5,a4
    1cc8:	4005c863          	bltz	a1,20d8 <inferenceTPG+0x1588>
    1ccc:	fffe77b7          	lui	a5,0xfffe7
    1cd0:	ddf78793          	addi	a5,a5,-545 # fffe6ddf <_sp+0xfffbbd9f>
    1cd4:	00f587b3          	add	a5,a1,a5
    1cd8:	00019737          	lui	a4,0x19
    1cdc:	21e70713          	addi	a4,a4,542 # 1921e <heap.cpp.6b15d6f6+0x3b65>
    1ce0:	40f76463          	bltu	a4,a5,20e8 <inferenceTPG+0x1598>
    1ce4:	000327b7          	lui	a5,0x32
    1ce8:	43f78793          	addi	a5,a5,1087 # 3243f <_sp+0x73ff>
    1cec:	40b785b3          	sub	a1,a5,a1
    1cf0:	00100b13          	li	s6,1
    1cf4:	41f5d893          	srai	a7,a1,0x1f
    1cf8:	02b887b3          	mul	a5,a7,a1
    1cfc:	02b58833          	mul	a6,a1,a1
    1d00:	02b5b733          	mulhu	a4,a1,a1
    1d04:	20e7a7b3          	sh1add	a5,a5,a4
    1d08:	01079793          	slli	a5,a5,0x10
    1d0c:	01085813          	srli	a6,a6,0x10
    1d10:	01078833          	add	a6,a5,a6
    1d14:	41f85313          	srai	t1,a6,0x1f
    1d18:	1f300613          	li	a2,499
    1d1c:	02c307b3          	mul	a5,t1,a2
    1d20:	02c80733          	mul	a4,a6,a2
    1d24:	02c83633          	mulhu	a2,a6,a2
    1d28:	00c787b3          	add	a5,a5,a2
    1d2c:	01079793          	slli	a5,a5,0x10
    1d30:	01075713          	srli	a4,a4,0x10
    1d34:	00e78733          	add	a4,a5,a4
    1d38:	ffffd7b7          	lui	a5,0xffffd
    1d3c:	57e78793          	addi	a5,a5,1406 # ffffd57e <_sp+0xfffd253e>
    1d40:	00f70733          	add	a4,a4,a5
    1d44:	41f75613          	srai	a2,a4,0x1f
    1d48:	03060633          	mul	a2,a2,a6
    1d4c:	02e30333          	mul	t1,t1,a4
    1d50:	00660633          	add	a2,a2,t1
    1d54:	030707b3          	mul	a5,a4,a6
    1d58:	03073733          	mulhu	a4,a4,a6
    1d5c:	00e60733          	add	a4,a2,a4
    1d60:	01071713          	slli	a4,a4,0x10
    1d64:	0107d793          	srli	a5,a5,0x10
    1d68:	00f707b3          	add	a5,a4,a5
    1d6c:	00010737          	lui	a4,0x10
    1d70:	00e787b3          	add	a5,a5,a4
    1d74:	41f7d713          	srai	a4,a5,0x1f
    1d78:	02b70733          	mul	a4,a4,a1
    1d7c:	02f888b3          	mul	a7,a7,a5
    1d80:	01170733          	add	a4,a4,a7
    1d84:	02b78633          	mul	a2,a5,a1
    1d88:	02b7b7b3          	mulhu	a5,a5,a1
    1d8c:	00f707b3          	add	a5,a4,a5
    1d90:	01079793          	slli	a5,a5,0x10
    1d94:	01065713          	srli	a4,a2,0x10
    1d98:	00e78733          	add	a4,a5,a4
    1d9c:	02eb0b33          	mul	s6,s6,a4
    1da0:	0c0b0a63          	beqz	s6,1e74 <inferenceTPG+0x1324>
    1da4:	41f6d813          	srai	a6,a3,0x1f
    1da8:	02d807b3          	mul	a5,a6,a3
    1dac:	02d68633          	mul	a2,a3,a3
    1db0:	02d6b733          	mulhu	a4,a3,a3
    1db4:	20e7a7b3          	sh1add	a5,a5,a4
    1db8:	01079793          	slli	a5,a5,0x10
    1dbc:	01065613          	srli	a2,a2,0x10
    1dc0:	00c78633          	add	a2,a5,a2
    1dc4:	41f65893          	srai	a7,a2,0x1f
    1dc8:	1f300593          	li	a1,499
    1dcc:	02b887b3          	mul	a5,a7,a1
    1dd0:	02b60733          	mul	a4,a2,a1
    1dd4:	02b635b3          	mulhu	a1,a2,a1
    1dd8:	00b787b3          	add	a5,a5,a1
    1ddc:	01079793          	slli	a5,a5,0x10
    1de0:	01075713          	srli	a4,a4,0x10
    1de4:	00e78733          	add	a4,a5,a4
    1de8:	ffffd7b7          	lui	a5,0xffffd
    1dec:	57e78793          	addi	a5,a5,1406 # ffffd57e <_sp+0xfffd253e>
    1df0:	00f70733          	add	a4,a4,a5
    1df4:	41f75593          	srai	a1,a4,0x1f
    1df8:	02c585b3          	mul	a1,a1,a2
    1dfc:	02e888b3          	mul	a7,a7,a4
    1e00:	011585b3          	add	a1,a1,a7
    1e04:	02c707b3          	mul	a5,a4,a2
    1e08:	02c73733          	mulhu	a4,a4,a2
    1e0c:	00e58733          	add	a4,a1,a4
    1e10:	01071713          	slli	a4,a4,0x10
    1e14:	0107d793          	srli	a5,a5,0x10
    1e18:	00f707b3          	add	a5,a4,a5
    1e1c:	00010737          	lui	a4,0x10
    1e20:	00e787b3          	add	a5,a5,a4
    1e24:	41f7d713          	srai	a4,a5,0x1f
    1e28:	02d70733          	mul	a4,a4,a3
    1e2c:	02f80833          	mul	a6,a6,a5
    1e30:	01070733          	add	a4,a4,a6
    1e34:	02d78633          	mul	a2,a5,a3
    1e38:	02d7b7b3          	mulhu	a5,a5,a3
    1e3c:	00f707b3          	add	a5,a4,a5
    1e40:	01079793          	slli	a5,a5,0x10
    1e44:	01065713          	srli	a4,a2,0x10
    1e48:	00e78733          	add	a4,a5,a4
    1e4c:	02e50533          	mul	a0,a0,a4
    1e50:	41f55793          	srai	a5,a0,0x1f
    1e54:	01055593          	srli	a1,a0,0x10
    1e58:	01079793          	slli	a5,a5,0x10
    1e5c:	000b0613          	mv	a2,s6
    1e60:	41fb5693          	srai	a3,s6,0x1f
    1e64:	01051513          	slli	a0,a0,0x10
    1e68:	00f585b3          	add	a1,a1,a5
    1e6c:	769090ef          	jal	bdd4 <__divdi3>
    1e70:	00050b13          	mv	s6,a0
    1e74:	01092603          	lw	a2,16(s2)
    1e78:	000107b7          	lui	a5,0x10
    1e7c:	18060c63          	beqz	a2,2014 <inferenceTPG+0x14c4>
    1e80:	40c006b3          	neg	a3,a2
    1e84:	0ad666b3          	max	a3,a2,a3
    1e88:	41f6d713          	srai	a4,a3,0x1f
    1e8c:	000177b7          	lui	a5,0x17
    1e90:	15478793          	addi	a5,a5,340 # 17154 <heap.cpp.6b15d6f6+0x1a9b>
    1e94:	02f70733          	mul	a4,a4,a5
    1e98:	02f68bb3          	mul	s7,a3,a5
    1e9c:	02f6b6b3          	mulhu	a3,a3,a5
    1ea0:	00d70733          	add	a4,a4,a3
    1ea4:	01071713          	slli	a4,a4,0x10
    1ea8:	010bdb93          	srli	s7,s7,0x10
    1eac:	01770bb3          	add	s7,a4,s7
    1eb0:	000087b7          	lui	a5,0x8
    1eb4:	00fb8bb3          	add	s7,s7,a5
    1eb8:	ffff07b7          	lui	a5,0xffff0
    1ebc:	00fbfbb3          	and	s7,s7,a5
    1ec0:	26064c63          	bltz	a2,2138 <inferenceTPG+0x15e8>
    1ec4:	41fbd713          	srai	a4,s7,0x1f
    1ec8:	0000b6b7          	lui	a3,0xb
    1ecc:	17268693          	addi	a3,a3,370 # b172 <__muldf3+0x176>
    1ed0:	02d70733          	mul	a4,a4,a3
    1ed4:	02db87b3          	mul	a5,s7,a3
    1ed8:	02dbb6b3          	mulhu	a3,s7,a3
    1edc:	00d70733          	add	a4,a4,a3
    1ee0:	01071713          	slli	a4,a4,0x10
    1ee4:	0107d793          	srli	a5,a5,0x10
    1ee8:	00f707b3          	add	a5,a4,a5
    1eec:	40f607b3          	sub	a5,a2,a5
    1ef0:	41f7d713          	srai	a4,a5,0x1f
    1ef4:	02f70733          	mul	a4,a4,a5
    1ef8:	02f78633          	mul	a2,a5,a5
    1efc:	02f7b6b3          	mulhu	a3,a5,a5
    1f00:	20d72733          	sh1add	a4,a4,a3
    1f04:	01071713          	slli	a4,a4,0x10
    1f08:	01065613          	srli	a2,a2,0x10
    1f0c:	00c70633          	add	a2,a4,a2
    1f10:	41f65513          	srai	a0,a2,0x1f
    1f14:	01e65713          	srli	a4,a2,0x1e
    1f18:	20e54733          	sh2add	a4,a0,a4
    1f1c:	00261693          	slli	a3,a2,0x2
    1f20:	01071713          	slli	a4,a4,0x10
    1f24:	0106d693          	srli	a3,a3,0x10
    1f28:	00d706b3          	add	a3,a4,a3
    1f2c:	f4a68693          	addi	a3,a3,-182
    1f30:	41f6d593          	srai	a1,a3,0x1f
    1f34:	02c585b3          	mul	a1,a1,a2
    1f38:	02d50733          	mul	a4,a0,a3
    1f3c:	00e585b3          	add	a1,a1,a4
    1f40:	02c68733          	mul	a4,a3,a2
    1f44:	02c6b6b3          	mulhu	a3,a3,a2
    1f48:	00d586b3          	add	a3,a1,a3
    1f4c:	01069693          	slli	a3,a3,0x10
    1f50:	01075713          	srli	a4,a4,0x10
    1f54:	00e68733          	add	a4,a3,a4
    1f58:	000036b7          	lui	a3,0x3
    1f5c:	aab68693          	addi	a3,a3,-1365 # 2aab <inferenceTPG+0x1f5b>
    1f60:	00d70733          	add	a4,a4,a3
    1f64:	41f75693          	srai	a3,a4,0x1f
    1f68:	02c686b3          	mul	a3,a3,a2
    1f6c:	02e50533          	mul	a0,a0,a4
    1f70:	00a686b3          	add	a3,a3,a0
    1f74:	02c705b3          	mul	a1,a4,a2
    1f78:	02c73733          	mulhu	a4,a4,a2
    1f7c:	00e68733          	add	a4,a3,a4
    1f80:	01071713          	slli	a4,a4,0x10
    1f84:	0105d693          	srli	a3,a1,0x10
    1f88:	00d706b3          	add	a3,a4,a3
    1f8c:	00020737          	lui	a4,0x20
    1f90:	00e686b3          	add	a3,a3,a4
    1f94:	40f68633          	sub	a2,a3,a5
    1f98:	02f68c63          	beq	a3,a5,1fd0 <inferenceTPG+0x1480>
    1f9c:	00f7d713          	srli	a4,a5,0xf
    1fa0:	01179793          	slli	a5,a5,0x11
    1fa4:	01071713          	slli	a4,a4,0x10
    1fa8:	0107d793          	srli	a5,a5,0x10
    1fac:	00f707b3          	add	a5,a4,a5
    1fb0:	41f7d713          	srai	a4,a5,0x1f
    1fb4:	0107d593          	srli	a1,a5,0x10
    1fb8:	01071713          	slli	a4,a4,0x10
    1fbc:	41f65693          	srai	a3,a2,0x1f
    1fc0:	01079513          	slli	a0,a5,0x10
    1fc4:	00e585b3          	add	a1,a1,a4
    1fc8:	60d090ef          	jal	bdd4 <__divdi3>
    1fcc:	00050613          	mv	a2,a0
    1fd0:	000107b7          	lui	a5,0x10
    1fd4:	00f606b3          	add	a3,a2,a5
    1fd8:	160bc463          	bltz	s7,2140 <inferenceTPG+0x15f0>
    1fdc:	410bdb93          	srai	s7,s7,0x10
    1fe0:	00010737          	lui	a4,0x10
    1fe4:	01771733          	sll	a4,a4,s7
    1fe8:	41f75793          	srai	a5,a4,0x1f
    1fec:	41f6d613          	srai	a2,a3,0x1f
    1ff0:	02d787b3          	mul	a5,a5,a3
    1ff4:	02e60633          	mul	a2,a2,a4
    1ff8:	00c787b3          	add	a5,a5,a2
    1ffc:	02d70633          	mul	a2,a4,a3
    2000:	02d73733          	mulhu	a4,a4,a3
    2004:	00e787b3          	add	a5,a5,a4
    2008:	01079793          	slli	a5,a5,0x10
    200c:	01065713          	srli	a4,a2,0x10
    2010:	00e787b3          	add	a5,a5,a4
    2014:	0084a703          	lw	a4,8(s1)
    2018:	00e787b3          	add	a5,a5,a4
    201c:	004a2683          	lw	a3,4(s4)
    2020:	40d006b3          	neg	a3,a3
    2024:	00100713          	li	a4,1
    2028:	015b5663          	bge	s6,s5,2034 <inferenceTPG+0x14e4>
    202c:	000a8b13          	mv	s6,s5
    2030:	00000713          	li	a4,0
    2034:	1367d063          	bge	a5,s6,2154 <inferenceTPG+0x1604>
    2038:	000b0793          	mv	a5,s6
    203c:	00f6c463          	blt	a3,a5,2044 <inferenceTPG+0x14f4>
    2040:	00300713          	li	a4,3
    2044:	000206b7          	lui	a3,0x20
    2048:	000207b7          	lui	a5,0x20
    204c:	11878793          	addi	a5,a5,280 # 20118 <next.17>
    2050:	20f74733          	sh2add	a4,a4,a5
    2054:	00072783          	lw	a5,0(a4) # 10000 <i2c.c.57379e11+0x762>
    2058:	14468713          	addi	a4,a3,324 # 20144 <jump_table.23>
    205c:	20e7c7b3          	sh2add	a5,a5,a4
    2060:	0007a783          	lw	a5,0(a5)
    2064:	b39fe06f          	j	b9c <inferenceTPG+0x4c>
    2068:	00000a93          	li	s5,0
    206c:	9b1ff06f          	j	1a1c <inferenceTPG+0xecc>
    2070:	fff00a93          	li	s5,-1
    2074:	bc9ff06f          	j	1c3c <inferenceTPG+0x10ec>
    2078:	000657b7          	lui	a5,0x65
    207c:	87e78793          	addi	a5,a5,-1922 # 6487e <_sp+0x3983e>
    2080:	00f686b3          	add	a3,a3,a5
    2084:	be9ff06f          	j	1c6c <inferenceTPG+0x111c>
    2088:	fffce7b7          	lui	a5,0xfffce
    208c:	bc078793          	addi	a5,a5,-1088 # fffcdbc0 <_sp+0xfffa2b80>
    2090:	00f687b3          	add	a5,a3,a5
    2094:	00019637          	lui	a2,0x19
    2098:	21f60613          	addi	a2,a2,543 # 1921f <heap.cpp.6b15d6f6+0x3b66>
    209c:	00f66c63          	bltu	a2,a5,20b4 <inferenceTPG+0x1564>
    20a0:	fffce7b7          	lui	a5,0xfffce
    20a4:	bc178793          	addi	a5,a5,-1087 # fffcdbc1 <_sp+0xfffa2b81>
    20a8:	00f686b3          	add	a3,a3,a5
    20ac:	fff00513          	li	a0,-1
    20b0:	be5ff06f          	j	1c94 <inferenceTPG+0x1144>
    20b4:	0004b7b7          	lui	a5,0x4b
    20b8:	65f78793          	addi	a5,a5,1631 # 4b65f <_sp+0x2061f>
    20bc:	00100513          	li	a0,1
    20c0:	bcd7dae3          	bge	a5,a3,1c94 <inferenceTPG+0x1144>
    20c4:	000657b7          	lui	a5,0x65
    20c8:	87e78793          	addi	a5,a5,-1922 # 6487e <_sp+0x3983e>
    20cc:	40d786b3          	sub	a3,a5,a3
    20d0:	fff00513          	li	a0,-1
    20d4:	bc1ff06f          	j	1c94 <inferenceTPG+0x1144>
    20d8:	000657b7          	lui	a5,0x65
    20dc:	87e78793          	addi	a5,a5,-1922 # 6487e <_sp+0x3983e>
    20e0:	00f585b3          	add	a1,a1,a5
    20e4:	be9ff06f          	j	1ccc <inferenceTPG+0x117c>
    20e8:	fffce7b7          	lui	a5,0xfffce
    20ec:	bc078793          	addi	a5,a5,-1088 # fffcdbc0 <_sp+0xfffa2b80>
    20f0:	00f587b3          	add	a5,a1,a5
    20f4:	00019737          	lui	a4,0x19
    20f8:	21f70713          	addi	a4,a4,543 # 1921f <heap.cpp.6b15d6f6+0x3b66>
    20fc:	00f76c63          	bltu	a4,a5,2114 <inferenceTPG+0x15c4>
    2100:	fffce7b7          	lui	a5,0xfffce
    2104:	bc178793          	addi	a5,a5,-1087 # fffcdbc1 <_sp+0xfffa2b81>
    2108:	00f585b3          	add	a1,a1,a5
    210c:	fff00b13          	li	s6,-1
    2110:	be5ff06f          	j	1cf4 <inferenceTPG+0x11a4>
    2114:	0004b7b7          	lui	a5,0x4b
    2118:	65f78793          	addi	a5,a5,1631 # 4b65f <_sp+0x2061f>
    211c:	00100b13          	li	s6,1
    2120:	bcb7dae3          	bge	a5,a1,1cf4 <inferenceTPG+0x11a4>
    2124:	000657b7          	lui	a5,0x65
    2128:	87e78793          	addi	a5,a5,-1922 # 6487e <_sp+0x3983e>
    212c:	40b785b3          	sub	a1,a5,a1
    2130:	fff00b13          	li	s6,-1
    2134:	bc1ff06f          	j	1cf4 <inferenceTPG+0x11a4>
    2138:	41700bb3          	neg	s7,s7
    213c:	d89ff06f          	j	1ec4 <inferenceTPG+0x1374>
    2140:	417007b3          	neg	a5,s7
    2144:	4107d793          	srai	a5,a5,0x10
    2148:	00010737          	lui	a4,0x10
    214c:	40f75733          	sra	a4,a4,a5
    2150:	e99ff06f          	j	1fe8 <inferenceTPG+0x1498>
    2154:	00200713          	li	a4,2
    2158:	ee5ff06f          	j	203c <inferenceTPG+0x14ec>
    215c:	008a2b83          	lw	s7,8(s4)
    2160:	020b8663          	beqz	s7,218c <inferenceTPG+0x163c>
    2164:	0089a503          	lw	a0,8(s3)
    2168:	41f55793          	srai	a5,a0,0x1f
    216c:	01055593          	srli	a1,a0,0x10
    2170:	01079793          	slli	a5,a5,0x10
    2174:	000b8613          	mv	a2,s7
    2178:	41fbd693          	srai	a3,s7,0x1f
    217c:	01051513          	slli	a0,a0,0x10
    2180:	00f585b3          	add	a1,a1,a5
    2184:	451090ef          	jal	bdd4 <__divdi3>
    2188:	00050b93          	mv	s7,a0
    218c:	0084ac03          	lw	s8,8(s1)
    2190:	0004a783          	lw	a5,0(s1)
    2194:	00019737          	lui	a4,0x19
    2198:	22070713          	addi	a4,a4,544 # 19220 <heap.cpp.6b15d6f6+0x3b67>
    219c:	40f70733          	sub	a4,a4,a5
    21a0:	517cd7b7          	lui	a5,0x517cd
    21a4:	c8378793          	addi	a5,a5,-893 # 517ccc83 <_sp+0x517a1c43>
    21a8:	02f717b3          	mulh	a5,a4,a5
    21ac:	4117d793          	srai	a5,a5,0x11
    21b0:	41f75693          	srai	a3,a4,0x1f
    21b4:	40d787b3          	sub	a5,a5,a3
    21b8:	000656b7          	lui	a3,0x65
    21bc:	87e68693          	addi	a3,a3,-1922 # 6487e <_sp+0x3983e>
    21c0:	02d787b3          	mul	a5,a5,a3
    21c4:	40f707b3          	sub	a5,a4,a5
    21c8:	3607c463          	bltz	a5,2530 <inferenceTPG+0x19e0>
    21cc:	fffe7737          	lui	a4,0xfffe7
    21d0:	ddf70713          	addi	a4,a4,-545 # fffe6ddf <_sp+0xfffbbd9f>
    21d4:	00e78733          	add	a4,a5,a4
    21d8:	000196b7          	lui	a3,0x19
    21dc:	21e68693          	addi	a3,a3,542 # 1921e <heap.cpp.6b15d6f6+0x3b65>
    21e0:	34e6ec63          	bltu	a3,a4,2538 <inferenceTPG+0x19e8>
    21e4:	00032737          	lui	a4,0x32
    21e8:	43f70713          	addi	a4,a4,1087 # 3243f <_sp+0x73ff>
    21ec:	40f707b3          	sub	a5,a4,a5
    21f0:	00100513          	li	a0,1
    21f4:	41f7d813          	srai	a6,a5,0x1f
    21f8:	02f80733          	mul	a4,a6,a5
    21fc:	02f78633          	mul	a2,a5,a5
    2200:	02f7b6b3          	mulhu	a3,a5,a5
    2204:	20d72733          	sh1add	a4,a4,a3
    2208:	01071713          	slli	a4,a4,0x10
    220c:	01065613          	srli	a2,a2,0x10
    2210:	00c70633          	add	a2,a4,a2
    2214:	41f65893          	srai	a7,a2,0x1f
    2218:	1f300593          	li	a1,499
    221c:	02b88733          	mul	a4,a7,a1
    2220:	02b606b3          	mul	a3,a2,a1
    2224:	02b635b3          	mulhu	a1,a2,a1
    2228:	00b70733          	add	a4,a4,a1
    222c:	01071713          	slli	a4,a4,0x10
    2230:	0106d693          	srli	a3,a3,0x10
    2234:	00d706b3          	add	a3,a4,a3
    2238:	ffffd737          	lui	a4,0xffffd
    223c:	57e70713          	addi	a4,a4,1406 # ffffd57e <_sp+0xfffd253e>
    2240:	00e686b3          	add	a3,a3,a4
    2244:	41f6d593          	srai	a1,a3,0x1f
    2248:	02c585b3          	mul	a1,a1,a2
    224c:	02d888b3          	mul	a7,a7,a3
    2250:	011585b3          	add	a1,a1,a7
    2254:	02c68733          	mul	a4,a3,a2
    2258:	02c6b6b3          	mulhu	a3,a3,a2
    225c:	00d586b3          	add	a3,a1,a3
    2260:	01069693          	slli	a3,a3,0x10
    2264:	01075713          	srli	a4,a4,0x10
    2268:	00e68733          	add	a4,a3,a4
    226c:	000106b7          	lui	a3,0x10
    2270:	00d70733          	add	a4,a4,a3
    2274:	41f75693          	srai	a3,a4,0x1f
    2278:	02f686b3          	mul	a3,a3,a5
    227c:	02e80833          	mul	a6,a6,a4
    2280:	010686b3          	add	a3,a3,a6
    2284:	02f70633          	mul	a2,a4,a5
    2288:	02f73733          	mulhu	a4,a4,a5
    228c:	00e687b3          	add	a5,a3,a4
    2290:	01079793          	slli	a5,a5,0x10
    2294:	01065713          	srli	a4,a2,0x10
    2298:	00e78733          	add	a4,a5,a4
    229c:	02e507b3          	mul	a5,a0,a4
    22a0:	00078d13          	mv	s10,a5
    22a4:	0044a683          	lw	a3,4(s1)
    22a8:	00000593          	li	a1,0
    22ac:	2406c063          	bltz	a3,24ec <inferenceTPG+0x199c>
    22b0:	2e068063          	beqz	a3,2590 <inferenceTPG+0x1a40>
    22b4:	000207b7          	lui	a5,0x20
    22b8:	2cd7d863          	bge	a5,a3,2588 <inferenceTPG+0x1a38>
    22bc:	00000a93          	li	s5,0
    22c0:	4016d693          	srai	a3,a3,0x1
    22c4:	001a8a93          	addi	s5,s5,1
    22c8:	fed7cce3          	blt	a5,a3,22c0 <inferenceTPG+0x1770>
    22cc:	ffff0b37          	lui	s6,0xffff0
    22d0:	01668b33          	add	s6,a3,s6
    22d4:	41fb5793          	srai	a5,s6,0x1f
    22d8:	010b5593          	srli	a1,s6,0x10
    22dc:	01079793          	slli	a5,a5,0x10
    22e0:	00010737          	lui	a4,0x10
    22e4:	00e68633          	add	a2,a3,a4
    22e8:	41f65693          	srai	a3,a2,0x1f
    22ec:	010b1513          	slli	a0,s6,0x10
    22f0:	00f585b3          	add	a1,a1,a5
    22f4:	2e1090ef          	jal	bdd4 <__divdi3>
    22f8:	41f55613          	srai	a2,a0,0x1f
    22fc:	02a607b3          	mul	a5,a2,a0
    2300:	02a50733          	mul	a4,a0,a0
    2304:	02a536b3          	mulhu	a3,a0,a0
    2308:	20d7a7b3          	sh1add	a5,a5,a3
    230c:	01079793          	slli	a5,a5,0x10
    2310:	01075713          	srli	a4,a4,0x10
    2314:	00e78733          	add	a4,a5,a4
    2318:	41f75313          	srai	t1,a4,0x1f
    231c:	02e306b3          	mul	a3,t1,a4
    2320:	02e707b3          	mul	a5,a4,a4
    2324:	02e735b3          	mulhu	a1,a4,a4
    2328:	20b6a6b3          	sh1add	a3,a3,a1
    232c:	01069693          	slli	a3,a3,0x10
    2330:	0107d793          	srli	a5,a5,0x10
    2334:	00f687b3          	add	a5,a3,a5
    2338:	41f7d813          	srai	a6,a5,0x1f
    233c:	010a9a93          	slli	s5,s5,0x10
    2340:	41fad693          	srai	a3,s5,0x1f
    2344:	0000b8b7          	lui	a7,0xb
    2348:	17288893          	addi	a7,a7,370 # b172 <__muldf3+0x176>
    234c:	031686b3          	mul	a3,a3,a7
    2350:	031a85b3          	mul	a1,s5,a7
    2354:	031abab3          	mulhu	s5,s5,a7
    2358:	015686b3          	add	a3,a3,s5
    235c:	01069693          	slli	a3,a3,0x10
    2360:	0105d593          	srli	a1,a1,0x10
    2364:	00b685b3          	add	a1,a3,a1
    2368:	00bb05b3          	add	a1,s6,a1
    236c:	000028b7          	lui	a7,0x2
    2370:	5e288893          	addi	a7,a7,1506 # 25e2 <inferenceTPG+0x1a92>
    2374:	03180e33          	mul	t3,a6,a7
    2378:	031786b3          	mul	a3,a5,a7
    237c:	0317b8b3          	mulhu	a7,a5,a7
    2380:	011e08b3          	add	a7,t3,a7
    2384:	01089893          	slli	a7,a7,0x10
    2388:	0106d693          	srli	a3,a3,0x10
    238c:	00d886b3          	add	a3,a7,a3
    2390:	000038b7          	lui	a7,0x3
    2394:	e8d88893          	addi	a7,a7,-371 # 2e8d <inferenceTPG+0x233d>
    2398:	011686b3          	add	a3,a3,a7
    239c:	41f6de13          	srai	t3,a3,0x1f
    23a0:	02fe0e33          	mul	t3,t3,a5
    23a4:	02d808b3          	mul	a7,a6,a3
    23a8:	011e0e33          	add	t3,t3,a7
    23ac:	02f688b3          	mul	a7,a3,a5
    23b0:	02f6b6b3          	mulhu	a3,a3,a5
    23b4:	00de06b3          	add	a3,t3,a3
    23b8:	01069693          	slli	a3,a3,0x10
    23bc:	0108d893          	srli	a7,a7,0x10
    23c0:	011688b3          	add	a7,a3,a7
    23c4:	000056b7          	lui	a3,0x5
    23c8:	92568693          	addi	a3,a3,-1755 # 4925 <__heap_size+0x925>
    23cc:	00d888b3          	add	a7,a7,a3
    23d0:	41f8de13          	srai	t3,a7,0x1f
    23d4:	02fe0e33          	mul	t3,t3,a5
    23d8:	031806b3          	mul	a3,a6,a7
    23dc:	00de0e33          	add	t3,t3,a3
    23e0:	02f886b3          	mul	a3,a7,a5
    23e4:	02f8b8b3          	mulhu	a7,a7,a5
    23e8:	011e08b3          	add	a7,t3,a7
    23ec:	01089893          	slli	a7,a7,0x10
    23f0:	0106d693          	srli	a3,a3,0x10
    23f4:	00d886b3          	add	a3,a7,a3
    23f8:	0000b8b7          	lui	a7,0xb
    23fc:	aab88893          	addi	a7,a7,-1365 # aaab <__divdf3+0x27f>
    2400:	011686b3          	add	a3,a3,a7
    2404:	41f6d893          	srai	a7,a3,0x1f
    2408:	02e888b3          	mul	a7,a7,a4
    240c:	02d30333          	mul	t1,t1,a3
    2410:	00688333          	add	t1,a7,t1
    2414:	02e688b3          	mul	a7,a3,a4
    2418:	02e6b6b3          	mulhu	a3,a3,a4
    241c:	00d30733          	add	a4,t1,a3
    2420:	01071713          	slli	a4,a4,0x10
    2424:	0108d893          	srli	a7,a7,0x10
    2428:	011708b3          	add	a7,a4,a7
    242c:	00002737          	lui	a4,0x2
    2430:	73470713          	addi	a4,a4,1844 # 2734 <inferenceTPG+0x1be4>
    2434:	02e80333          	mul	t1,a6,a4
    2438:	02e786b3          	mul	a3,a5,a4
    243c:	02e7b733          	mulhu	a4,a5,a4
    2440:	00e30733          	add	a4,t1,a4
    2444:	01071713          	slli	a4,a4,0x10
    2448:	0106d693          	srli	a3,a3,0x10
    244c:	00d706b3          	add	a3,a4,a3
    2450:	00004737          	lui	a4,0x4
    2454:	8e470713          	addi	a4,a4,-1820 # 38e4 <inferenceTPG+0x2d94>
    2458:	00e686b3          	add	a3,a3,a4
    245c:	41f6d313          	srai	t1,a3,0x1f
    2460:	02f30333          	mul	t1,t1,a5
    2464:	02d80733          	mul	a4,a6,a3
    2468:	00e30333          	add	t1,t1,a4
    246c:	02f68733          	mul	a4,a3,a5
    2470:	02f6b6b3          	mulhu	a3,a3,a5
    2474:	00d306b3          	add	a3,t1,a3
    2478:	01069693          	slli	a3,a3,0x10
    247c:	01075713          	srli	a4,a4,0x10
    2480:	00e68733          	add	a4,a3,a4
    2484:	000066b7          	lui	a3,0x6
    2488:	66668693          	addi	a3,a3,1638 # 6666 <__heap_size+0x2666>
    248c:	00d70733          	add	a4,a4,a3
    2490:	41f75693          	srai	a3,a4,0x1f
    2494:	02f686b3          	mul	a3,a3,a5
    2498:	02e80833          	mul	a6,a6,a4
    249c:	010686b3          	add	a3,a3,a6
    24a0:	02f70833          	mul	a6,a4,a5
    24a4:	02f73733          	mulhu	a4,a4,a5
    24a8:	00e687b3          	add	a5,a3,a4
    24ac:	01079793          	slli	a5,a5,0x10
    24b0:	01085713          	srli	a4,a6,0x10
    24b4:	00e78733          	add	a4,a5,a4
    24b8:	00e888b3          	add	a7,a7,a4
    24bc:	411b0b33          	sub	s6,s6,a7
    24c0:	41fb5793          	srai	a5,s6,0x1f
    24c4:	02a787b3          	mul	a5,a5,a0
    24c8:	03660633          	mul	a2,a2,s6
    24cc:	00c787b3          	add	a5,a5,a2
    24d0:	02ab0733          	mul	a4,s6,a0
    24d4:	02ab3b33          	mulhu	s6,s6,a0
    24d8:	016787b3          	add	a5,a5,s6
    24dc:	01079793          	slli	a5,a5,0x10
    24e0:	01075713          	srli	a4,a4,0x10
    24e4:	00e78733          	add	a4,a5,a4
    24e8:	40e585b3          	sub	a1,a1,a4
    24ec:	00100793          	li	a5,1
    24f0:	017c5663          	bge	s8,s7,24fc <inferenceTPG+0x19ac>
    24f4:	000b8c13          	mv	s8,s7
    24f8:	00000793          	li	a5,0
    24fc:	098d5e63          	bge	s10,s8,2598 <inferenceTPG+0x1a48>
    2500:	000c0d13          	mv	s10,s8
    2504:	01a5c463          	blt	a1,s10,250c <inferenceTPG+0x19bc>
    2508:	00300793          	li	a5,3
    250c:	00020737          	lui	a4,0x20
    2510:	000206b7          	lui	a3,0x20
    2514:	10868693          	addi	a3,a3,264 # 20108 <next.16>
    2518:	20d7c7b3          	sh2add	a5,a5,a3
    251c:	0007a783          	lw	a5,0(a5) # 20000 <heap.cpp.6b15d6f6+0xa947>
    2520:	14470713          	addi	a4,a4,324 # 20144 <jump_table.23>
    2524:	20e7c7b3          	sh2add	a5,a5,a4
    2528:	0007a783          	lw	a5,0(a5)
    252c:	e70fe06f          	j	b9c <inferenceTPG+0x4c>
    2530:	00d787b3          	add	a5,a5,a3
    2534:	c99ff06f          	j	21cc <inferenceTPG+0x167c>
    2538:	fffce737          	lui	a4,0xfffce
    253c:	bc070713          	addi	a4,a4,-1088 # fffcdbc0 <_sp+0xfffa2b80>
    2540:	00e78733          	add	a4,a5,a4
    2544:	000196b7          	lui	a3,0x19
    2548:	21f68693          	addi	a3,a3,543 # 1921f <heap.cpp.6b15d6f6+0x3b66>
    254c:	00e6ec63          	bltu	a3,a4,2564 <inferenceTPG+0x1a14>
    2550:	fffce737          	lui	a4,0xfffce
    2554:	bc170713          	addi	a4,a4,-1087 # fffcdbc1 <_sp+0xfffa2b81>
    2558:	00e787b3          	add	a5,a5,a4
    255c:	fff00513          	li	a0,-1
    2560:	c95ff06f          	j	21f4 <inferenceTPG+0x16a4>
    2564:	0004b737          	lui	a4,0x4b
    2568:	65f70713          	addi	a4,a4,1631 # 4b65f <_sp+0x2061f>
    256c:	00100513          	li	a0,1
    2570:	c8f752e3          	bge	a4,a5,21f4 <inferenceTPG+0x16a4>
    2574:	00065737          	lui	a4,0x65
    2578:	87e70713          	addi	a4,a4,-1922 # 6487e <_sp+0x3983e>
    257c:	40f707b3          	sub	a5,a4,a5
    2580:	fff00513          	li	a0,-1
    2584:	c71ff06f          	j	21f4 <inferenceTPG+0x16a4>
    2588:	00000a93          	li	s5,0
    258c:	d41ff06f          	j	22cc <inferenceTPG+0x177c>
    2590:	fff00593          	li	a1,-1
    2594:	f59ff06f          	j	24ec <inferenceTPG+0x199c>
    2598:	00200793          	li	a5,2
    259c:	f69ff06f          	j	2504 <inferenceTPG+0x19b4>
    25a0:	01092783          	lw	a5,16(s2)
    25a4:	00010ab7          	lui	s5,0x10
    25a8:	18078c63          	beqz	a5,2740 <inferenceTPG+0x1bf0>
    25ac:	40f006b3          	neg	a3,a5
    25b0:	0ad7e6b3          	max	a3,a5,a3
    25b4:	41f6d713          	srai	a4,a3,0x1f
    25b8:	00017637          	lui	a2,0x17
    25bc:	15460613          	addi	a2,a2,340 # 17154 <heap.cpp.6b15d6f6+0x1a9b>
    25c0:	02c70733          	mul	a4,a4,a2
    25c4:	02c68ab3          	mul	s5,a3,a2
    25c8:	02c6b6b3          	mulhu	a3,a3,a2
    25cc:	00d70733          	add	a4,a4,a3
    25d0:	01071713          	slli	a4,a4,0x10
    25d4:	010ada93          	srli	s5,s5,0x10
    25d8:	01570ab3          	add	s5,a4,s5
    25dc:	00008737          	lui	a4,0x8
    25e0:	00ea8ab3          	add	s5,s5,a4
    25e4:	ffff0737          	lui	a4,0xffff0
    25e8:	00eafab3          	and	s5,s5,a4
    25ec:	3e07c663          	bltz	a5,29d8 <inferenceTPG+0x1e88>
    25f0:	41fad713          	srai	a4,s5,0x1f
    25f4:	0000b6b7          	lui	a3,0xb
    25f8:	17268693          	addi	a3,a3,370 # b172 <__muldf3+0x176>
    25fc:	02d70733          	mul	a4,a4,a3
    2600:	02da8633          	mul	a2,s5,a3
    2604:	02dab6b3          	mulhu	a3,s5,a3
    2608:	00d70733          	add	a4,a4,a3
    260c:	01071713          	slli	a4,a4,0x10
    2610:	01065693          	srli	a3,a2,0x10
    2614:	00d706b3          	add	a3,a4,a3
    2618:	40d785b3          	sub	a1,a5,a3
    261c:	41f5d713          	srai	a4,a1,0x1f
    2620:	02b70733          	mul	a4,a4,a1
    2624:	02b587b3          	mul	a5,a1,a1
    2628:	02b5b6b3          	mulhu	a3,a1,a1
    262c:	20d72733          	sh1add	a4,a4,a3
    2630:	01071713          	slli	a4,a4,0x10
    2634:	0107d793          	srli	a5,a5,0x10
    2638:	00f707b3          	add	a5,a4,a5
    263c:	41f7d513          	srai	a0,a5,0x1f
    2640:	01e7d713          	srli	a4,a5,0x1e
    2644:	20e54733          	sh2add	a4,a0,a4
    2648:	00279693          	slli	a3,a5,0x2
    264c:	01071713          	slli	a4,a4,0x10
    2650:	0106d693          	srli	a3,a3,0x10
    2654:	00d706b3          	add	a3,a4,a3
    2658:	f4a68693          	addi	a3,a3,-182
    265c:	41f6d613          	srai	a2,a3,0x1f
    2660:	02f60633          	mul	a2,a2,a5
    2664:	02d50733          	mul	a4,a0,a3
    2668:	00e60633          	add	a2,a2,a4
    266c:	02f68733          	mul	a4,a3,a5
    2670:	02f6b6b3          	mulhu	a3,a3,a5
    2674:	00d606b3          	add	a3,a2,a3
    2678:	01069693          	slli	a3,a3,0x10
    267c:	01075713          	srli	a4,a4,0x10
    2680:	00e68733          	add	a4,a3,a4
    2684:	000036b7          	lui	a3,0x3
    2688:	aab68693          	addi	a3,a3,-1365 # 2aab <inferenceTPG+0x1f5b>
    268c:	00d70733          	add	a4,a4,a3
    2690:	41f75693          	srai	a3,a4,0x1f
    2694:	02f686b3          	mul	a3,a3,a5
    2698:	02e50633          	mul	a2,a0,a4
    269c:	00c686b3          	add	a3,a3,a2
    26a0:	02f70633          	mul	a2,a4,a5
    26a4:	02f73733          	mulhu	a4,a4,a5
    26a8:	00e687b3          	add	a5,a3,a4
    26ac:	01079793          	slli	a5,a5,0x10
    26b0:	01065713          	srli	a4,a2,0x10
    26b4:	00e78733          	add	a4,a5,a4
    26b8:	000207b7          	lui	a5,0x20
    26bc:	00f70733          	add	a4,a4,a5
    26c0:	40b70633          	sub	a2,a4,a1
    26c4:	02b70c63          	beq	a4,a1,26fc <inferenceTPG+0x1bac>
    26c8:	00f5d713          	srli	a4,a1,0xf
    26cc:	01159793          	slli	a5,a1,0x11
    26d0:	01071713          	slli	a4,a4,0x10
    26d4:	0107d793          	srli	a5,a5,0x10
    26d8:	00f707b3          	add	a5,a4,a5
    26dc:	41f7d713          	srai	a4,a5,0x1f
    26e0:	0107d593          	srli	a1,a5,0x10
    26e4:	01071713          	slli	a4,a4,0x10
    26e8:	41f65693          	srai	a3,a2,0x1f
    26ec:	01079513          	slli	a0,a5,0x10
    26f0:	00e585b3          	add	a1,a1,a4
    26f4:	6e0090ef          	jal	bdd4 <__divdi3>
    26f8:	00050613          	mv	a2,a0
    26fc:	000107b7          	lui	a5,0x10
    2700:	00f606b3          	add	a3,a2,a5
    2704:	2c0ace63          	bltz	s5,29e0 <inferenceTPG+0x1e90>
    2708:	410ada93          	srai	s5,s5,0x10
    270c:	000107b7          	lui	a5,0x10
    2710:	015797b3          	sll	a5,a5,s5
    2714:	41f7da93          	srai	s5,a5,0x1f
    2718:	41f6d713          	srai	a4,a3,0x1f
    271c:	02da8ab3          	mul	s5,s5,a3
    2720:	02f70733          	mul	a4,a4,a5
    2724:	00ea8ab3          	add	s5,s5,a4
    2728:	02d78733          	mul	a4,a5,a3
    272c:	02d7b7b3          	mulhu	a5,a5,a3
    2730:	00fa8ab3          	add	s5,s5,a5
    2734:	010a9a93          	slli	s5,s5,0x10
    2738:	01075793          	srli	a5,a4,0x10
    273c:	00fa8ab3          	add	s5,s5,a5
    2740:	0084a783          	lw	a5,8(s1)
    2744:	00fa8ab3          	add	s5,s5,a5
    2748:	008a2b83          	lw	s7,8(s4)
    274c:	00000793          	li	a5,0
    2750:	240bc263          	bltz	s7,2994 <inferenceTPG+0x1e44>
    2754:	2a0b8463          	beqz	s7,29fc <inferenceTPG+0x1eac>
    2758:	000207b7          	lui	a5,0x20
    275c:	2977da63          	bge	a5,s7,29f0 <inferenceTPG+0x1ea0>
    2760:	000b8693          	mv	a3,s7
    2764:	00000c13          	li	s8,0
    2768:	4016d693          	srai	a3,a3,0x1
    276c:	001c0c13          	addi	s8,s8,1
    2770:	fed7cce3          	blt	a5,a3,2768 <inferenceTPG+0x1c18>
    2774:	ffff0b37          	lui	s6,0xffff0
    2778:	01668b33          	add	s6,a3,s6
    277c:	41fb5793          	srai	a5,s6,0x1f
    2780:	010b5593          	srli	a1,s6,0x10
    2784:	01079793          	slli	a5,a5,0x10
    2788:	00010737          	lui	a4,0x10
    278c:	00e68633          	add	a2,a3,a4
    2790:	41f65693          	srai	a3,a2,0x1f
    2794:	010b1513          	slli	a0,s6,0x10
    2798:	00f585b3          	add	a1,a1,a5
    279c:	638090ef          	jal	bdd4 <__divdi3>
    27a0:	41f55593          	srai	a1,a0,0x1f
    27a4:	02a587b3          	mul	a5,a1,a0
    27a8:	02a506b3          	mul	a3,a0,a0
    27ac:	02a53733          	mulhu	a4,a0,a0
    27b0:	20e7a7b3          	sh1add	a5,a5,a4
    27b4:	01079793          	slli	a5,a5,0x10
    27b8:	0106d693          	srli	a3,a3,0x10
    27bc:	00d786b3          	add	a3,a5,a3
    27c0:	41f6d313          	srai	t1,a3,0x1f
    27c4:	02d307b3          	mul	a5,t1,a3
    27c8:	02d68733          	mul	a4,a3,a3
    27cc:	02d6b633          	mulhu	a2,a3,a3
    27d0:	20c7a7b3          	sh1add	a5,a5,a2
    27d4:	01079793          	slli	a5,a5,0x10
    27d8:	01075713          	srli	a4,a4,0x10
    27dc:	00e78733          	add	a4,a5,a4
    27e0:	41f75813          	srai	a6,a4,0x1f
    27e4:	010c1793          	slli	a5,s8,0x10
    27e8:	41f7d613          	srai	a2,a5,0x1f
    27ec:	0000be37          	lui	t3,0xb
    27f0:	172e0e13          	addi	t3,t3,370 # b172 <__muldf3+0x176>
    27f4:	03c60633          	mul	a2,a2,t3
    27f8:	03c788b3          	mul	a7,a5,t3
    27fc:	03c7b7b3          	mulhu	a5,a5,t3
    2800:	00f60633          	add	a2,a2,a5
    2804:	01061613          	slli	a2,a2,0x10
    2808:	0108d793          	srli	a5,a7,0x10
    280c:	00f607b3          	add	a5,a2,a5
    2810:	00fb07b3          	add	a5,s6,a5
    2814:	000028b7          	lui	a7,0x2
    2818:	5e288893          	addi	a7,a7,1506 # 25e2 <inferenceTPG+0x1a92>
    281c:	03180e33          	mul	t3,a6,a7
    2820:	03170633          	mul	a2,a4,a7
    2824:	031738b3          	mulhu	a7,a4,a7
    2828:	011e08b3          	add	a7,t3,a7
    282c:	01089893          	slli	a7,a7,0x10
    2830:	01065613          	srli	a2,a2,0x10
    2834:	00c88633          	add	a2,a7,a2
    2838:	000038b7          	lui	a7,0x3
    283c:	e8d88893          	addi	a7,a7,-371 # 2e8d <inferenceTPG+0x233d>
    2840:	01160633          	add	a2,a2,a7
    2844:	41f65e13          	srai	t3,a2,0x1f
    2848:	02ee0e33          	mul	t3,t3,a4
    284c:	02c808b3          	mul	a7,a6,a2
    2850:	011e0e33          	add	t3,t3,a7
    2854:	02e608b3          	mul	a7,a2,a4
    2858:	02e63633          	mulhu	a2,a2,a4
    285c:	00ce0633          	add	a2,t3,a2
    2860:	01061613          	slli	a2,a2,0x10
    2864:	0108d893          	srli	a7,a7,0x10
    2868:	011608b3          	add	a7,a2,a7
    286c:	00005637          	lui	a2,0x5
    2870:	92560613          	addi	a2,a2,-1755 # 4925 <__heap_size+0x925>
    2874:	00c888b3          	add	a7,a7,a2
    2878:	41f8de13          	srai	t3,a7,0x1f
    287c:	02ee0e33          	mul	t3,t3,a4
    2880:	03180633          	mul	a2,a6,a7
    2884:	00ce0e33          	add	t3,t3,a2
    2888:	02e88633          	mul	a2,a7,a4
    288c:	02e8b8b3          	mulhu	a7,a7,a4
    2890:	011e08b3          	add	a7,t3,a7
    2894:	01089893          	slli	a7,a7,0x10
    2898:	01065613          	srli	a2,a2,0x10
    289c:	00c88633          	add	a2,a7,a2
    28a0:	0000b8b7          	lui	a7,0xb
    28a4:	aab88893          	addi	a7,a7,-1365 # aaab <__divdf3+0x27f>
    28a8:	01160633          	add	a2,a2,a7
    28ac:	41f65893          	srai	a7,a2,0x1f
    28b0:	02d888b3          	mul	a7,a7,a3
    28b4:	02c30333          	mul	t1,t1,a2
    28b8:	00688333          	add	t1,a7,t1
    28bc:	02d608b3          	mul	a7,a2,a3
    28c0:	02d63633          	mulhu	a2,a2,a3
    28c4:	00c306b3          	add	a3,t1,a2
    28c8:	01069693          	slli	a3,a3,0x10
    28cc:	0108d893          	srli	a7,a7,0x10
    28d0:	011688b3          	add	a7,a3,a7
    28d4:	000026b7          	lui	a3,0x2
    28d8:	73468693          	addi	a3,a3,1844 # 2734 <inferenceTPG+0x1be4>
    28dc:	02d80333          	mul	t1,a6,a3
    28e0:	02d70633          	mul	a2,a4,a3
    28e4:	02d736b3          	mulhu	a3,a4,a3
    28e8:	00d306b3          	add	a3,t1,a3
    28ec:	01069693          	slli	a3,a3,0x10
    28f0:	01065613          	srli	a2,a2,0x10
    28f4:	00c68633          	add	a2,a3,a2
    28f8:	000046b7          	lui	a3,0x4
    28fc:	8e468693          	addi	a3,a3,-1820 # 38e4 <inferenceTPG+0x2d94>
    2900:	00d60633          	add	a2,a2,a3
    2904:	41f65313          	srai	t1,a2,0x1f
    2908:	02e30333          	mul	t1,t1,a4
    290c:	02c806b3          	mul	a3,a6,a2
    2910:	00d30333          	add	t1,t1,a3
    2914:	02e606b3          	mul	a3,a2,a4
    2918:	02e63633          	mulhu	a2,a2,a4
    291c:	00c30633          	add	a2,t1,a2
    2920:	01061613          	slli	a2,a2,0x10
    2924:	0106d693          	srli	a3,a3,0x10
    2928:	00d606b3          	add	a3,a2,a3
    292c:	00006637          	lui	a2,0x6
    2930:	66660613          	addi	a2,a2,1638 # 6666 <__heap_size+0x2666>
    2934:	00c686b3          	add	a3,a3,a2
    2938:	41f6d613          	srai	a2,a3,0x1f
    293c:	02e60633          	mul	a2,a2,a4
    2940:	02d80833          	mul	a6,a6,a3
    2944:	01060633          	add	a2,a2,a6
    2948:	02e68833          	mul	a6,a3,a4
    294c:	02e6b6b3          	mulhu	a3,a3,a4
    2950:	00d60733          	add	a4,a2,a3
    2954:	01071713          	slli	a4,a4,0x10
    2958:	01085693          	srli	a3,a6,0x10
    295c:	00d706b3          	add	a3,a4,a3
    2960:	00d888b3          	add	a7,a7,a3
    2964:	411b0b33          	sub	s6,s6,a7
    2968:	41fb5713          	srai	a4,s6,0x1f
    296c:	02a70733          	mul	a4,a4,a0
    2970:	036585b3          	mul	a1,a1,s6
    2974:	00b70733          	add	a4,a4,a1
    2978:	02ab06b3          	mul	a3,s6,a0
    297c:	02ab3b33          	mulhu	s6,s6,a0
    2980:	01670733          	add	a4,a4,s6
    2984:	01071713          	slli	a4,a4,0x10
    2988:	0106d693          	srli	a3,a3,0x10
    298c:	00d706b3          	add	a3,a4,a3
    2990:	40d787b3          	sub	a5,a5,a3
    2994:	004a2703          	lw	a4,4(s4)
    2998:	40eb8bb3          	sub	s7,s7,a4
    299c:	00100713          	li	a4,1
    29a0:	0157d663          	bge	a5,s5,29ac <inferenceTPG+0x1e5c>
    29a4:	000a8793          	mv	a5,s5
    29a8:	00000713          	li	a4,0
    29ac:	00fbc463          	blt	s7,a5,29b4 <inferenceTPG+0x1e64>
    29b0:	00200713          	li	a4,2
    29b4:	000206b7          	lui	a3,0x20
    29b8:	000207b7          	lui	a5,0x20
    29bc:	0fc78793          	addi	a5,a5,252 # 200fc <next.15>
    29c0:	20f74733          	sh2add	a4,a4,a5
    29c4:	00072783          	lw	a5,0(a4) # 10000 <i2c.c.57379e11+0x762>
    29c8:	14468713          	addi	a4,a3,324 # 20144 <jump_table.23>
    29cc:	20e7c7b3          	sh2add	a5,a5,a4
    29d0:	0007a783          	lw	a5,0(a5)
    29d4:	9c8fe06f          	j	b9c <inferenceTPG+0x4c>
    29d8:	41500ab3          	neg	s5,s5
    29dc:	c15ff06f          	j	25f0 <inferenceTPG+0x1aa0>
    29e0:	41500733          	neg	a4,s5
    29e4:	41075713          	srai	a4,a4,0x10
    29e8:	40e7d7b3          	sra	a5,a5,a4
    29ec:	d29ff06f          	j	2714 <inferenceTPG+0x1bc4>
    29f0:	000b8693          	mv	a3,s7
    29f4:	00000c13          	li	s8,0
    29f8:	d7dff06f          	j	2774 <inferenceTPG+0x1c24>
    29fc:	fff00793          	li	a5,-1
    2a00:	f95ff06f          	j	2994 <inferenceTPG+0x1e44>
    2a04:	008a2a83          	lw	s5,8(s4)
    2a08:	000a8513          	mv	a0,s5
    2a0c:	020a8063          	beqz	s5,2a2c <inferenceTPG+0x1edc>
    2a10:	41fad693          	srai	a3,s5,0x1f
    2a14:	010ad593          	srli	a1,s5,0x10
    2a18:	01069793          	slli	a5,a3,0x10
    2a1c:	000a8613          	mv	a2,s5
    2a20:	010a9513          	slli	a0,s5,0x10
    2a24:	00f585b3          	add	a1,a1,a5
    2a28:	3ac090ef          	jal	bdd4 <__divdi3>
    2a2c:	00020737          	lui	a4,0x20
    2a30:	004a2783          	lw	a5,4(s4)
    2a34:	40fa87b3          	sub	a5,s5,a5
    2a38:	00a7a7b3          	slt	a5,a5,a0
    2a3c:	0017b793          	seqz	a5,a5
    2a40:	93818693          	addi	a3,gp,-1736 # 22db0 <next.14>
    2a44:	20d7c7b3          	sh2add	a5,a5,a3
    2a48:	0007a783          	lw	a5,0(a5)
    2a4c:	14470713          	addi	a4,a4,324 # 20144 <jump_table.23>
    2a50:	20e7c7b3          	sh2add	a5,a5,a4
    2a54:	0007a783          	lw	a5,0(a5)
    2a58:	944fe06f          	j	b9c <inferenceTPG+0x4c>
    2a5c:	0004aa83          	lw	s5,0(s1)
    2a60:	000ad463          	bgez	s5,2a68 <inferenceTPG+0x1f18>
    2a64:	0190406f          	j	727c <__heap_size+0x327c>
    2a68:	7c0a8063          	beqz	s5,3228 <inferenceTPG+0x26d8>
    2a6c:	000207b7          	lui	a5,0x20
    2a70:	7b57d663          	bge	a5,s5,321c <inferenceTPG+0x26cc>
    2a74:	000a8693          	mv	a3,s5
    2a78:	00000b93          	li	s7,0
    2a7c:	4016d693          	srai	a3,a3,0x1
    2a80:	001b8b93          	addi	s7,s7,1
    2a84:	fed7cce3          	blt	a5,a3,2a7c <inferenceTPG+0x1f2c>
    2a88:	ffff0b37          	lui	s6,0xffff0
    2a8c:	01668b33          	add	s6,a3,s6
    2a90:	41fb5793          	srai	a5,s6,0x1f
    2a94:	010b5593          	srli	a1,s6,0x10
    2a98:	01079793          	slli	a5,a5,0x10
    2a9c:	00010737          	lui	a4,0x10
    2aa0:	00e68633          	add	a2,a3,a4
    2aa4:	41f65693          	srai	a3,a2,0x1f
    2aa8:	010b1513          	slli	a0,s6,0x10
    2aac:	00f585b3          	add	a1,a1,a5
    2ab0:	324090ef          	jal	bdd4 <__divdi3>
    2ab4:	41f55593          	srai	a1,a0,0x1f
    2ab8:	02a587b3          	mul	a5,a1,a0
    2abc:	02a506b3          	mul	a3,a0,a0
    2ac0:	02a53733          	mulhu	a4,a0,a0
    2ac4:	20e7a7b3          	sh1add	a5,a5,a4
    2ac8:	01079793          	slli	a5,a5,0x10
    2acc:	0106d693          	srli	a3,a3,0x10
    2ad0:	00d786b3          	add	a3,a5,a3
    2ad4:	41f6d313          	srai	t1,a3,0x1f
    2ad8:	02d307b3          	mul	a5,t1,a3
    2adc:	02d68733          	mul	a4,a3,a3
    2ae0:	02d6b633          	mulhu	a2,a3,a3
    2ae4:	20c7a7b3          	sh1add	a5,a5,a2
    2ae8:	01079793          	slli	a5,a5,0x10
    2aec:	01075713          	srli	a4,a4,0x10
    2af0:	00e78733          	add	a4,a5,a4
    2af4:	41f75813          	srai	a6,a4,0x1f
    2af8:	010b9793          	slli	a5,s7,0x10
    2afc:	41f7d613          	srai	a2,a5,0x1f
    2b00:	0000be37          	lui	t3,0xb
    2b04:	172e0e13          	addi	t3,t3,370 # b172 <__muldf3+0x176>
    2b08:	03c60633          	mul	a2,a2,t3
    2b0c:	03c788b3          	mul	a7,a5,t3
    2b10:	03c7b7b3          	mulhu	a5,a5,t3
    2b14:	00f60633          	add	a2,a2,a5
    2b18:	01061613          	slli	a2,a2,0x10
    2b1c:	0108d793          	srli	a5,a7,0x10
    2b20:	00f607b3          	add	a5,a2,a5
    2b24:	00fb07b3          	add	a5,s6,a5
    2b28:	000028b7          	lui	a7,0x2
    2b2c:	5e288893          	addi	a7,a7,1506 # 25e2 <inferenceTPG+0x1a92>
    2b30:	03180e33          	mul	t3,a6,a7
    2b34:	03170633          	mul	a2,a4,a7
    2b38:	031738b3          	mulhu	a7,a4,a7
    2b3c:	011e08b3          	add	a7,t3,a7
    2b40:	01089893          	slli	a7,a7,0x10
    2b44:	01065613          	srli	a2,a2,0x10
    2b48:	00c88633          	add	a2,a7,a2
    2b4c:	000038b7          	lui	a7,0x3
    2b50:	e8d88893          	addi	a7,a7,-371 # 2e8d <inferenceTPG+0x233d>
    2b54:	01160633          	add	a2,a2,a7
    2b58:	41f65e13          	srai	t3,a2,0x1f
    2b5c:	02ee0e33          	mul	t3,t3,a4
    2b60:	02c808b3          	mul	a7,a6,a2
    2b64:	011e0e33          	add	t3,t3,a7
    2b68:	02e608b3          	mul	a7,a2,a4
    2b6c:	02e63633          	mulhu	a2,a2,a4
    2b70:	00ce0633          	add	a2,t3,a2
    2b74:	01061613          	slli	a2,a2,0x10
    2b78:	0108d893          	srli	a7,a7,0x10
    2b7c:	011608b3          	add	a7,a2,a7
    2b80:	00005637          	lui	a2,0x5
    2b84:	92560613          	addi	a2,a2,-1755 # 4925 <__heap_size+0x925>
    2b88:	00c888b3          	add	a7,a7,a2
    2b8c:	41f8de13          	srai	t3,a7,0x1f
    2b90:	02ee0e33          	mul	t3,t3,a4
    2b94:	03180633          	mul	a2,a6,a7
    2b98:	00ce0e33          	add	t3,t3,a2
    2b9c:	02e88633          	mul	a2,a7,a4
    2ba0:	02e8b8b3          	mulhu	a7,a7,a4
    2ba4:	011e08b3          	add	a7,t3,a7
    2ba8:	01089893          	slli	a7,a7,0x10
    2bac:	01065613          	srli	a2,a2,0x10
    2bb0:	00c88633          	add	a2,a7,a2
    2bb4:	0000b8b7          	lui	a7,0xb
    2bb8:	aab88893          	addi	a7,a7,-1365 # aaab <__divdf3+0x27f>
    2bbc:	01160633          	add	a2,a2,a7
    2bc0:	41f65893          	srai	a7,a2,0x1f
    2bc4:	02d888b3          	mul	a7,a7,a3
    2bc8:	02c30333          	mul	t1,t1,a2
    2bcc:	00688333          	add	t1,a7,t1
    2bd0:	02d608b3          	mul	a7,a2,a3
    2bd4:	02d63633          	mulhu	a2,a2,a3
    2bd8:	00c306b3          	add	a3,t1,a2
    2bdc:	01069693          	slli	a3,a3,0x10
    2be0:	0108d893          	srli	a7,a7,0x10
    2be4:	011688b3          	add	a7,a3,a7
    2be8:	000026b7          	lui	a3,0x2
    2bec:	73468693          	addi	a3,a3,1844 # 2734 <inferenceTPG+0x1be4>
    2bf0:	02d80333          	mul	t1,a6,a3
    2bf4:	02d70633          	mul	a2,a4,a3
    2bf8:	02d736b3          	mulhu	a3,a4,a3
    2bfc:	00d306b3          	add	a3,t1,a3
    2c00:	01069693          	slli	a3,a3,0x10
    2c04:	01065613          	srli	a2,a2,0x10
    2c08:	00c68633          	add	a2,a3,a2
    2c0c:	000046b7          	lui	a3,0x4
    2c10:	8e468693          	addi	a3,a3,-1820 # 38e4 <inferenceTPG+0x2d94>
    2c14:	00d60633          	add	a2,a2,a3
    2c18:	41f65313          	srai	t1,a2,0x1f
    2c1c:	02e30333          	mul	t1,t1,a4
    2c20:	02c806b3          	mul	a3,a6,a2
    2c24:	00d30333          	add	t1,t1,a3
    2c28:	02e606b3          	mul	a3,a2,a4
    2c2c:	02e63633          	mulhu	a2,a2,a4
    2c30:	00c30633          	add	a2,t1,a2
    2c34:	01061613          	slli	a2,a2,0x10
    2c38:	0106d693          	srli	a3,a3,0x10
    2c3c:	00d606b3          	add	a3,a2,a3
    2c40:	00006637          	lui	a2,0x6
    2c44:	66660613          	addi	a2,a2,1638 # 6666 <__heap_size+0x2666>
    2c48:	00c686b3          	add	a3,a3,a2
    2c4c:	41f6d613          	srai	a2,a3,0x1f
    2c50:	02e60633          	mul	a2,a2,a4
    2c54:	02d80833          	mul	a6,a6,a3
    2c58:	01060633          	add	a2,a2,a6
    2c5c:	02e68833          	mul	a6,a3,a4
    2c60:	02e6b6b3          	mulhu	a3,a3,a4
    2c64:	00d60733          	add	a4,a2,a3
    2c68:	01071713          	slli	a4,a4,0x10
    2c6c:	01085693          	srli	a3,a6,0x10
    2c70:	00d706b3          	add	a3,a4,a3
    2c74:	00d888b3          	add	a7,a7,a3
    2c78:	411b0b33          	sub	s6,s6,a7
    2c7c:	41fb5713          	srai	a4,s6,0x1f
    2c80:	02a70733          	mul	a4,a4,a0
    2c84:	036585b3          	mul	a1,a1,s6
    2c88:	00b70733          	add	a4,a4,a1
    2c8c:	02ab06b3          	mul	a3,s6,a0
    2c90:	02ab3b33          	mulhu	s6,s6,a0
    2c94:	01670733          	add	a4,a4,s6
    2c98:	01071713          	slli	a4,a4,0x10
    2c9c:	0106d693          	srli	a3,a3,0x10
    2ca0:	00d706b3          	add	a3,a4,a3
    2ca4:	40d78733          	sub	a4,a5,a3
    2ca8:	0084ac03          	lw	s8,8(s1)
    2cac:	41f75793          	srai	a5,a4,0x1f
    2cb0:	41fc5693          	srai	a3,s8,0x1f
    2cb4:	038787b3          	mul	a5,a5,s8
    2cb8:	02e686b3          	mul	a3,a3,a4
    2cbc:	00d787b3          	add	a5,a5,a3
    2cc0:	038706b3          	mul	a3,a4,s8
    2cc4:	03873733          	mulhu	a4,a4,s8
    2cc8:	00e787b3          	add	a5,a5,a4
    2ccc:	01079793          	slli	a5,a5,0x10
    2cd0:	0106d713          	srli	a4,a3,0x10
    2cd4:	00e787b3          	add	a5,a5,a4
    2cd8:	56078863          	beqz	a5,3248 <inferenceTPG+0x26f8>
    2cdc:	40f006b3          	neg	a3,a5
    2ce0:	0ad7e6b3          	max	a3,a5,a3
    2ce4:	41f6d713          	srai	a4,a3,0x1f
    2ce8:	00017637          	lui	a2,0x17
    2cec:	15460613          	addi	a2,a2,340 # 17154 <heap.cpp.6b15d6f6+0x1a9b>
    2cf0:	02c70733          	mul	a4,a4,a2
    2cf4:	02c68b33          	mul	s6,a3,a2
    2cf8:	02c6b6b3          	mulhu	a3,a3,a2
    2cfc:	00d70733          	add	a4,a4,a3
    2d00:	01071713          	slli	a4,a4,0x10
    2d04:	010b5b13          	srli	s6,s6,0x10
    2d08:	01670b33          	add	s6,a4,s6
    2d0c:	00008737          	lui	a4,0x8
    2d10:	00eb0b33          	add	s6,s6,a4
    2d14:	ffff0737          	lui	a4,0xffff0
    2d18:	00eb7b33          	and	s6,s6,a4
    2d1c:	5007ca63          	bltz	a5,3230 <inferenceTPG+0x26e0>
    2d20:	41fb5713          	srai	a4,s6,0x1f
    2d24:	0000b6b7          	lui	a3,0xb
    2d28:	17268693          	addi	a3,a3,370 # b172 <__muldf3+0x176>
    2d2c:	02d70733          	mul	a4,a4,a3
    2d30:	02db0633          	mul	a2,s6,a3
    2d34:	02db36b3          	mulhu	a3,s6,a3
    2d38:	00d70733          	add	a4,a4,a3
    2d3c:	01071713          	slli	a4,a4,0x10
    2d40:	01065693          	srli	a3,a2,0x10
    2d44:	00d706b3          	add	a3,a4,a3
    2d48:	40d787b3          	sub	a5,a5,a3
    2d4c:	41f7d713          	srai	a4,a5,0x1f
    2d50:	02f70733          	mul	a4,a4,a5
    2d54:	02f785b3          	mul	a1,a5,a5
    2d58:	02f7b6b3          	mulhu	a3,a5,a5
    2d5c:	20d72733          	sh1add	a4,a4,a3
    2d60:	01071713          	slli	a4,a4,0x10
    2d64:	0105d593          	srli	a1,a1,0x10
    2d68:	00b705b3          	add	a1,a4,a1
    2d6c:	41f5d513          	srai	a0,a1,0x1f
    2d70:	01e5d713          	srli	a4,a1,0x1e
    2d74:	20e54733          	sh2add	a4,a0,a4
    2d78:	00259693          	slli	a3,a1,0x2
    2d7c:	01071713          	slli	a4,a4,0x10
    2d80:	0106d693          	srli	a3,a3,0x10
    2d84:	00d706b3          	add	a3,a4,a3
    2d88:	f4a68693          	addi	a3,a3,-182
    2d8c:	41f6d613          	srai	a2,a3,0x1f
    2d90:	02b60633          	mul	a2,a2,a1
    2d94:	02d50733          	mul	a4,a0,a3
    2d98:	00e60633          	add	a2,a2,a4
    2d9c:	02b68733          	mul	a4,a3,a1
    2da0:	02b6b6b3          	mulhu	a3,a3,a1
    2da4:	00d606b3          	add	a3,a2,a3
    2da8:	01069693          	slli	a3,a3,0x10
    2dac:	01075713          	srli	a4,a4,0x10
    2db0:	00e68733          	add	a4,a3,a4
    2db4:	000036b7          	lui	a3,0x3
    2db8:	aab68693          	addi	a3,a3,-1365 # 2aab <inferenceTPG+0x1f5b>
    2dbc:	00d70733          	add	a4,a4,a3
    2dc0:	41f75693          	srai	a3,a4,0x1f
    2dc4:	02b686b3          	mul	a3,a3,a1
    2dc8:	02e50533          	mul	a0,a0,a4
    2dcc:	00a686b3          	add	a3,a3,a0
    2dd0:	02b70633          	mul	a2,a4,a1
    2dd4:	02b73733          	mulhu	a4,a4,a1
    2dd8:	00e68733          	add	a4,a3,a4
    2ddc:	01071713          	slli	a4,a4,0x10
    2de0:	01065693          	srli	a3,a2,0x10
    2de4:	00d706b3          	add	a3,a4,a3
    2de8:	00020737          	lui	a4,0x20
    2dec:	00e686b3          	add	a3,a3,a4
    2df0:	40f68633          	sub	a2,a3,a5
    2df4:	02f68c63          	beq	a3,a5,2e2c <inferenceTPG+0x22dc>
    2df8:	00f7d713          	srli	a4,a5,0xf
    2dfc:	01179793          	slli	a5,a5,0x11
    2e00:	01071713          	slli	a4,a4,0x10
    2e04:	0107d793          	srli	a5,a5,0x10
    2e08:	00f707b3          	add	a5,a4,a5
    2e0c:	41f7d713          	srai	a4,a5,0x1f
    2e10:	0107d593          	srli	a1,a5,0x10
    2e14:	01071713          	slli	a4,a4,0x10
    2e18:	41f65693          	srai	a3,a2,0x1f
    2e1c:	01079513          	slli	a0,a5,0x10
    2e20:	00e585b3          	add	a1,a1,a4
    2e24:	7b1080ef          	jal	bdd4 <__divdi3>
    2e28:	00050613          	mv	a2,a0
    2e2c:	000107b7          	lui	a5,0x10
    2e30:	00f606b3          	add	a3,a2,a5
    2e34:	400b4263          	bltz	s6,3238 <inferenceTPG+0x26e8>
    2e38:	410b5b13          	srai	s6,s6,0x10
    2e3c:	000107b7          	lui	a5,0x10
    2e40:	016797b3          	sll	a5,a5,s6
    2e44:	41f7db13          	srai	s6,a5,0x1f
    2e48:	41f6d713          	srai	a4,a3,0x1f
    2e4c:	02db0b33          	mul	s6,s6,a3
    2e50:	02f70733          	mul	a4,a4,a5
    2e54:	00eb0b33          	add	s6,s6,a4
    2e58:	02d78733          	mul	a4,a5,a3
    2e5c:	02d7b7b3          	mulhu	a5,a5,a3
    2e60:	00fb0b33          	add	s6,s6,a5
    2e64:	010b1b13          	slli	s6,s6,0x10
    2e68:	01075793          	srli	a5,a4,0x10
    2e6c:	00fb0b33          	add	s6,s6,a5
    2e70:	016a8b33          	add	s6,s5,s6
    2e74:	0044a783          	lw	a5,4(s1)
    2e78:	00fb07b3          	add	a5,s6,a5
    2e7c:	00078d13          	mv	s10,a5
    2e80:	004a2b83          	lw	s7,4(s4)
    2e84:	41700bb3          	neg	s7,s7
    2e88:	008a2683          	lw	a3,8(s4)
    2e8c:	00000613          	li	a2,0
    2e90:	2406c063          	bltz	a3,30d0 <inferenceTPG+0x2580>
    2e94:	3c068263          	beqz	a3,3258 <inferenceTPG+0x2708>
    2e98:	000207b7          	lui	a5,0x20
    2e9c:	3ad7da63          	bge	a5,a3,3250 <inferenceTPG+0x2700>
    2ea0:	00000a93          	li	s5,0
    2ea4:	4016d693          	srai	a3,a3,0x1
    2ea8:	001a8a93          	addi	s5,s5,1 # 10001 <i2c.c.57379e11+0x763>
    2eac:	fed7cce3          	blt	a5,a3,2ea4 <inferenceTPG+0x2354>
    2eb0:	ffff07b7          	lui	a5,0xffff0
    2eb4:	00f68b33          	add	s6,a3,a5
    2eb8:	41fb5793          	srai	a5,s6,0x1f
    2ebc:	010b5593          	srli	a1,s6,0x10
    2ec0:	01079793          	slli	a5,a5,0x10
    2ec4:	00010737          	lui	a4,0x10
    2ec8:	00e68633          	add	a2,a3,a4
    2ecc:	41f65693          	srai	a3,a2,0x1f
    2ed0:	010b1513          	slli	a0,s6,0x10
    2ed4:	00f585b3          	add	a1,a1,a5
    2ed8:	6fd080ef          	jal	bdd4 <__divdi3>
    2edc:	41f55593          	srai	a1,a0,0x1f
    2ee0:	02a587b3          	mul	a5,a1,a0
    2ee4:	02a50733          	mul	a4,a0,a0
    2ee8:	02a536b3          	mulhu	a3,a0,a0
    2eec:	20d7a7b3          	sh1add	a5,a5,a3
    2ef0:	01079793          	slli	a5,a5,0x10
    2ef4:	01075713          	srli	a4,a4,0x10
    2ef8:	00e78733          	add	a4,a5,a4
    2efc:	41f75313          	srai	t1,a4,0x1f
    2f00:	02e306b3          	mul	a3,t1,a4
    2f04:	02e707b3          	mul	a5,a4,a4
    2f08:	02e73633          	mulhu	a2,a4,a4
    2f0c:	20c6a6b3          	sh1add	a3,a3,a2
    2f10:	01069693          	slli	a3,a3,0x10
    2f14:	0107d793          	srli	a5,a5,0x10
    2f18:	00f687b3          	add	a5,a3,a5
    2f1c:	41f7d813          	srai	a6,a5,0x1f
    2f20:	010a9a93          	slli	s5,s5,0x10
    2f24:	41fad693          	srai	a3,s5,0x1f
    2f28:	0000b8b7          	lui	a7,0xb
    2f2c:	17288893          	addi	a7,a7,370 # b172 <__muldf3+0x176>
    2f30:	031686b3          	mul	a3,a3,a7
    2f34:	031a8633          	mul	a2,s5,a7
    2f38:	031abab3          	mulhu	s5,s5,a7
    2f3c:	015686b3          	add	a3,a3,s5
    2f40:	01069693          	slli	a3,a3,0x10
    2f44:	01065613          	srli	a2,a2,0x10
    2f48:	00c68633          	add	a2,a3,a2
    2f4c:	00cb0633          	add	a2,s6,a2
    2f50:	000028b7          	lui	a7,0x2
    2f54:	5e288893          	addi	a7,a7,1506 # 25e2 <inferenceTPG+0x1a92>
    2f58:	03180e33          	mul	t3,a6,a7
    2f5c:	031786b3          	mul	a3,a5,a7
    2f60:	0317b8b3          	mulhu	a7,a5,a7
    2f64:	011e08b3          	add	a7,t3,a7
    2f68:	01089893          	slli	a7,a7,0x10
    2f6c:	0106d693          	srli	a3,a3,0x10
    2f70:	00d886b3          	add	a3,a7,a3
    2f74:	000038b7          	lui	a7,0x3
    2f78:	e8d88893          	addi	a7,a7,-371 # 2e8d <inferenceTPG+0x233d>
    2f7c:	011686b3          	add	a3,a3,a7
    2f80:	41f6de13          	srai	t3,a3,0x1f
    2f84:	02fe0e33          	mul	t3,t3,a5
    2f88:	02d808b3          	mul	a7,a6,a3
    2f8c:	011e0e33          	add	t3,t3,a7
    2f90:	02f688b3          	mul	a7,a3,a5
    2f94:	02f6b6b3          	mulhu	a3,a3,a5
    2f98:	00de06b3          	add	a3,t3,a3
    2f9c:	01069693          	slli	a3,a3,0x10
    2fa0:	0108d893          	srli	a7,a7,0x10
    2fa4:	011688b3          	add	a7,a3,a7
    2fa8:	000056b7          	lui	a3,0x5
    2fac:	92568693          	addi	a3,a3,-1755 # 4925 <__heap_size+0x925>
    2fb0:	00d888b3          	add	a7,a7,a3
    2fb4:	41f8de13          	srai	t3,a7,0x1f
    2fb8:	02fe0e33          	mul	t3,t3,a5
    2fbc:	031806b3          	mul	a3,a6,a7
    2fc0:	00de0e33          	add	t3,t3,a3
    2fc4:	02f886b3          	mul	a3,a7,a5
    2fc8:	02f8b8b3          	mulhu	a7,a7,a5
    2fcc:	011e08b3          	add	a7,t3,a7
    2fd0:	01089893          	slli	a7,a7,0x10
    2fd4:	0106d693          	srli	a3,a3,0x10
    2fd8:	00d886b3          	add	a3,a7,a3
    2fdc:	0000b8b7          	lui	a7,0xb
    2fe0:	aab88893          	addi	a7,a7,-1365 # aaab <__divdf3+0x27f>
    2fe4:	011686b3          	add	a3,a3,a7
    2fe8:	41f6d893          	srai	a7,a3,0x1f
    2fec:	02e888b3          	mul	a7,a7,a4
    2ff0:	02d30333          	mul	t1,t1,a3
    2ff4:	00688333          	add	t1,a7,t1
    2ff8:	02e688b3          	mul	a7,a3,a4
    2ffc:	02e6b6b3          	mulhu	a3,a3,a4
    3000:	00d30733          	add	a4,t1,a3
    3004:	01071713          	slli	a4,a4,0x10
    3008:	0108d893          	srli	a7,a7,0x10
    300c:	011708b3          	add	a7,a4,a7
    3010:	00002737          	lui	a4,0x2
    3014:	73470713          	addi	a4,a4,1844 # 2734 <inferenceTPG+0x1be4>
    3018:	02e80333          	mul	t1,a6,a4
    301c:	02e786b3          	mul	a3,a5,a4
    3020:	02e7b733          	mulhu	a4,a5,a4
    3024:	00e30733          	add	a4,t1,a4
    3028:	01071713          	slli	a4,a4,0x10
    302c:	0106d693          	srli	a3,a3,0x10
    3030:	00d706b3          	add	a3,a4,a3
    3034:	00004737          	lui	a4,0x4
    3038:	8e470713          	addi	a4,a4,-1820 # 38e4 <inferenceTPG+0x2d94>
    303c:	00e686b3          	add	a3,a3,a4
    3040:	41f6d313          	srai	t1,a3,0x1f
    3044:	02f30333          	mul	t1,t1,a5
    3048:	02d80733          	mul	a4,a6,a3
    304c:	00e30333          	add	t1,t1,a4
    3050:	02f68733          	mul	a4,a3,a5
    3054:	02f6b6b3          	mulhu	a3,a3,a5
    3058:	00d306b3          	add	a3,t1,a3
    305c:	01069693          	slli	a3,a3,0x10
    3060:	01075713          	srli	a4,a4,0x10
    3064:	00e68733          	add	a4,a3,a4
    3068:	000066b7          	lui	a3,0x6
    306c:	66668693          	addi	a3,a3,1638 # 6666 <__heap_size+0x2666>
    3070:	00d70733          	add	a4,a4,a3
    3074:	41f75693          	srai	a3,a4,0x1f
    3078:	02f686b3          	mul	a3,a3,a5
    307c:	02e80833          	mul	a6,a6,a4
    3080:	010686b3          	add	a3,a3,a6
    3084:	02f70833          	mul	a6,a4,a5
    3088:	02f73733          	mulhu	a4,a4,a5
    308c:	00e687b3          	add	a5,a3,a4
    3090:	01079793          	slli	a5,a5,0x10
    3094:	01085713          	srli	a4,a6,0x10
    3098:	00e78733          	add	a4,a5,a4
    309c:	00e888b3          	add	a7,a7,a4
    30a0:	411b07b3          	sub	a5,s6,a7
    30a4:	41f7d713          	srai	a4,a5,0x1f
    30a8:	02a70733          	mul	a4,a4,a0
    30ac:	02f585b3          	mul	a1,a1,a5
    30b0:	00b70733          	add	a4,a4,a1
    30b4:	02a786b3          	mul	a3,a5,a0
    30b8:	02a7b7b3          	mulhu	a5,a5,a0
    30bc:	00f707b3          	add	a5,a4,a5
    30c0:	01079793          	slli	a5,a5,0x10
    30c4:	0106d713          	srli	a4,a3,0x10
    30c8:	00e78733          	add	a4,a5,a4
    30cc:	40e60633          	sub	a2,a2,a4
    30d0:	0089a683          	lw	a3,8(s3)
    30d4:	517cd7b7          	lui	a5,0x517cd
    30d8:	c8378793          	addi	a5,a5,-893 # 517ccc83 <_sp+0x517a1c43>
    30dc:	02f697b3          	mulh	a5,a3,a5
    30e0:	4117d793          	srai	a5,a5,0x11
    30e4:	41f6d713          	srai	a4,a3,0x1f
    30e8:	40e787b3          	sub	a5,a5,a4
    30ec:	00065737          	lui	a4,0x65
    30f0:	87e70713          	addi	a4,a4,-1922 # 6487e <_sp+0x3983e>
    30f4:	02e787b3          	mul	a5,a5,a4
    30f8:	40f687b3          	sub	a5,a3,a5
    30fc:	1607c263          	bltz	a5,3260 <inferenceTPG+0x2710>
    3100:	fffe7737          	lui	a4,0xfffe7
    3104:	ddf70713          	addi	a4,a4,-545 # fffe6ddf <_sp+0xfffbbd9f>
    3108:	00e78733          	add	a4,a5,a4
    310c:	000196b7          	lui	a3,0x19
    3110:	21e68693          	addi	a3,a3,542 # 1921e <heap.cpp.6b15d6f6+0x3b65>
    3114:	14e6ee63          	bltu	a3,a4,3270 <inferenceTPG+0x2720>
    3118:	00032737          	lui	a4,0x32
    311c:	43f70713          	addi	a4,a4,1087 # 3243f <_sp+0x73ff>
    3120:	40f707b3          	sub	a5,a4,a5
    3124:	00100593          	li	a1,1
    3128:	41f7d813          	srai	a6,a5,0x1f
    312c:	02f80733          	mul	a4,a6,a5
    3130:	02f788b3          	mul	a7,a5,a5
    3134:	02f7b6b3          	mulhu	a3,a5,a5
    3138:	20d72733          	sh1add	a4,a4,a3
    313c:	01071713          	slli	a4,a4,0x10
    3140:	0108d893          	srli	a7,a7,0x10
    3144:	011708b3          	add	a7,a4,a7
    3148:	41f8d313          	srai	t1,a7,0x1f
    314c:	1f300513          	li	a0,499
    3150:	02a30733          	mul	a4,t1,a0
    3154:	02a886b3          	mul	a3,a7,a0
    3158:	02a8b533          	mulhu	a0,a7,a0
    315c:	00a70733          	add	a4,a4,a0
    3160:	01071713          	slli	a4,a4,0x10
    3164:	0106d693          	srli	a3,a3,0x10
    3168:	00d706b3          	add	a3,a4,a3
    316c:	ffffd737          	lui	a4,0xffffd
    3170:	57e70713          	addi	a4,a4,1406 # ffffd57e <_sp+0xfffd253e>
    3174:	00e686b3          	add	a3,a3,a4
    3178:	41f6d513          	srai	a0,a3,0x1f
    317c:	03150533          	mul	a0,a0,a7
    3180:	02d30333          	mul	t1,t1,a3
    3184:	00650533          	add	a0,a0,t1
    3188:	03168733          	mul	a4,a3,a7
    318c:	0316b6b3          	mulhu	a3,a3,a7
    3190:	00d506b3          	add	a3,a0,a3
    3194:	01069693          	slli	a3,a3,0x10
    3198:	01075713          	srli	a4,a4,0x10
    319c:	00e68733          	add	a4,a3,a4
    31a0:	000106b7          	lui	a3,0x10
    31a4:	00d70733          	add	a4,a4,a3
    31a8:	41f75693          	srai	a3,a4,0x1f
    31ac:	02f686b3          	mul	a3,a3,a5
    31b0:	02e80833          	mul	a6,a6,a4
    31b4:	010686b3          	add	a3,a3,a6
    31b8:	02f70533          	mul	a0,a4,a5
    31bc:	02f73733          	mulhu	a4,a4,a5
    31c0:	00e687b3          	add	a5,a3,a4
    31c4:	01079793          	slli	a5,a5,0x10
    31c8:	01055713          	srli	a4,a0,0x10
    31cc:	00e78733          	add	a4,a5,a4
    31d0:	02e585b3          	mul	a1,a1,a4
    31d4:	018585b3          	add	a1,a1,s8
    31d8:	00100793          	li	a5,1
    31dc:	01abd663          	bge	s7,s10,31e8 <inferenceTPG+0x2698>
    31e0:	000d0b93          	mv	s7,s10
    31e4:	00000793          	li	a5,0
    31e8:	0d765c63          	bge	a2,s7,32c0 <inferenceTPG+0x2770>
    31ec:	000b8613          	mv	a2,s7
    31f0:	00c5c463          	blt	a1,a2,31f8 <inferenceTPG+0x26a8>
    31f4:	00300793          	li	a5,3
    31f8:	00020737          	lui	a4,0x20
    31fc:	000206b7          	lui	a3,0x20
    3200:	0ec68693          	addi	a3,a3,236 # 200ec <next.13>
    3204:	20d7c7b3          	sh2add	a5,a5,a3
    3208:	0007a783          	lw	a5,0(a5)
    320c:	14470713          	addi	a4,a4,324 # 20144 <jump_table.23>
    3210:	20e7c7b3          	sh2add	a5,a5,a4
    3214:	0007a783          	lw	a5,0(a5)
    3218:	985fd06f          	j	b9c <inferenceTPG+0x4c>
    321c:	000a8693          	mv	a3,s5
    3220:	00000b93          	li	s7,0
    3224:	865ff06f          	j	2a88 <inferenceTPG+0x1f38>
    3228:	fff00713          	li	a4,-1
    322c:	a7dff06f          	j	2ca8 <inferenceTPG+0x2158>
    3230:	41600b33          	neg	s6,s6
    3234:	aedff06f          	j	2d20 <inferenceTPG+0x21d0>
    3238:	41600733          	neg	a4,s6
    323c:	41075713          	srai	a4,a4,0x10
    3240:	40e7d7b3          	sra	a5,a5,a4
    3244:	c01ff06f          	j	2e44 <inferenceTPG+0x22f4>
    3248:	00010b37          	lui	s6,0x10
    324c:	c25ff06f          	j	2e70 <inferenceTPG+0x2320>
    3250:	00000a93          	li	s5,0
    3254:	c5dff06f          	j	2eb0 <inferenceTPG+0x2360>
    3258:	fff00613          	li	a2,-1
    325c:	e75ff06f          	j	30d0 <inferenceTPG+0x2580>
    3260:	00065737          	lui	a4,0x65
    3264:	87e70713          	addi	a4,a4,-1922 # 6487e <_sp+0x3983e>
    3268:	00e787b3          	add	a5,a5,a4
    326c:	e95ff06f          	j	3100 <inferenceTPG+0x25b0>
    3270:	fffce737          	lui	a4,0xfffce
    3274:	bc070713          	addi	a4,a4,-1088 # fffcdbc0 <_sp+0xfffa2b80>
    3278:	00e78733          	add	a4,a5,a4
    327c:	000196b7          	lui	a3,0x19
    3280:	21f68693          	addi	a3,a3,543 # 1921f <heap.cpp.6b15d6f6+0x3b66>
    3284:	00e6ec63          	bltu	a3,a4,329c <inferenceTPG+0x274c>
    3288:	fffce737          	lui	a4,0xfffce
    328c:	bc170713          	addi	a4,a4,-1087 # fffcdbc1 <_sp+0xfffa2b81>
    3290:	00e787b3          	add	a5,a5,a4
    3294:	fff00593          	li	a1,-1
    3298:	e91ff06f          	j	3128 <inferenceTPG+0x25d8>
    329c:	0004b737          	lui	a4,0x4b
    32a0:	65f70713          	addi	a4,a4,1631 # 4b65f <_sp+0x2061f>
    32a4:	00100593          	li	a1,1
    32a8:	e8f750e3          	bge	a4,a5,3128 <inferenceTPG+0x25d8>
    32ac:	00065737          	lui	a4,0x65
    32b0:	87e70713          	addi	a4,a4,-1922 # 6487e <_sp+0x3983e>
    32b4:	40f707b3          	sub	a5,a4,a5
    32b8:	fff00593          	li	a1,-1
    32bc:	e6dff06f          	j	3128 <inferenceTPG+0x25d8>
    32c0:	00200793          	li	a5,2
    32c4:	f2dff06f          	j	31f0 <inferenceTPG+0x26a0>
    32c8:	09b12023          	sw	s11,128(sp)
    32cc:	00492783          	lw	a5,4(s2)
    32d0:	0049a703          	lw	a4,4(s3)
    32d4:	00070d13          	mv	s10,a4
    32d8:	0ae7e733          	max	a4,a5,a4
    32dc:	00070d93          	mv	s11,a4
    32e0:	00010b37          	lui	s6,0x10
    32e4:	18078c63          	beqz	a5,347c <inferenceTPG+0x292c>
    32e8:	40f006b3          	neg	a3,a5
    32ec:	0ad7e6b3          	max	a3,a5,a3
    32f0:	41f6d713          	srai	a4,a3,0x1f
    32f4:	00017637          	lui	a2,0x17
    32f8:	15460613          	addi	a2,a2,340 # 17154 <heap.cpp.6b15d6f6+0x1a9b>
    32fc:	02c70733          	mul	a4,a4,a2
    3300:	02c68ab3          	mul	s5,a3,a2
    3304:	02c6b6b3          	mulhu	a3,a3,a2
    3308:	00d70733          	add	a4,a4,a3
    330c:	01071713          	slli	a4,a4,0x10
    3310:	010ada93          	srli	s5,s5,0x10
    3314:	01570ab3          	add	s5,a4,s5
    3318:	00008737          	lui	a4,0x8
    331c:	00ea8ab3          	add	s5,s5,a4
    3320:	ffff0737          	lui	a4,0xffff0
    3324:	00eafab3          	and	s5,s5,a4
    3328:	5c07c063          	bltz	a5,38e8 <inferenceTPG+0x2d98>
    332c:	41fad713          	srai	a4,s5,0x1f
    3330:	0000b6b7          	lui	a3,0xb
    3334:	17268693          	addi	a3,a3,370 # b172 <__muldf3+0x176>
    3338:	02d70733          	mul	a4,a4,a3
    333c:	02da8633          	mul	a2,s5,a3
    3340:	02dab6b3          	mulhu	a3,s5,a3
    3344:	00d70733          	add	a4,a4,a3
    3348:	01071713          	slli	a4,a4,0x10
    334c:	01065693          	srli	a3,a2,0x10
    3350:	00d706b3          	add	a3,a4,a3
    3354:	40d787b3          	sub	a5,a5,a3
    3358:	41f7d713          	srai	a4,a5,0x1f
    335c:	02f70733          	mul	a4,a4,a5
    3360:	02f785b3          	mul	a1,a5,a5
    3364:	02f7b6b3          	mulhu	a3,a5,a5
    3368:	20d72733          	sh1add	a4,a4,a3
    336c:	01071713          	slli	a4,a4,0x10
    3370:	0105d593          	srli	a1,a1,0x10
    3374:	00b705b3          	add	a1,a4,a1
    3378:	41f5d513          	srai	a0,a1,0x1f
    337c:	01e5d713          	srli	a4,a1,0x1e
    3380:	20e54733          	sh2add	a4,a0,a4
    3384:	00259693          	slli	a3,a1,0x2
    3388:	01071713          	slli	a4,a4,0x10
    338c:	0106d693          	srli	a3,a3,0x10
    3390:	00d706b3          	add	a3,a4,a3
    3394:	f4a68693          	addi	a3,a3,-182
    3398:	41f6d613          	srai	a2,a3,0x1f
    339c:	02b60633          	mul	a2,a2,a1
    33a0:	02d50733          	mul	a4,a0,a3
    33a4:	00e60633          	add	a2,a2,a4
    33a8:	02b68733          	mul	a4,a3,a1
    33ac:	02b6b6b3          	mulhu	a3,a3,a1
    33b0:	00d606b3          	add	a3,a2,a3
    33b4:	01069693          	slli	a3,a3,0x10
    33b8:	01075713          	srli	a4,a4,0x10
    33bc:	00e68733          	add	a4,a3,a4
    33c0:	000036b7          	lui	a3,0x3
    33c4:	aab68693          	addi	a3,a3,-1365 # 2aab <inferenceTPG+0x1f5b>
    33c8:	00d70733          	add	a4,a4,a3
    33cc:	41f75693          	srai	a3,a4,0x1f
    33d0:	02b686b3          	mul	a3,a3,a1
    33d4:	02e50533          	mul	a0,a0,a4
    33d8:	00a686b3          	add	a3,a3,a0
    33dc:	02b70633          	mul	a2,a4,a1
    33e0:	02b73733          	mulhu	a4,a4,a1
    33e4:	00e68733          	add	a4,a3,a4
    33e8:	01071713          	slli	a4,a4,0x10
    33ec:	01065693          	srli	a3,a2,0x10
    33f0:	00d706b3          	add	a3,a4,a3
    33f4:	00020737          	lui	a4,0x20
    33f8:	00e686b3          	add	a3,a3,a4
    33fc:	40f68633          	sub	a2,a3,a5
    3400:	02f68c63          	beq	a3,a5,3438 <inferenceTPG+0x28e8>
    3404:	00f7d713          	srli	a4,a5,0xf
    3408:	01179793          	slli	a5,a5,0x11
    340c:	01071713          	slli	a4,a4,0x10
    3410:	0107d793          	srli	a5,a5,0x10
    3414:	00f707b3          	add	a5,a4,a5
    3418:	41f7d713          	srai	a4,a5,0x1f
    341c:	0107d593          	srli	a1,a5,0x10
    3420:	01071713          	slli	a4,a4,0x10
    3424:	41f65693          	srai	a3,a2,0x1f
    3428:	01079513          	slli	a0,a5,0x10
    342c:	00e585b3          	add	a1,a1,a4
    3430:	1a5080ef          	jal	bdd4 <__divdi3>
    3434:	00050613          	mv	a2,a0
    3438:	000107b7          	lui	a5,0x10
    343c:	00f606b3          	add	a3,a2,a5
    3440:	4a0ac863          	bltz	s5,38f0 <inferenceTPG+0x2da0>
    3444:	410ada93          	srai	s5,s5,0x10
    3448:	000107b7          	lui	a5,0x10
    344c:	015797b3          	sll	a5,a5,s5
    3450:	41f7db13          	srai	s6,a5,0x1f
    3454:	41f6d713          	srai	a4,a3,0x1f
    3458:	02db0b33          	mul	s6,s6,a3
    345c:	02f70733          	mul	a4,a4,a5
    3460:	00eb0b33          	add	s6,s6,a4
    3464:	02d78733          	mul	a4,a5,a3
    3468:	02d7b7b3          	mulhu	a5,a5,a3
    346c:	00fb0b33          	add	s6,s6,a5
    3470:	010b1b13          	slli	s6,s6,0x10
    3474:	01075793          	srli	a5,a4,0x10
    3478:	00fb0b33          	add	s6,s6,a5
    347c:	0004ac03          	lw	s8,0(s1)
    3480:	480c4a63          	bltz	s8,3914 <inferenceTPG+0x2dc4>
    3484:	480c0463          	beqz	s8,390c <inferenceTPG+0x2dbc>
    3488:	000207b7          	lui	a5,0x20
    348c:	4787da63          	bge	a5,s8,3900 <inferenceTPG+0x2db0>
    3490:	000c0693          	mv	a3,s8
    3494:	00000a93          	li	s5,0
    3498:	4016d693          	srai	a3,a3,0x1
    349c:	001a8a93          	addi	s5,s5,1
    34a0:	fed7cce3          	blt	a5,a3,3498 <inferenceTPG+0x2948>
    34a4:	ffff0bb7          	lui	s7,0xffff0
    34a8:	01768bb3          	add	s7,a3,s7
    34ac:	41fbd793          	srai	a5,s7,0x1f
    34b0:	010bd593          	srli	a1,s7,0x10
    34b4:	01079793          	slli	a5,a5,0x10
    34b8:	00010737          	lui	a4,0x10
    34bc:	00e68633          	add	a2,a3,a4
    34c0:	41f65693          	srai	a3,a2,0x1f
    34c4:	010b9513          	slli	a0,s7,0x10
    34c8:	00f585b3          	add	a1,a1,a5
    34cc:	109080ef          	jal	bdd4 <__divdi3>
    34d0:	41f55593          	srai	a1,a0,0x1f
    34d4:	02a587b3          	mul	a5,a1,a0
    34d8:	02a50733          	mul	a4,a0,a0
    34dc:	02a536b3          	mulhu	a3,a0,a0
    34e0:	20d7a7b3          	sh1add	a5,a5,a3
    34e4:	01079793          	slli	a5,a5,0x10
    34e8:	01075713          	srli	a4,a4,0x10
    34ec:	00e78733          	add	a4,a5,a4
    34f0:	41f75313          	srai	t1,a4,0x1f
    34f4:	02e306b3          	mul	a3,t1,a4
    34f8:	02e707b3          	mul	a5,a4,a4
    34fc:	02e73633          	mulhu	a2,a4,a4
    3500:	20c6a6b3          	sh1add	a3,a3,a2
    3504:	01069693          	slli	a3,a3,0x10
    3508:	0107d793          	srli	a5,a5,0x10
    350c:	00f687b3          	add	a5,a3,a5
    3510:	41f7d813          	srai	a6,a5,0x1f
    3514:	010a9a93          	slli	s5,s5,0x10
    3518:	41fad613          	srai	a2,s5,0x1f
    351c:	0000b8b7          	lui	a7,0xb
    3520:	17288893          	addi	a7,a7,370 # b172 <__muldf3+0x176>
    3524:	03160633          	mul	a2,a2,a7
    3528:	031a86b3          	mul	a3,s5,a7
    352c:	031abab3          	mulhu	s5,s5,a7
    3530:	01560633          	add	a2,a2,s5
    3534:	01061613          	slli	a2,a2,0x10
    3538:	0106d693          	srli	a3,a3,0x10
    353c:	00d606b3          	add	a3,a2,a3
    3540:	00db86b3          	add	a3,s7,a3
    3544:	000028b7          	lui	a7,0x2
    3548:	5e288893          	addi	a7,a7,1506 # 25e2 <inferenceTPG+0x1a92>
    354c:	03180e33          	mul	t3,a6,a7
    3550:	03178633          	mul	a2,a5,a7
    3554:	0317b8b3          	mulhu	a7,a5,a7
    3558:	011e08b3          	add	a7,t3,a7
    355c:	01089893          	slli	a7,a7,0x10
    3560:	01065613          	srli	a2,a2,0x10
    3564:	00c88633          	add	a2,a7,a2
    3568:	000038b7          	lui	a7,0x3
    356c:	e8d88893          	addi	a7,a7,-371 # 2e8d <inferenceTPG+0x233d>
    3570:	01160633          	add	a2,a2,a7
    3574:	41f65e13          	srai	t3,a2,0x1f
    3578:	02fe0e33          	mul	t3,t3,a5
    357c:	02c808b3          	mul	a7,a6,a2
    3580:	011e0e33          	add	t3,t3,a7
    3584:	02f608b3          	mul	a7,a2,a5
    3588:	02f63633          	mulhu	a2,a2,a5
    358c:	00ce0633          	add	a2,t3,a2
    3590:	01061613          	slli	a2,a2,0x10
    3594:	0108d893          	srli	a7,a7,0x10
    3598:	011608b3          	add	a7,a2,a7
    359c:	00005637          	lui	a2,0x5
    35a0:	92560613          	addi	a2,a2,-1755 # 4925 <__heap_size+0x925>
    35a4:	00c888b3          	add	a7,a7,a2
    35a8:	41f8de13          	srai	t3,a7,0x1f
    35ac:	02fe0e33          	mul	t3,t3,a5
    35b0:	03180633          	mul	a2,a6,a7
    35b4:	00ce0e33          	add	t3,t3,a2
    35b8:	02f88633          	mul	a2,a7,a5
    35bc:	02f8b8b3          	mulhu	a7,a7,a5
    35c0:	011e08b3          	add	a7,t3,a7
    35c4:	01089893          	slli	a7,a7,0x10
    35c8:	01065613          	srli	a2,a2,0x10
    35cc:	00c88633          	add	a2,a7,a2
    35d0:	0000b8b7          	lui	a7,0xb
    35d4:	aab88893          	addi	a7,a7,-1365 # aaab <__divdf3+0x27f>
    35d8:	01160633          	add	a2,a2,a7
    35dc:	41f65893          	srai	a7,a2,0x1f
    35e0:	02e888b3          	mul	a7,a7,a4
    35e4:	02c30333          	mul	t1,t1,a2
    35e8:	00688333          	add	t1,a7,t1
    35ec:	02e608b3          	mul	a7,a2,a4
    35f0:	02e63633          	mulhu	a2,a2,a4
    35f4:	00c30733          	add	a4,t1,a2
    35f8:	01071713          	slli	a4,a4,0x10
    35fc:	0108d893          	srli	a7,a7,0x10
    3600:	011708b3          	add	a7,a4,a7
    3604:	00002737          	lui	a4,0x2
    3608:	73470713          	addi	a4,a4,1844 # 2734 <inferenceTPG+0x1be4>
    360c:	02e80333          	mul	t1,a6,a4
    3610:	02e78633          	mul	a2,a5,a4
    3614:	02e7b733          	mulhu	a4,a5,a4
    3618:	00e30733          	add	a4,t1,a4
    361c:	01071713          	slli	a4,a4,0x10
    3620:	01065613          	srli	a2,a2,0x10
    3624:	00c70633          	add	a2,a4,a2
    3628:	00004737          	lui	a4,0x4
    362c:	8e470713          	addi	a4,a4,-1820 # 38e4 <inferenceTPG+0x2d94>
    3630:	00e60633          	add	a2,a2,a4
    3634:	41f65313          	srai	t1,a2,0x1f
    3638:	02f30333          	mul	t1,t1,a5
    363c:	02c80733          	mul	a4,a6,a2
    3640:	00e30333          	add	t1,t1,a4
    3644:	02f60733          	mul	a4,a2,a5
    3648:	02f63633          	mulhu	a2,a2,a5
    364c:	00c30633          	add	a2,t1,a2
    3650:	01061613          	slli	a2,a2,0x10
    3654:	01075713          	srli	a4,a4,0x10
    3658:	00e60733          	add	a4,a2,a4
    365c:	00006637          	lui	a2,0x6
    3660:	66660613          	addi	a2,a2,1638 # 6666 <__heap_size+0x2666>
    3664:	00c70733          	add	a4,a4,a2
    3668:	41f75613          	srai	a2,a4,0x1f
    366c:	02f60633          	mul	a2,a2,a5
    3670:	02e80833          	mul	a6,a6,a4
    3674:	01060633          	add	a2,a2,a6
    3678:	02f70833          	mul	a6,a4,a5
    367c:	02f73733          	mulhu	a4,a4,a5
    3680:	00e607b3          	add	a5,a2,a4
    3684:	01079793          	slli	a5,a5,0x10
    3688:	01085713          	srli	a4,a6,0x10
    368c:	00e78733          	add	a4,a5,a4
    3690:	00e888b3          	add	a7,a7,a4
    3694:	411b8bb3          	sub	s7,s7,a7
    3698:	41fbd793          	srai	a5,s7,0x1f
    369c:	02a787b3          	mul	a5,a5,a0
    36a0:	037585b3          	mul	a1,a1,s7
    36a4:	00b787b3          	add	a5,a5,a1
    36a8:	02ab8733          	mul	a4,s7,a0
    36ac:	02abbbb3          	mulhu	s7,s7,a0
    36b0:	017787b3          	add	a5,a5,s7
    36b4:	01079793          	slli	a5,a5,0x10
    36b8:	01075713          	srli	a4,a4,0x10
    36bc:	00e78733          	add	a4,a5,a4
    36c0:	40e686b3          	sub	a3,a3,a4
    36c4:	0084a703          	lw	a4,8(s1)
    36c8:	41f75793          	srai	a5,a4,0x1f
    36cc:	41f6d613          	srai	a2,a3,0x1f
    36d0:	02d787b3          	mul	a5,a5,a3
    36d4:	02e60633          	mul	a2,a2,a4
    36d8:	00c787b3          	add	a5,a5,a2
    36dc:	02d70633          	mul	a2,a4,a3
    36e0:	02d73733          	mulhu	a4,a4,a3
    36e4:	00e787b3          	add	a5,a5,a4
    36e8:	01079793          	slli	a5,a5,0x10
    36ec:	01065713          	srli	a4,a2,0x10
    36f0:	00e787b3          	add	a5,a5,a4
    36f4:	22078063          	beqz	a5,3914 <inferenceTPG+0x2dc4>
    36f8:	40f006b3          	neg	a3,a5
    36fc:	0ad7e6b3          	max	a3,a5,a3
    3700:	41f6d713          	srai	a4,a3,0x1f
    3704:	00017637          	lui	a2,0x17
    3708:	15460613          	addi	a2,a2,340 # 17154 <heap.cpp.6b15d6f6+0x1a9b>
    370c:	02c70733          	mul	a4,a4,a2
    3710:	02c68ab3          	mul	s5,a3,a2
    3714:	02c6b6b3          	mulhu	a3,a3,a2
    3718:	00d70733          	add	a4,a4,a3
    371c:	01071713          	slli	a4,a4,0x10
    3720:	010ada93          	srli	s5,s5,0x10
    3724:	01570ab3          	add	s5,a4,s5
    3728:	00008737          	lui	a4,0x8
    372c:	00ea8ab3          	add	s5,s5,a4
    3730:	ffff0737          	lui	a4,0xffff0
    3734:	00eafab3          	and	s5,s5,a4
    3738:	1e07c263          	bltz	a5,391c <inferenceTPG+0x2dcc>
    373c:	41fad713          	srai	a4,s5,0x1f
    3740:	0000b6b7          	lui	a3,0xb
    3744:	17268693          	addi	a3,a3,370 # b172 <__muldf3+0x176>
    3748:	02d70733          	mul	a4,a4,a3
    374c:	02da8633          	mul	a2,s5,a3
    3750:	02dab6b3          	mulhu	a3,s5,a3
    3754:	00d70733          	add	a4,a4,a3
    3758:	01071713          	slli	a4,a4,0x10
    375c:	01065693          	srli	a3,a2,0x10
    3760:	00d706b3          	add	a3,a4,a3
    3764:	40d787b3          	sub	a5,a5,a3
    3768:	41f7d713          	srai	a4,a5,0x1f
    376c:	02f70733          	mul	a4,a4,a5
    3770:	02f78633          	mul	a2,a5,a5
    3774:	02f7b6b3          	mulhu	a3,a5,a5
    3778:	20d72733          	sh1add	a4,a4,a3
    377c:	01071713          	slli	a4,a4,0x10
    3780:	01065613          	srli	a2,a2,0x10
    3784:	00c70633          	add	a2,a4,a2
    3788:	41f65513          	srai	a0,a2,0x1f
    378c:	01e65713          	srli	a4,a2,0x1e
    3790:	20e54733          	sh2add	a4,a0,a4
    3794:	00261693          	slli	a3,a2,0x2
    3798:	01071713          	slli	a4,a4,0x10
    379c:	0106d693          	srli	a3,a3,0x10
    37a0:	00d706b3          	add	a3,a4,a3
    37a4:	f4a68693          	addi	a3,a3,-182
    37a8:	41f6d593          	srai	a1,a3,0x1f
    37ac:	02c585b3          	mul	a1,a1,a2
    37b0:	02d50733          	mul	a4,a0,a3
    37b4:	00e585b3          	add	a1,a1,a4
    37b8:	02c68733          	mul	a4,a3,a2
    37bc:	02c6b6b3          	mulhu	a3,a3,a2
    37c0:	00d586b3          	add	a3,a1,a3
    37c4:	01069693          	slli	a3,a3,0x10
    37c8:	01075713          	srli	a4,a4,0x10
    37cc:	00e68733          	add	a4,a3,a4
    37d0:	000036b7          	lui	a3,0x3
    37d4:	aab68693          	addi	a3,a3,-1365 # 2aab <inferenceTPG+0x1f5b>
    37d8:	00d70733          	add	a4,a4,a3
    37dc:	41f75693          	srai	a3,a4,0x1f
    37e0:	02c686b3          	mul	a3,a3,a2
    37e4:	02e50533          	mul	a0,a0,a4
    37e8:	00a686b3          	add	a3,a3,a0
    37ec:	02c705b3          	mul	a1,a4,a2
    37f0:	02c73733          	mulhu	a4,a4,a2
    37f4:	00e68733          	add	a4,a3,a4
    37f8:	01071713          	slli	a4,a4,0x10
    37fc:	0105d693          	srli	a3,a1,0x10
    3800:	00d706b3          	add	a3,a4,a3
    3804:	00020737          	lui	a4,0x20
    3808:	00e686b3          	add	a3,a3,a4
    380c:	40f68633          	sub	a2,a3,a5
    3810:	02f68c63          	beq	a3,a5,3848 <inferenceTPG+0x2cf8>
    3814:	00f7d713          	srli	a4,a5,0xf
    3818:	01179793          	slli	a5,a5,0x11
    381c:	01071713          	slli	a4,a4,0x10
    3820:	0107d793          	srli	a5,a5,0x10
    3824:	00f707b3          	add	a5,a4,a5
    3828:	41f7d713          	srai	a4,a5,0x1f
    382c:	0107d593          	srli	a1,a5,0x10
    3830:	01071713          	slli	a4,a4,0x10
    3834:	41f65693          	srai	a3,a2,0x1f
    3838:	01079513          	slli	a0,a5,0x10
    383c:	00e585b3          	add	a1,a1,a4
    3840:	594080ef          	jal	bdd4 <__divdi3>
    3844:	00050613          	mv	a2,a0
    3848:	000107b7          	lui	a5,0x10
    384c:	00f606b3          	add	a3,a2,a5
    3850:	0c0aca63          	bltz	s5,3924 <inferenceTPG+0x2dd4>
    3854:	410ada93          	srai	s5,s5,0x10
    3858:	00010737          	lui	a4,0x10
    385c:	01571733          	sll	a4,a4,s5
    3860:	41f75793          	srai	a5,a4,0x1f
    3864:	41f6d613          	srai	a2,a3,0x1f
    3868:	02d787b3          	mul	a5,a5,a3
    386c:	02e60633          	mul	a2,a2,a4
    3870:	00c787b3          	add	a5,a5,a2
    3874:	02d70633          	mul	a2,a4,a3
    3878:	02d73733          	mulhu	a4,a4,a3
    387c:	00e787b3          	add	a5,a5,a4
    3880:	01079793          	slli	a5,a5,0x10
    3884:	01065713          	srli	a4,a2,0x10
    3888:	00e787b3          	add	a5,a5,a4
    388c:	00fc07b3          	add	a5,s8,a5
    3890:	0044a703          	lw	a4,4(s1)
    3894:	00e787b3          	add	a5,a5,a4
    3898:	00092703          	lw	a4,0(s2)
    389c:	0aed66b3          	max	a3,s10,a4
    38a0:	00100713          	li	a4,1
    38a4:	01bb5663          	bge	s6,s11,38b0 <inferenceTPG+0x2d60>
    38a8:	000d8b13          	mv	s6,s11
    38ac:	00000713          	li	a4,0
    38b0:	0967d463          	bge	a5,s6,3938 <inferenceTPG+0x2de8>
    38b4:	000b0793          	mv	a5,s6
    38b8:	00f6c463          	blt	a3,a5,38c0 <inferenceTPG+0x2d70>
    38bc:	00300713          	li	a4,3
    38c0:	000206b7          	lui	a3,0x20
    38c4:	000207b7          	lui	a5,0x20
    38c8:	0dc78793          	addi	a5,a5,220 # 200dc <next.12>
    38cc:	20f74733          	sh2add	a4,a4,a5
    38d0:	00072783          	lw	a5,0(a4) # 10000 <i2c.c.57379e11+0x762>
    38d4:	14468713          	addi	a4,a3,324 # 20144 <jump_table.23>
    38d8:	20e7c7b3          	sh2add	a5,a5,a4
    38dc:	0007a783          	lw	a5,0(a5)
    38e0:	08012d83          	lw	s11,128(sp)
    38e4:	ab8fd06f          	j	b9c <inferenceTPG+0x4c>
    38e8:	41500ab3          	neg	s5,s5
    38ec:	a41ff06f          	j	332c <inferenceTPG+0x27dc>
    38f0:	41500733          	neg	a4,s5
    38f4:	41075713          	srai	a4,a4,0x10
    38f8:	40e7d7b3          	sra	a5,a5,a4
    38fc:	b55ff06f          	j	3450 <inferenceTPG+0x2900>
    3900:	000c0693          	mv	a3,s8
    3904:	00000a93          	li	s5,0
    3908:	b9dff06f          	j	34a4 <inferenceTPG+0x2954>
    390c:	fff00693          	li	a3,-1
    3910:	db5ff06f          	j	36c4 <inferenceTPG+0x2b74>
    3914:	000107b7          	lui	a5,0x10
    3918:	f75ff06f          	j	388c <inferenceTPG+0x2d3c>
    391c:	41500ab3          	neg	s5,s5
    3920:	e1dff06f          	j	373c <inferenceTPG+0x2bec>
    3924:	415007b3          	neg	a5,s5
    3928:	4107d793          	srai	a5,a5,0x10
    392c:	00010737          	lui	a4,0x10
    3930:	40f75733          	sra	a4,a4,a5
    3934:	f2dff06f          	j	3860 <inferenceTPG+0x2d10>
    3938:	00200713          	li	a4,2
    393c:	f7dff06f          	j	38b8 <inferenceTPG+0x2d68>
    3940:	09b12023          	sw	s11,128(sp)
    3944:	0049a783          	lw	a5,4(s3)
    3948:	00492703          	lw	a4,4(s2)
    394c:	0ae7e733          	max	a4,a5,a4
    3950:	00e12423          	sw	a4,8(sp)
    3954:	00092703          	lw	a4,0(s2)
    3958:	0ae7e7b3          	max	a5,a5,a4
    395c:	00078d13          	mv	s10,a5
    3960:	00c92783          	lw	a5,12(s2)
    3964:	00010b37          	lui	s6,0x10
    3968:	18078c63          	beqz	a5,3b00 <inferenceTPG+0x2fb0>
    396c:	40f006b3          	neg	a3,a5
    3970:	0ad7e6b3          	max	a3,a5,a3
    3974:	41f6d713          	srai	a4,a3,0x1f
    3978:	00017637          	lui	a2,0x17
    397c:	15460613          	addi	a2,a2,340 # 17154 <heap.cpp.6b15d6f6+0x1a9b>
    3980:	02c70733          	mul	a4,a4,a2
    3984:	02c68ab3          	mul	s5,a3,a2
    3988:	02c6b6b3          	mulhu	a3,a3,a2
    398c:	00d70733          	add	a4,a4,a3
    3990:	01071713          	slli	a4,a4,0x10
    3994:	010ada93          	srli	s5,s5,0x10
    3998:	01570ab3          	add	s5,a4,s5
    399c:	00008737          	lui	a4,0x8
    39a0:	00ea8ab3          	add	s5,s5,a4
    39a4:	ffff0737          	lui	a4,0xffff0
    39a8:	00eafab3          	and	s5,s5,a4
    39ac:	5c07c263          	bltz	a5,3f70 <inferenceTPG+0x3420>
    39b0:	41fad713          	srai	a4,s5,0x1f
    39b4:	0000b6b7          	lui	a3,0xb
    39b8:	17268693          	addi	a3,a3,370 # b172 <__muldf3+0x176>
    39bc:	02d70733          	mul	a4,a4,a3
    39c0:	02da8633          	mul	a2,s5,a3
    39c4:	02dab6b3          	mulhu	a3,s5,a3
    39c8:	00d70733          	add	a4,a4,a3
    39cc:	01071713          	slli	a4,a4,0x10
    39d0:	01065693          	srli	a3,a2,0x10
    39d4:	00d706b3          	add	a3,a4,a3
    39d8:	40d787b3          	sub	a5,a5,a3
    39dc:	41f7d713          	srai	a4,a5,0x1f
    39e0:	02f70733          	mul	a4,a4,a5
    39e4:	02f785b3          	mul	a1,a5,a5
    39e8:	02f7b6b3          	mulhu	a3,a5,a5
    39ec:	20d72733          	sh1add	a4,a4,a3
    39f0:	01071713          	slli	a4,a4,0x10
    39f4:	0105d593          	srli	a1,a1,0x10
    39f8:	00b705b3          	add	a1,a4,a1
    39fc:	41f5d513          	srai	a0,a1,0x1f
    3a00:	01e5d713          	srli	a4,a1,0x1e
    3a04:	20e54733          	sh2add	a4,a0,a4
    3a08:	00259693          	slli	a3,a1,0x2
    3a0c:	01071713          	slli	a4,a4,0x10
    3a10:	0106d693          	srli	a3,a3,0x10
    3a14:	00d706b3          	add	a3,a4,a3
    3a18:	f4a68693          	addi	a3,a3,-182
    3a1c:	41f6d613          	srai	a2,a3,0x1f
    3a20:	02b60633          	mul	a2,a2,a1
    3a24:	02d50733          	mul	a4,a0,a3
    3a28:	00e60633          	add	a2,a2,a4
    3a2c:	02b68733          	mul	a4,a3,a1
    3a30:	02b6b6b3          	mulhu	a3,a3,a1
    3a34:	00d606b3          	add	a3,a2,a3
    3a38:	01069693          	slli	a3,a3,0x10
    3a3c:	01075713          	srli	a4,a4,0x10
    3a40:	00e68733          	add	a4,a3,a4
    3a44:	000036b7          	lui	a3,0x3
    3a48:	aab68693          	addi	a3,a3,-1365 # 2aab <inferenceTPG+0x1f5b>
    3a4c:	00d70733          	add	a4,a4,a3
    3a50:	41f75693          	srai	a3,a4,0x1f
    3a54:	02b686b3          	mul	a3,a3,a1
    3a58:	02e50533          	mul	a0,a0,a4
    3a5c:	00a686b3          	add	a3,a3,a0
    3a60:	02b70633          	mul	a2,a4,a1
    3a64:	02b73733          	mulhu	a4,a4,a1
    3a68:	00e68733          	add	a4,a3,a4
    3a6c:	01071713          	slli	a4,a4,0x10
    3a70:	01065693          	srli	a3,a2,0x10
    3a74:	00d706b3          	add	a3,a4,a3
    3a78:	00020737          	lui	a4,0x20
    3a7c:	00e686b3          	add	a3,a3,a4
    3a80:	40f68633          	sub	a2,a3,a5
    3a84:	02f68c63          	beq	a3,a5,3abc <inferenceTPG+0x2f6c>
    3a88:	00f7d713          	srli	a4,a5,0xf
    3a8c:	01179793          	slli	a5,a5,0x11
    3a90:	01071713          	slli	a4,a4,0x10
    3a94:	0107d793          	srli	a5,a5,0x10
    3a98:	00f707b3          	add	a5,a4,a5
    3a9c:	41f7d713          	srai	a4,a5,0x1f
    3aa0:	0107d593          	srli	a1,a5,0x10
    3aa4:	01071713          	slli	a4,a4,0x10
    3aa8:	41f65693          	srai	a3,a2,0x1f
    3aac:	01079513          	slli	a0,a5,0x10
    3ab0:	00e585b3          	add	a1,a1,a4
    3ab4:	320080ef          	jal	bdd4 <__divdi3>
    3ab8:	00050613          	mv	a2,a0
    3abc:	000107b7          	lui	a5,0x10
    3ac0:	00f606b3          	add	a3,a2,a5
    3ac4:	4a0aca63          	bltz	s5,3f78 <inferenceTPG+0x3428>
    3ac8:	410ada93          	srai	s5,s5,0x10
    3acc:	000107b7          	lui	a5,0x10
    3ad0:	015797b3          	sll	a5,a5,s5
    3ad4:	41f7db13          	srai	s6,a5,0x1f
    3ad8:	41f6d713          	srai	a4,a3,0x1f
    3adc:	02db0b33          	mul	s6,s6,a3
    3ae0:	02f70733          	mul	a4,a4,a5
    3ae4:	00eb0b33          	add	s6,s6,a4
    3ae8:	02d78733          	mul	a4,a5,a3
    3aec:	02d7b7b3          	mulhu	a5,a5,a3
    3af0:	00fb0b33          	add	s6,s6,a5
    3af4:	010b1b13          	slli	s6,s6,0x10
    3af8:	01075793          	srli	a5,a4,0x10
    3afc:	00fb0b33          	add	s6,s6,a5
    3b00:	0084ac03          	lw	s8,8(s1)
    3b04:	016c07b3          	add	a5,s8,s6
    3b08:	00078d93          	mv	s11,a5
    3b0c:	0004ab03          	lw	s6,0(s1)
    3b10:	480b4663          	bltz	s6,3f9c <inferenceTPG+0x344c>
    3b14:	480b0063          	beqz	s6,3f94 <inferenceTPG+0x3444>
    3b18:	000207b7          	lui	a5,0x20
    3b1c:	4767d663          	bge	a5,s6,3f88 <inferenceTPG+0x3438>
    3b20:	000b0693          	mv	a3,s6
    3b24:	00000a93          	li	s5,0
    3b28:	4016d693          	srai	a3,a3,0x1
    3b2c:	001a8a93          	addi	s5,s5,1
    3b30:	fed7cce3          	blt	a5,a3,3b28 <inferenceTPG+0x2fd8>
    3b34:	ffff0bb7          	lui	s7,0xffff0
    3b38:	01768bb3          	add	s7,a3,s7
    3b3c:	41fbd793          	srai	a5,s7,0x1f
    3b40:	010bd593          	srli	a1,s7,0x10
    3b44:	01079793          	slli	a5,a5,0x10
    3b48:	00010737          	lui	a4,0x10
    3b4c:	00e68633          	add	a2,a3,a4
    3b50:	41f65693          	srai	a3,a2,0x1f
    3b54:	010b9513          	slli	a0,s7,0x10
    3b58:	00f585b3          	add	a1,a1,a5
    3b5c:	278080ef          	jal	bdd4 <__divdi3>
    3b60:	41f55593          	srai	a1,a0,0x1f
    3b64:	02a587b3          	mul	a5,a1,a0
    3b68:	02a506b3          	mul	a3,a0,a0
    3b6c:	02a53733          	mulhu	a4,a0,a0
    3b70:	20e7a7b3          	sh1add	a5,a5,a4
    3b74:	01079793          	slli	a5,a5,0x10
    3b78:	0106d693          	srli	a3,a3,0x10
    3b7c:	00d786b3          	add	a3,a5,a3
    3b80:	41f6d313          	srai	t1,a3,0x1f
    3b84:	02d30733          	mul	a4,t1,a3
    3b88:	02d687b3          	mul	a5,a3,a3
    3b8c:	02d6b633          	mulhu	a2,a3,a3
    3b90:	20c72733          	sh1add	a4,a4,a2
    3b94:	01071713          	slli	a4,a4,0x10
    3b98:	0107d793          	srli	a5,a5,0x10
    3b9c:	00f707b3          	add	a5,a4,a5
    3ba0:	41f7d813          	srai	a6,a5,0x1f
    3ba4:	010a9a93          	slli	s5,s5,0x10
    3ba8:	41fad613          	srai	a2,s5,0x1f
    3bac:	0000b8b7          	lui	a7,0xb
    3bb0:	17288893          	addi	a7,a7,370 # b172 <__muldf3+0x176>
    3bb4:	03160633          	mul	a2,a2,a7
    3bb8:	031a8733          	mul	a4,s5,a7
    3bbc:	031abab3          	mulhu	s5,s5,a7
    3bc0:	01560633          	add	a2,a2,s5
    3bc4:	01061613          	slli	a2,a2,0x10
    3bc8:	01075713          	srli	a4,a4,0x10
    3bcc:	00e60733          	add	a4,a2,a4
    3bd0:	00eb8733          	add	a4,s7,a4
    3bd4:	000028b7          	lui	a7,0x2
    3bd8:	5e288893          	addi	a7,a7,1506 # 25e2 <inferenceTPG+0x1a92>
    3bdc:	03180e33          	mul	t3,a6,a7
    3be0:	03178633          	mul	a2,a5,a7
    3be4:	0317b8b3          	mulhu	a7,a5,a7
    3be8:	011e08b3          	add	a7,t3,a7
    3bec:	01089893          	slli	a7,a7,0x10
    3bf0:	01065613          	srli	a2,a2,0x10
    3bf4:	00c88633          	add	a2,a7,a2
    3bf8:	000038b7          	lui	a7,0x3
    3bfc:	e8d88893          	addi	a7,a7,-371 # 2e8d <inferenceTPG+0x233d>
    3c00:	01160633          	add	a2,a2,a7
    3c04:	41f65e13          	srai	t3,a2,0x1f
    3c08:	02fe0e33          	mul	t3,t3,a5
    3c0c:	02c808b3          	mul	a7,a6,a2
    3c10:	011e0e33          	add	t3,t3,a7
    3c14:	02f608b3          	mul	a7,a2,a5
    3c18:	02f63633          	mulhu	a2,a2,a5
    3c1c:	00ce0633          	add	a2,t3,a2
    3c20:	01061613          	slli	a2,a2,0x10
    3c24:	0108d893          	srli	a7,a7,0x10
    3c28:	011608b3          	add	a7,a2,a7
    3c2c:	00005637          	lui	a2,0x5
    3c30:	92560613          	addi	a2,a2,-1755 # 4925 <__heap_size+0x925>
    3c34:	00c888b3          	add	a7,a7,a2
    3c38:	41f8de13          	srai	t3,a7,0x1f
    3c3c:	02fe0e33          	mul	t3,t3,a5
    3c40:	03180633          	mul	a2,a6,a7
    3c44:	00ce0e33          	add	t3,t3,a2
    3c48:	02f88633          	mul	a2,a7,a5
    3c4c:	02f8b8b3          	mulhu	a7,a7,a5
    3c50:	011e08b3          	add	a7,t3,a7
    3c54:	01089893          	slli	a7,a7,0x10
    3c58:	01065613          	srli	a2,a2,0x10
    3c5c:	00c88633          	add	a2,a7,a2
    3c60:	0000b8b7          	lui	a7,0xb
    3c64:	aab88893          	addi	a7,a7,-1365 # aaab <__divdf3+0x27f>
    3c68:	01160633          	add	a2,a2,a7
    3c6c:	41f65893          	srai	a7,a2,0x1f
    3c70:	02d888b3          	mul	a7,a7,a3
    3c74:	02c30333          	mul	t1,t1,a2
    3c78:	00688333          	add	t1,a7,t1
    3c7c:	02d608b3          	mul	a7,a2,a3
    3c80:	02d63633          	mulhu	a2,a2,a3
    3c84:	00c306b3          	add	a3,t1,a2
    3c88:	01069693          	slli	a3,a3,0x10
    3c8c:	0108d893          	srli	a7,a7,0x10
    3c90:	011688b3          	add	a7,a3,a7
    3c94:	000026b7          	lui	a3,0x2
    3c98:	73468693          	addi	a3,a3,1844 # 2734 <inferenceTPG+0x1be4>
    3c9c:	02d80333          	mul	t1,a6,a3
    3ca0:	02d78633          	mul	a2,a5,a3
    3ca4:	02d7b6b3          	mulhu	a3,a5,a3
    3ca8:	00d306b3          	add	a3,t1,a3
    3cac:	01069693          	slli	a3,a3,0x10
    3cb0:	01065613          	srli	a2,a2,0x10
    3cb4:	00c68633          	add	a2,a3,a2
    3cb8:	000046b7          	lui	a3,0x4
    3cbc:	8e468693          	addi	a3,a3,-1820 # 38e4 <inferenceTPG+0x2d94>
    3cc0:	00d60633          	add	a2,a2,a3
    3cc4:	41f65313          	srai	t1,a2,0x1f
    3cc8:	02f30333          	mul	t1,t1,a5
    3ccc:	02c806b3          	mul	a3,a6,a2
    3cd0:	00d30333          	add	t1,t1,a3
    3cd4:	02f606b3          	mul	a3,a2,a5
    3cd8:	02f63633          	mulhu	a2,a2,a5
    3cdc:	00c30633          	add	a2,t1,a2
    3ce0:	01061613          	slli	a2,a2,0x10
    3ce4:	0106d693          	srli	a3,a3,0x10
    3ce8:	00d606b3          	add	a3,a2,a3
    3cec:	00006637          	lui	a2,0x6
    3cf0:	66660613          	addi	a2,a2,1638 # 6666 <__heap_size+0x2666>
    3cf4:	00c686b3          	add	a3,a3,a2
    3cf8:	41f6d613          	srai	a2,a3,0x1f
    3cfc:	02f60633          	mul	a2,a2,a5
    3d00:	02d80833          	mul	a6,a6,a3
    3d04:	01060633          	add	a2,a2,a6
    3d08:	02f68833          	mul	a6,a3,a5
    3d0c:	02f6b6b3          	mulhu	a3,a3,a5
    3d10:	00d607b3          	add	a5,a2,a3
    3d14:	01079793          	slli	a5,a5,0x10
    3d18:	01085693          	srli	a3,a6,0x10
    3d1c:	00d786b3          	add	a3,a5,a3
    3d20:	00d888b3          	add	a7,a7,a3
    3d24:	411b8bb3          	sub	s7,s7,a7
    3d28:	41fbd793          	srai	a5,s7,0x1f
    3d2c:	02a787b3          	mul	a5,a5,a0
    3d30:	037585b3          	mul	a1,a1,s7
    3d34:	00b787b3          	add	a5,a5,a1
    3d38:	02ab86b3          	mul	a3,s7,a0
    3d3c:	02abbbb3          	mulhu	s7,s7,a0
    3d40:	017787b3          	add	a5,a5,s7
    3d44:	01079793          	slli	a5,a5,0x10
    3d48:	0106d693          	srli	a3,a3,0x10
    3d4c:	00d786b3          	add	a3,a5,a3
    3d50:	40d70733          	sub	a4,a4,a3
    3d54:	41f75793          	srai	a5,a4,0x1f
    3d58:	41fc5693          	srai	a3,s8,0x1f
    3d5c:	038787b3          	mul	a5,a5,s8
    3d60:	02e686b3          	mul	a3,a3,a4
    3d64:	00d787b3          	add	a5,a5,a3
    3d68:	038706b3          	mul	a3,a4,s8
    3d6c:	03873733          	mulhu	a4,a4,s8
    3d70:	00e787b3          	add	a5,a5,a4
    3d74:	01079793          	slli	a5,a5,0x10
    3d78:	0106d713          	srli	a4,a3,0x10
    3d7c:	00e787b3          	add	a5,a5,a4
    3d80:	20078e63          	beqz	a5,3f9c <inferenceTPG+0x344c>
    3d84:	40f006b3          	neg	a3,a5
    3d88:	0ad7e6b3          	max	a3,a5,a3
    3d8c:	41f6d713          	srai	a4,a3,0x1f
    3d90:	00017637          	lui	a2,0x17
    3d94:	15460613          	addi	a2,a2,340 # 17154 <heap.cpp.6b15d6f6+0x1a9b>
    3d98:	02c70733          	mul	a4,a4,a2
    3d9c:	02c68ab3          	mul	s5,a3,a2
    3da0:	02c6b6b3          	mulhu	a3,a3,a2
    3da4:	00d70733          	add	a4,a4,a3
    3da8:	01071713          	slli	a4,a4,0x10
    3dac:	010ada93          	srli	s5,s5,0x10
    3db0:	01570ab3          	add	s5,a4,s5
    3db4:	00008737          	lui	a4,0x8
    3db8:	00ea8ab3          	add	s5,s5,a4
    3dbc:	ffff0737          	lui	a4,0xffff0
    3dc0:	00eafab3          	and	s5,s5,a4
    3dc4:	1e07c063          	bltz	a5,3fa4 <inferenceTPG+0x3454>
    3dc8:	41fad713          	srai	a4,s5,0x1f
    3dcc:	0000b6b7          	lui	a3,0xb
    3dd0:	17268693          	addi	a3,a3,370 # b172 <__muldf3+0x176>
    3dd4:	02d70733          	mul	a4,a4,a3
    3dd8:	02da8633          	mul	a2,s5,a3
    3ddc:	02dab6b3          	mulhu	a3,s5,a3
    3de0:	00d70733          	add	a4,a4,a3
    3de4:	01071713          	slli	a4,a4,0x10
    3de8:	01065693          	srli	a3,a2,0x10
    3dec:	00d706b3          	add	a3,a4,a3
    3df0:	40d787b3          	sub	a5,a5,a3
    3df4:	41f7d713          	srai	a4,a5,0x1f
    3df8:	02f70733          	mul	a4,a4,a5
    3dfc:	02f78633          	mul	a2,a5,a5
    3e00:	02f7b6b3          	mulhu	a3,a5,a5
    3e04:	20d72733          	sh1add	a4,a4,a3
    3e08:	01071713          	slli	a4,a4,0x10
    3e0c:	01065613          	srli	a2,a2,0x10
    3e10:	00c70633          	add	a2,a4,a2
    3e14:	41f65513          	srai	a0,a2,0x1f
    3e18:	01e65713          	srli	a4,a2,0x1e
    3e1c:	20e54733          	sh2add	a4,a0,a4
    3e20:	00261693          	slli	a3,a2,0x2
    3e24:	01071713          	slli	a4,a4,0x10
    3e28:	0106d693          	srli	a3,a3,0x10
    3e2c:	00d706b3          	add	a3,a4,a3
    3e30:	f4a68693          	addi	a3,a3,-182
    3e34:	41f6d593          	srai	a1,a3,0x1f
    3e38:	02c585b3          	mul	a1,a1,a2
    3e3c:	02d50733          	mul	a4,a0,a3
    3e40:	00e585b3          	add	a1,a1,a4
    3e44:	02c68733          	mul	a4,a3,a2
    3e48:	02c6b6b3          	mulhu	a3,a3,a2
    3e4c:	00d586b3          	add	a3,a1,a3
    3e50:	01069693          	slli	a3,a3,0x10
    3e54:	01075713          	srli	a4,a4,0x10
    3e58:	00e68733          	add	a4,a3,a4
    3e5c:	000036b7          	lui	a3,0x3
    3e60:	aab68693          	addi	a3,a3,-1365 # 2aab <inferenceTPG+0x1f5b>
    3e64:	00d70733          	add	a4,a4,a3
    3e68:	41f75693          	srai	a3,a4,0x1f
    3e6c:	02c686b3          	mul	a3,a3,a2
    3e70:	02e50533          	mul	a0,a0,a4
    3e74:	00a686b3          	add	a3,a3,a0
    3e78:	02c705b3          	mul	a1,a4,a2
    3e7c:	02c73733          	mulhu	a4,a4,a2
    3e80:	00e68733          	add	a4,a3,a4
    3e84:	01071713          	slli	a4,a4,0x10
    3e88:	0105d693          	srli	a3,a1,0x10
    3e8c:	00d706b3          	add	a3,a4,a3
    3e90:	00020737          	lui	a4,0x20
    3e94:	00e686b3          	add	a3,a3,a4
    3e98:	40f68633          	sub	a2,a3,a5
    3e9c:	02f68c63          	beq	a3,a5,3ed4 <inferenceTPG+0x3384>
    3ea0:	00f7d713          	srli	a4,a5,0xf
    3ea4:	01179793          	slli	a5,a5,0x11
    3ea8:	01071713          	slli	a4,a4,0x10
    3eac:	0107d793          	srli	a5,a5,0x10
    3eb0:	00f707b3          	add	a5,a4,a5
    3eb4:	41f7d713          	srai	a4,a5,0x1f
    3eb8:	0107d593          	srli	a1,a5,0x10
    3ebc:	01071713          	slli	a4,a4,0x10
    3ec0:	41f65693          	srai	a3,a2,0x1f
    3ec4:	01079513          	slli	a0,a5,0x10
    3ec8:	00e585b3          	add	a1,a1,a4
    3ecc:	709070ef          	jal	bdd4 <__divdi3>
    3ed0:	00050613          	mv	a2,a0
    3ed4:	000107b7          	lui	a5,0x10
    3ed8:	00f606b3          	add	a3,a2,a5
    3edc:	0c0ac863          	bltz	s5,3fac <inferenceTPG+0x345c>
    3ee0:	410ada93          	srai	s5,s5,0x10
    3ee4:	00010737          	lui	a4,0x10
    3ee8:	01571733          	sll	a4,a4,s5
    3eec:	41f75793          	srai	a5,a4,0x1f
    3ef0:	41f6d613          	srai	a2,a3,0x1f
    3ef4:	02d787b3          	mul	a5,a5,a3
    3ef8:	02e60633          	mul	a2,a2,a4
    3efc:	00c787b3          	add	a5,a5,a2
    3f00:	02d70633          	mul	a2,a4,a3
    3f04:	02d73733          	mulhu	a4,a4,a3
    3f08:	00e787b3          	add	a5,a5,a4
    3f0c:	01079793          	slli	a5,a5,0x10
    3f10:	01065713          	srli	a4,a2,0x10
    3f14:	00e787b3          	add	a5,a5,a4
    3f18:	00fb07b3          	add	a5,s6,a5
    3f1c:	0044a703          	lw	a4,4(s1)
    3f20:	00e787b3          	add	a5,a5,a4
    3f24:	00100713          	li	a4,1
    3f28:	00812603          	lw	a2,8(sp)
    3f2c:	00cd5663          	bge	s10,a2,3f38 <inferenceTPG+0x33e8>
    3f30:	00060d13          	mv	s10,a2
    3f34:	00000713          	li	a4,0
    3f38:	09add463          	bge	s11,s10,3fc0 <inferenceTPG+0x3470>
    3f3c:	000d0d93          	mv	s11,s10
    3f40:	01b7c463          	blt	a5,s11,3f48 <inferenceTPG+0x33f8>
    3f44:	00300713          	li	a4,3
    3f48:	000206b7          	lui	a3,0x20
    3f4c:	000207b7          	lui	a5,0x20
    3f50:	0cc78793          	addi	a5,a5,204 # 200cc <next.11>
    3f54:	20f74733          	sh2add	a4,a4,a5
    3f58:	00072783          	lw	a5,0(a4) # 10000 <i2c.c.57379e11+0x762>
    3f5c:	14468713          	addi	a4,a3,324 # 20144 <jump_table.23>
    3f60:	20e7c7b3          	sh2add	a5,a5,a4
    3f64:	0007a783          	lw	a5,0(a5)
    3f68:	08012d83          	lw	s11,128(sp)
    3f6c:	c31fc06f          	j	b9c <inferenceTPG+0x4c>
    3f70:	41500ab3          	neg	s5,s5
    3f74:	a3dff06f          	j	39b0 <inferenceTPG+0x2e60>
    3f78:	41500733          	neg	a4,s5
    3f7c:	41075713          	srai	a4,a4,0x10
    3f80:	40e7d7b3          	sra	a5,a5,a4
    3f84:	b51ff06f          	j	3ad4 <inferenceTPG+0x2f84>
    3f88:	000b0693          	mv	a3,s6
    3f8c:	00000a93          	li	s5,0
    3f90:	ba5ff06f          	j	3b34 <inferenceTPG+0x2fe4>
    3f94:	fff00713          	li	a4,-1
    3f98:	dbdff06f          	j	3d54 <inferenceTPG+0x3204>
    3f9c:	000107b7          	lui	a5,0x10
    3fa0:	f79ff06f          	j	3f18 <inferenceTPG+0x33c8>
    3fa4:	41500ab3          	neg	s5,s5
    3fa8:	e21ff06f          	j	3dc8 <inferenceTPG+0x3278>
    3fac:	415007b3          	neg	a5,s5
    3fb0:	4107d793          	srai	a5,a5,0x10
    3fb4:	00010737          	lui	a4,0x10
    3fb8:	40f75733          	sra	a4,a4,a5
    3fbc:	f31ff06f          	j	3eec <inferenceTPG+0x339c>
    3fc0:	00200713          	li	a4,2
    3fc4:	f7dff06f          	j	3f40 <inferenceTPG+0x33f0>
    3fc8:	0089a683          	lw	a3,8(s3)
    3fcc:	00000a93          	li	s5,0
    3fd0:	2206ce63          	bltz	a3,420c <__heap_size+0x20c>
    3fd4:	0a0688e3          	beqz	a3,4884 <__heap_size+0x884>
    3fd8:	000207b7          	lui	a5,0x20
    3fdc:	0ad7d0e3          	bge	a5,a3,487c <__heap_size+0x87c>
    3fe0:	4016d693          	srai	a3,a3,0x1
    3fe4:	001a8a93          	addi	s5,s5,1
    3fe8:	fed7cce3          	blt	a5,a3,3fe0 <inferenceTPG+0x3490>
    3fec:	ffff0b37          	lui	s6,0xffff0
    3ff0:	01668b33          	add	s6,a3,s6
    3ff4:	41fb5793          	srai	a5,s6,0x1f
    3ff8:	010b5593          	srli	a1,s6,0x10
    3ffc:	01079793          	slli	a5,a5,0x10
    4000:	00010737          	lui	a4,0x10
    4004:	00e68633          	add	a2,a3,a4
    4008:	41f65693          	srai	a3,a2,0x1f
    400c:	010b1513          	slli	a0,s6,0x10
    4010:	00f585b3          	add	a1,a1,a5
    4014:	5c1070ef          	jal	bdd4 <__divdi3>
    4018:	41f55613          	srai	a2,a0,0x1f
    401c:	02a607b3          	mul	a5,a2,a0
    4020:	02a506b3          	mul	a3,a0,a0
    4024:	02a53733          	mulhu	a4,a0,a0
    4028:	20e7a7b3          	sh1add	a5,a5,a4
    402c:	01079793          	slli	a5,a5,0x10
    4030:	0106d693          	srli	a3,a3,0x10
    4034:	00d786b3          	add	a3,a5,a3
    4038:	41f6d893          	srai	a7,a3,0x1f
    403c:	02d887b3          	mul	a5,a7,a3
    4040:	02d68733          	mul	a4,a3,a3
    4044:	02d6b5b3          	mulhu	a1,a3,a3
    4048:	20b7a7b3          	sh1add	a5,a5,a1
    404c:	01079793          	slli	a5,a5,0x10
    4050:	01075713          	srli	a4,a4,0x10
    4054:	00e78733          	add	a4,a5,a4
    4058:	41f75593          	srai	a1,a4,0x1f
    405c:	010a9793          	slli	a5,s5,0x10
    4060:	41f7d813          	srai	a6,a5,0x1f
    4064:	0000b337          	lui	t1,0xb
    4068:	17230313          	addi	t1,t1,370 # b172 <__muldf3+0x176>
    406c:	02680833          	mul	a6,a6,t1
    4070:	02678ab3          	mul	s5,a5,t1
    4074:	0267b7b3          	mulhu	a5,a5,t1
    4078:	00f807b3          	add	a5,a6,a5
    407c:	01079793          	slli	a5,a5,0x10
    4080:	010ada93          	srli	s5,s5,0x10
    4084:	01578ab3          	add	s5,a5,s5
    4088:	015b0ab3          	add	s5,s6,s5
    408c:	00002837          	lui	a6,0x2
    4090:	5e280813          	addi	a6,a6,1506 # 25e2 <inferenceTPG+0x1a92>
    4094:	03058333          	mul	t1,a1,a6
    4098:	030707b3          	mul	a5,a4,a6
    409c:	03073833          	mulhu	a6,a4,a6
    40a0:	01030833          	add	a6,t1,a6
    40a4:	01081813          	slli	a6,a6,0x10
    40a8:	0107d793          	srli	a5,a5,0x10
    40ac:	00f807b3          	add	a5,a6,a5
    40b0:	00003837          	lui	a6,0x3
    40b4:	e8d80813          	addi	a6,a6,-371 # 2e8d <inferenceTPG+0x233d>
    40b8:	010787b3          	add	a5,a5,a6
    40bc:	41f7d313          	srai	t1,a5,0x1f
    40c0:	02e30333          	mul	t1,t1,a4
    40c4:	02f58833          	mul	a6,a1,a5
    40c8:	01030333          	add	t1,t1,a6
    40cc:	02e78833          	mul	a6,a5,a4
    40d0:	02e7b7b3          	mulhu	a5,a5,a4
    40d4:	00f307b3          	add	a5,t1,a5
    40d8:	01079793          	slli	a5,a5,0x10
    40dc:	01085813          	srli	a6,a6,0x10
    40e0:	01078833          	add	a6,a5,a6
    40e4:	000057b7          	lui	a5,0x5
    40e8:	92578793          	addi	a5,a5,-1755 # 4925 <__heap_size+0x925>
    40ec:	00f80833          	add	a6,a6,a5
    40f0:	41f85313          	srai	t1,a6,0x1f
    40f4:	02e30333          	mul	t1,t1,a4
    40f8:	030587b3          	mul	a5,a1,a6
    40fc:	00f30333          	add	t1,t1,a5
    4100:	02e807b3          	mul	a5,a6,a4
    4104:	02e83833          	mulhu	a6,a6,a4
    4108:	01030833          	add	a6,t1,a6
    410c:	01081813          	slli	a6,a6,0x10
    4110:	0107d793          	srli	a5,a5,0x10
    4114:	00f807b3          	add	a5,a6,a5
    4118:	0000b837          	lui	a6,0xb
    411c:	aab80813          	addi	a6,a6,-1365 # aaab <__divdf3+0x27f>
    4120:	010787b3          	add	a5,a5,a6
    4124:	41f7d813          	srai	a6,a5,0x1f
    4128:	02d80833          	mul	a6,a6,a3
    412c:	02f888b3          	mul	a7,a7,a5
    4130:	011808b3          	add	a7,a6,a7
    4134:	02d78833          	mul	a6,a5,a3
    4138:	02d7b7b3          	mulhu	a5,a5,a3
    413c:	00f887b3          	add	a5,a7,a5
    4140:	01079793          	slli	a5,a5,0x10
    4144:	01085813          	srli	a6,a6,0x10
    4148:	01078833          	add	a6,a5,a6
    414c:	000027b7          	lui	a5,0x2
    4150:	73478793          	addi	a5,a5,1844 # 2734 <inferenceTPG+0x1be4>
    4154:	02f588b3          	mul	a7,a1,a5
    4158:	02f706b3          	mul	a3,a4,a5
    415c:	02f737b3          	mulhu	a5,a4,a5
    4160:	00f887b3          	add	a5,a7,a5
    4164:	01079793          	slli	a5,a5,0x10
    4168:	0106d693          	srli	a3,a3,0x10
    416c:	00d786b3          	add	a3,a5,a3
    4170:	000047b7          	lui	a5,0x4
    4174:	8e478793          	addi	a5,a5,-1820 # 38e4 <inferenceTPG+0x2d94>
    4178:	00f686b3          	add	a3,a3,a5
    417c:	41f6d893          	srai	a7,a3,0x1f
    4180:	02e888b3          	mul	a7,a7,a4
    4184:	02d587b3          	mul	a5,a1,a3
    4188:	00f888b3          	add	a7,a7,a5
    418c:	02e687b3          	mul	a5,a3,a4
    4190:	02e6b6b3          	mulhu	a3,a3,a4
    4194:	00d886b3          	add	a3,a7,a3
    4198:	01069693          	slli	a3,a3,0x10
    419c:	0107d793          	srli	a5,a5,0x10
    41a0:	00f687b3          	add	a5,a3,a5
    41a4:	000066b7          	lui	a3,0x6
    41a8:	66668693          	addi	a3,a3,1638 # 6666 <__heap_size+0x2666>
    41ac:	00d787b3          	add	a5,a5,a3
    41b0:	41f7d693          	srai	a3,a5,0x1f
    41b4:	02e686b3          	mul	a3,a3,a4
    41b8:	02f585b3          	mul	a1,a1,a5
    41bc:	00b686b3          	add	a3,a3,a1
    41c0:	02e785b3          	mul	a1,a5,a4
    41c4:	02e7b7b3          	mulhu	a5,a5,a4
    41c8:	00f687b3          	add	a5,a3,a5
    41cc:	01079793          	slli	a5,a5,0x10
    41d0:	0105d713          	srli	a4,a1,0x10
    41d4:	00e78733          	add	a4,a5,a4
    41d8:	00e80833          	add	a6,a6,a4
    41dc:	410b0b33          	sub	s6,s6,a6
    41e0:	41fb5793          	srai	a5,s6,0x1f
    41e4:	02a787b3          	mul	a5,a5,a0
    41e8:	03660633          	mul	a2,a2,s6
    41ec:	00c787b3          	add	a5,a5,a2
    41f0:	02ab0733          	mul	a4,s6,a0
    41f4:	02ab3b33          	mulhu	s6,s6,a0
    41f8:	016787b3          	add	a5,a5,s6
    41fc:	01079793          	slli	a5,a5,0x10
    4200:	01075713          	srli	a4,a4,0x10
    4204:	00e78733          	add	a4,a5,a4
    4208:	40ea8ab3          	sub	s5,s5,a4
    420c:	0044ab03          	lw	s6,4(s1)
    4210:	015b0ab3          	add	s5,s6,s5
    4214:	01512823          	sw	s5,16(sp)
    4218:	00092703          	lw	a4,0(s2)
    421c:	517cd5b7          	lui	a1,0x517cd
    4220:	c8358593          	addi	a1,a1,-893 # 517ccc83 <_sp+0x517a1c43>
    4224:	02b715b3          	mulh	a1,a4,a1
    4228:	4115d593          	srai	a1,a1,0x11
    422c:	41f75793          	srai	a5,a4,0x1f
    4230:	40f585b3          	sub	a1,a1,a5
    4234:	000657b7          	lui	a5,0x65
    4238:	87e78793          	addi	a5,a5,-1922 # 6487e <_sp+0x3983e>
    423c:	02f587b3          	mul	a5,a1,a5
    4240:	40f705b3          	sub	a1,a4,a5
    4244:	6405c463          	bltz	a1,488c <__heap_size+0x88c>
    4248:	fffe77b7          	lui	a5,0xfffe7
    424c:	ddf78793          	addi	a5,a5,-545 # fffe6ddf <_sp+0xfffbbd9f>
    4250:	00f587b3          	add	a5,a1,a5
    4254:	000196b7          	lui	a3,0x19
    4258:	21e68693          	addi	a3,a3,542 # 1921e <heap.cpp.6b15d6f6+0x3b65>
    425c:	64f6e063          	bltu	a3,a5,489c <__heap_size+0x89c>
    4260:	000327b7          	lui	a5,0x32
    4264:	43f78793          	addi	a5,a5,1087 # 3243f <_sp+0x73ff>
    4268:	40b785b3          	sub	a1,a5,a1
    426c:	00100813          	li	a6,1
    4270:	000197b7          	lui	a5,0x19
    4274:	22078793          	addi	a5,a5,544 # 19220 <heap.cpp.6b15d6f6+0x3b67>
    4278:	40e787b3          	sub	a5,a5,a4
    427c:	517cd537          	lui	a0,0x517cd
    4280:	c8350513          	addi	a0,a0,-893 # 517ccc83 <_sp+0x517a1c43>
    4284:	02a79533          	mulh	a0,a5,a0
    4288:	41155513          	srai	a0,a0,0x11
    428c:	41f7d713          	srai	a4,a5,0x1f
    4290:	40e50533          	sub	a0,a0,a4
    4294:	00065737          	lui	a4,0x65
    4298:	87e70713          	addi	a4,a4,-1922 # 6487e <_sp+0x3983e>
    429c:	02e50733          	mul	a4,a0,a4
    42a0:	40e78533          	sub	a0,a5,a4
    42a4:	64054463          	bltz	a0,48ec <__heap_size+0x8ec>
    42a8:	fffe77b7          	lui	a5,0xfffe7
    42ac:	ddf78793          	addi	a5,a5,-545 # fffe6ddf <_sp+0xfffbbd9f>
    42b0:	00f507b3          	add	a5,a0,a5
    42b4:	00019737          	lui	a4,0x19
    42b8:	21e70713          	addi	a4,a4,542 # 1921e <heap.cpp.6b15d6f6+0x3b65>
    42bc:	64f76063          	bltu	a4,a5,48fc <__heap_size+0x8fc>
    42c0:	000327b7          	lui	a5,0x32
    42c4:	43f78793          	addi	a5,a5,1087 # 3243f <_sp+0x73ff>
    42c8:	40a78533          	sub	a0,a5,a0
    42cc:	00100613          	li	a2,1
    42d0:	41f55893          	srai	a7,a0,0x1f
    42d4:	02a887b3          	mul	a5,a7,a0
    42d8:	02a50333          	mul	t1,a0,a0
    42dc:	02a53733          	mulhu	a4,a0,a0
    42e0:	20e7a7b3          	sh1add	a5,a5,a4
    42e4:	01079793          	slli	a5,a5,0x10
    42e8:	01035313          	srli	t1,t1,0x10
    42ec:	00678333          	add	t1,a5,t1
    42f0:	41f35e13          	srai	t3,t1,0x1f
    42f4:	1f300693          	li	a3,499
    42f8:	02de07b3          	mul	a5,t3,a3
    42fc:	02d30733          	mul	a4,t1,a3
    4300:	02d336b3          	mulhu	a3,t1,a3
    4304:	00d787b3          	add	a5,a5,a3
    4308:	01079793          	slli	a5,a5,0x10
    430c:	01075713          	srli	a4,a4,0x10
    4310:	00e78733          	add	a4,a5,a4
    4314:	ffffd7b7          	lui	a5,0xffffd
    4318:	57e78793          	addi	a5,a5,1406 # ffffd57e <_sp+0xfffd253e>
    431c:	00f70733          	add	a4,a4,a5
    4320:	41f75693          	srai	a3,a4,0x1f
    4324:	026686b3          	mul	a3,a3,t1
    4328:	02ee0e33          	mul	t3,t3,a4
    432c:	01c686b3          	add	a3,a3,t3
    4330:	026707b3          	mul	a5,a4,t1
    4334:	02673733          	mulhu	a4,a4,t1
    4338:	00e68733          	add	a4,a3,a4
    433c:	01071713          	slli	a4,a4,0x10
    4340:	0107d793          	srli	a5,a5,0x10
    4344:	00f707b3          	add	a5,a4,a5
    4348:	00010737          	lui	a4,0x10
    434c:	00e787b3          	add	a5,a5,a4
    4350:	41f7d713          	srai	a4,a5,0x1f
    4354:	02a70733          	mul	a4,a4,a0
    4358:	02f888b3          	mul	a7,a7,a5
    435c:	01170733          	add	a4,a4,a7
    4360:	02a786b3          	mul	a3,a5,a0
    4364:	02a7b7b3          	mulhu	a5,a5,a0
    4368:	00f707b3          	add	a5,a4,a5
    436c:	01079793          	slli	a5,a5,0x10
    4370:	0106d713          	srli	a4,a3,0x10
    4374:	00e78733          	add	a4,a5,a4
    4378:	02e60633          	mul	a2,a2,a4
    437c:	0c060863          	beqz	a2,444c <__heap_size+0x44c>
    4380:	41f5d893          	srai	a7,a1,0x1f
    4384:	02b887b3          	mul	a5,a7,a1
    4388:	02b58533          	mul	a0,a1,a1
    438c:	02b5b733          	mulhu	a4,a1,a1
    4390:	20e7a7b3          	sh1add	a5,a5,a4
    4394:	01079793          	slli	a5,a5,0x10
    4398:	01055513          	srli	a0,a0,0x10
    439c:	00a78533          	add	a0,a5,a0
    43a0:	41f55313          	srai	t1,a0,0x1f
    43a4:	1f300693          	li	a3,499
    43a8:	02d307b3          	mul	a5,t1,a3
    43ac:	02d50733          	mul	a4,a0,a3
    43b0:	02d536b3          	mulhu	a3,a0,a3
    43b4:	00d787b3          	add	a5,a5,a3
    43b8:	01079793          	slli	a5,a5,0x10
    43bc:	01075713          	srli	a4,a4,0x10
    43c0:	00e78733          	add	a4,a5,a4
    43c4:	ffffd7b7          	lui	a5,0xffffd
    43c8:	57e78793          	addi	a5,a5,1406 # ffffd57e <_sp+0xfffd253e>
    43cc:	00f70733          	add	a4,a4,a5
    43d0:	41f75693          	srai	a3,a4,0x1f
    43d4:	02a686b3          	mul	a3,a3,a0
    43d8:	02e30333          	mul	t1,t1,a4
    43dc:	006686b3          	add	a3,a3,t1
    43e0:	02a707b3          	mul	a5,a4,a0
    43e4:	02a73733          	mulhu	a4,a4,a0
    43e8:	00e68733          	add	a4,a3,a4
    43ec:	01071713          	slli	a4,a4,0x10
    43f0:	0107d793          	srli	a5,a5,0x10
    43f4:	00f707b3          	add	a5,a4,a5
    43f8:	00010737          	lui	a4,0x10
    43fc:	00e787b3          	add	a5,a5,a4
    4400:	41f7d713          	srai	a4,a5,0x1f
    4404:	02b70733          	mul	a4,a4,a1
    4408:	02f888b3          	mul	a7,a7,a5
    440c:	01170733          	add	a4,a4,a7
    4410:	02b786b3          	mul	a3,a5,a1
    4414:	02b7b7b3          	mulhu	a5,a5,a1
    4418:	00f707b3          	add	a5,a4,a5
    441c:	01079793          	slli	a5,a5,0x10
    4420:	0106d713          	srli	a4,a3,0x10
    4424:	00e78733          	add	a4,a5,a4
    4428:	02e80533          	mul	a0,a6,a4
    442c:	41f55793          	srai	a5,a0,0x1f
    4430:	01055593          	srli	a1,a0,0x10
    4434:	01079793          	slli	a5,a5,0x10
    4438:	41f65693          	srai	a3,a2,0x1f
    443c:	01051513          	slli	a0,a0,0x10
    4440:	00f585b3          	add	a1,a1,a5
    4444:	191070ef          	jal	bdd4 <__divdi3>
    4448:	00050613          	mv	a2,a0
    444c:	00c12a23          	sw	a2,20(sp)
    4450:	0004a783          	lw	a5,0(s1)
    4454:	0009a703          	lw	a4,0(s3)
    4458:	40f70733          	sub	a4,a4,a5
    445c:	00e12c23          	sw	a4,24(sp)
    4460:	00010737          	lui	a4,0x10
    4464:	00e787b3          	add	a5,a5,a4
    4468:	016787b3          	add	a5,a5,s6
    446c:	00f12e23          	sw	a5,28(sp)
    4470:	00492683          	lw	a3,4(s2)
    4474:	00000593          	li	a1,0
    4478:	2406c063          	bltz	a3,46b8 <__heap_size+0x6b8>
    447c:	4c068c63          	beqz	a3,4954 <__heap_size+0x954>
    4480:	000207b7          	lui	a5,0x20
    4484:	4cd7d463          	bge	a5,a3,494c <__heap_size+0x94c>
    4488:	00000b93          	li	s7,0
    448c:	4016d693          	srai	a3,a3,0x1
    4490:	001b8b93          	addi	s7,s7,1 # ffff0001 <_sp+0xfffc4fc1>
    4494:	fed7cce3          	blt	a5,a3,448c <__heap_size+0x48c>
    4498:	ffff0b37          	lui	s6,0xffff0
    449c:	01668b33          	add	s6,a3,s6
    44a0:	41fb5793          	srai	a5,s6,0x1f
    44a4:	010b5593          	srli	a1,s6,0x10
    44a8:	01079793          	slli	a5,a5,0x10
    44ac:	00010737          	lui	a4,0x10
    44b0:	00e68633          	add	a2,a3,a4
    44b4:	41f65693          	srai	a3,a2,0x1f
    44b8:	010b1513          	slli	a0,s6,0x10
    44bc:	00f585b3          	add	a1,a1,a5
    44c0:	115070ef          	jal	bdd4 <__divdi3>
    44c4:	41f55613          	srai	a2,a0,0x1f
    44c8:	02a607b3          	mul	a5,a2,a0
    44cc:	02a506b3          	mul	a3,a0,a0
    44d0:	02a53733          	mulhu	a4,a0,a0
    44d4:	20e7a7b3          	sh1add	a5,a5,a4
    44d8:	01079793          	slli	a5,a5,0x10
    44dc:	0106d693          	srli	a3,a3,0x10
    44e0:	00d786b3          	add	a3,a5,a3
    44e4:	41f6d313          	srai	t1,a3,0x1f
    44e8:	02d307b3          	mul	a5,t1,a3
    44ec:	02d68733          	mul	a4,a3,a3
    44f0:	02d6b5b3          	mulhu	a1,a3,a3
    44f4:	20b7a7b3          	sh1add	a5,a5,a1
    44f8:	01079793          	slli	a5,a5,0x10
    44fc:	01075713          	srli	a4,a4,0x10
    4500:	00e78733          	add	a4,a5,a4
    4504:	41f75813          	srai	a6,a4,0x1f
    4508:	010b9793          	slli	a5,s7,0x10
    450c:	41f7d893          	srai	a7,a5,0x1f
    4510:	0000be37          	lui	t3,0xb
    4514:	172e0e13          	addi	t3,t3,370 # b172 <__muldf3+0x176>
    4518:	03c888b3          	mul	a7,a7,t3
    451c:	03c785b3          	mul	a1,a5,t3
    4520:	03c7b7b3          	mulhu	a5,a5,t3
    4524:	00f887b3          	add	a5,a7,a5
    4528:	01079793          	slli	a5,a5,0x10
    452c:	0105d593          	srli	a1,a1,0x10
    4530:	00b785b3          	add	a1,a5,a1
    4534:	00bb05b3          	add	a1,s6,a1
    4538:	000028b7          	lui	a7,0x2
    453c:	5e288893          	addi	a7,a7,1506 # 25e2 <inferenceTPG+0x1a92>
    4540:	03180e33          	mul	t3,a6,a7
    4544:	031707b3          	mul	a5,a4,a7
    4548:	031738b3          	mulhu	a7,a4,a7
    454c:	011e08b3          	add	a7,t3,a7
    4550:	01089893          	slli	a7,a7,0x10
    4554:	0107d793          	srli	a5,a5,0x10
    4558:	00f887b3          	add	a5,a7,a5
    455c:	000038b7          	lui	a7,0x3
    4560:	e8d88893          	addi	a7,a7,-371 # 2e8d <inferenceTPG+0x233d>
    4564:	011787b3          	add	a5,a5,a7
    4568:	41f7de13          	srai	t3,a5,0x1f
    456c:	02ee0e33          	mul	t3,t3,a4
    4570:	02f808b3          	mul	a7,a6,a5
    4574:	011e0e33          	add	t3,t3,a7
    4578:	02e788b3          	mul	a7,a5,a4
    457c:	02e7b7b3          	mulhu	a5,a5,a4
    4580:	00fe07b3          	add	a5,t3,a5
    4584:	01079793          	slli	a5,a5,0x10
    4588:	0108d893          	srli	a7,a7,0x10
    458c:	011788b3          	add	a7,a5,a7
    4590:	000057b7          	lui	a5,0x5
    4594:	92578793          	addi	a5,a5,-1755 # 4925 <__heap_size+0x925>
    4598:	00f888b3          	add	a7,a7,a5
    459c:	41f8de13          	srai	t3,a7,0x1f
    45a0:	02ee0e33          	mul	t3,t3,a4
    45a4:	031807b3          	mul	a5,a6,a7
    45a8:	00fe0e33          	add	t3,t3,a5
    45ac:	02e887b3          	mul	a5,a7,a4
    45b0:	02e8b8b3          	mulhu	a7,a7,a4
    45b4:	011e08b3          	add	a7,t3,a7
    45b8:	01089893          	slli	a7,a7,0x10
    45bc:	0107d793          	srli	a5,a5,0x10
    45c0:	00f887b3          	add	a5,a7,a5
    45c4:	0000b8b7          	lui	a7,0xb
    45c8:	aab88893          	addi	a7,a7,-1365 # aaab <__divdf3+0x27f>
    45cc:	011787b3          	add	a5,a5,a7
    45d0:	41f7d893          	srai	a7,a5,0x1f
    45d4:	02d888b3          	mul	a7,a7,a3
    45d8:	02f30333          	mul	t1,t1,a5
    45dc:	00688333          	add	t1,a7,t1
    45e0:	02d788b3          	mul	a7,a5,a3
    45e4:	02d7b7b3          	mulhu	a5,a5,a3
    45e8:	00f307b3          	add	a5,t1,a5
    45ec:	01079793          	slli	a5,a5,0x10
    45f0:	0108d893          	srli	a7,a7,0x10
    45f4:	011788b3          	add	a7,a5,a7
    45f8:	000027b7          	lui	a5,0x2
    45fc:	73478793          	addi	a5,a5,1844 # 2734 <inferenceTPG+0x1be4>
    4600:	02f80333          	mul	t1,a6,a5
    4604:	02f706b3          	mul	a3,a4,a5
    4608:	02f737b3          	mulhu	a5,a4,a5
    460c:	00f307b3          	add	a5,t1,a5
    4610:	01079793          	slli	a5,a5,0x10
    4614:	0106d693          	srli	a3,a3,0x10
    4618:	00d786b3          	add	a3,a5,a3
    461c:	000047b7          	lui	a5,0x4
    4620:	8e478793          	addi	a5,a5,-1820 # 38e4 <inferenceTPG+0x2d94>
    4624:	00f686b3          	add	a3,a3,a5
    4628:	41f6d313          	srai	t1,a3,0x1f
    462c:	02e30333          	mul	t1,t1,a4
    4630:	02d807b3          	mul	a5,a6,a3
    4634:	00f30333          	add	t1,t1,a5
    4638:	02e687b3          	mul	a5,a3,a4
    463c:	02e6b6b3          	mulhu	a3,a3,a4
    4640:	00d306b3          	add	a3,t1,a3
    4644:	01069693          	slli	a3,a3,0x10
    4648:	0107d793          	srli	a5,a5,0x10
    464c:	00f687b3          	add	a5,a3,a5
    4650:	000066b7          	lui	a3,0x6
    4654:	66668693          	addi	a3,a3,1638 # 6666 <__heap_size+0x2666>
    4658:	00d787b3          	add	a5,a5,a3
    465c:	41f7d693          	srai	a3,a5,0x1f
    4660:	02e686b3          	mul	a3,a3,a4
    4664:	02f80833          	mul	a6,a6,a5
    4668:	010686b3          	add	a3,a3,a6
    466c:	02e78833          	mul	a6,a5,a4
    4670:	02e7b7b3          	mulhu	a5,a5,a4
    4674:	00f687b3          	add	a5,a3,a5
    4678:	01079793          	slli	a5,a5,0x10
    467c:	01085713          	srli	a4,a6,0x10
    4680:	00e78733          	add	a4,a5,a4
    4684:	00e888b3          	add	a7,a7,a4
    4688:	411b0b33          	sub	s6,s6,a7
    468c:	41fb5793          	srai	a5,s6,0x1f
    4690:	02a787b3          	mul	a5,a5,a0
    4694:	03660633          	mul	a2,a2,s6
    4698:	00c787b3          	add	a5,a5,a2
    469c:	02ab0733          	mul	a4,s6,a0
    46a0:	02ab3b33          	mulhu	s6,s6,a0
    46a4:	016787b3          	add	a5,a5,s6
    46a8:	01079793          	slli	a5,a5,0x10
    46ac:	01075713          	srli	a4,a4,0x10
    46b0:	00e78733          	add	a4,a5,a4
    46b4:	40e585b3          	sub	a1,a1,a4
    46b8:	02b12023          	sw	a1,32(sp)
    46bc:	01092783          	lw	a5,16(s2)
    46c0:	00010737          	lui	a4,0x10
    46c4:	18078c63          	beqz	a5,485c <__heap_size+0x85c>
    46c8:	40f006b3          	neg	a3,a5
    46cc:	0ad7e6b3          	max	a3,a5,a3
    46d0:	41f6d713          	srai	a4,a3,0x1f
    46d4:	00017637          	lui	a2,0x17
    46d8:	15460613          	addi	a2,a2,340 # 17154 <heap.cpp.6b15d6f6+0x1a9b>
    46dc:	02c70733          	mul	a4,a4,a2
    46e0:	02c68b33          	mul	s6,a3,a2
    46e4:	02c6b6b3          	mulhu	a3,a3,a2
    46e8:	00d70733          	add	a4,a4,a3
    46ec:	01071713          	slli	a4,a4,0x10
    46f0:	010b5b13          	srli	s6,s6,0x10
    46f4:	01670b33          	add	s6,a4,s6
    46f8:	00008737          	lui	a4,0x8
    46fc:	00eb0b33          	add	s6,s6,a4
    4700:	ffff0737          	lui	a4,0xffff0
    4704:	00eb7b33          	and	s6,s6,a4
    4708:	2407ca63          	bltz	a5,495c <__heap_size+0x95c>
    470c:	41fb5713          	srai	a4,s6,0x1f
    4710:	0000b6b7          	lui	a3,0xb
    4714:	17268693          	addi	a3,a3,370 # b172 <__muldf3+0x176>
    4718:	02d70733          	mul	a4,a4,a3
    471c:	02db0633          	mul	a2,s6,a3
    4720:	02db36b3          	mulhu	a3,s6,a3
    4724:	00d70733          	add	a4,a4,a3
    4728:	01071713          	slli	a4,a4,0x10
    472c:	01065693          	srli	a3,a2,0x10
    4730:	00d706b3          	add	a3,a4,a3
    4734:	40d787b3          	sub	a5,a5,a3
    4738:	41f7d713          	srai	a4,a5,0x1f
    473c:	02f70733          	mul	a4,a4,a5
    4740:	02f785b3          	mul	a1,a5,a5
    4744:	02f7b6b3          	mulhu	a3,a5,a5
    4748:	20d72733          	sh1add	a4,a4,a3
    474c:	01071713          	slli	a4,a4,0x10
    4750:	0105d593          	srli	a1,a1,0x10
    4754:	00b705b3          	add	a1,a4,a1
    4758:	41f5d513          	srai	a0,a1,0x1f
    475c:	01e5d713          	srli	a4,a1,0x1e
    4760:	20e54733          	sh2add	a4,a0,a4
    4764:	00259693          	slli	a3,a1,0x2
    4768:	01071713          	slli	a4,a4,0x10
    476c:	0106d693          	srli	a3,a3,0x10
    4770:	00d706b3          	add	a3,a4,a3
    4774:	f4a68693          	addi	a3,a3,-182
    4778:	41f6d613          	srai	a2,a3,0x1f
    477c:	02b60633          	mul	a2,a2,a1
    4780:	02d50733          	mul	a4,a0,a3
    4784:	00e60633          	add	a2,a2,a4
    4788:	02b68733          	mul	a4,a3,a1
    478c:	02b6b6b3          	mulhu	a3,a3,a1
    4790:	00d606b3          	add	a3,a2,a3
    4794:	01069693          	slli	a3,a3,0x10
    4798:	01075713          	srli	a4,a4,0x10
    479c:	00e68733          	add	a4,a3,a4
    47a0:	000036b7          	lui	a3,0x3
    47a4:	aab68693          	addi	a3,a3,-1365 # 2aab <inferenceTPG+0x1f5b>
    47a8:	00d70733          	add	a4,a4,a3
    47ac:	41f75693          	srai	a3,a4,0x1f
    47b0:	02b686b3          	mul	a3,a3,a1
    47b4:	02e50533          	mul	a0,a0,a4
    47b8:	00a686b3          	add	a3,a3,a0
    47bc:	02b70633          	mul	a2,a4,a1
    47c0:	02b73733          	mulhu	a4,a4,a1
    47c4:	00e68733          	add	a4,a3,a4
    47c8:	01071713          	slli	a4,a4,0x10
    47cc:	01065693          	srli	a3,a2,0x10
    47d0:	00d706b3          	add	a3,a4,a3
    47d4:	00020737          	lui	a4,0x20
    47d8:	00e686b3          	add	a3,a3,a4
    47dc:	40f68633          	sub	a2,a3,a5
    47e0:	02f68c63          	beq	a3,a5,4818 <__heap_size+0x818>
    47e4:	00f7d713          	srli	a4,a5,0xf
    47e8:	01179793          	slli	a5,a5,0x11
    47ec:	01071713          	slli	a4,a4,0x10
    47f0:	0107d793          	srli	a5,a5,0x10
    47f4:	00f707b3          	add	a5,a4,a5
    47f8:	41f7d713          	srai	a4,a5,0x1f
    47fc:	0107d593          	srli	a1,a5,0x10
    4800:	01071713          	slli	a4,a4,0x10
    4804:	41f65693          	srai	a3,a2,0x1f
    4808:	01079513          	slli	a0,a5,0x10
    480c:	00e585b3          	add	a1,a1,a4
    4810:	5c4070ef          	jal	bdd4 <__divdi3>
    4814:	00050613          	mv	a2,a0
    4818:	000107b7          	lui	a5,0x10
    481c:	00f606b3          	add	a3,a2,a5
    4820:	140b4263          	bltz	s6,4964 <__heap_size+0x964>
    4824:	410b5b13          	srai	s6,s6,0x10
    4828:	000107b7          	lui	a5,0x10
    482c:	016797b3          	sll	a5,a5,s6
    4830:	41f7d713          	srai	a4,a5,0x1f
    4834:	41f6d613          	srai	a2,a3,0x1f
    4838:	02d70733          	mul	a4,a4,a3
    483c:	02f60633          	mul	a2,a2,a5
    4840:	00c70733          	add	a4,a4,a2
    4844:	02d78633          	mul	a2,a5,a3
    4848:	02d7b7b3          	mulhu	a5,a5,a3
    484c:	00f70733          	add	a4,a4,a5
    4850:	01071713          	slli	a4,a4,0x10
    4854:	01065793          	srli	a5,a2,0x10
    4858:	00f70733          	add	a4,a4,a5
    485c:	0084a783          	lw	a5,8(s1)
    4860:	00e787b3          	add	a5,a5,a4
    4864:	02f12223          	sw	a5,36(sp)
    4868:	01410713          	addi	a4,sp,20
    486c:	00000593          	li	a1,0
    4870:	00100793          	li	a5,1
    4874:	00600613          	li	a2,6
    4878:	1080006f          	j	4980 <__heap_size+0x980>
    487c:	00000a93          	li	s5,0
    4880:	f6cff06f          	j	3fec <inferenceTPG+0x349c>
    4884:	fff00a93          	li	s5,-1
    4888:	985ff06f          	j	420c <__heap_size+0x20c>
    488c:	000657b7          	lui	a5,0x65
    4890:	87e78793          	addi	a5,a5,-1922 # 6487e <_sp+0x3983e>
    4894:	00f585b3          	add	a1,a1,a5
    4898:	9b1ff06f          	j	4248 <__heap_size+0x248>
    489c:	fffce7b7          	lui	a5,0xfffce
    48a0:	bc078793          	addi	a5,a5,-1088 # fffcdbc0 <_sp+0xfffa2b80>
    48a4:	00f587b3          	add	a5,a1,a5
    48a8:	000196b7          	lui	a3,0x19
    48ac:	21f68693          	addi	a3,a3,543 # 1921f <heap.cpp.6b15d6f6+0x3b66>
    48b0:	00f6ec63          	bltu	a3,a5,48c8 <__heap_size+0x8c8>
    48b4:	fffce7b7          	lui	a5,0xfffce
    48b8:	bc178793          	addi	a5,a5,-1087 # fffcdbc1 <_sp+0xfffa2b81>
    48bc:	00f585b3          	add	a1,a1,a5
    48c0:	fff00813          	li	a6,-1
    48c4:	9adff06f          	j	4270 <__heap_size+0x270>
    48c8:	0004b7b7          	lui	a5,0x4b
    48cc:	65f78793          	addi	a5,a5,1631 # 4b65f <_sp+0x2061f>
    48d0:	00100813          	li	a6,1
    48d4:	98b7dee3          	bge	a5,a1,4270 <__heap_size+0x270>
    48d8:	000657b7          	lui	a5,0x65
    48dc:	87e78793          	addi	a5,a5,-1922 # 6487e <_sp+0x3983e>
    48e0:	40b785b3          	sub	a1,a5,a1
    48e4:	fff00813          	li	a6,-1
    48e8:	989ff06f          	j	4270 <__heap_size+0x270>
    48ec:	000657b7          	lui	a5,0x65
    48f0:	87e78793          	addi	a5,a5,-1922 # 6487e <_sp+0x3983e>
    48f4:	00f50533          	add	a0,a0,a5
    48f8:	9b1ff06f          	j	42a8 <__heap_size+0x2a8>
    48fc:	fffce7b7          	lui	a5,0xfffce
    4900:	bc078793          	addi	a5,a5,-1088 # fffcdbc0 <_sp+0xfffa2b80>
    4904:	00f507b3          	add	a5,a0,a5
    4908:	00019737          	lui	a4,0x19
    490c:	21f70713          	addi	a4,a4,543 # 1921f <heap.cpp.6b15d6f6+0x3b66>
    4910:	00f76c63          	bltu	a4,a5,4928 <__heap_size+0x928>
    4914:	fffce7b7          	lui	a5,0xfffce
    4918:	bc178793          	addi	a5,a5,-1087 # fffcdbc1 <_sp+0xfffa2b81>
    491c:	00f50533          	add	a0,a0,a5
    4920:	fff00613          	li	a2,-1
    4924:	9adff06f          	j	42d0 <__heap_size+0x2d0>
    4928:	0004b7b7          	lui	a5,0x4b
    492c:	65f78793          	addi	a5,a5,1631 # 4b65f <_sp+0x2061f>
    4930:	00100613          	li	a2,1
    4934:	98a7dee3          	bge	a5,a0,42d0 <__heap_size+0x2d0>
    4938:	000657b7          	lui	a5,0x65
    493c:	87e78793          	addi	a5,a5,-1922 # 6487e <_sp+0x3983e>
    4940:	40a78533          	sub	a0,a5,a0
    4944:	fff00613          	li	a2,-1
    4948:	989ff06f          	j	42d0 <__heap_size+0x2d0>
    494c:	00000b93          	li	s7,0
    4950:	b49ff06f          	j	4498 <__heap_size+0x498>
    4954:	fff00593          	li	a1,-1
    4958:	d61ff06f          	j	46b8 <__heap_size+0x6b8>
    495c:	41600b33          	neg	s6,s6
    4960:	dadff06f          	j	470c <__heap_size+0x70c>
    4964:	41600733          	neg	a4,s6
    4968:	41075713          	srai	a4,a4,0x10
    496c:	40e7d7b3          	sra	a5,a5,a4
    4970:	ec1ff06f          	j	4830 <__heap_size+0x830>
    4974:	00178793          	addi	a5,a5,1
    4978:	00470713          	addi	a4,a4,4
    497c:	00c78c63          	beq	a5,a2,4994 <__heap_size+0x994>
    4980:	00072683          	lw	a3,0(a4)
    4984:	ff56c8e3          	blt	a3,s5,4974 <__heap_size+0x974>
    4988:	00068a93          	mv	s5,a3
    498c:	00078593          	mv	a1,a5
    4990:	fe5ff06f          	j	4974 <__heap_size+0x974>
    4994:	00020737          	lui	a4,0x20
    4998:	000207b7          	lui	a5,0x20
    499c:	0b478793          	addi	a5,a5,180 # 200b4 <next.10>
    49a0:	20f5c5b3          	sh2add	a1,a1,a5
    49a4:	0005a783          	lw	a5,0(a1)
    49a8:	14470713          	addi	a4,a4,324 # 20144 <jump_table.23>
    49ac:	20e7c7b3          	sh2add	a5,a5,a4
    49b0:	0007a783          	lw	a5,0(a5)
    49b4:	9e8fc06f          	j	b9c <inferenceTPG+0x4c>
    49b8:	09b12023          	sw	s11,128(sp)
    49bc:	0049a783          	lw	a5,4(s3)
    49c0:	00078d13          	mv	s10,a5
    49c4:	00492783          	lw	a5,4(s2)
    49c8:	0afd6c33          	max	s8,s10,a5
    49cc:	05812023          	sw	s8,64(sp)
    49d0:	00092a83          	lw	s5,0(s2)
    49d4:	0baae7b3          	max	a5,s5,s10
    49d8:	04f12223          	sw	a5,68(sp)
    49dc:	0004ab83          	lw	s7,0(s1)
    49e0:	000107b7          	lui	a5,0x10
    49e4:	180b8c63          	beqz	s7,4b7c <__heap_size+0xb7c>
    49e8:	41700733          	neg	a4,s7
    49ec:	0aebe733          	max	a4,s7,a4
    49f0:	41f75793          	srai	a5,a4,0x1f
    49f4:	000176b7          	lui	a3,0x17
    49f8:	15468693          	addi	a3,a3,340 # 17154 <heap.cpp.6b15d6f6+0x1a9b>
    49fc:	02d787b3          	mul	a5,a5,a3
    4a00:	02d70b33          	mul	s6,a4,a3
    4a04:	02d73733          	mulhu	a4,a4,a3
    4a08:	00e787b3          	add	a5,a5,a4
    4a0c:	01079793          	slli	a5,a5,0x10
    4a10:	010b5b13          	srli	s6,s6,0x10
    4a14:	01678b33          	add	s6,a5,s6
    4a18:	000087b7          	lui	a5,0x8
    4a1c:	00fb0b33          	add	s6,s6,a5
    4a20:	ffff07b7          	lui	a5,0xffff0
    4a24:	00fb7b33          	and	s6,s6,a5
    4a28:	3c0bc4e3          	bltz	s7,55f0 <__heap_size+0x15f0>
    4a2c:	41fb5713          	srai	a4,s6,0x1f
    4a30:	0000b6b7          	lui	a3,0xb
    4a34:	17268693          	addi	a3,a3,370 # b172 <__muldf3+0x176>
    4a38:	02d70733          	mul	a4,a4,a3
    4a3c:	02db07b3          	mul	a5,s6,a3
    4a40:	02db36b3          	mulhu	a3,s6,a3
    4a44:	00d70733          	add	a4,a4,a3
    4a48:	01071713          	slli	a4,a4,0x10
    4a4c:	0107d793          	srli	a5,a5,0x10
    4a50:	00f707b3          	add	a5,a4,a5
    4a54:	40fb87b3          	sub	a5,s7,a5
    4a58:	41f7d713          	srai	a4,a5,0x1f
    4a5c:	02f70733          	mul	a4,a4,a5
    4a60:	02f78633          	mul	a2,a5,a5
    4a64:	02f7b6b3          	mulhu	a3,a5,a5
    4a68:	20d72733          	sh1add	a4,a4,a3
    4a6c:	01071713          	slli	a4,a4,0x10
    4a70:	01065613          	srli	a2,a2,0x10
    4a74:	00c70633          	add	a2,a4,a2
    4a78:	41f65513          	srai	a0,a2,0x1f
    4a7c:	01e65713          	srli	a4,a2,0x1e
    4a80:	20e54733          	sh2add	a4,a0,a4
    4a84:	00261693          	slli	a3,a2,0x2
    4a88:	01071713          	slli	a4,a4,0x10
    4a8c:	0106d693          	srli	a3,a3,0x10
    4a90:	00d706b3          	add	a3,a4,a3
    4a94:	f4a68693          	addi	a3,a3,-182
    4a98:	41f6d593          	srai	a1,a3,0x1f
    4a9c:	02c585b3          	mul	a1,a1,a2
    4aa0:	02d50733          	mul	a4,a0,a3
    4aa4:	00e585b3          	add	a1,a1,a4
    4aa8:	02c68733          	mul	a4,a3,a2
    4aac:	02c6b6b3          	mulhu	a3,a3,a2
    4ab0:	00d586b3          	add	a3,a1,a3
    4ab4:	01069693          	slli	a3,a3,0x10
    4ab8:	01075713          	srli	a4,a4,0x10
    4abc:	00e68733          	add	a4,a3,a4
    4ac0:	000036b7          	lui	a3,0x3
    4ac4:	aab68693          	addi	a3,a3,-1365 # 2aab <inferenceTPG+0x1f5b>
    4ac8:	00d70733          	add	a4,a4,a3
    4acc:	41f75693          	srai	a3,a4,0x1f
    4ad0:	02c686b3          	mul	a3,a3,a2
    4ad4:	02e50533          	mul	a0,a0,a4
    4ad8:	00a686b3          	add	a3,a3,a0
    4adc:	02c705b3          	mul	a1,a4,a2
    4ae0:	02c73733          	mulhu	a4,a4,a2
    4ae4:	00e68733          	add	a4,a3,a4
    4ae8:	01071713          	slli	a4,a4,0x10
    4aec:	0105d693          	srli	a3,a1,0x10
    4af0:	00d706b3          	add	a3,a4,a3
    4af4:	00020737          	lui	a4,0x20
    4af8:	00e686b3          	add	a3,a3,a4
    4afc:	40f68633          	sub	a2,a3,a5
    4b00:	02f68c63          	beq	a3,a5,4b38 <__heap_size+0xb38>
    4b04:	00f7d713          	srli	a4,a5,0xf
    4b08:	01179793          	slli	a5,a5,0x11
    4b0c:	01071713          	slli	a4,a4,0x10
    4b10:	0107d793          	srli	a5,a5,0x10
    4b14:	00f707b3          	add	a5,a4,a5
    4b18:	41f7d713          	srai	a4,a5,0x1f
    4b1c:	0107d593          	srli	a1,a5,0x10
    4b20:	01071713          	slli	a4,a4,0x10
    4b24:	41f65693          	srai	a3,a2,0x1f
    4b28:	01079513          	slli	a0,a5,0x10
    4b2c:	00e585b3          	add	a1,a1,a4
    4b30:	2a4070ef          	jal	bdd4 <__divdi3>
    4b34:	00050613          	mv	a2,a0
    4b38:	000107b7          	lui	a5,0x10
    4b3c:	00f606b3          	add	a3,a2,a5
    4b40:	2a0b4ce3          	bltz	s6,55f8 <__heap_size+0x15f8>
    4b44:	410b5b13          	srai	s6,s6,0x10
    4b48:	00010737          	lui	a4,0x10
    4b4c:	01671733          	sll	a4,a4,s6
    4b50:	41f75793          	srai	a5,a4,0x1f
    4b54:	41f6d613          	srai	a2,a3,0x1f
    4b58:	02d787b3          	mul	a5,a5,a3
    4b5c:	02e60633          	mul	a2,a2,a4
    4b60:	00c787b3          	add	a5,a5,a2
    4b64:	02d70633          	mul	a2,a4,a3
    4b68:	02d73733          	mulhu	a4,a4,a3
    4b6c:	00e787b3          	add	a5,a5,a4
    4b70:	01079793          	slli	a5,a5,0x10
    4b74:	01065713          	srli	a4,a2,0x10
    4b78:	00e787b3          	add	a5,a5,a4
    4b7c:	04f12423          	sw	a5,72(sp)
    4b80:	0044a783          	lw	a5,4(s1)
    4b84:	00078d93          	mv	s11,a5
    4b88:	280782e3          	beqz	a5,560c <__heap_size+0x160c>
    4b8c:	41fad793          	srai	a5,s5,0x1f
    4b90:	010ad593          	srli	a1,s5,0x10
    4b94:	01079793          	slli	a5,a5,0x10
    4b98:	000d8613          	mv	a2,s11
    4b9c:	41fdd693          	srai	a3,s11,0x1f
    4ba0:	010a9513          	slli	a0,s5,0x10
    4ba4:	00f585b3          	add	a1,a1,a5
    4ba8:	22c070ef          	jal	bdd4 <__divdi3>
    4bac:	00050793          	mv	a5,a0
    4bb0:	24050ee3          	beqz	a0,560c <__heap_size+0x160c>
    4bb4:	40a006b3          	neg	a3,a0
    4bb8:	0ad566b3          	max	a3,a0,a3
    4bbc:	41f6d713          	srai	a4,a3,0x1f
    4bc0:	00017637          	lui	a2,0x17
    4bc4:	15460613          	addi	a2,a2,340 # 17154 <heap.cpp.6b15d6f6+0x1a9b>
    4bc8:	02c70733          	mul	a4,a4,a2
    4bcc:	02c68b33          	mul	s6,a3,a2
    4bd0:	02c6b6b3          	mulhu	a3,a3,a2
    4bd4:	00d70733          	add	a4,a4,a3
    4bd8:	01071713          	slli	a4,a4,0x10
    4bdc:	010b5b13          	srli	s6,s6,0x10
    4be0:	01670b33          	add	s6,a4,s6
    4be4:	00008737          	lui	a4,0x8
    4be8:	00eb0b33          	add	s6,s6,a4
    4bec:	ffff0737          	lui	a4,0xffff0
    4bf0:	00eb7b33          	and	s6,s6,a4
    4bf4:	220540e3          	bltz	a0,5614 <__heap_size+0x1614>
    4bf8:	41fb5713          	srai	a4,s6,0x1f
    4bfc:	0000b6b7          	lui	a3,0xb
    4c00:	17268693          	addi	a3,a3,370 # b172 <__muldf3+0x176>
    4c04:	02d70733          	mul	a4,a4,a3
    4c08:	02db0633          	mul	a2,s6,a3
    4c0c:	02db36b3          	mulhu	a3,s6,a3
    4c10:	00d70733          	add	a4,a4,a3
    4c14:	01071713          	slli	a4,a4,0x10
    4c18:	01065693          	srli	a3,a2,0x10
    4c1c:	00d706b3          	add	a3,a4,a3
    4c20:	40d787b3          	sub	a5,a5,a3
    4c24:	41f7d713          	srai	a4,a5,0x1f
    4c28:	02f70733          	mul	a4,a4,a5
    4c2c:	02f78633          	mul	a2,a5,a5
    4c30:	02f7b6b3          	mulhu	a3,a5,a5
    4c34:	20d72733          	sh1add	a4,a4,a3
    4c38:	01071713          	slli	a4,a4,0x10
    4c3c:	01065613          	srli	a2,a2,0x10
    4c40:	00c70633          	add	a2,a4,a2
    4c44:	41f65513          	srai	a0,a2,0x1f
    4c48:	01e65713          	srli	a4,a2,0x1e
    4c4c:	20e54733          	sh2add	a4,a0,a4
    4c50:	00261693          	slli	a3,a2,0x2
    4c54:	01071713          	slli	a4,a4,0x10
    4c58:	0106d693          	srli	a3,a3,0x10
    4c5c:	00d706b3          	add	a3,a4,a3
    4c60:	f4a68693          	addi	a3,a3,-182
    4c64:	41f6d593          	srai	a1,a3,0x1f
    4c68:	02c585b3          	mul	a1,a1,a2
    4c6c:	02d50733          	mul	a4,a0,a3
    4c70:	00e585b3          	add	a1,a1,a4
    4c74:	02c68733          	mul	a4,a3,a2
    4c78:	02c6b6b3          	mulhu	a3,a3,a2
    4c7c:	00d586b3          	add	a3,a1,a3
    4c80:	01069693          	slli	a3,a3,0x10
    4c84:	01075713          	srli	a4,a4,0x10
    4c88:	00e68733          	add	a4,a3,a4
    4c8c:	000036b7          	lui	a3,0x3
    4c90:	aab68693          	addi	a3,a3,-1365 # 2aab <inferenceTPG+0x1f5b>
    4c94:	00d70733          	add	a4,a4,a3
    4c98:	41f75693          	srai	a3,a4,0x1f
    4c9c:	02c686b3          	mul	a3,a3,a2
    4ca0:	02e50533          	mul	a0,a0,a4
    4ca4:	00a686b3          	add	a3,a3,a0
    4ca8:	02c705b3          	mul	a1,a4,a2
    4cac:	02c73733          	mulhu	a4,a4,a2
    4cb0:	00e68733          	add	a4,a3,a4
    4cb4:	01071713          	slli	a4,a4,0x10
    4cb8:	0105d693          	srli	a3,a1,0x10
    4cbc:	00d706b3          	add	a3,a4,a3
    4cc0:	00020737          	lui	a4,0x20
    4cc4:	00e686b3          	add	a3,a3,a4
    4cc8:	40f68633          	sub	a2,a3,a5
    4ccc:	02f68c63          	beq	a3,a5,4d04 <__heap_size+0xd04>
    4cd0:	00f7d713          	srli	a4,a5,0xf
    4cd4:	01179793          	slli	a5,a5,0x11
    4cd8:	01071713          	slli	a4,a4,0x10
    4cdc:	0107d793          	srli	a5,a5,0x10
    4ce0:	00f707b3          	add	a5,a4,a5
    4ce4:	41f7d713          	srai	a4,a5,0x1f
    4ce8:	0107d593          	srli	a1,a5,0x10
    4cec:	01071713          	slli	a4,a4,0x10
    4cf0:	41f65693          	srai	a3,a2,0x1f
    4cf4:	01079513          	slli	a0,a5,0x10
    4cf8:	00e585b3          	add	a1,a1,a4
    4cfc:	0d8070ef          	jal	bdd4 <__divdi3>
    4d00:	00050613          	mv	a2,a0
    4d04:	000107b7          	lui	a5,0x10
    4d08:	00f606b3          	add	a3,a2,a5
    4d0c:	100b48e3          	bltz	s6,561c <__heap_size+0x161c>
    4d10:	410b5b13          	srai	s6,s6,0x10
    4d14:	00010737          	lui	a4,0x10
    4d18:	01671733          	sll	a4,a4,s6
    4d1c:	41f75793          	srai	a5,a4,0x1f
    4d20:	41f6d613          	srai	a2,a3,0x1f
    4d24:	02d787b3          	mul	a5,a5,a3
    4d28:	02e60633          	mul	a2,a2,a4
    4d2c:	00c787b3          	add	a5,a5,a2
    4d30:	02d70633          	mul	a2,a4,a3
    4d34:	02d73733          	mulhu	a4,a4,a3
    4d38:	00e787b3          	add	a5,a5,a4
    4d3c:	01079793          	slli	a5,a5,0x10
    4d40:	01065713          	srli	a4,a2,0x10
    4d44:	00e787b3          	add	a5,a5,a4
    4d48:	04f12623          	sw	a5,76(sp)
    4d4c:	000ad463          	bgez	s5,4d54 <__heap_size+0xd54>
    4d50:	5380206f          	j	7288 <__heap_size+0x3288>
    4d54:	0e0a82e3          	beqz	s5,5638 <__heap_size+0x1638>
    4d58:	000207b7          	lui	a5,0x20
    4d5c:	0d57dae3          	bge	a5,s5,5630 <__heap_size+0x1630>
    4d60:	00000b13          	li	s6,0
    4d64:	401ada93          	srai	s5,s5,0x1
    4d68:	001b0b13          	addi	s6,s6,1 # ffff0001 <_sp+0xfffc4fc1>
    4d6c:	ff57cce3          	blt	a5,s5,4d64 <__heap_size+0xd64>
    4d70:	ffff07b7          	lui	a5,0xffff0
    4d74:	00fa87b3          	add	a5,s5,a5
    4d78:	00f12423          	sw	a5,8(sp)
    4d7c:	41f7d793          	srai	a5,a5,0x1f
    4d80:	00812703          	lw	a4,8(sp)
    4d84:	01075593          	srli	a1,a4,0x10
    4d88:	01079793          	slli	a5,a5,0x10
    4d8c:	00010737          	lui	a4,0x10
    4d90:	00ea8633          	add	a2,s5,a4
    4d94:	41f65693          	srai	a3,a2,0x1f
    4d98:	00812703          	lw	a4,8(sp)
    4d9c:	01071513          	slli	a0,a4,0x10
    4da0:	00f585b3          	add	a1,a1,a5
    4da4:	030070ef          	jal	bdd4 <__divdi3>
    4da8:	41f55593          	srai	a1,a0,0x1f
    4dac:	02a587b3          	mul	a5,a1,a0
    4db0:	02a506b3          	mul	a3,a0,a0
    4db4:	02a53733          	mulhu	a4,a0,a0
    4db8:	20e7a7b3          	sh1add	a5,a5,a4
    4dbc:	01079793          	slli	a5,a5,0x10
    4dc0:	0106d693          	srli	a3,a3,0x10
    4dc4:	00d786b3          	add	a3,a5,a3
    4dc8:	41f6d313          	srai	t1,a3,0x1f
    4dcc:	02d30733          	mul	a4,t1,a3
    4dd0:	02d687b3          	mul	a5,a3,a3
    4dd4:	02d6b633          	mulhu	a2,a3,a3
    4dd8:	20c72733          	sh1add	a4,a4,a2
    4ddc:	01071713          	slli	a4,a4,0x10
    4de0:	0107d793          	srli	a5,a5,0x10
    4de4:	00f707b3          	add	a5,a4,a5
    4de8:	41f7d813          	srai	a6,a5,0x1f
    4dec:	010b1b13          	slli	s6,s6,0x10
    4df0:	41fb5613          	srai	a2,s6,0x1f
    4df4:	0000b8b7          	lui	a7,0xb
    4df8:	17288893          	addi	a7,a7,370 # b172 <__muldf3+0x176>
    4dfc:	03160633          	mul	a2,a2,a7
    4e00:	031b0733          	mul	a4,s6,a7
    4e04:	031b3b33          	mulhu	s6,s6,a7
    4e08:	01660633          	add	a2,a2,s6
    4e0c:	01061613          	slli	a2,a2,0x10
    4e10:	01075713          	srli	a4,a4,0x10
    4e14:	00e60733          	add	a4,a2,a4
    4e18:	00812603          	lw	a2,8(sp)
    4e1c:	00e60733          	add	a4,a2,a4
    4e20:	000028b7          	lui	a7,0x2
    4e24:	5e288893          	addi	a7,a7,1506 # 25e2 <inferenceTPG+0x1a92>
    4e28:	03180e33          	mul	t3,a6,a7
    4e2c:	03178633          	mul	a2,a5,a7
    4e30:	0317b8b3          	mulhu	a7,a5,a7
    4e34:	011e08b3          	add	a7,t3,a7
    4e38:	01089893          	slli	a7,a7,0x10
    4e3c:	01065613          	srli	a2,a2,0x10
    4e40:	00c88633          	add	a2,a7,a2
    4e44:	000038b7          	lui	a7,0x3
    4e48:	e8d88893          	addi	a7,a7,-371 # 2e8d <inferenceTPG+0x233d>
    4e4c:	01160633          	add	a2,a2,a7
    4e50:	41f65e13          	srai	t3,a2,0x1f
    4e54:	02fe0e33          	mul	t3,t3,a5
    4e58:	02c808b3          	mul	a7,a6,a2
    4e5c:	011e0e33          	add	t3,t3,a7
    4e60:	02f608b3          	mul	a7,a2,a5
    4e64:	02f63633          	mulhu	a2,a2,a5
    4e68:	00ce0633          	add	a2,t3,a2
    4e6c:	01061613          	slli	a2,a2,0x10
    4e70:	0108d893          	srli	a7,a7,0x10
    4e74:	011608b3          	add	a7,a2,a7
    4e78:	00005637          	lui	a2,0x5
    4e7c:	92560613          	addi	a2,a2,-1755 # 4925 <__heap_size+0x925>
    4e80:	00c888b3          	add	a7,a7,a2
    4e84:	41f8de13          	srai	t3,a7,0x1f
    4e88:	02fe0e33          	mul	t3,t3,a5
    4e8c:	03180633          	mul	a2,a6,a7
    4e90:	00ce0e33          	add	t3,t3,a2
    4e94:	02f88633          	mul	a2,a7,a5
    4e98:	02f8b8b3          	mulhu	a7,a7,a5
    4e9c:	011e08b3          	add	a7,t3,a7
    4ea0:	01089893          	slli	a7,a7,0x10
    4ea4:	01065613          	srli	a2,a2,0x10
    4ea8:	00c88633          	add	a2,a7,a2
    4eac:	0000b8b7          	lui	a7,0xb
    4eb0:	aab88893          	addi	a7,a7,-1365 # aaab <__divdf3+0x27f>
    4eb4:	01160633          	add	a2,a2,a7
    4eb8:	41f65893          	srai	a7,a2,0x1f
    4ebc:	02d888b3          	mul	a7,a7,a3
    4ec0:	02c30333          	mul	t1,t1,a2
    4ec4:	00688333          	add	t1,a7,t1
    4ec8:	02d608b3          	mul	a7,a2,a3
    4ecc:	02d63633          	mulhu	a2,a2,a3
    4ed0:	00c306b3          	add	a3,t1,a2
    4ed4:	01069693          	slli	a3,a3,0x10
    4ed8:	0108d893          	srli	a7,a7,0x10
    4edc:	011688b3          	add	a7,a3,a7
    4ee0:	000026b7          	lui	a3,0x2
    4ee4:	73468693          	addi	a3,a3,1844 # 2734 <inferenceTPG+0x1be4>
    4ee8:	02d80333          	mul	t1,a6,a3
    4eec:	02d78633          	mul	a2,a5,a3
    4ef0:	02d7b6b3          	mulhu	a3,a5,a3
    4ef4:	00d306b3          	add	a3,t1,a3
    4ef8:	01069693          	slli	a3,a3,0x10
    4efc:	01065613          	srli	a2,a2,0x10
    4f00:	00c68633          	add	a2,a3,a2
    4f04:	000046b7          	lui	a3,0x4
    4f08:	8e468693          	addi	a3,a3,-1820 # 38e4 <inferenceTPG+0x2d94>
    4f0c:	00d60633          	add	a2,a2,a3
    4f10:	41f65313          	srai	t1,a2,0x1f
    4f14:	02f30333          	mul	t1,t1,a5
    4f18:	02c806b3          	mul	a3,a6,a2
    4f1c:	00d30333          	add	t1,t1,a3
    4f20:	02f606b3          	mul	a3,a2,a5
    4f24:	02f63633          	mulhu	a2,a2,a5
    4f28:	00c30633          	add	a2,t1,a2
    4f2c:	01061613          	slli	a2,a2,0x10
    4f30:	0106d693          	srli	a3,a3,0x10
    4f34:	00d606b3          	add	a3,a2,a3
    4f38:	00006637          	lui	a2,0x6
    4f3c:	66660613          	addi	a2,a2,1638 # 6666 <__heap_size+0x2666>
    4f40:	00c686b3          	add	a3,a3,a2
    4f44:	41f6d613          	srai	a2,a3,0x1f
    4f48:	02f60633          	mul	a2,a2,a5
    4f4c:	02d80833          	mul	a6,a6,a3
    4f50:	01060633          	add	a2,a2,a6
    4f54:	02f68833          	mul	a6,a3,a5
    4f58:	02f6b6b3          	mulhu	a3,a3,a5
    4f5c:	00d607b3          	add	a5,a2,a3
    4f60:	01079793          	slli	a5,a5,0x10
    4f64:	01085693          	srli	a3,a6,0x10
    4f68:	00d786b3          	add	a3,a5,a3
    4f6c:	00d888b3          	add	a7,a7,a3
    4f70:	00812783          	lw	a5,8(sp)
    4f74:	411787b3          	sub	a5,a5,a7
    4f78:	41f7d693          	srai	a3,a5,0x1f
    4f7c:	02a686b3          	mul	a3,a3,a0
    4f80:	02f585b3          	mul	a1,a1,a5
    4f84:	00b686b3          	add	a3,a3,a1
    4f88:	02a78633          	mul	a2,a5,a0
    4f8c:	02a7b7b3          	mulhu	a5,a5,a0
    4f90:	00f687b3          	add	a5,a3,a5
    4f94:	01079793          	slli	a5,a5,0x10
    4f98:	01065693          	srli	a3,a2,0x10
    4f9c:	00d786b3          	add	a3,a5,a3
    4fa0:	40d70733          	sub	a4,a4,a3
    4fa4:	0084ab03          	lw	s6,8(s1)
    4fa8:	41fb5793          	srai	a5,s6,0x1f
    4fac:	00f12623          	sw	a5,12(sp)
    4fb0:	41f75793          	srai	a5,a4,0x1f
    4fb4:	036787b3          	mul	a5,a5,s6
    4fb8:	00c12683          	lw	a3,12(sp)
    4fbc:	02e686b3          	mul	a3,a3,a4
    4fc0:	00d787b3          	add	a5,a5,a3
    4fc4:	036706b3          	mul	a3,a4,s6
    4fc8:	03673733          	mulhu	a4,a4,s6
    4fcc:	00e787b3          	add	a5,a5,a4
    4fd0:	01079793          	slli	a5,a5,0x10
    4fd4:	0106d713          	srli	a4,a3,0x10
    4fd8:	00e787b3          	add	a5,a5,a4
    4fdc:	68078063          	beqz	a5,565c <__heap_size+0x165c>
    4fe0:	40f006b3          	neg	a3,a5
    4fe4:	0ad7e6b3          	max	a3,a5,a3
    4fe8:	41f6d713          	srai	a4,a3,0x1f
    4fec:	00017637          	lui	a2,0x17
    4ff0:	15460613          	addi	a2,a2,340 # 17154 <heap.cpp.6b15d6f6+0x1a9b>
    4ff4:	02c70733          	mul	a4,a4,a2
    4ff8:	02c68ab3          	mul	s5,a3,a2
    4ffc:	02c6b6b3          	mulhu	a3,a3,a2
    5000:	00d70733          	add	a4,a4,a3
    5004:	01071713          	slli	a4,a4,0x10
    5008:	010ada93          	srli	s5,s5,0x10
    500c:	01570ab3          	add	s5,a4,s5
    5010:	00008737          	lui	a4,0x8
    5014:	00ea8ab3          	add	s5,s5,a4
    5018:	ffff0737          	lui	a4,0xffff0
    501c:	00eafab3          	and	s5,s5,a4
    5020:	6207c063          	bltz	a5,5640 <__heap_size+0x1640>
    5024:	41fad713          	srai	a4,s5,0x1f
    5028:	0000b6b7          	lui	a3,0xb
    502c:	17268693          	addi	a3,a3,370 # b172 <__muldf3+0x176>
    5030:	02d70733          	mul	a4,a4,a3
    5034:	02da8633          	mul	a2,s5,a3
    5038:	02dab6b3          	mulhu	a3,s5,a3
    503c:	00d70733          	add	a4,a4,a3
    5040:	01071713          	slli	a4,a4,0x10
    5044:	01065693          	srli	a3,a2,0x10
    5048:	00d706b3          	add	a3,a4,a3
    504c:	40d787b3          	sub	a5,a5,a3
    5050:	41f7d713          	srai	a4,a5,0x1f
    5054:	02f70733          	mul	a4,a4,a5
    5058:	02f78633          	mul	a2,a5,a5
    505c:	02f7b6b3          	mulhu	a3,a5,a5
    5060:	20d72733          	sh1add	a4,a4,a3
    5064:	01071713          	slli	a4,a4,0x10
    5068:	01065613          	srli	a2,a2,0x10
    506c:	00c70633          	add	a2,a4,a2
    5070:	41f65513          	srai	a0,a2,0x1f
    5074:	01e65713          	srli	a4,a2,0x1e
    5078:	20e54733          	sh2add	a4,a0,a4
    507c:	00261693          	slli	a3,a2,0x2
    5080:	01071713          	slli	a4,a4,0x10
    5084:	0106d693          	srli	a3,a3,0x10
    5088:	00d706b3          	add	a3,a4,a3
    508c:	f4a68693          	addi	a3,a3,-182
    5090:	41f6d593          	srai	a1,a3,0x1f
    5094:	02c585b3          	mul	a1,a1,a2
    5098:	02d50733          	mul	a4,a0,a3
    509c:	00e585b3          	add	a1,a1,a4
    50a0:	02c68733          	mul	a4,a3,a2
    50a4:	02c6b6b3          	mulhu	a3,a3,a2
    50a8:	00d586b3          	add	a3,a1,a3
    50ac:	01069693          	slli	a3,a3,0x10
    50b0:	01075713          	srli	a4,a4,0x10
    50b4:	00e68733          	add	a4,a3,a4
    50b8:	000036b7          	lui	a3,0x3
    50bc:	aab68693          	addi	a3,a3,-1365 # 2aab <inferenceTPG+0x1f5b>
    50c0:	00d70733          	add	a4,a4,a3
    50c4:	41f75693          	srai	a3,a4,0x1f
    50c8:	02c686b3          	mul	a3,a3,a2
    50cc:	02e50533          	mul	a0,a0,a4
    50d0:	00a686b3          	add	a3,a3,a0
    50d4:	02c705b3          	mul	a1,a4,a2
    50d8:	02c73733          	mulhu	a4,a4,a2
    50dc:	00e68733          	add	a4,a3,a4
    50e0:	01071713          	slli	a4,a4,0x10
    50e4:	0105d693          	srli	a3,a1,0x10
    50e8:	00d706b3          	add	a3,a4,a3
    50ec:	00020737          	lui	a4,0x20
    50f0:	00e686b3          	add	a3,a3,a4
    50f4:	40f68633          	sub	a2,a3,a5
    50f8:	02f68c63          	beq	a3,a5,5130 <__heap_size+0x1130>
    50fc:	00f7d713          	srli	a4,a5,0xf
    5100:	01179793          	slli	a5,a5,0x11
    5104:	01071713          	slli	a4,a4,0x10
    5108:	0107d793          	srli	a5,a5,0x10
    510c:	00f707b3          	add	a5,a4,a5
    5110:	41f7d713          	srai	a4,a5,0x1f
    5114:	0107d593          	srli	a1,a5,0x10
    5118:	01071713          	slli	a4,a4,0x10
    511c:	41f65693          	srai	a3,a2,0x1f
    5120:	01079513          	slli	a0,a5,0x10
    5124:	00e585b3          	add	a1,a1,a4
    5128:	4ad060ef          	jal	bdd4 <__divdi3>
    512c:	00050613          	mv	a2,a0
    5130:	000107b7          	lui	a5,0x10
    5134:	00f606b3          	add	a3,a2,a5
    5138:	500ac863          	bltz	s5,5648 <__heap_size+0x1648>
    513c:	410ada93          	srai	s5,s5,0x10
    5140:	00010737          	lui	a4,0x10
    5144:	01571733          	sll	a4,a4,s5
    5148:	41f75793          	srai	a5,a4,0x1f
    514c:	41f6d613          	srai	a2,a3,0x1f
    5150:	02d787b3          	mul	a5,a5,a3
    5154:	02e60633          	mul	a2,a2,a4
    5158:	00c787b3          	add	a5,a5,a2
    515c:	02d70633          	mul	a2,a4,a3
    5160:	02d73733          	mulhu	a4,a4,a3
    5164:	00e787b3          	add	a5,a5,a4
    5168:	01079793          	slli	a5,a5,0x10
    516c:	01065713          	srli	a4,a2,0x10
    5170:	00e787b3          	add	a5,a5,a4
    5174:	00fb87b3          	add	a5,s7,a5
    5178:	01b787b3          	add	a5,a5,s11
    517c:	04f12823          	sw	a5,80(sp)
    5180:	4e0bcc63          	bltz	s7,5678 <__heap_size+0x1678>
    5184:	4e0b8663          	beqz	s7,5670 <__heap_size+0x1670>
    5188:	000207b7          	lui	a5,0x20
    518c:	4d77dc63          	bge	a5,s7,5664 <__heap_size+0x1664>
    5190:	000b8693          	mv	a3,s7
    5194:	00000a93          	li	s5,0
    5198:	4016d693          	srai	a3,a3,0x1
    519c:	001a8a93          	addi	s5,s5,1
    51a0:	fed7cce3          	blt	a5,a3,5198 <__heap_size+0x1198>
    51a4:	ffff07b7          	lui	a5,0xffff0
    51a8:	00f687b3          	add	a5,a3,a5
    51ac:	00f12423          	sw	a5,8(sp)
    51b0:	41f7d793          	srai	a5,a5,0x1f
    51b4:	00812703          	lw	a4,8(sp)
    51b8:	01075593          	srli	a1,a4,0x10
    51bc:	01079793          	slli	a5,a5,0x10
    51c0:	00010737          	lui	a4,0x10
    51c4:	00e68633          	add	a2,a3,a4
    51c8:	41f65693          	srai	a3,a2,0x1f
    51cc:	00812703          	lw	a4,8(sp)
    51d0:	01071513          	slli	a0,a4,0x10
    51d4:	00f585b3          	add	a1,a1,a5
    51d8:	3fd060ef          	jal	bdd4 <__divdi3>
    51dc:	41f55593          	srai	a1,a0,0x1f
    51e0:	02a587b3          	mul	a5,a1,a0
    51e4:	02a506b3          	mul	a3,a0,a0
    51e8:	02a53733          	mulhu	a4,a0,a0
    51ec:	20e7a7b3          	sh1add	a5,a5,a4
    51f0:	01079793          	slli	a5,a5,0x10
    51f4:	0106d693          	srli	a3,a3,0x10
    51f8:	00d786b3          	add	a3,a5,a3
    51fc:	41f6d313          	srai	t1,a3,0x1f
    5200:	02d30733          	mul	a4,t1,a3
    5204:	02d687b3          	mul	a5,a3,a3
    5208:	02d6b633          	mulhu	a2,a3,a3
    520c:	20c72733          	sh1add	a4,a4,a2
    5210:	01071713          	slli	a4,a4,0x10
    5214:	0107d793          	srli	a5,a5,0x10
    5218:	00f707b3          	add	a5,a4,a5
    521c:	41f7d813          	srai	a6,a5,0x1f
    5220:	010a9a93          	slli	s5,s5,0x10
    5224:	41fad613          	srai	a2,s5,0x1f
    5228:	0000b8b7          	lui	a7,0xb
    522c:	17288893          	addi	a7,a7,370 # b172 <__muldf3+0x176>
    5230:	03160633          	mul	a2,a2,a7
    5234:	031a8733          	mul	a4,s5,a7
    5238:	031abab3          	mulhu	s5,s5,a7
    523c:	01560633          	add	a2,a2,s5
    5240:	01061613          	slli	a2,a2,0x10
    5244:	01075713          	srli	a4,a4,0x10
    5248:	00e60733          	add	a4,a2,a4
    524c:	00812603          	lw	a2,8(sp)
    5250:	00e60733          	add	a4,a2,a4
    5254:	000028b7          	lui	a7,0x2
    5258:	5e288893          	addi	a7,a7,1506 # 25e2 <inferenceTPG+0x1a92>
    525c:	03180e33          	mul	t3,a6,a7
    5260:	03178633          	mul	a2,a5,a7
    5264:	0317b8b3          	mulhu	a7,a5,a7
    5268:	011e08b3          	add	a7,t3,a7
    526c:	01089893          	slli	a7,a7,0x10
    5270:	01065613          	srli	a2,a2,0x10
    5274:	00c88633          	add	a2,a7,a2
    5278:	000038b7          	lui	a7,0x3
    527c:	e8d88893          	addi	a7,a7,-371 # 2e8d <inferenceTPG+0x233d>
    5280:	01160633          	add	a2,a2,a7
    5284:	41f65e13          	srai	t3,a2,0x1f
    5288:	02fe0e33          	mul	t3,t3,a5
    528c:	02c808b3          	mul	a7,a6,a2
    5290:	011e0e33          	add	t3,t3,a7
    5294:	02f608b3          	mul	a7,a2,a5
    5298:	02f63633          	mulhu	a2,a2,a5
    529c:	00ce0633          	add	a2,t3,a2
    52a0:	01061613          	slli	a2,a2,0x10
    52a4:	0108d893          	srli	a7,a7,0x10
    52a8:	011608b3          	add	a7,a2,a7
    52ac:	00005637          	lui	a2,0x5
    52b0:	92560613          	addi	a2,a2,-1755 # 4925 <__heap_size+0x925>
    52b4:	00c888b3          	add	a7,a7,a2
    52b8:	41f8de13          	srai	t3,a7,0x1f
    52bc:	02fe0e33          	mul	t3,t3,a5
    52c0:	03180633          	mul	a2,a6,a7
    52c4:	00ce0e33          	add	t3,t3,a2
    52c8:	02f88633          	mul	a2,a7,a5
    52cc:	02f8b8b3          	mulhu	a7,a7,a5
    52d0:	011e08b3          	add	a7,t3,a7
    52d4:	01089893          	slli	a7,a7,0x10
    52d8:	01065613          	srli	a2,a2,0x10
    52dc:	00c88633          	add	a2,a7,a2
    52e0:	0000b8b7          	lui	a7,0xb
    52e4:	aab88893          	addi	a7,a7,-1365 # aaab <__divdf3+0x27f>
    52e8:	01160633          	add	a2,a2,a7
    52ec:	41f65893          	srai	a7,a2,0x1f
    52f0:	02d888b3          	mul	a7,a7,a3
    52f4:	02c30333          	mul	t1,t1,a2
    52f8:	00688333          	add	t1,a7,t1
    52fc:	02d608b3          	mul	a7,a2,a3
    5300:	02d63633          	mulhu	a2,a2,a3
    5304:	00c306b3          	add	a3,t1,a2
    5308:	01069693          	slli	a3,a3,0x10
    530c:	0108d893          	srli	a7,a7,0x10
    5310:	011688b3          	add	a7,a3,a7
    5314:	000026b7          	lui	a3,0x2
    5318:	73468693          	addi	a3,a3,1844 # 2734 <inferenceTPG+0x1be4>
    531c:	02d80333          	mul	t1,a6,a3
    5320:	02d78633          	mul	a2,a5,a3
    5324:	02d7b6b3          	mulhu	a3,a5,a3
    5328:	00d306b3          	add	a3,t1,a3
    532c:	01069693          	slli	a3,a3,0x10
    5330:	01065613          	srli	a2,a2,0x10
    5334:	00c68633          	add	a2,a3,a2
    5338:	000046b7          	lui	a3,0x4
    533c:	8e468693          	addi	a3,a3,-1820 # 38e4 <inferenceTPG+0x2d94>
    5340:	00d60633          	add	a2,a2,a3
    5344:	41f65313          	srai	t1,a2,0x1f
    5348:	02f30333          	mul	t1,t1,a5
    534c:	02c806b3          	mul	a3,a6,a2
    5350:	00d30333          	add	t1,t1,a3
    5354:	02f606b3          	mul	a3,a2,a5
    5358:	02f63633          	mulhu	a2,a2,a5
    535c:	00c30633          	add	a2,t1,a2
    5360:	01061613          	slli	a2,a2,0x10
    5364:	0106d693          	srli	a3,a3,0x10
    5368:	00d606b3          	add	a3,a2,a3
    536c:	00006637          	lui	a2,0x6
    5370:	66660613          	addi	a2,a2,1638 # 6666 <__heap_size+0x2666>
    5374:	00c686b3          	add	a3,a3,a2
    5378:	41f6d613          	srai	a2,a3,0x1f
    537c:	02f60633          	mul	a2,a2,a5
    5380:	02d80833          	mul	a6,a6,a3
    5384:	01060633          	add	a2,a2,a6
    5388:	02f68833          	mul	a6,a3,a5
    538c:	02f6b6b3          	mulhu	a3,a3,a5
    5390:	00d607b3          	add	a5,a2,a3
    5394:	01079793          	slli	a5,a5,0x10
    5398:	01085693          	srli	a3,a6,0x10
    539c:	00d786b3          	add	a3,a5,a3
    53a0:	00d888b3          	add	a7,a7,a3
    53a4:	00812783          	lw	a5,8(sp)
    53a8:	411787b3          	sub	a5,a5,a7
    53ac:	41f7d693          	srai	a3,a5,0x1f
    53b0:	02a686b3          	mul	a3,a3,a0
    53b4:	02f585b3          	mul	a1,a1,a5
    53b8:	00b686b3          	add	a3,a3,a1
    53bc:	02a78633          	mul	a2,a5,a0
    53c0:	02a7b7b3          	mulhu	a5,a5,a0
    53c4:	00f687b3          	add	a5,a3,a5
    53c8:	01079793          	slli	a5,a5,0x10
    53cc:	01065693          	srli	a3,a2,0x10
    53d0:	00d786b3          	add	a3,a5,a3
    53d4:	40d70733          	sub	a4,a4,a3
    53d8:	41f75793          	srai	a5,a4,0x1f
    53dc:	036787b3          	mul	a5,a5,s6
    53e0:	00c12683          	lw	a3,12(sp)
    53e4:	02e686b3          	mul	a3,a3,a4
    53e8:	00d787b3          	add	a5,a5,a3
    53ec:	036706b3          	mul	a3,a4,s6
    53f0:	03673733          	mulhu	a4,a4,s6
    53f4:	00e787b3          	add	a5,a5,a4
    53f8:	01079793          	slli	a5,a5,0x10
    53fc:	0106d713          	srli	a4,a3,0x10
    5400:	00e787b3          	add	a5,a5,a4
    5404:	26078a63          	beqz	a5,5678 <__heap_size+0x1678>
    5408:	40f006b3          	neg	a3,a5
    540c:	0ad7e6b3          	max	a3,a5,a3
    5410:	41f6d713          	srai	a4,a3,0x1f
    5414:	00017637          	lui	a2,0x17
    5418:	15460613          	addi	a2,a2,340 # 17154 <heap.cpp.6b15d6f6+0x1a9b>
    541c:	02c70733          	mul	a4,a4,a2
    5420:	02c68ab3          	mul	s5,a3,a2
    5424:	02c6b6b3          	mulhu	a3,a3,a2
    5428:	00d70733          	add	a4,a4,a3
    542c:	01071713          	slli	a4,a4,0x10
    5430:	010ada93          	srli	s5,s5,0x10
    5434:	01570ab3          	add	s5,a4,s5
    5438:	00008737          	lui	a4,0x8
    543c:	00ea8ab3          	add	s5,s5,a4
    5440:	ffff0737          	lui	a4,0xffff0
    5444:	00eafab3          	and	s5,s5,a4
    5448:	2207cc63          	bltz	a5,5680 <__heap_size+0x1680>
    544c:	41fad713          	srai	a4,s5,0x1f
    5450:	0000b6b7          	lui	a3,0xb
    5454:	17268693          	addi	a3,a3,370 # b172 <__muldf3+0x176>
    5458:	02d70733          	mul	a4,a4,a3
    545c:	02da8633          	mul	a2,s5,a3
    5460:	02dab6b3          	mulhu	a3,s5,a3
    5464:	00d70733          	add	a4,a4,a3
    5468:	01071713          	slli	a4,a4,0x10
    546c:	01065693          	srli	a3,a2,0x10
    5470:	00d706b3          	add	a3,a4,a3
    5474:	40d787b3          	sub	a5,a5,a3
    5478:	41f7d713          	srai	a4,a5,0x1f
    547c:	02f70733          	mul	a4,a4,a5
    5480:	02f78633          	mul	a2,a5,a5
    5484:	02f7b6b3          	mulhu	a3,a5,a5
    5488:	20d72733          	sh1add	a4,a4,a3
    548c:	01071713          	slli	a4,a4,0x10
    5490:	01065613          	srli	a2,a2,0x10
    5494:	00c70633          	add	a2,a4,a2
    5498:	41f65513          	srai	a0,a2,0x1f
    549c:	01e65713          	srli	a4,a2,0x1e
    54a0:	20e54733          	sh2add	a4,a0,a4
    54a4:	00261693          	slli	a3,a2,0x2
    54a8:	01071713          	slli	a4,a4,0x10
    54ac:	0106d693          	srli	a3,a3,0x10
    54b0:	00d706b3          	add	a3,a4,a3
    54b4:	f4a68693          	addi	a3,a3,-182
    54b8:	41f6d593          	srai	a1,a3,0x1f
    54bc:	02c585b3          	mul	a1,a1,a2
    54c0:	02d50733          	mul	a4,a0,a3
    54c4:	00e585b3          	add	a1,a1,a4
    54c8:	02c68733          	mul	a4,a3,a2
    54cc:	02c6b6b3          	mulhu	a3,a3,a2
    54d0:	00d586b3          	add	a3,a1,a3
    54d4:	01069693          	slli	a3,a3,0x10
    54d8:	01075713          	srli	a4,a4,0x10
    54dc:	00e68733          	add	a4,a3,a4
    54e0:	000036b7          	lui	a3,0x3
    54e4:	aab68693          	addi	a3,a3,-1365 # 2aab <inferenceTPG+0x1f5b>
    54e8:	00d70733          	add	a4,a4,a3
    54ec:	41f75693          	srai	a3,a4,0x1f
    54f0:	02c686b3          	mul	a3,a3,a2
    54f4:	02e50533          	mul	a0,a0,a4
    54f8:	00a686b3          	add	a3,a3,a0
    54fc:	02c705b3          	mul	a1,a4,a2
    5500:	02c73733          	mulhu	a4,a4,a2
    5504:	00e68733          	add	a4,a3,a4
    5508:	01071713          	slli	a4,a4,0x10
    550c:	0105d693          	srli	a3,a1,0x10
    5510:	00d706b3          	add	a3,a4,a3
    5514:	00020737          	lui	a4,0x20
    5518:	00e686b3          	add	a3,a3,a4
    551c:	40f68633          	sub	a2,a3,a5
    5520:	02f68c63          	beq	a3,a5,5558 <__heap_size+0x1558>
    5524:	00f7d713          	srli	a4,a5,0xf
    5528:	01179793          	slli	a5,a5,0x11
    552c:	01071713          	slli	a4,a4,0x10
    5530:	0107d793          	srli	a5,a5,0x10
    5534:	00f707b3          	add	a5,a4,a5
    5538:	41f7d713          	srai	a4,a5,0x1f
    553c:	0107d593          	srli	a1,a5,0x10
    5540:	01071713          	slli	a4,a4,0x10
    5544:	41f65693          	srai	a3,a2,0x1f
    5548:	01079513          	slli	a0,a5,0x10
    554c:	00e585b3          	add	a1,a1,a4
    5550:	085060ef          	jal	bdd4 <__divdi3>
    5554:	00050613          	mv	a2,a0
    5558:	000107b7          	lui	a5,0x10
    555c:	00f606b3          	add	a3,a2,a5
    5560:	120ac463          	bltz	s5,5688 <__heap_size+0x1688>
    5564:	410ada93          	srai	s5,s5,0x10
    5568:	00010737          	lui	a4,0x10
    556c:	01571733          	sll	a4,a4,s5
    5570:	41f75793          	srai	a5,a4,0x1f
    5574:	41f6d613          	srai	a2,a3,0x1f
    5578:	02d787b3          	mul	a5,a5,a3
    557c:	02e60633          	mul	a2,a2,a4
    5580:	00c787b3          	add	a5,a5,a2
    5584:	02d70633          	mul	a2,a4,a3
    5588:	02d73733          	mulhu	a4,a4,a3
    558c:	00e787b3          	add	a5,a5,a4
    5590:	01079793          	slli	a5,a5,0x10
    5594:	01065713          	srli	a4,a2,0x10
    5598:	00e787b3          	add	a5,a5,a4
    559c:	00fb87b3          	add	a5,s7,a5
    55a0:	01b787b3          	add	a5,a5,s11
    55a4:	04f12a23          	sw	a5,84(sp)
    55a8:	0009a703          	lw	a4,0(s3)
    55ac:	41f75793          	srai	a5,a4,0x1f
    55b0:	41fd5693          	srai	a3,s10,0x1f
    55b4:	03a787b3          	mul	a5,a5,s10
    55b8:	02e686b3          	mul	a3,a3,a4
    55bc:	00d787b3          	add	a5,a5,a3
    55c0:	03a706b3          	mul	a3,a4,s10
    55c4:	03a73733          	mulhu	a4,a4,s10
    55c8:	00e787b3          	add	a5,a5,a4
    55cc:	01079793          	slli	a5,a5,0x10
    55d0:	0106d713          	srli	a4,a3,0x10
    55d4:	00e78733          	add	a4,a5,a4
    55d8:	04e12c23          	sw	a4,88(sp)
    55dc:	04010713          	addi	a4,sp,64
    55e0:	00000593          	li	a1,0
    55e4:	00100793          	li	a5,1
    55e8:	00700613          	li	a2,7
    55ec:	0bc0006f          	j	56a8 <__heap_size+0x16a8>
    55f0:	41600b33          	neg	s6,s6
    55f4:	c38ff06f          	j	4a2c <__heap_size+0xa2c>
    55f8:	416007b3          	neg	a5,s6
    55fc:	4107d793          	srai	a5,a5,0x10
    5600:	00010737          	lui	a4,0x10
    5604:	40f75733          	sra	a4,a4,a5
    5608:	d48ff06f          	j	4b50 <__heap_size+0xb50>
    560c:	000107b7          	lui	a5,0x10
    5610:	f38ff06f          	j	4d48 <__heap_size+0xd48>
    5614:	41600b33          	neg	s6,s6
    5618:	de0ff06f          	j	4bf8 <__heap_size+0xbf8>
    561c:	416007b3          	neg	a5,s6
    5620:	4107d793          	srai	a5,a5,0x10
    5624:	00010737          	lui	a4,0x10
    5628:	40f75733          	sra	a4,a4,a5
    562c:	ef0ff06f          	j	4d1c <__heap_size+0xd1c>
    5630:	00000b13          	li	s6,0
    5634:	f3cff06f          	j	4d70 <__heap_size+0xd70>
    5638:	fff00713          	li	a4,-1
    563c:	969ff06f          	j	4fa4 <__heap_size+0xfa4>
    5640:	41500ab3          	neg	s5,s5
    5644:	9e1ff06f          	j	5024 <__heap_size+0x1024>
    5648:	415007b3          	neg	a5,s5
    564c:	4107d793          	srai	a5,a5,0x10
    5650:	00010737          	lui	a4,0x10
    5654:	40f75733          	sra	a4,a4,a5
    5658:	af1ff06f          	j	5148 <__heap_size+0x1148>
    565c:	000107b7          	lui	a5,0x10
    5660:	b15ff06f          	j	5174 <__heap_size+0x1174>
    5664:	000b8693          	mv	a3,s7
    5668:	00000a93          	li	s5,0
    566c:	b39ff06f          	j	51a4 <__heap_size+0x11a4>
