
sw/build/main.elf:     file format elf32-littleriscv


Disassembly of section .vectors:

00000000 <__vector_start>:
   0:	1350306f          	j	3934 <handler_exception>
   4:	22c0006f          	j	230 <__no_irq_handler>
   8:	2280006f          	j	230 <__no_irq_handler>
   c:	1ed0306f          	j	39f8 <handler_irq_software>
  10:	2200006f          	j	230 <__no_irq_handler>
  14:	21c0006f          	j	230 <__no_irq_handler>
  18:	2180006f          	j	230 <__no_irq_handler>
  1c:	2310306f          	j	3a4c <handler_irq_timer>
  20:	2100006f          	j	230 <__no_irq_handler>
  24:	20c0006f          	j	230 <__no_irq_handler>
  28:	2080006f          	j	230 <__no_irq_handler>
  2c:	0550306f          	j	3880 <handler_irq_external>
  30:	2000006f          	j	230 <__no_irq_handler>
  34:	1fc0006f          	j	230 <__no_irq_handler>
  38:	1f80006f          	j	230 <__no_irq_handler>
  3c:	1f40006f          	j	230 <__no_irq_handler>
  40:	7b50206f          	j	2ff4 <handler_irq_fast_timer_1>
  44:	04c0306f          	j	3090 <handler_irq_fast_timer_2>
  48:	0e40306f          	j	312c <handler_irq_fast_timer_3>
  4c:	17c0306f          	j	31c8 <handler_irq_fast_dma_done>
  50:	5310306f          	j	3d80 <handler_irq_fast_spi>
  54:	3d10306f          	j	3c24 <handler_irq_fast_spi_flash>
  58:	3440306f          	j	339c <handler_irq_fast_gpio_0>
  5c:	3dc0306f          	j	3438 <handler_irq_fast_gpio_1>
  60:	4740306f          	j	34d4 <handler_irq_fast_gpio_2>
  64:	50c0306f          	j	3570 <handler_irq_fast_gpio_3>
  68:	5a40306f          	j	360c <handler_irq_fast_gpio_4>
  6c:	63c0306f          	j	36a8 <handler_irq_fast_gpio_5>
  70:	6d80306f          	j	3748 <handler_irq_fast_gpio_6>
  74:	7700306f          	j	37e4 <handler_irq_fast_gpio_7>
  78:	1ec0306f          	j	3264 <handler_irq_fast_dma_window>
  7c:	2840306f          	j	3300 <handler_irq_fast_external_peripheral>

Disassembly of section .init:

00000180 <_start>:
 180:	00023197          	auipc	gp,0x23
 184:	cc818193          	addi	gp,gp,-824 # 22e48 <__global_pointer$>
 188:	0002b117          	auipc	sp,0x2b
 18c:	87810113          	addi	sp,sp,-1928 # 2aa00 <_sp>
 190:	20000537          	lui	a0,0x20000
 194:	05f5e637          	lui	a2,0x5f5e
 198:	10060613          	addi	a2,a2,256 # 5f5e100 <_sp+0x5f33700>
 19c:	00c52e23          	sw	a2,28(a0) # 2000001c <_sp+0x1ffd561c>

000001a0 <_init_bss>:
 1a0:	00022517          	auipc	a0,0x22
 1a4:	60850513          	addi	a0,a0,1544 # 227a8 <__stdio_exit_handler>
 1a8:	00023617          	auipc	a2,0x23
 1ac:	85460613          	addi	a2,a2,-1964 # 229fc <__BSS_END__>
 1b0:	40a60633          	sub	a2,a2,a0
 1b4:	00000593          	li	a1,0
 1b8:	198040ef          	jal	4350 <memset>
 1bc:	00000517          	auipc	a0,0x0
 1c0:	e4450513          	addi	a0,a0,-444 # 0 <__vector_start>
 1c4:	00156513          	ori	a0,a0,1
 1c8:	30551073          	csrw	mtvec,a0
 1cc:	00004517          	auipc	a0,0x4
 1d0:	12c50513          	addi	a0,a0,300 # 42f8 <__libc_fini_array>
 1d4:	449030ef          	jal	3e1c <atexit>
 1d8:	08c040ef          	jal	4264 <__libc_init_array>
 1dc:	00012503          	lw	a0,0(sp)
 1e0:	00410593          	addi	a1,sp,4
 1e4:	00000613          	li	a2,0
 1e8:	789080ef          	jal	9170 <main>
 1ec:	00c0006f          	j	1f8 <exit>

000001f0 <_init>:
 1f0:	0b1030ef          	jal	3aa0 <init>

000001f4 <_fini>:
 1f4:	00008067          	ret

Disassembly of section .text:

000001f8 <exit>:
     1f8:	ff010113          	addi	sp,sp,-16
     1fc:	000047b7          	lui	a5,0x4
     200:	00812423          	sw	s0,8(sp)
     204:	00112623          	sw	ra,12(sp)
     208:	40078793          	addi	a5,a5,1024 # 4400 <__call_exitprocs>
     20c:	00050413          	mv	s0,a0
     210:	00078663          	beqz	a5,21c <exit+0x24>
     214:	00000593          	li	a1,0
     218:	1e8040ef          	jal	4400 <__call_exitprocs>
     21c:	9601a783          	lw	a5,-1696(gp) # 227a8 <__stdio_exit_handler>
     220:	00078463          	beqz	a5,228 <exit+0x30>
     224:	000780e7          	jalr	a5
     228:	00040513          	mv	a0,s0
     22c:	085030ef          	jal	3ab0 <_exit>

00000230 <__no_irq_handler>:
     230:	0000006f          	j	230 <__no_irq_handler>

00000234 <fic_irq_dma_window>:
     234:	fe010113          	addi	sp,sp,-32
     238:	00112e23          	sw	ra,28(sp)
     23c:	00812c23          	sw	s0,24(sp)
     240:	02010413          	addi	s0,sp,32
     244:	fe042623          	sw	zero,-20(s0)
     248:	04c0006f          	j	294 <fic_irq_dma_window+0x60>
     24c:	98418693          	addi	a3,gp,-1660 # 227cc <dma_subsys_per>
     250:	fec42703          	lw	a4,-20(s0)
     254:	00070793          	mv	a5,a4
     258:	00179793          	slli	a5,a5,0x1
     25c:	00e787b3          	add	a5,a5,a4
     260:	00279793          	slli	a5,a5,0x2
     264:	00f687b3          	add	a5,a3,a5
     268:	0087a783          	lw	a5,8(a5)
     26c:	0687a703          	lw	a4,104(a5)
     270:	00100793          	li	a5,1
     274:	00f71a63          	bne	a4,a5,288 <fic_irq_dma_window+0x54>
     278:	fec42783          	lw	a5,-20(s0)
     27c:	0ff7f793          	zext.b	a5,a5
     280:	00078513          	mv	a0,a5
     284:	100000ef          	jal	384 <dma_intr_handler_window_done>
     288:	fec42783          	lw	a5,-20(s0)
     28c:	00178793          	addi	a5,a5,1
     290:	fef42623          	sw	a5,-20(s0)
     294:	fec42703          	lw	a4,-20(s0)
     298:	00300793          	li	a5,3
     29c:	fae7d8e3          	bge	a5,a4,24c <fic_irq_dma_window+0x18>
     2a0:	00000013          	nop
     2a4:	01c12083          	lw	ra,28(sp)
     2a8:	01812403          	lw	s0,24(sp)
     2ac:	02010113          	addi	sp,sp,32
     2b0:	00008067          	ret

000002b4 <fic_irq_dma_done>:
     2b4:	fe010113          	addi	sp,sp,-32
     2b8:	00112e23          	sw	ra,28(sp)
     2bc:	00812c23          	sw	s0,24(sp)
     2c0:	02010413          	addi	s0,sp,32
     2c4:	fe042623          	sw	zero,-20(s0)
     2c8:	0700006f          	j	338 <fic_irq_dma_done+0x84>
     2cc:	98418693          	addi	a3,gp,-1660 # 227cc <dma_subsys_per>
     2d0:	fec42703          	lw	a4,-20(s0)
     2d4:	00070793          	mv	a5,a4
     2d8:	00179793          	slli	a5,a5,0x1
     2dc:	00e787b3          	add	a5,a5,a4
     2e0:	00279793          	slli	a5,a5,0x2
     2e4:	00f687b3          	add	a5,a3,a5
     2e8:	0087a783          	lw	a5,8(a5)
     2ec:	0647a703          	lw	a4,100(a5)
     2f0:	00100793          	li	a5,1
     2f4:	02f71c63          	bne	a4,a5,32c <fic_irq_dma_done+0x78>
     2f8:	98418693          	addi	a3,gp,-1660 # 227cc <dma_subsys_per>
     2fc:	fec42703          	lw	a4,-20(s0)
     300:	00070793          	mv	a5,a4
     304:	00179793          	slli	a5,a5,0x1
     308:	00e787b3          	add	a5,a5,a4
     30c:	00279793          	slli	a5,a5,0x2
     310:	00f687b3          	add	a5,a3,a5
     314:	00100713          	li	a4,1
     318:	00e78223          	sb	a4,4(a5)
     31c:	fec42783          	lw	a5,-20(s0)
     320:	0ff7f793          	zext.b	a5,a5
     324:	00078513          	mv	a0,a5
     328:	030000ef          	jal	358 <dma_intr_handler_trans_done>
     32c:	fec42783          	lw	a5,-20(s0)
     330:	00178793          	addi	a5,a5,1
     334:	fef42623          	sw	a5,-20(s0)
     338:	fec42703          	lw	a4,-20(s0)
     33c:	00300793          	li	a5,3
     340:	f8e7d6e3          	bge	a5,a4,2cc <fic_irq_dma_done+0x18>
     344:	00000013          	nop
     348:	01c12083          	lw	ra,28(sp)
     34c:	01812403          	lw	s0,24(sp)
     350:	02010113          	addi	sp,sp,32
     354:	00008067          	ret

00000358 <dma_intr_handler_trans_done>:
     358:	fe010113          	addi	sp,sp,-32
     35c:	00112e23          	sw	ra,28(sp)
     360:	00812c23          	sw	s0,24(sp)
     364:	02010413          	addi	s0,sp,32
     368:	00050793          	mv	a5,a0
     36c:	fef407a3          	sb	a5,-17(s0)
     370:	00000013          	nop
     374:	01c12083          	lw	ra,28(sp)
     378:	01812403          	lw	s0,24(sp)
     37c:	02010113          	addi	sp,sp,32
     380:	00008067          	ret

00000384 <dma_intr_handler_window_done>:
     384:	fe010113          	addi	sp,sp,-32
     388:	00112e23          	sw	ra,28(sp)
     38c:	00812c23          	sw	s0,24(sp)
     390:	02010413          	addi	s0,sp,32
     394:	00050793          	mv	a5,a0
     398:	fef407a3          	sb	a5,-17(s0)
     39c:	00000013          	nop
     3a0:	01c12083          	lw	ra,28(sp)
     3a4:	01812403          	lw	s0,24(sp)
     3a8:	02010113          	addi	sp,sp,32
     3ac:	00008067          	ret

000003b0 <fic_irq_timer_1>:
     3b0:	ff010113          	addi	sp,sp,-16
     3b4:	00112623          	sw	ra,12(sp)
     3b8:	00812423          	sw	s0,8(sp)
     3bc:	01010413          	addi	s0,sp,16
     3c0:	00000013          	nop
     3c4:	00c12083          	lw	ra,12(sp)
     3c8:	00812403          	lw	s0,8(sp)
     3cc:	01010113          	addi	sp,sp,16
     3d0:	00008067          	ret

000003d4 <fic_irq_timer_2>:
     3d4:	ff010113          	addi	sp,sp,-16
     3d8:	00112623          	sw	ra,12(sp)
     3dc:	00812423          	sw	s0,8(sp)
     3e0:	01010413          	addi	s0,sp,16
     3e4:	00000013          	nop
     3e8:	00c12083          	lw	ra,12(sp)
     3ec:	00812403          	lw	s0,8(sp)
     3f0:	01010113          	addi	sp,sp,16
     3f4:	00008067          	ret

000003f8 <fic_irq_timer_3>:
     3f8:	ff010113          	addi	sp,sp,-16
     3fc:	00112623          	sw	ra,12(sp)
     400:	00812423          	sw	s0,8(sp)
     404:	01010413          	addi	s0,sp,16
     408:	00000013          	nop
     40c:	00c12083          	lw	ra,12(sp)
     410:	00812403          	lw	s0,8(sp)
     414:	01010113          	addi	sp,sp,16
     418:	00008067          	ret

0000041c <fic_irq_ext_peripheral>:
     41c:	ff010113          	addi	sp,sp,-16
     420:	00112623          	sw	ra,12(sp)
     424:	00812423          	sw	s0,8(sp)
     428:	01010413          	addi	s0,sp,16
     42c:	00000013          	nop
     430:	00c12083          	lw	ra,12(sp)
     434:	00812403          	lw	s0,8(sp)
     438:	01010113          	addi	sp,sp,16
     43c:	00008067          	ret

00000440 <fic_irq_gpio_0>:
     440:	ff010113          	addi	sp,sp,-16
     444:	00112623          	sw	ra,12(sp)
     448:	00812423          	sw	s0,8(sp)
     44c:	01010413          	addi	s0,sp,16
     450:	00000013          	nop
     454:	00c12083          	lw	ra,12(sp)
     458:	00812403          	lw	s0,8(sp)
     45c:	01010113          	addi	sp,sp,16
     460:	00008067          	ret

00000464 <fic_irq_gpio_1>:
     464:	ff010113          	addi	sp,sp,-16
     468:	00112623          	sw	ra,12(sp)
     46c:	00812423          	sw	s0,8(sp)
     470:	01010413          	addi	s0,sp,16
     474:	00000013          	nop
     478:	00c12083          	lw	ra,12(sp)
     47c:	00812403          	lw	s0,8(sp)
     480:	01010113          	addi	sp,sp,16
     484:	00008067          	ret

00000488 <fic_irq_gpio_2>:
     488:	ff010113          	addi	sp,sp,-16
     48c:	00112623          	sw	ra,12(sp)
     490:	00812423          	sw	s0,8(sp)
     494:	01010413          	addi	s0,sp,16
     498:	00000013          	nop
     49c:	00c12083          	lw	ra,12(sp)
     4a0:	00812403          	lw	s0,8(sp)
     4a4:	01010113          	addi	sp,sp,16
     4a8:	00008067          	ret

000004ac <fic_irq_gpio_3>:
     4ac:	ff010113          	addi	sp,sp,-16
     4b0:	00112623          	sw	ra,12(sp)
     4b4:	00812423          	sw	s0,8(sp)
     4b8:	01010413          	addi	s0,sp,16
     4bc:	00000013          	nop
     4c0:	00c12083          	lw	ra,12(sp)
     4c4:	00812403          	lw	s0,8(sp)
     4c8:	01010113          	addi	sp,sp,16
     4cc:	00008067          	ret

000004d0 <fic_irq_gpio_4>:
     4d0:	ff010113          	addi	sp,sp,-16
     4d4:	00112623          	sw	ra,12(sp)
     4d8:	00812423          	sw	s0,8(sp)
     4dc:	01010413          	addi	s0,sp,16
     4e0:	00000013          	nop
     4e4:	00c12083          	lw	ra,12(sp)
     4e8:	00812403          	lw	s0,8(sp)
     4ec:	01010113          	addi	sp,sp,16
     4f0:	00008067          	ret

000004f4 <fic_irq_gpio_5>:
     4f4:	ff010113          	addi	sp,sp,-16
     4f8:	00112623          	sw	ra,12(sp)
     4fc:	00812423          	sw	s0,8(sp)
     500:	01010413          	addi	s0,sp,16
     504:	00000013          	nop
     508:	00c12083          	lw	ra,12(sp)
     50c:	00812403          	lw	s0,8(sp)
     510:	01010113          	addi	sp,sp,16
     514:	00008067          	ret

00000518 <fic_irq_gpio_6>:
     518:	ff010113          	addi	sp,sp,-16
     51c:	00112623          	sw	ra,12(sp)
     520:	00812423          	sw	s0,8(sp)
     524:	01010413          	addi	s0,sp,16
     528:	00000013          	nop
     52c:	00c12083          	lw	ra,12(sp)
     530:	00812403          	lw	s0,8(sp)
     534:	01010113          	addi	sp,sp,16
     538:	00008067          	ret

0000053c <fic_irq_gpio_7>:
     53c:	ff010113          	addi	sp,sp,-16
     540:	00112623          	sw	ra,12(sp)
     544:	00812423          	sw	s0,8(sp)
     548:	01010413          	addi	s0,sp,16
     54c:	00000013          	nop
     550:	00c12083          	lw	ra,12(sp)
     554:	00812403          	lw	s0,8(sp)
     558:	01010113          	addi	sp,sp,16
     55c:	00008067          	ret

00000560 <spi_get_events>:
     560:	ff010113          	addi	sp,sp,-16
     564:	01452783          	lw	a5,20(a0)
     568:	00f12623          	sw	a5,12(sp)
     56c:	00c12683          	lw	a3,12(sp)
     570:	0196d693          	srli	a3,a3,0x19
     574:	0016f693          	andi	a3,a3,1
     578:	0005a783          	lw	a5,0(a1)
     57c:	00c12703          	lw	a4,12(sp)
     580:	01b75713          	srli	a4,a4,0x1b
     584:	ffc7f793          	andi	a5,a5,-4
     588:	00d7e7b3          	or	a5,a5,a3
     58c:	00c12683          	lw	a3,12(sp)
     590:	0126d693          	srli	a3,a3,0x12
     594:	00277713          	andi	a4,a4,2
     598:	00f76733          	or	a4,a4,a5
     59c:	00c12783          	lw	a5,12(sp)
     5a0:	0177d793          	srli	a5,a5,0x17
     5a4:	0046f693          	andi	a3,a3,4
     5a8:	ff377713          	andi	a4,a4,-13
     5ac:	00d76733          	or	a4,a4,a3
     5b0:	00c12683          	lw	a3,12(sp)
     5b4:	01f6d693          	srli	a3,a3,0x1f
     5b8:	0087f793          	andi	a5,a5,8
     5bc:	00e7e7b3          	or	a5,a5,a4
     5c0:	00c12703          	lw	a4,12(sp)
     5c4:	01975713          	srli	a4,a4,0x19
     5c8:	00469693          	slli	a3,a3,0x4
     5cc:	fcf7f793          	andi	a5,a5,-49
     5d0:	00d7e7b3          	or	a5,a5,a3
     5d4:	02077713          	andi	a4,a4,32
     5d8:	02074713          	xori	a4,a4,32
     5dc:	00f767b3          	or	a5,a4,a5
     5e0:	00f5a023          	sw	a5,0(a1)
     5e4:	00000513          	li	a0,0
     5e8:	01010113          	addi	sp,sp,16
     5ec:	00008067          	ret

000005f0 <_write>:
     5f0:	00100793          	li	a5,1
     5f4:	08f51063          	bne	a0,a5,674 <_write+0x84>
     5f8:	200007b7          	lui	a5,0x20000
     5fc:	01c7a783          	lw	a5,28(a5) # 2000001c <_sp+0x1ffd561c>
     600:	08078263          	beqz	a5,684 <_write+0x94>
     604:	300807b7          	lui	a5,0x30080
     608:	0007a623          	sw	zero,12(a5) # 3008000c <_sp+0x3005560c>
     60c:	00300713          	li	a4,3
     610:	00e7ae23          	sw	a4,28(a5)
     614:	0207a223          	sw	zero,36(a5)
     618:	0207a623          	sw	zero,44(a5)
     61c:	0007a223          	sw	zero,4(a5)
     620:	fff00713          	li	a4,-1
     624:	00e7a023          	sw	a4,0(a5)
     628:	0a7c0737          	lui	a4,0xa7c0
     62c:	00370713          	addi	a4,a4,3 # a7c0003 <_sp+0xa795603>
     630:	00e7a623          	sw	a4,12(a5)
     634:	0007a223          	sw	zero,4(a5)
     638:	02060a63          	beqz	a2,66c <_write+0x7c>
     63c:	00c58833          	add	a6,a1,a2
     640:	00078713          	mv	a4,a5
     644:	0005c683          	lbu	a3,0(a1)
     648:	01072783          	lw	a5,16(a4)
     64c:	0017f793          	andi	a5,a5,1
     650:	fe079ce3          	bnez	a5,648 <_write+0x58>
     654:	00d72c23          	sw	a3,24(a4)
     658:	01072783          	lw	a5,16(a4)
     65c:	0087f793          	andi	a5,a5,8
     660:	fe078ce3          	beqz	a5,658 <_write+0x68>
     664:	00158593          	addi	a1,a1,1
     668:	fd059ee3          	bne	a1,a6,644 <_write+0x54>
     66c:	00060513          	mv	a0,a2
     670:	00008067          	ret
     674:	05800713          	li	a4,88
     678:	96e1a223          	sw	a4,-1692(gp) # 227ac <errno>
     67c:	fff00613          	li	a2,-1
     680:	fedff06f          	j	66c <_write+0x7c>
     684:	05800713          	li	a4,88
     688:	96e1a223          	sw	a4,-1692(gp) # 227ac <errno>
     68c:	ff1ff06f          	j	67c <_write+0x8c>

00000690 <spi_empty_rx>:
     690:	02452783          	lw	a5,36(a0)
     694:	00078863          	beqz	a5,6a4 <spi_empty_rx+0x14>
     698:	03452783          	lw	a5,52(a0)
     69c:	02852703          	lw	a4,40(a0)
     6a0:	02e7e863          	bltu	a5,a4,6d0 <spi_empty_rx+0x40>
     6a4:	00000513          	li	a0,0
     6a8:	00008067          	ret
     6ac:	0286a703          	lw	a4,40(a3)
     6b0:	02452683          	lw	a3,36(a0)
     6b4:	20d7c7b3          	sh2add	a5,a5,a3
     6b8:	00e7a023          	sw	a4,0(a5)
     6bc:	03452783          	lw	a5,52(a0)
     6c0:	00178793          	addi	a5,a5,1
     6c4:	02f52a23          	sw	a5,52(a0)
     6c8:	02852703          	lw	a4,40(a0)
     6cc:	00e7fe63          	bgeu	a5,a4,6e8 <spi_empty_rx+0x58>
     6d0:	00052683          	lw	a3,0(a0)
     6d4:	00068a63          	beqz	a3,6e8 <spi_empty_rx+0x58>
     6d8:	0146a703          	lw	a4,20(a3)
     6dc:	00875713          	srli	a4,a4,0x8
     6e0:	0ff77713          	zext.b	a4,a4
     6e4:	fc0714e3          	bnez	a4,6ac <spi_empty_rx+0x1c>
     6e8:	00100513          	li	a0,1
     6ec:	00008067          	ret

000006f0 <spi_event_handler>:
     6f0:	ff010113          	addi	sp,sp,-16
     6f4:	00112623          	sw	ra,12(sp)
     6f8:	00912423          	sw	s1,8(sp)
     6fc:	01212223          	sw	s2,4(sp)
     700:	00050493          	mv	s1,a0
     704:	00058913          	mv	s2,a1
     708:	0105f793          	andi	a5,a1,16
     70c:	02078063          	beqz	a5,72c <spi_event_handler+0x3c>
     710:	01452703          	lw	a4,20(a0)
     714:	00070863          	beqz	a4,724 <spi_event_handler+0x34>
     718:	02c52683          	lw	a3,44(a0)
     71c:	01854783          	lbu	a5,24(a0)
     720:	02f6e863          	bltu	a3,a5,750 <spi_event_handler+0x60>
     724:	02097793          	andi	a5,s2,32
     728:	0a079e63          	bnez	a5,7e4 <spi_event_handler+0xf4>
     72c:	00897793          	andi	a5,s2,8
     730:	14079063          	bnez	a5,870 <spi_event_handler+0x180>
     734:	00497913          	andi	s2,s2,4
     738:	1a091663          	bnez	s2,8e4 <spi_event_handler+0x1f4>
     73c:	00c12083          	lw	ra,12(sp)
     740:	00812483          	lw	s1,8(sp)
     744:	00412903          	lw	s2,4(sp)
     748:	01010113          	addi	sp,sp,16
     74c:	00008067          	ret
     750:	20e6c733          	sh2add	a4,a3,a4
     754:	00072703          	lw	a4,0(a4)
     758:	00871613          	slli	a2,a4,0x8
     75c:	00865593          	srli	a1,a2,0x8
     760:	01875713          	srli	a4,a4,0x18
     764:	00f77613          	andi	a2,a4,15
     768:	00168693          	addi	a3,a3,1
     76c:	02d52623          	sw	a3,44(a0)
     770:	00052503          	lw	a0,0(a0)
     774:	fa050ce3          	beqz	a0,72c <spi_event_handler+0x3c>
     778:	00265713          	srli	a4,a2,0x2
     77c:	01971713          	slli	a4,a4,0x19
     780:	00367613          	andi	a2,a2,3
     784:	01b61613          	slli	a2,a2,0x1b
     788:	00c76733          	or	a4,a4,a2
     78c:	40d787b3          	sub	a5,a5,a3
     790:	00f037b3          	snez	a5,a5
     794:	01879793          	slli	a5,a5,0x18
     798:	00f767b3          	or	a5,a4,a5
     79c:	fff58613          	addi	a2,a1,-1
     7a0:	00861613          	slli	a2,a2,0x8
     7a4:	00865613          	srli	a2,a2,0x8
     7a8:	00c7e633          	or	a2,a5,a2
     7ac:	0197d793          	srli	a5,a5,0x19
     7b0:	0037f793          	andi	a5,a5,3
     7b4:	00200713          	li	a4,2
     7b8:	14f76c63          	bltu	a4,a5,910 <spi_event_handler+0x220>
     7bc:	01452703          	lw	a4,20(a0)
     7c0:	f60756e3          	bgez	a4,72c <spi_event_handler+0x3c>
     7c4:	01b65713          	srli	a4,a2,0x1b
     7c8:	ffd70713          	addi	a4,a4,-3
     7cc:	00173713          	seqz	a4,a4
     7d0:	00f037b3          	snez	a5,a5
     7d4:	00f777b3          	and	a5,a4,a5
     7d8:	f4079ae3          	bnez	a5,72c <spi_event_handler+0x3c>
     7dc:	02c52223          	sw	a2,36(a0)
     7e0:	f4dff06f          	j	72c <spi_event_handler+0x3c>
     7e4:	0004a783          	lw	a5,0(s1)
     7e8:	02078263          	beqz	a5,80c <spi_event_handler+0x11c>
     7ec:	0387a703          	lw	a4,56(a5)
     7f0:	fc077713          	andi	a4,a4,-64
     7f4:	02e7ac23          	sw	a4,56(a5)
     7f8:	0004a783          	lw	a5,0(s1)
     7fc:	00078863          	beqz	a5,80c <spi_event_handler+0x11c>
     800:	0047a703          	lw	a4,4(a5)
     804:	ffd77713          	andi	a4,a4,-3
     808:	00e7a223          	sw	a4,4(a5)
     80c:	00048513          	mv	a0,s1
     810:	e81ff0ef          	jal	690 <spi_empty_rx>
     814:	00400793          	li	a5,4
     818:	00f4a823          	sw	a5,16(s1)
     81c:	0384a783          	lw	a5,56(s1)
     820:	00078c63          	beqz	a5,838 <spi_event_handler+0x148>
     824:	0344a683          	lw	a3,52(s1)
     828:	0244a603          	lw	a2,36(s1)
     82c:	0304a583          	lw	a1,48(s1)
     830:	01c4a503          	lw	a0,28(s1)
     834:	000780e7          	jalr	a5
     838:	0204a623          	sw	zero,44(s1)
     83c:	0204a823          	sw	zero,48(s1)
     840:	0204aa23          	sw	zero,52(s1)
     844:	0004aa23          	sw	zero,20(s1)
     848:	0004ac23          	sw	zero,24(s1)
     84c:	0004ae23          	sw	zero,28(s1)
     850:	0204a023          	sw	zero,32(s1)
     854:	0204a223          	sw	zero,36(s1)
     858:	0204a423          	sw	zero,40(s1)
     85c:	0204ac23          	sw	zero,56(s1)
     860:	0204ae23          	sw	zero,60(s1)
     864:	0404a023          	sw	zero,64(s1)
     868:	0404a223          	sw	zero,68(s1)
     86c:	ed1ff06f          	j	73c <spi_event_handler+0x4c>
     870:	01c4a783          	lw	a5,28(s1)
     874:	ec0780e3          	beqz	a5,734 <spi_event_handler+0x44>
     878:	0304a783          	lw	a5,48(s1)
     87c:	0204a703          	lw	a4,32(s1)
     880:	eae7fae3          	bgeu	a5,a4,734 <spi_event_handler+0x44>
     884:	04700613          	li	a2,71
     888:	0280006f          	j	8b0 <spi_event_handler+0x1c0>
     88c:	01c4a683          	lw	a3,28(s1)
     890:	20d7c7b3          	sh2add	a5,a5,a3
     894:	0007a783          	lw	a5,0(a5)
     898:	02f72623          	sw	a5,44(a4)
     89c:	0304a783          	lw	a5,48(s1)
     8a0:	00178793          	addi	a5,a5,1
     8a4:	02f4a823          	sw	a5,48(s1)
     8a8:	0204a703          	lw	a4,32(s1)
     8ac:	00e7fc63          	bgeu	a5,a4,8c4 <spi_event_handler+0x1d4>
     8b0:	0004a703          	lw	a4,0(s1)
     8b4:	00070863          	beqz	a4,8c4 <spi_event_handler+0x1d4>
     8b8:	01472683          	lw	a3,20(a4)
     8bc:	0ff6f693          	zext.b	a3,a3
     8c0:	fcd676e3          	bgeu	a2,a3,88c <spi_event_handler+0x19c>
     8c4:	03c4a783          	lw	a5,60(s1)
     8c8:	e60786e3          	beqz	a5,734 <spi_event_handler+0x44>
     8cc:	0344a683          	lw	a3,52(s1)
     8d0:	0244a603          	lw	a2,36(s1)
     8d4:	0304a583          	lw	a1,48(s1)
     8d8:	01c4a503          	lw	a0,28(s1)
     8dc:	000780e7          	jalr	a5
     8e0:	e55ff06f          	j	734 <spi_event_handler+0x44>
     8e4:	00048513          	mv	a0,s1
     8e8:	da9ff0ef          	jal	690 <spi_empty_rx>
     8ec:	e40508e3          	beqz	a0,73c <spi_event_handler+0x4c>
     8f0:	0404a783          	lw	a5,64(s1)
     8f4:	e40784e3          	beqz	a5,73c <spi_event_handler+0x4c>
     8f8:	0344a683          	lw	a3,52(s1)
     8fc:	0244a603          	lw	a2,36(s1)
     900:	0304a583          	lw	a1,48(s1)
     904:	01c4a503          	lw	a0,28(s1)
     908:	000780e7          	jalr	a5
     90c:	e31ff06f          	j	73c <spi_event_handler+0x4c>
     910:	01452783          	lw	a5,20(a0)
     914:	e19ff06f          	j	72c <spi_event_handler+0x3c>

00000918 <spi_error_handler>:
     918:	fe010113          	addi	sp,sp,-32
     91c:	00112e23          	sw	ra,28(sp)
     920:	00912c23          	sw	s1,24(sp)
     924:	00050493          	mv	s1,a0
     928:	00052783          	lw	a5,0(a0)
     92c:	02078263          	beqz	a5,950 <spi_error_handler+0x38>
     930:	0387a703          	lw	a4,56(a5)
     934:	fc077713          	andi	a4,a4,-64
     938:	02e7ac23          	sw	a4,56(a5)
     93c:	00052783          	lw	a5,0(a0)
     940:	00078863          	beqz	a5,950 <spi_error_handler+0x38>
     944:	0047a703          	lw	a4,4(a5)
     948:	ffd77713          	andi	a4,a4,-3
     94c:	00e7a223          	sw	a4,4(a5)
     950:	0444a783          	lw	a5,68(s1)
     954:	00078c63          	beqz	a5,96c <spi_error_handler+0x54>
     958:	0344a683          	lw	a3,52(s1)
     95c:	0244a603          	lw	a2,36(s1)
     960:	0304a583          	lw	a1,48(s1)
     964:	01c4a503          	lw	a0,28(s1)
     968:	000780e7          	jalr	a5
     96c:	0204a623          	sw	zero,44(s1)
     970:	0204a823          	sw	zero,48(s1)
     974:	0204aa23          	sw	zero,52(s1)
     978:	0004aa23          	sw	zero,20(s1)
     97c:	0004ac23          	sw	zero,24(s1)
     980:	0004ae23          	sw	zero,28(s1)
     984:	0204a023          	sw	zero,32(s1)
     988:	0204a223          	sw	zero,36(s1)
     98c:	0204a423          	sw	zero,40(s1)
     990:	0204ac23          	sw	zero,56(s1)
     994:	0204ae23          	sw	zero,60(s1)
     998:	0404a023          	sw	zero,64(s1)
     99c:	0404a223          	sw	zero,68(s1)
     9a0:	0004a683          	lw	a3,0(s1)
     9a4:	10068463          	beqz	a3,aac <spi_error_handler+0x194>
     9a8:	0106a783          	lw	a5,16(a3)
     9ac:	40000737          	lui	a4,0x40000
     9b0:	00e7e7b3          	or	a5,a5,a4
     9b4:	00f6a823          	sw	a5,16(a3)
     9b8:	0146a783          	lw	a5,20(a3)
     9bc:	00f12623          	sw	a5,12(sp)
     9c0:	00c12783          	lw	a5,12(sp)
     9c4:	00179713          	slli	a4,a5,0x1
     9c8:	fe074ce3          	bltz	a4,9c0 <spi_error_handler+0xa8>
     9cc:	00c14783          	lbu	a5,12(sp)
     9d0:	fe0798e3          	bnez	a5,9c0 <spi_error_handler+0xa8>
     9d4:	00d14783          	lbu	a5,13(sp)
     9d8:	fe0794e3          	bnez	a5,9c0 <spi_error_handler+0xa8>
     9dc:	0106a783          	lw	a5,16(a3)
     9e0:	c0000737          	lui	a4,0xc0000
     9e4:	fff70713          	addi	a4,a4,-1 # bfffffff <_sp+0xbffd55ff>
     9e8:	00e7f7b3          	and	a5,a5,a4
     9ec:	00f6a823          	sw	a5,16(a3)
     9f0:	0004a783          	lw	a5,0(s1)
     9f4:	0a078c63          	beqz	a5,aac <spi_error_handler+0x194>
     9f8:	0107a703          	lw	a4,16(a5)
     9fc:	800006b7          	lui	a3,0x80000
     a00:	00d76733          	or	a4,a4,a3
     a04:	00e7a823          	sw	a4,16(a5)
     a08:	0004a783          	lw	a5,0(s1)
     a0c:	0a078063          	beqz	a5,aac <spi_error_handler+0x194>
     a10:	0107a703          	lw	a4,16(a5)
     a14:	200006b7          	lui	a3,0x20000
     a18:	00d76733          	or	a4,a4,a3
     a1c:	00e7a823          	sw	a4,16(a5)
     a20:	0004a783          	lw	a5,0(s1)
     a24:	08078463          	beqz	a5,aac <spi_error_handler+0x194>
     a28:	0307a703          	lw	a4,48(a5)
     a2c:	01f76713          	ori	a4,a4,31
     a30:	02e7a823          	sw	a4,48(a5)
     a34:	0004a783          	lw	a5,0(s1)
     a38:	06078a63          	beqz	a5,aac <spi_error_handler+0x194>
     a3c:	0047a703          	lw	a4,4(a5)
     a40:	00176713          	ori	a4,a4,1
     a44:	00e7a223          	sw	a4,4(a5)
     a48:	0004a703          	lw	a4,0(s1)
     a4c:	0044c783          	lbu	a5,4(s1)
     a50:	00173693          	seqz	a3,a4
     a54:	0497b613          	sltiu	a2,a5,73
     a58:	00163613          	seqz	a2,a2
     a5c:	00c6e6b3          	or	a3,a3,a2
     a60:	02069063          	bnez	a3,a80 <spi_error_handler+0x168>
     a64:	01072683          	lw	a3,16(a4)
     a68:	ffff0637          	lui	a2,0xffff0
     a6c:	0ff60613          	addi	a2,a2,255 # ffff00ff <_sp+0xfffc56ff>
     a70:	00c6f6b3          	and	a3,a3,a2
     a74:	00879793          	slli	a5,a5,0x8
     a78:	00d7e7b3          	or	a5,a5,a3
     a7c:	00f72823          	sw	a5,16(a4)
     a80:	0004a683          	lw	a3,0(s1)
     a84:	0054c703          	lbu	a4,5(s1)
     a88:	04173793          	sltiu	a5,a4,65
     a8c:	0017b793          	seqz	a5,a5
     a90:	0016b613          	seqz	a2,a3
     a94:	00c7e7b3          	or	a5,a5,a2
     a98:	00079a63          	bnez	a5,aac <spi_error_handler+0x194>
     a9c:	0106a783          	lw	a5,16(a3) # 20000010 <_sp+0x1ffd5610>
     aa0:	f007f793          	andi	a5,a5,-256
     aa4:	00f76733          	or	a4,a4,a5
     aa8:	00e6a823          	sw	a4,16(a3)
     aac:	0004a423          	sw	zero,8(s1)
     ab0:	00800793          	li	a5,8
     ab4:	00f4a823          	sw	a5,16(s1)
     ab8:	01c12083          	lw	ra,28(sp)
     abc:	01812483          	lw	s1,24(sp)
     ac0:	02010113          	addi	sp,sp,32
     ac4:	00008067          	ret

00000ac8 <_writestr>:
     ac8:	ff010113          	addi	sp,sp,-16
     acc:	00112623          	sw	ra,12(sp)
     ad0:	00912423          	sw	s1,8(sp)
     ad4:	00050493          	mv	s1,a0
     ad8:	3b4040ef          	jal	4e8c <strlen>
     adc:	00150613          	addi	a2,a0,1
     ae0:	00048593          	mv	a1,s1
     ae4:	00100513          	li	a0,1
     ae8:	b09ff0ef          	jal	5f0 <_write>
     aec:	00c12083          	lw	ra,12(sp)
     af0:	00812483          	lw	s1,8(sp)
     af4:	01010113          	addi	sp,sp,16
     af8:	00008067          	ret

00000afc <print_exc_msg>:
     afc:	fe010113          	addi	sp,sp,-32
     b00:	00112e23          	sw	ra,28(sp)
     b04:	00912c23          	sw	s1,24(sp)
     b08:	fc1ff0ef          	jal	ac8 <_writestr>
     b0c:	343024f3          	csrr	s1,mtval
     b10:	00020537          	lui	a0,0x20
     b14:	3f450513          	addi	a0,a0,1012 # 203f4 <__clz_tab+0x1b0>
     b18:	fb1ff0ef          	jal	ac8 <_writestr>
     b1c:	0184d793          	srli	a5,s1,0x18
     b20:	00f10423          	sb	a5,8(sp)
     b24:	0104d793          	srli	a5,s1,0x10
     b28:	00f104a3          	sb	a5,9(sp)
     b2c:	0084d793          	srli	a5,s1,0x8
     b30:	00f10523          	sb	a5,10(sp)
     b34:	009105a3          	sb	s1,11(sp)
     b38:	00a00793          	li	a5,10
     b3c:	00f10623          	sb	a5,12(sp)
     b40:	000106a3          	sb	zero,13(sp)
     b44:	00810513          	addi	a0,sp,8
     b48:	f81ff0ef          	jal	ac8 <_writestr>
     b4c:	0000006f          	j	b4c <print_exc_msg+0x50>

00000b50 <inferenceTPG>:
     b50:	e8010113          	addi	sp,sp,-384
     b54:	16112e23          	sw	ra,380(sp)
     b58:	16912c23          	sw	s1,376(sp)
     b5c:	17212a23          	sw	s2,372(sp)
     b60:	17312823          	sw	s3,368(sp)
     b64:	17412623          	sw	s4,364(sp)
     b68:	17512423          	sw	s5,360(sp)
     b6c:	17612223          	sw	s6,356(sp)
     b70:	00050b13          	mv	s6,a0
     b74:	00058993          	mv	s3,a1
     b78:	00060913          	mv	s2,a2
     b7c:	00068493          	mv	s1,a3
     b80:	00070a93          	mv	s5,a4
     b84:	00078a13          	mv	s4,a5
     b88:	00003837          	lui	a6,0x3
     b8c:	e2480813          	addi	a6,a6,-476 # 2e24 <T16_end+0x3c>
     b90:	00080067          	jr	a6
     b94:	17712023          	sw	s7,352(sp)

00000b98 <T0_start>:
     b98:	b00027f3          	csrr	a5,mcycle
     b9c:	00078b93          	mv	s7,a5
     ba0:	02012e23          	sw	zero,60(sp)
     ba4:	00492783          	lw	a5,4(s2)
     ba8:	0049a703          	lw	a4,4(s3)
     bac:	40e787b3          	sub	a5,a5,a4
     bb0:	04f12023          	sw	a5,64(sp)
     bb4:	0084a783          	lw	a5,8(s1)
     bb8:	04f12223          	sw	a5,68(sp)
     bbc:	00892683          	lw	a3,8(s2)
     bc0:	517cd7b7          	lui	a5,0x517cd
     bc4:	c8378793          	addi	a5,a5,-893 # 517ccc83 <_sp+0x517a2283>
     bc8:	02f697b3          	mulh	a5,a3,a5
     bcc:	4117d793          	srai	a5,a5,0x11
     bd0:	41f6d713          	srai	a4,a3,0x1f
     bd4:	40e787b3          	sub	a5,a5,a4
     bd8:	00065737          	lui	a4,0x65
     bdc:	87e70713          	addi	a4,a4,-1922 # 6487e <_sp+0x39e7e>
     be0:	02e787b3          	mul	a5,a5,a4
     be4:	40f687b3          	sub	a5,a3,a5
     be8:	2607c863          	bltz	a5,e58 <T0_end+0x64>
     bec:	fffe7737          	lui	a4,0xfffe7
     bf0:	ddf70713          	addi	a4,a4,-545 # fffe6ddf <_sp+0xfffbc3df>
     bf4:	00e78733          	add	a4,a5,a4
     bf8:	00019637          	lui	a2,0x19
     bfc:	21e60613          	addi	a2,a2,542 # 1921e <heap.cpp.6b15d6f6+0x903e>
     c00:	26e66463          	bltu	a2,a4,e68 <T0_end+0x74>
     c04:	00032737          	lui	a4,0x32
     c08:	43f70713          	addi	a4,a4,1087 # 3243f <_sp+0x7a3f>
     c0c:	40f707b3          	sub	a5,a4,a5
     c10:	00100513          	li	a0,1
     c14:	00019737          	lui	a4,0x19
     c18:	22070713          	addi	a4,a4,544 # 19220 <heap.cpp.6b15d6f6+0x9040>
     c1c:	40d70733          	sub	a4,a4,a3
     c20:	517cd837          	lui	a6,0x517cd
     c24:	c8380813          	addi	a6,a6,-893 # 517ccc83 <_sp+0x517a2283>
     c28:	03071833          	mulh	a6,a4,a6
     c2c:	41185813          	srai	a6,a6,0x11
     c30:	41f75693          	srai	a3,a4,0x1f
     c34:	40d80833          	sub	a6,a6,a3
     c38:	000656b7          	lui	a3,0x65
     c3c:	87e68693          	addi	a3,a3,-1922 # 6487e <_sp+0x39e7e>
     c40:	02d806b3          	mul	a3,a6,a3
     c44:	40d70833          	sub	a6,a4,a3
     c48:	26084863          	bltz	a6,eb8 <T0_end+0xc4>
     c4c:	fffe7737          	lui	a4,0xfffe7
     c50:	ddf70713          	addi	a4,a4,-545 # fffe6ddf <_sp+0xfffbc3df>
     c54:	00e80733          	add	a4,a6,a4
     c58:	000196b7          	lui	a3,0x19
     c5c:	21e68693          	addi	a3,a3,542 # 1921e <heap.cpp.6b15d6f6+0x903e>
     c60:	26e6e463          	bltu	a3,a4,ec8 <T0_end+0xd4>
     c64:	00032737          	lui	a4,0x32
     c68:	43f70713          	addi	a4,a4,1087 # 3243f <_sp+0x7a3f>
     c6c:	41070833          	sub	a6,a4,a6
     c70:	00100593          	li	a1,1
     c74:	41f85893          	srai	a7,a6,0x1f
     c78:	03088733          	mul	a4,a7,a6
     c7c:	03080333          	mul	t1,a6,a6
     c80:	030836b3          	mulhu	a3,a6,a6
     c84:	20d72733          	sh1add	a4,a4,a3
     c88:	01071713          	slli	a4,a4,0x10
     c8c:	01035313          	srli	t1,t1,0x10
     c90:	00670333          	add	t1,a4,t1
     c94:	41f35e13          	srai	t3,t1,0x1f
     c98:	1f300613          	li	a2,499
     c9c:	02ce0733          	mul	a4,t3,a2
     ca0:	02c306b3          	mul	a3,t1,a2
     ca4:	02c33633          	mulhu	a2,t1,a2
     ca8:	00c70733          	add	a4,a4,a2
     cac:	01071713          	slli	a4,a4,0x10
     cb0:	0106d693          	srli	a3,a3,0x10
     cb4:	00d706b3          	add	a3,a4,a3
     cb8:	ffffd737          	lui	a4,0xffffd
     cbc:	57e70713          	addi	a4,a4,1406 # ffffd57e <_sp+0xfffd2b7e>
     cc0:	00e686b3          	add	a3,a3,a4
     cc4:	41f6d613          	srai	a2,a3,0x1f
     cc8:	02660633          	mul	a2,a2,t1
     ccc:	02de0e33          	mul	t3,t3,a3
     cd0:	01c60633          	add	a2,a2,t3
     cd4:	02668733          	mul	a4,a3,t1
     cd8:	0266b6b3          	mulhu	a3,a3,t1
     cdc:	00d606b3          	add	a3,a2,a3
     ce0:	01069693          	slli	a3,a3,0x10
     ce4:	01075713          	srli	a4,a4,0x10
     ce8:	00e68733          	add	a4,a3,a4
     cec:	000106b7          	lui	a3,0x10
     cf0:	00d70733          	add	a4,a4,a3
     cf4:	41f75693          	srai	a3,a4,0x1f
     cf8:	030686b3          	mul	a3,a3,a6
     cfc:	02e888b3          	mul	a7,a7,a4
     d00:	011686b3          	add	a3,a3,a7
     d04:	03070633          	mul	a2,a4,a6
     d08:	03073733          	mulhu	a4,a4,a6
     d0c:	00e68733          	add	a4,a3,a4
     d10:	01071713          	slli	a4,a4,0x10
     d14:	01065613          	srli	a2,a2,0x10
     d18:	00c70633          	add	a2,a4,a2
     d1c:	02c58633          	mul	a2,a1,a2
     d20:	0c060863          	beqz	a2,df0 <T0_start+0x258>
     d24:	41f7d893          	srai	a7,a5,0x1f
     d28:	02f88733          	mul	a4,a7,a5
     d2c:	02f785b3          	mul	a1,a5,a5
     d30:	02f7b6b3          	mulhu	a3,a5,a5
     d34:	20d72733          	sh1add	a4,a4,a3
     d38:	01071713          	slli	a4,a4,0x10
     d3c:	0105d593          	srli	a1,a1,0x10
     d40:	00b705b3          	add	a1,a4,a1
     d44:	41f5d313          	srai	t1,a1,0x1f
     d48:	1f300813          	li	a6,499
     d4c:	03030733          	mul	a4,t1,a6
     d50:	030586b3          	mul	a3,a1,a6
     d54:	0305b833          	mulhu	a6,a1,a6
     d58:	01070733          	add	a4,a4,a6
     d5c:	01071713          	slli	a4,a4,0x10
     d60:	0106d693          	srli	a3,a3,0x10
     d64:	00d706b3          	add	a3,a4,a3
     d68:	ffffd737          	lui	a4,0xffffd
     d6c:	57e70713          	addi	a4,a4,1406 # ffffd57e <_sp+0xfffd2b7e>
     d70:	00e686b3          	add	a3,a3,a4
     d74:	41f6d813          	srai	a6,a3,0x1f
     d78:	02b80833          	mul	a6,a6,a1
     d7c:	02d30333          	mul	t1,t1,a3
     d80:	00680833          	add	a6,a6,t1
     d84:	02b68733          	mul	a4,a3,a1
     d88:	02b6b6b3          	mulhu	a3,a3,a1
     d8c:	00d806b3          	add	a3,a6,a3
     d90:	01069693          	slli	a3,a3,0x10
     d94:	01075713          	srli	a4,a4,0x10
     d98:	00e68733          	add	a4,a3,a4
     d9c:	000106b7          	lui	a3,0x10
     da0:	00d70733          	add	a4,a4,a3
     da4:	41f75693          	srai	a3,a4,0x1f
     da8:	02f686b3          	mul	a3,a3,a5
     dac:	02e888b3          	mul	a7,a7,a4
     db0:	011686b3          	add	a3,a3,a7
     db4:	02f705b3          	mul	a1,a4,a5
     db8:	02f73733          	mulhu	a4,a4,a5
     dbc:	00e687b3          	add	a5,a3,a4
     dc0:	01079793          	slli	a5,a5,0x10
     dc4:	0105d713          	srli	a4,a1,0x10
     dc8:	00e78733          	add	a4,a5,a4
     dcc:	02e50533          	mul	a0,a0,a4
     dd0:	41f55793          	srai	a5,a0,0x1f
     dd4:	01055593          	srli	a1,a0,0x10
     dd8:	01079793          	slli	a5,a5,0x10
     ddc:	41f65693          	srai	a3,a2,0x1f
     de0:	01051513          	slli	a0,a0,0x10
     de4:	00f585b3          	add	a1,a1,a5
     de8:	3cd060ef          	jal	79b4 <__divdi3>
     dec:	00050613          	mv	a2,a0
     df0:	04c12423          	sw	a2,72(sp)

00000df4 <T0_end>:
     df4:	b00027f3          	csrr	a5,mcycle
     df8:	417787b3          	sub	a5,a5,s7
     dfc:	00fa2023          	sw	a5,0(s4)
     e00:	03c12683          	lw	a3,60(sp)
     e04:	04012703          	lw	a4,64(sp)
     e08:	00100793          	li	a5,1
     e0c:	00d75663          	bge	a4,a3,e18 <T0_end+0x24>
     e10:	00068713          	mv	a4,a3
     e14:	00000793          	li	a5,0
     e18:	04412683          	lw	a3,68(sp)
     e1c:	0ee6de63          	bge	a3,a4,f18 <T0_end+0x124>
     e20:	00070693          	mv	a3,a4
     e24:	04812703          	lw	a4,72(sp)
     e28:	00d74463          	blt	a4,a3,e30 <T0_end+0x3c>
     e2c:	00300793          	li	a5,3
     e30:	00020737          	lui	a4,0x20
     e34:	000206b7          	lui	a3,0x20
     e38:	1c468693          	addi	a3,a3,452 # 201c4 <next.18>
     e3c:	20d7c7b3          	sh2add	a5,a5,a3
     e40:	0007a783          	lw	a5,0(a5)
     e44:	15870713          	addi	a4,a4,344 # 20158 <jump_table.19>
     e48:	20e7c7b3          	sh2add	a5,a5,a4
     e4c:	0007a803          	lw	a6,0(a5)
     e50:	16012b83          	lw	s7,352(sp)
     e54:	d3dff06f          	j	b90 <inferenceTPG+0x40>
     e58:	00065737          	lui	a4,0x65
     e5c:	87e70713          	addi	a4,a4,-1922 # 6487e <_sp+0x39e7e>
     e60:	00e787b3          	add	a5,a5,a4
     e64:	d89ff06f          	j	bec <T0_start+0x54>
     e68:	fffce737          	lui	a4,0xfffce
     e6c:	bc070713          	addi	a4,a4,-1088 # fffcdbc0 <_sp+0xfffa31c0>
     e70:	00e78733          	add	a4,a5,a4
     e74:	00019637          	lui	a2,0x19
     e78:	21f60613          	addi	a2,a2,543 # 1921f <heap.cpp.6b15d6f6+0x903f>
     e7c:	00e66c63          	bltu	a2,a4,e94 <T0_end+0xa0>
     e80:	fffce737          	lui	a4,0xfffce
     e84:	bc170713          	addi	a4,a4,-1087 # fffcdbc1 <_sp+0xfffa31c1>
     e88:	00e787b3          	add	a5,a5,a4
     e8c:	fff00513          	li	a0,-1
     e90:	d85ff06f          	j	c14 <T0_start+0x7c>
     e94:	0004b737          	lui	a4,0x4b
     e98:	65f70713          	addi	a4,a4,1631 # 4b65f <_sp+0x20c5f>
     e9c:	00100513          	li	a0,1
     ea0:	d6f75ae3          	bge	a4,a5,c14 <T0_start+0x7c>
     ea4:	00065737          	lui	a4,0x65
     ea8:	87e70713          	addi	a4,a4,-1922 # 6487e <_sp+0x39e7e>
     eac:	40f707b3          	sub	a5,a4,a5
     eb0:	fff00513          	li	a0,-1
     eb4:	d61ff06f          	j	c14 <T0_start+0x7c>
     eb8:	00065737          	lui	a4,0x65
     ebc:	87e70713          	addi	a4,a4,-1922 # 6487e <_sp+0x39e7e>
     ec0:	00e80833          	add	a6,a6,a4
     ec4:	d89ff06f          	j	c4c <T0_start+0xb4>
     ec8:	fffce737          	lui	a4,0xfffce
     ecc:	bc070713          	addi	a4,a4,-1088 # fffcdbc0 <_sp+0xfffa31c0>
     ed0:	00e80733          	add	a4,a6,a4
     ed4:	000196b7          	lui	a3,0x19
     ed8:	21f68693          	addi	a3,a3,543 # 1921f <heap.cpp.6b15d6f6+0x903f>
     edc:	00e6ec63          	bltu	a3,a4,ef4 <T0_end+0x100>
     ee0:	fffce737          	lui	a4,0xfffce
     ee4:	bc170713          	addi	a4,a4,-1087 # fffcdbc1 <_sp+0xfffa31c1>
     ee8:	00e80833          	add	a6,a6,a4
     eec:	fff00593          	li	a1,-1
     ef0:	d85ff06f          	j	c74 <T0_start+0xdc>
     ef4:	0004b737          	lui	a4,0x4b
     ef8:	65f70713          	addi	a4,a4,1631 # 4b65f <_sp+0x20c5f>
     efc:	00100593          	li	a1,1
     f00:	d7075ae3          	bge	a4,a6,c74 <T0_start+0xdc>
     f04:	00065737          	lui	a4,0x65
     f08:	87e70713          	addi	a4,a4,-1922 # 6487e <_sp+0x39e7e>
     f0c:	41070833          	sub	a6,a4,a6
     f10:	fff00593          	li	a1,-1
     f14:	d61ff06f          	j	c74 <T0_start+0xdc>
     f18:	00200793          	li	a5,2
     f1c:	f09ff06f          	j	e24 <T0_end+0x30>
     f20:	17712023          	sw	s7,352(sp)

00000f24 <T1_start>:
     f24:	b00027f3          	csrr	a5,mcycle
     f28:	00078b93          	mv	s7,a5
     f2c:	0084a783          	lw	a5,8(s1)
     f30:	00f12c23          	sw	a5,24(sp)
     f34:	0044a683          	lw	a3,4(s1)
     f38:	517cd7b7          	lui	a5,0x517cd
     f3c:	c8378793          	addi	a5,a5,-893 # 517ccc83 <_sp+0x517a2283>
     f40:	02f697b3          	mulh	a5,a3,a5
     f44:	4117d793          	srai	a5,a5,0x11
     f48:	41f6d713          	srai	a4,a3,0x1f
     f4c:	40e787b3          	sub	a5,a5,a4
     f50:	00065737          	lui	a4,0x65
     f54:	87e70713          	addi	a4,a4,-1922 # 6487e <_sp+0x39e7e>
     f58:	02e787b3          	mul	a5,a5,a4
     f5c:	40f687b3          	sub	a5,a3,a5
     f60:	2607ca63          	bltz	a5,11d4 <T1_end+0x58>
     f64:	fffe7737          	lui	a4,0xfffe7
     f68:	ddf70713          	addi	a4,a4,-545 # fffe6ddf <_sp+0xfffbc3df>
     f6c:	00e78733          	add	a4,a5,a4
     f70:	00019637          	lui	a2,0x19
     f74:	21e60613          	addi	a2,a2,542 # 1921e <heap.cpp.6b15d6f6+0x903e>
     f78:	26e66663          	bltu	a2,a4,11e4 <T1_end+0x68>
     f7c:	00032737          	lui	a4,0x32
     f80:	43f70713          	addi	a4,a4,1087 # 3243f <_sp+0x7a3f>
     f84:	40f707b3          	sub	a5,a4,a5
     f88:	00100513          	li	a0,1
     f8c:	00019737          	lui	a4,0x19
     f90:	22070713          	addi	a4,a4,544 # 19220 <heap.cpp.6b15d6f6+0x9040>
     f94:	40d70733          	sub	a4,a4,a3
     f98:	517cd837          	lui	a6,0x517cd
     f9c:	c8380813          	addi	a6,a6,-893 # 517ccc83 <_sp+0x517a2283>
     fa0:	03071833          	mulh	a6,a4,a6
     fa4:	41185813          	srai	a6,a6,0x11
     fa8:	41f75693          	srai	a3,a4,0x1f
     fac:	40d80833          	sub	a6,a6,a3
     fb0:	000656b7          	lui	a3,0x65
     fb4:	87e68693          	addi	a3,a3,-1922 # 6487e <_sp+0x39e7e>
     fb8:	02d806b3          	mul	a3,a6,a3
     fbc:	40d70833          	sub	a6,a4,a3
     fc0:	26084a63          	bltz	a6,1234 <T1_end+0xb8>
     fc4:	fffe7737          	lui	a4,0xfffe7
     fc8:	ddf70713          	addi	a4,a4,-545 # fffe6ddf <_sp+0xfffbc3df>
     fcc:	00e80733          	add	a4,a6,a4
     fd0:	000196b7          	lui	a3,0x19
     fd4:	21e68693          	addi	a3,a3,542 # 1921e <heap.cpp.6b15d6f6+0x903e>
     fd8:	26e6e663          	bltu	a3,a4,1244 <T1_end+0xc8>
     fdc:	00032737          	lui	a4,0x32
     fe0:	43f70713          	addi	a4,a4,1087 # 3243f <_sp+0x7a3f>
     fe4:	41070833          	sub	a6,a4,a6
     fe8:	00100593          	li	a1,1
     fec:	41f85893          	srai	a7,a6,0x1f
     ff0:	03088733          	mul	a4,a7,a6
     ff4:	03080333          	mul	t1,a6,a6
     ff8:	030836b3          	mulhu	a3,a6,a6
     ffc:	20d72733          	sh1add	a4,a4,a3
    1000:	01071713          	slli	a4,a4,0x10
    1004:	01035313          	srli	t1,t1,0x10
    1008:	00670333          	add	t1,a4,t1
    100c:	41f35e13          	srai	t3,t1,0x1f
    1010:	1f300613          	li	a2,499
    1014:	02ce0733          	mul	a4,t3,a2
    1018:	02c306b3          	mul	a3,t1,a2
    101c:	02c33633          	mulhu	a2,t1,a2
    1020:	00c70733          	add	a4,a4,a2
    1024:	01071713          	slli	a4,a4,0x10
    1028:	0106d693          	srli	a3,a3,0x10
    102c:	00d706b3          	add	a3,a4,a3
    1030:	ffffd737          	lui	a4,0xffffd
    1034:	57e70713          	addi	a4,a4,1406 # ffffd57e <_sp+0xfffd2b7e>
    1038:	00e686b3          	add	a3,a3,a4
    103c:	41f6d613          	srai	a2,a3,0x1f
    1040:	02660633          	mul	a2,a2,t1
    1044:	02de0e33          	mul	t3,t3,a3
    1048:	01c60633          	add	a2,a2,t3
    104c:	02668733          	mul	a4,a3,t1
    1050:	0266b6b3          	mulhu	a3,a3,t1
    1054:	00d606b3          	add	a3,a2,a3
    1058:	01069693          	slli	a3,a3,0x10
    105c:	01075713          	srli	a4,a4,0x10
    1060:	00e68733          	add	a4,a3,a4
    1064:	000106b7          	lui	a3,0x10
    1068:	00d70733          	add	a4,a4,a3
    106c:	41f75693          	srai	a3,a4,0x1f
    1070:	030686b3          	mul	a3,a3,a6
    1074:	02e888b3          	mul	a7,a7,a4
    1078:	011686b3          	add	a3,a3,a7
    107c:	03070633          	mul	a2,a4,a6
    1080:	03073733          	mulhu	a4,a4,a6
    1084:	00e68733          	add	a4,a3,a4
    1088:	01071713          	slli	a4,a4,0x10
    108c:	01065613          	srli	a2,a2,0x10
    1090:	00c70633          	add	a2,a4,a2
    1094:	02c58633          	mul	a2,a1,a2
    1098:	0c060863          	beqz	a2,1168 <T1_start+0x244>
    109c:	41f7d893          	srai	a7,a5,0x1f
    10a0:	02f88733          	mul	a4,a7,a5
    10a4:	02f785b3          	mul	a1,a5,a5
    10a8:	02f7b6b3          	mulhu	a3,a5,a5
    10ac:	20d72733          	sh1add	a4,a4,a3
    10b0:	01071713          	slli	a4,a4,0x10
    10b4:	0105d593          	srli	a1,a1,0x10
    10b8:	00b705b3          	add	a1,a4,a1
    10bc:	41f5d313          	srai	t1,a1,0x1f
    10c0:	1f300813          	li	a6,499
    10c4:	03030733          	mul	a4,t1,a6
    10c8:	030586b3          	mul	a3,a1,a6
    10cc:	0305b833          	mulhu	a6,a1,a6
    10d0:	01070733          	add	a4,a4,a6
    10d4:	01071713          	slli	a4,a4,0x10
    10d8:	0106d693          	srli	a3,a3,0x10
    10dc:	00d706b3          	add	a3,a4,a3
    10e0:	ffffd737          	lui	a4,0xffffd
    10e4:	57e70713          	addi	a4,a4,1406 # ffffd57e <_sp+0xfffd2b7e>
    10e8:	00e686b3          	add	a3,a3,a4
    10ec:	41f6d813          	srai	a6,a3,0x1f
    10f0:	02b80833          	mul	a6,a6,a1
    10f4:	02d30333          	mul	t1,t1,a3
    10f8:	00680833          	add	a6,a6,t1
    10fc:	02b68733          	mul	a4,a3,a1
    1100:	02b6b6b3          	mulhu	a3,a3,a1
    1104:	00d806b3          	add	a3,a6,a3
    1108:	01069693          	slli	a3,a3,0x10
    110c:	01075713          	srli	a4,a4,0x10
    1110:	00e68733          	add	a4,a3,a4
    1114:	000106b7          	lui	a3,0x10
    1118:	00d70733          	add	a4,a4,a3
    111c:	41f75693          	srai	a3,a4,0x1f
    1120:	02f686b3          	mul	a3,a3,a5
    1124:	02e888b3          	mul	a7,a7,a4
    1128:	011686b3          	add	a3,a3,a7
    112c:	02f705b3          	mul	a1,a4,a5
    1130:	02f73733          	mulhu	a4,a4,a5
    1134:	00e687b3          	add	a5,a3,a4
    1138:	01079793          	slli	a5,a5,0x10
    113c:	0105d713          	srli	a4,a1,0x10
    1140:	00e78733          	add	a4,a5,a4
    1144:	02e50533          	mul	a0,a0,a4
    1148:	41f55793          	srai	a5,a0,0x1f
    114c:	01055593          	srli	a1,a0,0x10
    1150:	01079793          	slli	a5,a5,0x10
    1154:	41f65693          	srai	a3,a2,0x1f
    1158:	01051513          	slli	a0,a0,0x10
    115c:	00f585b3          	add	a1,a1,a5
    1160:	055060ef          	jal	79b4 <__divdi3>
    1164:	00050613          	mv	a2,a0
    1168:	00c12e23          	sw	a2,28(sp)
    116c:	00492783          	lw	a5,4(s2)
    1170:	0049a703          	lw	a4,4(s3)
    1174:	40e787b3          	sub	a5,a5,a4
    1178:	02f12023          	sw	a5,32(sp)

0000117c <T1_end>:
    117c:	b00027f3          	csrr	a5,mcycle
    1180:	417787b3          	sub	a5,a5,s7
    1184:	00fa2223          	sw	a5,4(s4)
    1188:	01812683          	lw	a3,24(sp)
    118c:	01c12703          	lw	a4,28(sp)
    1190:	00100793          	li	a5,1
    1194:	00d75663          	bge	a4,a3,11a0 <T1_end+0x24>
    1198:	00068713          	mv	a4,a3
    119c:	00000793          	li	a5,0
    11a0:	02012683          	lw	a3,32(sp)
    11a4:	00e6c463          	blt	a3,a4,11ac <T1_end+0x30>
    11a8:	00200793          	li	a5,2
    11ac:	00020737          	lui	a4,0x20
    11b0:	000206b7          	lui	a3,0x20
    11b4:	14c68693          	addi	a3,a3,332 # 2014c <next.17>
    11b8:	20d7c7b3          	sh2add	a5,a5,a3
    11bc:	0007a783          	lw	a5,0(a5)
    11c0:	15870713          	addi	a4,a4,344 # 20158 <jump_table.19>
    11c4:	20e7c7b3          	sh2add	a5,a5,a4
    11c8:	0007a803          	lw	a6,0(a5)
    11cc:	16012b83          	lw	s7,352(sp)
    11d0:	9c1ff06f          	j	b90 <inferenceTPG+0x40>
    11d4:	00065737          	lui	a4,0x65
    11d8:	87e70713          	addi	a4,a4,-1922 # 6487e <_sp+0x39e7e>
    11dc:	00e787b3          	add	a5,a5,a4
    11e0:	d85ff06f          	j	f64 <T1_start+0x40>
    11e4:	fffce737          	lui	a4,0xfffce
    11e8:	bc070713          	addi	a4,a4,-1088 # fffcdbc0 <_sp+0xfffa31c0>
    11ec:	00e78733          	add	a4,a5,a4
    11f0:	00019637          	lui	a2,0x19
    11f4:	21f60613          	addi	a2,a2,543 # 1921f <heap.cpp.6b15d6f6+0x903f>
    11f8:	00e66c63          	bltu	a2,a4,1210 <T1_end+0x94>
    11fc:	fffce737          	lui	a4,0xfffce
    1200:	bc170713          	addi	a4,a4,-1087 # fffcdbc1 <_sp+0xfffa31c1>
    1204:	00e787b3          	add	a5,a5,a4
    1208:	fff00513          	li	a0,-1
    120c:	d81ff06f          	j	f8c <T1_start+0x68>
    1210:	0004b737          	lui	a4,0x4b
    1214:	65f70713          	addi	a4,a4,1631 # 4b65f <_sp+0x20c5f>
    1218:	00100513          	li	a0,1
    121c:	d6f758e3          	bge	a4,a5,f8c <T1_start+0x68>
    1220:	00065737          	lui	a4,0x65
    1224:	87e70713          	addi	a4,a4,-1922 # 6487e <_sp+0x39e7e>
    1228:	40f707b3          	sub	a5,a4,a5
    122c:	fff00513          	li	a0,-1
    1230:	d5dff06f          	j	f8c <T1_start+0x68>
    1234:	00065737          	lui	a4,0x65
    1238:	87e70713          	addi	a4,a4,-1922 # 6487e <_sp+0x39e7e>
    123c:	00e80833          	add	a6,a6,a4
    1240:	d85ff06f          	j	fc4 <T1_start+0xa0>
    1244:	fffce737          	lui	a4,0xfffce
    1248:	bc070713          	addi	a4,a4,-1088 # fffcdbc0 <_sp+0xfffa31c0>
    124c:	00e80733          	add	a4,a6,a4
    1250:	000196b7          	lui	a3,0x19
    1254:	21f68693          	addi	a3,a3,543 # 1921f <heap.cpp.6b15d6f6+0x903f>
    1258:	00e6ec63          	bltu	a3,a4,1270 <T1_end+0xf4>
    125c:	fffce737          	lui	a4,0xfffce
    1260:	bc170713          	addi	a4,a4,-1087 # fffcdbc1 <_sp+0xfffa31c1>
    1264:	00e80833          	add	a6,a6,a4
    1268:	fff00593          	li	a1,-1
    126c:	d81ff06f          	j	fec <T1_start+0xc8>
    1270:	0004b737          	lui	a4,0x4b
    1274:	65f70713          	addi	a4,a4,1631 # 4b65f <_sp+0x20c5f>
    1278:	00100593          	li	a1,1
    127c:	d70758e3          	bge	a4,a6,fec <T1_start+0xc8>
    1280:	00065737          	lui	a4,0x65
    1284:	87e70713          	addi	a4,a4,-1922 # 6487e <_sp+0x39e7e>
    1288:	41070833          	sub	a6,a4,a6
    128c:	fff00593          	li	a1,-1
    1290:	d5dff06f          	j	fec <T1_start+0xc8>
    1294:	17712023          	sw	s7,352(sp)

00001298 <T2_start>:
    1298:	b00027f3          	csrr	a5,mcycle
    129c:	00078b93          	mv	s7,a5
    12a0:	0084a783          	lw	a5,8(s1)
    12a4:	02f12223          	sw	a5,36(sp)
    12a8:	0044a683          	lw	a3,4(s1)
    12ac:	517cd7b7          	lui	a5,0x517cd
    12b0:	c8378793          	addi	a5,a5,-893 # 517ccc83 <_sp+0x517a2283>
    12b4:	02f697b3          	mulh	a5,a3,a5
    12b8:	4117d793          	srai	a5,a5,0x11
    12bc:	41f6d713          	srai	a4,a3,0x1f
    12c0:	40e787b3          	sub	a5,a5,a4
    12c4:	00065737          	lui	a4,0x65
    12c8:	87e70713          	addi	a4,a4,-1922 # 6487e <_sp+0x39e7e>
    12cc:	02e787b3          	mul	a5,a5,a4
    12d0:	40f687b3          	sub	a5,a3,a5
    12d4:	2607ca63          	bltz	a5,1548 <T2_end+0x58>
    12d8:	fffe7737          	lui	a4,0xfffe7
    12dc:	ddf70713          	addi	a4,a4,-545 # fffe6ddf <_sp+0xfffbc3df>
    12e0:	00e78733          	add	a4,a5,a4
    12e4:	00019637          	lui	a2,0x19
    12e8:	21e60613          	addi	a2,a2,542 # 1921e <heap.cpp.6b15d6f6+0x903e>
    12ec:	26e66663          	bltu	a2,a4,1558 <T2_end+0x68>
    12f0:	00032737          	lui	a4,0x32
    12f4:	43f70713          	addi	a4,a4,1087 # 3243f <_sp+0x7a3f>
    12f8:	40f707b3          	sub	a5,a4,a5
    12fc:	00100513          	li	a0,1
    1300:	00019737          	lui	a4,0x19
    1304:	22070713          	addi	a4,a4,544 # 19220 <heap.cpp.6b15d6f6+0x9040>
    1308:	40d70733          	sub	a4,a4,a3
    130c:	517cd837          	lui	a6,0x517cd
    1310:	c8380813          	addi	a6,a6,-893 # 517ccc83 <_sp+0x517a2283>
    1314:	03071833          	mulh	a6,a4,a6
    1318:	41185813          	srai	a6,a6,0x11
    131c:	41f75693          	srai	a3,a4,0x1f
    1320:	40d80833          	sub	a6,a6,a3
    1324:	000656b7          	lui	a3,0x65
    1328:	87e68693          	addi	a3,a3,-1922 # 6487e <_sp+0x39e7e>
    132c:	02d806b3          	mul	a3,a6,a3
    1330:	40d70833          	sub	a6,a4,a3
    1334:	26084a63          	bltz	a6,15a8 <T2_end+0xb8>
    1338:	fffe7737          	lui	a4,0xfffe7
    133c:	ddf70713          	addi	a4,a4,-545 # fffe6ddf <_sp+0xfffbc3df>
    1340:	00e80733          	add	a4,a6,a4
    1344:	000196b7          	lui	a3,0x19
    1348:	21e68693          	addi	a3,a3,542 # 1921e <heap.cpp.6b15d6f6+0x903e>
    134c:	26e6e663          	bltu	a3,a4,15b8 <T2_end+0xc8>
    1350:	00032737          	lui	a4,0x32
    1354:	43f70713          	addi	a4,a4,1087 # 3243f <_sp+0x7a3f>
    1358:	41070833          	sub	a6,a4,a6
    135c:	00100593          	li	a1,1
    1360:	41f85893          	srai	a7,a6,0x1f
    1364:	03088733          	mul	a4,a7,a6
    1368:	03080333          	mul	t1,a6,a6
    136c:	030836b3          	mulhu	a3,a6,a6
    1370:	20d72733          	sh1add	a4,a4,a3
    1374:	01071713          	slli	a4,a4,0x10
    1378:	01035313          	srli	t1,t1,0x10
    137c:	00670333          	add	t1,a4,t1
    1380:	41f35e13          	srai	t3,t1,0x1f
    1384:	1f300613          	li	a2,499
    1388:	02ce0733          	mul	a4,t3,a2
    138c:	02c306b3          	mul	a3,t1,a2
    1390:	02c33633          	mulhu	a2,t1,a2
    1394:	00c70733          	add	a4,a4,a2
    1398:	01071713          	slli	a4,a4,0x10
    139c:	0106d693          	srli	a3,a3,0x10
    13a0:	00d706b3          	add	a3,a4,a3
    13a4:	ffffd737          	lui	a4,0xffffd
    13a8:	57e70713          	addi	a4,a4,1406 # ffffd57e <_sp+0xfffd2b7e>
    13ac:	00e686b3          	add	a3,a3,a4
    13b0:	41f6d613          	srai	a2,a3,0x1f
    13b4:	02660633          	mul	a2,a2,t1
    13b8:	02de0e33          	mul	t3,t3,a3
    13bc:	01c60633          	add	a2,a2,t3
    13c0:	02668733          	mul	a4,a3,t1
    13c4:	0266b6b3          	mulhu	a3,a3,t1
    13c8:	00d606b3          	add	a3,a2,a3
    13cc:	01069693          	slli	a3,a3,0x10
    13d0:	01075713          	srli	a4,a4,0x10
    13d4:	00e68733          	add	a4,a3,a4
    13d8:	000106b7          	lui	a3,0x10
    13dc:	00d70733          	add	a4,a4,a3
    13e0:	41f75693          	srai	a3,a4,0x1f
    13e4:	030686b3          	mul	a3,a3,a6
    13e8:	02e888b3          	mul	a7,a7,a4
    13ec:	011686b3          	add	a3,a3,a7
    13f0:	03070633          	mul	a2,a4,a6
    13f4:	03073733          	mulhu	a4,a4,a6
    13f8:	00e68733          	add	a4,a3,a4
    13fc:	01071713          	slli	a4,a4,0x10
    1400:	01065613          	srli	a2,a2,0x10
    1404:	00c70633          	add	a2,a4,a2
    1408:	02c58633          	mul	a2,a1,a2
    140c:	0c060863          	beqz	a2,14dc <T2_start+0x244>
    1410:	41f7d893          	srai	a7,a5,0x1f
    1414:	02f88733          	mul	a4,a7,a5
    1418:	02f785b3          	mul	a1,a5,a5
    141c:	02f7b6b3          	mulhu	a3,a5,a5
    1420:	20d72733          	sh1add	a4,a4,a3
    1424:	01071713          	slli	a4,a4,0x10
    1428:	0105d593          	srli	a1,a1,0x10
    142c:	00b705b3          	add	a1,a4,a1
    1430:	41f5d313          	srai	t1,a1,0x1f
    1434:	1f300813          	li	a6,499
    1438:	03030733          	mul	a4,t1,a6
    143c:	030586b3          	mul	a3,a1,a6
    1440:	0305b833          	mulhu	a6,a1,a6
    1444:	01070733          	add	a4,a4,a6
    1448:	01071713          	slli	a4,a4,0x10
    144c:	0106d693          	srli	a3,a3,0x10
    1450:	00d706b3          	add	a3,a4,a3
    1454:	ffffd737          	lui	a4,0xffffd
    1458:	57e70713          	addi	a4,a4,1406 # ffffd57e <_sp+0xfffd2b7e>
    145c:	00e686b3          	add	a3,a3,a4
    1460:	41f6d813          	srai	a6,a3,0x1f
    1464:	02b80833          	mul	a6,a6,a1
    1468:	02d30333          	mul	t1,t1,a3
    146c:	00680833          	add	a6,a6,t1
    1470:	02b68733          	mul	a4,a3,a1
    1474:	02b6b6b3          	mulhu	a3,a3,a1
    1478:	00d806b3          	add	a3,a6,a3
    147c:	01069693          	slli	a3,a3,0x10
    1480:	01075713          	srli	a4,a4,0x10
    1484:	00e68733          	add	a4,a3,a4
    1488:	000106b7          	lui	a3,0x10
    148c:	00d70733          	add	a4,a4,a3
    1490:	41f75693          	srai	a3,a4,0x1f
    1494:	02f686b3          	mul	a3,a3,a5
    1498:	02e888b3          	mul	a7,a7,a4
    149c:	011686b3          	add	a3,a3,a7
    14a0:	02f705b3          	mul	a1,a4,a5
    14a4:	02f73733          	mulhu	a4,a4,a5
    14a8:	00e687b3          	add	a5,a3,a4
    14ac:	01079793          	slli	a5,a5,0x10
    14b0:	0105d713          	srli	a4,a1,0x10
    14b4:	00e78733          	add	a4,a5,a4
    14b8:	02e50533          	mul	a0,a0,a4
    14bc:	41f55793          	srai	a5,a0,0x1f
    14c0:	01055593          	srli	a1,a0,0x10
    14c4:	01079793          	slli	a5,a5,0x10
    14c8:	41f65693          	srai	a3,a2,0x1f
    14cc:	01051513          	slli	a0,a0,0x10
    14d0:	00f585b3          	add	a1,a1,a5
    14d4:	4e0060ef          	jal	79b4 <__divdi3>
    14d8:	00050613          	mv	a2,a0
    14dc:	02c12423          	sw	a2,40(sp)
    14e0:	00492783          	lw	a5,4(s2)
    14e4:	0049a703          	lw	a4,4(s3)
    14e8:	40e787b3          	sub	a5,a5,a4
    14ec:	02f12623          	sw	a5,44(sp)

000014f0 <T2_end>:
    14f0:	b00027f3          	csrr	a5,mcycle
    14f4:	417787b3          	sub	a5,a5,s7
    14f8:	00fa2423          	sw	a5,8(s4)
    14fc:	02412683          	lw	a3,36(sp)
    1500:	02812703          	lw	a4,40(sp)
    1504:	00100793          	li	a5,1
    1508:	00d75663          	bge	a4,a3,1514 <T2_end+0x24>
    150c:	00068713          	mv	a4,a3
    1510:	00000793          	li	a5,0
    1514:	02c12683          	lw	a3,44(sp)
    1518:	00e6c463          	blt	a3,a4,1520 <T2_end+0x30>
    151c:	00200793          	li	a5,2
    1520:	00020737          	lui	a4,0x20
    1524:	000206b7          	lui	a3,0x20
    1528:	14068693          	addi	a3,a3,320 # 20140 <next.16>
    152c:	20d7c7b3          	sh2add	a5,a5,a3
    1530:	0007a783          	lw	a5,0(a5)
    1534:	15870713          	addi	a4,a4,344 # 20158 <jump_table.19>
    1538:	20e7c7b3          	sh2add	a5,a5,a4
    153c:	0007a803          	lw	a6,0(a5)
    1540:	16012b83          	lw	s7,352(sp)
    1544:	e4cff06f          	j	b90 <inferenceTPG+0x40>
    1548:	00065737          	lui	a4,0x65
    154c:	87e70713          	addi	a4,a4,-1922 # 6487e <_sp+0x39e7e>
    1550:	00e787b3          	add	a5,a5,a4
    1554:	d85ff06f          	j	12d8 <T2_start+0x40>
    1558:	fffce737          	lui	a4,0xfffce
    155c:	bc070713          	addi	a4,a4,-1088 # fffcdbc0 <_sp+0xfffa31c0>
    1560:	00e78733          	add	a4,a5,a4
    1564:	00019637          	lui	a2,0x19
    1568:	21f60613          	addi	a2,a2,543 # 1921f <heap.cpp.6b15d6f6+0x903f>
    156c:	00e66c63          	bltu	a2,a4,1584 <T2_end+0x94>
    1570:	fffce737          	lui	a4,0xfffce
    1574:	bc170713          	addi	a4,a4,-1087 # fffcdbc1 <_sp+0xfffa31c1>
    1578:	00e787b3          	add	a5,a5,a4
    157c:	fff00513          	li	a0,-1
    1580:	d81ff06f          	j	1300 <T2_start+0x68>
    1584:	0004b737          	lui	a4,0x4b
    1588:	65f70713          	addi	a4,a4,1631 # 4b65f <_sp+0x20c5f>
    158c:	00100513          	li	a0,1
    1590:	d6f758e3          	bge	a4,a5,1300 <T2_start+0x68>
    1594:	00065737          	lui	a4,0x65
    1598:	87e70713          	addi	a4,a4,-1922 # 6487e <_sp+0x39e7e>
    159c:	40f707b3          	sub	a5,a4,a5
    15a0:	fff00513          	li	a0,-1
    15a4:	d5dff06f          	j	1300 <T2_start+0x68>
    15a8:	00065737          	lui	a4,0x65
    15ac:	87e70713          	addi	a4,a4,-1922 # 6487e <_sp+0x39e7e>
    15b0:	00e80833          	add	a6,a6,a4
    15b4:	d85ff06f          	j	1338 <T2_start+0xa0>
    15b8:	fffce737          	lui	a4,0xfffce
    15bc:	bc070713          	addi	a4,a4,-1088 # fffcdbc0 <_sp+0xfffa31c0>
    15c0:	00e80733          	add	a4,a6,a4
    15c4:	000196b7          	lui	a3,0x19
    15c8:	21f68693          	addi	a3,a3,543 # 1921f <heap.cpp.6b15d6f6+0x903f>
    15cc:	00e6ec63          	bltu	a3,a4,15e4 <T2_end+0xf4>
    15d0:	fffce737          	lui	a4,0xfffce
    15d4:	bc170713          	addi	a4,a4,-1087 # fffcdbc1 <_sp+0xfffa31c1>
    15d8:	00e80833          	add	a6,a6,a4
    15dc:	fff00593          	li	a1,-1
    15e0:	d81ff06f          	j	1360 <T2_start+0xc8>
    15e4:	0004b737          	lui	a4,0x4b
    15e8:	65f70713          	addi	a4,a4,1631 # 4b65f <_sp+0x20c5f>
    15ec:	00100593          	li	a1,1
    15f0:	d70758e3          	bge	a4,a6,1360 <T2_start+0xc8>
    15f4:	00065737          	lui	a4,0x65
    15f8:	87e70713          	addi	a4,a4,-1922 # 6487e <_sp+0x39e7e>
    15fc:	41070833          	sub	a6,a4,a6
    1600:	fff00593          	li	a1,-1
    1604:	d5dff06f          	j	1360 <T2_start+0xc8>

00001608 <T3_start>:
    1608:	b0002673          	csrr	a2,mcycle
    160c:	00492703          	lw	a4,4(s2)
    1610:	0049a783          	lw	a5,4(s3)
    1614:	40f707b3          	sub	a5,a4,a5
    1618:	04f12623          	sw	a5,76(sp)
    161c:	0084a683          	lw	a3,8(s1)
    1620:	0009a783          	lw	a5,0(s3)
    1624:	40f707b3          	sub	a5,a4,a5
    1628:	40d787b3          	sub	a5,a5,a3
    162c:	04f12823          	sw	a5,80(sp)
    1630:	0089a783          	lw	a5,8(s3)
    1634:	0ae7e7b3          	max	a5,a5,a4
    1638:	04f12a23          	sw	a5,84(sp)
    163c:	00092783          	lw	a5,0(s2)
    1640:	00d787b3          	add	a5,a5,a3
    1644:	04f12c23          	sw	a5,88(sp)

00001648 <T3_end>:
    1648:	b00027f3          	csrr	a5,mcycle
    164c:	40c787b3          	sub	a5,a5,a2
    1650:	00fa2623          	sw	a5,12(s4)
    1654:	04c12683          	lw	a3,76(sp)
    1658:	05012703          	lw	a4,80(sp)
    165c:	00100793          	li	a5,1
    1660:	00d75663          	bge	a4,a3,166c <T3_end+0x24>
    1664:	00068713          	mv	a4,a3
    1668:	00000793          	li	a5,0
    166c:	05412683          	lw	a3,84(sp)
    1670:	02e6dc63          	bge	a3,a4,16a8 <T3_end+0x60>
    1674:	00070693          	mv	a3,a4
    1678:	05812703          	lw	a4,88(sp)
    167c:	00d74463          	blt	a4,a3,1684 <T3_end+0x3c>
    1680:	00300793          	li	a5,3
    1684:	00020737          	lui	a4,0x20
    1688:	000206b7          	lui	a3,0x20
    168c:	13068693          	addi	a3,a3,304 # 20130 <next.15>
    1690:	20d7c7b3          	sh2add	a5,a5,a3
    1694:	0007a783          	lw	a5,0(a5)
    1698:	15870713          	addi	a4,a4,344 # 20158 <jump_table.19>
    169c:	20e7c7b3          	sh2add	a5,a5,a4
    16a0:	0007a803          	lw	a6,0(a5)
    16a4:	cecff06f          	j	b90 <inferenceTPG+0x40>
    16a8:	00200793          	li	a5,2
    16ac:	fcdff06f          	j	1678 <T3_end+0x30>

000016b0 <T4_start>:
    16b0:	b0002773          	csrr	a4,mcycle
    16b4:	00492783          	lw	a5,4(s2)
    16b8:	0009a683          	lw	a3,0(s3)
    16bc:	40d787b3          	sub	a5,a5,a3
    16c0:	0084a683          	lw	a3,8(s1)
    16c4:	40d787b3          	sub	a5,a5,a3
    16c8:	00f12023          	sw	a5,0(sp)
    16cc:	010aa783          	lw	a5,16(s5)
    16d0:	0049a683          	lw	a3,4(s3)
    16d4:	40d787b3          	sub	a5,a5,a3
    16d8:	00f12223          	sw	a5,4(sp)

000016dc <T4_end>:
    16dc:	b00027f3          	csrr	a5,mcycle
    16e0:	40e787b3          	sub	a5,a5,a4
    16e4:	00fa2823          	sw	a5,16(s4)
    16e8:	00020737          	lui	a4,0x20
    16ec:	00012783          	lw	a5,0(sp)
    16f0:	00412603          	lw	a2,4(sp)
    16f4:	00f627b3          	slt	a5,a2,a5
    16f8:	0017b793          	seqz	a5,a5
    16fc:	94018693          	addi	a3,gp,-1728 # 22788 <next.14>
    1700:	20d7c7b3          	sh2add	a5,a5,a3
    1704:	0007a783          	lw	a5,0(a5)
    1708:	15870713          	addi	a4,a4,344 # 20158 <jump_table.19>
    170c:	20e7c7b3          	sh2add	a5,a5,a4
    1710:	0007a803          	lw	a6,0(a5)
    1714:	c7cff06f          	j	b90 <inferenceTPG+0x40>
    1718:	17712023          	sw	s7,352(sp)

0000171c <T5_start>:
    171c:	b00027f3          	csrr	a5,mcycle
    1720:	00078b93          	mv	s7,a5
    1724:	00892683          	lw	a3,8(s2)
    1728:	517cd7b7          	lui	a5,0x517cd
    172c:	c8378793          	addi	a5,a5,-893 # 517ccc83 <_sp+0x517a2283>
    1730:	02f697b3          	mulh	a5,a3,a5
    1734:	4117d793          	srai	a5,a5,0x11
    1738:	41f6d713          	srai	a4,a3,0x1f
    173c:	40e787b3          	sub	a5,a5,a4
    1740:	00065737          	lui	a4,0x65
    1744:	87e70713          	addi	a4,a4,-1922 # 6487e <_sp+0x39e7e>
    1748:	02e787b3          	mul	a5,a5,a4
    174c:	40f687b3          	sub	a5,a3,a5
    1750:	4807cc63          	bltz	a5,1be8 <T5_end+0x24>
    1754:	fffe7737          	lui	a4,0xfffe7
    1758:	ddf70713          	addi	a4,a4,-545 # fffe6ddf <_sp+0xfffbc3df>
    175c:	00e78733          	add	a4,a5,a4
    1760:	00019637          	lui	a2,0x19
    1764:	21e60613          	addi	a2,a2,542 # 1921e <heap.cpp.6b15d6f6+0x903e>
    1768:	48e66863          	bltu	a2,a4,1bf8 <T5_end+0x34>
    176c:	00032737          	lui	a4,0x32
    1770:	43f70713          	addi	a4,a4,1087 # 3243f <_sp+0x7a3f>
    1774:	40f707b3          	sub	a5,a4,a5
    1778:	00100513          	li	a0,1
    177c:	00019737          	lui	a4,0x19
    1780:	22070713          	addi	a4,a4,544 # 19220 <heap.cpp.6b15d6f6+0x9040>
    1784:	40d70733          	sub	a4,a4,a3
    1788:	517cd837          	lui	a6,0x517cd
    178c:	c8380813          	addi	a6,a6,-893 # 517ccc83 <_sp+0x517a2283>
    1790:	03071833          	mulh	a6,a4,a6
    1794:	41185813          	srai	a6,a6,0x11
    1798:	41f75693          	srai	a3,a4,0x1f
    179c:	40d80833          	sub	a6,a6,a3
    17a0:	000656b7          	lui	a3,0x65
    17a4:	87e68693          	addi	a3,a3,-1922 # 6487e <_sp+0x39e7e>
    17a8:	02d806b3          	mul	a3,a6,a3
    17ac:	40d70833          	sub	a6,a4,a3
    17b0:	48084c63          	bltz	a6,1c48 <T5_end+0x84>
    17b4:	fffe7737          	lui	a4,0xfffe7
    17b8:	ddf70713          	addi	a4,a4,-545 # fffe6ddf <_sp+0xfffbc3df>
    17bc:	00e80733          	add	a4,a6,a4
    17c0:	000196b7          	lui	a3,0x19
    17c4:	21e68693          	addi	a3,a3,542 # 1921e <heap.cpp.6b15d6f6+0x903e>
    17c8:	48e6e863          	bltu	a3,a4,1c58 <T5_end+0x94>
    17cc:	00032737          	lui	a4,0x32
    17d0:	43f70713          	addi	a4,a4,1087 # 3243f <_sp+0x7a3f>
    17d4:	41070833          	sub	a6,a4,a6
    17d8:	00100593          	li	a1,1
    17dc:	41f85893          	srai	a7,a6,0x1f
    17e0:	03088733          	mul	a4,a7,a6
    17e4:	03080333          	mul	t1,a6,a6
    17e8:	030836b3          	mulhu	a3,a6,a6
    17ec:	20d72733          	sh1add	a4,a4,a3
    17f0:	01071713          	slli	a4,a4,0x10
    17f4:	01035313          	srli	t1,t1,0x10
    17f8:	00670333          	add	t1,a4,t1
    17fc:	41f35e13          	srai	t3,t1,0x1f
    1800:	1f300613          	li	a2,499
    1804:	02ce0733          	mul	a4,t3,a2
    1808:	02c306b3          	mul	a3,t1,a2
    180c:	02c33633          	mulhu	a2,t1,a2
    1810:	00c70733          	add	a4,a4,a2
    1814:	01071713          	slli	a4,a4,0x10
    1818:	0106d693          	srli	a3,a3,0x10
    181c:	00d706b3          	add	a3,a4,a3
    1820:	ffffd737          	lui	a4,0xffffd
    1824:	57e70713          	addi	a4,a4,1406 # ffffd57e <_sp+0xfffd2b7e>
    1828:	00e686b3          	add	a3,a3,a4
    182c:	41f6d613          	srai	a2,a3,0x1f
    1830:	02660633          	mul	a2,a2,t1
    1834:	02de0e33          	mul	t3,t3,a3
    1838:	01c60633          	add	a2,a2,t3
    183c:	02668733          	mul	a4,a3,t1
    1840:	0266b6b3          	mulhu	a3,a3,t1
    1844:	00d606b3          	add	a3,a2,a3
    1848:	01069693          	slli	a3,a3,0x10
    184c:	01075713          	srli	a4,a4,0x10
    1850:	00e68733          	add	a4,a3,a4
    1854:	000106b7          	lui	a3,0x10
    1858:	00d70733          	add	a4,a4,a3
    185c:	41f75693          	srai	a3,a4,0x1f
    1860:	030686b3          	mul	a3,a3,a6
    1864:	02e888b3          	mul	a7,a7,a4
    1868:	011686b3          	add	a3,a3,a7
    186c:	03070633          	mul	a2,a4,a6
    1870:	03073733          	mulhu	a4,a4,a6
    1874:	00e68733          	add	a4,a3,a4
    1878:	01071713          	slli	a4,a4,0x10
    187c:	01065613          	srli	a2,a2,0x10
    1880:	00c70633          	add	a2,a4,a2
    1884:	02c58633          	mul	a2,a1,a2
    1888:	0c060863          	beqz	a2,1958 <T5_start+0x23c>
    188c:	41f7d893          	srai	a7,a5,0x1f
    1890:	02f88733          	mul	a4,a7,a5
    1894:	02f785b3          	mul	a1,a5,a5
    1898:	02f7b6b3          	mulhu	a3,a5,a5
    189c:	20d72733          	sh1add	a4,a4,a3
    18a0:	01071713          	slli	a4,a4,0x10
    18a4:	0105d593          	srli	a1,a1,0x10
    18a8:	00b705b3          	add	a1,a4,a1
    18ac:	41f5d313          	srai	t1,a1,0x1f
    18b0:	1f300813          	li	a6,499
    18b4:	03030733          	mul	a4,t1,a6
    18b8:	030586b3          	mul	a3,a1,a6
    18bc:	0305b833          	mulhu	a6,a1,a6
    18c0:	01070733          	add	a4,a4,a6
    18c4:	01071713          	slli	a4,a4,0x10
    18c8:	0106d693          	srli	a3,a3,0x10
    18cc:	00d706b3          	add	a3,a4,a3
    18d0:	ffffd737          	lui	a4,0xffffd
    18d4:	57e70713          	addi	a4,a4,1406 # ffffd57e <_sp+0xfffd2b7e>
    18d8:	00e686b3          	add	a3,a3,a4
    18dc:	41f6d813          	srai	a6,a3,0x1f
    18e0:	02b80833          	mul	a6,a6,a1
    18e4:	02d30333          	mul	t1,t1,a3
    18e8:	00680833          	add	a6,a6,t1
    18ec:	02b68733          	mul	a4,a3,a1
    18f0:	02b6b6b3          	mulhu	a3,a3,a1
    18f4:	00d806b3          	add	a3,a6,a3
    18f8:	01069693          	slli	a3,a3,0x10
    18fc:	01075713          	srli	a4,a4,0x10
    1900:	00e68733          	add	a4,a3,a4
    1904:	000106b7          	lui	a3,0x10
    1908:	00d70733          	add	a4,a4,a3
    190c:	41f75693          	srai	a3,a4,0x1f
    1910:	02f686b3          	mul	a3,a3,a5
    1914:	02e888b3          	mul	a7,a7,a4
    1918:	011686b3          	add	a3,a3,a7
    191c:	02f705b3          	mul	a1,a4,a5
    1920:	02f73733          	mulhu	a4,a4,a5
    1924:	00e687b3          	add	a5,a3,a4
    1928:	01079793          	slli	a5,a5,0x10
    192c:	0105d713          	srli	a4,a1,0x10
    1930:	00e78733          	add	a4,a5,a4
    1934:	02e50533          	mul	a0,a0,a4
    1938:	41f55793          	srai	a5,a0,0x1f
    193c:	01055593          	srli	a1,a0,0x10
    1940:	01079793          	slli	a5,a5,0x10
    1944:	41f65693          	srai	a3,a2,0x1f
    1948:	01051513          	slli	a0,a0,0x10
    194c:	00f585b3          	add	a1,a1,a5
    1950:	064060ef          	jal	79b4 <__divdi3>
    1954:	00050613          	mv	a2,a0
    1958:	0ac12423          	sw	a2,168(sp)
    195c:	00092683          	lw	a3,0(s2)
    1960:	517cd7b7          	lui	a5,0x517cd
    1964:	c8378793          	addi	a5,a5,-893 # 517ccc83 <_sp+0x517a2283>
    1968:	02f697b3          	mulh	a5,a3,a5
    196c:	4117d793          	srai	a5,a5,0x11
    1970:	41f6d713          	srai	a4,a3,0x1f
    1974:	40e787b3          	sub	a5,a5,a4
    1978:	00065737          	lui	a4,0x65
    197c:	87e70713          	addi	a4,a4,-1922 # 6487e <_sp+0x39e7e>
    1980:	02e787b3          	mul	a5,a5,a4
    1984:	40f687b3          	sub	a5,a3,a5
    1988:	3207c063          	bltz	a5,1ca8 <T5_end+0xe4>
    198c:	fffe7737          	lui	a4,0xfffe7
    1990:	ddf70713          	addi	a4,a4,-545 # fffe6ddf <_sp+0xfffbc3df>
    1994:	00e78733          	add	a4,a5,a4
    1998:	00019637          	lui	a2,0x19
    199c:	21e60613          	addi	a2,a2,542 # 1921e <heap.cpp.6b15d6f6+0x903e>
    19a0:	30e66c63          	bltu	a2,a4,1cb8 <T5_end+0xf4>
    19a4:	00032737          	lui	a4,0x32
    19a8:	43f70713          	addi	a4,a4,1087 # 3243f <_sp+0x7a3f>
    19ac:	40f707b3          	sub	a5,a4,a5
    19b0:	00100513          	li	a0,1
    19b4:	00019737          	lui	a4,0x19
    19b8:	22070713          	addi	a4,a4,544 # 19220 <heap.cpp.6b15d6f6+0x9040>
    19bc:	40d70733          	sub	a4,a4,a3
    19c0:	517cd837          	lui	a6,0x517cd
    19c4:	c8380813          	addi	a6,a6,-893 # 517ccc83 <_sp+0x517a2283>
    19c8:	03071833          	mulh	a6,a4,a6
    19cc:	41185813          	srai	a6,a6,0x11
    19d0:	41f75693          	srai	a3,a4,0x1f
    19d4:	40d80833          	sub	a6,a6,a3
    19d8:	000656b7          	lui	a3,0x65
    19dc:	87e68693          	addi	a3,a3,-1922 # 6487e <_sp+0x39e7e>
    19e0:	02d806b3          	mul	a3,a6,a3
    19e4:	40d70833          	sub	a6,a4,a3
    19e8:	32084063          	bltz	a6,1d08 <T5_end+0x144>
    19ec:	fffe7737          	lui	a4,0xfffe7
    19f0:	ddf70713          	addi	a4,a4,-545 # fffe6ddf <_sp+0xfffbc3df>
    19f4:	00e80733          	add	a4,a6,a4
    19f8:	000196b7          	lui	a3,0x19
    19fc:	21e68693          	addi	a3,a3,542 # 1921e <heap.cpp.6b15d6f6+0x903e>
    1a00:	30e6ec63          	bltu	a3,a4,1d18 <T5_end+0x154>
    1a04:	00032737          	lui	a4,0x32
    1a08:	43f70713          	addi	a4,a4,1087 # 3243f <_sp+0x7a3f>
    1a0c:	41070833          	sub	a6,a4,a6
    1a10:	00100593          	li	a1,1
    1a14:	41f85893          	srai	a7,a6,0x1f
    1a18:	03088733          	mul	a4,a7,a6
    1a1c:	03080333          	mul	t1,a6,a6
    1a20:	030836b3          	mulhu	a3,a6,a6
    1a24:	20d72733          	sh1add	a4,a4,a3
    1a28:	01071713          	slli	a4,a4,0x10
    1a2c:	01035313          	srli	t1,t1,0x10
    1a30:	00670333          	add	t1,a4,t1
    1a34:	41f35e13          	srai	t3,t1,0x1f
    1a38:	1f300613          	li	a2,499
    1a3c:	02ce0733          	mul	a4,t3,a2
    1a40:	02c306b3          	mul	a3,t1,a2
    1a44:	02c33633          	mulhu	a2,t1,a2
    1a48:	00c70733          	add	a4,a4,a2
    1a4c:	01071713          	slli	a4,a4,0x10
    1a50:	0106d693          	srli	a3,a3,0x10
    1a54:	00d706b3          	add	a3,a4,a3
    1a58:	ffffd737          	lui	a4,0xffffd
    1a5c:	57e70713          	addi	a4,a4,1406 # ffffd57e <_sp+0xfffd2b7e>
    1a60:	00e686b3          	add	a3,a3,a4
    1a64:	41f6d613          	srai	a2,a3,0x1f
    1a68:	02660633          	mul	a2,a2,t1
    1a6c:	02de0e33          	mul	t3,t3,a3
    1a70:	01c60633          	add	a2,a2,t3
    1a74:	02668733          	mul	a4,a3,t1
    1a78:	0266b6b3          	mulhu	a3,a3,t1
    1a7c:	00d606b3          	add	a3,a2,a3
    1a80:	01069693          	slli	a3,a3,0x10
    1a84:	01075713          	srli	a4,a4,0x10
    1a88:	00e68733          	add	a4,a3,a4
    1a8c:	000106b7          	lui	a3,0x10
    1a90:	00d70733          	add	a4,a4,a3
    1a94:	41f75693          	srai	a3,a4,0x1f
    1a98:	030686b3          	mul	a3,a3,a6
    1a9c:	02e888b3          	mul	a7,a7,a4
    1aa0:	011686b3          	add	a3,a3,a7
    1aa4:	03070633          	mul	a2,a4,a6
    1aa8:	03073733          	mulhu	a4,a4,a6
    1aac:	00e68733          	add	a4,a3,a4
    1ab0:	01071713          	slli	a4,a4,0x10
    1ab4:	01065613          	srli	a2,a2,0x10
    1ab8:	00c70633          	add	a2,a4,a2
    1abc:	02c58633          	mul	a2,a1,a2
    1ac0:	0c060863          	beqz	a2,1b90 <T5_start+0x474>
    1ac4:	41f7d893          	srai	a7,a5,0x1f
    1ac8:	02f88733          	mul	a4,a7,a5
    1acc:	02f785b3          	mul	a1,a5,a5
    1ad0:	02f7b6b3          	mulhu	a3,a5,a5
    1ad4:	20d72733          	sh1add	a4,a4,a3
    1ad8:	01071713          	slli	a4,a4,0x10
    1adc:	0105d593          	srli	a1,a1,0x10
    1ae0:	00b705b3          	add	a1,a4,a1
    1ae4:	41f5d313          	srai	t1,a1,0x1f
    1ae8:	1f300813          	li	a6,499
    1aec:	03030733          	mul	a4,t1,a6
    1af0:	030586b3          	mul	a3,a1,a6
    1af4:	0305b833          	mulhu	a6,a1,a6
    1af8:	01070733          	add	a4,a4,a6
    1afc:	01071713          	slli	a4,a4,0x10
    1b00:	0106d693          	srli	a3,a3,0x10
    1b04:	00d706b3          	add	a3,a4,a3
    1b08:	ffffd737          	lui	a4,0xffffd
    1b0c:	57e70713          	addi	a4,a4,1406 # ffffd57e <_sp+0xfffd2b7e>
    1b10:	00e686b3          	add	a3,a3,a4
    1b14:	41f6d813          	srai	a6,a3,0x1f
    1b18:	02b80833          	mul	a6,a6,a1
    1b1c:	02d30333          	mul	t1,t1,a3
    1b20:	00680833          	add	a6,a6,t1
    1b24:	02b68733          	mul	a4,a3,a1
    1b28:	02b6b6b3          	mulhu	a3,a3,a1
    1b2c:	00d806b3          	add	a3,a6,a3
    1b30:	01069693          	slli	a3,a3,0x10
    1b34:	01075713          	srli	a4,a4,0x10
    1b38:	00e68733          	add	a4,a3,a4
    1b3c:	000106b7          	lui	a3,0x10
    1b40:	00d70733          	add	a4,a4,a3
    1b44:	41f75693          	srai	a3,a4,0x1f
    1b48:	02f686b3          	mul	a3,a3,a5
    1b4c:	02e888b3          	mul	a7,a7,a4
    1b50:	011686b3          	add	a3,a3,a7
    1b54:	02f705b3          	mul	a1,a4,a5
    1b58:	02f73733          	mulhu	a4,a4,a5
    1b5c:	00e687b3          	add	a5,a3,a4
    1b60:	01079793          	slli	a5,a5,0x10
    1b64:	0105d713          	srli	a4,a1,0x10
    1b68:	00e78733          	add	a4,a5,a4
    1b6c:	02e50533          	mul	a0,a0,a4
    1b70:	41f55793          	srai	a5,a0,0x1f
    1b74:	01055593          	srli	a1,a0,0x10
    1b78:	01079793          	slli	a5,a5,0x10
    1b7c:	41f65693          	srai	a3,a2,0x1f
    1b80:	01051513          	slli	a0,a0,0x10
    1b84:	00f585b3          	add	a1,a1,a5
    1b88:	62d050ef          	jal	79b4 <__divdi3>
    1b8c:	00050613          	mv	a2,a0
    1b90:	0ac12623          	sw	a2,172(sp)
    1b94:	00492783          	lw	a5,4(s2)
    1b98:	0049a703          	lw	a4,4(s3)
    1b9c:	40e787b3          	sub	a5,a5,a4
    1ba0:	0af12823          	sw	a5,176(sp)
    1ba4:	0004a783          	lw	a5,0(s1)
    1ba8:	0044a703          	lw	a4,4(s1)
    1bac:	00e787b3          	add	a5,a5,a4
    1bb0:	0af12a23          	sw	a5,180(sp)
    1bb4:	0084a783          	lw	a5,8(s1)
    1bb8:	40f00733          	neg	a4,a5
    1bbc:	0ae12c23          	sw	a4,184(sp)
    1bc0:	0af12e23          	sw	a5,188(sp)

00001bc4 <T5_end>:
    1bc4:	b00027f3          	csrr	a5,mcycle
    1bc8:	417787b3          	sub	a5,a5,s7
    1bcc:	00fa2a23          	sw	a5,20(s4)
    1bd0:	0a812603          	lw	a2,168(sp)
    1bd4:	0ac10713          	addi	a4,sp,172
    1bd8:	00000513          	li	a0,0
    1bdc:	00100793          	li	a5,1
    1be0:	00600593          	li	a1,6
    1be4:	1900006f          	j	1d74 <T5_end+0x1b0>
    1be8:	00065737          	lui	a4,0x65
    1bec:	87e70713          	addi	a4,a4,-1922 # 6487e <_sp+0x39e7e>
    1bf0:	00e787b3          	add	a5,a5,a4
    1bf4:	b61ff06f          	j	1754 <T5_start+0x38>
    1bf8:	fffce737          	lui	a4,0xfffce
    1bfc:	bc070713          	addi	a4,a4,-1088 # fffcdbc0 <_sp+0xfffa31c0>
    1c00:	00e78733          	add	a4,a5,a4
    1c04:	00019637          	lui	a2,0x19
    1c08:	21f60613          	addi	a2,a2,543 # 1921f <heap.cpp.6b15d6f6+0x903f>
    1c0c:	00e66c63          	bltu	a2,a4,1c24 <T5_end+0x60>
    1c10:	fffce737          	lui	a4,0xfffce
    1c14:	bc170713          	addi	a4,a4,-1087 # fffcdbc1 <_sp+0xfffa31c1>
    1c18:	00e787b3          	add	a5,a5,a4
    1c1c:	fff00513          	li	a0,-1
    1c20:	b5dff06f          	j	177c <T5_start+0x60>
    1c24:	0004b737          	lui	a4,0x4b
    1c28:	65f70713          	addi	a4,a4,1631 # 4b65f <_sp+0x20c5f>
    1c2c:	00100513          	li	a0,1
    1c30:	b4f756e3          	bge	a4,a5,177c <T5_start+0x60>
    1c34:	00065737          	lui	a4,0x65
    1c38:	87e70713          	addi	a4,a4,-1922 # 6487e <_sp+0x39e7e>
    1c3c:	40f707b3          	sub	a5,a4,a5
    1c40:	fff00513          	li	a0,-1
    1c44:	b39ff06f          	j	177c <T5_start+0x60>
    1c48:	00065737          	lui	a4,0x65
    1c4c:	87e70713          	addi	a4,a4,-1922 # 6487e <_sp+0x39e7e>
    1c50:	00e80833          	add	a6,a6,a4
    1c54:	b61ff06f          	j	17b4 <T5_start+0x98>
    1c58:	fffce737          	lui	a4,0xfffce
    1c5c:	bc070713          	addi	a4,a4,-1088 # fffcdbc0 <_sp+0xfffa31c0>
    1c60:	00e80733          	add	a4,a6,a4
    1c64:	000196b7          	lui	a3,0x19
    1c68:	21f68693          	addi	a3,a3,543 # 1921f <heap.cpp.6b15d6f6+0x903f>
    1c6c:	00e6ec63          	bltu	a3,a4,1c84 <T5_end+0xc0>
    1c70:	fffce737          	lui	a4,0xfffce
    1c74:	bc170713          	addi	a4,a4,-1087 # fffcdbc1 <_sp+0xfffa31c1>
    1c78:	00e80833          	add	a6,a6,a4
    1c7c:	fff00593          	li	a1,-1
    1c80:	b5dff06f          	j	17dc <T5_start+0xc0>
    1c84:	0004b737          	lui	a4,0x4b
    1c88:	65f70713          	addi	a4,a4,1631 # 4b65f <_sp+0x20c5f>
    1c8c:	00100593          	li	a1,1
    1c90:	b50756e3          	bge	a4,a6,17dc <T5_start+0xc0>
    1c94:	00065737          	lui	a4,0x65
    1c98:	87e70713          	addi	a4,a4,-1922 # 6487e <_sp+0x39e7e>
    1c9c:	41070833          	sub	a6,a4,a6
    1ca0:	fff00593          	li	a1,-1
    1ca4:	b39ff06f          	j	17dc <T5_start+0xc0>
    1ca8:	00065737          	lui	a4,0x65
    1cac:	87e70713          	addi	a4,a4,-1922 # 6487e <_sp+0x39e7e>
    1cb0:	00e787b3          	add	a5,a5,a4
    1cb4:	cd9ff06f          	j	198c <T5_start+0x270>
    1cb8:	fffce737          	lui	a4,0xfffce
    1cbc:	bc070713          	addi	a4,a4,-1088 # fffcdbc0 <_sp+0xfffa31c0>
    1cc0:	00e78733          	add	a4,a5,a4
    1cc4:	00019637          	lui	a2,0x19
    1cc8:	21f60613          	addi	a2,a2,543 # 1921f <heap.cpp.6b15d6f6+0x903f>
    1ccc:	00e66c63          	bltu	a2,a4,1ce4 <T5_end+0x120>
    1cd0:	fffce737          	lui	a4,0xfffce
    1cd4:	bc170713          	addi	a4,a4,-1087 # fffcdbc1 <_sp+0xfffa31c1>
    1cd8:	00e787b3          	add	a5,a5,a4
    1cdc:	fff00513          	li	a0,-1
    1ce0:	cd5ff06f          	j	19b4 <T5_start+0x298>
    1ce4:	0004b737          	lui	a4,0x4b
    1ce8:	65f70713          	addi	a4,a4,1631 # 4b65f <_sp+0x20c5f>
    1cec:	00100513          	li	a0,1
    1cf0:	ccf752e3          	bge	a4,a5,19b4 <T5_start+0x298>
    1cf4:	00065737          	lui	a4,0x65
    1cf8:	87e70713          	addi	a4,a4,-1922 # 6487e <_sp+0x39e7e>
    1cfc:	40f707b3          	sub	a5,a4,a5
    1d00:	fff00513          	li	a0,-1
    1d04:	cb1ff06f          	j	19b4 <T5_start+0x298>
    1d08:	00065737          	lui	a4,0x65
    1d0c:	87e70713          	addi	a4,a4,-1922 # 6487e <_sp+0x39e7e>
    1d10:	00e80833          	add	a6,a6,a4
    1d14:	cd9ff06f          	j	19ec <T5_start+0x2d0>
    1d18:	fffce737          	lui	a4,0xfffce
    1d1c:	bc070713          	addi	a4,a4,-1088 # fffcdbc0 <_sp+0xfffa31c0>
    1d20:	00e80733          	add	a4,a6,a4
    1d24:	000196b7          	lui	a3,0x19
    1d28:	21f68693          	addi	a3,a3,543 # 1921f <heap.cpp.6b15d6f6+0x903f>
    1d2c:	00e6ec63          	bltu	a3,a4,1d44 <T5_end+0x180>
    1d30:	fffce737          	lui	a4,0xfffce
    1d34:	bc170713          	addi	a4,a4,-1087 # fffcdbc1 <_sp+0xfffa31c1>
    1d38:	00e80833          	add	a6,a6,a4
    1d3c:	fff00593          	li	a1,-1
    1d40:	cd5ff06f          	j	1a14 <T5_start+0x2f8>
    1d44:	0004b737          	lui	a4,0x4b
    1d48:	65f70713          	addi	a4,a4,1631 # 4b65f <_sp+0x20c5f>
    1d4c:	00100593          	li	a1,1
    1d50:	cd0752e3          	bge	a4,a6,1a14 <T5_start+0x2f8>
    1d54:	00065737          	lui	a4,0x65
    1d58:	87e70713          	addi	a4,a4,-1922 # 6487e <_sp+0x39e7e>
    1d5c:	41070833          	sub	a6,a4,a6
    1d60:	fff00593          	li	a1,-1
    1d64:	cb1ff06f          	j	1a14 <T5_start+0x2f8>
    1d68:	00178793          	addi	a5,a5,1
    1d6c:	00470713          	addi	a4,a4,4
    1d70:	00b78c63          	beq	a5,a1,1d88 <T5_end+0x1c4>
    1d74:	00072683          	lw	a3,0(a4)
    1d78:	fec6c8e3          	blt	a3,a2,1d68 <T5_end+0x1a4>
    1d7c:	00068613          	mv	a2,a3
    1d80:	00078513          	mv	a0,a5
    1d84:	fe5ff06f          	j	1d68 <T5_end+0x1a4>
    1d88:	00020737          	lui	a4,0x20
    1d8c:	000207b7          	lui	a5,0x20
    1d90:	11878793          	addi	a5,a5,280 # 20118 <next.13>
    1d94:	20f54533          	sh2add	a0,a0,a5
    1d98:	00052783          	lw	a5,0(a0)
    1d9c:	15870713          	addi	a4,a4,344 # 20158 <jump_table.19>
    1da0:	20e7c7b3          	sh2add	a5,a5,a4
    1da4:	0007a803          	lw	a6,0(a5)
    1da8:	16012b83          	lw	s7,352(sp)
    1dac:	de5fe06f          	j	b90 <inferenceTPG+0x40>

00001db0 <T6_start>:
    1db0:	b00025f3          	csrr	a1,mcycle
    1db4:	0084a783          	lw	a5,8(s1)
    1db8:	06f12623          	sw	a5,108(sp)
    1dbc:	0004a603          	lw	a2,0(s1)
    1dc0:	0044a703          	lw	a4,4(s1)
    1dc4:	00c70733          	add	a4,a4,a2
    1dc8:	06e12823          	sw	a4,112(sp)
    1dcc:	00492683          	lw	a3,4(s2)
    1dd0:	0009a703          	lw	a4,0(s3)
    1dd4:	40e68733          	sub	a4,a3,a4
    1dd8:	40f70733          	sub	a4,a4,a5
    1ddc:	06e12a23          	sw	a4,116(sp)
    1de0:	40c787b3          	sub	a5,a5,a2
    1de4:	06f12c23          	sw	a5,120(sp)
    1de8:	0049a783          	lw	a5,4(s3)
    1dec:	40f686b3          	sub	a3,a3,a5
    1df0:	06d12e23          	sw	a3,124(sp)

00001df4 <T6_end>:
    1df4:	b00027f3          	csrr	a5,mcycle
    1df8:	40b787b3          	sub	a5,a5,a1
    1dfc:	00fa2c23          	sw	a5,24(s4)
    1e00:	06c12603          	lw	a2,108(sp)
    1e04:	06c10713          	addi	a4,sp,108
    1e08:	00000513          	li	a0,0
    1e0c:	00100793          	li	a5,1
    1e10:	00500593          	li	a1,5
    1e14:	0100006f          	j	1e24 <T6_end+0x30>
    1e18:	00178793          	addi	a5,a5,1
    1e1c:	00470713          	addi	a4,a4,4
    1e20:	00b78c63          	beq	a5,a1,1e38 <T6_end+0x44>
    1e24:	00472683          	lw	a3,4(a4)
    1e28:	fec6c8e3          	blt	a3,a2,1e18 <T6_end+0x24>
    1e2c:	00068613          	mv	a2,a3
    1e30:	00078513          	mv	a0,a5
    1e34:	fe5ff06f          	j	1e18 <T6_end+0x24>
    1e38:	00020737          	lui	a4,0x20
    1e3c:	000207b7          	lui	a5,0x20
    1e40:	10478793          	addi	a5,a5,260 # 20104 <next.12>
    1e44:	20f54533          	sh2add	a0,a0,a5
    1e48:	00052783          	lw	a5,0(a0)
    1e4c:	15870713          	addi	a4,a4,344 # 20158 <jump_table.19>
    1e50:	20e7c7b3          	sh2add	a5,a5,a4
    1e54:	0007a803          	lw	a6,0(a5)
    1e58:	d39fe06f          	j	b90 <inferenceTPG+0x40>

00001e5c <T7_start>:
    1e5c:	b0002773          	csrr	a4,mcycle
    1e60:	00492783          	lw	a5,4(s2)
    1e64:	0044a683          	lw	a3,4(s1)
    1e68:	40d787b3          	sub	a5,a5,a3
    1e6c:	00f12423          	sw	a5,8(sp)
    1e70:	014aa783          	lw	a5,20(s5)
    1e74:	0084a683          	lw	a3,8(s1)
    1e78:	0ad7e7b3          	max	a5,a5,a3
    1e7c:	00f12623          	sw	a5,12(sp)

00001e80 <T7_end>:
    1e80:	b00027f3          	csrr	a5,mcycle
    1e84:	40e787b3          	sub	a5,a5,a4
    1e88:	00fa2e23          	sw	a5,28(s4)
    1e8c:	00020737          	lui	a4,0x20
    1e90:	00812783          	lw	a5,8(sp)
    1e94:	00c12603          	lw	a2,12(sp)
    1e98:	00f627b3          	slt	a5,a2,a5
    1e9c:	0017b793          	seqz	a5,a5
    1ea0:	93818693          	addi	a3,gp,-1736 # 22780 <next.11>
    1ea4:	20d7c7b3          	sh2add	a5,a5,a3
    1ea8:	0007a783          	lw	a5,0(a5)
    1eac:	15870713          	addi	a4,a4,344 # 20158 <jump_table.19>
    1eb0:	20e7c7b3          	sh2add	a5,a5,a4
    1eb4:	0007a803          	lw	a6,0(a5)
    1eb8:	cd9fe06f          	j	b90 <inferenceTPG+0x40>

00001ebc <T8_start>:
    1ebc:	b0002673          	csrr	a2,mcycle
    1ec0:	0049a703          	lw	a4,4(s3)
    1ec4:	0a0767b3          	max	a5,a4,zero
    1ec8:	0cf12023          	sw	a5,192(sp)
    1ecc:	00092783          	lw	a5,0(s2)
    1ed0:	0089a683          	lw	a3,8(s3)
    1ed4:	00f686b3          	add	a3,a3,a5
    1ed8:	0cd12223          	sw	a3,196(sp)
    1edc:	0084a683          	lw	a3,8(s1)
    1ee0:	40d70733          	sub	a4,a4,a3
    1ee4:	0ce12423          	sw	a4,200(sp)
    1ee8:	00492683          	lw	a3,4(s2)
    1eec:	0cd12623          	sw	a3,204(sp)
    1ef0:	0004a703          	lw	a4,0(s1)
    1ef4:	00d70733          	add	a4,a4,a3
    1ef8:	0ce12823          	sw	a4,208(sp)
    1efc:	0044a703          	lw	a4,4(s1)
    1f00:	40e787b3          	sub	a5,a5,a4
    1f04:	0cf12a23          	sw	a5,212(sp)

00001f08 <T8_end>:
    1f08:	b00027f3          	csrr	a5,mcycle
    1f0c:	40c787b3          	sub	a5,a5,a2
    1f10:	02fa2023          	sw	a5,32(s4)
    1f14:	0c012603          	lw	a2,192(sp)
    1f18:	0c410713          	addi	a4,sp,196
    1f1c:	00000513          	li	a0,0
    1f20:	00100793          	li	a5,1
    1f24:	00600593          	li	a1,6
    1f28:	0100006f          	j	1f38 <T8_end+0x30>
    1f2c:	00178793          	addi	a5,a5,1
    1f30:	00470713          	addi	a4,a4,4
    1f34:	00b78c63          	beq	a5,a1,1f4c <T8_end+0x44>
    1f38:	00072683          	lw	a3,0(a4)
    1f3c:	fec6c8e3          	blt	a3,a2,1f2c <T8_end+0x24>
    1f40:	00068613          	mv	a2,a3
    1f44:	00078513          	mv	a0,a5
    1f48:	fe5ff06f          	j	1f2c <T8_end+0x24>
    1f4c:	00020737          	lui	a4,0x20
    1f50:	000207b7          	lui	a5,0x20
    1f54:	0ec78793          	addi	a5,a5,236 # 200ec <next.10>
    1f58:	20f54533          	sh2add	a0,a0,a5
    1f5c:	00052783          	lw	a5,0(a0)
    1f60:	15870713          	addi	a4,a4,344 # 20158 <jump_table.19>
    1f64:	20e7c7b3          	sh2add	a5,a5,a4
    1f68:	0007a803          	lw	a6,0(a5)
    1f6c:	c25fe06f          	j	b90 <inferenceTPG+0x40>

00001f70 <T9_start>:
    1f70:	b0002873          	csrr	a6,mcycle
    1f74:	00492503          	lw	a0,4(s2)
    1f78:	0004a783          	lw	a5,0(s1)
    1f7c:	40f507b3          	sub	a5,a0,a5
    1f80:	08f12023          	sw	a5,128(sp)
    1f84:	014aa783          	lw	a5,20(s5)
    1f88:	0084a703          	lw	a4,8(s1)
    1f8c:	0ae7e7b3          	max	a5,a5,a4
    1f90:	08f12223          	sw	a5,132(sp)
    1f94:	00092783          	lw	a5,0(s2)
    1f98:	00019737          	lui	a4,0x19
    1f9c:	22070713          	addi	a4,a4,544 # 19220 <heap.cpp.6b15d6f6+0x9040>
    1fa0:	40f70733          	sub	a4,a4,a5
    1fa4:	517cd7b7          	lui	a5,0x517cd
    1fa8:	c8378793          	addi	a5,a5,-893 # 517ccc83 <_sp+0x517a2283>
    1fac:	02f717b3          	mulh	a5,a4,a5
    1fb0:	4117d793          	srai	a5,a5,0x11
    1fb4:	41f75693          	srai	a3,a4,0x1f
    1fb8:	40d787b3          	sub	a5,a5,a3
    1fbc:	000656b7          	lui	a3,0x65
    1fc0:	87e68693          	addi	a3,a3,-1922 # 6487e <_sp+0x39e7e>
    1fc4:	02d787b3          	mul	a5,a5,a3
    1fc8:	40f707b3          	sub	a5,a4,a5
    1fcc:	1007ce63          	bltz	a5,20e8 <T9_end+0x24>
    1fd0:	fffe7737          	lui	a4,0xfffe7
    1fd4:	ddf70713          	addi	a4,a4,-545 # fffe6ddf <_sp+0xfffbc3df>
    1fd8:	00e78733          	add	a4,a5,a4
    1fdc:	000196b7          	lui	a3,0x19
    1fe0:	21e68693          	addi	a3,a3,542 # 1921e <heap.cpp.6b15d6f6+0x903e>
    1fe4:	10e6e663          	bltu	a3,a4,20f0 <T9_end+0x2c>
    1fe8:	00032737          	lui	a4,0x32
    1fec:	43f70713          	addi	a4,a4,1087 # 3243f <_sp+0x7a3f>
    1ff0:	40f707b3          	sub	a5,a4,a5
    1ff4:	00100593          	li	a1,1
    1ff8:	41f7d893          	srai	a7,a5,0x1f
    1ffc:	02f88733          	mul	a4,a7,a5
    2000:	02f78333          	mul	t1,a5,a5
    2004:	02f7b6b3          	mulhu	a3,a5,a5
    2008:	20d72733          	sh1add	a4,a4,a3
    200c:	01071713          	slli	a4,a4,0x10
    2010:	01035313          	srli	t1,t1,0x10
    2014:	00670333          	add	t1,a4,t1
    2018:	41f35e13          	srai	t3,t1,0x1f
    201c:	1f300613          	li	a2,499
    2020:	02ce0733          	mul	a4,t3,a2
    2024:	02c306b3          	mul	a3,t1,a2
    2028:	02c33633          	mulhu	a2,t1,a2
    202c:	00c70733          	add	a4,a4,a2
    2030:	01071713          	slli	a4,a4,0x10
    2034:	0106d693          	srli	a3,a3,0x10
    2038:	00d706b3          	add	a3,a4,a3
    203c:	ffffd737          	lui	a4,0xffffd
    2040:	57e70713          	addi	a4,a4,1406 # ffffd57e <_sp+0xfffd2b7e>
    2044:	00e686b3          	add	a3,a3,a4
    2048:	41f6d613          	srai	a2,a3,0x1f
    204c:	02660633          	mul	a2,a2,t1
    2050:	02de0e33          	mul	t3,t3,a3
    2054:	01c60633          	add	a2,a2,t3
    2058:	02668733          	mul	a4,a3,t1
    205c:	0266b6b3          	mulhu	a3,a3,t1
    2060:	00d606b3          	add	a3,a2,a3
    2064:	01069693          	slli	a3,a3,0x10
    2068:	01075713          	srli	a4,a4,0x10
    206c:	00e68733          	add	a4,a3,a4
    2070:	0044a303          	lw	t1,4(s1)
    2074:	000106b7          	lui	a3,0x10
    2078:	00d70733          	add	a4,a4,a3
    207c:	41f75693          	srai	a3,a4,0x1f
    2080:	02f686b3          	mul	a3,a3,a5
    2084:	02e888b3          	mul	a7,a7,a4
    2088:	011686b3          	add	a3,a3,a7
    208c:	02f70633          	mul	a2,a4,a5
    2090:	02f73733          	mulhu	a4,a4,a5
    2094:	00e687b3          	add	a5,a3,a4
    2098:	01079793          	slli	a5,a5,0x10
    209c:	01065713          	srli	a4,a2,0x10
    20a0:	00e78733          	add	a4,a5,a4
    20a4:	02e585b3          	mul	a1,a1,a4
    20a8:	406585b3          	sub	a1,a1,t1
    20ac:	08b12423          	sw	a1,136(sp)
    20b0:	0049a783          	lw	a5,4(s3)
    20b4:	40f507b3          	sub	a5,a0,a5
    20b8:	08f12623          	sw	a5,140(sp)
    20bc:	0aa36333          	max	t1,t1,a0
    20c0:	08612823          	sw	t1,144(sp)

000020c4 <T9_end>:
    20c4:	b00027f3          	csrr	a5,mcycle
    20c8:	410787b3          	sub	a5,a5,a6
    20cc:	02fa2223          	sw	a5,36(s4)
    20d0:	08012603          	lw	a2,128(sp)
    20d4:	08010713          	addi	a4,sp,128
    20d8:	00000513          	li	a0,0
    20dc:	00100793          	li	a5,1
    20e0:	00500593          	li	a1,5
    20e4:	0680006f          	j	214c <T9_end+0x88>
    20e8:	00d787b3          	add	a5,a5,a3
    20ec:	ee5ff06f          	j	1fd0 <T9_start+0x60>
    20f0:	fffce737          	lui	a4,0xfffce
    20f4:	bc070713          	addi	a4,a4,-1088 # fffcdbc0 <_sp+0xfffa31c0>
    20f8:	00e78733          	add	a4,a5,a4
    20fc:	000196b7          	lui	a3,0x19
    2100:	21f68693          	addi	a3,a3,543 # 1921f <heap.cpp.6b15d6f6+0x903f>
    2104:	00e6ec63          	bltu	a3,a4,211c <T9_end+0x58>
    2108:	fffce737          	lui	a4,0xfffce
    210c:	bc170713          	addi	a4,a4,-1087 # fffcdbc1 <_sp+0xfffa31c1>
    2110:	00e787b3          	add	a5,a5,a4
    2114:	fff00593          	li	a1,-1
    2118:	ee1ff06f          	j	1ff8 <T9_start+0x88>
    211c:	0004b737          	lui	a4,0x4b
    2120:	65f70713          	addi	a4,a4,1631 # 4b65f <_sp+0x20c5f>
    2124:	00100593          	li	a1,1
    2128:	ecf758e3          	bge	a4,a5,1ff8 <T9_start+0x88>
    212c:	00065737          	lui	a4,0x65
    2130:	87e70713          	addi	a4,a4,-1922 # 6487e <_sp+0x39e7e>
    2134:	40f707b3          	sub	a5,a4,a5
    2138:	fff00593          	li	a1,-1
    213c:	ebdff06f          	j	1ff8 <T9_start+0x88>
    2140:	00178793          	addi	a5,a5,1
    2144:	00470713          	addi	a4,a4,4
    2148:	00b78c63          	beq	a5,a1,2160 <T9_end+0x9c>
    214c:	00472683          	lw	a3,4(a4)
    2150:	fec6c8e3          	blt	a3,a2,2140 <T9_end+0x7c>
    2154:	00068613          	mv	a2,a3
    2158:	00078513          	mv	a0,a5
    215c:	fe5ff06f          	j	2140 <T9_end+0x7c>
    2160:	00020737          	lui	a4,0x20
    2164:	000207b7          	lui	a5,0x20
    2168:	0d878793          	addi	a5,a5,216 # 200d8 <next.9>
    216c:	20f54533          	sh2add	a0,a0,a5
    2170:	00052783          	lw	a5,0(a0)
    2174:	15870713          	addi	a4,a4,344 # 20158 <jump_table.19>
    2178:	20e7c7b3          	sh2add	a5,a5,a4
    217c:	0007a803          	lw	a6,0(a5)
    2180:	a11fe06f          	j	b90 <inferenceTPG+0x40>
    2184:	17712023          	sw	s7,352(sp)
    2188:	15812e23          	sw	s8,348(sp)
    218c:	15912c23          	sw	s9,344(sp)

00002190 <T10_start>:
    2190:	b00027f3          	csrr	a5,mcycle
    2194:	00078c93          	mv	s9,a5
    2198:	00492783          	lw	a5,4(s2)
    219c:	00078c13          	mv	s8,a5
    21a0:	0044a783          	lw	a5,4(s1)
    21a4:	40fc07b3          	sub	a5,s8,a5
    21a8:	0ef12823          	sw	a5,240(sp)
    21ac:	0084a783          	lw	a5,8(s1)
    21b0:	00078b93          	mv	s7,a5
    21b4:	517cd737          	lui	a4,0x517cd
    21b8:	c8370713          	addi	a4,a4,-893 # 517ccc83 <_sp+0x517a2283>
    21bc:	02e79733          	mulh	a4,a5,a4
    21c0:	41175713          	srai	a4,a4,0x11
    21c4:	41f7d793          	srai	a5,a5,0x1f
    21c8:	40f70733          	sub	a4,a4,a5
    21cc:	000657b7          	lui	a5,0x65
    21d0:	87e78793          	addi	a5,a5,-1922 # 6487e <_sp+0x39e7e>
    21d4:	02f707b3          	mul	a5,a4,a5
    21d8:	40fb8733          	sub	a4,s7,a5
    21dc:	26074263          	bltz	a4,2440 <T10_end+0x24>
    21e0:	fffe77b7          	lui	a5,0xfffe7
    21e4:	ddf78793          	addi	a5,a5,-545 # fffe6ddf <_sp+0xfffbc3df>
    21e8:	00f707b3          	add	a5,a4,a5
    21ec:	000196b7          	lui	a3,0x19
    21f0:	21e68693          	addi	a3,a3,542 # 1921e <heap.cpp.6b15d6f6+0x903e>
    21f4:	24f6ee63          	bltu	a3,a5,2450 <T10_end+0x34>
    21f8:	000327b7          	lui	a5,0x32
    21fc:	43f78793          	addi	a5,a5,1087 # 3243f <_sp+0x7a3f>
    2200:	40e78733          	sub	a4,a5,a4
    2204:	00100513          	li	a0,1
    2208:	000196b7          	lui	a3,0x19
    220c:	22068693          	addi	a3,a3,544 # 19220 <heap.cpp.6b15d6f6+0x9040>
    2210:	417686b3          	sub	a3,a3,s7
    2214:	517cd7b7          	lui	a5,0x517cd
    2218:	c8378793          	addi	a5,a5,-893 # 517ccc83 <_sp+0x517a2283>
    221c:	02f697b3          	mulh	a5,a3,a5
    2220:	4117d793          	srai	a5,a5,0x11
    2224:	41f6d613          	srai	a2,a3,0x1f
    2228:	40c787b3          	sub	a5,a5,a2
    222c:	00065637          	lui	a2,0x65
    2230:	87e60613          	addi	a2,a2,-1922 # 6487e <_sp+0x39e7e>
    2234:	02c787b3          	mul	a5,a5,a2
    2238:	40f687b3          	sub	a5,a3,a5
    223c:	2607c263          	bltz	a5,24a0 <T10_end+0x84>
    2240:	fffe76b7          	lui	a3,0xfffe7
    2244:	ddf68693          	addi	a3,a3,-545 # fffe6ddf <_sp+0xfffbc3df>
    2248:	00d786b3          	add	a3,a5,a3
    224c:	00019637          	lui	a2,0x19
    2250:	21e60613          	addi	a2,a2,542 # 1921e <heap.cpp.6b15d6f6+0x903e>
    2254:	24d66a63          	bltu	a2,a3,24a8 <T10_end+0x8c>
    2258:	000326b7          	lui	a3,0x32
    225c:	43f68693          	addi	a3,a3,1087 # 3243f <_sp+0x7a3f>
    2260:	40f687b3          	sub	a5,a3,a5
    2264:	00100813          	li	a6,1
    2268:	41f7d893          	srai	a7,a5,0x1f
    226c:	02f886b3          	mul	a3,a7,a5
    2270:	02f78333          	mul	t1,a5,a5
    2274:	02f7b633          	mulhu	a2,a5,a5
    2278:	20c6a6b3          	sh1add	a3,a3,a2
    227c:	01069693          	slli	a3,a3,0x10
    2280:	01035313          	srli	t1,t1,0x10
    2284:	00668333          	add	t1,a3,t1
    2288:	41f35e13          	srai	t3,t1,0x1f
    228c:	1f300593          	li	a1,499
    2290:	02be06b3          	mul	a3,t3,a1
    2294:	02b30633          	mul	a2,t1,a1
    2298:	02b335b3          	mulhu	a1,t1,a1
    229c:	00b686b3          	add	a3,a3,a1
    22a0:	01069693          	slli	a3,a3,0x10
    22a4:	01065613          	srli	a2,a2,0x10
    22a8:	00c68633          	add	a2,a3,a2
    22ac:	ffffd6b7          	lui	a3,0xffffd
    22b0:	57e68693          	addi	a3,a3,1406 # ffffd57e <_sp+0xfffd2b7e>
    22b4:	00d60633          	add	a2,a2,a3
    22b8:	41f65593          	srai	a1,a2,0x1f
    22bc:	026585b3          	mul	a1,a1,t1
    22c0:	02ce0e33          	mul	t3,t3,a2
    22c4:	01c585b3          	add	a1,a1,t3
    22c8:	026606b3          	mul	a3,a2,t1
    22cc:	02663633          	mulhu	a2,a2,t1
    22d0:	00c58633          	add	a2,a1,a2
    22d4:	01061613          	slli	a2,a2,0x10
    22d8:	0106d693          	srli	a3,a3,0x10
    22dc:	00d606b3          	add	a3,a2,a3
    22e0:	00010637          	lui	a2,0x10
    22e4:	00c686b3          	add	a3,a3,a2
    22e8:	41f6d593          	srai	a1,a3,0x1f
    22ec:	02f585b3          	mul	a1,a1,a5
    22f0:	02d888b3          	mul	a7,a7,a3
    22f4:	011585b3          	add	a1,a1,a7
    22f8:	02f68633          	mul	a2,a3,a5
    22fc:	02f6b6b3          	mulhu	a3,a3,a5
    2300:	00d587b3          	add	a5,a1,a3
    2304:	01079793          	slli	a5,a5,0x10
    2308:	01065613          	srli	a2,a2,0x10
    230c:	00c78633          	add	a2,a5,a2
    2310:	02c80633          	mul	a2,a6,a2
    2314:	0c060863          	beqz	a2,23e4 <T10_start+0x254>
    2318:	41f75893          	srai	a7,a4,0x1f
    231c:	02e887b3          	mul	a5,a7,a4
    2320:	02e705b3          	mul	a1,a4,a4
    2324:	02e736b3          	mulhu	a3,a4,a4
    2328:	20d7a7b3          	sh1add	a5,a5,a3
    232c:	01079793          	slli	a5,a5,0x10
    2330:	0105d593          	srli	a1,a1,0x10
    2334:	00b785b3          	add	a1,a5,a1
    2338:	41f5d313          	srai	t1,a1,0x1f
    233c:	1f300813          	li	a6,499
    2340:	030307b3          	mul	a5,t1,a6
    2344:	030586b3          	mul	a3,a1,a6
    2348:	0305b833          	mulhu	a6,a1,a6
    234c:	010787b3          	add	a5,a5,a6
    2350:	01079793          	slli	a5,a5,0x10
    2354:	0106d693          	srli	a3,a3,0x10
    2358:	00d786b3          	add	a3,a5,a3
    235c:	ffffd7b7          	lui	a5,0xffffd
    2360:	57e78793          	addi	a5,a5,1406 # ffffd57e <_sp+0xfffd2b7e>
    2364:	00f686b3          	add	a3,a3,a5
    2368:	41f6d813          	srai	a6,a3,0x1f
    236c:	02b80833          	mul	a6,a6,a1
    2370:	02d30333          	mul	t1,t1,a3
    2374:	00680833          	add	a6,a6,t1
    2378:	02b687b3          	mul	a5,a3,a1
    237c:	02b6b6b3          	mulhu	a3,a3,a1
    2380:	00d806b3          	add	a3,a6,a3
    2384:	01069693          	slli	a3,a3,0x10
    2388:	0107d793          	srli	a5,a5,0x10
    238c:	00f687b3          	add	a5,a3,a5
    2390:	000106b7          	lui	a3,0x10
    2394:	00d787b3          	add	a5,a5,a3
    2398:	41f7d693          	srai	a3,a5,0x1f
    239c:	02e686b3          	mul	a3,a3,a4
    23a0:	02f888b3          	mul	a7,a7,a5
    23a4:	011686b3          	add	a3,a3,a7
    23a8:	02e785b3          	mul	a1,a5,a4
    23ac:	02e7b7b3          	mulhu	a5,a5,a4
    23b0:	00f687b3          	add	a5,a3,a5
    23b4:	01079793          	slli	a5,a5,0x10
    23b8:	0105d713          	srli	a4,a1,0x10
    23bc:	00e78733          	add	a4,a5,a4
    23c0:	02e50533          	mul	a0,a0,a4
    23c4:	41f55793          	srai	a5,a0,0x1f
    23c8:	01055593          	srli	a1,a0,0x10
    23cc:	01079793          	slli	a5,a5,0x10
    23d0:	41f65693          	srai	a3,a2,0x1f
    23d4:	01051513          	slli	a0,a0,0x10
    23d8:	00f585b3          	add	a1,a1,a5
    23dc:	5d8050ef          	jal	79b4 <__divdi3>
    23e0:	00050613          	mv	a2,a0
    23e4:	0ec12a23          	sw	a2,244(sp)
    23e8:	0004a783          	lw	a5,0(s1)
    23ec:	40fc0733          	sub	a4,s8,a5
    23f0:	0ee12c23          	sw	a4,248(sp)
    23f4:	0009a703          	lw	a4,0(s3)
    23f8:	417706b3          	sub	a3,a4,s7
    23fc:	0ed12e23          	sw	a3,252(sp)
    2400:	018787b3          	add	a5,a5,s8
    2404:	10f12023          	sw	a5,256(sp)
    2408:	00092783          	lw	a5,0(s2)
    240c:	0ae7e7b3          	max	a5,a5,a4
    2410:	10f12223          	sw	a5,260(sp)
    2414:	018b87b3          	add	a5,s7,s8
    2418:	10f12423          	sw	a5,264(sp)

0000241c <T10_end>:
    241c:	b00027f3          	csrr	a5,mcycle
    2420:	419787b3          	sub	a5,a5,s9
    2424:	02fa2423          	sw	a5,40(s4)
    2428:	0f012603          	lw	a2,240(sp)
    242c:	0f010713          	addi	a4,sp,240
    2430:	00000513          	li	a0,0
    2434:	00100793          	li	a5,1
    2438:	00700593          	li	a1,7
    243c:	0c80006f          	j	2504 <T10_end+0xe8>
    2440:	000657b7          	lui	a5,0x65
    2444:	87e78793          	addi	a5,a5,-1922 # 6487e <_sp+0x39e7e>
    2448:	00f70733          	add	a4,a4,a5
    244c:	d95ff06f          	j	21e0 <T10_start+0x50>
    2450:	fffce7b7          	lui	a5,0xfffce
    2454:	bc078793          	addi	a5,a5,-1088 # fffcdbc0 <_sp+0xfffa31c0>
    2458:	00f707b3          	add	a5,a4,a5
    245c:	000196b7          	lui	a3,0x19
    2460:	21f68693          	addi	a3,a3,543 # 1921f <heap.cpp.6b15d6f6+0x903f>
    2464:	00f6ec63          	bltu	a3,a5,247c <T10_end+0x60>
    2468:	fffce7b7          	lui	a5,0xfffce
    246c:	bc178793          	addi	a5,a5,-1087 # fffcdbc1 <_sp+0xfffa31c1>
    2470:	00f70733          	add	a4,a4,a5
    2474:	fff00513          	li	a0,-1
    2478:	d91ff06f          	j	2208 <T10_start+0x78>
    247c:	0004b7b7          	lui	a5,0x4b
    2480:	65f78793          	addi	a5,a5,1631 # 4b65f <_sp+0x20c5f>
    2484:	00100513          	li	a0,1
    2488:	d8e7d0e3          	bge	a5,a4,2208 <T10_start+0x78>
    248c:	000657b7          	lui	a5,0x65
    2490:	87e78793          	addi	a5,a5,-1922 # 6487e <_sp+0x39e7e>
    2494:	40e78733          	sub	a4,a5,a4
    2498:	fff00513          	li	a0,-1
    249c:	d6dff06f          	j	2208 <T10_start+0x78>
    24a0:	00c787b3          	add	a5,a5,a2
    24a4:	d9dff06f          	j	2240 <T10_start+0xb0>
    24a8:	fffce6b7          	lui	a3,0xfffce
    24ac:	bc068693          	addi	a3,a3,-1088 # fffcdbc0 <_sp+0xfffa31c0>
    24b0:	00d786b3          	add	a3,a5,a3
    24b4:	00019637          	lui	a2,0x19
    24b8:	21f60613          	addi	a2,a2,543 # 1921f <heap.cpp.6b15d6f6+0x903f>
    24bc:	00d66c63          	bltu	a2,a3,24d4 <T10_end+0xb8>
    24c0:	fffce6b7          	lui	a3,0xfffce
    24c4:	bc168693          	addi	a3,a3,-1087 # fffcdbc1 <_sp+0xfffa31c1>
    24c8:	00d787b3          	add	a5,a5,a3
    24cc:	fff00813          	li	a6,-1
    24d0:	d99ff06f          	j	2268 <T10_start+0xd8>
    24d4:	0004b6b7          	lui	a3,0x4b
    24d8:	65f68693          	addi	a3,a3,1631 # 4b65f <_sp+0x20c5f>
    24dc:	00100813          	li	a6,1
    24e0:	d8f6d4e3          	bge	a3,a5,2268 <T10_start+0xd8>
    24e4:	000656b7          	lui	a3,0x65
    24e8:	87e68693          	addi	a3,a3,-1922 # 6487e <_sp+0x39e7e>
    24ec:	40f687b3          	sub	a5,a3,a5
    24f0:	fff00813          	li	a6,-1
    24f4:	d75ff06f          	j	2268 <T10_start+0xd8>
    24f8:	00178793          	addi	a5,a5,1
    24fc:	00470713          	addi	a4,a4,4
    2500:	00b78c63          	beq	a5,a1,2518 <T10_end+0xfc>
    2504:	00472683          	lw	a3,4(a4)
    2508:	fec6c8e3          	blt	a3,a2,24f8 <T10_end+0xdc>
    250c:	00068613          	mv	a2,a3
    2510:	00078513          	mv	a0,a5
    2514:	fe5ff06f          	j	24f8 <T10_end+0xdc>
    2518:	00020737          	lui	a4,0x20
    251c:	000207b7          	lui	a5,0x20
    2520:	0bc78793          	addi	a5,a5,188 # 200bc <next.8>
    2524:	20f54533          	sh2add	a0,a0,a5
    2528:	00052783          	lw	a5,0(a0)
    252c:	15870713          	addi	a4,a4,344 # 20158 <jump_table.19>
    2530:	20e7c7b3          	sh2add	a5,a5,a4
    2534:	0007a803          	lw	a6,0(a5)
    2538:	16012b83          	lw	s7,352(sp)
    253c:	15c12c03          	lw	s8,348(sp)
    2540:	15812c83          	lw	s9,344(sp)
    2544:	e4cfe06f          	j	b90 <inferenceTPG+0x40>

00002548 <T11_start>:
    2548:	b00025f3          	csrr	a1,mcycle
    254c:	00492783          	lw	a5,4(s2)
    2550:	0044a703          	lw	a4,4(s1)
    2554:	40e786b3          	sub	a3,a5,a4
    2558:	10d12623          	sw	a3,268(sp)
    255c:	00171713          	slli	a4,a4,0x1
    2560:	10e12823          	sw	a4,272(sp)
    2564:	0004a603          	lw	a2,0(s1)
    2568:	00f60733          	add	a4,a2,a5
    256c:	10e12a23          	sw	a4,276(sp)
    2570:	0009a703          	lw	a4,0(s3)
    2574:	00092683          	lw	a3,0(s2)
    2578:	0ae6e6b3          	max	a3,a3,a4
    257c:	10d12c23          	sw	a3,280(sp)
    2580:	0084a683          	lw	a3,8(s1)
    2584:	00f68533          	add	a0,a3,a5
    2588:	10a12e23          	sw	a0,284(sp)
    258c:	40c787b3          	sub	a5,a5,a2
    2590:	12f12023          	sw	a5,288(sp)
    2594:	40d70733          	sub	a4,a4,a3
    2598:	12e12223          	sw	a4,292(sp)

0000259c <T11_end>:
    259c:	b00027f3          	csrr	a5,mcycle
    25a0:	40b787b3          	sub	a5,a5,a1
    25a4:	02fa2623          	sw	a5,44(s4)
    25a8:	10c12603          	lw	a2,268(sp)
    25ac:	10c10713          	addi	a4,sp,268
    25b0:	00000513          	li	a0,0
    25b4:	00100793          	li	a5,1
    25b8:	00700593          	li	a1,7
    25bc:	0100006f          	j	25cc <T11_end+0x30>
    25c0:	00178793          	addi	a5,a5,1
    25c4:	00470713          	addi	a4,a4,4
    25c8:	00b78c63          	beq	a5,a1,25e0 <T11_end+0x44>
    25cc:	00472683          	lw	a3,4(a4)
    25d0:	fec6c8e3          	blt	a3,a2,25c0 <T11_end+0x24>
    25d4:	00068613          	mv	a2,a3
    25d8:	00078513          	mv	a0,a5
    25dc:	fe5ff06f          	j	25c0 <T11_end+0x24>
    25e0:	00020737          	lui	a4,0x20
    25e4:	000207b7          	lui	a5,0x20
    25e8:	0a078793          	addi	a5,a5,160 # 200a0 <next.7>
    25ec:	20f54533          	sh2add	a0,a0,a5
    25f0:	00052783          	lw	a5,0(a0)
    25f4:	15870713          	addi	a4,a4,344 # 20158 <jump_table.19>
    25f8:	20e7c7b3          	sh2add	a5,a5,a4
    25fc:	0007a803          	lw	a6,0(a5)
    2600:	d90fe06f          	j	b90 <inferenceTPG+0x40>

00002604 <T12_start>:
    2604:	b0002673          	csrr	a2,mcycle
    2608:	00492583          	lw	a1,4(s2)
    260c:	517cd7b7          	lui	a5,0x517cd
    2610:	c8378793          	addi	a5,a5,-893 # 517ccc83 <_sp+0x517a2283>
    2614:	02f597b3          	mulh	a5,a1,a5
    2618:	4117d793          	srai	a5,a5,0x11
    261c:	41f5d713          	srai	a4,a1,0x1f
    2620:	40e787b3          	sub	a5,a5,a4
    2624:	00065737          	lui	a4,0x65
    2628:	87e70713          	addi	a4,a4,-1922 # 6487e <_sp+0x39e7e>
    262c:	02e787b3          	mul	a5,a5,a4
    2630:	40f587b3          	sub	a5,a1,a5
    2634:	3607c863          	bltz	a5,29a4 <T12_end+0x24>
    2638:	fffe7737          	lui	a4,0xfffe7
    263c:	ddf70713          	addi	a4,a4,-545 # fffe6ddf <_sp+0xfffbc3df>
    2640:	00e78733          	add	a4,a5,a4
    2644:	000196b7          	lui	a3,0x19
    2648:	21e68693          	addi	a3,a3,542 # 1921e <heap.cpp.6b15d6f6+0x903e>
    264c:	36e6e463          	bltu	a3,a4,29b4 <T12_end+0x34>
    2650:	00032737          	lui	a4,0x32
    2654:	43f70713          	addi	a4,a4,1087 # 3243f <_sp+0x7a3f>
    2658:	40f707b3          	sub	a5,a4,a5
    265c:	00100813          	li	a6,1
    2660:	41f7d893          	srai	a7,a5,0x1f
    2664:	02f88733          	mul	a4,a7,a5
    2668:	02f78333          	mul	t1,a5,a5
    266c:	02f7b6b3          	mulhu	a3,a5,a5
    2670:	20d72733          	sh1add	a4,a4,a3
    2674:	01071713          	slli	a4,a4,0x10
    2678:	01035313          	srli	t1,t1,0x10
    267c:	00670333          	add	t1,a4,t1
    2680:	41f35e13          	srai	t3,t1,0x1f
    2684:	1f300513          	li	a0,499
    2688:	02ae0733          	mul	a4,t3,a0
    268c:	02a306b3          	mul	a3,t1,a0
    2690:	02a33533          	mulhu	a0,t1,a0
    2694:	00a70733          	add	a4,a4,a0
    2698:	01071713          	slli	a4,a4,0x10
    269c:	0106d693          	srli	a3,a3,0x10
    26a0:	00d706b3          	add	a3,a4,a3
    26a4:	ffffd737          	lui	a4,0xffffd
    26a8:	57e70713          	addi	a4,a4,1406 # ffffd57e <_sp+0xfffd2b7e>
    26ac:	00e686b3          	add	a3,a3,a4
    26b0:	41f6d513          	srai	a0,a3,0x1f
    26b4:	02650533          	mul	a0,a0,t1
    26b8:	02de0e33          	mul	t3,t3,a3
    26bc:	01c50533          	add	a0,a0,t3
    26c0:	02668733          	mul	a4,a3,t1
    26c4:	0266b6b3          	mulhu	a3,a3,t1
    26c8:	00d506b3          	add	a3,a0,a3
    26cc:	01069693          	slli	a3,a3,0x10
    26d0:	01075713          	srli	a4,a4,0x10
    26d4:	00e68733          	add	a4,a3,a4
    26d8:	000106b7          	lui	a3,0x10
    26dc:	00d70733          	add	a4,a4,a3
    26e0:	41f75693          	srai	a3,a4,0x1f
    26e4:	02f686b3          	mul	a3,a3,a5
    26e8:	02e888b3          	mul	a7,a7,a4
    26ec:	011686b3          	add	a3,a3,a7
    26f0:	02f70533          	mul	a0,a4,a5
    26f4:	02f73733          	mulhu	a4,a4,a5
    26f8:	00e687b3          	add	a5,a3,a4
    26fc:	01079793          	slli	a5,a5,0x10
    2700:	01055713          	srli	a4,a0,0x10
    2704:	00e78733          	add	a4,a5,a4
    2708:	02e80833          	mul	a6,a6,a4
    270c:	13012423          	sw	a6,296(sp)
    2710:	0044a783          	lw	a5,4(s1)
    2714:	40f587b3          	sub	a5,a1,a5
    2718:	12f12623          	sw	a5,300(sp)
    271c:	0049a503          	lw	a0,4(s3)
    2720:	000197b7          	lui	a5,0x19
    2724:	22078793          	addi	a5,a5,544 # 19220 <heap.cpp.6b15d6f6+0x9040>
    2728:	40a787b3          	sub	a5,a5,a0
    272c:	517cd8b7          	lui	a7,0x517cd
    2730:	c8388893          	addi	a7,a7,-893 # 517ccc83 <_sp+0x517a2283>
    2734:	031798b3          	mulh	a7,a5,a7
    2738:	4118d893          	srai	a7,a7,0x11
    273c:	41f7d713          	srai	a4,a5,0x1f
    2740:	40e888b3          	sub	a7,a7,a4
    2744:	00065737          	lui	a4,0x65
    2748:	87e70713          	addi	a4,a4,-1922 # 6487e <_sp+0x39e7e>
    274c:	02e88733          	mul	a4,a7,a4
    2750:	40e788b3          	sub	a7,a5,a4
    2754:	2a08c863          	bltz	a7,2a04 <T12_end+0x84>
    2758:	fffe77b7          	lui	a5,0xfffe7
    275c:	ddf78793          	addi	a5,a5,-545 # fffe6ddf <_sp+0xfffbc3df>
    2760:	00f887b3          	add	a5,a7,a5
    2764:	00019737          	lui	a4,0x19
    2768:	21e70713          	addi	a4,a4,542 # 1921e <heap.cpp.6b15d6f6+0x903e>
    276c:	2af76463          	bltu	a4,a5,2a14 <T12_end+0x94>
    2770:	000327b7          	lui	a5,0x32
    2774:	43f78793          	addi	a5,a5,1087 # 3243f <_sp+0x7a3f>
    2778:	411788b3          	sub	a7,a5,a7
    277c:	00100813          	li	a6,1
    2780:	41f8d313          	srai	t1,a7,0x1f
    2784:	031307b3          	mul	a5,t1,a7
    2788:	03188e33          	mul	t3,a7,a7
    278c:	0318b733          	mulhu	a4,a7,a7
    2790:	20e7a7b3          	sh1add	a5,a5,a4
    2794:	01079793          	slli	a5,a5,0x10
    2798:	010e5e13          	srli	t3,t3,0x10
    279c:	01c78e33          	add	t3,a5,t3
    27a0:	41fe5e93          	srai	t4,t3,0x1f
    27a4:	1f300693          	li	a3,499
    27a8:	02de87b3          	mul	a5,t4,a3
    27ac:	02de0733          	mul	a4,t3,a3
    27b0:	02de36b3          	mulhu	a3,t3,a3
    27b4:	00d787b3          	add	a5,a5,a3
    27b8:	01079793          	slli	a5,a5,0x10
    27bc:	01075713          	srli	a4,a4,0x10
    27c0:	00e78733          	add	a4,a5,a4
    27c4:	ffffd7b7          	lui	a5,0xffffd
    27c8:	57e78793          	addi	a5,a5,1406 # ffffd57e <_sp+0xfffd2b7e>
    27cc:	00f70733          	add	a4,a4,a5
    27d0:	41f75693          	srai	a3,a4,0x1f
    27d4:	03c686b3          	mul	a3,a3,t3
    27d8:	02ee8eb3          	mul	t4,t4,a4
    27dc:	01d686b3          	add	a3,a3,t4
    27e0:	03c707b3          	mul	a5,a4,t3
    27e4:	03c73733          	mulhu	a4,a4,t3
    27e8:	00e68733          	add	a4,a3,a4
    27ec:	01071713          	slli	a4,a4,0x10
    27f0:	0107d793          	srli	a5,a5,0x10
    27f4:	00f707b3          	add	a5,a4,a5
    27f8:	00010737          	lui	a4,0x10
    27fc:	00e787b3          	add	a5,a5,a4
    2800:	41f7d713          	srai	a4,a5,0x1f
    2804:	03170733          	mul	a4,a4,a7
    2808:	02f30333          	mul	t1,t1,a5
    280c:	00670733          	add	a4,a4,t1
    2810:	031786b3          	mul	a3,a5,a7
    2814:	0317b7b3          	mulhu	a5,a5,a7
    2818:	00f707b3          	add	a5,a4,a5
    281c:	01079793          	slli	a5,a5,0x10
    2820:	0106d713          	srli	a4,a3,0x10
    2824:	00e78733          	add	a4,a5,a4
    2828:	02e80833          	mul	a6,a6,a4
    282c:	13012823          	sw	a6,304(sp)
    2830:	0009a703          	lw	a4,0(s3)
    2834:	0084a803          	lw	a6,8(s1)
    2838:	410707b3          	sub	a5,a4,a6
    283c:	12f12a23          	sw	a5,308(sp)
    2840:	0004a783          	lw	a5,0(s1)
    2844:	00b786b3          	add	a3,a5,a1
    2848:	12d12c23          	sw	a3,312(sp)
    284c:	12e12e23          	sw	a4,316(sp)
    2850:	41050533          	sub	a0,a0,a6
    2854:	14a12023          	sw	a0,320(sp)
    2858:	40f585b3          	sub	a1,a1,a5
    285c:	14b12223          	sw	a1,324(sp)
    2860:	0089a783          	lw	a5,8(s3)
    2864:	00019737          	lui	a4,0x19
    2868:	22070713          	addi	a4,a4,544 # 19220 <heap.cpp.6b15d6f6+0x9040>
    286c:	40f70733          	sub	a4,a4,a5
    2870:	517cd7b7          	lui	a5,0x517cd
    2874:	c8378793          	addi	a5,a5,-893 # 517ccc83 <_sp+0x517a2283>
    2878:	02f717b3          	mulh	a5,a4,a5
    287c:	4117d793          	srai	a5,a5,0x11
    2880:	41f75693          	srai	a3,a4,0x1f
    2884:	40d787b3          	sub	a5,a5,a3
    2888:	000656b7          	lui	a3,0x65
    288c:	87e68693          	addi	a3,a3,-1922 # 6487e <_sp+0x39e7e>
    2890:	02d787b3          	mul	a5,a5,a3
    2894:	40f707b3          	sub	a5,a4,a5
    2898:	1c07c663          	bltz	a5,2a64 <T12_end+0xe4>
    289c:	fffe7737          	lui	a4,0xfffe7
    28a0:	ddf70713          	addi	a4,a4,-545 # fffe6ddf <_sp+0xfffbc3df>
    28a4:	00e78733          	add	a4,a5,a4
    28a8:	000196b7          	lui	a3,0x19
    28ac:	21e68693          	addi	a3,a3,542 # 1921e <heap.cpp.6b15d6f6+0x903e>
    28b0:	1ae6ee63          	bltu	a3,a4,2a6c <T12_end+0xec>
    28b4:	00032737          	lui	a4,0x32
    28b8:	43f70713          	addi	a4,a4,1087 # 3243f <_sp+0x7a3f>
    28bc:	40f707b3          	sub	a5,a4,a5
    28c0:	00100513          	li	a0,1
    28c4:	41f7d893          	srai	a7,a5,0x1f
    28c8:	02f88733          	mul	a4,a7,a5
    28cc:	02f78333          	mul	t1,a5,a5
    28d0:	02f7b6b3          	mulhu	a3,a5,a5
    28d4:	20d72733          	sh1add	a4,a4,a3
    28d8:	01071713          	slli	a4,a4,0x10
    28dc:	01035313          	srli	t1,t1,0x10
    28e0:	00670333          	add	t1,a4,t1
    28e4:	41f35e13          	srai	t3,t1,0x1f
    28e8:	1f300593          	li	a1,499
    28ec:	02be0733          	mul	a4,t3,a1
    28f0:	02b306b3          	mul	a3,t1,a1
    28f4:	02b335b3          	mulhu	a1,t1,a1
    28f8:	00b70733          	add	a4,a4,a1
    28fc:	01071713          	slli	a4,a4,0x10
    2900:	0106d693          	srli	a3,a3,0x10
    2904:	00d706b3          	add	a3,a4,a3
    2908:	ffffd737          	lui	a4,0xffffd
    290c:	57e70713          	addi	a4,a4,1406 # ffffd57e <_sp+0xfffd2b7e>
    2910:	00e686b3          	add	a3,a3,a4
    2914:	41f6d593          	srai	a1,a3,0x1f
    2918:	026585b3          	mul	a1,a1,t1
    291c:	02de0e33          	mul	t3,t3,a3
    2920:	01c585b3          	add	a1,a1,t3
    2924:	02668733          	mul	a4,a3,t1
    2928:	0266b6b3          	mulhu	a3,a3,t1
    292c:	00d586b3          	add	a3,a1,a3
    2930:	01069693          	slli	a3,a3,0x10
    2934:	01075713          	srli	a4,a4,0x10
    2938:	00e68733          	add	a4,a3,a4
    293c:	000106b7          	lui	a3,0x10
    2940:	00d70733          	add	a4,a4,a3
    2944:	41f75693          	srai	a3,a4,0x1f
    2948:	02f686b3          	mul	a3,a3,a5
    294c:	02e888b3          	mul	a7,a7,a4
    2950:	011686b3          	add	a3,a3,a7
    2954:	02f705b3          	mul	a1,a4,a5
    2958:	02f73733          	mulhu	a4,a4,a5
    295c:	00e687b3          	add	a5,a3,a4
    2960:	01079793          	slli	a5,a5,0x10
    2964:	0105d713          	srli	a4,a1,0x10
    2968:	00e78733          	add	a4,a5,a4
    296c:	02e50533          	mul	a0,a0,a4
    2970:	14a12423          	sw	a0,328(sp)
    2974:	00092783          	lw	a5,0(s2)
    2978:	010787b3          	add	a5,a5,a6
    297c:	14f12623          	sw	a5,332(sp)

00002980 <T12_end>:
    2980:	b00027f3          	csrr	a5,mcycle
    2984:	40c787b3          	sub	a5,a5,a2
    2988:	02fa2823          	sw	a5,48(s4)
    298c:	12812603          	lw	a2,296(sp)
    2990:	12810713          	addi	a4,sp,296
    2994:	00000513          	li	a0,0
    2998:	00100793          	li	a5,1
    299c:	00a00593          	li	a1,10
    29a0:	1280006f          	j	2ac8 <T12_end+0x148>
    29a4:	00065737          	lui	a4,0x65
    29a8:	87e70713          	addi	a4,a4,-1922 # 6487e <_sp+0x39e7e>
    29ac:	00e787b3          	add	a5,a5,a4
    29b0:	c89ff06f          	j	2638 <T12_start+0x34>
    29b4:	fffce737          	lui	a4,0xfffce
    29b8:	bc070713          	addi	a4,a4,-1088 # fffcdbc0 <_sp+0xfffa31c0>
    29bc:	00e78733          	add	a4,a5,a4
    29c0:	000196b7          	lui	a3,0x19
    29c4:	21f68693          	addi	a3,a3,543 # 1921f <heap.cpp.6b15d6f6+0x903f>
    29c8:	00e6ec63          	bltu	a3,a4,29e0 <T12_end+0x60>
    29cc:	fffce737          	lui	a4,0xfffce
    29d0:	bc170713          	addi	a4,a4,-1087 # fffcdbc1 <_sp+0xfffa31c1>
    29d4:	00e787b3          	add	a5,a5,a4
    29d8:	fff00813          	li	a6,-1
    29dc:	c85ff06f          	j	2660 <T12_start+0x5c>
    29e0:	0004b737          	lui	a4,0x4b
    29e4:	65f70713          	addi	a4,a4,1631 # 4b65f <_sp+0x20c5f>
    29e8:	00100813          	li	a6,1
    29ec:	c6f75ae3          	bge	a4,a5,2660 <T12_start+0x5c>
    29f0:	00065737          	lui	a4,0x65
    29f4:	87e70713          	addi	a4,a4,-1922 # 6487e <_sp+0x39e7e>
    29f8:	40f707b3          	sub	a5,a4,a5
    29fc:	fff00813          	li	a6,-1
    2a00:	c61ff06f          	j	2660 <T12_start+0x5c>
    2a04:	000657b7          	lui	a5,0x65
    2a08:	87e78793          	addi	a5,a5,-1922 # 6487e <_sp+0x39e7e>
    2a0c:	00f888b3          	add	a7,a7,a5
    2a10:	d49ff06f          	j	2758 <T12_start+0x154>
    2a14:	fffce7b7          	lui	a5,0xfffce
    2a18:	bc078793          	addi	a5,a5,-1088 # fffcdbc0 <_sp+0xfffa31c0>
    2a1c:	00f887b3          	add	a5,a7,a5
    2a20:	00019737          	lui	a4,0x19
    2a24:	21f70713          	addi	a4,a4,543 # 1921f <heap.cpp.6b15d6f6+0x903f>
    2a28:	00f76c63          	bltu	a4,a5,2a40 <T12_end+0xc0>
    2a2c:	fffce7b7          	lui	a5,0xfffce
    2a30:	bc178793          	addi	a5,a5,-1087 # fffcdbc1 <_sp+0xfffa31c1>
    2a34:	00f888b3          	add	a7,a7,a5
    2a38:	fff00813          	li	a6,-1
    2a3c:	d45ff06f          	j	2780 <T12_start+0x17c>
    2a40:	0004b7b7          	lui	a5,0x4b
    2a44:	65f78793          	addi	a5,a5,1631 # 4b65f <_sp+0x20c5f>
    2a48:	00100813          	li	a6,1
    2a4c:	d317dae3          	bge	a5,a7,2780 <T12_start+0x17c>
    2a50:	000657b7          	lui	a5,0x65
    2a54:	87e78793          	addi	a5,a5,-1922 # 6487e <_sp+0x39e7e>
    2a58:	411788b3          	sub	a7,a5,a7
    2a5c:	fff00813          	li	a6,-1
    2a60:	d21ff06f          	j	2780 <T12_start+0x17c>
    2a64:	00d787b3          	add	a5,a5,a3
    2a68:	e35ff06f          	j	289c <T12_start+0x298>
    2a6c:	fffce737          	lui	a4,0xfffce
    2a70:	bc070713          	addi	a4,a4,-1088 # fffcdbc0 <_sp+0xfffa31c0>
    2a74:	00e78733          	add	a4,a5,a4
    2a78:	000196b7          	lui	a3,0x19
    2a7c:	21f68693          	addi	a3,a3,543 # 1921f <heap.cpp.6b15d6f6+0x903f>
    2a80:	00e6ec63          	bltu	a3,a4,2a98 <T12_end+0x118>
    2a84:	fffce737          	lui	a4,0xfffce
    2a88:	bc170713          	addi	a4,a4,-1087 # fffcdbc1 <_sp+0xfffa31c1>
    2a8c:	00e787b3          	add	a5,a5,a4
    2a90:	fff00513          	li	a0,-1
    2a94:	e31ff06f          	j	28c4 <T12_start+0x2c0>
    2a98:	0004b737          	lui	a4,0x4b
    2a9c:	65f70713          	addi	a4,a4,1631 # 4b65f <_sp+0x20c5f>
    2aa0:	00100513          	li	a0,1
    2aa4:	e2f750e3          	bge	a4,a5,28c4 <T12_start+0x2c0>
    2aa8:	00065737          	lui	a4,0x65
    2aac:	87e70713          	addi	a4,a4,-1922 # 6487e <_sp+0x39e7e>
    2ab0:	40f707b3          	sub	a5,a4,a5
    2ab4:	fff00513          	li	a0,-1
    2ab8:	e0dff06f          	j	28c4 <T12_start+0x2c0>
    2abc:	00178793          	addi	a5,a5,1
    2ac0:	00470713          	addi	a4,a4,4
    2ac4:	00b78c63          	beq	a5,a1,2adc <T12_end+0x15c>
    2ac8:	00472683          	lw	a3,4(a4)
    2acc:	fec6c8e3          	blt	a3,a2,2abc <T12_end+0x13c>
    2ad0:	00068613          	mv	a2,a3
    2ad4:	00078513          	mv	a0,a5
    2ad8:	fe5ff06f          	j	2abc <T12_end+0x13c>
    2adc:	00020737          	lui	a4,0x20
    2ae0:	000207b7          	lui	a5,0x20
    2ae4:	07878793          	addi	a5,a5,120 # 20078 <next.6>
    2ae8:	20f54533          	sh2add	a0,a0,a5
    2aec:	00052783          	lw	a5,0(a0)
    2af0:	15870713          	addi	a4,a4,344 # 20158 <jump_table.19>
    2af4:	20e7c7b3          	sh2add	a5,a5,a4
    2af8:	0007a803          	lw	a6,0(a5)
    2afc:	894fe06f          	j	b90 <inferenceTPG+0x40>

00002b00 <T13_start>:
    2b00:	b0002673          	csrr	a2,mcycle
    2b04:	00892683          	lw	a3,8(s2)
    2b08:	0009a703          	lw	a4,0(s3)
    2b0c:	41f75793          	srai	a5,a4,0x1f
    2b10:	41f6d593          	srai	a1,a3,0x1f
    2b14:	02d787b3          	mul	a5,a5,a3
    2b18:	02e585b3          	mul	a1,a1,a4
    2b1c:	00b787b3          	add	a5,a5,a1
    2b20:	02d705b3          	mul	a1,a4,a3
    2b24:	02d73733          	mulhu	a4,a4,a3
    2b28:	00e787b3          	add	a5,a5,a4
    2b2c:	01079793          	slli	a5,a5,0x10
    2b30:	0105d713          	srli	a4,a1,0x10
    2b34:	00e78733          	add	a4,a5,a4
    2b38:	04e12e23          	sw	a4,92(sp)
    2b3c:	0044a703          	lw	a4,4(s1)
    2b40:	41f75793          	srai	a5,a4,0x1f
    2b44:	0004a503          	lw	a0,0(s1)
    2b48:	41f55593          	srai	a1,a0,0x1f
    2b4c:	02a787b3          	mul	a5,a5,a0
    2b50:	02e585b3          	mul	a1,a1,a4
    2b54:	00b787b3          	add	a5,a5,a1
    2b58:	02a705b3          	mul	a1,a4,a0
    2b5c:	02a73733          	mulhu	a4,a4,a0
    2b60:	00e787b3          	add	a5,a5,a4
    2b64:	01079793          	slli	a5,a5,0x10
    2b68:	0105d713          	srli	a4,a1,0x10
    2b6c:	00e78733          	add	a4,a5,a4
    2b70:	06e12023          	sw	a4,96(sp)
    2b74:	0049a703          	lw	a4,4(s3)
    2b78:	41f75793          	srai	a5,a4,0x1f
    2b7c:	0084a503          	lw	a0,8(s1)
    2b80:	41f55593          	srai	a1,a0,0x1f
    2b84:	02a787b3          	mul	a5,a5,a0
    2b88:	02e585b3          	mul	a1,a1,a4
    2b8c:	00b787b3          	add	a5,a5,a1
    2b90:	02a705b3          	mul	a1,a4,a0
    2b94:	02a73733          	mulhu	a4,a4,a0
    2b98:	00e787b3          	add	a5,a5,a4
    2b9c:	01079793          	slli	a5,a5,0x10
    2ba0:	0105d713          	srli	a4,a1,0x10
    2ba4:	00e78733          	add	a4,a5,a4
    2ba8:	06e12223          	sw	a4,100(sp)
    2bac:	00caa783          	lw	a5,12(s5)
    2bb0:	0ad7e7b3          	max	a5,a5,a3
    2bb4:	06f12423          	sw	a5,104(sp)

00002bb8 <T13_end>:
    2bb8:	b00027f3          	csrr	a5,mcycle
    2bbc:	40c787b3          	sub	a5,a5,a2
    2bc0:	02fa2a23          	sw	a5,52(s4)
    2bc4:	05c12683          	lw	a3,92(sp)
    2bc8:	06012703          	lw	a4,96(sp)
    2bcc:	00100793          	li	a5,1
    2bd0:	00d75663          	bge	a4,a3,2bdc <T13_end+0x24>
    2bd4:	00068713          	mv	a4,a3
    2bd8:	00000793          	li	a5,0
    2bdc:	06412683          	lw	a3,100(sp)
    2be0:	02e6dc63          	bge	a3,a4,2c18 <T13_end+0x60>
    2be4:	00070693          	mv	a3,a4
    2be8:	06812703          	lw	a4,104(sp)
    2bec:	00d74463          	blt	a4,a3,2bf4 <T13_end+0x3c>
    2bf0:	00300793          	li	a5,3
    2bf4:	00020737          	lui	a4,0x20
    2bf8:	000206b7          	lui	a3,0x20
    2bfc:	06868693          	addi	a3,a3,104 # 20068 <next.5>
    2c00:	20d7c7b3          	sh2add	a5,a5,a3
    2c04:	0007a783          	lw	a5,0(a5)
    2c08:	15870713          	addi	a4,a4,344 # 20158 <jump_table.19>
    2c0c:	20e7c7b3          	sh2add	a5,a5,a4
    2c10:	0007a803          	lw	a6,0(a5)
    2c14:	f7dfd06f          	j	b90 <inferenceTPG+0x40>
    2c18:	00200793          	li	a5,2
    2c1c:	fcdff06f          	j	2be8 <T13_end+0x30>

00002c20 <T14_start>:
    2c20:	b0002573          	csrr	a0,mcycle
    2c24:	000aa603          	lw	a2,0(s5)
    2c28:	0044a783          	lw	a5,4(s1)
    2c2c:	00c787b3          	add	a5,a5,a2
    2c30:	02f12823          	sw	a5,48(sp)
    2c34:	00492703          	lw	a4,4(s2)
    2c38:	41f75793          	srai	a5,a4,0x1f
    2c3c:	014aa583          	lw	a1,20(s5)
    2c40:	41f5d693          	srai	a3,a1,0x1f
    2c44:	02b787b3          	mul	a5,a5,a1
    2c48:	02e686b3          	mul	a3,a3,a4
    2c4c:	00d787b3          	add	a5,a5,a3
    2c50:	02b706b3          	mul	a3,a4,a1
    2c54:	02b73733          	mulhu	a4,a4,a1
    2c58:	00e787b3          	add	a5,a5,a4
    2c5c:	01079793          	slli	a5,a5,0x10
    2c60:	0106d713          	srli	a4,a3,0x10
    2c64:	00e78733          	add	a4,a5,a4
    2c68:	02e12a23          	sw	a4,52(sp)
    2c6c:	0004a783          	lw	a5,0(s1)
    2c70:	40f60633          	sub	a2,a2,a5
    2c74:	02c12c23          	sw	a2,56(sp)

00002c78 <T14_end>:
    2c78:	b00027f3          	csrr	a5,mcycle
    2c7c:	40a787b3          	sub	a5,a5,a0
    2c80:	02fa2c23          	sw	a5,56(s4)
    2c84:	03012683          	lw	a3,48(sp)
    2c88:	03412703          	lw	a4,52(sp)
    2c8c:	00100793          	li	a5,1
    2c90:	00d75663          	bge	a4,a3,2c9c <T14_end+0x24>
    2c94:	00068713          	mv	a4,a3
    2c98:	00000793          	li	a5,0
    2c9c:	03812683          	lw	a3,56(sp)
    2ca0:	00e6c463          	blt	a3,a4,2ca8 <T14_end+0x30>
    2ca4:	00200793          	li	a5,2
    2ca8:	00020737          	lui	a4,0x20
    2cac:	000206b7          	lui	a3,0x20
    2cb0:	05c68693          	addi	a3,a3,92 # 2005c <next.4>
    2cb4:	20d7c7b3          	sh2add	a5,a5,a3
    2cb8:	0007a783          	lw	a5,0(a5)
    2cbc:	15870713          	addi	a4,a4,344 # 20158 <jump_table.19>
    2cc0:	20e7c7b3          	sh2add	a5,a5,a4
    2cc4:	0007a803          	lw	a6,0(a5)
    2cc8:	ec9fd06f          	j	b90 <inferenceTPG+0x40>

00002ccc <T15_start>:
    2ccc:	b00025f3          	csrr	a1,mcycle
    2cd0:	010aa783          	lw	a5,16(s5)
    2cd4:	08f12a23          	sw	a5,148(sp)
    2cd8:	000aa503          	lw	a0,0(s5)
    2cdc:	0004a603          	lw	a2,0(s1)
    2ce0:	40c507b3          	sub	a5,a0,a2
    2ce4:	08f12c23          	sw	a5,152(sp)
    2ce8:	0049a703          	lw	a4,4(s3)
    2cec:	41f75793          	srai	a5,a4,0x1f
    2cf0:	41f65693          	srai	a3,a2,0x1f
    2cf4:	02c787b3          	mul	a5,a5,a2
    2cf8:	02e686b3          	mul	a3,a3,a4
    2cfc:	00d787b3          	add	a5,a5,a3
    2d00:	02c706b3          	mul	a3,a4,a2
    2d04:	02c73733          	mulhu	a4,a4,a2
    2d08:	00e787b3          	add	a5,a5,a4
    2d0c:	01079793          	slli	a5,a5,0x10
    2d10:	0106d713          	srli	a4,a3,0x10
    2d14:	00e78733          	add	a4,a5,a4
    2d18:	08e12e23          	sw	a4,156(sp)
    2d1c:	00892783          	lw	a5,8(s2)
    2d20:	0aa7e7b3          	max	a5,a5,a0
    2d24:	0af12023          	sw	a5,160(sp)
    2d28:	00492703          	lw	a4,4(s2)
    2d2c:	41f75793          	srai	a5,a4,0x1f
    2d30:	014aa603          	lw	a2,20(s5)
    2d34:	41f65693          	srai	a3,a2,0x1f
    2d38:	02c787b3          	mul	a5,a5,a2
    2d3c:	02e686b3          	mul	a3,a3,a4
    2d40:	00d787b3          	add	a5,a5,a3
    2d44:	02c706b3          	mul	a3,a4,a2
    2d48:	02c73733          	mulhu	a4,a4,a2
    2d4c:	00e787b3          	add	a5,a5,a4
    2d50:	01079793          	slli	a5,a5,0x10
    2d54:	0106d713          	srli	a4,a3,0x10
    2d58:	00e78733          	add	a4,a5,a4
    2d5c:	0ae12223          	sw	a4,164(sp)

00002d60 <T15_end>:
    2d60:	b00027f3          	csrr	a5,mcycle
    2d64:	40b787b3          	sub	a5,a5,a1
    2d68:	02fa2e23          	sw	a5,60(s4)
    2d6c:	09412603          	lw	a2,148(sp)
    2d70:	09410713          	addi	a4,sp,148
    2d74:	00000513          	li	a0,0
    2d78:	00100793          	li	a5,1
    2d7c:	00500593          	li	a1,5
    2d80:	0100006f          	j	2d90 <T15_end+0x30>
    2d84:	00178793          	addi	a5,a5,1
    2d88:	00470713          	addi	a4,a4,4
    2d8c:	00b78c63          	beq	a5,a1,2da4 <T15_end+0x44>
    2d90:	00472683          	lw	a3,4(a4)
    2d94:	fec6c8e3          	blt	a3,a2,2d84 <T15_end+0x24>
    2d98:	00068613          	mv	a2,a3
    2d9c:	00078513          	mv	a0,a5
    2da0:	fe5ff06f          	j	2d84 <T15_end+0x24>
    2da4:	00020737          	lui	a4,0x20
    2da8:	000207b7          	lui	a5,0x20
    2dac:	04878793          	addi	a5,a5,72 # 20048 <next.3>
    2db0:	20f54533          	sh2add	a0,a0,a5
    2db4:	00052783          	lw	a5,0(a0)
    2db8:	15870713          	addi	a4,a4,344 # 20158 <jump_table.19>
    2dbc:	20e7c7b3          	sh2add	a5,a5,a4
    2dc0:	0007a803          	lw	a6,0(a5)
    2dc4:	dcdfd06f          	j	b90 <inferenceTPG+0x40>

00002dc8 <T16_start>:
    2dc8:	b00026f3          	csrr	a3,mcycle
    2dcc:	000aa703          	lw	a4,0(s5)
    2dd0:	0004a783          	lw	a5,0(s1)
    2dd4:	40f707b3          	sub	a5,a4,a5
    2dd8:	00f12823          	sw	a5,16(sp)
    2ddc:	00892783          	lw	a5,8(s2)
    2de0:	0ae7e7b3          	max	a5,a5,a4
    2de4:	00f12a23          	sw	a5,20(sp)

00002de8 <T16_end>:
    2de8:	b00027f3          	csrr	a5,mcycle
    2dec:	40d787b3          	sub	a5,a5,a3
    2df0:	04fa2023          	sw	a5,64(s4)
    2df4:	00020737          	lui	a4,0x20
    2df8:	01012783          	lw	a5,16(sp)
    2dfc:	01412603          	lw	a2,20(sp)
    2e00:	00f627b3          	slt	a5,a2,a5
    2e04:	0017b793          	seqz	a5,a5
    2e08:	93018693          	addi	a3,gp,-1744 # 22778 <next.2>
    2e0c:	20d7c7b3          	sh2add	a5,a5,a3
    2e10:	0007a783          	lw	a5,0(a5)
    2e14:	15870713          	addi	a4,a4,344 # 20158 <jump_table.19>
    2e18:	20e7c7b3          	sh2add	a5,a5,a4
    2e1c:	0007a803          	lw	a6,0(a5)
    2e20:	d71fd06f          	j	b90 <inferenceTPG+0x40>
    2e24:	17712023          	sw	s7,352(sp)
    2e28:	15812e23          	sw	s8,348(sp)
    2e2c:	15912c23          	sw	s9,344(sp)
    2e30:	15a12a23          	sw	s10,340(sp)
    2e34:	15b12823          	sw	s11,336(sp)

00002e38 <T17_start>:
    2e38:	b00027f3          	csrr	a5,mcycle
    2e3c:	00078d93          	mv	s11,a5
    2e40:	000aa783          	lw	a5,0(s5)
    2e44:	00078c93          	mv	s9,a5
    2e48:	0004a783          	lw	a5,0(s1)
    2e4c:	00078c13          	mv	s8,a5
    2e50:	40fc87b3          	sub	a5,s9,a5
    2e54:	0cf12c23          	sw	a5,216(sp)
    2e58:	0049a783          	lw	a5,4(s3)
    2e5c:	00078b93          	mv	s7,a5
    2e60:	41f7d793          	srai	a5,a5,0x1f
    2e64:	00078d13          	mv	s10,a5
    2e68:	0044a703          	lw	a4,4(s1)
    2e6c:	41f75793          	srai	a5,a4,0x1f
    2e70:	037787b3          	mul	a5,a5,s7
    2e74:	02ed06b3          	mul	a3,s10,a4
    2e78:	00d787b3          	add	a5,a5,a3
    2e7c:	037706b3          	mul	a3,a4,s7
    2e80:	03773733          	mulhu	a4,a4,s7
    2e84:	00e787b3          	add	a5,a5,a4
    2e88:	01079793          	slli	a5,a5,0x10
    2e8c:	0106d713          	srli	a4,a3,0x10
    2e90:	00e78733          	add	a4,a5,a4
    2e94:	0ce12e23          	sw	a4,220(sp)
    2e98:	0084a603          	lw	a2,8(s1)
    2e9c:	02060463          	beqz	a2,2ec4 <T17_start+0x8c>
    2ea0:	0009a503          	lw	a0,0(s3)
    2ea4:	41f55793          	srai	a5,a0,0x1f
    2ea8:	01055593          	srli	a1,a0,0x10
    2eac:	01079793          	slli	a5,a5,0x10
    2eb0:	41f65693          	srai	a3,a2,0x1f
    2eb4:	01051513          	slli	a0,a0,0x10
    2eb8:	00f585b3          	add	a1,a1,a5
    2ebc:	2f9040ef          	jal	79b4 <__divdi3>
    2ec0:	00050613          	mv	a2,a0
    2ec4:	0ec12023          	sw	a2,224(sp)
    2ec8:	41fc5793          	srai	a5,s8,0x1f
    2ecc:	037787b3          	mul	a5,a5,s7
    2ed0:	038d0733          	mul	a4,s10,s8
    2ed4:	00e787b3          	add	a5,a5,a4
    2ed8:	037c06b3          	mul	a3,s8,s7
    2edc:	037c3733          	mulhu	a4,s8,s7
    2ee0:	00e787b3          	add	a5,a5,a4
    2ee4:	01079793          	slli	a5,a5,0x10
    2ee8:	0106d713          	srli	a4,a3,0x10
    2eec:	00e78733          	add	a4,a5,a4
    2ef0:	0ee12223          	sw	a4,228(sp)
    2ef4:	008aa783          	lw	a5,8(s5)
    2ef8:	418787b3          	sub	a5,a5,s8
    2efc:	0ef12423          	sw	a5,232(sp)
    2f00:	00892783          	lw	a5,8(s2)
    2f04:	0b97e7b3          	max	a5,a5,s9
    2f08:	0ef12623          	sw	a5,236(sp)

00002f0c <T17_end>:
    2f0c:	b00027f3          	csrr	a5,mcycle
    2f10:	41b787b3          	sub	a5,a5,s11
    2f14:	04fa2223          	sw	a5,68(s4)
    2f18:	0d812603          	lw	a2,216(sp)
    2f1c:	0dc10713          	addi	a4,sp,220
    2f20:	00000513          	li	a0,0
    2f24:	00100793          	li	a5,1
    2f28:	00600593          	li	a1,6
    2f2c:	0100006f          	j	2f3c <T17_end+0x30>
    2f30:	00178793          	addi	a5,a5,1
    2f34:	00470713          	addi	a4,a4,4
    2f38:	00b78c63          	beq	a5,a1,2f50 <T17_end+0x44>
    2f3c:	00072683          	lw	a3,0(a4)
    2f40:	fec6c8e3          	blt	a3,a2,2f30 <T17_end+0x24>
    2f44:	00068613          	mv	a2,a3
    2f48:	00078513          	mv	a0,a5
    2f4c:	fe5ff06f          	j	2f30 <T17_end+0x24>
    2f50:	00020737          	lui	a4,0x20
    2f54:	000207b7          	lui	a5,0x20
    2f58:	03078793          	addi	a5,a5,48 # 20030 <next.1>
    2f5c:	20f54533          	sh2add	a0,a0,a5
    2f60:	00052783          	lw	a5,0(a0)
    2f64:	15870713          	addi	a4,a4,344 # 20158 <jump_table.19>
    2f68:	20e7c7b3          	sh2add	a5,a5,a4
    2f6c:	0007a803          	lw	a6,0(a5)
    2f70:	16012b83          	lw	s7,352(sp)
    2f74:	15c12c03          	lw	s8,348(sp)
    2f78:	15812c83          	lw	s9,344(sp)
    2f7c:	15412d03          	lw	s10,340(sp)
    2f80:	15012d83          	lw	s11,336(sp)
    2f84:	c0dfd06f          	j	b90 <inferenceTPG+0x40>
    2f88:	00300793          	li	a5,3
    2f8c:	00fb2023          	sw	a5,0(s6)
    2f90:	17c12083          	lw	ra,380(sp)
    2f94:	17812483          	lw	s1,376(sp)
    2f98:	17412903          	lw	s2,372(sp)
    2f9c:	17012983          	lw	s3,368(sp)
    2fa0:	16c12a03          	lw	s4,364(sp)
    2fa4:	16812a83          	lw	s5,360(sp)
    2fa8:	16412b03          	lw	s6,356(sp)
    2fac:	18010113          	addi	sp,sp,384
    2fb0:	00008067          	ret
    2fb4:	00400793          	li	a5,4
    2fb8:	fd5ff06f          	j	2f8c <T17_end+0x80>
    2fbc:	00500793          	li	a5,5
    2fc0:	fcdff06f          	j	2f8c <T17_end+0x80>
    2fc4:	00600793          	li	a5,6
    2fc8:	fc5ff06f          	j	2f8c <T17_end+0x80>
    2fcc:	00700793          	li	a5,7
    2fd0:	fbdff06f          	j	2f8c <T17_end+0x80>
    2fd4:	00800793          	li	a5,8
    2fd8:	fb5ff06f          	j	2f8c <T17_end+0x80>
    2fdc:	00000793          	li	a5,0
    2fe0:	fadff06f          	j	2f8c <T17_end+0x80>
    2fe4:	00200793          	li	a5,2
    2fe8:	fa5ff06f          	j	2f8c <T17_end+0x80>
    2fec:	00100793          	li	a5,1
    2ff0:	f9dff06f          	j	2f8c <T17_end+0x80>

00002ff4 <handler_irq_fast_timer_1>:
    2ff4:	fc010113          	addi	sp,sp,-64
    2ff8:	02112e23          	sw	ra,60(sp)
    2ffc:	02512c23          	sw	t0,56(sp)
    3000:	02612a23          	sw	t1,52(sp)
    3004:	02712823          	sw	t2,48(sp)
    3008:	02a12623          	sw	a0,44(sp)
    300c:	02b12423          	sw	a1,40(sp)
    3010:	02c12223          	sw	a2,36(sp)
    3014:	02d12023          	sw	a3,32(sp)
    3018:	00e12e23          	sw	a4,28(sp)
    301c:	00f12c23          	sw	a5,24(sp)
    3020:	01012a23          	sw	a6,20(sp)
    3024:	01112823          	sw	a7,16(sp)
    3028:	01c12623          	sw	t3,12(sp)
    302c:	01d12423          	sw	t4,8(sp)
    3030:	01e12223          	sw	t5,4(sp)
    3034:	01f12023          	sw	t6,0(sp)
    3038:	200607b7          	lui	a5,0x20060
    303c:	00100713          	li	a4,1
    3040:	00e7a223          	sw	a4,4(a5) # 20060004 <_sp+0x20035604>
    3044:	b6cfd0ef          	jal	3b0 <fic_irq_timer_1>
    3048:	03c12083          	lw	ra,60(sp)
    304c:	03812283          	lw	t0,56(sp)
    3050:	03412303          	lw	t1,52(sp)
    3054:	03012383          	lw	t2,48(sp)
    3058:	02c12503          	lw	a0,44(sp)
    305c:	02812583          	lw	a1,40(sp)
    3060:	02412603          	lw	a2,36(sp)
    3064:	02012683          	lw	a3,32(sp)
    3068:	01c12703          	lw	a4,28(sp)
    306c:	01812783          	lw	a5,24(sp)
    3070:	01412803          	lw	a6,20(sp)
    3074:	01012883          	lw	a7,16(sp)
    3078:	00c12e03          	lw	t3,12(sp)
    307c:	00812e83          	lw	t4,8(sp)
    3080:	00412f03          	lw	t5,4(sp)
    3084:	00012f83          	lw	t6,0(sp)
    3088:	04010113          	addi	sp,sp,64
    308c:	30200073          	mret

00003090 <handler_irq_fast_timer_2>:
    3090:	fc010113          	addi	sp,sp,-64
    3094:	02112e23          	sw	ra,60(sp)
    3098:	02512c23          	sw	t0,56(sp)
    309c:	02612a23          	sw	t1,52(sp)
    30a0:	02712823          	sw	t2,48(sp)
    30a4:	02a12623          	sw	a0,44(sp)
    30a8:	02b12423          	sw	a1,40(sp)
    30ac:	02c12223          	sw	a2,36(sp)
    30b0:	02d12023          	sw	a3,32(sp)
    30b4:	00e12e23          	sw	a4,28(sp)
    30b8:	00f12c23          	sw	a5,24(sp)
    30bc:	01012a23          	sw	a6,20(sp)
    30c0:	01112823          	sw	a7,16(sp)
    30c4:	01c12623          	sw	t3,12(sp)
    30c8:	01d12423          	sw	t4,8(sp)
    30cc:	01e12223          	sw	t5,4(sp)
    30d0:	01f12023          	sw	t6,0(sp)
    30d4:	200607b7          	lui	a5,0x20060
    30d8:	00200713          	li	a4,2
    30dc:	00e7a223          	sw	a4,4(a5) # 20060004 <_sp+0x20035604>
    30e0:	af4fd0ef          	jal	3d4 <fic_irq_timer_2>
    30e4:	03c12083          	lw	ra,60(sp)
    30e8:	03812283          	lw	t0,56(sp)
    30ec:	03412303          	lw	t1,52(sp)
    30f0:	03012383          	lw	t2,48(sp)
    30f4:	02c12503          	lw	a0,44(sp)
    30f8:	02812583          	lw	a1,40(sp)
    30fc:	02412603          	lw	a2,36(sp)
    3100:	02012683          	lw	a3,32(sp)
    3104:	01c12703          	lw	a4,28(sp)
    3108:	01812783          	lw	a5,24(sp)
    310c:	01412803          	lw	a6,20(sp)
    3110:	01012883          	lw	a7,16(sp)
    3114:	00c12e03          	lw	t3,12(sp)
    3118:	00812e83          	lw	t4,8(sp)
    311c:	00412f03          	lw	t5,4(sp)
    3120:	00012f83          	lw	t6,0(sp)
    3124:	04010113          	addi	sp,sp,64
    3128:	30200073          	mret

0000312c <handler_irq_fast_timer_3>:
    312c:	fc010113          	addi	sp,sp,-64
    3130:	02112e23          	sw	ra,60(sp)
    3134:	02512c23          	sw	t0,56(sp)
    3138:	02612a23          	sw	t1,52(sp)
    313c:	02712823          	sw	t2,48(sp)
    3140:	02a12623          	sw	a0,44(sp)
    3144:	02b12423          	sw	a1,40(sp)
    3148:	02c12223          	sw	a2,36(sp)
    314c:	02d12023          	sw	a3,32(sp)
    3150:	00e12e23          	sw	a4,28(sp)
    3154:	00f12c23          	sw	a5,24(sp)
    3158:	01012a23          	sw	a6,20(sp)
    315c:	01112823          	sw	a7,16(sp)
    3160:	01c12623          	sw	t3,12(sp)
    3164:	01d12423          	sw	t4,8(sp)
    3168:	01e12223          	sw	t5,4(sp)
    316c:	01f12023          	sw	t6,0(sp)
    3170:	200607b7          	lui	a5,0x20060
    3174:	00400713          	li	a4,4
    3178:	00e7a223          	sw	a4,4(a5) # 20060004 <_sp+0x20035604>
    317c:	a7cfd0ef          	jal	3f8 <fic_irq_timer_3>
    3180:	03c12083          	lw	ra,60(sp)
    3184:	03812283          	lw	t0,56(sp)
    3188:	03412303          	lw	t1,52(sp)
    318c:	03012383          	lw	t2,48(sp)
    3190:	02c12503          	lw	a0,44(sp)
    3194:	02812583          	lw	a1,40(sp)
    3198:	02412603          	lw	a2,36(sp)
    319c:	02012683          	lw	a3,32(sp)
    31a0:	01c12703          	lw	a4,28(sp)
    31a4:	01812783          	lw	a5,24(sp)
    31a8:	01412803          	lw	a6,20(sp)
    31ac:	01012883          	lw	a7,16(sp)
    31b0:	00c12e03          	lw	t3,12(sp)
    31b4:	00812e83          	lw	t4,8(sp)
    31b8:	00412f03          	lw	t5,4(sp)
    31bc:	00012f83          	lw	t6,0(sp)
    31c0:	04010113          	addi	sp,sp,64
    31c4:	30200073          	mret

000031c8 <handler_irq_fast_dma_done>:
    31c8:	fc010113          	addi	sp,sp,-64
    31cc:	02112e23          	sw	ra,60(sp)
    31d0:	02512c23          	sw	t0,56(sp)
    31d4:	02612a23          	sw	t1,52(sp)
    31d8:	02712823          	sw	t2,48(sp)
    31dc:	02a12623          	sw	a0,44(sp)
    31e0:	02b12423          	sw	a1,40(sp)
    31e4:	02c12223          	sw	a2,36(sp)
    31e8:	02d12023          	sw	a3,32(sp)
    31ec:	00e12e23          	sw	a4,28(sp)
    31f0:	00f12c23          	sw	a5,24(sp)
    31f4:	01012a23          	sw	a6,20(sp)
    31f8:	01112823          	sw	a7,16(sp)
    31fc:	01c12623          	sw	t3,12(sp)
    3200:	01d12423          	sw	t4,8(sp)
    3204:	01e12223          	sw	t5,4(sp)
    3208:	01f12023          	sw	t6,0(sp)
    320c:	200607b7          	lui	a5,0x20060
    3210:	00800713          	li	a4,8
    3214:	00e7a223          	sw	a4,4(a5) # 20060004 <_sp+0x20035604>
    3218:	89cfd0ef          	jal	2b4 <fic_irq_dma_done>
    321c:	03c12083          	lw	ra,60(sp)
    3220:	03812283          	lw	t0,56(sp)
    3224:	03412303          	lw	t1,52(sp)
    3228:	03012383          	lw	t2,48(sp)
    322c:	02c12503          	lw	a0,44(sp)
    3230:	02812583          	lw	a1,40(sp)
    3234:	02412603          	lw	a2,36(sp)
    3238:	02012683          	lw	a3,32(sp)
    323c:	01c12703          	lw	a4,28(sp)
    3240:	01812783          	lw	a5,24(sp)
    3244:	01412803          	lw	a6,20(sp)
    3248:	01012883          	lw	a7,16(sp)
    324c:	00c12e03          	lw	t3,12(sp)
    3250:	00812e83          	lw	t4,8(sp)
    3254:	00412f03          	lw	t5,4(sp)
    3258:	00012f83          	lw	t6,0(sp)
    325c:	04010113          	addi	sp,sp,64
    3260:	30200073          	mret

00003264 <handler_irq_fast_dma_window>:
    3264:	fc010113          	addi	sp,sp,-64
    3268:	02112e23          	sw	ra,60(sp)
    326c:	02512c23          	sw	t0,56(sp)
    3270:	02612a23          	sw	t1,52(sp)
    3274:	02712823          	sw	t2,48(sp)
    3278:	02a12623          	sw	a0,44(sp)
    327c:	02b12423          	sw	a1,40(sp)
    3280:	02c12223          	sw	a2,36(sp)
    3284:	02d12023          	sw	a3,32(sp)
    3288:	00e12e23          	sw	a4,28(sp)
    328c:	00f12c23          	sw	a5,24(sp)
    3290:	01012a23          	sw	a6,20(sp)
    3294:	01112823          	sw	a7,16(sp)
    3298:	01c12623          	sw	t3,12(sp)
    329c:	01d12423          	sw	t4,8(sp)
    32a0:	01e12223          	sw	t5,4(sp)
    32a4:	01f12023          	sw	t6,0(sp)
    32a8:	200607b7          	lui	a5,0x20060
    32ac:	00004737          	lui	a4,0x4
    32b0:	00e7a223          	sw	a4,4(a5) # 20060004 <_sp+0x20035604>
    32b4:	f81fc0ef          	jal	234 <fic_irq_dma_window>
    32b8:	03c12083          	lw	ra,60(sp)
    32bc:	03812283          	lw	t0,56(sp)
    32c0:	03412303          	lw	t1,52(sp)
    32c4:	03012383          	lw	t2,48(sp)
    32c8:	02c12503          	lw	a0,44(sp)
    32cc:	02812583          	lw	a1,40(sp)
    32d0:	02412603          	lw	a2,36(sp)
    32d4:	02012683          	lw	a3,32(sp)
    32d8:	01c12703          	lw	a4,28(sp)
    32dc:	01812783          	lw	a5,24(sp)
    32e0:	01412803          	lw	a6,20(sp)
    32e4:	01012883          	lw	a7,16(sp)
    32e8:	00c12e03          	lw	t3,12(sp)
    32ec:	00812e83          	lw	t4,8(sp)
    32f0:	00412f03          	lw	t5,4(sp)
    32f4:	00012f83          	lw	t6,0(sp)
    32f8:	04010113          	addi	sp,sp,64
    32fc:	30200073          	mret

00003300 <handler_irq_fast_external_peripheral>:
    3300:	fc010113          	addi	sp,sp,-64
    3304:	02112e23          	sw	ra,60(sp)
    3308:	02512c23          	sw	t0,56(sp)
    330c:	02612a23          	sw	t1,52(sp)
    3310:	02712823          	sw	t2,48(sp)
    3314:	02a12623          	sw	a0,44(sp)
    3318:	02b12423          	sw	a1,40(sp)
    331c:	02c12223          	sw	a2,36(sp)
    3320:	02d12023          	sw	a3,32(sp)
    3324:	00e12e23          	sw	a4,28(sp)
    3328:	00f12c23          	sw	a5,24(sp)
    332c:	01012a23          	sw	a6,20(sp)
    3330:	01112823          	sw	a7,16(sp)
    3334:	01c12623          	sw	t3,12(sp)
    3338:	01d12423          	sw	t4,8(sp)
    333c:	01e12223          	sw	t5,4(sp)
    3340:	01f12023          	sw	t6,0(sp)
    3344:	200607b7          	lui	a5,0x20060
    3348:	00008737          	lui	a4,0x8
    334c:	00e7a223          	sw	a4,4(a5) # 20060004 <_sp+0x20035604>
    3350:	8ccfd0ef          	jal	41c <fic_irq_ext_peripheral>
    3354:	03c12083          	lw	ra,60(sp)
    3358:	03812283          	lw	t0,56(sp)
    335c:	03412303          	lw	t1,52(sp)
    3360:	03012383          	lw	t2,48(sp)
    3364:	02c12503          	lw	a0,44(sp)
    3368:	02812583          	lw	a1,40(sp)
    336c:	02412603          	lw	a2,36(sp)
    3370:	02012683          	lw	a3,32(sp)
    3374:	01c12703          	lw	a4,28(sp)
    3378:	01812783          	lw	a5,24(sp)
    337c:	01412803          	lw	a6,20(sp)
    3380:	01012883          	lw	a7,16(sp)
    3384:	00c12e03          	lw	t3,12(sp)
    3388:	00812e83          	lw	t4,8(sp)
    338c:	00412f03          	lw	t5,4(sp)
    3390:	00012f83          	lw	t6,0(sp)
    3394:	04010113          	addi	sp,sp,64
    3398:	30200073          	mret

0000339c <handler_irq_fast_gpio_0>:
    339c:	fc010113          	addi	sp,sp,-64
    33a0:	02112e23          	sw	ra,60(sp)
    33a4:	02512c23          	sw	t0,56(sp)
    33a8:	02612a23          	sw	t1,52(sp)
    33ac:	02712823          	sw	t2,48(sp)
    33b0:	02a12623          	sw	a0,44(sp)
    33b4:	02b12423          	sw	a1,40(sp)
    33b8:	02c12223          	sw	a2,36(sp)
    33bc:	02d12023          	sw	a3,32(sp)
    33c0:	00e12e23          	sw	a4,28(sp)
    33c4:	00f12c23          	sw	a5,24(sp)
    33c8:	01012a23          	sw	a6,20(sp)
    33cc:	01112823          	sw	a7,16(sp)
    33d0:	01c12623          	sw	t3,12(sp)
    33d4:	01d12423          	sw	t4,8(sp)
    33d8:	01e12223          	sw	t5,4(sp)
    33dc:	01f12023          	sw	t6,0(sp)
    33e0:	200607b7          	lui	a5,0x20060
    33e4:	04000713          	li	a4,64
    33e8:	00e7a223          	sw	a4,4(a5) # 20060004 <_sp+0x20035604>
    33ec:	854fd0ef          	jal	440 <fic_irq_gpio_0>
    33f0:	03c12083          	lw	ra,60(sp)
    33f4:	03812283          	lw	t0,56(sp)
    33f8:	03412303          	lw	t1,52(sp)
    33fc:	03012383          	lw	t2,48(sp)
    3400:	02c12503          	lw	a0,44(sp)
    3404:	02812583          	lw	a1,40(sp)
    3408:	02412603          	lw	a2,36(sp)
    340c:	02012683          	lw	a3,32(sp)
    3410:	01c12703          	lw	a4,28(sp)
    3414:	01812783          	lw	a5,24(sp)
    3418:	01412803          	lw	a6,20(sp)
    341c:	01012883          	lw	a7,16(sp)
    3420:	00c12e03          	lw	t3,12(sp)
    3424:	00812e83          	lw	t4,8(sp)
    3428:	00412f03          	lw	t5,4(sp)
    342c:	00012f83          	lw	t6,0(sp)
    3430:	04010113          	addi	sp,sp,64
    3434:	30200073          	mret

00003438 <handler_irq_fast_gpio_1>:
    3438:	fc010113          	addi	sp,sp,-64
    343c:	02112e23          	sw	ra,60(sp)
    3440:	02512c23          	sw	t0,56(sp)
    3444:	02612a23          	sw	t1,52(sp)
    3448:	02712823          	sw	t2,48(sp)
    344c:	02a12623          	sw	a0,44(sp)
    3450:	02b12423          	sw	a1,40(sp)
    3454:	02c12223          	sw	a2,36(sp)
    3458:	02d12023          	sw	a3,32(sp)
    345c:	00e12e23          	sw	a4,28(sp)
    3460:	00f12c23          	sw	a5,24(sp)
    3464:	01012a23          	sw	a6,20(sp)
    3468:	01112823          	sw	a7,16(sp)
    346c:	01c12623          	sw	t3,12(sp)
    3470:	01d12423          	sw	t4,8(sp)
    3474:	01e12223          	sw	t5,4(sp)
    3478:	01f12023          	sw	t6,0(sp)
    347c:	200607b7          	lui	a5,0x20060
    3480:	08000713          	li	a4,128
    3484:	00e7a223          	sw	a4,4(a5) # 20060004 <_sp+0x20035604>
    3488:	fddfc0ef          	jal	464 <fic_irq_gpio_1>
    348c:	03c12083          	lw	ra,60(sp)
    3490:	03812283          	lw	t0,56(sp)
    3494:	03412303          	lw	t1,52(sp)
    3498:	03012383          	lw	t2,48(sp)
    349c:	02c12503          	lw	a0,44(sp)
    34a0:	02812583          	lw	a1,40(sp)
    34a4:	02412603          	lw	a2,36(sp)
    34a8:	02012683          	lw	a3,32(sp)
    34ac:	01c12703          	lw	a4,28(sp)
    34b0:	01812783          	lw	a5,24(sp)
    34b4:	01412803          	lw	a6,20(sp)
    34b8:	01012883          	lw	a7,16(sp)
    34bc:	00c12e03          	lw	t3,12(sp)
    34c0:	00812e83          	lw	t4,8(sp)
    34c4:	00412f03          	lw	t5,4(sp)
    34c8:	00012f83          	lw	t6,0(sp)
    34cc:	04010113          	addi	sp,sp,64
    34d0:	30200073          	mret

000034d4 <handler_irq_fast_gpio_2>:
    34d4:	fc010113          	addi	sp,sp,-64
    34d8:	02112e23          	sw	ra,60(sp)
    34dc:	02512c23          	sw	t0,56(sp)
    34e0:	02612a23          	sw	t1,52(sp)
    34e4:	02712823          	sw	t2,48(sp)
    34e8:	02a12623          	sw	a0,44(sp)
    34ec:	02b12423          	sw	a1,40(sp)
    34f0:	02c12223          	sw	a2,36(sp)
    34f4:	02d12023          	sw	a3,32(sp)
    34f8:	00e12e23          	sw	a4,28(sp)
    34fc:	00f12c23          	sw	a5,24(sp)
    3500:	01012a23          	sw	a6,20(sp)
    3504:	01112823          	sw	a7,16(sp)
    3508:	01c12623          	sw	t3,12(sp)
    350c:	01d12423          	sw	t4,8(sp)
    3510:	01e12223          	sw	t5,4(sp)
    3514:	01f12023          	sw	t6,0(sp)
    3518:	200607b7          	lui	a5,0x20060
    351c:	10000713          	li	a4,256
    3520:	00e7a223          	sw	a4,4(a5) # 20060004 <_sp+0x20035604>
    3524:	f65fc0ef          	jal	488 <fic_irq_gpio_2>
    3528:	03c12083          	lw	ra,60(sp)
    352c:	03812283          	lw	t0,56(sp)
    3530:	03412303          	lw	t1,52(sp)
    3534:	03012383          	lw	t2,48(sp)
    3538:	02c12503          	lw	a0,44(sp)
    353c:	02812583          	lw	a1,40(sp)
    3540:	02412603          	lw	a2,36(sp)
    3544:	02012683          	lw	a3,32(sp)
    3548:	01c12703          	lw	a4,28(sp)
    354c:	01812783          	lw	a5,24(sp)
    3550:	01412803          	lw	a6,20(sp)
    3554:	01012883          	lw	a7,16(sp)
    3558:	00c12e03          	lw	t3,12(sp)
    355c:	00812e83          	lw	t4,8(sp)
    3560:	00412f03          	lw	t5,4(sp)
    3564:	00012f83          	lw	t6,0(sp)
    3568:	04010113          	addi	sp,sp,64
    356c:	30200073          	mret

00003570 <handler_irq_fast_gpio_3>:
    3570:	fc010113          	addi	sp,sp,-64
    3574:	02112e23          	sw	ra,60(sp)
    3578:	02512c23          	sw	t0,56(sp)
    357c:	02612a23          	sw	t1,52(sp)
    3580:	02712823          	sw	t2,48(sp)
    3584:	02a12623          	sw	a0,44(sp)
    3588:	02b12423          	sw	a1,40(sp)
    358c:	02c12223          	sw	a2,36(sp)
    3590:	02d12023          	sw	a3,32(sp)
    3594:	00e12e23          	sw	a4,28(sp)
    3598:	00f12c23          	sw	a5,24(sp)
    359c:	01012a23          	sw	a6,20(sp)
    35a0:	01112823          	sw	a7,16(sp)
    35a4:	01c12623          	sw	t3,12(sp)
    35a8:	01d12423          	sw	t4,8(sp)
    35ac:	01e12223          	sw	t5,4(sp)
    35b0:	01f12023          	sw	t6,0(sp)
    35b4:	200607b7          	lui	a5,0x20060
    35b8:	20000713          	li	a4,512
    35bc:	00e7a223          	sw	a4,4(a5) # 20060004 <_sp+0x20035604>
    35c0:	eedfc0ef          	jal	4ac <fic_irq_gpio_3>
    35c4:	03c12083          	lw	ra,60(sp)
    35c8:	03812283          	lw	t0,56(sp)
    35cc:	03412303          	lw	t1,52(sp)
    35d0:	03012383          	lw	t2,48(sp)
    35d4:	02c12503          	lw	a0,44(sp)
    35d8:	02812583          	lw	a1,40(sp)
    35dc:	02412603          	lw	a2,36(sp)
    35e0:	02012683          	lw	a3,32(sp)
    35e4:	01c12703          	lw	a4,28(sp)
    35e8:	01812783          	lw	a5,24(sp)
    35ec:	01412803          	lw	a6,20(sp)
    35f0:	01012883          	lw	a7,16(sp)
    35f4:	00c12e03          	lw	t3,12(sp)
    35f8:	00812e83          	lw	t4,8(sp)
    35fc:	00412f03          	lw	t5,4(sp)
    3600:	00012f83          	lw	t6,0(sp)
    3604:	04010113          	addi	sp,sp,64
    3608:	30200073          	mret

0000360c <handler_irq_fast_gpio_4>:
    360c:	fc010113          	addi	sp,sp,-64
    3610:	02112e23          	sw	ra,60(sp)
    3614:	02512c23          	sw	t0,56(sp)
    3618:	02612a23          	sw	t1,52(sp)
    361c:	02712823          	sw	t2,48(sp)
    3620:	02a12623          	sw	a0,44(sp)
    3624:	02b12423          	sw	a1,40(sp)
    3628:	02c12223          	sw	a2,36(sp)
    362c:	02d12023          	sw	a3,32(sp)
    3630:	00e12e23          	sw	a4,28(sp)
    3634:	00f12c23          	sw	a5,24(sp)
    3638:	01012a23          	sw	a6,20(sp)
    363c:	01112823          	sw	a7,16(sp)
    3640:	01c12623          	sw	t3,12(sp)
    3644:	01d12423          	sw	t4,8(sp)
    3648:	01e12223          	sw	t5,4(sp)
    364c:	01f12023          	sw	t6,0(sp)
    3650:	200607b7          	lui	a5,0x20060
    3654:	40000713          	li	a4,1024
    3658:	00e7a223          	sw	a4,4(a5) # 20060004 <_sp+0x20035604>
    365c:	e75fc0ef          	jal	4d0 <fic_irq_gpio_4>
    3660:	03c12083          	lw	ra,60(sp)
    3664:	03812283          	lw	t0,56(sp)
    3668:	03412303          	lw	t1,52(sp)
    366c:	03012383          	lw	t2,48(sp)
    3670:	02c12503          	lw	a0,44(sp)
    3674:	02812583          	lw	a1,40(sp)
    3678:	02412603          	lw	a2,36(sp)
    367c:	02012683          	lw	a3,32(sp)
    3680:	01c12703          	lw	a4,28(sp)
    3684:	01812783          	lw	a5,24(sp)
    3688:	01412803          	lw	a6,20(sp)
    368c:	01012883          	lw	a7,16(sp)
    3690:	00c12e03          	lw	t3,12(sp)
    3694:	00812e83          	lw	t4,8(sp)
    3698:	00412f03          	lw	t5,4(sp)
    369c:	00012f83          	lw	t6,0(sp)
    36a0:	04010113          	addi	sp,sp,64
    36a4:	30200073          	mret

000036a8 <handler_irq_fast_gpio_5>:
    36a8:	fc010113          	addi	sp,sp,-64
    36ac:	02112e23          	sw	ra,60(sp)
    36b0:	02512c23          	sw	t0,56(sp)
    36b4:	02612a23          	sw	t1,52(sp)
    36b8:	02712823          	sw	t2,48(sp)
    36bc:	02a12623          	sw	a0,44(sp)
    36c0:	02b12423          	sw	a1,40(sp)
    36c4:	02c12223          	sw	a2,36(sp)
    36c8:	02d12023          	sw	a3,32(sp)
    36cc:	00e12e23          	sw	a4,28(sp)
    36d0:	00f12c23          	sw	a5,24(sp)
    36d4:	01012a23          	sw	a6,20(sp)
    36d8:	01112823          	sw	a7,16(sp)
    36dc:	01c12623          	sw	t3,12(sp)
    36e0:	01d12423          	sw	t4,8(sp)
    36e4:	01e12223          	sw	t5,4(sp)
    36e8:	01f12023          	sw	t6,0(sp)
    36ec:	20060737          	lui	a4,0x20060
    36f0:	000017b7          	lui	a5,0x1
    36f4:	80078793          	addi	a5,a5,-2048 # 800 <spi_event_handler+0x110>
    36f8:	00f72223          	sw	a5,4(a4) # 20060004 <_sp+0x20035604>
    36fc:	df9fc0ef          	jal	4f4 <fic_irq_gpio_5>
    3700:	03c12083          	lw	ra,60(sp)
    3704:	03812283          	lw	t0,56(sp)
    3708:	03412303          	lw	t1,52(sp)
    370c:	03012383          	lw	t2,48(sp)
    3710:	02c12503          	lw	a0,44(sp)
    3714:	02812583          	lw	a1,40(sp)
    3718:	02412603          	lw	a2,36(sp)
    371c:	02012683          	lw	a3,32(sp)
    3720:	01c12703          	lw	a4,28(sp)
    3724:	01812783          	lw	a5,24(sp)
    3728:	01412803          	lw	a6,20(sp)
    372c:	01012883          	lw	a7,16(sp)
    3730:	00c12e03          	lw	t3,12(sp)
    3734:	00812e83          	lw	t4,8(sp)
    3738:	00412f03          	lw	t5,4(sp)
    373c:	00012f83          	lw	t6,0(sp)
    3740:	04010113          	addi	sp,sp,64
    3744:	30200073          	mret

00003748 <handler_irq_fast_gpio_6>:
    3748:	fc010113          	addi	sp,sp,-64
    374c:	02112e23          	sw	ra,60(sp)
    3750:	02512c23          	sw	t0,56(sp)
    3754:	02612a23          	sw	t1,52(sp)
    3758:	02712823          	sw	t2,48(sp)
    375c:	02a12623          	sw	a0,44(sp)
    3760:	02b12423          	sw	a1,40(sp)
    3764:	02c12223          	sw	a2,36(sp)
    3768:	02d12023          	sw	a3,32(sp)
    376c:	00e12e23          	sw	a4,28(sp)
    3770:	00f12c23          	sw	a5,24(sp)
    3774:	01012a23          	sw	a6,20(sp)
    3778:	01112823          	sw	a7,16(sp)
    377c:	01c12623          	sw	t3,12(sp)
    3780:	01d12423          	sw	t4,8(sp)
    3784:	01e12223          	sw	t5,4(sp)
    3788:	01f12023          	sw	t6,0(sp)
    378c:	200607b7          	lui	a5,0x20060
    3790:	00001737          	lui	a4,0x1
    3794:	00e7a223          	sw	a4,4(a5) # 20060004 <_sp+0x20035604>
    3798:	d81fc0ef          	jal	518 <fic_irq_gpio_6>
    379c:	03c12083          	lw	ra,60(sp)
    37a0:	03812283          	lw	t0,56(sp)
    37a4:	03412303          	lw	t1,52(sp)
    37a8:	03012383          	lw	t2,48(sp)
    37ac:	02c12503          	lw	a0,44(sp)
    37b0:	02812583          	lw	a1,40(sp)
    37b4:	02412603          	lw	a2,36(sp)
    37b8:	02012683          	lw	a3,32(sp)
    37bc:	01c12703          	lw	a4,28(sp)
    37c0:	01812783          	lw	a5,24(sp)
    37c4:	01412803          	lw	a6,20(sp)
    37c8:	01012883          	lw	a7,16(sp)
    37cc:	00c12e03          	lw	t3,12(sp)
    37d0:	00812e83          	lw	t4,8(sp)
    37d4:	00412f03          	lw	t5,4(sp)
    37d8:	00012f83          	lw	t6,0(sp)
    37dc:	04010113          	addi	sp,sp,64
    37e0:	30200073          	mret

000037e4 <handler_irq_fast_gpio_7>:
    37e4:	fc010113          	addi	sp,sp,-64
    37e8:	02112e23          	sw	ra,60(sp)
    37ec:	02512c23          	sw	t0,56(sp)
    37f0:	02612a23          	sw	t1,52(sp)
    37f4:	02712823          	sw	t2,48(sp)
    37f8:	02a12623          	sw	a0,44(sp)
    37fc:	02b12423          	sw	a1,40(sp)
    3800:	02c12223          	sw	a2,36(sp)
    3804:	02d12023          	sw	a3,32(sp)
    3808:	00e12e23          	sw	a4,28(sp)
    380c:	00f12c23          	sw	a5,24(sp)
    3810:	01012a23          	sw	a6,20(sp)
    3814:	01112823          	sw	a7,16(sp)
    3818:	01c12623          	sw	t3,12(sp)
    381c:	01d12423          	sw	t4,8(sp)
    3820:	01e12223          	sw	t5,4(sp)
    3824:	01f12023          	sw	t6,0(sp)
    3828:	200607b7          	lui	a5,0x20060
    382c:	00002737          	lui	a4,0x2
    3830:	00e7a223          	sw	a4,4(a5) # 20060004 <_sp+0x20035604>
    3834:	d09fc0ef          	jal	53c <fic_irq_gpio_7>
    3838:	03c12083          	lw	ra,60(sp)
    383c:	03812283          	lw	t0,56(sp)
    3840:	03412303          	lw	t1,52(sp)
    3844:	03012383          	lw	t2,48(sp)
    3848:	02c12503          	lw	a0,44(sp)
    384c:	02812583          	lw	a1,40(sp)
    3850:	02412603          	lw	a2,36(sp)
    3854:	02012683          	lw	a3,32(sp)
    3858:	01c12703          	lw	a4,28(sp)
    385c:	01812783          	lw	a5,24(sp)
    3860:	01412803          	lw	a6,20(sp)
    3864:	01012883          	lw	a7,16(sp)
    3868:	00c12e03          	lw	t3,12(sp)
    386c:	00812e83          	lw	t4,8(sp)
    3870:	00412f03          	lw	t5,4(sp)
    3874:	00012f83          	lw	t6,0(sp)
    3878:	04010113          	addi	sp,sp,64
    387c:	30200073          	mret

00003880 <handler_irq_external>:
    3880:	fb010113          	addi	sp,sp,-80
    3884:	04112623          	sw	ra,76(sp)
    3888:	04512423          	sw	t0,72(sp)
    388c:	04612223          	sw	t1,68(sp)
    3890:	04712023          	sw	t2,64(sp)
    3894:	02912e23          	sw	s1,60(sp)
    3898:	02a12c23          	sw	a0,56(sp)
    389c:	02b12a23          	sw	a1,52(sp)
    38a0:	02c12823          	sw	a2,48(sp)
    38a4:	02d12623          	sw	a3,44(sp)
    38a8:	02e12423          	sw	a4,40(sp)
    38ac:	02f12223          	sw	a5,36(sp)
    38b0:	03012023          	sw	a6,32(sp)
    38b4:	01112e23          	sw	a7,28(sp)
    38b8:	01212c23          	sw	s2,24(sp)
    38bc:	01c12a23          	sw	t3,20(sp)
    38c0:	01d12823          	sw	t4,16(sp)
    38c4:	01e12623          	sw	t5,12(sp)
    38c8:	01f12423          	sw	t6,8(sp)
    38cc:	300004b7          	lui	s1,0x30000
    38d0:	20c4a903          	lw	s2,524(s1) # 3000020c <_sp+0x2ffd580c>
    38d4:	00090513          	mv	a0,s2
    38d8:	00000793          	li	a5,0
    38dc:	000780e7          	jalr	a5
    38e0:	2124a623          	sw	s2,524(s1)
    38e4:	04c12083          	lw	ra,76(sp)
    38e8:	04812283          	lw	t0,72(sp)
    38ec:	04412303          	lw	t1,68(sp)
    38f0:	04012383          	lw	t2,64(sp)
    38f4:	03c12483          	lw	s1,60(sp)
    38f8:	03812503          	lw	a0,56(sp)
    38fc:	03412583          	lw	a1,52(sp)
    3900:	03012603          	lw	a2,48(sp)
    3904:	02c12683          	lw	a3,44(sp)
    3908:	02812703          	lw	a4,40(sp)
    390c:	02412783          	lw	a5,36(sp)
    3910:	02012803          	lw	a6,32(sp)
    3914:	01c12883          	lw	a7,28(sp)
    3918:	01812903          	lw	s2,24(sp)
    391c:	01412e03          	lw	t3,20(sp)
    3920:	01012e83          	lw	t4,16(sp)
    3924:	00c12f03          	lw	t5,12(sp)
    3928:	00812f83          	lw	t6,8(sp)
    392c:	05010113          	addi	sp,sp,80
    3930:	30200073          	mret

00003934 <handler_exception>:
    3934:	fc010113          	addi	sp,sp,-64
    3938:	02112e23          	sw	ra,60(sp)
    393c:	02512c23          	sw	t0,56(sp)
    3940:	02612a23          	sw	t1,52(sp)
    3944:	02712823          	sw	t2,48(sp)
    3948:	02a12623          	sw	a0,44(sp)
    394c:	02b12423          	sw	a1,40(sp)
    3950:	02c12223          	sw	a2,36(sp)
    3954:	02d12023          	sw	a3,32(sp)
    3958:	00e12e23          	sw	a4,28(sp)
    395c:	00f12c23          	sw	a5,24(sp)
    3960:	01012a23          	sw	a6,20(sp)
    3964:	01112823          	sw	a7,16(sp)
    3968:	01c12623          	sw	t3,12(sp)
    396c:	01d12423          	sw	t4,8(sp)
    3970:	01e12223          	sw	t5,4(sp)
    3974:	01f12023          	sw	t6,0(sp)
    3978:	342027f3          	csrr	a5,mcause
    397c:	01f7f793          	andi	a5,a5,31
    3980:	00b00713          	li	a4,11
    3984:	06f76863          	bltu	a4,a5,39f4 <handler_exception+0xc0>
    3988:	00020737          	lui	a4,0x20
    398c:	00070713          	mv	a4,a4
    3990:	20e7c7b3          	sh2add	a5,a5,a4
    3994:	0007a783          	lw	a5,0(a5)
    3998:	00078067          	jr	a5
    399c:	00020537          	lui	a0,0x20
    39a0:	40450513          	addi	a0,a0,1028 # 20404 <__clz_tab+0x1c0>
    39a4:	958fd0ef          	jal	afc <print_exc_msg>
    39a8:	00020537          	lui	a0,0x20
    39ac:	40450513          	addi	a0,a0,1028 # 20404 <__clz_tab+0x1c0>
    39b0:	94cfd0ef          	jal	afc <print_exc_msg>
    39b4:	00020537          	lui	a0,0x20
    39b8:	43c50513          	addi	a0,a0,1084 # 2043c <__clz_tab+0x1f8>
    39bc:	940fd0ef          	jal	afc <print_exc_msg>
    39c0:	00020537          	lui	a0,0x20
    39c4:	47850513          	addi	a0,a0,1144 # 20478 <__clz_tab+0x234>
    39c8:	934fd0ef          	jal	afc <print_exc_msg>
    39cc:	00020537          	lui	a0,0x20
    39d0:	4b450513          	addi	a0,a0,1204 # 204b4 <__clz_tab+0x270>
    39d4:	928fd0ef          	jal	afc <print_exc_msg>
    39d8:	00020537          	lui	a0,0x20
    39dc:	4b450513          	addi	a0,a0,1204 # 204b4 <__clz_tab+0x270>
    39e0:	91cfd0ef          	jal	afc <print_exc_msg>
    39e4:	00020537          	lui	a0,0x20
    39e8:	4e850513          	addi	a0,a0,1256 # 204e8 <__clz_tab+0x2a4>
    39ec:	8dcfd0ef          	jal	ac8 <_writestr>
    39f0:	0000006f          	j	39f0 <handler_exception+0xbc>
    39f4:	0000006f          	j	39f4 <handler_exception+0xc0>

000039f8 <handler_irq_software>:
    39f8:	fc010113          	addi	sp,sp,-64
    39fc:	02112e23          	sw	ra,60(sp)
    3a00:	02512c23          	sw	t0,56(sp)
    3a04:	02612a23          	sw	t1,52(sp)
    3a08:	02712823          	sw	t2,48(sp)
    3a0c:	02a12623          	sw	a0,44(sp)
    3a10:	02b12423          	sw	a1,40(sp)
    3a14:	02c12223          	sw	a2,36(sp)
    3a18:	02d12023          	sw	a3,32(sp)
    3a1c:	00e12e23          	sw	a4,28(sp)
    3a20:	00f12c23          	sw	a5,24(sp)
    3a24:	01012a23          	sw	a6,20(sp)
    3a28:	01112823          	sw	a7,16(sp)
    3a2c:	01c12623          	sw	t3,12(sp)
    3a30:	01d12423          	sw	t4,8(sp)
    3a34:	01e12223          	sw	t5,4(sp)
    3a38:	01f12023          	sw	t6,0(sp)
    3a3c:	00020537          	lui	a0,0x20
    3a40:	50850513          	addi	a0,a0,1288 # 20508 <__clz_tab+0x2c4>
    3a44:	884fd0ef          	jal	ac8 <_writestr>
    3a48:	0000006f          	j	3a48 <handler_irq_software+0x50>

00003a4c <handler_irq_timer>:
    3a4c:	fc010113          	addi	sp,sp,-64
    3a50:	02112e23          	sw	ra,60(sp)
    3a54:	02512c23          	sw	t0,56(sp)
    3a58:	02612a23          	sw	t1,52(sp)
    3a5c:	02712823          	sw	t2,48(sp)
    3a60:	02a12623          	sw	a0,44(sp)
    3a64:	02b12423          	sw	a1,40(sp)
    3a68:	02c12223          	sw	a2,36(sp)
    3a6c:	02d12023          	sw	a3,32(sp)
    3a70:	00e12e23          	sw	a4,28(sp)
    3a74:	00f12c23          	sw	a5,24(sp)
    3a78:	01012a23          	sw	a6,20(sp)
    3a7c:	01112823          	sw	a7,16(sp)
    3a80:	01c12623          	sw	t3,12(sp)
    3a84:	01d12423          	sw	t4,8(sp)
    3a88:	01e12223          	sw	t5,4(sp)
    3a8c:	01f12023          	sw	t6,0(sp)
    3a90:	00020537          	lui	a0,0x20
    3a94:	52450513          	addi	a0,a0,1316 # 20524 <__clz_tab+0x2e0>
    3a98:	830fd0ef          	jal	ac8 <_writestr>
    3a9c:	0000006f          	j	3a9c <handler_irq_timer+0x50>

00003aa0 <init>:
    3aa0:	00000513          	li	a0,0
    3aa4:	00008067          	ret

00003aa8 <_close>:
    3aa8:	fff00513          	li	a0,-1
    3aac:	00008067          	ret

00003ab0 <_exit>:
    3ab0:	200007b7          	lui	a5,0x20000
    3ab4:	00a7a223          	sw	a0,4(a5) # 20000004 <_sp+0x1ffd5604>
    3ab8:	00100713          	li	a4,1
    3abc:	00e78023          	sb	a4,0(a5)
    3ac0:	10500073          	wfi

00003ac4 <_fstat>:
    3ac4:	000027b7          	lui	a5,0x2
    3ac8:	00f5a223          	sw	a5,4(a1)
    3acc:	00000513          	li	a0,0
    3ad0:	00008067          	ret

00003ad4 <_isatty>:
    3ad4:	fff50513          	addi	a0,a0,-1
    3ad8:	00153513          	seqz	a0,a0
    3adc:	00008067          	ret

00003ae0 <_lseek>:
    3ae0:	00000513          	li	a0,0
    3ae4:	00008067          	ret

00003ae8 <_read>:
    3ae8:	00000513          	li	a0,0
    3aec:	00008067          	ret

00003af0 <_write_r>:
    3af0:	ff010113          	addi	sp,sp,-16
    3af4:	00112623          	sw	ra,12(sp)
    3af8:	00058513          	mv	a0,a1
    3afc:	00060593          	mv	a1,a2
    3b00:	00068613          	mv	a2,a3
    3b04:	aedfc0ef          	jal	5f0 <_write>
    3b08:	00c12083          	lw	ra,12(sp)
    3b0c:	01010113          	addi	sp,sp,16
    3b10:	00008067          	ret

00003b14 <_sbrk>:
    3b14:	00050713          	mv	a4,a0
    3b18:	bb418693          	addi	a3,gp,-1100 # 229fc <__BSS_END__>
    3b1c:	000277b7          	lui	a5,0x27
    3b20:	9fc78793          	addi	a5,a5,-1540 # 269fc <__heap_end>
    3b24:	02f68c63          	beq	a3,a5,3b5c <_sbrk+0x48>
    3b28:	9581a503          	lw	a0,-1704(gp) # 227a0 <brk>
    3b2c:	00e50733          	add	a4,a0,a4
    3b30:	00d737b3          	sltu	a5,a4,a3
    3b34:	0017b793          	seqz	a5,a5
    3b38:	000276b7          	lui	a3,0x27
    3b3c:	9fc68693          	addi	a3,a3,-1540 # 269fc <__heap_end>
    3b40:	00d736b3          	sltu	a3,a4,a3
    3b44:	00d7f7b3          	and	a5,a5,a3
    3b48:	00079663          	bnez	a5,3b54 <_sbrk+0x40>
    3b4c:	fff00513          	li	a0,-1
    3b50:	00008067          	ret
    3b54:	94e1ac23          	sw	a4,-1704(gp) # 227a0 <brk>
    3b58:	00008067          	ret
    3b5c:	00000513          	li	a0,0
    3b60:	00008067          	ret

00003b64 <spi_intr_handler_event_flash>:
    3b64:	000227b7          	lui	a5,0x22
    3b68:	6587a703          	lw	a4,1624(a5) # 22658 <peripherals+0x10>
    3b6c:	00200793          	li	a5,2
    3b70:	00f70463          	beq	a4,a5,3b78 <spi_intr_handler_event_flash+0x14>
    3b74:	00008067          	ret
    3b78:	ff010113          	addi	sp,sp,-16
    3b7c:	00112623          	sw	ra,12(sp)
    3b80:	00050593          	mv	a1,a0
    3b84:	00022537          	lui	a0,0x22
    3b88:	64850513          	addi	a0,a0,1608 # 22648 <peripherals>
    3b8c:	b65fc0ef          	jal	6f0 <spi_event_handler>
    3b90:	00c12083          	lw	ra,12(sp)
    3b94:	01010113          	addi	sp,sp,16
    3b98:	00008067          	ret

00003b9c <spi_intr_handler_error_flash>:
    3b9c:	000227b7          	lui	a5,0x22
    3ba0:	6587a703          	lw	a4,1624(a5) # 22658 <peripherals+0x10>
    3ba4:	00200793          	li	a5,2
    3ba8:	00f70463          	beq	a4,a5,3bb0 <spi_intr_handler_error_flash+0x14>
    3bac:	00008067          	ret
    3bb0:	ff010113          	addi	sp,sp,-16
    3bb4:	00112623          	sw	ra,12(sp)
    3bb8:	00050593          	mv	a1,a0
    3bbc:	00022537          	lui	a0,0x22
    3bc0:	64850513          	addi	a0,a0,1608 # 22648 <peripherals>
    3bc4:	d55fc0ef          	jal	918 <spi_error_handler>
    3bc8:	00c12083          	lw	ra,12(sp)
    3bcc:	01010113          	addi	sp,sp,16
    3bd0:	00008067          	ret

00003bd4 <fic_irq_spi_flash>:
    3bd4:	fe010113          	addi	sp,sp,-32
    3bd8:	00112e23          	sw	ra,28(sp)
    3bdc:	200207b7          	lui	a5,0x20020
    3be0:	0347a503          	lw	a0,52(a5) # 20020034 <_sp+0x1fff5634>
    3be4:	03f57513          	andi	a0,a0,63
    3be8:	00050a63          	beqz	a0,3bfc <fic_irq_spi_flash+0x28>
    3bec:	fb1ff0ef          	jal	3b9c <spi_intr_handler_error_flash>
    3bf0:	01c12083          	lw	ra,28(sp)
    3bf4:	02010113          	addi	sp,sp,32
    3bf8:	00008067          	ret
    3bfc:	20020737          	lui	a4,0x20020
    3c00:	00072783          	lw	a5,0(a4) # 20020000 <_sp+0x1fff5600>
    3c04:	0027e793          	ori	a5,a5,2
    3c08:	00f72023          	sw	a5,0(a4)
    3c0c:	00c10593          	addi	a1,sp,12
    3c10:	00070513          	mv	a0,a4
    3c14:	94dfc0ef          	jal	560 <spi_get_events>
    3c18:	00c12503          	lw	a0,12(sp)
    3c1c:	f49ff0ef          	jal	3b64 <spi_intr_handler_event_flash>
    3c20:	fd1ff06f          	j	3bf0 <fic_irq_spi_flash+0x1c>

00003c24 <handler_irq_fast_spi_flash>:
    3c24:	fc010113          	addi	sp,sp,-64
    3c28:	02112e23          	sw	ra,60(sp)
    3c2c:	02512c23          	sw	t0,56(sp)
    3c30:	02612a23          	sw	t1,52(sp)
    3c34:	02712823          	sw	t2,48(sp)
    3c38:	02a12623          	sw	a0,44(sp)
    3c3c:	02b12423          	sw	a1,40(sp)
    3c40:	02c12223          	sw	a2,36(sp)
    3c44:	02d12023          	sw	a3,32(sp)
    3c48:	00e12e23          	sw	a4,28(sp)
    3c4c:	00f12c23          	sw	a5,24(sp)
    3c50:	01012a23          	sw	a6,20(sp)
    3c54:	01112823          	sw	a7,16(sp)
    3c58:	01c12623          	sw	t3,12(sp)
    3c5c:	01d12423          	sw	t4,8(sp)
    3c60:	01e12223          	sw	t5,4(sp)
    3c64:	01f12023          	sw	t6,0(sp)
    3c68:	200607b7          	lui	a5,0x20060
    3c6c:	02000713          	li	a4,32
    3c70:	00e7a223          	sw	a4,4(a5) # 20060004 <_sp+0x20035604>
    3c74:	f61ff0ef          	jal	3bd4 <fic_irq_spi_flash>
    3c78:	03c12083          	lw	ra,60(sp)
    3c7c:	03812283          	lw	t0,56(sp)
    3c80:	03412303          	lw	t1,52(sp)
    3c84:	03012383          	lw	t2,48(sp)
    3c88:	02c12503          	lw	a0,44(sp)
    3c8c:	02812583          	lw	a1,40(sp)
    3c90:	02412603          	lw	a2,36(sp)
    3c94:	02012683          	lw	a3,32(sp)
    3c98:	01c12703          	lw	a4,28(sp)
    3c9c:	01812783          	lw	a5,24(sp)
    3ca0:	01412803          	lw	a6,20(sp)
    3ca4:	01012883          	lw	a7,16(sp)
    3ca8:	00c12e03          	lw	t3,12(sp)
    3cac:	00812e83          	lw	t4,8(sp)
    3cb0:	00412f03          	lw	t5,4(sp)
    3cb4:	00012f83          	lw	t6,0(sp)
    3cb8:	04010113          	addi	sp,sp,64
    3cbc:	30200073          	mret

00003cc0 <spi_intr_handler_event_host>:
    3cc0:	000227b7          	lui	a5,0x22
    3cc4:	6a07a703          	lw	a4,1696(a5) # 226a0 <peripherals+0x58>
    3cc8:	00200793          	li	a5,2
    3ccc:	00f70463          	beq	a4,a5,3cd4 <spi_intr_handler_event_host+0x14>
    3cd0:	00008067          	ret
    3cd4:	ff010113          	addi	sp,sp,-16
    3cd8:	00112623          	sw	ra,12(sp)
    3cdc:	00050593          	mv	a1,a0
    3ce0:	00022537          	lui	a0,0x22
    3ce4:	69050513          	addi	a0,a0,1680 # 22690 <peripherals+0x48>
    3ce8:	a09fc0ef          	jal	6f0 <spi_event_handler>
    3cec:	00c12083          	lw	ra,12(sp)
    3cf0:	01010113          	addi	sp,sp,16
    3cf4:	00008067          	ret

00003cf8 <spi_intr_handler_error_host>:
    3cf8:	000227b7          	lui	a5,0x22
    3cfc:	6a07a703          	lw	a4,1696(a5) # 226a0 <peripherals+0x58>
    3d00:	00200793          	li	a5,2
    3d04:	00f70463          	beq	a4,a5,3d0c <spi_intr_handler_error_host+0x14>
    3d08:	00008067          	ret
    3d0c:	ff010113          	addi	sp,sp,-16
    3d10:	00112623          	sw	ra,12(sp)
    3d14:	00050593          	mv	a1,a0
    3d18:	00022537          	lui	a0,0x22
    3d1c:	69050513          	addi	a0,a0,1680 # 22690 <peripherals+0x48>
    3d20:	bf9fc0ef          	jal	918 <spi_error_handler>
    3d24:	00c12083          	lw	ra,12(sp)
    3d28:	01010113          	addi	sp,sp,16
    3d2c:	00008067          	ret

00003d30 <fic_irq_spi>:
    3d30:	fe010113          	addi	sp,sp,-32
    3d34:	00112e23          	sw	ra,28(sp)
    3d38:	300107b7          	lui	a5,0x30010
    3d3c:	0347a503          	lw	a0,52(a5) # 30010034 <_sp+0x2ffe5634>
    3d40:	03f57513          	andi	a0,a0,63
    3d44:	00050a63          	beqz	a0,3d58 <fic_irq_spi+0x28>
    3d48:	fb1ff0ef          	jal	3cf8 <spi_intr_handler_error_host>
    3d4c:	01c12083          	lw	ra,28(sp)
    3d50:	02010113          	addi	sp,sp,32
    3d54:	00008067          	ret
    3d58:	30010737          	lui	a4,0x30010
    3d5c:	00072783          	lw	a5,0(a4) # 30010000 <_sp+0x2ffe5600>
    3d60:	0027e793          	ori	a5,a5,2
    3d64:	00f72023          	sw	a5,0(a4)
    3d68:	00c10593          	addi	a1,sp,12
    3d6c:	00070513          	mv	a0,a4
    3d70:	ff0fc0ef          	jal	560 <spi_get_events>
    3d74:	00c12503          	lw	a0,12(sp)
    3d78:	f49ff0ef          	jal	3cc0 <spi_intr_handler_event_host>
    3d7c:	fd1ff06f          	j	3d4c <fic_irq_spi+0x1c>

00003d80 <handler_irq_fast_spi>:
    3d80:	fc010113          	addi	sp,sp,-64
    3d84:	02112e23          	sw	ra,60(sp)
    3d88:	02512c23          	sw	t0,56(sp)
    3d8c:	02612a23          	sw	t1,52(sp)
    3d90:	02712823          	sw	t2,48(sp)
    3d94:	02a12623          	sw	a0,44(sp)
    3d98:	02b12423          	sw	a1,40(sp)
    3d9c:	02c12223          	sw	a2,36(sp)
    3da0:	02d12023          	sw	a3,32(sp)
    3da4:	00e12e23          	sw	a4,28(sp)
    3da8:	00f12c23          	sw	a5,24(sp)
    3dac:	01012a23          	sw	a6,20(sp)
    3db0:	01112823          	sw	a7,16(sp)
    3db4:	01c12623          	sw	t3,12(sp)
    3db8:	01d12423          	sw	t4,8(sp)
    3dbc:	01e12223          	sw	t5,4(sp)
    3dc0:	01f12023          	sw	t6,0(sp)
    3dc4:	200607b7          	lui	a5,0x20060
    3dc8:	01000713          	li	a4,16
    3dcc:	00e7a223          	sw	a4,4(a5) # 20060004 <_sp+0x20035604>
    3dd0:	f61ff0ef          	jal	3d30 <fic_irq_spi>
    3dd4:	03c12083          	lw	ra,60(sp)
    3dd8:	03812283          	lw	t0,56(sp)
    3ddc:	03412303          	lw	t1,52(sp)
    3de0:	03012383          	lw	t2,48(sp)
    3de4:	02c12503          	lw	a0,44(sp)
    3de8:	02812583          	lw	a1,40(sp)
    3dec:	02412603          	lw	a2,36(sp)
    3df0:	02012683          	lw	a3,32(sp)
    3df4:	01c12703          	lw	a4,28(sp)
    3df8:	01812783          	lw	a5,24(sp)
    3dfc:	01412803          	lw	a6,20(sp)
    3e00:	01012883          	lw	a7,16(sp)
    3e04:	00c12e03          	lw	t3,12(sp)
    3e08:	00812e83          	lw	t4,8(sp)
    3e0c:	00412f03          	lw	t5,4(sp)
    3e10:	00012f83          	lw	t6,0(sp)
    3e14:	04010113          	addi	sp,sp,64
    3e18:	30200073          	mret

00003e1c <atexit>:
    3e1c:	00050593          	mv	a1,a0
    3e20:	00000693          	li	a3,0
    3e24:	00000613          	li	a2,0
    3e28:	00000513          	li	a0,0
    3e2c:	5400006f          	j	436c <__register_exitproc>

00003e30 <std>:
    3e30:	ff010113          	addi	sp,sp,-16
    3e34:	00812423          	sw	s0,8(sp)
    3e38:	00112623          	sw	ra,12(sp)
    3e3c:	00050413          	mv	s0,a0
    3e40:	00b51623          	sh	a1,12(a0)
    3e44:	00c51723          	sh	a2,14(a0)
    3e48:	00052023          	sw	zero,0(a0)
    3e4c:	00052223          	sw	zero,4(a0)
    3e50:	00052423          	sw	zero,8(a0)
    3e54:	06052223          	sw	zero,100(a0)
    3e58:	00052823          	sw	zero,16(a0)
    3e5c:	00052a23          	sw	zero,20(a0)
    3e60:	00052c23          	sw	zero,24(a0)
    3e64:	00800613          	li	a2,8
    3e68:	00000593          	li	a1,0
    3e6c:	05c50513          	addi	a0,a0,92
    3e70:	4e0000ef          	jal	4350 <memset>
    3e74:	000047b7          	lui	a5,0x4
    3e78:	04878793          	addi	a5,a5,72 # 4048 <__sread>
    3e7c:	02f42223          	sw	a5,36(s0)
    3e80:	000047b7          	lui	a5,0x4
    3e84:	09878793          	addi	a5,a5,152 # 4098 <__swrite>
    3e88:	02f42423          	sw	a5,40(s0)
    3e8c:	000047b7          	lui	a5,0x4
    3e90:	11c78793          	addi	a5,a5,284 # 411c <__sseek>
    3e94:	02f42623          	sw	a5,44(s0)
    3e98:	000047b7          	lui	a5,0x4
    3e9c:	17478793          	addi	a5,a5,372 # 4174 <__sclose>
    3ea0:	00c12083          	lw	ra,12(sp)
    3ea4:	02842023          	sw	s0,32(s0)
    3ea8:	02f42823          	sw	a5,48(s0)
    3eac:	00812403          	lw	s0,8(sp)
    3eb0:	01010113          	addi	sp,sp,16
    3eb4:	00008067          	ret

00003eb8 <stdio_exit_handler>:
    3eb8:	000055b7          	lui	a1,0x5
    3ebc:	8d818613          	addi	a2,gp,-1832 # 22720 <__sglue>
    3ec0:	a5858593          	addi	a1,a1,-1448 # 4a58 <_fflush_r>
    3ec4:	8e418513          	addi	a0,gp,-1820 # 2272c <_impure_data>
    3ec8:	0d80006f          	j	3fa0 <_fwalk_sglue>

00003ecc <cleanup_stdio>:
    3ecc:	00452583          	lw	a1,4(a0)
    3ed0:	ff010113          	addi	sp,sp,-16
    3ed4:	00812423          	sw	s0,8(sp)
    3ed8:	00112623          	sw	ra,12(sp)
    3edc:	9b418793          	addi	a5,gp,-1612 # 227fc <__sf>
    3ee0:	00050413          	mv	s0,a0
    3ee4:	00f58463          	beq	a1,a5,3eec <cleanup_stdio+0x20>
    3ee8:	371000ef          	jal	4a58 <_fflush_r>
    3eec:	00842583          	lw	a1,8(s0)
    3ef0:	a1c18793          	addi	a5,gp,-1508 # 22864 <__sf+0x68>
    3ef4:	00f58663          	beq	a1,a5,3f00 <cleanup_stdio+0x34>
    3ef8:	00040513          	mv	a0,s0
    3efc:	35d000ef          	jal	4a58 <_fflush_r>
    3f00:	00c42583          	lw	a1,12(s0)
    3f04:	a8418793          	addi	a5,gp,-1404 # 228cc <__sf+0xd0>
    3f08:	00f58c63          	beq	a1,a5,3f20 <cleanup_stdio+0x54>
    3f0c:	00040513          	mv	a0,s0
    3f10:	00812403          	lw	s0,8(sp)
    3f14:	00c12083          	lw	ra,12(sp)
    3f18:	01010113          	addi	sp,sp,16
    3f1c:	33d0006f          	j	4a58 <_fflush_r>
    3f20:	00c12083          	lw	ra,12(sp)
    3f24:	00812403          	lw	s0,8(sp)
    3f28:	01010113          	addi	sp,sp,16
    3f2c:	00008067          	ret

00003f30 <global_stdio_init.part.0>:
    3f30:	000047b7          	lui	a5,0x4
    3f34:	ff010113          	addi	sp,sp,-16
    3f38:	eb878793          	addi	a5,a5,-328 # 3eb8 <stdio_exit_handler>
    3f3c:	00000613          	li	a2,0
    3f40:	00400593          	li	a1,4
    3f44:	9b418513          	addi	a0,gp,-1612 # 227fc <__sf>
    3f48:	00112623          	sw	ra,12(sp)
    3f4c:	96f1a023          	sw	a5,-1696(gp) # 227a8 <__stdio_exit_handler>
    3f50:	ee1ff0ef          	jal	3e30 <std>
    3f54:	00100613          	li	a2,1
    3f58:	00900593          	li	a1,9
    3f5c:	a1c18513          	addi	a0,gp,-1508 # 22864 <__sf+0x68>
    3f60:	ed1ff0ef          	jal	3e30 <std>
    3f64:	00c12083          	lw	ra,12(sp)
    3f68:	00200613          	li	a2,2
    3f6c:	01200593          	li	a1,18
    3f70:	a8418513          	addi	a0,gp,-1404 # 228cc <__sf+0xd0>
    3f74:	01010113          	addi	sp,sp,16
    3f78:	eb9ff06f          	j	3e30 <std>

00003f7c <__sinit>:
    3f7c:	02052783          	lw	a5,32(a0)
    3f80:	00079e63          	bnez	a5,3f9c <__sinit+0x20>
    3f84:	000047b7          	lui	a5,0x4
    3f88:	ecc78793          	addi	a5,a5,-308 # 3ecc <cleanup_stdio>
    3f8c:	02f52023          	sw	a5,32(a0)
    3f90:	9601a783          	lw	a5,-1696(gp) # 227a8 <__stdio_exit_handler>
    3f94:	00079463          	bnez	a5,3f9c <__sinit+0x20>
    3f98:	f99ff06f          	j	3f30 <global_stdio_init.part.0>
    3f9c:	00008067          	ret

00003fa0 <_fwalk_sglue>:
    3fa0:	fd010113          	addi	sp,sp,-48
    3fa4:	02812423          	sw	s0,40(sp)
    3fa8:	03212023          	sw	s2,32(sp)
    3fac:	01312e23          	sw	s3,28(sp)
    3fb0:	01412c23          	sw	s4,24(sp)
    3fb4:	01512a23          	sw	s5,20(sp)
    3fb8:	02112623          	sw	ra,44(sp)
    3fbc:	02912223          	sw	s1,36(sp)
    3fc0:	00050a13          	mv	s4,a0
    3fc4:	00058a93          	mv	s5,a1
    3fc8:	00000413          	li	s0,0
    3fcc:	00100913          	li	s2,1
    3fd0:	fff00993          	li	s3,-1
    3fd4:	00862583          	lw	a1,8(a2)
    3fd8:	00462483          	lw	s1,4(a2)
    3fdc:	fff48493          	addi	s1,s1,-1
    3fe0:	0204da63          	bgez	s1,4014 <__heap_size+0x14>
    3fe4:	00062603          	lw	a2,0(a2)
    3fe8:	fe0616e3          	bnez	a2,3fd4 <_fwalk_sglue+0x34>
    3fec:	02c12083          	lw	ra,44(sp)
    3ff0:	00040513          	mv	a0,s0
    3ff4:	02812403          	lw	s0,40(sp)
    3ff8:	02412483          	lw	s1,36(sp)
    3ffc:	02012903          	lw	s2,32(sp)
    4000:	01c12983          	lw	s3,28(sp)
    4004:	01812a03          	lw	s4,24(sp)
    4008:	01412a83          	lw	s5,20(sp)
    400c:	03010113          	addi	sp,sp,48
    4010:	00008067          	ret
    4014:	00c5d783          	lhu	a5,12(a1)
    4018:	02f97463          	bgeu	s2,a5,4040 <__heap_size+0x40>
    401c:	00e59783          	lh	a5,14(a1)
    4020:	03378063          	beq	a5,s3,4040 <__heap_size+0x40>
    4024:	000a0513          	mv	a0,s4
    4028:	00c12623          	sw	a2,12(sp)
    402c:	00b12423          	sw	a1,8(sp)
    4030:	000a80e7          	jalr	s5
    4034:	00c12603          	lw	a2,12(sp)
    4038:	00812583          	lw	a1,8(sp)
    403c:	00a46433          	or	s0,s0,a0
    4040:	06858593          	addi	a1,a1,104
    4044:	f99ff06f          	j	3fdc <_fwalk_sglue+0x3c>

00004048 <__sread>:
    4048:	ff010113          	addi	sp,sp,-16
    404c:	00812423          	sw	s0,8(sp)
    4050:	00058413          	mv	s0,a1
    4054:	00e59583          	lh	a1,14(a1)
    4058:	00112623          	sw	ra,12(sp)
    405c:	1b8000ef          	jal	4214 <_read_r>
    4060:	02054063          	bltz	a0,4080 <__sread+0x38>
    4064:	05442783          	lw	a5,84(s0)
    4068:	00a787b3          	add	a5,a5,a0
    406c:	04f42a23          	sw	a5,84(s0)
    4070:	00c12083          	lw	ra,12(sp)
    4074:	00812403          	lw	s0,8(sp)
    4078:	01010113          	addi	sp,sp,16
    407c:	00008067          	ret
    4080:	00c45783          	lhu	a5,12(s0)
    4084:	fffff737          	lui	a4,0xfffff
    4088:	fff70713          	addi	a4,a4,-1 # ffffefff <_sp+0xfffd45ff>
    408c:	00e7f7b3          	and	a5,a5,a4
    4090:	00f41623          	sh	a5,12(s0)
    4094:	fddff06f          	j	4070 <__sread+0x28>

00004098 <__swrite>:
    4098:	00c5d783          	lhu	a5,12(a1)
    409c:	fe010113          	addi	sp,sp,-32
    40a0:	00812c23          	sw	s0,24(sp)
    40a4:	00912a23          	sw	s1,20(sp)
    40a8:	01212823          	sw	s2,16(sp)
    40ac:	01312623          	sw	s3,12(sp)
    40b0:	00112e23          	sw	ra,28(sp)
    40b4:	1007f793          	andi	a5,a5,256
    40b8:	00050493          	mv	s1,a0
    40bc:	00058413          	mv	s0,a1
    40c0:	00060913          	mv	s2,a2
    40c4:	00068993          	mv	s3,a3
    40c8:	00078a63          	beqz	a5,40dc <__swrite+0x44>
    40cc:	00e59583          	lh	a1,14(a1)
    40d0:	00200693          	li	a3,2
    40d4:	00000613          	li	a2,0
    40d8:	0ec000ef          	jal	41c4 <_lseek_r>
    40dc:	00c45783          	lhu	a5,12(s0)
    40e0:	fffff737          	lui	a4,0xfffff
    40e4:	fff70713          	addi	a4,a4,-1 # ffffefff <_sp+0xfffd45ff>
    40e8:	00e7f7b3          	and	a5,a5,a4
    40ec:	00e41583          	lh	a1,14(s0)
    40f0:	00f41623          	sh	a5,12(s0)
    40f4:	01812403          	lw	s0,24(sp)
    40f8:	01c12083          	lw	ra,28(sp)
    40fc:	00098693          	mv	a3,s3
    4100:	00090613          	mv	a2,s2
    4104:	00c12983          	lw	s3,12(sp)
    4108:	01012903          	lw	s2,16(sp)
    410c:	00048513          	mv	a0,s1
    4110:	01412483          	lw	s1,20(sp)
    4114:	02010113          	addi	sp,sp,32
    4118:	9d9ff06f          	j	3af0 <_write_r>

0000411c <__sseek>:
    411c:	ff010113          	addi	sp,sp,-16
    4120:	00812423          	sw	s0,8(sp)
    4124:	00058413          	mv	s0,a1
    4128:	00e59583          	lh	a1,14(a1)
    412c:	00112623          	sw	ra,12(sp)
    4130:	094000ef          	jal	41c4 <_lseek_r>
    4134:	fff00713          	li	a4,-1
    4138:	00c41783          	lh	a5,12(s0)
    413c:	02e51263          	bne	a0,a4,4160 <__sseek+0x44>
    4140:	fffff737          	lui	a4,0xfffff
    4144:	00a70733          	add	a4,a4,a0
    4148:	00e7f7b3          	and	a5,a5,a4
    414c:	00f41623          	sh	a5,12(s0)
    4150:	00c12083          	lw	ra,12(sp)
    4154:	00812403          	lw	s0,8(sp)
    4158:	01010113          	addi	sp,sp,16
    415c:	00008067          	ret
    4160:	00001737          	lui	a4,0x1
    4164:	00e7e7b3          	or	a5,a5,a4
    4168:	00f41623          	sh	a5,12(s0)
    416c:	04a42a23          	sw	a0,84(s0)
    4170:	fe1ff06f          	j	4150 <__sseek+0x34>

00004174 <__sclose>:
    4174:	00e59583          	lh	a1,14(a1)
    4178:	0040006f          	j	417c <_close_r>

0000417c <_close_r>:
    417c:	ff010113          	addi	sp,sp,-16
    4180:	00812423          	sw	s0,8(sp)
    4184:	00912223          	sw	s1,4(sp)
    4188:	00050493          	mv	s1,a0
    418c:	00058513          	mv	a0,a1
    4190:	00112623          	sw	ra,12(sp)
    4194:	9601a223          	sw	zero,-1692(gp) # 227ac <errno>
    4198:	911ff0ef          	jal	3aa8 <_close>
    419c:	fff00793          	li	a5,-1
    41a0:	00f51863          	bne	a0,a5,41b0 <_close_r+0x34>
    41a4:	9641a783          	lw	a5,-1692(gp) # 227ac <errno>
    41a8:	00078463          	beqz	a5,41b0 <_close_r+0x34>
    41ac:	00f4a023          	sw	a5,0(s1)
    41b0:	00c12083          	lw	ra,12(sp)
    41b4:	00812403          	lw	s0,8(sp)
    41b8:	00412483          	lw	s1,4(sp)
    41bc:	01010113          	addi	sp,sp,16
    41c0:	00008067          	ret

000041c4 <_lseek_r>:
    41c4:	ff010113          	addi	sp,sp,-16
    41c8:	00812423          	sw	s0,8(sp)
    41cc:	00912223          	sw	s1,4(sp)
    41d0:	00050493          	mv	s1,a0
    41d4:	00058513          	mv	a0,a1
    41d8:	00060593          	mv	a1,a2
    41dc:	00068613          	mv	a2,a3
    41e0:	00112623          	sw	ra,12(sp)
    41e4:	9601a223          	sw	zero,-1692(gp) # 227ac <errno>
    41e8:	8f9ff0ef          	jal	3ae0 <_lseek>
    41ec:	fff00793          	li	a5,-1
    41f0:	00f51863          	bne	a0,a5,4200 <_lseek_r+0x3c>
    41f4:	9641a783          	lw	a5,-1692(gp) # 227ac <errno>
    41f8:	00078463          	beqz	a5,4200 <_lseek_r+0x3c>
    41fc:	00f4a023          	sw	a5,0(s1)
    4200:	00c12083          	lw	ra,12(sp)
    4204:	00812403          	lw	s0,8(sp)
    4208:	00412483          	lw	s1,4(sp)
    420c:	01010113          	addi	sp,sp,16
    4210:	00008067          	ret

00004214 <_read_r>:
    4214:	ff010113          	addi	sp,sp,-16
    4218:	00812423          	sw	s0,8(sp)
    421c:	00912223          	sw	s1,4(sp)
    4220:	00050493          	mv	s1,a0
    4224:	00058513          	mv	a0,a1
    4228:	00060593          	mv	a1,a2
    422c:	00068613          	mv	a2,a3
    4230:	00112623          	sw	ra,12(sp)
    4234:	9601a223          	sw	zero,-1692(gp) # 227ac <errno>
    4238:	8b1ff0ef          	jal	3ae8 <_read>
    423c:	fff00793          	li	a5,-1
    4240:	00f51863          	bne	a0,a5,4250 <_read_r+0x3c>
    4244:	9641a783          	lw	a5,-1692(gp) # 227ac <errno>
    4248:	00078463          	beqz	a5,4250 <_read_r+0x3c>
    424c:	00f4a023          	sw	a5,0(s1)
    4250:	00c12083          	lw	ra,12(sp)
    4254:	00812403          	lw	s0,8(sp)
    4258:	00412483          	lw	s1,4(sp)
    425c:	01010113          	addi	sp,sp,16
    4260:	00008067          	ret

00004264 <__libc_init_array>:
    4264:	ff010113          	addi	sp,sp,-16
    4268:	00812423          	sw	s0,8(sp)
    426c:	00912223          	sw	s1,4(sp)
    4270:	00022437          	lui	s0,0x22
    4274:	000224b7          	lui	s1,0x22
    4278:	64840413          	addi	s0,s0,1608 # 22648 <peripherals>
    427c:	64848493          	addi	s1,s1,1608 # 22648 <peripherals>
    4280:	408484b3          	sub	s1,s1,s0
    4284:	01212023          	sw	s2,0(sp)
    4288:	00112623          	sw	ra,12(sp)
    428c:	4024d493          	srai	s1,s1,0x2
    4290:	00000913          	li	s2,0
    4294:	02991e63          	bne	s2,s1,42d0 <__libc_init_array+0x6c>
    4298:	00022437          	lui	s0,0x22
    429c:	000224b7          	lui	s1,0x22
    42a0:	64840413          	addi	s0,s0,1608 # 22648 <peripherals>
    42a4:	64848493          	addi	s1,s1,1608 # 22648 <peripherals>
    42a8:	408484b3          	sub	s1,s1,s0
    42ac:	4024d493          	srai	s1,s1,0x2
    42b0:	00000913          	li	s2,0
    42b4:	02991863          	bne	s2,s1,42e4 <__libc_init_array+0x80>
    42b8:	00c12083          	lw	ra,12(sp)
    42bc:	00812403          	lw	s0,8(sp)
    42c0:	00412483          	lw	s1,4(sp)
    42c4:	00012903          	lw	s2,0(sp)
    42c8:	01010113          	addi	sp,sp,16
    42cc:	00008067          	ret
    42d0:	00042783          	lw	a5,0(s0)
    42d4:	00190913          	addi	s2,s2,1
    42d8:	00440413          	addi	s0,s0,4
    42dc:	000780e7          	jalr	a5
    42e0:	fb5ff06f          	j	4294 <__libc_init_array+0x30>
    42e4:	00042783          	lw	a5,0(s0)
    42e8:	00190913          	addi	s2,s2,1
    42ec:	00440413          	addi	s0,s0,4
    42f0:	000780e7          	jalr	a5
    42f4:	fc1ff06f          	j	42b4 <__libc_init_array+0x50>

000042f8 <__libc_fini_array>:
    42f8:	ff010113          	addi	sp,sp,-16
    42fc:	00812423          	sw	s0,8(sp)
    4300:	00912223          	sw	s1,4(sp)
    4304:	00022437          	lui	s0,0x22
    4308:	000224b7          	lui	s1,0x22
    430c:	64848493          	addi	s1,s1,1608 # 22648 <peripherals>
    4310:	64840413          	addi	s0,s0,1608 # 22648 <peripherals>
    4314:	40940433          	sub	s0,s0,s1
    4318:	00112623          	sw	ra,12(sp)
    431c:	40245413          	srai	s0,s0,0x2
    4320:	00041c63          	bnez	s0,4338 <__libc_fini_array+0x40>
    4324:	00c12083          	lw	ra,12(sp)
    4328:	00812403          	lw	s0,8(sp)
    432c:	00412483          	lw	s1,4(sp)
    4330:	01010113          	addi	sp,sp,16
    4334:	00008067          	ret
    4338:	fff40413          	addi	s0,s0,-1
    433c:	00241793          	slli	a5,s0,0x2
    4340:	00f487b3          	add	a5,s1,a5
    4344:	0007a783          	lw	a5,0(a5)
    4348:	000780e7          	jalr	a5
    434c:	fd5ff06f          	j	4320 <__libc_fini_array+0x28>

00004350 <memset>:
    4350:	00050693          	mv	a3,a0
    4354:	00060a63          	beqz	a2,4368 <memset+0x18>
    4358:	00b68023          	sb	a1,0(a3)
    435c:	fff60613          	addi	a2,a2,-1
    4360:	00168693          	addi	a3,a3,1
    4364:	fe061ae3          	bnez	a2,4358 <memset+0x8>
    4368:	00008067          	ret

0000436c <__register_exitproc>:
    436c:	9681a783          	lw	a5,-1688(gp) # 227b0 <__atexit>
    4370:	00079e63          	bnez	a5,438c <__register_exitproc+0x20>
    4374:	aec18793          	addi	a5,gp,-1300 # 22934 <__atexit0>
    4378:	96f1a423          	sw	a5,-1688(gp) # 227b0 <__atexit>
    437c:	00000813          	li	a6,0
    4380:	00080663          	beqz	a6,438c <__register_exitproc+0x20>
    4384:	00002703          	lw	a4,0(zero) # 0 <__vector_start>
    4388:	08e7a423          	sw	a4,136(a5)
    438c:	0047a703          	lw	a4,4(a5)
    4390:	01f00813          	li	a6,31
    4394:	00e85663          	bge	a6,a4,43a0 <__register_exitproc+0x34>
    4398:	fff00513          	li	a0,-1
    439c:	00008067          	ret
    43a0:	04050263          	beqz	a0,43e4 <__register_exitproc+0x78>
    43a4:	0887a803          	lw	a6,136(a5)
    43a8:	fe0808e3          	beqz	a6,4398 <__register_exitproc+0x2c>
    43ac:	00271893          	slli	a7,a4,0x2
    43b0:	011808b3          	add	a7,a6,a7
    43b4:	00c8a023          	sw	a2,0(a7)
    43b8:	10082303          	lw	t1,256(a6)
    43bc:	00100613          	li	a2,1
    43c0:	00e61633          	sll	a2,a2,a4
    43c4:	00c36333          	or	t1,t1,a2
    43c8:	10682023          	sw	t1,256(a6)
    43cc:	08d8a023          	sw	a3,128(a7)
    43d0:	00200693          	li	a3,2
    43d4:	00d51863          	bne	a0,a3,43e4 <__register_exitproc+0x78>
    43d8:	10482683          	lw	a3,260(a6)
    43dc:	00c6e6b3          	or	a3,a3,a2
    43e0:	10d82223          	sw	a3,260(a6)
    43e4:	00170693          	addi	a3,a4,1 # 1001 <T1_start+0xdd>
    43e8:	00271713          	slli	a4,a4,0x2
    43ec:	00d7a223          	sw	a3,4(a5)
    43f0:	00e787b3          	add	a5,a5,a4
    43f4:	00b7a423          	sw	a1,8(a5)
    43f8:	00000513          	li	a0,0
    43fc:	00008067          	ret

00004400 <__call_exitprocs>:
    4400:	fd010113          	addi	sp,sp,-48
    4404:	01512a23          	sw	s5,20(sp)
    4408:	01612823          	sw	s6,16(sp)
    440c:	01712623          	sw	s7,12(sp)
    4410:	01912223          	sw	s9,4(sp)
    4414:	02112623          	sw	ra,44(sp)
    4418:	02812423          	sw	s0,40(sp)
    441c:	02912223          	sw	s1,36(sp)
    4420:	03212023          	sw	s2,32(sp)
    4424:	01312e23          	sw	s3,28(sp)
    4428:	01412c23          	sw	s4,24(sp)
    442c:	01812423          	sw	s8,8(sp)
    4430:	00050c93          	mv	s9,a0
    4434:	00058b13          	mv	s6,a1
    4438:	00100b93          	li	s7,1
    443c:	9681a483          	lw	s1,-1688(gp) # 227b0 <__atexit>
    4440:	02048063          	beqz	s1,4460 <__call_exitprocs+0x60>
    4444:	0044a403          	lw	s0,4(s1)
    4448:	0884a983          	lw	s3,136(s1)
    444c:	fff40913          	addi	s2,s0,-1
    4450:	00241413          	slli	s0,s0,0x2
    4454:	00848a33          	add	s4,s1,s0
    4458:	00898433          	add	s0,s3,s0
    445c:	02095c63          	bgez	s2,4494 <__call_exitprocs+0x94>
    4460:	02c12083          	lw	ra,44(sp)
    4464:	02812403          	lw	s0,40(sp)
    4468:	02412483          	lw	s1,36(sp)
    446c:	02012903          	lw	s2,32(sp)
    4470:	01c12983          	lw	s3,28(sp)
    4474:	01812a03          	lw	s4,24(sp)
    4478:	01412a83          	lw	s5,20(sp)
    447c:	01012b03          	lw	s6,16(sp)
    4480:	00c12b83          	lw	s7,12(sp)
    4484:	00812c03          	lw	s8,8(sp)
    4488:	00412c83          	lw	s9,4(sp)
    448c:	03010113          	addi	sp,sp,48
    4490:	00008067          	ret
    4494:	000b0863          	beqz	s6,44a4 <__call_exitprocs+0xa4>
    4498:	04098663          	beqz	s3,44e4 <__call_exitprocs+0xe4>
    449c:	07c42783          	lw	a5,124(s0)
    44a0:	05679263          	bne	a5,s6,44e4 <__call_exitprocs+0xe4>
    44a4:	0044a703          	lw	a4,4(s1)
    44a8:	004a2783          	lw	a5,4(s4)
    44ac:	fff70713          	addi	a4,a4,-1
    44b0:	05271263          	bne	a4,s2,44f4 <__call_exitprocs+0xf4>
    44b4:	0124a223          	sw	s2,4(s1)
    44b8:	02078663          	beqz	a5,44e4 <__call_exitprocs+0xe4>
    44bc:	1009a683          	lw	a3,256(s3)
    44c0:	012b9733          	sll	a4,s7,s2
    44c4:	0044ac03          	lw	s8,4(s1)
    44c8:	00d776b3          	and	a3,a4,a3
    44cc:	02069863          	bnez	a3,44fc <__call_exitprocs+0xfc>
    44d0:	000780e7          	jalr	a5
    44d4:	0044a783          	lw	a5,4(s1)
    44d8:	f78792e3          	bne	a5,s8,443c <__call_exitprocs+0x3c>
    44dc:	9681a783          	lw	a5,-1688(gp) # 227b0 <__atexit>
    44e0:	f4f49ee3          	bne	s1,a5,443c <__call_exitprocs+0x3c>
    44e4:	fff90913          	addi	s2,s2,-1
    44e8:	ffca0a13          	addi	s4,s4,-4
    44ec:	ffc40413          	addi	s0,s0,-4
    44f0:	f6dff06f          	j	445c <__call_exitprocs+0x5c>
    44f4:	000a2223          	sw	zero,4(s4)
    44f8:	fc1ff06f          	j	44b8 <__call_exitprocs+0xb8>
    44fc:	1049a683          	lw	a3,260(s3)
    4500:	ffc42583          	lw	a1,-4(s0)
    4504:	00d77733          	and	a4,a4,a3
    4508:	00071863          	bnez	a4,4518 <__call_exitprocs+0x118>
    450c:	000c8513          	mv	a0,s9
    4510:	000780e7          	jalr	a5
    4514:	fc1ff06f          	j	44d4 <__call_exitprocs+0xd4>
    4518:	00058513          	mv	a0,a1
    451c:	000780e7          	jalr	a5
    4520:	fb5ff06f          	j	44d4 <__call_exitprocs+0xd4>

00004524 <_free_r>:
    4524:	0e058a63          	beqz	a1,4618 <_free_r+0xf4>
    4528:	ffc5a783          	lw	a5,-4(a1)
    452c:	fe010113          	addi	sp,sp,-32
    4530:	00812c23          	sw	s0,24(sp)
    4534:	00112e23          	sw	ra,28(sp)
    4538:	ffc58413          	addi	s0,a1,-4
    453c:	0007d463          	bgez	a5,4544 <_free_r+0x20>
    4540:	00f40433          	add	s0,s0,a5
    4544:	00a12623          	sw	a0,12(sp)
    4548:	320000ef          	jal	4868 <__malloc_lock>
    454c:	9701a783          	lw	a5,-1680(gp) # 227b8 <__malloc_free_list>
    4550:	00c12503          	lw	a0,12(sp)
    4554:	00079e63          	bnez	a5,4570 <_free_r+0x4c>
    4558:	00042223          	sw	zero,4(s0)
    455c:	9681a823          	sw	s0,-1680(gp) # 227b8 <__malloc_free_list>
    4560:	01812403          	lw	s0,24(sp)
    4564:	01c12083          	lw	ra,28(sp)
    4568:	02010113          	addi	sp,sp,32
    456c:	3000006f          	j	486c <__malloc_unlock>
    4570:	02f47463          	bgeu	s0,a5,4598 <_free_r+0x74>
    4574:	00042603          	lw	a2,0(s0)
    4578:	00c406b3          	add	a3,s0,a2
    457c:	00d79a63          	bne	a5,a3,4590 <_free_r+0x6c>
    4580:	0007a683          	lw	a3,0(a5)
    4584:	0047a783          	lw	a5,4(a5)
    4588:	00c686b3          	add	a3,a3,a2
    458c:	00d42023          	sw	a3,0(s0)
    4590:	00f42223          	sw	a5,4(s0)
    4594:	fc9ff06f          	j	455c <_free_r+0x38>
    4598:	00078713          	mv	a4,a5
    459c:	0047a783          	lw	a5,4(a5)
    45a0:	00078463          	beqz	a5,45a8 <_free_r+0x84>
    45a4:	fef47ae3          	bgeu	s0,a5,4598 <_free_r+0x74>
    45a8:	00072683          	lw	a3,0(a4)
    45ac:	00d70633          	add	a2,a4,a3
    45b0:	02861863          	bne	a2,s0,45e0 <_free_r+0xbc>
    45b4:	00042603          	lw	a2,0(s0)
    45b8:	00c686b3          	add	a3,a3,a2
    45bc:	00d72023          	sw	a3,0(a4)
    45c0:	00d70633          	add	a2,a4,a3
    45c4:	f8c79ee3          	bne	a5,a2,4560 <_free_r+0x3c>
    45c8:	0007a603          	lw	a2,0(a5)
    45cc:	0047a783          	lw	a5,4(a5)
    45d0:	00d606b3          	add	a3,a2,a3
    45d4:	00d72023          	sw	a3,0(a4)
    45d8:	00f72223          	sw	a5,4(a4)
    45dc:	f85ff06f          	j	4560 <_free_r+0x3c>
    45e0:	00c47863          	bgeu	s0,a2,45f0 <_free_r+0xcc>
    45e4:	00c00793          	li	a5,12
    45e8:	00f52023          	sw	a5,0(a0)
    45ec:	f75ff06f          	j	4560 <_free_r+0x3c>
    45f0:	00042603          	lw	a2,0(s0)
    45f4:	00c406b3          	add	a3,s0,a2
    45f8:	00d79a63          	bne	a5,a3,460c <_free_r+0xe8>
    45fc:	0007a683          	lw	a3,0(a5)
    4600:	0047a783          	lw	a5,4(a5)
    4604:	00c686b3          	add	a3,a3,a2
    4608:	00d42023          	sw	a3,0(s0)
    460c:	00f42223          	sw	a5,4(s0)
    4610:	00872223          	sw	s0,4(a4)
    4614:	f4dff06f          	j	4560 <_free_r+0x3c>
    4618:	00008067          	ret

0000461c <sbrk_aligned>:
    461c:	ff010113          	addi	sp,sp,-16
    4620:	00812423          	sw	s0,8(sp)
    4624:	96c1a783          	lw	a5,-1684(gp) # 227b4 <__malloc_sbrk_start>
    4628:	00912223          	sw	s1,4(sp)
    462c:	01212023          	sw	s2,0(sp)
    4630:	00112623          	sw	ra,12(sp)
    4634:	00050913          	mv	s2,a0
    4638:	00058493          	mv	s1,a1
    463c:	00079863          	bnez	a5,464c <sbrk_aligned+0x30>
    4640:	00000593          	li	a1,0
    4644:	47c000ef          	jal	4ac0 <_sbrk_r>
    4648:	96a1a623          	sw	a0,-1684(gp) # 227b4 <__malloc_sbrk_start>
    464c:	00048593          	mv	a1,s1
    4650:	00090513          	mv	a0,s2
    4654:	46c000ef          	jal	4ac0 <_sbrk_r>
    4658:	fff00493          	li	s1,-1
    465c:	00050413          	mv	s0,a0
    4660:	02950263          	beq	a0,s1,4684 <sbrk_aligned+0x68>
    4664:	00350413          	addi	s0,a0,3
    4668:	ffc47413          	andi	s0,s0,-4
    466c:	00850c63          	beq	a0,s0,4684 <sbrk_aligned+0x68>
    4670:	40a405b3          	sub	a1,s0,a0
    4674:	00090513          	mv	a0,s2
    4678:	448000ef          	jal	4ac0 <_sbrk_r>
    467c:	00951463          	bne	a0,s1,4684 <sbrk_aligned+0x68>
    4680:	00050413          	mv	s0,a0
    4684:	00c12083          	lw	ra,12(sp)
    4688:	00040513          	mv	a0,s0
    468c:	00812403          	lw	s0,8(sp)
    4690:	00412483          	lw	s1,4(sp)
    4694:	00012903          	lw	s2,0(sp)
    4698:	01010113          	addi	sp,sp,16
    469c:	00008067          	ret

000046a0 <_malloc_r>:
    46a0:	fe010113          	addi	sp,sp,-32
    46a4:	00912a23          	sw	s1,20(sp)
    46a8:	00358493          	addi	s1,a1,3
    46ac:	ffc4f493          	andi	s1,s1,-4
    46b0:	00112e23          	sw	ra,28(sp)
    46b4:	00812c23          	sw	s0,24(sp)
    46b8:	01212823          	sw	s2,16(sp)
    46bc:	01312623          	sw	s3,12(sp)
    46c0:	01412423          	sw	s4,8(sp)
    46c4:	01512223          	sw	s5,4(sp)
    46c8:	00848493          	addi	s1,s1,8
    46cc:	00c00793          	li	a5,12
    46d0:	00f4f463          	bgeu	s1,a5,46d8 <_malloc_r+0x38>
    46d4:	00078493          	mv	s1,a5
    46d8:	0004c463          	bltz	s1,46e0 <_malloc_r+0x40>
    46dc:	02b4fc63          	bgeu	s1,a1,4714 <_malloc_r+0x74>
    46e0:	00c00793          	li	a5,12
    46e4:	00f52023          	sw	a5,0(a0)
    46e8:	00000913          	li	s2,0
    46ec:	01c12083          	lw	ra,28(sp)
    46f0:	01812403          	lw	s0,24(sp)
    46f4:	01412483          	lw	s1,20(sp)
    46f8:	00c12983          	lw	s3,12(sp)
    46fc:	00812a03          	lw	s4,8(sp)
    4700:	00412a83          	lw	s5,4(sp)
    4704:	00090513          	mv	a0,s2
    4708:	01012903          	lw	s2,16(sp)
    470c:	02010113          	addi	sp,sp,32
    4710:	00008067          	ret
    4714:	00050993          	mv	s3,a0
    4718:	150000ef          	jal	4868 <__malloc_lock>
    471c:	9701a783          	lw	a5,-1680(gp) # 227b8 <__malloc_free_list>
    4720:	00078413          	mv	s0,a5
    4724:	08041063          	bnez	s0,47a4 <_malloc_r+0x104>
    4728:	00048593          	mv	a1,s1
    472c:	00098513          	mv	a0,s3
    4730:	eedff0ef          	jal	461c <sbrk_aligned>
    4734:	fff00793          	li	a5,-1
    4738:	00050413          	mv	s0,a0
    473c:	12f51263          	bne	a0,a5,4860 <_malloc_r+0x1c0>
    4740:	9701a403          	lw	s0,-1680(gp) # 227b8 <__malloc_free_list>
    4744:	00040913          	mv	s2,s0
    4748:	0e091263          	bnez	s2,482c <_malloc_r+0x18c>
    474c:	10040063          	beqz	s0,484c <_malloc_r+0x1ac>
    4750:	00042a83          	lw	s5,0(s0)
    4754:	00000593          	li	a1,0
    4758:	00098513          	mv	a0,s3
    475c:	01540ab3          	add	s5,s0,s5
    4760:	360000ef          	jal	4ac0 <_sbrk_r>
    4764:	0eaa9463          	bne	s5,a0,484c <_malloc_r+0x1ac>
    4768:	00042783          	lw	a5,0(s0)
    476c:	00098513          	mv	a0,s3
    4770:	40f484b3          	sub	s1,s1,a5
    4774:	00048593          	mv	a1,s1
    4778:	ea5ff0ef          	jal	461c <sbrk_aligned>
    477c:	fff00793          	li	a5,-1
    4780:	0cf50663          	beq	a0,a5,484c <_malloc_r+0x1ac>
    4784:	00042783          	lw	a5,0(s0)
    4788:	009787b3          	add	a5,a5,s1
    478c:	00f42023          	sw	a5,0(s0)
    4790:	9701a783          	lw	a5,-1680(gp) # 227b8 <__malloc_free_list>
    4794:	0047a703          	lw	a4,4(a5)
    4798:	0a071063          	bnez	a4,4838 <_malloc_r+0x198>
    479c:	9601a823          	sw	zero,-1680(gp) # 227b8 <__malloc_free_list>
    47a0:	0340006f          	j	47d4 <_malloc_r+0x134>
    47a4:	00042683          	lw	a3,0(s0)
    47a8:	409686b3          	sub	a3,a3,s1
    47ac:	0606ca63          	bltz	a3,4820 <_malloc_r+0x180>
    47b0:	00b00713          	li	a4,11
    47b4:	04d77a63          	bgeu	a4,a3,4808 <_malloc_r+0x168>
    47b8:	00942023          	sw	s1,0(s0)
    47bc:	00940733          	add	a4,s0,s1
    47c0:	04879063          	bne	a5,s0,4800 <_malloc_r+0x160>
    47c4:	96e1a823          	sw	a4,-1680(gp) # 227b8 <__malloc_free_list>
    47c8:	00442783          	lw	a5,4(s0)
    47cc:	00d72023          	sw	a3,0(a4)
    47d0:	00f72223          	sw	a5,4(a4)
    47d4:	00098513          	mv	a0,s3
    47d8:	094000ef          	jal	486c <__malloc_unlock>
    47dc:	00b40913          	addi	s2,s0,11
    47e0:	00440793          	addi	a5,s0,4
    47e4:	ff897913          	andi	s2,s2,-8
    47e8:	40f90733          	sub	a4,s2,a5
    47ec:	f0f900e3          	beq	s2,a5,46ec <_malloc_r+0x4c>
    47f0:	00e40433          	add	s0,s0,a4
    47f4:	412787b3          	sub	a5,a5,s2
    47f8:	00f42023          	sw	a5,0(s0)
    47fc:	ef1ff06f          	j	46ec <_malloc_r+0x4c>
    4800:	00e7a223          	sw	a4,4(a5)
    4804:	fc5ff06f          	j	47c8 <_malloc_r+0x128>
    4808:	00442703          	lw	a4,4(s0)
    480c:	00879663          	bne	a5,s0,4818 <_malloc_r+0x178>
    4810:	96e1a823          	sw	a4,-1680(gp) # 227b8 <__malloc_free_list>
    4814:	fc1ff06f          	j	47d4 <_malloc_r+0x134>
    4818:	00e7a223          	sw	a4,4(a5)
    481c:	fb9ff06f          	j	47d4 <_malloc_r+0x134>
    4820:	00040793          	mv	a5,s0
    4824:	00442403          	lw	s0,4(s0)
    4828:	efdff06f          	j	4724 <_malloc_r+0x84>
    482c:	00090413          	mv	s0,s2
    4830:	00492903          	lw	s2,4(s2)
    4834:	f15ff06f          	j	4748 <_malloc_r+0xa8>
    4838:	00078713          	mv	a4,a5
    483c:	0047a783          	lw	a5,4(a5)
    4840:	fe879ce3          	bne	a5,s0,4838 <_malloc_r+0x198>
    4844:	00072223          	sw	zero,4(a4)
    4848:	f8dff06f          	j	47d4 <_malloc_r+0x134>
    484c:	00c00793          	li	a5,12
    4850:	00f9a023          	sw	a5,0(s3)
    4854:	00098513          	mv	a0,s3
    4858:	014000ef          	jal	486c <__malloc_unlock>
    485c:	e91ff06f          	j	46ec <_malloc_r+0x4c>
    4860:	00952023          	sw	s1,0(a0)
    4864:	f71ff06f          	j	47d4 <_malloc_r+0x134>

00004868 <__malloc_lock>:
    4868:	00008067          	ret

0000486c <__malloc_unlock>:
    486c:	00008067          	ret

00004870 <__sflush_r>:
    4870:	00c59783          	lh	a5,12(a1)
    4874:	fe010113          	addi	sp,sp,-32
    4878:	00812c23          	sw	s0,24(sp)
    487c:	00912a23          	sw	s1,20(sp)
    4880:	00112e23          	sw	ra,28(sp)
    4884:	01212823          	sw	s2,16(sp)
    4888:	0087f713          	andi	a4,a5,8
    488c:	00050493          	mv	s1,a0
    4890:	00058413          	mv	s0,a1
    4894:	14071c63          	bnez	a4,49ec <__sflush_r+0x17c>
    4898:	0045a703          	lw	a4,4(a1)
    489c:	00e04663          	bgtz	a4,48a8 <__sflush_r+0x38>
    48a0:	0405a703          	lw	a4,64(a1)
    48a4:	00e05663          	blez	a4,48b0 <__sflush_r+0x40>
    48a8:	02c42703          	lw	a4,44(s0)
    48ac:	02071063          	bnez	a4,48cc <__sflush_r+0x5c>
    48b0:	00000513          	li	a0,0
    48b4:	01c12083          	lw	ra,28(sp)
    48b8:	01812403          	lw	s0,24(sp)
    48bc:	01412483          	lw	s1,20(sp)
    48c0:	01012903          	lw	s2,16(sp)
    48c4:	02010113          	addi	sp,sp,32
    48c8:	00008067          	ret
    48cc:	0004a903          	lw	s2,0(s1)
    48d0:	01379693          	slli	a3,a5,0x13
    48d4:	0004a023          	sw	zero,0(s1)
    48d8:	0a06de63          	bgez	a3,4994 <__sflush_r+0x124>
    48dc:	05442503          	lw	a0,84(s0)
    48e0:	00c45783          	lhu	a5,12(s0)
    48e4:	0047f793          	andi	a5,a5,4
    48e8:	00078e63          	beqz	a5,4904 <__sflush_r+0x94>
    48ec:	00442783          	lw	a5,4(s0)
    48f0:	40f50533          	sub	a0,a0,a5
    48f4:	03442783          	lw	a5,52(s0)
    48f8:	00078663          	beqz	a5,4904 <__sflush_r+0x94>
    48fc:	04042783          	lw	a5,64(s0)
    4900:	40f50533          	sub	a0,a0,a5
    4904:	02c42783          	lw	a5,44(s0)
    4908:	02042583          	lw	a1,32(s0)
    490c:	00050613          	mv	a2,a0
    4910:	00000693          	li	a3,0
    4914:	00048513          	mv	a0,s1
    4918:	000780e7          	jalr	a5
    491c:	fff00793          	li	a5,-1
    4920:	00c41703          	lh	a4,12(s0)
    4924:	02f51263          	bne	a0,a5,4948 <__sflush_r+0xd8>
    4928:	0004a683          	lw	a3,0(s1)
    492c:	01d00793          	li	a5,29
    4930:	0ad7e863          	bltu	a5,a3,49e0 <__sflush_r+0x170>
    4934:	204007b7          	lui	a5,0x20400
    4938:	00178793          	addi	a5,a5,1 # 20400001 <_sp+0x203d5601>
    493c:	00d7d7b3          	srl	a5,a5,a3
    4940:	0017f793          	andi	a5,a5,1
    4944:	08078e63          	beqz	a5,49e0 <__sflush_r+0x170>
    4948:	01042783          	lw	a5,16(s0)
    494c:	00042223          	sw	zero,4(s0)
    4950:	00f42023          	sw	a5,0(s0)
    4954:	01371793          	slli	a5,a4,0x13
    4958:	0007dc63          	bgez	a5,4970 <__sflush_r+0x100>
    495c:	fff00793          	li	a5,-1
    4960:	00f51663          	bne	a0,a5,496c <__sflush_r+0xfc>
    4964:	0004a783          	lw	a5,0(s1)
    4968:	00079463          	bnez	a5,4970 <__sflush_r+0x100>
    496c:	04a42a23          	sw	a0,84(s0)
    4970:	03442583          	lw	a1,52(s0)
    4974:	0124a023          	sw	s2,0(s1)
    4978:	f2058ce3          	beqz	a1,48b0 <__sflush_r+0x40>
    497c:	04440793          	addi	a5,s0,68
    4980:	00f58663          	beq	a1,a5,498c <__sflush_r+0x11c>
    4984:	00048513          	mv	a0,s1
    4988:	b9dff0ef          	jal	4524 <_free_r>
    498c:	02042a23          	sw	zero,52(s0)
    4990:	f21ff06f          	j	48b0 <__sflush_r+0x40>
    4994:	02042583          	lw	a1,32(s0)
    4998:	00100693          	li	a3,1
    499c:	00000613          	li	a2,0
    49a0:	00048513          	mv	a0,s1
    49a4:	000700e7          	jalr	a4
    49a8:	fff00793          	li	a5,-1
    49ac:	f2f51ae3          	bne	a0,a5,48e0 <__sflush_r+0x70>
    49b0:	0004a783          	lw	a5,0(s1)
    49b4:	f20786e3          	beqz	a5,48e0 <__sflush_r+0x70>
    49b8:	fea78713          	addi	a4,a5,-22
    49bc:	00070663          	beqz	a4,49c8 <__sflush_r+0x158>
    49c0:	fe378793          	addi	a5,a5,-29
    49c4:	00079663          	bnez	a5,49d0 <__sflush_r+0x160>
    49c8:	0124a023          	sw	s2,0(s1)
    49cc:	ee5ff06f          	j	48b0 <__sflush_r+0x40>
    49d0:	00c45783          	lhu	a5,12(s0)
    49d4:	0407e793          	ori	a5,a5,64
    49d8:	00f41623          	sh	a5,12(s0)
    49dc:	ed9ff06f          	j	48b4 <__sflush_r+0x44>
    49e0:	04076713          	ori	a4,a4,64
    49e4:	00e41623          	sh	a4,12(s0)
    49e8:	ecdff06f          	j	48b4 <__sflush_r+0x44>
    49ec:	0105a603          	lw	a2,16(a1)
    49f0:	ec0600e3          	beqz	a2,48b0 <__sflush_r+0x40>
    49f4:	0005a683          	lw	a3,0(a1)
    49f8:	0037f793          	andi	a5,a5,3
    49fc:	00c5a023          	sw	a2,0(a1)
    4a00:	40c68933          	sub	s2,a3,a2
    4a04:	00000713          	li	a4,0
    4a08:	00079463          	bnez	a5,4a10 <__sflush_r+0x1a0>
    4a0c:	0145a703          	lw	a4,20(a1)
    4a10:	00e42423          	sw	a4,8(s0)
    4a14:	e9205ee3          	blez	s2,48b0 <__sflush_r+0x40>
    4a18:	02842783          	lw	a5,40(s0)
    4a1c:	02042583          	lw	a1,32(s0)
    4a20:	00090693          	mv	a3,s2
    4a24:	00048513          	mv	a0,s1
    4a28:	00c12623          	sw	a2,12(sp)
    4a2c:	000780e7          	jalr	a5
    4a30:	00c12603          	lw	a2,12(sp)
    4a34:	00a04c63          	bgtz	a0,4a4c <__sflush_r+0x1dc>
    4a38:	00c45783          	lhu	a5,12(s0)
    4a3c:	fff00513          	li	a0,-1
    4a40:	0407e793          	ori	a5,a5,64
    4a44:	00f41623          	sh	a5,12(s0)
    4a48:	e6dff06f          	j	48b4 <__sflush_r+0x44>
    4a4c:	00a60633          	add	a2,a2,a0
    4a50:	40a90933          	sub	s2,s2,a0
    4a54:	fc1ff06f          	j	4a14 <__sflush_r+0x1a4>

00004a58 <_fflush_r>:
    4a58:	0105a783          	lw	a5,16(a1)
    4a5c:	04078e63          	beqz	a5,4ab8 <_fflush_r+0x60>
    4a60:	fe010113          	addi	sp,sp,-32
    4a64:	00812c23          	sw	s0,24(sp)
    4a68:	00112e23          	sw	ra,28(sp)
    4a6c:	00050413          	mv	s0,a0
    4a70:	00050c63          	beqz	a0,4a88 <_fflush_r+0x30>
    4a74:	02052783          	lw	a5,32(a0)
    4a78:	00079863          	bnez	a5,4a88 <_fflush_r+0x30>
    4a7c:	00b12623          	sw	a1,12(sp)
    4a80:	cfcff0ef          	jal	3f7c <__sinit>
    4a84:	00c12583          	lw	a1,12(sp)
    4a88:	00c59783          	lh	a5,12(a1)
    4a8c:	00078c63          	beqz	a5,4aa4 <_fflush_r+0x4c>
    4a90:	00040513          	mv	a0,s0
    4a94:	01812403          	lw	s0,24(sp)
    4a98:	01c12083          	lw	ra,28(sp)
    4a9c:	02010113          	addi	sp,sp,32
    4aa0:	dd1ff06f          	j	4870 <__sflush_r>
    4aa4:	01c12083          	lw	ra,28(sp)
    4aa8:	01812403          	lw	s0,24(sp)
    4aac:	00000513          	li	a0,0
    4ab0:	02010113          	addi	sp,sp,32
    4ab4:	00008067          	ret
    4ab8:	00000513          	li	a0,0
    4abc:	00008067          	ret

00004ac0 <_sbrk_r>:
    4ac0:	ff010113          	addi	sp,sp,-16
    4ac4:	00812423          	sw	s0,8(sp)
    4ac8:	00912223          	sw	s1,4(sp)
    4acc:	00050493          	mv	s1,a0
    4ad0:	00058513          	mv	a0,a1
    4ad4:	00112623          	sw	ra,12(sp)
    4ad8:	9601a223          	sw	zero,-1692(gp) # 227ac <errno>
    4adc:	838ff0ef          	jal	3b14 <_sbrk>
    4ae0:	fff00793          	li	a5,-1
    4ae4:	00f51863          	bne	a0,a5,4af4 <_sbrk_r+0x34>
    4ae8:	9641a783          	lw	a5,-1692(gp) # 227ac <errno>
    4aec:	00078463          	beqz	a5,4af4 <_sbrk_r+0x34>
    4af0:	00f4a023          	sw	a5,0(s1)
    4af4:	00c12083          	lw	ra,12(sp)
    4af8:	00812403          	lw	s0,8(sp)
    4afc:	00412483          	lw	s1,4(sp)
    4b00:	01010113          	addi	sp,sp,16
    4b04:	00008067          	ret

00004b08 <iprintf>:
    4b08:	fc010113          	addi	sp,sp,-64
    4b0c:	02f12a23          	sw	a5,52(sp)
    4b10:	95c1a783          	lw	a5,-1700(gp) # 227a4 <_impure_ptr>
    4b14:	02c12423          	sw	a2,40(sp)
    4b18:	02d12623          	sw	a3,44(sp)
    4b1c:	02b12223          	sw	a1,36(sp)
    4b20:	02e12823          	sw	a4,48(sp)
    4b24:	03012c23          	sw	a6,56(sp)
    4b28:	03112e23          	sw	a7,60(sp)
    4b2c:	0087a583          	lw	a1,8(a5)
    4b30:	02410693          	addi	a3,sp,36
    4b34:	00050613          	mv	a2,a0
    4b38:	00078513          	mv	a0,a5
    4b3c:	00112e23          	sw	ra,28(sp)
    4b40:	00d12623          	sw	a3,12(sp)
    4b44:	414000ef          	jal	4f58 <_vfiprintf_r>
    4b48:	01c12083          	lw	ra,28(sp)
    4b4c:	04010113          	addi	sp,sp,64
    4b50:	00008067          	ret

00004b54 <_puts_r>:
    4b54:	02052783          	lw	a5,32(a0)
    4b58:	fe010113          	addi	sp,sp,-32
    4b5c:	00812c23          	sw	s0,24(sp)
    4b60:	00912a23          	sw	s1,20(sp)
    4b64:	01212823          	sw	s2,16(sp)
    4b68:	00112e23          	sw	ra,28(sp)
    4b6c:	01312623          	sw	s3,12(sp)
    4b70:	00852403          	lw	s0,8(a0)
    4b74:	00050493          	mv	s1,a0
    4b78:	00058913          	mv	s2,a1
    4b7c:	00079463          	bnez	a5,4b84 <_puts_r+0x30>
    4b80:	bfcff0ef          	jal	3f7c <__sinit>
    4b84:	00c45783          	lhu	a5,12(s0)
    4b88:	0087f793          	andi	a5,a5,8
    4b8c:	00078663          	beqz	a5,4b98 <_puts_r+0x44>
    4b90:	01042783          	lw	a5,16(s0)
    4b94:	0a079663          	bnez	a5,4c40 <_puts_r+0xec>
    4b98:	00040593          	mv	a1,s0
    4b9c:	00048513          	mv	a0,s1
    4ba0:	1c8000ef          	jal	4d68 <__swsetup_r>
    4ba4:	00050793          	mv	a5,a0
    4ba8:	fff00513          	li	a0,-1
    4bac:	08078a63          	beqz	a5,4c40 <_puts_r+0xec>
    4bb0:	01c12083          	lw	ra,28(sp)
    4bb4:	01812403          	lw	s0,24(sp)
    4bb8:	01412483          	lw	s1,20(sp)
    4bbc:	01012903          	lw	s2,16(sp)
    4bc0:	00c12983          	lw	s3,12(sp)
    4bc4:	02010113          	addi	sp,sp,32
    4bc8:	00008067          	ret
    4bcc:	0007da63          	bgez	a5,4be0 <_puts_r+0x8c>
    4bd0:	01842703          	lw	a4,24(s0)
    4bd4:	04e7cc63          	blt	a5,a4,4c2c <_puts_r+0xd8>
    4bd8:	ff658793          	addi	a5,a1,-10
    4bdc:	04078863          	beqz	a5,4c2c <_puts_r+0xd8>
    4be0:	00042783          	lw	a5,0(s0)
    4be4:	00178713          	addi	a4,a5,1
    4be8:	00e42023          	sw	a4,0(s0)
    4bec:	00b78023          	sb	a1,0(a5)
    4bf0:	00190913          	addi	s2,s2,1
    4bf4:	00842783          	lw	a5,8(s0)
    4bf8:	00094583          	lbu	a1,0(s2)
    4bfc:	fff78793          	addi	a5,a5,-1
    4c00:	00f42423          	sw	a5,8(s0)
    4c04:	fc0594e3          	bnez	a1,4bcc <_puts_r+0x78>
    4c08:	0407d063          	bgez	a5,4c48 <_puts_r+0xf4>
    4c0c:	00040613          	mv	a2,s0
    4c10:	00a00593          	li	a1,10
    4c14:	00048513          	mv	a0,s1
    4c18:	054000ef          	jal	4c6c <__swbuf_r>
    4c1c:	fff00793          	li	a5,-1
    4c20:	f8f508e3          	beq	a0,a5,4bb0 <_puts_r+0x5c>
    4c24:	00a00513          	li	a0,10
    4c28:	f89ff06f          	j	4bb0 <_puts_r+0x5c>
    4c2c:	00040613          	mv	a2,s0
    4c30:	00048513          	mv	a0,s1
    4c34:	038000ef          	jal	4c6c <__swbuf_r>
    4c38:	fb351ce3          	bne	a0,s3,4bf0 <_puts_r+0x9c>
    4c3c:	f75ff06f          	j	4bb0 <_puts_r+0x5c>
    4c40:	fff00993          	li	s3,-1
    4c44:	fb1ff06f          	j	4bf4 <_puts_r+0xa0>
    4c48:	00042783          	lw	a5,0(s0)
    4c4c:	00a00513          	li	a0,10
    4c50:	00178713          	addi	a4,a5,1
    4c54:	00e42023          	sw	a4,0(s0)
    4c58:	00a78023          	sb	a0,0(a5)
    4c5c:	f55ff06f          	j	4bb0 <_puts_r+0x5c>

00004c60 <puts>:
    4c60:	00050593          	mv	a1,a0
    4c64:	95c1a503          	lw	a0,-1700(gp) # 227a4 <_impure_ptr>
    4c68:	eedff06f          	j	4b54 <_puts_r>

00004c6c <__swbuf_r>:
    4c6c:	fe010113          	addi	sp,sp,-32
    4c70:	00812c23          	sw	s0,24(sp)
    4c74:	00912a23          	sw	s1,20(sp)
    4c78:	01312623          	sw	s3,12(sp)
    4c7c:	00112e23          	sw	ra,28(sp)
    4c80:	01212823          	sw	s2,16(sp)
    4c84:	00050493          	mv	s1,a0
    4c88:	00058993          	mv	s3,a1
    4c8c:	00060413          	mv	s0,a2
    4c90:	00050863          	beqz	a0,4ca0 <__swbuf_r+0x34>
    4c94:	02052783          	lw	a5,32(a0)
    4c98:	00079463          	bnez	a5,4ca0 <__swbuf_r+0x34>
    4c9c:	ae0ff0ef          	jal	3f7c <__sinit>
    4ca0:	01842783          	lw	a5,24(s0)
    4ca4:	00f42423          	sw	a5,8(s0)
    4ca8:	00c45783          	lhu	a5,12(s0)
    4cac:	0087f793          	andi	a5,a5,8
    4cb0:	0a078063          	beqz	a5,4d50 <__swbuf_r+0xe4>
    4cb4:	01042783          	lw	a5,16(s0)
    4cb8:	08078c63          	beqz	a5,4d50 <__swbuf_r+0xe4>
    4cbc:	01042783          	lw	a5,16(s0)
    4cc0:	00042503          	lw	a0,0(s0)
    4cc4:	40f50533          	sub	a0,a0,a5
    4cc8:	01442783          	lw	a5,20(s0)
    4ccc:	00f54a63          	blt	a0,a5,4ce0 <__swbuf_r+0x74>
    4cd0:	00040593          	mv	a1,s0
    4cd4:	00048513          	mv	a0,s1
    4cd8:	d81ff0ef          	jal	4a58 <_fflush_r>
    4cdc:	08051263          	bnez	a0,4d60 <__swbuf_r+0xf4>
    4ce0:	00842783          	lw	a5,8(s0)
    4ce4:	00150513          	addi	a0,a0,1
    4ce8:	0ff9f913          	zext.b	s2,s3
    4cec:	fff78793          	addi	a5,a5,-1
    4cf0:	00f42423          	sw	a5,8(s0)
    4cf4:	00042783          	lw	a5,0(s0)
    4cf8:	00178713          	addi	a4,a5,1
    4cfc:	00e42023          	sw	a4,0(s0)
    4d00:	01378023          	sb	s3,0(a5)
    4d04:	01442783          	lw	a5,20(s0)
    4d08:	00a78c63          	beq	a5,a0,4d20 <__swbuf_r+0xb4>
    4d0c:	ff690793          	addi	a5,s2,-10
    4d10:	02079063          	bnez	a5,4d30 <__swbuf_r+0xc4>
    4d14:	00c45783          	lhu	a5,12(s0)
    4d18:	0017f793          	andi	a5,a5,1
    4d1c:	00078a63          	beqz	a5,4d30 <__swbuf_r+0xc4>
    4d20:	00040593          	mv	a1,s0
    4d24:	00048513          	mv	a0,s1
    4d28:	d31ff0ef          	jal	4a58 <_fflush_r>
    4d2c:	02051a63          	bnez	a0,4d60 <__swbuf_r+0xf4>
    4d30:	01c12083          	lw	ra,28(sp)
    4d34:	01812403          	lw	s0,24(sp)
    4d38:	01412483          	lw	s1,20(sp)
    4d3c:	00c12983          	lw	s3,12(sp)
    4d40:	00090513          	mv	a0,s2
    4d44:	01012903          	lw	s2,16(sp)
    4d48:	02010113          	addi	sp,sp,32
    4d4c:	00008067          	ret
    4d50:	00040593          	mv	a1,s0
    4d54:	00048513          	mv	a0,s1
    4d58:	010000ef          	jal	4d68 <__swsetup_r>
    4d5c:	f60500e3          	beqz	a0,4cbc <__swbuf_r+0x50>
    4d60:	fff00913          	li	s2,-1
    4d64:	fcdff06f          	j	4d30 <__swbuf_r+0xc4>

00004d68 <__swsetup_r>:
    4d68:	ff010113          	addi	sp,sp,-16
    4d6c:	00912223          	sw	s1,4(sp)
    4d70:	00050493          	mv	s1,a0
    4d74:	95c1a503          	lw	a0,-1700(gp) # 227a4 <_impure_ptr>
    4d78:	00812423          	sw	s0,8(sp)
    4d7c:	00112623          	sw	ra,12(sp)
    4d80:	00058413          	mv	s0,a1
    4d84:	00050863          	beqz	a0,4d94 <__swsetup_r+0x2c>
    4d88:	02052783          	lw	a5,32(a0)
    4d8c:	00079463          	bnez	a5,4d94 <__swsetup_r+0x2c>
    4d90:	9ecff0ef          	jal	3f7c <__sinit>
    4d94:	00c41783          	lh	a5,12(s0)
    4d98:	0087f713          	andi	a4,a5,8
    4d9c:	06071a63          	bnez	a4,4e10 <__swsetup_r+0xa8>
    4da0:	0107f713          	andi	a4,a5,16
    4da4:	02071663          	bnez	a4,4dd0 <__swsetup_r+0x68>
    4da8:	00900713          	li	a4,9
    4dac:	00e4a023          	sw	a4,0(s1)
    4db0:	0407e793          	ori	a5,a5,64
    4db4:	00f41623          	sh	a5,12(s0)
    4db8:	fff00513          	li	a0,-1
    4dbc:	00c12083          	lw	ra,12(sp)
    4dc0:	00812403          	lw	s0,8(sp)
    4dc4:	00412483          	lw	s1,4(sp)
    4dc8:	01010113          	addi	sp,sp,16
    4dcc:	00008067          	ret
    4dd0:	0047f713          	andi	a4,a5,4
    4dd4:	02070a63          	beqz	a4,4e08 <__swsetup_r+0xa0>
    4dd8:	03442583          	lw	a1,52(s0)
    4ddc:	00058c63          	beqz	a1,4df4 <__swsetup_r+0x8c>
    4de0:	04440793          	addi	a5,s0,68
    4de4:	00f58663          	beq	a1,a5,4df0 <__swsetup_r+0x88>
    4de8:	00048513          	mv	a0,s1
    4dec:	f38ff0ef          	jal	4524 <_free_r>
    4df0:	02042a23          	sw	zero,52(s0)
    4df4:	00c45783          	lhu	a5,12(s0)
    4df8:	01042703          	lw	a4,16(s0)
    4dfc:	00042223          	sw	zero,4(s0)
    4e00:	fdb7f793          	andi	a5,a5,-37
    4e04:	00e42023          	sw	a4,0(s0)
    4e08:	0087e793          	ori	a5,a5,8
    4e0c:	00f41623          	sh	a5,12(s0)
    4e10:	01042783          	lw	a5,16(s0)
    4e14:	02079063          	bnez	a5,4e34 <__swsetup_r+0xcc>
    4e18:	00c42783          	lw	a5,12(s0)
    4e1c:	20000713          	li	a4,512
    4e20:	2807f793          	andi	a5,a5,640
    4e24:	00e78863          	beq	a5,a4,4e34 <__swsetup_r+0xcc>
    4e28:	00040593          	mv	a1,s0
    4e2c:	00048513          	mv	a0,s1
    4e30:	25d000ef          	jal	588c <__smakebuf_r>
    4e34:	00c41783          	lh	a5,12(s0)
    4e38:	0017f713          	andi	a4,a5,1
    4e3c:	02070263          	beqz	a4,4e60 <__swsetup_r+0xf8>
    4e40:	01442703          	lw	a4,20(s0)
    4e44:	00042423          	sw	zero,8(s0)
    4e48:	40e00733          	neg	a4,a4
    4e4c:	00e42c23          	sw	a4,24(s0)
    4e50:	01042703          	lw	a4,16(s0)
    4e54:	02070263          	beqz	a4,4e78 <__swsetup_r+0x110>
    4e58:	00000513          	li	a0,0
    4e5c:	f61ff06f          	j	4dbc <__swsetup_r+0x54>
    4e60:	0027f713          	andi	a4,a5,2
    4e64:	00000693          	li	a3,0
    4e68:	00071463          	bnez	a4,4e70 <__swsetup_r+0x108>
    4e6c:	01442683          	lw	a3,20(s0)
    4e70:	00d42423          	sw	a3,8(s0)
    4e74:	fddff06f          	j	4e50 <__swsetup_r+0xe8>
    4e78:	0807f713          	andi	a4,a5,128
    4e7c:	fc070ee3          	beqz	a4,4e58 <__swsetup_r+0xf0>
    4e80:	f31ff06f          	j	4db0 <__swsetup_r+0x48>

00004e84 <__errno>:
    4e84:	95c1a503          	lw	a0,-1700(gp) # 227a4 <_impure_ptr>
    4e88:	00008067          	ret

00004e8c <strlen>:
    4e8c:	00050793          	mv	a5,a0
    4e90:	0007c703          	lbu	a4,0(a5)
    4e94:	00178793          	addi	a5,a5,1
    4e98:	fe071ce3          	bnez	a4,4e90 <strlen+0x4>
    4e9c:	40a78533          	sub	a0,a5,a0
    4ea0:	fff50513          	addi	a0,a0,-1
    4ea4:	00008067          	ret

00004ea8 <__sfputc_r>:
    4ea8:	00862783          	lw	a5,8(a2)
    4eac:	fff78793          	addi	a5,a5,-1
    4eb0:	00f62423          	sw	a5,8(a2)
    4eb4:	0007dc63          	bgez	a5,4ecc <__sfputc_r+0x24>
    4eb8:	01862703          	lw	a4,24(a2)
    4ebc:	00e7c663          	blt	a5,a4,4ec8 <__sfputc_r+0x20>
    4ec0:	ff658793          	addi	a5,a1,-10
    4ec4:	00079463          	bnez	a5,4ecc <__sfputc_r+0x24>
    4ec8:	da5ff06f          	j	4c6c <__swbuf_r>
    4ecc:	00062783          	lw	a5,0(a2)
    4ed0:	00058513          	mv	a0,a1
    4ed4:	00178713          	addi	a4,a5,1
    4ed8:	00e62023          	sw	a4,0(a2)
    4edc:	00b78023          	sb	a1,0(a5)
    4ee0:	00008067          	ret

00004ee4 <__sfputs_r>:
    4ee4:	fe010113          	addi	sp,sp,-32
    4ee8:	00812c23          	sw	s0,24(sp)
    4eec:	00912a23          	sw	s1,20(sp)
    4ef0:	01212823          	sw	s2,16(sp)
    4ef4:	01312623          	sw	s3,12(sp)
    4ef8:	01412423          	sw	s4,8(sp)
    4efc:	00112e23          	sw	ra,28(sp)
    4f00:	00050993          	mv	s3,a0
    4f04:	00058a13          	mv	s4,a1
    4f08:	00060413          	mv	s0,a2
    4f0c:	00d604b3          	add	s1,a2,a3
    4f10:	fff00913          	li	s2,-1
    4f14:	00941663          	bne	s0,s1,4f20 <__sfputs_r+0x3c>
    4f18:	00000513          	li	a0,0
    4f1c:	01c0006f          	j	4f38 <__sfputs_r+0x54>
    4f20:	00044583          	lbu	a1,0(s0)
    4f24:	000a0613          	mv	a2,s4
    4f28:	00098513          	mv	a0,s3
    4f2c:	f7dff0ef          	jal	4ea8 <__sfputc_r>
    4f30:	00140413          	addi	s0,s0,1
    4f34:	ff2510e3          	bne	a0,s2,4f14 <__sfputs_r+0x30>
    4f38:	01c12083          	lw	ra,28(sp)
    4f3c:	01812403          	lw	s0,24(sp)
    4f40:	01412483          	lw	s1,20(sp)
    4f44:	01012903          	lw	s2,16(sp)
    4f48:	00c12983          	lw	s3,12(sp)
    4f4c:	00812a03          	lw	s4,8(sp)
    4f50:	02010113          	addi	sp,sp,32
    4f54:	00008067          	ret

00004f58 <_vfiprintf_r>:
    4f58:	f5010113          	addi	sp,sp,-176
    4f5c:	0a812423          	sw	s0,168(sp)
    4f60:	0a912223          	sw	s1,164(sp)
    4f64:	0b212023          	sw	s2,160(sp)
    4f68:	09312e23          	sw	s3,156(sp)
    4f6c:	0a112623          	sw	ra,172(sp)
    4f70:	09412c23          	sw	s4,152(sp)
    4f74:	09512a23          	sw	s5,148(sp)
    4f78:	09612823          	sw	s6,144(sp)
    4f7c:	09712623          	sw	s7,140(sp)
    4f80:	00050913          	mv	s2,a0
    4f84:	00058493          	mv	s1,a1
    4f88:	00060413          	mv	s0,a2
    4f8c:	00068993          	mv	s3,a3
    4f90:	00050863          	beqz	a0,4fa0 <_vfiprintf_r+0x48>
    4f94:	02052783          	lw	a5,32(a0)
    4f98:	00079463          	bnez	a5,4fa0 <_vfiprintf_r+0x48>
    4f9c:	fe1fe0ef          	jal	3f7c <__sinit>
    4fa0:	00c4d783          	lhu	a5,12(s1)
    4fa4:	0087f793          	andi	a5,a5,8
    4fa8:	00078663          	beqz	a5,4fb4 <_vfiprintf_r+0x5c>
    4fac:	0104a783          	lw	a5,16(s1)
    4fb0:	00079a63          	bnez	a5,4fc4 <_vfiprintf_r+0x6c>
    4fb4:	00048593          	mv	a1,s1
    4fb8:	00090513          	mv	a0,s2
    4fbc:	dadff0ef          	jal	4d68 <__swsetup_r>
    4fc0:	2a051a63          	bnez	a0,5274 <_vfiprintf_r+0x31c>
    4fc4:	02000793          	li	a5,32
    4fc8:	02f10ca3          	sb	a5,57(sp)
    4fcc:	00020a37          	lui	s4,0x20
    4fd0:	03000793          	li	a5,48
    4fd4:	01312e23          	sw	s3,28(sp)
    4fd8:	02012a23          	sw	zero,52(sp)
    4fdc:	02f10d23          	sb	a5,58(sp)
    4fe0:	02500a93          	li	s5,37
    4fe4:	fff00993          	li	s3,-1
    4fe8:	53ca0a13          	addi	s4,s4,1340 # 2053c <__clz_tab+0x2f8>
    4fec:	00100b13          	li	s6,1
    4ff0:	00040b93          	mv	s7,s0
    4ff4:	000bc783          	lbu	a5,0(s7)
    4ff8:	00078463          	beqz	a5,5000 <_vfiprintf_r+0xa8>
    4ffc:	0d579463          	bne	a5,s5,50c4 <_vfiprintf_r+0x16c>
    5000:	408b86b3          	sub	a3,s7,s0
    5004:	028b8663          	beq	s7,s0,5030 <_vfiprintf_r+0xd8>
    5008:	00040613          	mv	a2,s0
    500c:	00048593          	mv	a1,s1
    5010:	00090513          	mv	a0,s2
    5014:	00d12623          	sw	a3,12(sp)
    5018:	ecdff0ef          	jal	4ee4 <__sfputs_r>
    501c:	25350663          	beq	a0,s3,5268 <_vfiprintf_r+0x310>
    5020:	03412783          	lw	a5,52(sp)
    5024:	00c12683          	lw	a3,12(sp)
    5028:	00d787b3          	add	a5,a5,a3
    502c:	02f12a23          	sw	a5,52(sp)
    5030:	000bc783          	lbu	a5,0(s7)
    5034:	22078a63          	beqz	a5,5268 <_vfiprintf_r+0x310>
    5038:	001b8413          	addi	s0,s7,1
    503c:	02012023          	sw	zero,32(sp)
    5040:	02012623          	sw	zero,44(sp)
    5044:	03312223          	sw	s3,36(sp)
    5048:	02012423          	sw	zero,40(sp)
    504c:	060101a3          	sb	zero,99(sp)
    5050:	06012c23          	sw	zero,120(sp)
    5054:	00044583          	lbu	a1,0(s0)
    5058:	00500613          	li	a2,5
    505c:	000a0513          	mv	a0,s4
    5060:	18d000ef          	jal	59ec <memchr>
    5064:	02012783          	lw	a5,32(sp)
    5068:	00140693          	addi	a3,s0,1
    506c:	06051063          	bnez	a0,50cc <_vfiprintf_r+0x174>
    5070:	0107f713          	andi	a4,a5,16
    5074:	00070663          	beqz	a4,5080 <_vfiprintf_r+0x128>
    5078:	02000713          	li	a4,32
    507c:	06e101a3          	sb	a4,99(sp)
    5080:	0087f713          	andi	a4,a5,8
    5084:	00070663          	beqz	a4,5090 <_vfiprintf_r+0x138>
    5088:	02b00713          	li	a4,43
    508c:	06e101a3          	sb	a4,99(sp)
    5090:	00044603          	lbu	a2,0(s0)
    5094:	02a00713          	li	a4,42
    5098:	04e60663          	beq	a2,a4,50e4 <_vfiprintf_r+0x18c>
    509c:	02c12783          	lw	a5,44(sp)
    50a0:	00000693          	li	a3,0
    50a4:	00900613          	li	a2,9
    50a8:	00a00593          	li	a1,10
    50ac:	00044703          	lbu	a4,0(s0)
    50b0:	fd070713          	addi	a4,a4,-48
    50b4:	08e67c63          	bgeu	a2,a4,514c <_vfiprintf_r+0x1f4>
    50b8:	04068463          	beqz	a3,5100 <_vfiprintf_r+0x1a8>
    50bc:	02f12623          	sw	a5,44(sp)
    50c0:	0400006f          	j	5100 <_vfiprintf_r+0x1a8>
    50c4:	001b8b93          	addi	s7,s7,1
    50c8:	f2dff06f          	j	4ff4 <_vfiprintf_r+0x9c>
    50cc:	41450533          	sub	a0,a0,s4
    50d0:	00ab1533          	sll	a0,s6,a0
    50d4:	00f56533          	or	a0,a0,a5
    50d8:	02a12023          	sw	a0,32(sp)
    50dc:	00068413          	mv	s0,a3
    50e0:	f75ff06f          	j	5054 <_vfiprintf_r+0xfc>
    50e4:	01c12703          	lw	a4,28(sp)
    50e8:	00470613          	addi	a2,a4,4
    50ec:	00072703          	lw	a4,0(a4)
    50f0:	00c12e23          	sw	a2,28(sp)
    50f4:	04074263          	bltz	a4,5138 <_vfiprintf_r+0x1e0>
    50f8:	02e12623          	sw	a4,44(sp)
    50fc:	00068413          	mv	s0,a3
    5100:	00044703          	lbu	a4,0(s0)
    5104:	02e00793          	li	a5,46
    5108:	04f71e63          	bne	a4,a5,5164 <_vfiprintf_r+0x20c>
    510c:	00144703          	lbu	a4,1(s0)
    5110:	02a00793          	li	a5,42
    5114:	0cf71e63          	bne	a4,a5,51f0 <_vfiprintf_r+0x298>
    5118:	01c12783          	lw	a5,28(sp)
    511c:	00240413          	addi	s0,s0,2
    5120:	00478713          	addi	a4,a5,4
    5124:	0007a783          	lw	a5,0(a5)
    5128:	00e12e23          	sw	a4,28(sp)
    512c:	0207ca63          	bltz	a5,5160 <_vfiprintf_r+0x208>
    5130:	02f12223          	sw	a5,36(sp)
    5134:	0300006f          	j	5164 <_vfiprintf_r+0x20c>
    5138:	40e00733          	neg	a4,a4
    513c:	0027e793          	ori	a5,a5,2
    5140:	02e12623          	sw	a4,44(sp)
    5144:	02f12023          	sw	a5,32(sp)
    5148:	fb5ff06f          	j	50fc <_vfiprintf_r+0x1a4>
    514c:	02b787b3          	mul	a5,a5,a1
    5150:	00140413          	addi	s0,s0,1
    5154:	00100693          	li	a3,1
    5158:	00e787b3          	add	a5,a5,a4
    515c:	f51ff06f          	j	50ac <_vfiprintf_r+0x154>
    5160:	03312223          	sw	s3,36(sp)
    5164:	00044583          	lbu	a1,0(s0)
    5168:	00020bb7          	lui	s7,0x20
    516c:	00300613          	li	a2,3
    5170:	544b8513          	addi	a0,s7,1348 # 20544 <__clz_tab+0x300>
    5174:	079000ef          	jal	59ec <memchr>
    5178:	02050263          	beqz	a0,519c <_vfiprintf_r+0x244>
    517c:	02012783          	lw	a5,32(sp)
    5180:	544b8b93          	addi	s7,s7,1348
    5184:	41750533          	sub	a0,a0,s7
    5188:	04000713          	li	a4,64
    518c:	00a71733          	sll	a4,a4,a0
    5190:	00e7e7b3          	or	a5,a5,a4
    5194:	00140413          	addi	s0,s0,1
    5198:	02f12023          	sw	a5,32(sp)
    519c:	00044583          	lbu	a1,0(s0)
    51a0:	00020537          	lui	a0,0x20
    51a4:	00600613          	li	a2,6
    51a8:	54850513          	addi	a0,a0,1352 # 20548 <__clz_tab+0x304>
    51ac:	02b10c23          	sb	a1,56(sp)
    51b0:	03d000ef          	jal	59ec <memchr>
    51b4:	0e050863          	beqz	a0,52a4 <_vfiprintf_r+0x34c>
    51b8:	00000793          	li	a5,0
    51bc:	08079463          	bnez	a5,5244 <_vfiprintf_r+0x2ec>
    51c0:	02012503          	lw	a0,32(sp)
    51c4:	01c12783          	lw	a5,28(sp)
    51c8:	10057513          	andi	a0,a0,256
    51cc:	06050263          	beqz	a0,5230 <_vfiprintf_r+0x2d8>
    51d0:	00478793          	addi	a5,a5,4
    51d4:	00f12e23          	sw	a5,28(sp)
    51d8:	00000513          	li	a0,0
    51dc:	03412783          	lw	a5,52(sp)
    51e0:	00140413          	addi	s0,s0,1
    51e4:	00a787b3          	add	a5,a5,a0
    51e8:	02f12a23          	sw	a5,52(sp)
    51ec:	e05ff06f          	j	4ff0 <_vfiprintf_r+0x98>
    51f0:	00140413          	addi	s0,s0,1
    51f4:	00000713          	li	a4,0
    51f8:	00000793          	li	a5,0
    51fc:	00900613          	li	a2,9
    5200:	00a00593          	li	a1,10
    5204:	00044683          	lbu	a3,0(s0)
    5208:	fd068693          	addi	a3,a3,-48
    520c:	00d67863          	bgeu	a2,a3,521c <_vfiprintf_r+0x2c4>
    5210:	40e00733          	neg	a4,a4
    5214:	00e7f7b3          	and	a5,a5,a4
    5218:	f19ff06f          	j	5130 <_vfiprintf_r+0x1d8>
    521c:	02b787b3          	mul	a5,a5,a1
    5220:	00140413          	addi	s0,s0,1
    5224:	00100713          	li	a4,1
    5228:	00d787b3          	add	a5,a5,a3
    522c:	fd9ff06f          	j	5204 <_vfiprintf_r+0x2ac>
    5230:	00778793          	addi	a5,a5,7
    5234:	ff87f793          	andi	a5,a5,-8
    5238:	00878793          	addi	a5,a5,8
    523c:	00f12e23          	sw	a5,28(sp)
    5240:	f9dff06f          	j	51dc <_vfiprintf_r+0x284>
    5244:	000056b7          	lui	a3,0x5
    5248:	01c10713          	addi	a4,sp,28
    524c:	ee468693          	addi	a3,a3,-284 # 4ee4 <__sfputs_r>
    5250:	00048613          	mv	a2,s1
    5254:	02010593          	addi	a1,sp,32
    5258:	00090513          	mv	a0,s2
    525c:	00000097          	auipc	ra,0x0
    5260:	000000e7          	jalr	zero # 0 <__vector_start>
    5264:	f7351ce3          	bne	a0,s3,51dc <_vfiprintf_r+0x284>
    5268:	00c4d783          	lhu	a5,12(s1)
    526c:	0407f793          	andi	a5,a5,64
    5270:	04078a63          	beqz	a5,52c4 <_vfiprintf_r+0x36c>
    5274:	fff00513          	li	a0,-1
    5278:	0ac12083          	lw	ra,172(sp)
    527c:	0a812403          	lw	s0,168(sp)
    5280:	0a412483          	lw	s1,164(sp)
    5284:	0a012903          	lw	s2,160(sp)
    5288:	09c12983          	lw	s3,156(sp)
    528c:	09812a03          	lw	s4,152(sp)
    5290:	09412a83          	lw	s5,148(sp)
    5294:	09012b03          	lw	s6,144(sp)
    5298:	08c12b83          	lw	s7,140(sp)
    529c:	0b010113          	addi	sp,sp,176
    52a0:	00008067          	ret
    52a4:	000056b7          	lui	a3,0x5
    52a8:	01c10713          	addi	a4,sp,28
    52ac:	ee468693          	addi	a3,a3,-284 # 4ee4 <__sfputs_r>
    52b0:	00048613          	mv	a2,s1
    52b4:	02010593          	addi	a1,sp,32
    52b8:	00090513          	mv	a0,s2
    52bc:	1bc000ef          	jal	5478 <_printf_i>
    52c0:	fa5ff06f          	j	5264 <_vfiprintf_r+0x30c>
    52c4:	03412503          	lw	a0,52(sp)
    52c8:	fb1ff06f          	j	5278 <_vfiprintf_r+0x320>

000052cc <_printf_common>:
    52cc:	fd010113          	addi	sp,sp,-48
    52d0:	03212023          	sw	s2,32(sp)
    52d4:	0105a783          	lw	a5,16(a1)
    52d8:	00070913          	mv	s2,a4
    52dc:	0085a703          	lw	a4,8(a1)
    52e0:	02812423          	sw	s0,40(sp)
    52e4:	01312e23          	sw	s3,28(sp)
    52e8:	01612823          	sw	s6,16(sp)
    52ec:	01712623          	sw	s7,12(sp)
    52f0:	02112623          	sw	ra,44(sp)
    52f4:	02912223          	sw	s1,36(sp)
    52f8:	01412c23          	sw	s4,24(sp)
    52fc:	01512a23          	sw	s5,20(sp)
    5300:	00050b13          	mv	s6,a0
    5304:	00058413          	mv	s0,a1
    5308:	00060993          	mv	s3,a2
    530c:	00068b93          	mv	s7,a3
    5310:	00e7d463          	bge	a5,a4,5318 <_printf_common+0x4c>
    5314:	00070793          	mv	a5,a4
    5318:	00f9a023          	sw	a5,0(s3)
    531c:	04344703          	lbu	a4,67(s0)
    5320:	00070663          	beqz	a4,532c <_printf_common+0x60>
    5324:	00178793          	addi	a5,a5,1
    5328:	00f9a023          	sw	a5,0(s3)
    532c:	00042783          	lw	a5,0(s0)
    5330:	0207f793          	andi	a5,a5,32
    5334:	00078863          	beqz	a5,5344 <_printf_common+0x78>
    5338:	0009a783          	lw	a5,0(s3)
    533c:	00278793          	addi	a5,a5,2
    5340:	00f9a023          	sw	a5,0(s3)
    5344:	00042483          	lw	s1,0(s0)
    5348:	0064f493          	andi	s1,s1,6
    534c:	00049e63          	bnez	s1,5368 <_printf_common+0x9c>
    5350:	01940a13          	addi	s4,s0,25
    5354:	fff00a93          	li	s5,-1
    5358:	00c42783          	lw	a5,12(s0)
    535c:	0009a703          	lw	a4,0(s3)
    5360:	40e787b3          	sub	a5,a5,a4
    5364:	0af4c863          	blt	s1,a5,5414 <_printf_common+0x148>
    5368:	00042783          	lw	a5,0(s0)
    536c:	04344683          	lbu	a3,67(s0)
    5370:	0207f793          	andi	a5,a5,32
    5374:	00d036b3          	snez	a3,a3
    5378:	0a079e63          	bnez	a5,5434 <_printf_common+0x168>
    537c:	04340613          	addi	a2,s0,67
    5380:	000b8593          	mv	a1,s7
    5384:	000b0513          	mv	a0,s6
    5388:	000900e7          	jalr	s2
    538c:	fff00793          	li	a5,-1
    5390:	04f50c63          	beq	a0,a5,53e8 <_printf_common+0x11c>
    5394:	00042783          	lw	a5,0(s0)
    5398:	00400713          	li	a4,4
    539c:	00000493          	li	s1,0
    53a0:	0067f793          	andi	a5,a5,6
    53a4:	00e79e63          	bne	a5,a4,53c0 <_printf_common+0xf4>
    53a8:	0009a783          	lw	a5,0(s3)
    53ac:	00c42483          	lw	s1,12(s0)
    53b0:	40f484b3          	sub	s1,s1,a5
    53b4:	fff4c793          	not	a5,s1
    53b8:	41f7d793          	srai	a5,a5,0x1f
    53bc:	00f4f4b3          	and	s1,s1,a5
    53c0:	00842783          	lw	a5,8(s0)
    53c4:	01042703          	lw	a4,16(s0)
    53c8:	00f75663          	bge	a4,a5,53d4 <_printf_common+0x108>
    53cc:	40e787b3          	sub	a5,a5,a4
    53d0:	00f484b3          	add	s1,s1,a5
    53d4:	00000993          	li	s3,0
    53d8:	01a40413          	addi	s0,s0,26
    53dc:	fff00a13          	li	s4,-1
    53e0:	07349c63          	bne	s1,s3,5458 <_printf_common+0x18c>
    53e4:	00000513          	li	a0,0
    53e8:	02c12083          	lw	ra,44(sp)
    53ec:	02812403          	lw	s0,40(sp)
    53f0:	02412483          	lw	s1,36(sp)
    53f4:	02012903          	lw	s2,32(sp)
    53f8:	01c12983          	lw	s3,28(sp)
    53fc:	01812a03          	lw	s4,24(sp)
    5400:	01412a83          	lw	s5,20(sp)
    5404:	01012b03          	lw	s6,16(sp)
    5408:	00c12b83          	lw	s7,12(sp)
    540c:	03010113          	addi	sp,sp,48
    5410:	00008067          	ret
    5414:	00100693          	li	a3,1
    5418:	000a0613          	mv	a2,s4
    541c:	000b8593          	mv	a1,s7
    5420:	000b0513          	mv	a0,s6
    5424:	000900e7          	jalr	s2
    5428:	fd5500e3          	beq	a0,s5,53e8 <_printf_common+0x11c>
    542c:	00148493          	addi	s1,s1,1
    5430:	f29ff06f          	j	5358 <_printf_common+0x8c>
    5434:	00d40733          	add	a4,s0,a3
    5438:	03000613          	li	a2,48
    543c:	04c701a3          	sb	a2,67(a4)
    5440:	04544703          	lbu	a4,69(s0)
    5444:	00168793          	addi	a5,a3,1
    5448:	00f407b3          	add	a5,s0,a5
    544c:	00268693          	addi	a3,a3,2
    5450:	04e781a3          	sb	a4,67(a5)
    5454:	f29ff06f          	j	537c <_printf_common+0xb0>
    5458:	00100693          	li	a3,1
    545c:	00040613          	mv	a2,s0
    5460:	000b8593          	mv	a1,s7
    5464:	000b0513          	mv	a0,s6
    5468:	000900e7          	jalr	s2
    546c:	f7450ee3          	beq	a0,s4,53e8 <_printf_common+0x11c>
    5470:	00198993          	addi	s3,s3,1
    5474:	f6dff06f          	j	53e0 <_printf_common+0x114>

00005478 <_printf_i>:
    5478:	fc010113          	addi	sp,sp,-64
    547c:	02812c23          	sw	s0,56(sp)
    5480:	02912a23          	sw	s1,52(sp)
    5484:	03412423          	sw	s4,40(sp)
    5488:	03512223          	sw	s5,36(sp)
    548c:	02112e23          	sw	ra,60(sp)
    5490:	03212823          	sw	s2,48(sp)
    5494:	03312623          	sw	s3,44(sp)
    5498:	0185c783          	lbu	a5,24(a1)
    549c:	00068493          	mv	s1,a3
    54a0:	07800693          	li	a3,120
    54a4:	00050a13          	mv	s4,a0
    54a8:	00058413          	mv	s0,a1
    54ac:	00060a93          	mv	s5,a2
    54b0:	00f6ee63          	bltu	a3,a5,54cc <_printf_i+0x54>
    54b4:	06200693          	li	a3,98
    54b8:	04358613          	addi	a2,a1,67
    54bc:	00f6ec63          	bltu	a3,a5,54d4 <_printf_i+0x5c>
    54c0:	2a078e63          	beqz	a5,577c <_printf_i+0x304>
    54c4:	05800693          	li	a3,88
    54c8:	20d78463          	beq	a5,a3,56d0 <_printf_i+0x258>
    54cc:	04240913          	addi	s2,s0,66
    54d0:	0400006f          	j	5510 <_printf_i+0x98>
    54d4:	f9d78693          	addi	a3,a5,-99
    54d8:	0ff6f693          	zext.b	a3,a3
    54dc:	01500593          	li	a1,21
    54e0:	fed5e6e3          	bltu	a1,a3,54cc <_printf_i+0x54>
    54e4:	000205b7          	lui	a1,0x20
    54e8:	00269693          	slli	a3,a3,0x2
    54ec:	1d458593          	addi	a1,a1,468 # 201d4 <next.18+0x10>
    54f0:	00b686b3          	add	a3,a3,a1
    54f4:	0006a683          	lw	a3,0(a3)
    54f8:	00068067          	jr	a3
    54fc:	00072783          	lw	a5,0(a4)
    5500:	04240913          	addi	s2,s0,66
    5504:	00478693          	addi	a3,a5,4
    5508:	0007a783          	lw	a5,0(a5)
    550c:	00d72023          	sw	a3,0(a4)
    5510:	04f40123          	sb	a5,66(s0)
    5514:	00100793          	li	a5,1
    5518:	2a00006f          	j	57b8 <_printf_i+0x340>
    551c:	00042783          	lw	a5,0(s0)
    5520:	00072503          	lw	a0,0(a4)
    5524:	0807f693          	andi	a3,a5,128
    5528:	00450593          	addi	a1,a0,4
    552c:	02068663          	beqz	a3,5558 <_printf_i+0xe0>
    5530:	00052783          	lw	a5,0(a0)
    5534:	00b72023          	sw	a1,0(a4)
    5538:	000206b7          	lui	a3,0x20
    553c:	0007d863          	bgez	a5,554c <_printf_i+0xd4>
    5540:	02d00713          	li	a4,45
    5544:	40f007b3          	neg	a5,a5
    5548:	04e401a3          	sb	a4,67(s0)
    554c:	55068693          	addi	a3,a3,1360 # 20550 <__clz_tab+0x30c>
    5550:	00a00713          	li	a4,10
    5554:	06c0006f          	j	55c0 <_printf_i+0x148>
    5558:	0407f693          	andi	a3,a5,64
    555c:	00052783          	lw	a5,0(a0)
    5560:	00b72023          	sw	a1,0(a4)
    5564:	fc068ae3          	beqz	a3,5538 <_printf_i+0xc0>
    5568:	01079793          	slli	a5,a5,0x10
    556c:	4107d793          	srai	a5,a5,0x10
    5570:	fc9ff06f          	j	5538 <_printf_i+0xc0>
    5574:	00042683          	lw	a3,0(s0)
    5578:	00072783          	lw	a5,0(a4)
    557c:	0806f513          	andi	a0,a3,128
    5580:	00478593          	addi	a1,a5,4
    5584:	00050863          	beqz	a0,5594 <_printf_i+0x11c>
    5588:	00b72023          	sw	a1,0(a4)
    558c:	0007a783          	lw	a5,0(a5)
    5590:	0140006f          	j	55a4 <_printf_i+0x12c>
    5594:	0406f693          	andi	a3,a3,64
