
sw/build/main.elf:     file format elf32-littleriscv


Disassembly of section .vectors:

00000000 <__vector_start>:
   0:	6a50106f          	j	1ea4 <handler_exception>
   4:	22c0006f          	j	230 <__no_irq_handler>
   8:	2280006f          	j	230 <__no_irq_handler>
   c:	75d0106f          	j	1f68 <handler_irq_software>
  10:	2200006f          	j	230 <__no_irq_handler>
  14:	21c0006f          	j	230 <__no_irq_handler>
  18:	2180006f          	j	230 <__no_irq_handler>
  1c:	7a10106f          	j	1fbc <handler_irq_timer>
  20:	2100006f          	j	230 <__no_irq_handler>
  24:	20c0006f          	j	230 <__no_irq_handler>
  28:	2080006f          	j	230 <__no_irq_handler>
  2c:	5c50106f          	j	1df0 <handler_irq_external>
  30:	2000006f          	j	230 <__no_irq_handler>
  34:	1fc0006f          	j	230 <__no_irq_handler>
  38:	1f80006f          	j	230 <__no_irq_handler>
  3c:	1f40006f          	j	230 <__no_irq_handler>
  40:	5240106f          	j	1564 <handler_irq_fast_timer_1>
  44:	5bc0106f          	j	1600 <handler_irq_fast_timer_2>
  48:	6540106f          	j	169c <handler_irq_fast_timer_3>
  4c:	6ec0106f          	j	1738 <handler_irq_fast_dma_done>
  50:	2a00206f          	j	22f0 <handler_irq_fast_spi>
  54:	1400206f          	j	2194 <handler_irq_fast_spi_flash>
  58:	0b50106f          	j	190c <handler_irq_fast_gpio_0>
  5c:	14d0106f          	j	19a8 <handler_irq_fast_gpio_1>
  60:	1e50106f          	j	1a44 <handler_irq_fast_gpio_2>
  64:	27d0106f          	j	1ae0 <handler_irq_fast_gpio_3>
  68:	3150106f          	j	1b7c <handler_irq_fast_gpio_4>
  6c:	3ad0106f          	j	1c18 <handler_irq_fast_gpio_5>
  70:	4490106f          	j	1cb8 <handler_irq_fast_gpio_6>
  74:	4e10106f          	j	1d54 <handler_irq_fast_gpio_7>
  78:	75c0106f          	j	17d4 <handler_irq_fast_dma_window>
  7c:	7f40106f          	j	1870 <handler_irq_fast_external_peripheral>

Disassembly of section .init:

00000180 <_start>:
 180:	00021197          	auipc	gp,0x21
 184:	ea818193          	addi	gp,gp,-344 # 21028 <__global_pointer$>
 188:	00029117          	auipc	sp,0x29
 18c:	a5810113          	addi	sp,sp,-1448 # 28be0 <_sp>
 190:	20000537          	lui	a0,0x20000
 194:	05f5e637          	lui	a2,0x5f5e
 198:	10060613          	addi	a2,a2,256 # 5f5e100 <_sp+0x5f35520>
 19c:	00c52e23          	sw	a2,28(a0) # 2000001c <_sp+0x1ffd743c>

000001a0 <_init_bss>:
 1a0:	00020517          	auipc	a0,0x20
 1a4:	7e850513          	addi	a0,a0,2024 # 20988 <__stdio_exit_handler>
 1a8:	00021617          	auipc	a2,0x21
 1ac:	a3460613          	addi	a2,a2,-1484 # 20bdc <__BSS_END__>
 1b0:	40a60633          	sub	a2,a2,a0
 1b4:	00000593          	li	a1,0
 1b8:	708020ef          	jal	28c0 <memset>
 1bc:	00000517          	auipc	a0,0x0
 1c0:	e4450513          	addi	a0,a0,-444 # 0 <__vector_start>
 1c4:	00156513          	ori	a0,a0,1
 1c8:	30551073          	csrw	mtvec,a0
 1cc:	00002517          	auipc	a0,0x2
 1d0:	69c50513          	addi	a0,a0,1692 # 2868 <__libc_fini_array>
 1d4:	1b8020ef          	jal	238c <atexit>
 1d8:	5fc020ef          	jal	27d4 <__libc_init_array>
 1dc:	00012503          	lw	a0,0(sp)
 1e0:	00410593          	addi	a1,sp,4
 1e4:	00000613          	li	a2,0
 1e8:	3cc070ef          	jal	75b4 <main>
 1ec:	00c0006f          	j	1f8 <exit>

000001f0 <_init>:
 1f0:	621010ef          	jal	2010 <init>

000001f4 <_fini>:
 1f4:	00008067          	ret

Disassembly of section .text:

000001f8 <exit>:
     1f8:	ff010113          	addi	sp,sp,-16
     1fc:	000037b7          	lui	a5,0x3
     200:	00812423          	sw	s0,8(sp)
     204:	00112623          	sw	ra,12(sp)
     208:	97078793          	addi	a5,a5,-1680 # 2970 <__call_exitprocs>
     20c:	00050413          	mv	s0,a0
     210:	00078663          	beqz	a5,21c <exit+0x24>
     214:	00000593          	li	a1,0
     218:	758020ef          	jal	2970 <__call_exitprocs>
     21c:	9601a783          	lw	a5,-1696(gp) # 20988 <__stdio_exit_handler>
     220:	00078463          	beqz	a5,228 <exit+0x30>
     224:	000780e7          	jalr	a5
     228:	00040513          	mv	a0,s0
     22c:	5f5010ef          	jal	2020 <_exit>

00000230 <__no_irq_handler>:
     230:	0000006f          	j	230 <__no_irq_handler>

00000234 <fic_irq_dma_window>:
     234:	fe010113          	addi	sp,sp,-32
     238:	00112e23          	sw	ra,28(sp)
     23c:	00812c23          	sw	s0,24(sp)
     240:	02010413          	addi	s0,sp,32
     244:	fe042623          	sw	zero,-20(s0)
     248:	04c0006f          	j	294 <fic_irq_dma_window+0x60>
     24c:	98418693          	addi	a3,gp,-1660 # 209ac <dma_subsys_per>
     250:	fec42703          	lw	a4,-20(s0)
     254:	00070793          	mv	a5,a4
     258:	00179793          	slli	a5,a5,0x1
     25c:	00e787b3          	add	a5,a5,a4
     260:	00279793          	slli	a5,a5,0x2
     264:	00f687b3          	add	a5,a3,a5
     268:	0087a783          	lw	a5,8(a5)
     26c:	0687a703          	lw	a4,104(a5)
     270:	00100793          	li	a5,1
     274:	00f71a63          	bne	a4,a5,288 <fic_irq_dma_window+0x54>
     278:	fec42783          	lw	a5,-20(s0)
     27c:	0ff7f793          	zext.b	a5,a5
     280:	00078513          	mv	a0,a5
     284:	100000ef          	jal	384 <dma_intr_handler_window_done>
     288:	fec42783          	lw	a5,-20(s0)
     28c:	00178793          	addi	a5,a5,1
     290:	fef42623          	sw	a5,-20(s0)
     294:	fec42703          	lw	a4,-20(s0)
     298:	00300793          	li	a5,3
     29c:	fae7d8e3          	bge	a5,a4,24c <fic_irq_dma_window+0x18>
     2a0:	00000013          	nop
     2a4:	01c12083          	lw	ra,28(sp)
     2a8:	01812403          	lw	s0,24(sp)
     2ac:	02010113          	addi	sp,sp,32
     2b0:	00008067          	ret

000002b4 <fic_irq_dma_done>:
     2b4:	fe010113          	addi	sp,sp,-32
     2b8:	00112e23          	sw	ra,28(sp)
     2bc:	00812c23          	sw	s0,24(sp)
     2c0:	02010413          	addi	s0,sp,32
     2c4:	fe042623          	sw	zero,-20(s0)
     2c8:	0700006f          	j	338 <fic_irq_dma_done+0x84>
     2cc:	98418693          	addi	a3,gp,-1660 # 209ac <dma_subsys_per>
     2d0:	fec42703          	lw	a4,-20(s0)
     2d4:	00070793          	mv	a5,a4
     2d8:	00179793          	slli	a5,a5,0x1
     2dc:	00e787b3          	add	a5,a5,a4
     2e0:	00279793          	slli	a5,a5,0x2
     2e4:	00f687b3          	add	a5,a3,a5
     2e8:	0087a783          	lw	a5,8(a5)
     2ec:	0647a703          	lw	a4,100(a5)
     2f0:	00100793          	li	a5,1
     2f4:	02f71c63          	bne	a4,a5,32c <fic_irq_dma_done+0x78>
     2f8:	98418693          	addi	a3,gp,-1660 # 209ac <dma_subsys_per>
     2fc:	fec42703          	lw	a4,-20(s0)
     300:	00070793          	mv	a5,a4
     304:	00179793          	slli	a5,a5,0x1
     308:	00e787b3          	add	a5,a5,a4
     30c:	00279793          	slli	a5,a5,0x2
     310:	00f687b3          	add	a5,a3,a5
     314:	00100713          	li	a4,1
     318:	00e78223          	sb	a4,4(a5)
     31c:	fec42783          	lw	a5,-20(s0)
     320:	0ff7f793          	zext.b	a5,a5
     324:	00078513          	mv	a0,a5
     328:	030000ef          	jal	358 <dma_intr_handler_trans_done>
     32c:	fec42783          	lw	a5,-20(s0)
     330:	00178793          	addi	a5,a5,1
     334:	fef42623          	sw	a5,-20(s0)
     338:	fec42703          	lw	a4,-20(s0)
     33c:	00300793          	li	a5,3
     340:	f8e7d6e3          	bge	a5,a4,2cc <fic_irq_dma_done+0x18>
     344:	00000013          	nop
     348:	01c12083          	lw	ra,28(sp)
     34c:	01812403          	lw	s0,24(sp)
     350:	02010113          	addi	sp,sp,32
     354:	00008067          	ret

00000358 <dma_intr_handler_trans_done>:
     358:	fe010113          	addi	sp,sp,-32
     35c:	00112e23          	sw	ra,28(sp)
     360:	00812c23          	sw	s0,24(sp)
     364:	02010413          	addi	s0,sp,32
     368:	00050793          	mv	a5,a0
     36c:	fef407a3          	sb	a5,-17(s0)
     370:	00000013          	nop
     374:	01c12083          	lw	ra,28(sp)
     378:	01812403          	lw	s0,24(sp)
     37c:	02010113          	addi	sp,sp,32
     380:	00008067          	ret

00000384 <dma_intr_handler_window_done>:
     384:	fe010113          	addi	sp,sp,-32
     388:	00112e23          	sw	ra,28(sp)
     38c:	00812c23          	sw	s0,24(sp)
     390:	02010413          	addi	s0,sp,32
     394:	00050793          	mv	a5,a0
     398:	fef407a3          	sb	a5,-17(s0)
     39c:	00000013          	nop
     3a0:	01c12083          	lw	ra,28(sp)
     3a4:	01812403          	lw	s0,24(sp)
     3a8:	02010113          	addi	sp,sp,32
     3ac:	00008067          	ret

000003b0 <fic_irq_timer_1>:
     3b0:	ff010113          	addi	sp,sp,-16
     3b4:	00112623          	sw	ra,12(sp)
     3b8:	00812423          	sw	s0,8(sp)
     3bc:	01010413          	addi	s0,sp,16
     3c0:	00000013          	nop
     3c4:	00c12083          	lw	ra,12(sp)
     3c8:	00812403          	lw	s0,8(sp)
     3cc:	01010113          	addi	sp,sp,16
     3d0:	00008067          	ret

000003d4 <fic_irq_timer_2>:
     3d4:	ff010113          	addi	sp,sp,-16
     3d8:	00112623          	sw	ra,12(sp)
     3dc:	00812423          	sw	s0,8(sp)
     3e0:	01010413          	addi	s0,sp,16
     3e4:	00000013          	nop
     3e8:	00c12083          	lw	ra,12(sp)
     3ec:	00812403          	lw	s0,8(sp)
     3f0:	01010113          	addi	sp,sp,16
     3f4:	00008067          	ret

000003f8 <fic_irq_timer_3>:
     3f8:	ff010113          	addi	sp,sp,-16
     3fc:	00112623          	sw	ra,12(sp)
     400:	00812423          	sw	s0,8(sp)
     404:	01010413          	addi	s0,sp,16
     408:	00000013          	nop
     40c:	00c12083          	lw	ra,12(sp)
     410:	00812403          	lw	s0,8(sp)
     414:	01010113          	addi	sp,sp,16
     418:	00008067          	ret

0000041c <fic_irq_ext_peripheral>:
     41c:	ff010113          	addi	sp,sp,-16
     420:	00112623          	sw	ra,12(sp)
     424:	00812423          	sw	s0,8(sp)
     428:	01010413          	addi	s0,sp,16
     42c:	00000013          	nop
     430:	00c12083          	lw	ra,12(sp)
     434:	00812403          	lw	s0,8(sp)
     438:	01010113          	addi	sp,sp,16
     43c:	00008067          	ret

00000440 <fic_irq_gpio_0>:
     440:	ff010113          	addi	sp,sp,-16
     444:	00112623          	sw	ra,12(sp)
     448:	00812423          	sw	s0,8(sp)
     44c:	01010413          	addi	s0,sp,16
     450:	00000013          	nop
     454:	00c12083          	lw	ra,12(sp)
     458:	00812403          	lw	s0,8(sp)
     45c:	01010113          	addi	sp,sp,16
     460:	00008067          	ret

00000464 <fic_irq_gpio_1>:
     464:	ff010113          	addi	sp,sp,-16
     468:	00112623          	sw	ra,12(sp)
     46c:	00812423          	sw	s0,8(sp)
     470:	01010413          	addi	s0,sp,16
     474:	00000013          	nop
     478:	00c12083          	lw	ra,12(sp)
     47c:	00812403          	lw	s0,8(sp)
     480:	01010113          	addi	sp,sp,16
     484:	00008067          	ret

00000488 <fic_irq_gpio_2>:
     488:	ff010113          	addi	sp,sp,-16
     48c:	00112623          	sw	ra,12(sp)
     490:	00812423          	sw	s0,8(sp)
     494:	01010413          	addi	s0,sp,16
     498:	00000013          	nop
     49c:	00c12083          	lw	ra,12(sp)
     4a0:	00812403          	lw	s0,8(sp)
     4a4:	01010113          	addi	sp,sp,16
     4a8:	00008067          	ret

000004ac <fic_irq_gpio_3>:
     4ac:	ff010113          	addi	sp,sp,-16
     4b0:	00112623          	sw	ra,12(sp)
     4b4:	00812423          	sw	s0,8(sp)
     4b8:	01010413          	addi	s0,sp,16
     4bc:	00000013          	nop
     4c0:	00c12083          	lw	ra,12(sp)
     4c4:	00812403          	lw	s0,8(sp)
     4c8:	01010113          	addi	sp,sp,16
     4cc:	00008067          	ret

000004d0 <fic_irq_gpio_4>:
     4d0:	ff010113          	addi	sp,sp,-16
     4d4:	00112623          	sw	ra,12(sp)
     4d8:	00812423          	sw	s0,8(sp)
     4dc:	01010413          	addi	s0,sp,16
     4e0:	00000013          	nop
     4e4:	00c12083          	lw	ra,12(sp)
     4e8:	00812403          	lw	s0,8(sp)
     4ec:	01010113          	addi	sp,sp,16
     4f0:	00008067          	ret

000004f4 <fic_irq_gpio_5>:
     4f4:	ff010113          	addi	sp,sp,-16
     4f8:	00112623          	sw	ra,12(sp)
     4fc:	00812423          	sw	s0,8(sp)
     500:	01010413          	addi	s0,sp,16
     504:	00000013          	nop
     508:	00c12083          	lw	ra,12(sp)
     50c:	00812403          	lw	s0,8(sp)
     510:	01010113          	addi	sp,sp,16
     514:	00008067          	ret

00000518 <fic_irq_gpio_6>:
     518:	ff010113          	addi	sp,sp,-16
     51c:	00112623          	sw	ra,12(sp)
     520:	00812423          	sw	s0,8(sp)
     524:	01010413          	addi	s0,sp,16
     528:	00000013          	nop
     52c:	00c12083          	lw	ra,12(sp)
     530:	00812403          	lw	s0,8(sp)
     534:	01010113          	addi	sp,sp,16
     538:	00008067          	ret

0000053c <fic_irq_gpio_7>:
     53c:	ff010113          	addi	sp,sp,-16
     540:	00112623          	sw	ra,12(sp)
     544:	00812423          	sw	s0,8(sp)
     548:	01010413          	addi	s0,sp,16
     54c:	00000013          	nop
     550:	00c12083          	lw	ra,12(sp)
     554:	00812403          	lw	s0,8(sp)
     558:	01010113          	addi	sp,sp,16
     55c:	00008067          	ret

00000560 <spi_get_events>:
     560:	ff010113          	addi	sp,sp,-16
     564:	01452783          	lw	a5,20(a0)
     568:	00f12623          	sw	a5,12(sp)
     56c:	00c12683          	lw	a3,12(sp)
     570:	0196d693          	srli	a3,a3,0x19
     574:	0016f693          	andi	a3,a3,1
     578:	0005a783          	lw	a5,0(a1)
     57c:	00c12703          	lw	a4,12(sp)
     580:	01b75713          	srli	a4,a4,0x1b
     584:	ffc7f793          	andi	a5,a5,-4
     588:	00d7e7b3          	or	a5,a5,a3
     58c:	00c12683          	lw	a3,12(sp)
     590:	0126d693          	srli	a3,a3,0x12
     594:	00277713          	andi	a4,a4,2
     598:	00f76733          	or	a4,a4,a5
     59c:	00c12783          	lw	a5,12(sp)
     5a0:	0177d793          	srli	a5,a5,0x17
     5a4:	0046f693          	andi	a3,a3,4
     5a8:	ff377713          	andi	a4,a4,-13
     5ac:	00d76733          	or	a4,a4,a3
     5b0:	00c12683          	lw	a3,12(sp)
     5b4:	01f6d693          	srli	a3,a3,0x1f
     5b8:	0087f793          	andi	a5,a5,8
     5bc:	00e7e7b3          	or	a5,a5,a4
     5c0:	00c12703          	lw	a4,12(sp)
     5c4:	01975713          	srli	a4,a4,0x19
     5c8:	00469693          	slli	a3,a3,0x4
     5cc:	fcf7f793          	andi	a5,a5,-49
     5d0:	00d7e7b3          	or	a5,a5,a3
     5d4:	02077713          	andi	a4,a4,32
     5d8:	02074713          	xori	a4,a4,32
     5dc:	00f767b3          	or	a5,a4,a5
     5e0:	00f5a023          	sw	a5,0(a1)
     5e4:	00000513          	li	a0,0
     5e8:	01010113          	addi	sp,sp,16
     5ec:	00008067          	ret

000005f0 <_write>:
     5f0:	00100793          	li	a5,1
     5f4:	08f51063          	bne	a0,a5,674 <_write+0x84>
     5f8:	200007b7          	lui	a5,0x20000
     5fc:	01c7a783          	lw	a5,28(a5) # 2000001c <_sp+0x1ffd743c>
     600:	08078263          	beqz	a5,684 <_write+0x94>
     604:	300807b7          	lui	a5,0x30080
     608:	0007a623          	sw	zero,12(a5) # 3008000c <_sp+0x3005742c>
     60c:	00300713          	li	a4,3
     610:	00e7ae23          	sw	a4,28(a5)
     614:	0207a223          	sw	zero,36(a5)
     618:	0207a623          	sw	zero,44(a5)
     61c:	0007a223          	sw	zero,4(a5)
     620:	fff00713          	li	a4,-1
     624:	00e7a023          	sw	a4,0(a5)
     628:	0a7c0737          	lui	a4,0xa7c0
     62c:	00370713          	addi	a4,a4,3 # a7c0003 <_sp+0xa797423>
     630:	00e7a623          	sw	a4,12(a5)
     634:	0007a223          	sw	zero,4(a5)
     638:	02060a63          	beqz	a2,66c <_write+0x7c>
     63c:	00c58833          	add	a6,a1,a2
     640:	00078713          	mv	a4,a5
     644:	0005c683          	lbu	a3,0(a1)
     648:	01072783          	lw	a5,16(a4)
     64c:	0017f793          	andi	a5,a5,1
     650:	fe079ce3          	bnez	a5,648 <_write+0x58>
     654:	00d72c23          	sw	a3,24(a4)
     658:	01072783          	lw	a5,16(a4)
     65c:	0087f793          	andi	a5,a5,8
     660:	fe078ce3          	beqz	a5,658 <_write+0x68>
     664:	00158593          	addi	a1,a1,1
     668:	fd059ee3          	bne	a1,a6,644 <_write+0x54>
     66c:	00060513          	mv	a0,a2
     670:	00008067          	ret
     674:	05800713          	li	a4,88
     678:	96e1a223          	sw	a4,-1692(gp) # 2098c <errno>
     67c:	fff00613          	li	a2,-1
     680:	fedff06f          	j	66c <_write+0x7c>
     684:	05800713          	li	a4,88
     688:	96e1a223          	sw	a4,-1692(gp) # 2098c <errno>
     68c:	ff1ff06f          	j	67c <_write+0x8c>

00000690 <spi_empty_rx>:
     690:	02452783          	lw	a5,36(a0)
     694:	00078863          	beqz	a5,6a4 <spi_empty_rx+0x14>
     698:	03452783          	lw	a5,52(a0)
     69c:	02852703          	lw	a4,40(a0)
     6a0:	02e7e863          	bltu	a5,a4,6d0 <spi_empty_rx+0x40>
     6a4:	00000513          	li	a0,0
     6a8:	00008067          	ret
     6ac:	0286a703          	lw	a4,40(a3)
     6b0:	02452683          	lw	a3,36(a0)
     6b4:	20d7c7b3          	sh2add	a5,a5,a3
     6b8:	00e7a023          	sw	a4,0(a5)
     6bc:	03452783          	lw	a5,52(a0)
     6c0:	00178793          	addi	a5,a5,1
     6c4:	02f52a23          	sw	a5,52(a0)
     6c8:	02852703          	lw	a4,40(a0)
     6cc:	00e7fe63          	bgeu	a5,a4,6e8 <spi_empty_rx+0x58>
     6d0:	00052683          	lw	a3,0(a0)
     6d4:	00068a63          	beqz	a3,6e8 <spi_empty_rx+0x58>
     6d8:	0146a703          	lw	a4,20(a3)
     6dc:	00875713          	srli	a4,a4,0x8
     6e0:	0ff77713          	zext.b	a4,a4
     6e4:	fc0714e3          	bnez	a4,6ac <spi_empty_rx+0x1c>
     6e8:	00100513          	li	a0,1
     6ec:	00008067          	ret

000006f0 <spi_event_handler>:
     6f0:	ff010113          	addi	sp,sp,-16
     6f4:	00112623          	sw	ra,12(sp)
     6f8:	00912423          	sw	s1,8(sp)
     6fc:	01212223          	sw	s2,4(sp)
     700:	00050493          	mv	s1,a0
     704:	00058913          	mv	s2,a1
     708:	0105f793          	andi	a5,a1,16
     70c:	02078063          	beqz	a5,72c <spi_event_handler+0x3c>
     710:	01452703          	lw	a4,20(a0)
     714:	00070863          	beqz	a4,724 <spi_event_handler+0x34>
     718:	02c52683          	lw	a3,44(a0)
     71c:	01854783          	lbu	a5,24(a0)
     720:	02f6e863          	bltu	a3,a5,750 <spi_event_handler+0x60>
     724:	02097793          	andi	a5,s2,32
     728:	0a079e63          	bnez	a5,7e4 <spi_event_handler+0xf4>
     72c:	00897793          	andi	a5,s2,8
     730:	14079063          	bnez	a5,870 <spi_event_handler+0x180>
     734:	00497913          	andi	s2,s2,4
     738:	1a091663          	bnez	s2,8e4 <spi_event_handler+0x1f4>
     73c:	00c12083          	lw	ra,12(sp)
     740:	00812483          	lw	s1,8(sp)
     744:	00412903          	lw	s2,4(sp)
     748:	01010113          	addi	sp,sp,16
     74c:	00008067          	ret
     750:	20e6c733          	sh2add	a4,a3,a4
     754:	00072703          	lw	a4,0(a4)
     758:	00871613          	slli	a2,a4,0x8
     75c:	00865593          	srli	a1,a2,0x8
     760:	01875713          	srli	a4,a4,0x18
     764:	00f77613          	andi	a2,a4,15
     768:	00168693          	addi	a3,a3,1
     76c:	02d52623          	sw	a3,44(a0)
     770:	00052503          	lw	a0,0(a0)
     774:	fa050ce3          	beqz	a0,72c <spi_event_handler+0x3c>
     778:	00265713          	srli	a4,a2,0x2
     77c:	01971713          	slli	a4,a4,0x19
     780:	00367613          	andi	a2,a2,3
     784:	01b61613          	slli	a2,a2,0x1b
     788:	00c76733          	or	a4,a4,a2
     78c:	40d787b3          	sub	a5,a5,a3
     790:	00f037b3          	snez	a5,a5
     794:	01879793          	slli	a5,a5,0x18
     798:	00f767b3          	or	a5,a4,a5
     79c:	fff58613          	addi	a2,a1,-1
     7a0:	00861613          	slli	a2,a2,0x8
     7a4:	00865613          	srli	a2,a2,0x8
     7a8:	00c7e633          	or	a2,a5,a2
     7ac:	0197d793          	srli	a5,a5,0x19
     7b0:	0037f793          	andi	a5,a5,3
     7b4:	00200713          	li	a4,2
     7b8:	14f76c63          	bltu	a4,a5,910 <spi_event_handler+0x220>
     7bc:	01452703          	lw	a4,20(a0)
     7c0:	f60756e3          	bgez	a4,72c <spi_event_handler+0x3c>
     7c4:	01b65713          	srli	a4,a2,0x1b
     7c8:	ffd70713          	addi	a4,a4,-3
     7cc:	00173713          	seqz	a4,a4
     7d0:	00f037b3          	snez	a5,a5
     7d4:	00f777b3          	and	a5,a4,a5
     7d8:	f4079ae3          	bnez	a5,72c <spi_event_handler+0x3c>
     7dc:	02c52223          	sw	a2,36(a0)
     7e0:	f4dff06f          	j	72c <spi_event_handler+0x3c>
     7e4:	0004a783          	lw	a5,0(s1)
     7e8:	02078263          	beqz	a5,80c <spi_event_handler+0x11c>
     7ec:	0387a703          	lw	a4,56(a5)
     7f0:	fc077713          	andi	a4,a4,-64
     7f4:	02e7ac23          	sw	a4,56(a5)
     7f8:	0004a783          	lw	a5,0(s1)
     7fc:	00078863          	beqz	a5,80c <spi_event_handler+0x11c>
     800:	0047a703          	lw	a4,4(a5)
     804:	ffd77713          	andi	a4,a4,-3
     808:	00e7a223          	sw	a4,4(a5)
     80c:	00048513          	mv	a0,s1
     810:	e81ff0ef          	jal	690 <spi_empty_rx>
     814:	00400793          	li	a5,4
     818:	00f4a823          	sw	a5,16(s1)
     81c:	0384a783          	lw	a5,56(s1)
     820:	00078c63          	beqz	a5,838 <spi_event_handler+0x148>
     824:	0344a683          	lw	a3,52(s1)
     828:	0244a603          	lw	a2,36(s1)
     82c:	0304a583          	lw	a1,48(s1)
     830:	01c4a503          	lw	a0,28(s1)
     834:	000780e7          	jalr	a5
     838:	0204a623          	sw	zero,44(s1)
     83c:	0204a823          	sw	zero,48(s1)
     840:	0204aa23          	sw	zero,52(s1)
     844:	0004aa23          	sw	zero,20(s1)
     848:	0004ac23          	sw	zero,24(s1)
     84c:	0004ae23          	sw	zero,28(s1)
     850:	0204a023          	sw	zero,32(s1)
     854:	0204a223          	sw	zero,36(s1)
     858:	0204a423          	sw	zero,40(s1)
     85c:	0204ac23          	sw	zero,56(s1)
     860:	0204ae23          	sw	zero,60(s1)
     864:	0404a023          	sw	zero,64(s1)
     868:	0404a223          	sw	zero,68(s1)
     86c:	ed1ff06f          	j	73c <spi_event_handler+0x4c>
     870:	01c4a783          	lw	a5,28(s1)
     874:	ec0780e3          	beqz	a5,734 <spi_event_handler+0x44>
     878:	0304a783          	lw	a5,48(s1)
     87c:	0204a703          	lw	a4,32(s1)
     880:	eae7fae3          	bgeu	a5,a4,734 <spi_event_handler+0x44>
     884:	04700613          	li	a2,71
     888:	0280006f          	j	8b0 <spi_event_handler+0x1c0>
     88c:	01c4a683          	lw	a3,28(s1)
     890:	20d7c7b3          	sh2add	a5,a5,a3
     894:	0007a783          	lw	a5,0(a5)
     898:	02f72623          	sw	a5,44(a4)
     89c:	0304a783          	lw	a5,48(s1)
     8a0:	00178793          	addi	a5,a5,1
     8a4:	02f4a823          	sw	a5,48(s1)
     8a8:	0204a703          	lw	a4,32(s1)
     8ac:	00e7fc63          	bgeu	a5,a4,8c4 <spi_event_handler+0x1d4>
     8b0:	0004a703          	lw	a4,0(s1)
     8b4:	00070863          	beqz	a4,8c4 <spi_event_handler+0x1d4>
     8b8:	01472683          	lw	a3,20(a4)
     8bc:	0ff6f693          	zext.b	a3,a3
     8c0:	fcd676e3          	bgeu	a2,a3,88c <spi_event_handler+0x19c>
     8c4:	03c4a783          	lw	a5,60(s1)
     8c8:	e60786e3          	beqz	a5,734 <spi_event_handler+0x44>
     8cc:	0344a683          	lw	a3,52(s1)
     8d0:	0244a603          	lw	a2,36(s1)
     8d4:	0304a583          	lw	a1,48(s1)
     8d8:	01c4a503          	lw	a0,28(s1)
     8dc:	000780e7          	jalr	a5
     8e0:	e55ff06f          	j	734 <spi_event_handler+0x44>
     8e4:	00048513          	mv	a0,s1
     8e8:	da9ff0ef          	jal	690 <spi_empty_rx>
     8ec:	e40508e3          	beqz	a0,73c <spi_event_handler+0x4c>
     8f0:	0404a783          	lw	a5,64(s1)
     8f4:	e40784e3          	beqz	a5,73c <spi_event_handler+0x4c>
     8f8:	0344a683          	lw	a3,52(s1)
     8fc:	0244a603          	lw	a2,36(s1)
     900:	0304a583          	lw	a1,48(s1)
     904:	01c4a503          	lw	a0,28(s1)
     908:	000780e7          	jalr	a5
     90c:	e31ff06f          	j	73c <spi_event_handler+0x4c>
     910:	01452783          	lw	a5,20(a0)
     914:	e19ff06f          	j	72c <spi_event_handler+0x3c>

00000918 <spi_error_handler>:
     918:	fe010113          	addi	sp,sp,-32
     91c:	00112e23          	sw	ra,28(sp)
     920:	00912c23          	sw	s1,24(sp)
     924:	00050493          	mv	s1,a0
     928:	00052783          	lw	a5,0(a0)
     92c:	02078263          	beqz	a5,950 <spi_error_handler+0x38>
     930:	0387a703          	lw	a4,56(a5)
     934:	fc077713          	andi	a4,a4,-64
     938:	02e7ac23          	sw	a4,56(a5)
     93c:	00052783          	lw	a5,0(a0)
     940:	00078863          	beqz	a5,950 <spi_error_handler+0x38>
     944:	0047a703          	lw	a4,4(a5)
     948:	ffd77713          	andi	a4,a4,-3
     94c:	00e7a223          	sw	a4,4(a5)
     950:	0444a783          	lw	a5,68(s1)
     954:	00078c63          	beqz	a5,96c <spi_error_handler+0x54>
     958:	0344a683          	lw	a3,52(s1)
     95c:	0244a603          	lw	a2,36(s1)
     960:	0304a583          	lw	a1,48(s1)
     964:	01c4a503          	lw	a0,28(s1)
     968:	000780e7          	jalr	a5
     96c:	0204a623          	sw	zero,44(s1)
     970:	0204a823          	sw	zero,48(s1)
     974:	0204aa23          	sw	zero,52(s1)
     978:	0004aa23          	sw	zero,20(s1)
     97c:	0004ac23          	sw	zero,24(s1)
     980:	0004ae23          	sw	zero,28(s1)
     984:	0204a023          	sw	zero,32(s1)
     988:	0204a223          	sw	zero,36(s1)
     98c:	0204a423          	sw	zero,40(s1)
     990:	0204ac23          	sw	zero,56(s1)
     994:	0204ae23          	sw	zero,60(s1)
     998:	0404a023          	sw	zero,64(s1)
     99c:	0404a223          	sw	zero,68(s1)
     9a0:	0004a683          	lw	a3,0(s1)
     9a4:	10068463          	beqz	a3,aac <spi_error_handler+0x194>
     9a8:	0106a783          	lw	a5,16(a3)
     9ac:	40000737          	lui	a4,0x40000
     9b0:	00e7e7b3          	or	a5,a5,a4
     9b4:	00f6a823          	sw	a5,16(a3)
     9b8:	0146a783          	lw	a5,20(a3)
     9bc:	00f12623          	sw	a5,12(sp)
     9c0:	00c12783          	lw	a5,12(sp)
     9c4:	00179713          	slli	a4,a5,0x1
     9c8:	fe074ce3          	bltz	a4,9c0 <spi_error_handler+0xa8>
     9cc:	00c14783          	lbu	a5,12(sp)
     9d0:	fe0798e3          	bnez	a5,9c0 <spi_error_handler+0xa8>
     9d4:	00d14783          	lbu	a5,13(sp)
     9d8:	fe0794e3          	bnez	a5,9c0 <spi_error_handler+0xa8>
     9dc:	0106a783          	lw	a5,16(a3)
     9e0:	c0000737          	lui	a4,0xc0000
     9e4:	fff70713          	addi	a4,a4,-1 # bfffffff <_sp+0xbffd741f>
     9e8:	00e7f7b3          	and	a5,a5,a4
     9ec:	00f6a823          	sw	a5,16(a3)
     9f0:	0004a783          	lw	a5,0(s1)
     9f4:	0a078c63          	beqz	a5,aac <spi_error_handler+0x194>
     9f8:	0107a703          	lw	a4,16(a5)
     9fc:	800006b7          	lui	a3,0x80000
     a00:	00d76733          	or	a4,a4,a3
     a04:	00e7a823          	sw	a4,16(a5)
     a08:	0004a783          	lw	a5,0(s1)
     a0c:	0a078063          	beqz	a5,aac <spi_error_handler+0x194>
     a10:	0107a703          	lw	a4,16(a5)
     a14:	200006b7          	lui	a3,0x20000
     a18:	00d76733          	or	a4,a4,a3
     a1c:	00e7a823          	sw	a4,16(a5)
     a20:	0004a783          	lw	a5,0(s1)
     a24:	08078463          	beqz	a5,aac <spi_error_handler+0x194>
     a28:	0307a703          	lw	a4,48(a5)
     a2c:	01f76713          	ori	a4,a4,31
     a30:	02e7a823          	sw	a4,48(a5)
     a34:	0004a783          	lw	a5,0(s1)
     a38:	06078a63          	beqz	a5,aac <spi_error_handler+0x194>
     a3c:	0047a703          	lw	a4,4(a5)
     a40:	00176713          	ori	a4,a4,1
     a44:	00e7a223          	sw	a4,4(a5)
     a48:	0004a703          	lw	a4,0(s1)
     a4c:	0044c783          	lbu	a5,4(s1)
     a50:	00173693          	seqz	a3,a4
     a54:	0497b613          	sltiu	a2,a5,73
     a58:	00163613          	seqz	a2,a2
     a5c:	00c6e6b3          	or	a3,a3,a2
     a60:	02069063          	bnez	a3,a80 <spi_error_handler+0x168>
     a64:	01072683          	lw	a3,16(a4)
     a68:	ffff0637          	lui	a2,0xffff0
     a6c:	0ff60613          	addi	a2,a2,255 # ffff00ff <_sp+0xfffc751f>
     a70:	00c6f6b3          	and	a3,a3,a2
     a74:	00879793          	slli	a5,a5,0x8
     a78:	00d7e7b3          	or	a5,a5,a3
     a7c:	00f72823          	sw	a5,16(a4)
     a80:	0004a683          	lw	a3,0(s1)
     a84:	0054c703          	lbu	a4,5(s1)
     a88:	04173793          	sltiu	a5,a4,65
     a8c:	0017b793          	seqz	a5,a5
     a90:	0016b613          	seqz	a2,a3
     a94:	00c7e7b3          	or	a5,a5,a2
     a98:	00079a63          	bnez	a5,aac <spi_error_handler+0x194>
     a9c:	0106a783          	lw	a5,16(a3) # 20000010 <_sp+0x1ffd7430>
     aa0:	f007f793          	andi	a5,a5,-256
     aa4:	00f76733          	or	a4,a4,a5
     aa8:	00e6a823          	sw	a4,16(a3)
     aac:	0004a423          	sw	zero,8(s1)
     ab0:	00800793          	li	a5,8
     ab4:	00f4a823          	sw	a5,16(s1)
     ab8:	01c12083          	lw	ra,28(sp)
     abc:	01812483          	lw	s1,24(sp)
     ac0:	02010113          	addi	sp,sp,32
     ac4:	00008067          	ret

00000ac8 <_writestr>:
     ac8:	ff010113          	addi	sp,sp,-16
     acc:	00112623          	sw	ra,12(sp)
     ad0:	00912423          	sw	s1,8(sp)
     ad4:	00050493          	mv	s1,a0
     ad8:	125020ef          	jal	33fc <strlen>
     adc:	00150613          	addi	a2,a0,1
     ae0:	00048593          	mv	a1,s1
     ae4:	00100513          	li	a0,1
     ae8:	b09ff0ef          	jal	5f0 <_write>
     aec:	00c12083          	lw	ra,12(sp)
     af0:	00812483          	lw	s1,8(sp)
     af4:	01010113          	addi	sp,sp,16
     af8:	00008067          	ret

00000afc <print_exc_msg>:
     afc:	fe010113          	addi	sp,sp,-32
     b00:	00112e23          	sw	ra,28(sp)
     b04:	00912c23          	sw	s1,24(sp)
     b08:	fc1ff0ef          	jal	ac8 <_writestr>
     b0c:	343024f3          	csrr	s1,mtval
     b10:	00020537          	lui	a0,0x20
     b14:	35c50513          	addi	a0,a0,860 # 2035c <__clz_tab+0x190>
     b18:	fb1ff0ef          	jal	ac8 <_writestr>
     b1c:	0184d793          	srli	a5,s1,0x18
     b20:	00f10423          	sb	a5,8(sp)
     b24:	0104d793          	srli	a5,s1,0x10
     b28:	00f104a3          	sb	a5,9(sp)
     b2c:	0084d793          	srli	a5,s1,0x8
     b30:	00f10523          	sb	a5,10(sp)
     b34:	009105a3          	sb	s1,11(sp)
     b38:	00a00793          	li	a5,10
     b3c:	00f10623          	sb	a5,12(sp)
     b40:	000106a3          	sb	zero,13(sp)
     b44:	00810513          	addi	a0,sp,8
     b48:	f81ff0ef          	jal	ac8 <_writestr>
     b4c:	0000006f          	j	b4c <print_exc_msg+0x50>

00000b50 <inferenceTPG>:
     b50:	f2010113          	addi	sp,sp,-224
     b54:	00001837          	lui	a6,0x1
     b58:	46c80813          	addi	a6,a6,1132 # 146c <T18_start>
     b5c:	00080067          	jr	a6

00000b60 <T0_start>:
     b60:	b00028f3          	csrr	a7,mcycle

00000b64 <T0_end>:
     b64:	b0002873          	csrr	a6,mcycle
     b68:	41180833          	sub	a6,a6,a7
     b6c:	0107a023          	sw	a6,0(a5)
     b70:	00001837          	lui	a6,0x1
     b74:	53480813          	addi	a6,a6,1332 # 1534 <T18_end+0x80>
     b78:	fe5ff06f          	j	b5c <inferenceTPG+0xc>

00000b7c <T1_start>:
     b7c:	b00028f3          	csrr	a7,mcycle
     b80:	0086a803          	lw	a6,8(a3)
     b84:	01012423          	sw	a6,8(sp)
     b88:	00012623          	sw	zero,12(sp)

00000b8c <T1_end>:
     b8c:	b0002873          	csrr	a6,mcycle
     b90:	41180833          	sub	a6,a6,a7
     b94:	0107a223          	sw	a6,4(a5)
     b98:	000208b7          	lui	a7,0x20
     b9c:	00812803          	lw	a6,8(sp)
     ba0:	00c12e03          	lw	t3,12(sp)
     ba4:	010e2833          	slt	a6,t3,a6
     ba8:	00183813          	seqz	a6,a6
     bac:	94018313          	addi	t1,gp,-1728 # 20968 <next.17>
     bb0:	20684833          	sh2add	a6,a6,t1
     bb4:	00082803          	lw	a6,0(a6)
     bb8:	0f088893          	addi	a7,a7,240 # 200f0 <jump_table.19>
     bbc:	21184833          	sh2add	a6,a6,a7
     bc0:	00082803          	lw	a6,0(a6)
     bc4:	f99ff06f          	j	b5c <inferenceTPG+0xc>

00000bc8 <T2_start>:
     bc8:	b00028f3          	csrr	a7,mcycle

00000bcc <T2_end>:
     bcc:	b0002873          	csrr	a6,mcycle
     bd0:	41180833          	sub	a6,a6,a7
     bd4:	0107a423          	sw	a6,8(a5)
     bd8:	00001837          	lui	a6,0x1
     bdc:	53c80813          	addi	a6,a6,1340 # 153c <T18_end+0x88>
     be0:	f7dff06f          	j	b5c <inferenceTPG+0xc>

00000be4 <T3_start>:
     be4:	b0002373          	csrr	t1,mcycle
     be8:	0046a803          	lw	a6,4(a3)
     bec:	09005263          	blez	a6,c70 <T3_end+0x54>
     bf0:	60081813          	clz	a6,a6
     bf4:	01e00893          	li	a7,30
     bf8:	0708cc63          	blt	a7,a6,c70 <T3_end+0x54>
     bfc:	01f00893          	li	a7,31
     c00:	41088833          	sub	a6,a7,a6
     c04:	60081813          	clz	a6,a6
     c08:	41088833          	sub	a6,a7,a6
     c0c:	03012023          	sw	a6,32(sp)
     c10:	02012223          	sw	zero,36(sp)
     c14:	0086a803          	lw	a6,8(a3)
     c18:	03012423          	sw	a6,40(sp)

00000c1c <T3_end>:
     c1c:	b0002873          	csrr	a6,mcycle
     c20:	40680833          	sub	a6,a6,t1
     c24:	0107a623          	sw	a6,12(a5)
     c28:	02012303          	lw	t1,32(sp)
     c2c:	02412883          	lw	a7,36(sp)
     c30:	00100813          	li	a6,1
     c34:	0068d663          	bge	a7,t1,c40 <T3_end+0x24>
     c38:	00030893          	mv	a7,t1
     c3c:	00000813          	li	a6,0
     c40:	02812303          	lw	t1,40(sp)
     c44:	01134463          	blt	t1,a7,c4c <T3_end+0x30>
     c48:	00200813          	li	a6,2
     c4c:	000208b7          	lui	a7,0x20
     c50:	00020337          	lui	t1,0x20
     c54:	0e430313          	addi	t1,t1,228 # 200e4 <next.15>
     c58:	20684833          	sh2add	a6,a6,t1
     c5c:	00082803          	lw	a6,0(a6)
     c60:	0f088893          	addi	a7,a7,240 # 200f0 <jump_table.19>
     c64:	21184833          	sh2add	a6,a6,a7
     c68:	00082803          	lw	a6,0(a6)
     c6c:	ef1ff06f          	j	b5c <inferenceTPG+0xc>
     c70:	00000813          	li	a6,0
     c74:	f99ff06f          	j	c0c <T3_start+0x28>

00000c78 <T4_start>:
     c78:	b00028f3          	csrr	a7,mcycle
     c7c:	00462803          	lw	a6,4(a2)
     c80:	01012823          	sw	a6,16(sp)
     c84:	0046a803          	lw	a6,4(a3)
     c88:	0045a303          	lw	t1,4(a1)
     c8c:	00680833          	add	a6,a6,t1
     c90:	01012a23          	sw	a6,20(sp)

00000c94 <T4_end>:
     c94:	b0002873          	csrr	a6,mcycle
     c98:	41180833          	sub	a6,a6,a7
     c9c:	0107a823          	sw	a6,16(a5)
     ca0:	000208b7          	lui	a7,0x20
     ca4:	01012803          	lw	a6,16(sp)
     ca8:	01412e03          	lw	t3,20(sp)
     cac:	010e2833          	slt	a6,t3,a6
     cb0:	00183813          	seqz	a6,a6
     cb4:	93818313          	addi	t1,gp,-1736 # 20960 <next.14>
     cb8:	20684833          	sh2add	a6,a6,t1
     cbc:	00082803          	lw	a6,0(a6)
     cc0:	0f088893          	addi	a7,a7,240 # 200f0 <jump_table.19>
     cc4:	21184833          	sh2add	a6,a6,a7
     cc8:	00082803          	lw	a6,0(a6)
     ccc:	e91ff06f          	j	b5c <inferenceTPG+0xc>

00000cd0 <T5_start>:
     cd0:	b0002373          	csrr	t1,mcycle
     cd4:	00462803          	lw	a6,4(a2)
     cd8:	03012623          	sw	a6,44(sp)
     cdc:	0045a803          	lw	a6,4(a1)
     ce0:	0046a883          	lw	a7,4(a3)
     ce4:	010888b3          	add	a7,a7,a6
     ce8:	03112823          	sw	a7,48(sp)
     cec:	41000833          	neg	a6,a6
     cf0:	03012a23          	sw	a6,52(sp)

00000cf4 <T5_end>:
     cf4:	b0002873          	csrr	a6,mcycle
     cf8:	40680833          	sub	a6,a6,t1
     cfc:	0107aa23          	sw	a6,20(a5)
     d00:	02c12303          	lw	t1,44(sp)
     d04:	03012883          	lw	a7,48(sp)
     d08:	00100813          	li	a6,1
     d0c:	0068d663          	bge	a7,t1,d18 <T5_end+0x24>
     d10:	00030893          	mv	a7,t1
     d14:	00000813          	li	a6,0
     d18:	03412303          	lw	t1,52(sp)
     d1c:	01134463          	blt	t1,a7,d24 <T5_end+0x30>
     d20:	00200813          	li	a6,2
     d24:	000208b7          	lui	a7,0x20
     d28:	00020337          	lui	t1,0x20
     d2c:	0d830313          	addi	t1,t1,216 # 200d8 <next.13>
     d30:	20684833          	sh2add	a6,a6,t1
     d34:	00082803          	lw	a6,0(a6)
     d38:	0f088893          	addi	a7,a7,240 # 200f0 <jump_table.19>
     d3c:	21184833          	sh2add	a6,a6,a7
     d40:	00082803          	lw	a6,0(a6)
     d44:	e19ff06f          	j	b5c <inferenceTPG+0xc>

00000d48 <T6_start>:
     d48:	b0002373          	csrr	t1,mcycle
     d4c:	02012c23          	sw	zero,56(sp)
     d50:	0006a803          	lw	a6,0(a3)
     d54:	03012e23          	sw	a6,60(sp)
     d58:	00462883          	lw	a7,4(a2)
     d5c:	00000813          	li	a6,0
     d60:	01105863          	blez	a7,d70 <T6_start+0x28>
     d64:	60089893          	clz	a7,a7
     d68:	01f00813          	li	a6,31
     d6c:	41180833          	sub	a6,a6,a7
     d70:	0086a883          	lw	a7,8(a3)
     d74:	41180833          	sub	a6,a6,a7
     d78:	05012023          	sw	a6,64(sp)

00000d7c <T6_end>:
     d7c:	b0002873          	csrr	a6,mcycle
     d80:	40680833          	sub	a6,a6,t1
     d84:	0107ac23          	sw	a6,24(a5)
     d88:	03812303          	lw	t1,56(sp)
     d8c:	03c12883          	lw	a7,60(sp)
     d90:	00100813          	li	a6,1
     d94:	0068d663          	bge	a7,t1,da0 <T6_end+0x24>
     d98:	00030893          	mv	a7,t1
     d9c:	00000813          	li	a6,0
     da0:	04012303          	lw	t1,64(sp)
     da4:	01134463          	blt	t1,a7,dac <T6_end+0x30>
     da8:	00200813          	li	a6,2
     dac:	000208b7          	lui	a7,0x20
     db0:	00020337          	lui	t1,0x20
     db4:	0cc30313          	addi	t1,t1,204 # 200cc <next.12>
     db8:	20684833          	sh2add	a6,a6,t1
     dbc:	00082803          	lw	a6,0(a6)
     dc0:	0f088893          	addi	a7,a7,240 # 200f0 <jump_table.19>
     dc4:	21184833          	sh2add	a6,a6,a7
     dc8:	00082803          	lw	a6,0(a6)
     dcc:	d91ff06f          	j	b5c <inferenceTPG+0xc>

00000dd0 <T7_start>:
     dd0:	b0002373          	csrr	t1,mcycle
     dd4:	0005a803          	lw	a6,0(a1)
     dd8:	0086a883          	lw	a7,8(a3)
     ddc:	0b08e8b3          	max	a7,a7,a6
     de0:	05112223          	sw	a7,68(sp)
     de4:	41000833          	neg	a6,a6
     de8:	05012423          	sw	a6,72(sp)
     dec:	0046a803          	lw	a6,4(a3)
     df0:	0045a883          	lw	a7,4(a1)
     df4:	01180833          	add	a6,a6,a7
     df8:	05012623          	sw	a6,76(sp)

00000dfc <T7_end>:
     dfc:	b0002873          	csrr	a6,mcycle
     e00:	40680833          	sub	a6,a6,t1
     e04:	0107ae23          	sw	a6,28(a5)
     e08:	04412303          	lw	t1,68(sp)
     e0c:	04812883          	lw	a7,72(sp)
     e10:	00100813          	li	a6,1
     e14:	0068d663          	bge	a7,t1,e20 <T7_end+0x24>
     e18:	00030893          	mv	a7,t1
     e1c:	00000813          	li	a6,0
     e20:	04c12303          	lw	t1,76(sp)
     e24:	01134463          	blt	t1,a7,e2c <T7_end+0x30>
     e28:	00200813          	li	a6,2
     e2c:	000208b7          	lui	a7,0x20
     e30:	00020337          	lui	t1,0x20
     e34:	0c030313          	addi	t1,t1,192 # 200c0 <next.11>
     e38:	20684833          	sh2add	a6,a6,t1
     e3c:	00082803          	lw	a6,0(a6)
     e40:	0f088893          	addi	a7,a7,240 # 200f0 <jump_table.19>
     e44:	21184833          	sh2add	a6,a6,a7
     e48:	00082803          	lw	a6,0(a6)
     e4c:	d11ff06f          	j	b5c <inferenceTPG+0xc>

00000e50 <T8_start>:
     e50:	b0002373          	csrr	t1,mcycle
     e54:	0005a883          	lw	a7,0(a1)
     e58:	0085a803          	lw	a6,8(a1)
     e5c:	0b186833          	max	a6,a6,a7
     e60:	05012823          	sw	a6,80(sp)
     e64:	0046a803          	lw	a6,4(a3)
     e68:	0045ae03          	lw	t3,4(a1)
     e6c:	01c80833          	add	a6,a6,t3
     e70:	05012a23          	sw	a6,84(sp)
     e74:	01072803          	lw	a6,16(a4)
     e78:	0b186833          	max	a6,a6,a7
     e7c:	05012c23          	sw	a6,88(sp)

00000e80 <T8_end>:
     e80:	b0002873          	csrr	a6,mcycle
     e84:	40680833          	sub	a6,a6,t1
     e88:	0307a023          	sw	a6,32(a5)
     e8c:	05012303          	lw	t1,80(sp)
     e90:	05412883          	lw	a7,84(sp)
     e94:	00100813          	li	a6,1
     e98:	0068d663          	bge	a7,t1,ea4 <T8_end+0x24>
     e9c:	00030893          	mv	a7,t1
     ea0:	00000813          	li	a6,0
     ea4:	05812303          	lw	t1,88(sp)
     ea8:	01134463          	blt	t1,a7,eb0 <T8_end+0x30>
     eac:	00200813          	li	a6,2
     eb0:	000208b7          	lui	a7,0x20
     eb4:	00020337          	lui	t1,0x20
     eb8:	0b430313          	addi	t1,t1,180 # 200b4 <next.10>
     ebc:	20684833          	sh2add	a6,a6,t1
     ec0:	00082803          	lw	a6,0(a6)
     ec4:	0f088893          	addi	a7,a7,240 # 200f0 <jump_table.19>
     ec8:	21184833          	sh2add	a6,a6,a7
     ecc:	00082803          	lw	a6,0(a6)
     ed0:	c8dff06f          	j	b5c <inferenceTPG+0xc>

00000ed4 <T9_start>:
     ed4:	b0002373          	csrr	t1,mcycle
     ed8:	0006a803          	lw	a6,0(a3)
     edc:	01012c23          	sw	a6,24(sp)
     ee0:	00472883          	lw	a7,4(a4)
     ee4:	00000813          	li	a6,0
     ee8:	01105863          	blez	a7,ef8 <T9_start+0x24>
     eec:	60089893          	clz	a7,a7
     ef0:	01f00813          	li	a6,31
     ef4:	41180833          	sub	a6,a6,a7
     ef8:	01012e23          	sw	a6,28(sp)

00000efc <T9_end>:
     efc:	b0002873          	csrr	a6,mcycle
     f00:	40680833          	sub	a6,a6,t1
     f04:	0307a223          	sw	a6,36(a5)
     f08:	000208b7          	lui	a7,0x20
     f0c:	01812803          	lw	a6,24(sp)
     f10:	01c12e03          	lw	t3,28(sp)
     f14:	010e2833          	slt	a6,t3,a6
     f18:	00183813          	seqz	a6,a6
     f1c:	93018313          	addi	t1,gp,-1744 # 20958 <next.9>
     f20:	20684833          	sh2add	a6,a6,t1
     f24:	00082803          	lw	a6,0(a6)
     f28:	0f088893          	addi	a7,a7,240 # 200f0 <jump_table.19>
     f2c:	21184833          	sh2add	a6,a6,a7
     f30:	00082803          	lw	a6,0(a6)
     f34:	c29ff06f          	j	b5c <inferenceTPG+0xc>

00000f38 <T10_start>:
     f38:	b0002373          	csrr	t1,mcycle
     f3c:	0006a803          	lw	a6,0(a3)
     f40:	05012e23          	sw	a6,92(sp)
     f44:	0086a803          	lw	a6,8(a3)
     f48:	41000833          	neg	a6,a6
     f4c:	07012023          	sw	a6,96(sp)
     f50:	00472883          	lw	a7,4(a4)
     f54:	00000813          	li	a6,0
     f58:	01105863          	blez	a7,f68 <T10_start+0x30>
     f5c:	60089893          	clz	a7,a7
     f60:	01f00813          	li	a6,31
     f64:	41180833          	sub	a6,a6,a7
     f68:	07012223          	sw	a6,100(sp)

00000f6c <T10_end>:
     f6c:	b0002873          	csrr	a6,mcycle
     f70:	40680833          	sub	a6,a6,t1
     f74:	0307a423          	sw	a6,40(a5)
     f78:	05c12303          	lw	t1,92(sp)
     f7c:	06012883          	lw	a7,96(sp)
     f80:	00100813          	li	a6,1
     f84:	0068d663          	bge	a7,t1,f90 <T10_end+0x24>
     f88:	00030893          	mv	a7,t1
     f8c:	00000813          	li	a6,0
     f90:	06412303          	lw	t1,100(sp)
     f94:	01134463          	blt	t1,a7,f9c <T10_end+0x30>
     f98:	00200813          	li	a6,2
     f9c:	000208b7          	lui	a7,0x20
     fa0:	00020337          	lui	t1,0x20
     fa4:	0a830313          	addi	t1,t1,168 # 200a8 <next.8>
     fa8:	20684833          	sh2add	a6,a6,t1
     fac:	00082803          	lw	a6,0(a6)
     fb0:	0f088893          	addi	a7,a7,240 # 200f0 <jump_table.19>
     fb4:	21184833          	sh2add	a6,a6,a7
     fb8:	00082803          	lw	a6,0(a6)
     fbc:	ba1ff06f          	j	b5c <inferenceTPG+0xc>

00000fc0 <T11_start>:
     fc0:	b0002ef3          	csrr	t4,mcycle
     fc4:	00072883          	lw	a7,0(a4)
     fc8:	0a08e833          	max	a6,a7,zero
     fcc:	07012a23          	sw	a6,116(sp)
     fd0:	0046a803          	lw	a6,4(a3)
     fd4:	01180833          	add	a6,a6,a7
     fd8:	07012c23          	sw	a6,120(sp)
     fdc:	0086a883          	lw	a7,8(a3)
     fe0:	41f8df13          	srai	t5,a7,0x1f
     fe4:	0006a303          	lw	t1,0(a3)
     fe8:	41f35813          	srai	a6,t1,0x1f
     fec:	03180833          	mul	a6,a6,a7
     ff0:	026f0e33          	mul	t3,t5,t1
     ff4:	01c80833          	add	a6,a6,t3
     ff8:	03130e33          	mul	t3,t1,a7
     ffc:	03133333          	mulhu	t1,t1,a7
    1000:	00680833          	add	a6,a6,t1
    1004:	01081813          	slli	a6,a6,0x10
    1008:	010e5313          	srli	t1,t3,0x10
    100c:	00680333          	add	t1,a6,t1
    1010:	06612e23          	sw	t1,124(sp)
    1014:	01472303          	lw	t1,20(a4)
    1018:	41f35813          	srai	a6,t1,0x1f
    101c:	03180833          	mul	a6,a6,a7
    1020:	026f0f33          	mul	t5,t5,t1
    1024:	01e80833          	add	a6,a6,t5
    1028:	03130e33          	mul	t3,t1,a7
    102c:	03133333          	mulhu	t1,t1,a7
    1030:	00680833          	add	a6,a6,t1
    1034:	01081813          	slli	a6,a6,0x10
    1038:	010e5893          	srli	a7,t3,0x10
    103c:	011808b3          	add	a7,a6,a7
    1040:	09112023          	sw	a7,128(sp)

00001044 <T11_end>:
    1044:	b0002873          	csrr	a6,mcycle
    1048:	41d80833          	sub	a6,a6,t4
    104c:	0307a623          	sw	a6,44(a5)
    1050:	07412303          	lw	t1,116(sp)
    1054:	07812883          	lw	a7,120(sp)
    1058:	00100813          	li	a6,1
    105c:	0068d663          	bge	a7,t1,1068 <T11_end+0x24>
    1060:	00030893          	mv	a7,t1
    1064:	00000813          	li	a6,0
    1068:	07c12303          	lw	t1,124(sp)
    106c:	03135c63          	bge	t1,a7,10a4 <T11_end+0x60>
    1070:	00088313          	mv	t1,a7
    1074:	08012883          	lw	a7,128(sp)
    1078:	0068c463          	blt	a7,t1,1080 <T11_end+0x3c>
    107c:	00300813          	li	a6,3
    1080:	000208b7          	lui	a7,0x20
    1084:	00020337          	lui	t1,0x20
    1088:	09830313          	addi	t1,t1,152 # 20098 <next.7>
    108c:	20684833          	sh2add	a6,a6,t1
    1090:	00082803          	lw	a6,0(a6)
    1094:	0f088893          	addi	a7,a7,240 # 200f0 <jump_table.19>
    1098:	21184833          	sh2add	a6,a6,a7
    109c:	00082803          	lw	a6,0(a6)
    10a0:	abdff06f          	j	b5c <inferenceTPG+0xc>
    10a4:	00200813          	li	a6,2
    10a8:	fcdff06f          	j	1074 <T11_end+0x30>

000010ac <T12_start>:
    10ac:	b0002ef3          	csrr	t4,mcycle
    10b0:	00072f03          	lw	t5,0(a4)
    10b4:	0a0f6833          	max	a6,t5,zero
    10b8:	09012223          	sw	a6,132(sp)
    10bc:	00c72883          	lw	a7,12(a4)
    10c0:	41f8d813          	srai	a6,a7,0x1f
    10c4:	00462e03          	lw	t3,4(a2)
    10c8:	41fe5313          	srai	t1,t3,0x1f
    10cc:	03c80833          	mul	a6,a6,t3
    10d0:	03130333          	mul	t1,t1,a7
    10d4:	00680833          	add	a6,a6,t1
    10d8:	03c88333          	mul	t1,a7,t3
    10dc:	03c8b8b3          	mulhu	a7,a7,t3
    10e0:	01180833          	add	a6,a6,a7
    10e4:	01081813          	slli	a6,a6,0x10
    10e8:	01035893          	srli	a7,t1,0x10
    10ec:	011808b3          	add	a7,a6,a7
    10f0:	09112423          	sw	a7,136(sp)
    10f4:	0086a803          	lw	a6,8(a3)
    10f8:	41f85893          	srai	a7,a6,0x1f
    10fc:	030888b3          	mul	a7,a7,a6
    1100:	03080333          	mul	t1,a6,a6
    1104:	03083833          	mulhu	a6,a6,a6
    1108:	2108a833          	sh1add	a6,a7,a6
    110c:	01081813          	slli	a6,a6,0x10
    1110:	01035893          	srli	a7,t1,0x10
    1114:	011808b3          	add	a7,a6,a7
    1118:	09112623          	sw	a7,140(sp)
    111c:	0046a803          	lw	a6,4(a3)
    1120:	01e80833          	add	a6,a6,t5
    1124:	09012823          	sw	a6,144(sp)

00001128 <T12_end>:
    1128:	b0002873          	csrr	a6,mcycle
    112c:	41d80833          	sub	a6,a6,t4
    1130:	0307a823          	sw	a6,48(a5)
    1134:	08412303          	lw	t1,132(sp)
    1138:	08812883          	lw	a7,136(sp)
    113c:	00100813          	li	a6,1
    1140:	0068d663          	bge	a7,t1,114c <T12_end+0x24>
    1144:	00030893          	mv	a7,t1
    1148:	00000813          	li	a6,0
    114c:	08c12303          	lw	t1,140(sp)
    1150:	03135c63          	bge	t1,a7,1188 <T12_end+0x60>
    1154:	00088313          	mv	t1,a7
    1158:	09012883          	lw	a7,144(sp)
    115c:	0068c463          	blt	a7,t1,1164 <T12_end+0x3c>
    1160:	00300813          	li	a6,3
    1164:	000208b7          	lui	a7,0x20
    1168:	00020337          	lui	t1,0x20
    116c:	08830313          	addi	t1,t1,136 # 20088 <next.6>
    1170:	20684833          	sh2add	a6,a6,t1
    1174:	00082803          	lw	a6,0(a6)
    1178:	0f088893          	addi	a7,a7,240 # 200f0 <jump_table.19>
    117c:	21184833          	sh2add	a6,a6,a7
    1180:	00082803          	lw	a6,0(a6)
    1184:	9d9ff06f          	j	b5c <inferenceTPG+0xc>
    1188:	00200813          	li	a6,2
    118c:	fcdff06f          	j	1158 <T12_end+0x30>

00001190 <T13_start>:
    1190:	b00028f3          	csrr	a7,mcycle

00001194 <T13_end>:
    1194:	b0002873          	csrr	a6,mcycle
    1198:	41180833          	sub	a6,a6,a7
    119c:	0307aa23          	sw	a6,52(a5)
    11a0:	00001837          	lui	a6,0x1
    11a4:	e5080813          	addi	a6,a6,-432 # e50 <T8_start>
    11a8:	9b5ff06f          	j	b5c <inferenceTPG+0xc>

000011ac <T14_start>:
    11ac:	b0002f73          	csrr	t5,mcycle
    11b0:	00062303          	lw	t1,0(a2)
    11b4:	00072803          	lw	a6,0(a4)
    11b8:	0a686833          	max	a6,a6,t1
    11bc:	0d012423          	sw	a6,200(sp)
    11c0:	00c72803          	lw	a6,12(a4)
    11c4:	0a086833          	max	a6,a6,zero
    11c8:	0d012623          	sw	a6,204(sp)
    11cc:	00872883          	lw	a7,8(a4)
    11d0:	00462803          	lw	a6,4(a2)
    11d4:	0b186833          	max	a6,a6,a7
    11d8:	0d012823          	sw	a6,208(sp)
    11dc:	0006a803          	lw	a6,0(a3)
    11e0:	01180833          	add	a6,a6,a7
    11e4:	0d012a23          	sw	a6,212(sp)
    11e8:	0086a883          	lw	a7,8(a3)
    11ec:	41f8de93          	srai	t4,a7,0x1f
    11f0:	031e8e33          	mul	t3,t4,a7
    11f4:	03188833          	mul	a6,a7,a7
    11f8:	0318bfb3          	mulhu	t6,a7,a7
    11fc:	21fe2e33          	sh1add	t3,t3,t6
    1200:	010e1e13          	slli	t3,t3,0x10
    1204:	01085813          	srli	a6,a6,0x10
    1208:	010e0833          	add	a6,t3,a6
    120c:	0d012c23          	sw	a6,216(sp)
    1210:	41f35813          	srai	a6,t1,0x1f
    1214:	03180833          	mul	a6,a6,a7
    1218:	026e8eb3          	mul	t4,t4,t1
    121c:	01d80833          	add	a6,a6,t4
    1220:	03130e33          	mul	t3,t1,a7
    1224:	03133333          	mulhu	t1,t1,a7
    1228:	00680833          	add	a6,a6,t1
    122c:	01081813          	slli	a6,a6,0x10
    1230:	010e5893          	srli	a7,t3,0x10
    1234:	011808b3          	add	a7,a6,a7
    1238:	0d112e23          	sw	a7,220(sp)

0000123c <T14_end>:
    123c:	b0002873          	csrr	a6,mcycle
    1240:	41e80833          	sub	a6,a6,t5
    1244:	0307ac23          	sw	a6,56(a5)
    1248:	0c812e03          	lw	t3,200(sp)
    124c:	0cc10893          	addi	a7,sp,204
    1250:	00000f13          	li	t5,0
    1254:	00100813          	li	a6,1
    1258:	00600e93          	li	t4,6
    125c:	0100006f          	j	126c <T14_end+0x30>
    1260:	00180813          	addi	a6,a6,1
    1264:	00488893          	addi	a7,a7,4
    1268:	01d80c63          	beq	a6,t4,1280 <T14_end+0x44>
    126c:	0008a303          	lw	t1,0(a7)
    1270:	ffc348e3          	blt	t1,t3,1260 <T14_end+0x24>
    1274:	00030e13          	mv	t3,t1
    1278:	00080f13          	mv	t5,a6
    127c:	fe5ff06f          	j	1260 <T14_end+0x24>
    1280:	000208b7          	lui	a7,0x20
    1284:	00020837          	lui	a6,0x20
    1288:	07080813          	addi	a6,a6,112 # 20070 <next.4>
    128c:	210f4f33          	sh2add	t5,t5,a6
    1290:	000f2803          	lw	a6,0(t5)
    1294:	0f088893          	addi	a7,a7,240 # 200f0 <jump_table.19>
    1298:	21184833          	sh2add	a6,a6,a7
    129c:	00082803          	lw	a6,0(a6)
    12a0:	8bdff06f          	j	b5c <inferenceTPG+0xc>

000012a4 <T15_start>:
    12a4:	b0002373          	csrr	t1,mcycle
    12a8:	00872803          	lw	a6,8(a4)
    12ac:	0086a883          	lw	a7,8(a3)
    12b0:	010888b3          	add	a7,a7,a6
    12b4:	09112a23          	sw	a7,148(sp)
    12b8:	00072883          	lw	a7,0(a4)
    12bc:	00062e03          	lw	t3,0(a2)
    12c0:	41c888b3          	sub	a7,a7,t3
    12c4:	09112c23          	sw	a7,152(sp)
    12c8:	00c72883          	lw	a7,12(a4)
    12cc:	0a08e8b3          	max	a7,a7,zero
    12d0:	09112e23          	sw	a7,156(sp)
    12d4:	0006a883          	lw	a7,0(a3)
    12d8:	41180833          	sub	a6,a6,a7
    12dc:	0b012023          	sw	a6,160(sp)

000012e0 <T15_end>:
    12e0:	b0002873          	csrr	a6,mcycle
    12e4:	40680833          	sub	a6,a6,t1
    12e8:	0307ae23          	sw	a6,60(a5)
    12ec:	09412303          	lw	t1,148(sp)
    12f0:	09812883          	lw	a7,152(sp)
    12f4:	00100813          	li	a6,1
    12f8:	0068d663          	bge	a7,t1,1304 <T15_end+0x24>
    12fc:	00030893          	mv	a7,t1
    1300:	00000813          	li	a6,0
    1304:	09c12303          	lw	t1,156(sp)
    1308:	03135c63          	bge	t1,a7,1340 <T15_end+0x60>
    130c:	00088313          	mv	t1,a7
    1310:	0a012883          	lw	a7,160(sp)
    1314:	0068c463          	blt	a7,t1,131c <T15_end+0x3c>
    1318:	00300813          	li	a6,3
    131c:	000208b7          	lui	a7,0x20
    1320:	00020337          	lui	t1,0x20
    1324:	06030313          	addi	t1,t1,96 # 20060 <next.3>
    1328:	20684833          	sh2add	a6,a6,t1
    132c:	00082803          	lw	a6,0(a6)
    1330:	0f088893          	addi	a7,a7,240 # 200f0 <jump_table.19>
    1334:	21184833          	sh2add	a6,a6,a7
    1338:	00082803          	lw	a6,0(a6)
    133c:	821ff06f          	j	b5c <inferenceTPG+0xc>
    1340:	00200813          	li	a6,2
    1344:	fcdff06f          	j	1310 <T15_end+0x30>

00001348 <T16_start>:
    1348:	b0002373          	csrr	t1,mcycle
    134c:	00872883          	lw	a7,8(a4)
    1350:	0086a803          	lw	a6,8(a3)
    1354:	01180833          	add	a6,a6,a7
    1358:	0b012223          	sw	a6,164(sp)
    135c:	00c72803          	lw	a6,12(a4)
    1360:	0a086833          	max	a6,a6,zero
    1364:	0b012423          	sw	a6,168(sp)
    1368:	0006a803          	lw	a6,0(a3)
    136c:	41088833          	sub	a6,a7,a6
    1370:	0b012623          	sw	a6,172(sp)
    1374:	00462803          	lw	a6,4(a2)
    1378:	0b186833          	max	a6,a6,a7
    137c:	0b012823          	sw	a6,176(sp)

00001380 <T16_end>:
    1380:	b0002873          	csrr	a6,mcycle
    1384:	40680833          	sub	a6,a6,t1
    1388:	0507a023          	sw	a6,64(a5)
    138c:	0a412303          	lw	t1,164(sp)
    1390:	0a812883          	lw	a7,168(sp)
    1394:	00100813          	li	a6,1
    1398:	0068d663          	bge	a7,t1,13a4 <T16_end+0x24>
    139c:	00030893          	mv	a7,t1
    13a0:	00000813          	li	a6,0
    13a4:	0ac12303          	lw	t1,172(sp)
    13a8:	03135c63          	bge	t1,a7,13e0 <T16_end+0x60>
    13ac:	00088313          	mv	t1,a7
    13b0:	0b012883          	lw	a7,176(sp)
    13b4:	0068c463          	blt	a7,t1,13bc <T16_end+0x3c>
    13b8:	00300813          	li	a6,3
    13bc:	000208b7          	lui	a7,0x20
    13c0:	00020337          	lui	t1,0x20
    13c4:	05030313          	addi	t1,t1,80 # 20050 <next.2>
    13c8:	20684833          	sh2add	a6,a6,t1
    13cc:	00082803          	lw	a6,0(a6)
    13d0:	0f088893          	addi	a7,a7,240 # 200f0 <jump_table.19>
    13d4:	21184833          	sh2add	a6,a6,a7
    13d8:	00082803          	lw	a6,0(a6)
    13dc:	f80ff06f          	j	b5c <inferenceTPG+0xc>
    13e0:	00200813          	li	a6,2
    13e4:	fcdff06f          	j	13b0 <T16_end+0x30>

000013e8 <T17_start>:
    13e8:	b0002373          	csrr	t1,mcycle
    13ec:	00872883          	lw	a7,8(a4)
    13f0:	0086a803          	lw	a6,8(a3)
    13f4:	01180833          	add	a6,a6,a7
    13f8:	07012423          	sw	a6,104(sp)
    13fc:	00c72803          	lw	a6,12(a4)
    1400:	00062e03          	lw	t3,0(a2)
    1404:	01c80833          	add	a6,a6,t3
    1408:	07012623          	sw	a6,108(sp)
    140c:	00462803          	lw	a6,4(a2)
    1410:	0b186833          	max	a6,a6,a7
    1414:	07012823          	sw	a6,112(sp)

00001418 <T17_end>:
    1418:	b0002873          	csrr	a6,mcycle
    141c:	40680833          	sub	a6,a6,t1
    1420:	0507a223          	sw	a6,68(a5)
    1424:	06812303          	lw	t1,104(sp)
    1428:	06c12883          	lw	a7,108(sp)
    142c:	00100813          	li	a6,1
    1430:	0068d663          	bge	a7,t1,143c <T17_end+0x24>
    1434:	00030893          	mv	a7,t1
    1438:	00000813          	li	a6,0
    143c:	07012303          	lw	t1,112(sp)
    1440:	01134463          	blt	t1,a7,1448 <T17_end+0x30>
    1444:	00200813          	li	a6,2
    1448:	000208b7          	lui	a7,0x20
    144c:	00020337          	lui	t1,0x20
    1450:	04430313          	addi	t1,t1,68 # 20044 <next.1>
    1454:	20684833          	sh2add	a6,a6,t1
    1458:	00082803          	lw	a6,0(a6)
    145c:	0f088893          	addi	a7,a7,240 # 200f0 <jump_table.19>
    1460:	21184833          	sh2add	a6,a6,a7
    1464:	00082803          	lw	a6,0(a6)
    1468:	ef4ff06f          	j	b5c <inferenceTPG+0xc>

0000146c <T18_start>:
    146c:	b0002373          	csrr	t1,mcycle
    1470:	00472883          	lw	a7,4(a4)
    1474:	00062803          	lw	a6,0(a2)
    1478:	01180833          	add	a6,a6,a7
    147c:	0b012a23          	sw	a6,180(sp)
    1480:	0086a803          	lw	a6,8(a3)
    1484:	00872e03          	lw	t3,8(a4)
    1488:	01c80833          	add	a6,a6,t3
    148c:	0b012c23          	sw	a6,184(sp)
    1490:	0005a803          	lw	a6,0(a1)
    1494:	00c72e03          	lw	t3,12(a4)
    1498:	01c80833          	add	a6,a6,t3
    149c:	0b012e23          	sw	a6,188(sp)
    14a0:	00072803          	lw	a6,0(a4)
    14a4:	0006ae03          	lw	t3,0(a3)
    14a8:	41c80833          	sub	a6,a6,t3
    14ac:	0d012023          	sw	a6,192(sp)
    14b0:	0d112223          	sw	a7,196(sp)

000014b4 <T18_end>:
    14b4:	b0002873          	csrr	a6,mcycle
    14b8:	40680833          	sub	a6,a6,t1
    14bc:	0507a423          	sw	a6,72(a5)
    14c0:	0b412e03          	lw	t3,180(sp)
    14c4:	0b410893          	addi	a7,sp,180
    14c8:	00000f13          	li	t5,0
    14cc:	00100813          	li	a6,1
    14d0:	00500e93          	li	t4,5
    14d4:	0100006f          	j	14e4 <T18_end+0x30>
    14d8:	00180813          	addi	a6,a6,1
    14dc:	00488893          	addi	a7,a7,4
    14e0:	01d80c63          	beq	a6,t4,14f8 <T18_end+0x44>
    14e4:	0048a303          	lw	t1,4(a7)
    14e8:	ffc348e3          	blt	t1,t3,14d8 <T18_end+0x24>
    14ec:	00030e13          	mv	t3,t1
    14f0:	00080f13          	mv	t5,a6
    14f4:	fe5ff06f          	j	14d8 <T18_end+0x24>
    14f8:	000208b7          	lui	a7,0x20
    14fc:	00020837          	lui	a6,0x20
    1500:	03080813          	addi	a6,a6,48 # 20030 <next.0>
    1504:	210f4f33          	sh2add	t5,t5,a6
    1508:	000f2803          	lw	a6,0(t5)
    150c:	0f088893          	addi	a7,a7,240 # 200f0 <jump_table.19>
    1510:	21184833          	sh2add	a6,a6,a7
    1514:	00082803          	lw	a6,0(a6)
    1518:	e44ff06f          	j	b5c <inferenceTPG+0xc>
    151c:	00300793          	li	a5,3
    1520:	00f52023          	sw	a5,0(a0)
    1524:	0e010113          	addi	sp,sp,224
    1528:	00008067          	ret
    152c:	00400793          	li	a5,4
    1530:	ff1ff06f          	j	1520 <T18_end+0x6c>
    1534:	00800793          	li	a5,8
    1538:	fe9ff06f          	j	1520 <T18_end+0x6c>
    153c:	00000793          	li	a5,0
    1540:	fe1ff06f          	j	1520 <T18_end+0x6c>
    1544:	00500793          	li	a5,5
    1548:	fd9ff06f          	j	1520 <T18_end+0x6c>
    154c:	00600793          	li	a5,6
    1550:	fd1ff06f          	j	1520 <T18_end+0x6c>
    1554:	00700793          	li	a5,7
    1558:	fc9ff06f          	j	1520 <T18_end+0x6c>
    155c:	00100793          	li	a5,1
    1560:	fc1ff06f          	j	1520 <T18_end+0x6c>

00001564 <handler_irq_fast_timer_1>:
    1564:	fc010113          	addi	sp,sp,-64
    1568:	02112e23          	sw	ra,60(sp)
    156c:	02512c23          	sw	t0,56(sp)
    1570:	02612a23          	sw	t1,52(sp)
    1574:	02712823          	sw	t2,48(sp)
    1578:	02a12623          	sw	a0,44(sp)
    157c:	02b12423          	sw	a1,40(sp)
    1580:	02c12223          	sw	a2,36(sp)
    1584:	02d12023          	sw	a3,32(sp)
    1588:	00e12e23          	sw	a4,28(sp)
    158c:	00f12c23          	sw	a5,24(sp)
    1590:	01012a23          	sw	a6,20(sp)
    1594:	01112823          	sw	a7,16(sp)
    1598:	01c12623          	sw	t3,12(sp)
    159c:	01d12423          	sw	t4,8(sp)
    15a0:	01e12223          	sw	t5,4(sp)
    15a4:	01f12023          	sw	t6,0(sp)
    15a8:	200607b7          	lui	a5,0x20060
    15ac:	00100713          	li	a4,1
    15b0:	00e7a223          	sw	a4,4(a5) # 20060004 <_sp+0x20037424>
    15b4:	dfdfe0ef          	jal	3b0 <fic_irq_timer_1>
    15b8:	03c12083          	lw	ra,60(sp)
    15bc:	03812283          	lw	t0,56(sp)
    15c0:	03412303          	lw	t1,52(sp)
    15c4:	03012383          	lw	t2,48(sp)
    15c8:	02c12503          	lw	a0,44(sp)
    15cc:	02812583          	lw	a1,40(sp)
    15d0:	02412603          	lw	a2,36(sp)
    15d4:	02012683          	lw	a3,32(sp)
    15d8:	01c12703          	lw	a4,28(sp)
    15dc:	01812783          	lw	a5,24(sp)
    15e0:	01412803          	lw	a6,20(sp)
    15e4:	01012883          	lw	a7,16(sp)
    15e8:	00c12e03          	lw	t3,12(sp)
    15ec:	00812e83          	lw	t4,8(sp)
    15f0:	00412f03          	lw	t5,4(sp)
    15f4:	00012f83          	lw	t6,0(sp)
    15f8:	04010113          	addi	sp,sp,64
    15fc:	30200073          	mret

00001600 <handler_irq_fast_timer_2>:
    1600:	fc010113          	addi	sp,sp,-64
    1604:	02112e23          	sw	ra,60(sp)
    1608:	02512c23          	sw	t0,56(sp)
    160c:	02612a23          	sw	t1,52(sp)
    1610:	02712823          	sw	t2,48(sp)
    1614:	02a12623          	sw	a0,44(sp)
    1618:	02b12423          	sw	a1,40(sp)
    161c:	02c12223          	sw	a2,36(sp)
    1620:	02d12023          	sw	a3,32(sp)
    1624:	00e12e23          	sw	a4,28(sp)
    1628:	00f12c23          	sw	a5,24(sp)
    162c:	01012a23          	sw	a6,20(sp)
    1630:	01112823          	sw	a7,16(sp)
    1634:	01c12623          	sw	t3,12(sp)
    1638:	01d12423          	sw	t4,8(sp)
    163c:	01e12223          	sw	t5,4(sp)
    1640:	01f12023          	sw	t6,0(sp)
    1644:	200607b7          	lui	a5,0x20060
    1648:	00200713          	li	a4,2
    164c:	00e7a223          	sw	a4,4(a5) # 20060004 <_sp+0x20037424>
    1650:	d85fe0ef          	jal	3d4 <fic_irq_timer_2>
    1654:	03c12083          	lw	ra,60(sp)
    1658:	03812283          	lw	t0,56(sp)
    165c:	03412303          	lw	t1,52(sp)
    1660:	03012383          	lw	t2,48(sp)
    1664:	02c12503          	lw	a0,44(sp)
    1668:	02812583          	lw	a1,40(sp)
    166c:	02412603          	lw	a2,36(sp)
    1670:	02012683          	lw	a3,32(sp)
    1674:	01c12703          	lw	a4,28(sp)
    1678:	01812783          	lw	a5,24(sp)
    167c:	01412803          	lw	a6,20(sp)
    1680:	01012883          	lw	a7,16(sp)
    1684:	00c12e03          	lw	t3,12(sp)
    1688:	00812e83          	lw	t4,8(sp)
    168c:	00412f03          	lw	t5,4(sp)
    1690:	00012f83          	lw	t6,0(sp)
    1694:	04010113          	addi	sp,sp,64
    1698:	30200073          	mret

0000169c <handler_irq_fast_timer_3>:
    169c:	fc010113          	addi	sp,sp,-64
    16a0:	02112e23          	sw	ra,60(sp)
    16a4:	02512c23          	sw	t0,56(sp)
    16a8:	02612a23          	sw	t1,52(sp)
    16ac:	02712823          	sw	t2,48(sp)
    16b0:	02a12623          	sw	a0,44(sp)
    16b4:	02b12423          	sw	a1,40(sp)
    16b8:	02c12223          	sw	a2,36(sp)
    16bc:	02d12023          	sw	a3,32(sp)
    16c0:	00e12e23          	sw	a4,28(sp)
    16c4:	00f12c23          	sw	a5,24(sp)
    16c8:	01012a23          	sw	a6,20(sp)
    16cc:	01112823          	sw	a7,16(sp)
    16d0:	01c12623          	sw	t3,12(sp)
    16d4:	01d12423          	sw	t4,8(sp)
    16d8:	01e12223          	sw	t5,4(sp)
    16dc:	01f12023          	sw	t6,0(sp)
    16e0:	200607b7          	lui	a5,0x20060
    16e4:	00400713          	li	a4,4
    16e8:	00e7a223          	sw	a4,4(a5) # 20060004 <_sp+0x20037424>
    16ec:	d0dfe0ef          	jal	3f8 <fic_irq_timer_3>
    16f0:	03c12083          	lw	ra,60(sp)
    16f4:	03812283          	lw	t0,56(sp)
    16f8:	03412303          	lw	t1,52(sp)
    16fc:	03012383          	lw	t2,48(sp)
    1700:	02c12503          	lw	a0,44(sp)
    1704:	02812583          	lw	a1,40(sp)
    1708:	02412603          	lw	a2,36(sp)
    170c:	02012683          	lw	a3,32(sp)
    1710:	01c12703          	lw	a4,28(sp)
    1714:	01812783          	lw	a5,24(sp)
    1718:	01412803          	lw	a6,20(sp)
    171c:	01012883          	lw	a7,16(sp)
    1720:	00c12e03          	lw	t3,12(sp)
    1724:	00812e83          	lw	t4,8(sp)
    1728:	00412f03          	lw	t5,4(sp)
    172c:	00012f83          	lw	t6,0(sp)
    1730:	04010113          	addi	sp,sp,64
    1734:	30200073          	mret

00001738 <handler_irq_fast_dma_done>:
    1738:	fc010113          	addi	sp,sp,-64
    173c:	02112e23          	sw	ra,60(sp)
    1740:	02512c23          	sw	t0,56(sp)
    1744:	02612a23          	sw	t1,52(sp)
    1748:	02712823          	sw	t2,48(sp)
    174c:	02a12623          	sw	a0,44(sp)
    1750:	02b12423          	sw	a1,40(sp)
    1754:	02c12223          	sw	a2,36(sp)
    1758:	02d12023          	sw	a3,32(sp)
    175c:	00e12e23          	sw	a4,28(sp)
    1760:	00f12c23          	sw	a5,24(sp)
    1764:	01012a23          	sw	a6,20(sp)
    1768:	01112823          	sw	a7,16(sp)
    176c:	01c12623          	sw	t3,12(sp)
    1770:	01d12423          	sw	t4,8(sp)
    1774:	01e12223          	sw	t5,4(sp)
    1778:	01f12023          	sw	t6,0(sp)
    177c:	200607b7          	lui	a5,0x20060
    1780:	00800713          	li	a4,8
    1784:	00e7a223          	sw	a4,4(a5) # 20060004 <_sp+0x20037424>
    1788:	b2dfe0ef          	jal	2b4 <fic_irq_dma_done>
    178c:	03c12083          	lw	ra,60(sp)
    1790:	03812283          	lw	t0,56(sp)
    1794:	03412303          	lw	t1,52(sp)
    1798:	03012383          	lw	t2,48(sp)
    179c:	02c12503          	lw	a0,44(sp)
    17a0:	02812583          	lw	a1,40(sp)
    17a4:	02412603          	lw	a2,36(sp)
    17a8:	02012683          	lw	a3,32(sp)
    17ac:	01c12703          	lw	a4,28(sp)
    17b0:	01812783          	lw	a5,24(sp)
    17b4:	01412803          	lw	a6,20(sp)
    17b8:	01012883          	lw	a7,16(sp)
    17bc:	00c12e03          	lw	t3,12(sp)
    17c0:	00812e83          	lw	t4,8(sp)
    17c4:	00412f03          	lw	t5,4(sp)
    17c8:	00012f83          	lw	t6,0(sp)
    17cc:	04010113          	addi	sp,sp,64
    17d0:	30200073          	mret

000017d4 <handler_irq_fast_dma_window>:
    17d4:	fc010113          	addi	sp,sp,-64
    17d8:	02112e23          	sw	ra,60(sp)
    17dc:	02512c23          	sw	t0,56(sp)
    17e0:	02612a23          	sw	t1,52(sp)
    17e4:	02712823          	sw	t2,48(sp)
    17e8:	02a12623          	sw	a0,44(sp)
    17ec:	02b12423          	sw	a1,40(sp)
    17f0:	02c12223          	sw	a2,36(sp)
    17f4:	02d12023          	sw	a3,32(sp)
    17f8:	00e12e23          	sw	a4,28(sp)
    17fc:	00f12c23          	sw	a5,24(sp)
    1800:	01012a23          	sw	a6,20(sp)
    1804:	01112823          	sw	a7,16(sp)
    1808:	01c12623          	sw	t3,12(sp)
    180c:	01d12423          	sw	t4,8(sp)
    1810:	01e12223          	sw	t5,4(sp)
    1814:	01f12023          	sw	t6,0(sp)
    1818:	200607b7          	lui	a5,0x20060
    181c:	00004737          	lui	a4,0x4
    1820:	00e7a223          	sw	a4,4(a5) # 20060004 <_sp+0x20037424>
    1824:	a11fe0ef          	jal	234 <fic_irq_dma_window>
    1828:	03c12083          	lw	ra,60(sp)
    182c:	03812283          	lw	t0,56(sp)
    1830:	03412303          	lw	t1,52(sp)
    1834:	03012383          	lw	t2,48(sp)
    1838:	02c12503          	lw	a0,44(sp)
    183c:	02812583          	lw	a1,40(sp)
    1840:	02412603          	lw	a2,36(sp)
    1844:	02012683          	lw	a3,32(sp)
    1848:	01c12703          	lw	a4,28(sp)
    184c:	01812783          	lw	a5,24(sp)
    1850:	01412803          	lw	a6,20(sp)
    1854:	01012883          	lw	a7,16(sp)
    1858:	00c12e03          	lw	t3,12(sp)
    185c:	00812e83          	lw	t4,8(sp)
    1860:	00412f03          	lw	t5,4(sp)
    1864:	00012f83          	lw	t6,0(sp)
    1868:	04010113          	addi	sp,sp,64
    186c:	30200073          	mret

00001870 <handler_irq_fast_external_peripheral>:
    1870:	fc010113          	addi	sp,sp,-64
    1874:	02112e23          	sw	ra,60(sp)
    1878:	02512c23          	sw	t0,56(sp)
    187c:	02612a23          	sw	t1,52(sp)
    1880:	02712823          	sw	t2,48(sp)
    1884:	02a12623          	sw	a0,44(sp)
    1888:	02b12423          	sw	a1,40(sp)
    188c:	02c12223          	sw	a2,36(sp)
    1890:	02d12023          	sw	a3,32(sp)
    1894:	00e12e23          	sw	a4,28(sp)
    1898:	00f12c23          	sw	a5,24(sp)
    189c:	01012a23          	sw	a6,20(sp)
    18a0:	01112823          	sw	a7,16(sp)
    18a4:	01c12623          	sw	t3,12(sp)
    18a8:	01d12423          	sw	t4,8(sp)
    18ac:	01e12223          	sw	t5,4(sp)
    18b0:	01f12023          	sw	t6,0(sp)
    18b4:	200607b7          	lui	a5,0x20060
    18b8:	00008737          	lui	a4,0x8
    18bc:	00e7a223          	sw	a4,4(a5) # 20060004 <_sp+0x20037424>
    18c0:	b5dfe0ef          	jal	41c <fic_irq_ext_peripheral>
    18c4:	03c12083          	lw	ra,60(sp)
    18c8:	03812283          	lw	t0,56(sp)
    18cc:	03412303          	lw	t1,52(sp)
    18d0:	03012383          	lw	t2,48(sp)
    18d4:	02c12503          	lw	a0,44(sp)
    18d8:	02812583          	lw	a1,40(sp)
    18dc:	02412603          	lw	a2,36(sp)
    18e0:	02012683          	lw	a3,32(sp)
    18e4:	01c12703          	lw	a4,28(sp)
    18e8:	01812783          	lw	a5,24(sp)
    18ec:	01412803          	lw	a6,20(sp)
    18f0:	01012883          	lw	a7,16(sp)
    18f4:	00c12e03          	lw	t3,12(sp)
    18f8:	00812e83          	lw	t4,8(sp)
    18fc:	00412f03          	lw	t5,4(sp)
    1900:	00012f83          	lw	t6,0(sp)
    1904:	04010113          	addi	sp,sp,64
    1908:	30200073          	mret

0000190c <handler_irq_fast_gpio_0>:
    190c:	fc010113          	addi	sp,sp,-64
    1910:	02112e23          	sw	ra,60(sp)
    1914:	02512c23          	sw	t0,56(sp)
    1918:	02612a23          	sw	t1,52(sp)
    191c:	02712823          	sw	t2,48(sp)
    1920:	02a12623          	sw	a0,44(sp)
    1924:	02b12423          	sw	a1,40(sp)
    1928:	02c12223          	sw	a2,36(sp)
    192c:	02d12023          	sw	a3,32(sp)
    1930:	00e12e23          	sw	a4,28(sp)
    1934:	00f12c23          	sw	a5,24(sp)
    1938:	01012a23          	sw	a6,20(sp)
    193c:	01112823          	sw	a7,16(sp)
    1940:	01c12623          	sw	t3,12(sp)
    1944:	01d12423          	sw	t4,8(sp)
    1948:	01e12223          	sw	t5,4(sp)
    194c:	01f12023          	sw	t6,0(sp)
    1950:	200607b7          	lui	a5,0x20060
    1954:	04000713          	li	a4,64
    1958:	00e7a223          	sw	a4,4(a5) # 20060004 <_sp+0x20037424>
    195c:	ae5fe0ef          	jal	440 <fic_irq_gpio_0>
    1960:	03c12083          	lw	ra,60(sp)
    1964:	03812283          	lw	t0,56(sp)
    1968:	03412303          	lw	t1,52(sp)
    196c:	03012383          	lw	t2,48(sp)
    1970:	02c12503          	lw	a0,44(sp)
    1974:	02812583          	lw	a1,40(sp)
    1978:	02412603          	lw	a2,36(sp)
    197c:	02012683          	lw	a3,32(sp)
    1980:	01c12703          	lw	a4,28(sp)
    1984:	01812783          	lw	a5,24(sp)
    1988:	01412803          	lw	a6,20(sp)
    198c:	01012883          	lw	a7,16(sp)
    1990:	00c12e03          	lw	t3,12(sp)
    1994:	00812e83          	lw	t4,8(sp)
    1998:	00412f03          	lw	t5,4(sp)
    199c:	00012f83          	lw	t6,0(sp)
    19a0:	04010113          	addi	sp,sp,64
    19a4:	30200073          	mret

000019a8 <handler_irq_fast_gpio_1>:
    19a8:	fc010113          	addi	sp,sp,-64
    19ac:	02112e23          	sw	ra,60(sp)
    19b0:	02512c23          	sw	t0,56(sp)
    19b4:	02612a23          	sw	t1,52(sp)
    19b8:	02712823          	sw	t2,48(sp)
    19bc:	02a12623          	sw	a0,44(sp)
    19c0:	02b12423          	sw	a1,40(sp)
    19c4:	02c12223          	sw	a2,36(sp)
    19c8:	02d12023          	sw	a3,32(sp)
    19cc:	00e12e23          	sw	a4,28(sp)
    19d0:	00f12c23          	sw	a5,24(sp)
    19d4:	01012a23          	sw	a6,20(sp)
    19d8:	01112823          	sw	a7,16(sp)
    19dc:	01c12623          	sw	t3,12(sp)
    19e0:	01d12423          	sw	t4,8(sp)
    19e4:	01e12223          	sw	t5,4(sp)
    19e8:	01f12023          	sw	t6,0(sp)
    19ec:	200607b7          	lui	a5,0x20060
    19f0:	08000713          	li	a4,128
    19f4:	00e7a223          	sw	a4,4(a5) # 20060004 <_sp+0x20037424>
    19f8:	a6dfe0ef          	jal	464 <fic_irq_gpio_1>
    19fc:	03c12083          	lw	ra,60(sp)
    1a00:	03812283          	lw	t0,56(sp)
    1a04:	03412303          	lw	t1,52(sp)
    1a08:	03012383          	lw	t2,48(sp)
    1a0c:	02c12503          	lw	a0,44(sp)
    1a10:	02812583          	lw	a1,40(sp)
    1a14:	02412603          	lw	a2,36(sp)
    1a18:	02012683          	lw	a3,32(sp)
    1a1c:	01c12703          	lw	a4,28(sp)
    1a20:	01812783          	lw	a5,24(sp)
    1a24:	01412803          	lw	a6,20(sp)
    1a28:	01012883          	lw	a7,16(sp)
    1a2c:	00c12e03          	lw	t3,12(sp)
    1a30:	00812e83          	lw	t4,8(sp)
    1a34:	00412f03          	lw	t5,4(sp)
    1a38:	00012f83          	lw	t6,0(sp)
    1a3c:	04010113          	addi	sp,sp,64
    1a40:	30200073          	mret

00001a44 <handler_irq_fast_gpio_2>:
    1a44:	fc010113          	addi	sp,sp,-64
    1a48:	02112e23          	sw	ra,60(sp)
    1a4c:	02512c23          	sw	t0,56(sp)
    1a50:	02612a23          	sw	t1,52(sp)
    1a54:	02712823          	sw	t2,48(sp)
    1a58:	02a12623          	sw	a0,44(sp)
    1a5c:	02b12423          	sw	a1,40(sp)
    1a60:	02c12223          	sw	a2,36(sp)
    1a64:	02d12023          	sw	a3,32(sp)
    1a68:	00e12e23          	sw	a4,28(sp)
    1a6c:	00f12c23          	sw	a5,24(sp)
    1a70:	01012a23          	sw	a6,20(sp)
    1a74:	01112823          	sw	a7,16(sp)
    1a78:	01c12623          	sw	t3,12(sp)
    1a7c:	01d12423          	sw	t4,8(sp)
    1a80:	01e12223          	sw	t5,4(sp)
    1a84:	01f12023          	sw	t6,0(sp)
    1a88:	200607b7          	lui	a5,0x20060
    1a8c:	10000713          	li	a4,256
    1a90:	00e7a223          	sw	a4,4(a5) # 20060004 <_sp+0x20037424>
    1a94:	9f5fe0ef          	jal	488 <fic_irq_gpio_2>
    1a98:	03c12083          	lw	ra,60(sp)
    1a9c:	03812283          	lw	t0,56(sp)
    1aa0:	03412303          	lw	t1,52(sp)
    1aa4:	03012383          	lw	t2,48(sp)
    1aa8:	02c12503          	lw	a0,44(sp)
    1aac:	02812583          	lw	a1,40(sp)
    1ab0:	02412603          	lw	a2,36(sp)
    1ab4:	02012683          	lw	a3,32(sp)
    1ab8:	01c12703          	lw	a4,28(sp)
    1abc:	01812783          	lw	a5,24(sp)
    1ac0:	01412803          	lw	a6,20(sp)
    1ac4:	01012883          	lw	a7,16(sp)
    1ac8:	00c12e03          	lw	t3,12(sp)
    1acc:	00812e83          	lw	t4,8(sp)
    1ad0:	00412f03          	lw	t5,4(sp)
    1ad4:	00012f83          	lw	t6,0(sp)
    1ad8:	04010113          	addi	sp,sp,64
    1adc:	30200073          	mret

00001ae0 <handler_irq_fast_gpio_3>:
    1ae0:	fc010113          	addi	sp,sp,-64
    1ae4:	02112e23          	sw	ra,60(sp)
    1ae8:	02512c23          	sw	t0,56(sp)
    1aec:	02612a23          	sw	t1,52(sp)
    1af0:	02712823          	sw	t2,48(sp)
    1af4:	02a12623          	sw	a0,44(sp)
    1af8:	02b12423          	sw	a1,40(sp)
    1afc:	02c12223          	sw	a2,36(sp)
    1b00:	02d12023          	sw	a3,32(sp)
    1b04:	00e12e23          	sw	a4,28(sp)
    1b08:	00f12c23          	sw	a5,24(sp)
    1b0c:	01012a23          	sw	a6,20(sp)
    1b10:	01112823          	sw	a7,16(sp)
    1b14:	01c12623          	sw	t3,12(sp)
    1b18:	01d12423          	sw	t4,8(sp)
    1b1c:	01e12223          	sw	t5,4(sp)
    1b20:	01f12023          	sw	t6,0(sp)
    1b24:	200607b7          	lui	a5,0x20060
    1b28:	20000713          	li	a4,512
    1b2c:	00e7a223          	sw	a4,4(a5) # 20060004 <_sp+0x20037424>
    1b30:	97dfe0ef          	jal	4ac <fic_irq_gpio_3>
    1b34:	03c12083          	lw	ra,60(sp)
    1b38:	03812283          	lw	t0,56(sp)
    1b3c:	03412303          	lw	t1,52(sp)
    1b40:	03012383          	lw	t2,48(sp)
    1b44:	02c12503          	lw	a0,44(sp)
    1b48:	02812583          	lw	a1,40(sp)
    1b4c:	02412603          	lw	a2,36(sp)
    1b50:	02012683          	lw	a3,32(sp)
    1b54:	01c12703          	lw	a4,28(sp)
    1b58:	01812783          	lw	a5,24(sp)
    1b5c:	01412803          	lw	a6,20(sp)
    1b60:	01012883          	lw	a7,16(sp)
    1b64:	00c12e03          	lw	t3,12(sp)
    1b68:	00812e83          	lw	t4,8(sp)
    1b6c:	00412f03          	lw	t5,4(sp)
    1b70:	00012f83          	lw	t6,0(sp)
    1b74:	04010113          	addi	sp,sp,64
    1b78:	30200073          	mret

00001b7c <handler_irq_fast_gpio_4>:
    1b7c:	fc010113          	addi	sp,sp,-64
    1b80:	02112e23          	sw	ra,60(sp)
    1b84:	02512c23          	sw	t0,56(sp)
    1b88:	02612a23          	sw	t1,52(sp)
    1b8c:	02712823          	sw	t2,48(sp)
    1b90:	02a12623          	sw	a0,44(sp)
    1b94:	02b12423          	sw	a1,40(sp)
    1b98:	02c12223          	sw	a2,36(sp)
    1b9c:	02d12023          	sw	a3,32(sp)
    1ba0:	00e12e23          	sw	a4,28(sp)
    1ba4:	00f12c23          	sw	a5,24(sp)
    1ba8:	01012a23          	sw	a6,20(sp)
    1bac:	01112823          	sw	a7,16(sp)
    1bb0:	01c12623          	sw	t3,12(sp)
    1bb4:	01d12423          	sw	t4,8(sp)
    1bb8:	01e12223          	sw	t5,4(sp)
    1bbc:	01f12023          	sw	t6,0(sp)
    1bc0:	200607b7          	lui	a5,0x20060
    1bc4:	40000713          	li	a4,1024
    1bc8:	00e7a223          	sw	a4,4(a5) # 20060004 <_sp+0x20037424>
    1bcc:	905fe0ef          	jal	4d0 <fic_irq_gpio_4>
    1bd0:	03c12083          	lw	ra,60(sp)
    1bd4:	03812283          	lw	t0,56(sp)
    1bd8:	03412303          	lw	t1,52(sp)
    1bdc:	03012383          	lw	t2,48(sp)
    1be0:	02c12503          	lw	a0,44(sp)
    1be4:	02812583          	lw	a1,40(sp)
    1be8:	02412603          	lw	a2,36(sp)
    1bec:	02012683          	lw	a3,32(sp)
    1bf0:	01c12703          	lw	a4,28(sp)
    1bf4:	01812783          	lw	a5,24(sp)
    1bf8:	01412803          	lw	a6,20(sp)
    1bfc:	01012883          	lw	a7,16(sp)
    1c00:	00c12e03          	lw	t3,12(sp)
    1c04:	00812e83          	lw	t4,8(sp)
    1c08:	00412f03          	lw	t5,4(sp)
    1c0c:	00012f83          	lw	t6,0(sp)
    1c10:	04010113          	addi	sp,sp,64
    1c14:	30200073          	mret

00001c18 <handler_irq_fast_gpio_5>:
    1c18:	fc010113          	addi	sp,sp,-64
    1c1c:	02112e23          	sw	ra,60(sp)
    1c20:	02512c23          	sw	t0,56(sp)
    1c24:	02612a23          	sw	t1,52(sp)
    1c28:	02712823          	sw	t2,48(sp)
    1c2c:	02a12623          	sw	a0,44(sp)
    1c30:	02b12423          	sw	a1,40(sp)
    1c34:	02c12223          	sw	a2,36(sp)
    1c38:	02d12023          	sw	a3,32(sp)
    1c3c:	00e12e23          	sw	a4,28(sp)
    1c40:	00f12c23          	sw	a5,24(sp)
    1c44:	01012a23          	sw	a6,20(sp)
    1c48:	01112823          	sw	a7,16(sp)
    1c4c:	01c12623          	sw	t3,12(sp)
    1c50:	01d12423          	sw	t4,8(sp)
    1c54:	01e12223          	sw	t5,4(sp)
    1c58:	01f12023          	sw	t6,0(sp)
    1c5c:	20060737          	lui	a4,0x20060
    1c60:	000017b7          	lui	a5,0x1
    1c64:	80078793          	addi	a5,a5,-2048 # 800 <spi_event_handler+0x110>
    1c68:	00f72223          	sw	a5,4(a4) # 20060004 <_sp+0x20037424>
    1c6c:	889fe0ef          	jal	4f4 <fic_irq_gpio_5>
    1c70:	03c12083          	lw	ra,60(sp)
    1c74:	03812283          	lw	t0,56(sp)
    1c78:	03412303          	lw	t1,52(sp)
    1c7c:	03012383          	lw	t2,48(sp)
    1c80:	02c12503          	lw	a0,44(sp)
    1c84:	02812583          	lw	a1,40(sp)
    1c88:	02412603          	lw	a2,36(sp)
    1c8c:	02012683          	lw	a3,32(sp)
    1c90:	01c12703          	lw	a4,28(sp)
    1c94:	01812783          	lw	a5,24(sp)
    1c98:	01412803          	lw	a6,20(sp)
    1c9c:	01012883          	lw	a7,16(sp)
    1ca0:	00c12e03          	lw	t3,12(sp)
    1ca4:	00812e83          	lw	t4,8(sp)
    1ca8:	00412f03          	lw	t5,4(sp)
    1cac:	00012f83          	lw	t6,0(sp)
    1cb0:	04010113          	addi	sp,sp,64
    1cb4:	30200073          	mret

00001cb8 <handler_irq_fast_gpio_6>:
    1cb8:	fc010113          	addi	sp,sp,-64
    1cbc:	02112e23          	sw	ra,60(sp)
    1cc0:	02512c23          	sw	t0,56(sp)
    1cc4:	02612a23          	sw	t1,52(sp)
    1cc8:	02712823          	sw	t2,48(sp)
    1ccc:	02a12623          	sw	a0,44(sp)
    1cd0:	02b12423          	sw	a1,40(sp)
    1cd4:	02c12223          	sw	a2,36(sp)
    1cd8:	02d12023          	sw	a3,32(sp)
    1cdc:	00e12e23          	sw	a4,28(sp)
    1ce0:	00f12c23          	sw	a5,24(sp)
    1ce4:	01012a23          	sw	a6,20(sp)
    1ce8:	01112823          	sw	a7,16(sp)
    1cec:	01c12623          	sw	t3,12(sp)
    1cf0:	01d12423          	sw	t4,8(sp)
    1cf4:	01e12223          	sw	t5,4(sp)
    1cf8:	01f12023          	sw	t6,0(sp)
    1cfc:	200607b7          	lui	a5,0x20060
    1d00:	00001737          	lui	a4,0x1
    1d04:	00e7a223          	sw	a4,4(a5) # 20060004 <_sp+0x20037424>
    1d08:	811fe0ef          	jal	518 <fic_irq_gpio_6>
    1d0c:	03c12083          	lw	ra,60(sp)
    1d10:	03812283          	lw	t0,56(sp)
    1d14:	03412303          	lw	t1,52(sp)
    1d18:	03012383          	lw	t2,48(sp)
    1d1c:	02c12503          	lw	a0,44(sp)
    1d20:	02812583          	lw	a1,40(sp)
    1d24:	02412603          	lw	a2,36(sp)
    1d28:	02012683          	lw	a3,32(sp)
    1d2c:	01c12703          	lw	a4,28(sp)
    1d30:	01812783          	lw	a5,24(sp)
    1d34:	01412803          	lw	a6,20(sp)
    1d38:	01012883          	lw	a7,16(sp)
    1d3c:	00c12e03          	lw	t3,12(sp)
    1d40:	00812e83          	lw	t4,8(sp)
    1d44:	00412f03          	lw	t5,4(sp)
    1d48:	00012f83          	lw	t6,0(sp)
    1d4c:	04010113          	addi	sp,sp,64
    1d50:	30200073          	mret

00001d54 <handler_irq_fast_gpio_7>:
    1d54:	fc010113          	addi	sp,sp,-64
    1d58:	02112e23          	sw	ra,60(sp)
    1d5c:	02512c23          	sw	t0,56(sp)
    1d60:	02612a23          	sw	t1,52(sp)
    1d64:	02712823          	sw	t2,48(sp)
    1d68:	02a12623          	sw	a0,44(sp)
    1d6c:	02b12423          	sw	a1,40(sp)
    1d70:	02c12223          	sw	a2,36(sp)
    1d74:	02d12023          	sw	a3,32(sp)
    1d78:	00e12e23          	sw	a4,28(sp)
    1d7c:	00f12c23          	sw	a5,24(sp)
    1d80:	01012a23          	sw	a6,20(sp)
    1d84:	01112823          	sw	a7,16(sp)
    1d88:	01c12623          	sw	t3,12(sp)
    1d8c:	01d12423          	sw	t4,8(sp)
    1d90:	01e12223          	sw	t5,4(sp)
    1d94:	01f12023          	sw	t6,0(sp)
    1d98:	200607b7          	lui	a5,0x20060
    1d9c:	00002737          	lui	a4,0x2
    1da0:	00e7a223          	sw	a4,4(a5) # 20060004 <_sp+0x20037424>
    1da4:	f98fe0ef          	jal	53c <fic_irq_gpio_7>
    1da8:	03c12083          	lw	ra,60(sp)
    1dac:	03812283          	lw	t0,56(sp)
    1db0:	03412303          	lw	t1,52(sp)
    1db4:	03012383          	lw	t2,48(sp)
    1db8:	02c12503          	lw	a0,44(sp)
    1dbc:	02812583          	lw	a1,40(sp)
    1dc0:	02412603          	lw	a2,36(sp)
    1dc4:	02012683          	lw	a3,32(sp)
    1dc8:	01c12703          	lw	a4,28(sp)
    1dcc:	01812783          	lw	a5,24(sp)
    1dd0:	01412803          	lw	a6,20(sp)
    1dd4:	01012883          	lw	a7,16(sp)
    1dd8:	00c12e03          	lw	t3,12(sp)
    1ddc:	00812e83          	lw	t4,8(sp)
    1de0:	00412f03          	lw	t5,4(sp)
    1de4:	00012f83          	lw	t6,0(sp)
    1de8:	04010113          	addi	sp,sp,64
    1dec:	30200073          	mret

00001df0 <handler_irq_external>:
    1df0:	fb010113          	addi	sp,sp,-80
    1df4:	04112623          	sw	ra,76(sp)
    1df8:	04512423          	sw	t0,72(sp)
    1dfc:	04612223          	sw	t1,68(sp)
    1e00:	04712023          	sw	t2,64(sp)
    1e04:	02912e23          	sw	s1,60(sp)
    1e08:	02a12c23          	sw	a0,56(sp)
    1e0c:	02b12a23          	sw	a1,52(sp)
    1e10:	02c12823          	sw	a2,48(sp)
    1e14:	02d12623          	sw	a3,44(sp)
    1e18:	02e12423          	sw	a4,40(sp)
    1e1c:	02f12223          	sw	a5,36(sp)
    1e20:	03012023          	sw	a6,32(sp)
    1e24:	01112e23          	sw	a7,28(sp)
    1e28:	01212c23          	sw	s2,24(sp)
    1e2c:	01c12a23          	sw	t3,20(sp)
    1e30:	01d12823          	sw	t4,16(sp)
    1e34:	01e12623          	sw	t5,12(sp)
    1e38:	01f12423          	sw	t6,8(sp)
    1e3c:	300004b7          	lui	s1,0x30000
    1e40:	20c4a903          	lw	s2,524(s1) # 3000020c <_sp+0x2ffd762c>
    1e44:	00090513          	mv	a0,s2
    1e48:	00000793          	li	a5,0
    1e4c:	000780e7          	jalr	a5
    1e50:	2124a623          	sw	s2,524(s1)
    1e54:	04c12083          	lw	ra,76(sp)
    1e58:	04812283          	lw	t0,72(sp)
    1e5c:	04412303          	lw	t1,68(sp)
    1e60:	04012383          	lw	t2,64(sp)
    1e64:	03c12483          	lw	s1,60(sp)
    1e68:	03812503          	lw	a0,56(sp)
    1e6c:	03412583          	lw	a1,52(sp)
    1e70:	03012603          	lw	a2,48(sp)
    1e74:	02c12683          	lw	a3,44(sp)
    1e78:	02812703          	lw	a4,40(sp)
    1e7c:	02412783          	lw	a5,36(sp)
    1e80:	02012803          	lw	a6,32(sp)
    1e84:	01c12883          	lw	a7,28(sp)
    1e88:	01812903          	lw	s2,24(sp)
    1e8c:	01412e03          	lw	t3,20(sp)
    1e90:	01012e83          	lw	t4,16(sp)
    1e94:	00c12f03          	lw	t5,12(sp)
    1e98:	00812f83          	lw	t6,8(sp)
    1e9c:	05010113          	addi	sp,sp,80
    1ea0:	30200073          	mret

00001ea4 <handler_exception>:
    1ea4:	fc010113          	addi	sp,sp,-64
    1ea8:	02112e23          	sw	ra,60(sp)
    1eac:	02512c23          	sw	t0,56(sp)
    1eb0:	02612a23          	sw	t1,52(sp)
    1eb4:	02712823          	sw	t2,48(sp)
    1eb8:	02a12623          	sw	a0,44(sp)
    1ebc:	02b12423          	sw	a1,40(sp)
    1ec0:	02c12223          	sw	a2,36(sp)
    1ec4:	02d12023          	sw	a3,32(sp)
    1ec8:	00e12e23          	sw	a4,28(sp)
    1ecc:	00f12c23          	sw	a5,24(sp)
    1ed0:	01012a23          	sw	a6,20(sp)
    1ed4:	01112823          	sw	a7,16(sp)
    1ed8:	01c12623          	sw	t3,12(sp)
    1edc:	01d12423          	sw	t4,8(sp)
    1ee0:	01e12223          	sw	t5,4(sp)
    1ee4:	01f12023          	sw	t6,0(sp)
    1ee8:	342027f3          	csrr	a5,mcause
    1eec:	01f7f793          	andi	a5,a5,31
    1ef0:	00b00713          	li	a4,11
    1ef4:	06f76863          	bltu	a4,a5,1f64 <handler_exception+0xc0>
    1ef8:	00020737          	lui	a4,0x20
    1efc:	00070713          	mv	a4,a4
    1f00:	20e7c7b3          	sh2add	a5,a5,a4
    1f04:	0007a783          	lw	a5,0(a5)
    1f08:	00078067          	jr	a5
    1f0c:	00020537          	lui	a0,0x20
    1f10:	36c50513          	addi	a0,a0,876 # 2036c <__clz_tab+0x1a0>
    1f14:	be9fe0ef          	jal	afc <print_exc_msg>
    1f18:	00020537          	lui	a0,0x20
    1f1c:	36c50513          	addi	a0,a0,876 # 2036c <__clz_tab+0x1a0>
    1f20:	bddfe0ef          	jal	afc <print_exc_msg>
    1f24:	00020537          	lui	a0,0x20
    1f28:	3a450513          	addi	a0,a0,932 # 203a4 <__clz_tab+0x1d8>
    1f2c:	bd1fe0ef          	jal	afc <print_exc_msg>
    1f30:	00020537          	lui	a0,0x20
    1f34:	3e050513          	addi	a0,a0,992 # 203e0 <__clz_tab+0x214>
    1f38:	bc5fe0ef          	jal	afc <print_exc_msg>
    1f3c:	00020537          	lui	a0,0x20
    1f40:	41c50513          	addi	a0,a0,1052 # 2041c <__clz_tab+0x250>
    1f44:	bb9fe0ef          	jal	afc <print_exc_msg>
    1f48:	00020537          	lui	a0,0x20
    1f4c:	41c50513          	addi	a0,a0,1052 # 2041c <__clz_tab+0x250>
    1f50:	badfe0ef          	jal	afc <print_exc_msg>
    1f54:	00020537          	lui	a0,0x20
    1f58:	45050513          	addi	a0,a0,1104 # 20450 <__clz_tab+0x284>
    1f5c:	b6dfe0ef          	jal	ac8 <_writestr>
    1f60:	0000006f          	j	1f60 <handler_exception+0xbc>
    1f64:	0000006f          	j	1f64 <handler_exception+0xc0>

00001f68 <handler_irq_software>:
    1f68:	fc010113          	addi	sp,sp,-64
    1f6c:	02112e23          	sw	ra,60(sp)
    1f70:	02512c23          	sw	t0,56(sp)
    1f74:	02612a23          	sw	t1,52(sp)
    1f78:	02712823          	sw	t2,48(sp)
    1f7c:	02a12623          	sw	a0,44(sp)
    1f80:	02b12423          	sw	a1,40(sp)
    1f84:	02c12223          	sw	a2,36(sp)
    1f88:	02d12023          	sw	a3,32(sp)
    1f8c:	00e12e23          	sw	a4,28(sp)
    1f90:	00f12c23          	sw	a5,24(sp)
    1f94:	01012a23          	sw	a6,20(sp)
    1f98:	01112823          	sw	a7,16(sp)
    1f9c:	01c12623          	sw	t3,12(sp)
    1fa0:	01d12423          	sw	t4,8(sp)
    1fa4:	01e12223          	sw	t5,4(sp)
    1fa8:	01f12023          	sw	t6,0(sp)
    1fac:	00020537          	lui	a0,0x20
    1fb0:	47050513          	addi	a0,a0,1136 # 20470 <__clz_tab+0x2a4>
    1fb4:	b15fe0ef          	jal	ac8 <_writestr>
    1fb8:	0000006f          	j	1fb8 <handler_irq_software+0x50>

00001fbc <handler_irq_timer>:
    1fbc:	fc010113          	addi	sp,sp,-64
    1fc0:	02112e23          	sw	ra,60(sp)
    1fc4:	02512c23          	sw	t0,56(sp)
    1fc8:	02612a23          	sw	t1,52(sp)
    1fcc:	02712823          	sw	t2,48(sp)
    1fd0:	02a12623          	sw	a0,44(sp)
    1fd4:	02b12423          	sw	a1,40(sp)
    1fd8:	02c12223          	sw	a2,36(sp)
    1fdc:	02d12023          	sw	a3,32(sp)
    1fe0:	00e12e23          	sw	a4,28(sp)
    1fe4:	00f12c23          	sw	a5,24(sp)
    1fe8:	01012a23          	sw	a6,20(sp)
    1fec:	01112823          	sw	a7,16(sp)
    1ff0:	01c12623          	sw	t3,12(sp)
    1ff4:	01d12423          	sw	t4,8(sp)
    1ff8:	01e12223          	sw	t5,4(sp)
    1ffc:	01f12023          	sw	t6,0(sp)
    2000:	00020537          	lui	a0,0x20
    2004:	48c50513          	addi	a0,a0,1164 # 2048c <__clz_tab+0x2c0>
    2008:	ac1fe0ef          	jal	ac8 <_writestr>
    200c:	0000006f          	j	200c <handler_irq_timer+0x50>

00002010 <init>:
    2010:	00000513          	li	a0,0
    2014:	00008067          	ret

00002018 <_close>:
    2018:	fff00513          	li	a0,-1
    201c:	00008067          	ret

00002020 <_exit>:
    2020:	200007b7          	lui	a5,0x20000
    2024:	00a7a223          	sw	a0,4(a5) # 20000004 <_sp+0x1ffd7424>
    2028:	00100713          	li	a4,1
    202c:	00e78023          	sb	a4,0(a5)
    2030:	10500073          	wfi

00002034 <_fstat>:
    2034:	000027b7          	lui	a5,0x2
    2038:	00f5a223          	sw	a5,4(a1)
    203c:	00000513          	li	a0,0
    2040:	00008067          	ret

00002044 <_isatty>:
    2044:	fff50513          	addi	a0,a0,-1
    2048:	00153513          	seqz	a0,a0
    204c:	00008067          	ret

00002050 <_lseek>:
    2050:	00000513          	li	a0,0
    2054:	00008067          	ret

00002058 <_read>:
    2058:	00000513          	li	a0,0
    205c:	00008067          	ret

00002060 <_write_r>:
    2060:	ff010113          	addi	sp,sp,-16
    2064:	00112623          	sw	ra,12(sp)
    2068:	00058513          	mv	a0,a1
    206c:	00060593          	mv	a1,a2
    2070:	00068613          	mv	a2,a3
    2074:	d7cfe0ef          	jal	5f0 <_write>
    2078:	00c12083          	lw	ra,12(sp)
    207c:	01010113          	addi	sp,sp,16
    2080:	00008067          	ret

00002084 <_sbrk>:
    2084:	00050713          	mv	a4,a0
    2088:	bb418693          	addi	a3,gp,-1100 # 20bdc <__BSS_END__>
    208c:	000257b7          	lui	a5,0x25
    2090:	bdc78793          	addi	a5,a5,-1060 # 24bdc <__heap_end>
    2094:	02f68c63          	beq	a3,a5,20cc <_sbrk+0x48>
    2098:	9581a503          	lw	a0,-1704(gp) # 20980 <brk>
    209c:	00e50733          	add	a4,a0,a4
    20a0:	00d737b3          	sltu	a5,a4,a3
    20a4:	0017b793          	seqz	a5,a5
    20a8:	000256b7          	lui	a3,0x25
    20ac:	bdc68693          	addi	a3,a3,-1060 # 24bdc <__heap_end>
    20b0:	00d736b3          	sltu	a3,a4,a3
    20b4:	00d7f7b3          	and	a5,a5,a3
    20b8:	00079663          	bnez	a5,20c4 <_sbrk+0x40>
    20bc:	fff00513          	li	a0,-1
    20c0:	00008067          	ret
    20c4:	94e1ac23          	sw	a4,-1704(gp) # 20980 <brk>
    20c8:	00008067          	ret
    20cc:	00000513          	li	a0,0
    20d0:	00008067          	ret

000020d4 <spi_intr_handler_event_flash>:
    20d4:	000217b7          	lui	a5,0x21
    20d8:	8387a703          	lw	a4,-1992(a5) # 20838 <peripherals+0x10>
    20dc:	00200793          	li	a5,2
    20e0:	00f70463          	beq	a4,a5,20e8 <spi_intr_handler_event_flash+0x14>
    20e4:	00008067          	ret
    20e8:	ff010113          	addi	sp,sp,-16
    20ec:	00112623          	sw	ra,12(sp)
    20f0:	00050593          	mv	a1,a0
    20f4:	00021537          	lui	a0,0x21
    20f8:	82850513          	addi	a0,a0,-2008 # 20828 <peripherals>
    20fc:	df4fe0ef          	jal	6f0 <spi_event_handler>
    2100:	00c12083          	lw	ra,12(sp)
    2104:	01010113          	addi	sp,sp,16
    2108:	00008067          	ret

0000210c <spi_intr_handler_error_flash>:
    210c:	000217b7          	lui	a5,0x21
    2110:	8387a703          	lw	a4,-1992(a5) # 20838 <peripherals+0x10>
    2114:	00200793          	li	a5,2
    2118:	00f70463          	beq	a4,a5,2120 <spi_intr_handler_error_flash+0x14>
    211c:	00008067          	ret
    2120:	ff010113          	addi	sp,sp,-16
    2124:	00112623          	sw	ra,12(sp)
    2128:	00050593          	mv	a1,a0
    212c:	00021537          	lui	a0,0x21
    2130:	82850513          	addi	a0,a0,-2008 # 20828 <peripherals>
    2134:	fe4fe0ef          	jal	918 <spi_error_handler>
    2138:	00c12083          	lw	ra,12(sp)
    213c:	01010113          	addi	sp,sp,16
    2140:	00008067          	ret

00002144 <fic_irq_spi_flash>:
    2144:	fe010113          	addi	sp,sp,-32
    2148:	00112e23          	sw	ra,28(sp)
    214c:	200207b7          	lui	a5,0x20020
    2150:	0347a503          	lw	a0,52(a5) # 20020034 <_sp+0x1fff7454>
    2154:	03f57513          	andi	a0,a0,63
    2158:	00050a63          	beqz	a0,216c <fic_irq_spi_flash+0x28>
    215c:	fb1ff0ef          	jal	210c <spi_intr_handler_error_flash>
    2160:	01c12083          	lw	ra,28(sp)
    2164:	02010113          	addi	sp,sp,32
    2168:	00008067          	ret
    216c:	20020737          	lui	a4,0x20020
    2170:	00072783          	lw	a5,0(a4) # 20020000 <_sp+0x1fff7420>
    2174:	0027e793          	ori	a5,a5,2
    2178:	00f72023          	sw	a5,0(a4)
    217c:	00c10593          	addi	a1,sp,12
    2180:	00070513          	mv	a0,a4
    2184:	bdcfe0ef          	jal	560 <spi_get_events>
    2188:	00c12503          	lw	a0,12(sp)
    218c:	f49ff0ef          	jal	20d4 <spi_intr_handler_event_flash>
    2190:	fd1ff06f          	j	2160 <fic_irq_spi_flash+0x1c>

00002194 <handler_irq_fast_spi_flash>:
    2194:	fc010113          	addi	sp,sp,-64
    2198:	02112e23          	sw	ra,60(sp)
    219c:	02512c23          	sw	t0,56(sp)
    21a0:	02612a23          	sw	t1,52(sp)
    21a4:	02712823          	sw	t2,48(sp)
    21a8:	02a12623          	sw	a0,44(sp)
    21ac:	02b12423          	sw	a1,40(sp)
    21b0:	02c12223          	sw	a2,36(sp)
    21b4:	02d12023          	sw	a3,32(sp)
    21b8:	00e12e23          	sw	a4,28(sp)
    21bc:	00f12c23          	sw	a5,24(sp)
    21c0:	01012a23          	sw	a6,20(sp)
    21c4:	01112823          	sw	a7,16(sp)
    21c8:	01c12623          	sw	t3,12(sp)
    21cc:	01d12423          	sw	t4,8(sp)
    21d0:	01e12223          	sw	t5,4(sp)
    21d4:	01f12023          	sw	t6,0(sp)
    21d8:	200607b7          	lui	a5,0x20060
    21dc:	02000713          	li	a4,32
    21e0:	00e7a223          	sw	a4,4(a5) # 20060004 <_sp+0x20037424>
    21e4:	f61ff0ef          	jal	2144 <fic_irq_spi_flash>
    21e8:	03c12083          	lw	ra,60(sp)
    21ec:	03812283          	lw	t0,56(sp)
    21f0:	03412303          	lw	t1,52(sp)
    21f4:	03012383          	lw	t2,48(sp)
    21f8:	02c12503          	lw	a0,44(sp)
    21fc:	02812583          	lw	a1,40(sp)
    2200:	02412603          	lw	a2,36(sp)
    2204:	02012683          	lw	a3,32(sp)
    2208:	01c12703          	lw	a4,28(sp)
    220c:	01812783          	lw	a5,24(sp)
    2210:	01412803          	lw	a6,20(sp)
    2214:	01012883          	lw	a7,16(sp)
    2218:	00c12e03          	lw	t3,12(sp)
    221c:	00812e83          	lw	t4,8(sp)
    2220:	00412f03          	lw	t5,4(sp)
    2224:	00012f83          	lw	t6,0(sp)
    2228:	04010113          	addi	sp,sp,64
    222c:	30200073          	mret

00002230 <spi_intr_handler_event_host>:
    2230:	000217b7          	lui	a5,0x21
    2234:	8807a703          	lw	a4,-1920(a5) # 20880 <peripherals+0x58>
    2238:	00200793          	li	a5,2
    223c:	00f70463          	beq	a4,a5,2244 <spi_intr_handler_event_host+0x14>
    2240:	00008067          	ret
    2244:	ff010113          	addi	sp,sp,-16
    2248:	00112623          	sw	ra,12(sp)
    224c:	00050593          	mv	a1,a0
    2250:	00021537          	lui	a0,0x21
    2254:	87050513          	addi	a0,a0,-1936 # 20870 <peripherals+0x48>
    2258:	c98fe0ef          	jal	6f0 <spi_event_handler>
    225c:	00c12083          	lw	ra,12(sp)
    2260:	01010113          	addi	sp,sp,16
    2264:	00008067          	ret

00002268 <spi_intr_handler_error_host>:
    2268:	000217b7          	lui	a5,0x21
    226c:	8807a703          	lw	a4,-1920(a5) # 20880 <peripherals+0x58>
    2270:	00200793          	li	a5,2
    2274:	00f70463          	beq	a4,a5,227c <spi_intr_handler_error_host+0x14>
    2278:	00008067          	ret
    227c:	ff010113          	addi	sp,sp,-16
    2280:	00112623          	sw	ra,12(sp)
    2284:	00050593          	mv	a1,a0
    2288:	00021537          	lui	a0,0x21
    228c:	87050513          	addi	a0,a0,-1936 # 20870 <peripherals+0x48>
    2290:	e88fe0ef          	jal	918 <spi_error_handler>
    2294:	00c12083          	lw	ra,12(sp)
    2298:	01010113          	addi	sp,sp,16
    229c:	00008067          	ret

000022a0 <fic_irq_spi>:
    22a0:	fe010113          	addi	sp,sp,-32
    22a4:	00112e23          	sw	ra,28(sp)
    22a8:	300107b7          	lui	a5,0x30010
    22ac:	0347a503          	lw	a0,52(a5) # 30010034 <_sp+0x2ffe7454>
    22b0:	03f57513          	andi	a0,a0,63
    22b4:	00050a63          	beqz	a0,22c8 <fic_irq_spi+0x28>
    22b8:	fb1ff0ef          	jal	2268 <spi_intr_handler_error_host>
    22bc:	01c12083          	lw	ra,28(sp)
    22c0:	02010113          	addi	sp,sp,32
    22c4:	00008067          	ret
    22c8:	30010737          	lui	a4,0x30010
    22cc:	00072783          	lw	a5,0(a4) # 30010000 <_sp+0x2ffe7420>
    22d0:	0027e793          	ori	a5,a5,2
    22d4:	00f72023          	sw	a5,0(a4)
    22d8:	00c10593          	addi	a1,sp,12
    22dc:	00070513          	mv	a0,a4
    22e0:	a80fe0ef          	jal	560 <spi_get_events>
    22e4:	00c12503          	lw	a0,12(sp)
    22e8:	f49ff0ef          	jal	2230 <spi_intr_handler_event_host>
    22ec:	fd1ff06f          	j	22bc <fic_irq_spi+0x1c>

000022f0 <handler_irq_fast_spi>:
    22f0:	fc010113          	addi	sp,sp,-64
    22f4:	02112e23          	sw	ra,60(sp)
    22f8:	02512c23          	sw	t0,56(sp)
    22fc:	02612a23          	sw	t1,52(sp)
    2300:	02712823          	sw	t2,48(sp)
    2304:	02a12623          	sw	a0,44(sp)
    2308:	02b12423          	sw	a1,40(sp)
    230c:	02c12223          	sw	a2,36(sp)
    2310:	02d12023          	sw	a3,32(sp)
    2314:	00e12e23          	sw	a4,28(sp)
    2318:	00f12c23          	sw	a5,24(sp)
    231c:	01012a23          	sw	a6,20(sp)
    2320:	01112823          	sw	a7,16(sp)
    2324:	01c12623          	sw	t3,12(sp)
    2328:	01d12423          	sw	t4,8(sp)
    232c:	01e12223          	sw	t5,4(sp)
    2330:	01f12023          	sw	t6,0(sp)
    2334:	200607b7          	lui	a5,0x20060
    2338:	01000713          	li	a4,16
    233c:	00e7a223          	sw	a4,4(a5) # 20060004 <_sp+0x20037424>
    2340:	f61ff0ef          	jal	22a0 <fic_irq_spi>
    2344:	03c12083          	lw	ra,60(sp)
    2348:	03812283          	lw	t0,56(sp)
    234c:	03412303          	lw	t1,52(sp)
    2350:	03012383          	lw	t2,48(sp)
    2354:	02c12503          	lw	a0,44(sp)
    2358:	02812583          	lw	a1,40(sp)
    235c:	02412603          	lw	a2,36(sp)
    2360:	02012683          	lw	a3,32(sp)
    2364:	01c12703          	lw	a4,28(sp)
    2368:	01812783          	lw	a5,24(sp)
    236c:	01412803          	lw	a6,20(sp)
    2370:	01012883          	lw	a7,16(sp)
    2374:	00c12e03          	lw	t3,12(sp)
    2378:	00812e83          	lw	t4,8(sp)
    237c:	00412f03          	lw	t5,4(sp)
    2380:	00012f83          	lw	t6,0(sp)
    2384:	04010113          	addi	sp,sp,64
    2388:	30200073          	mret

0000238c <atexit>:
    238c:	00050593          	mv	a1,a0
    2390:	00000693          	li	a3,0
    2394:	00000613          	li	a2,0
    2398:	00000513          	li	a0,0
    239c:	5400006f          	j	28dc <__register_exitproc>

000023a0 <std>:
    23a0:	ff010113          	addi	sp,sp,-16
    23a4:	00812423          	sw	s0,8(sp)
    23a8:	00112623          	sw	ra,12(sp)
    23ac:	00050413          	mv	s0,a0
    23b0:	00b51623          	sh	a1,12(a0)
    23b4:	00c51723          	sh	a2,14(a0)
    23b8:	00052023          	sw	zero,0(a0)
    23bc:	00052223          	sw	zero,4(a0)
    23c0:	00052423          	sw	zero,8(a0)
    23c4:	06052223          	sw	zero,100(a0)
    23c8:	00052823          	sw	zero,16(a0)
    23cc:	00052a23          	sw	zero,20(a0)
    23d0:	00052c23          	sw	zero,24(a0)
    23d4:	00800613          	li	a2,8
    23d8:	00000593          	li	a1,0
    23dc:	05c50513          	addi	a0,a0,92
    23e0:	4e0000ef          	jal	28c0 <memset>
    23e4:	000027b7          	lui	a5,0x2
    23e8:	5b878793          	addi	a5,a5,1464 # 25b8 <__sread>
    23ec:	02f42223          	sw	a5,36(s0)
    23f0:	000027b7          	lui	a5,0x2
    23f4:	60878793          	addi	a5,a5,1544 # 2608 <__swrite>
    23f8:	02f42423          	sw	a5,40(s0)
    23fc:	000027b7          	lui	a5,0x2
    2400:	68c78793          	addi	a5,a5,1676 # 268c <__sseek>
    2404:	02f42623          	sw	a5,44(s0)
    2408:	000027b7          	lui	a5,0x2
    240c:	6e478793          	addi	a5,a5,1764 # 26e4 <__sclose>
    2410:	00c12083          	lw	ra,12(sp)
    2414:	02842023          	sw	s0,32(s0)
    2418:	02f42823          	sw	a5,48(s0)
    241c:	00812403          	lw	s0,8(sp)
    2420:	01010113          	addi	sp,sp,16
    2424:	00008067          	ret

00002428 <stdio_exit_handler>:
    2428:	000035b7          	lui	a1,0x3
    242c:	8d818613          	addi	a2,gp,-1832 # 20900 <__sglue>
    2430:	fc858593          	addi	a1,a1,-56 # 2fc8 <_fflush_r>
    2434:	8e418513          	addi	a0,gp,-1820 # 2090c <_impure_data>
    2438:	0d80006f          	j	2510 <_fwalk_sglue>

0000243c <cleanup_stdio>:
    243c:	00452583          	lw	a1,4(a0)
    2440:	ff010113          	addi	sp,sp,-16
    2444:	00812423          	sw	s0,8(sp)
    2448:	00112623          	sw	ra,12(sp)
    244c:	9b418793          	addi	a5,gp,-1612 # 209dc <__sf>
    2450:	00050413          	mv	s0,a0
    2454:	00f58463          	beq	a1,a5,245c <cleanup_stdio+0x20>
    2458:	371000ef          	jal	2fc8 <_fflush_r>
    245c:	00842583          	lw	a1,8(s0)
    2460:	a1c18793          	addi	a5,gp,-1508 # 20a44 <__sf+0x68>
    2464:	00f58663          	beq	a1,a5,2470 <cleanup_stdio+0x34>
    2468:	00040513          	mv	a0,s0
    246c:	35d000ef          	jal	2fc8 <_fflush_r>
    2470:	00c42583          	lw	a1,12(s0)
    2474:	a8418793          	addi	a5,gp,-1404 # 20aac <__sf+0xd0>
    2478:	00f58c63          	beq	a1,a5,2490 <cleanup_stdio+0x54>
    247c:	00040513          	mv	a0,s0
    2480:	00812403          	lw	s0,8(sp)
    2484:	00c12083          	lw	ra,12(sp)
    2488:	01010113          	addi	sp,sp,16
    248c:	33d0006f          	j	2fc8 <_fflush_r>
    2490:	00c12083          	lw	ra,12(sp)
    2494:	00812403          	lw	s0,8(sp)
    2498:	01010113          	addi	sp,sp,16
    249c:	00008067          	ret

000024a0 <global_stdio_init.part.0>:
    24a0:	000027b7          	lui	a5,0x2
    24a4:	ff010113          	addi	sp,sp,-16
    24a8:	42878793          	addi	a5,a5,1064 # 2428 <stdio_exit_handler>
    24ac:	00000613          	li	a2,0
    24b0:	00400593          	li	a1,4
    24b4:	9b418513          	addi	a0,gp,-1612 # 209dc <__sf>
    24b8:	00112623          	sw	ra,12(sp)
    24bc:	96f1a023          	sw	a5,-1696(gp) # 20988 <__stdio_exit_handler>
    24c0:	ee1ff0ef          	jal	23a0 <std>
    24c4:	00100613          	li	a2,1
    24c8:	00900593          	li	a1,9
    24cc:	a1c18513          	addi	a0,gp,-1508 # 20a44 <__sf+0x68>
    24d0:	ed1ff0ef          	jal	23a0 <std>
    24d4:	00c12083          	lw	ra,12(sp)
    24d8:	00200613          	li	a2,2
    24dc:	01200593          	li	a1,18
    24e0:	a8418513          	addi	a0,gp,-1404 # 20aac <__sf+0xd0>
    24e4:	01010113          	addi	sp,sp,16
    24e8:	eb9ff06f          	j	23a0 <std>

000024ec <__sinit>:
    24ec:	02052783          	lw	a5,32(a0)
    24f0:	00079e63          	bnez	a5,250c <__sinit+0x20>
    24f4:	000027b7          	lui	a5,0x2
    24f8:	43c78793          	addi	a5,a5,1084 # 243c <cleanup_stdio>
    24fc:	02f52023          	sw	a5,32(a0)
    2500:	9601a783          	lw	a5,-1696(gp) # 20988 <__stdio_exit_handler>
    2504:	00079463          	bnez	a5,250c <__sinit+0x20>
    2508:	f99ff06f          	j	24a0 <global_stdio_init.part.0>
    250c:	00008067          	ret

00002510 <_fwalk_sglue>:
    2510:	fd010113          	addi	sp,sp,-48
    2514:	02812423          	sw	s0,40(sp)
    2518:	03212023          	sw	s2,32(sp)
    251c:	01312e23          	sw	s3,28(sp)
    2520:	01412c23          	sw	s4,24(sp)
    2524:	01512a23          	sw	s5,20(sp)
    2528:	02112623          	sw	ra,44(sp)
    252c:	02912223          	sw	s1,36(sp)
    2530:	00050a13          	mv	s4,a0
    2534:	00058a93          	mv	s5,a1
    2538:	00000413          	li	s0,0
    253c:	00100913          	li	s2,1
    2540:	fff00993          	li	s3,-1
    2544:	00862583          	lw	a1,8(a2)
    2548:	00462483          	lw	s1,4(a2)
    254c:	fff48493          	addi	s1,s1,-1
    2550:	0204da63          	bgez	s1,2584 <_fwalk_sglue+0x74>
    2554:	00062603          	lw	a2,0(a2)
    2558:	fe0616e3          	bnez	a2,2544 <_fwalk_sglue+0x34>
    255c:	02c12083          	lw	ra,44(sp)
    2560:	00040513          	mv	a0,s0
    2564:	02812403          	lw	s0,40(sp)
    2568:	02412483          	lw	s1,36(sp)
    256c:	02012903          	lw	s2,32(sp)
    2570:	01c12983          	lw	s3,28(sp)
    2574:	01812a03          	lw	s4,24(sp)
    2578:	01412a83          	lw	s5,20(sp)
    257c:	03010113          	addi	sp,sp,48
    2580:	00008067          	ret
    2584:	00c5d783          	lhu	a5,12(a1)
    2588:	02f97463          	bgeu	s2,a5,25b0 <_fwalk_sglue+0xa0>
    258c:	00e59783          	lh	a5,14(a1)
    2590:	03378063          	beq	a5,s3,25b0 <_fwalk_sglue+0xa0>
    2594:	000a0513          	mv	a0,s4
    2598:	00c12623          	sw	a2,12(sp)
    259c:	00b12423          	sw	a1,8(sp)
    25a0:	000a80e7          	jalr	s5
    25a4:	00c12603          	lw	a2,12(sp)
    25a8:	00812583          	lw	a1,8(sp)
    25ac:	00a46433          	or	s0,s0,a0
    25b0:	06858593          	addi	a1,a1,104
    25b4:	f99ff06f          	j	254c <_fwalk_sglue+0x3c>

000025b8 <__sread>:
    25b8:	ff010113          	addi	sp,sp,-16
    25bc:	00812423          	sw	s0,8(sp)
    25c0:	00058413          	mv	s0,a1
    25c4:	00e59583          	lh	a1,14(a1)
    25c8:	00112623          	sw	ra,12(sp)
    25cc:	1b8000ef          	jal	2784 <_read_r>
    25d0:	02054063          	bltz	a0,25f0 <__sread+0x38>
    25d4:	05442783          	lw	a5,84(s0)
    25d8:	00a787b3          	add	a5,a5,a0
    25dc:	04f42a23          	sw	a5,84(s0)
    25e0:	00c12083          	lw	ra,12(sp)
    25e4:	00812403          	lw	s0,8(sp)
    25e8:	01010113          	addi	sp,sp,16
    25ec:	00008067          	ret
    25f0:	00c45783          	lhu	a5,12(s0)
    25f4:	fffff737          	lui	a4,0xfffff
    25f8:	fff70713          	addi	a4,a4,-1 # ffffefff <_sp+0xfffd641f>
    25fc:	00e7f7b3          	and	a5,a5,a4
    2600:	00f41623          	sh	a5,12(s0)
    2604:	fddff06f          	j	25e0 <__sread+0x28>

00002608 <__swrite>:
    2608:	00c5d783          	lhu	a5,12(a1)
    260c:	fe010113          	addi	sp,sp,-32
    2610:	00812c23          	sw	s0,24(sp)
    2614:	00912a23          	sw	s1,20(sp)
    2618:	01212823          	sw	s2,16(sp)
    261c:	01312623          	sw	s3,12(sp)
    2620:	00112e23          	sw	ra,28(sp)
    2624:	1007f793          	andi	a5,a5,256
    2628:	00050493          	mv	s1,a0
    262c:	00058413          	mv	s0,a1
    2630:	00060913          	mv	s2,a2
    2634:	00068993          	mv	s3,a3
    2638:	00078a63          	beqz	a5,264c <__swrite+0x44>
    263c:	00e59583          	lh	a1,14(a1)
    2640:	00200693          	li	a3,2
    2644:	00000613          	li	a2,0
    2648:	0ec000ef          	jal	2734 <_lseek_r>
    264c:	00c45783          	lhu	a5,12(s0)
    2650:	fffff737          	lui	a4,0xfffff
    2654:	fff70713          	addi	a4,a4,-1 # ffffefff <_sp+0xfffd641f>
    2658:	00e7f7b3          	and	a5,a5,a4
    265c:	00e41583          	lh	a1,14(s0)
    2660:	00f41623          	sh	a5,12(s0)
    2664:	01812403          	lw	s0,24(sp)
    2668:	01c12083          	lw	ra,28(sp)
    266c:	00098693          	mv	a3,s3
    2670:	00090613          	mv	a2,s2
    2674:	00c12983          	lw	s3,12(sp)
    2678:	01012903          	lw	s2,16(sp)
    267c:	00048513          	mv	a0,s1
    2680:	01412483          	lw	s1,20(sp)
    2684:	02010113          	addi	sp,sp,32
    2688:	9d9ff06f          	j	2060 <_write_r>

0000268c <__sseek>:
    268c:	ff010113          	addi	sp,sp,-16
    2690:	00812423          	sw	s0,8(sp)
    2694:	00058413          	mv	s0,a1
    2698:	00e59583          	lh	a1,14(a1)
    269c:	00112623          	sw	ra,12(sp)
    26a0:	094000ef          	jal	2734 <_lseek_r>
    26a4:	fff00713          	li	a4,-1
    26a8:	00c41783          	lh	a5,12(s0)
    26ac:	02e51263          	bne	a0,a4,26d0 <__sseek+0x44>
    26b0:	fffff737          	lui	a4,0xfffff
    26b4:	00a70733          	add	a4,a4,a0
    26b8:	00e7f7b3          	and	a5,a5,a4
    26bc:	00f41623          	sh	a5,12(s0)
    26c0:	00c12083          	lw	ra,12(sp)
    26c4:	00812403          	lw	s0,8(sp)
    26c8:	01010113          	addi	sp,sp,16
    26cc:	00008067          	ret
    26d0:	00001737          	lui	a4,0x1
    26d4:	00e7e7b3          	or	a5,a5,a4
    26d8:	00f41623          	sh	a5,12(s0)
    26dc:	04a42a23          	sw	a0,84(s0)
    26e0:	fe1ff06f          	j	26c0 <__sseek+0x34>

000026e4 <__sclose>:
    26e4:	00e59583          	lh	a1,14(a1)
    26e8:	0040006f          	j	26ec <_close_r>

000026ec <_close_r>:
    26ec:	ff010113          	addi	sp,sp,-16
    26f0:	00812423          	sw	s0,8(sp)
    26f4:	00912223          	sw	s1,4(sp)
    26f8:	00050493          	mv	s1,a0
    26fc:	00058513          	mv	a0,a1
    2700:	00112623          	sw	ra,12(sp)
    2704:	9601a223          	sw	zero,-1692(gp) # 2098c <errno>
    2708:	911ff0ef          	jal	2018 <_close>
    270c:	fff00793          	li	a5,-1
    2710:	00f51863          	bne	a0,a5,2720 <_close_r+0x34>
    2714:	9641a783          	lw	a5,-1692(gp) # 2098c <errno>
    2718:	00078463          	beqz	a5,2720 <_close_r+0x34>
    271c:	00f4a023          	sw	a5,0(s1)
    2720:	00c12083          	lw	ra,12(sp)
    2724:	00812403          	lw	s0,8(sp)
    2728:	00412483          	lw	s1,4(sp)
    272c:	01010113          	addi	sp,sp,16
    2730:	00008067          	ret

00002734 <_lseek_r>:
    2734:	ff010113          	addi	sp,sp,-16
    2738:	00812423          	sw	s0,8(sp)
    273c:	00912223          	sw	s1,4(sp)
    2740:	00050493          	mv	s1,a0
    2744:	00058513          	mv	a0,a1
    2748:	00060593          	mv	a1,a2
    274c:	00068613          	mv	a2,a3
    2750:	00112623          	sw	ra,12(sp)
    2754:	9601a223          	sw	zero,-1692(gp) # 2098c <errno>
    2758:	8f9ff0ef          	jal	2050 <_lseek>
    275c:	fff00793          	li	a5,-1
    2760:	00f51863          	bne	a0,a5,2770 <_lseek_r+0x3c>
    2764:	9641a783          	lw	a5,-1692(gp) # 2098c <errno>
    2768:	00078463          	beqz	a5,2770 <_lseek_r+0x3c>
    276c:	00f4a023          	sw	a5,0(s1)
    2770:	00c12083          	lw	ra,12(sp)
    2774:	00812403          	lw	s0,8(sp)
    2778:	00412483          	lw	s1,4(sp)
    277c:	01010113          	addi	sp,sp,16
    2780:	00008067          	ret

00002784 <_read_r>:
    2784:	ff010113          	addi	sp,sp,-16
    2788:	00812423          	sw	s0,8(sp)
    278c:	00912223          	sw	s1,4(sp)
    2790:	00050493          	mv	s1,a0
    2794:	00058513          	mv	a0,a1
    2798:	00060593          	mv	a1,a2
    279c:	00068613          	mv	a2,a3
    27a0:	00112623          	sw	ra,12(sp)
    27a4:	9601a223          	sw	zero,-1692(gp) # 2098c <errno>
    27a8:	8b1ff0ef          	jal	2058 <_read>
    27ac:	fff00793          	li	a5,-1
    27b0:	00f51863          	bne	a0,a5,27c0 <_read_r+0x3c>
    27b4:	9641a783          	lw	a5,-1692(gp) # 2098c <errno>
    27b8:	00078463          	beqz	a5,27c0 <_read_r+0x3c>
    27bc:	00f4a023          	sw	a5,0(s1)
    27c0:	00c12083          	lw	ra,12(sp)
    27c4:	00812403          	lw	s0,8(sp)
    27c8:	00412483          	lw	s1,4(sp)
    27cc:	01010113          	addi	sp,sp,16
    27d0:	00008067          	ret

000027d4 <__libc_init_array>:
    27d4:	ff010113          	addi	sp,sp,-16
    27d8:	00812423          	sw	s0,8(sp)
    27dc:	00912223          	sw	s1,4(sp)
    27e0:	00021437          	lui	s0,0x21
    27e4:	000214b7          	lui	s1,0x21
    27e8:	82840413          	addi	s0,s0,-2008 # 20828 <peripherals>
    27ec:	82848493          	addi	s1,s1,-2008 # 20828 <peripherals>
    27f0:	408484b3          	sub	s1,s1,s0
    27f4:	01212023          	sw	s2,0(sp)
    27f8:	00112623          	sw	ra,12(sp)
    27fc:	4024d493          	srai	s1,s1,0x2
    2800:	00000913          	li	s2,0
    2804:	02991e63          	bne	s2,s1,2840 <__libc_init_array+0x6c>
    2808:	00021437          	lui	s0,0x21
    280c:	000214b7          	lui	s1,0x21
    2810:	82840413          	addi	s0,s0,-2008 # 20828 <peripherals>
    2814:	82848493          	addi	s1,s1,-2008 # 20828 <peripherals>
    2818:	408484b3          	sub	s1,s1,s0
    281c:	4024d493          	srai	s1,s1,0x2
    2820:	00000913          	li	s2,0
    2824:	02991863          	bne	s2,s1,2854 <__libc_init_array+0x80>
    2828:	00c12083          	lw	ra,12(sp)
    282c:	00812403          	lw	s0,8(sp)
    2830:	00412483          	lw	s1,4(sp)
    2834:	00012903          	lw	s2,0(sp)
    2838:	01010113          	addi	sp,sp,16
    283c:	00008067          	ret
    2840:	00042783          	lw	a5,0(s0)
    2844:	00190913          	addi	s2,s2,1
    2848:	00440413          	addi	s0,s0,4
    284c:	000780e7          	jalr	a5
    2850:	fb5ff06f          	j	2804 <__libc_init_array+0x30>
    2854:	00042783          	lw	a5,0(s0)
    2858:	00190913          	addi	s2,s2,1
    285c:	00440413          	addi	s0,s0,4
    2860:	000780e7          	jalr	a5
    2864:	fc1ff06f          	j	2824 <__libc_init_array+0x50>

00002868 <__libc_fini_array>:
    2868:	ff010113          	addi	sp,sp,-16
    286c:	00812423          	sw	s0,8(sp)
    2870:	00912223          	sw	s1,4(sp)
    2874:	00021437          	lui	s0,0x21
    2878:	000214b7          	lui	s1,0x21
    287c:	82848493          	addi	s1,s1,-2008 # 20828 <peripherals>
    2880:	82840413          	addi	s0,s0,-2008 # 20828 <peripherals>
    2884:	40940433          	sub	s0,s0,s1
    2888:	00112623          	sw	ra,12(sp)
    288c:	40245413          	srai	s0,s0,0x2
    2890:	00041c63          	bnez	s0,28a8 <__libc_fini_array+0x40>
    2894:	00c12083          	lw	ra,12(sp)
    2898:	00812403          	lw	s0,8(sp)
    289c:	00412483          	lw	s1,4(sp)
    28a0:	01010113          	addi	sp,sp,16
    28a4:	00008067          	ret
    28a8:	fff40413          	addi	s0,s0,-1
    28ac:	00241793          	slli	a5,s0,0x2
    28b0:	00f487b3          	add	a5,s1,a5
    28b4:	0007a783          	lw	a5,0(a5)
    28b8:	000780e7          	jalr	a5
    28bc:	fd5ff06f          	j	2890 <__libc_fini_array+0x28>

000028c0 <memset>:
    28c0:	00050693          	mv	a3,a0
    28c4:	00060a63          	beqz	a2,28d8 <memset+0x18>
    28c8:	00b68023          	sb	a1,0(a3)
    28cc:	fff60613          	addi	a2,a2,-1
    28d0:	00168693          	addi	a3,a3,1
    28d4:	fe061ae3          	bnez	a2,28c8 <memset+0x8>
    28d8:	00008067          	ret

000028dc <__register_exitproc>:
    28dc:	9681a783          	lw	a5,-1688(gp) # 20990 <__atexit>
    28e0:	00079e63          	bnez	a5,28fc <__register_exitproc+0x20>
    28e4:	aec18793          	addi	a5,gp,-1300 # 20b14 <__atexit0>
    28e8:	96f1a423          	sw	a5,-1688(gp) # 20990 <__atexit>
    28ec:	00000813          	li	a6,0
    28f0:	00080663          	beqz	a6,28fc <__register_exitproc+0x20>
    28f4:	00002703          	lw	a4,0(zero) # 0 <__vector_start>
    28f8:	08e7a423          	sw	a4,136(a5)
    28fc:	0047a703          	lw	a4,4(a5)
    2900:	01f00813          	li	a6,31
    2904:	00e85663          	bge	a6,a4,2910 <__register_exitproc+0x34>
    2908:	fff00513          	li	a0,-1
    290c:	00008067          	ret
    2910:	04050263          	beqz	a0,2954 <__register_exitproc+0x78>
    2914:	0887a803          	lw	a6,136(a5)
    2918:	fe0808e3          	beqz	a6,2908 <__register_exitproc+0x2c>
    291c:	00271893          	slli	a7,a4,0x2
    2920:	011808b3          	add	a7,a6,a7
    2924:	00c8a023          	sw	a2,0(a7)
    2928:	10082303          	lw	t1,256(a6)
    292c:	00100613          	li	a2,1
    2930:	00e61633          	sll	a2,a2,a4
    2934:	00c36333          	or	t1,t1,a2
    2938:	10682023          	sw	t1,256(a6)
    293c:	08d8a023          	sw	a3,128(a7)
    2940:	00200693          	li	a3,2
    2944:	00d51863          	bne	a0,a3,2954 <__register_exitproc+0x78>
    2948:	10482683          	lw	a3,260(a6)
    294c:	00c6e6b3          	or	a3,a3,a2
    2950:	10d82223          	sw	a3,260(a6)
    2954:	00170693          	addi	a3,a4,1 # 1001 <T11_start+0x41>
    2958:	00271713          	slli	a4,a4,0x2
    295c:	00d7a223          	sw	a3,4(a5)
    2960:	00e787b3          	add	a5,a5,a4
    2964:	00b7a423          	sw	a1,8(a5)
    2968:	00000513          	li	a0,0
    296c:	00008067          	ret

00002970 <__call_exitprocs>:
    2970:	fd010113          	addi	sp,sp,-48
    2974:	01512a23          	sw	s5,20(sp)
    2978:	01612823          	sw	s6,16(sp)
    297c:	01712623          	sw	s7,12(sp)
    2980:	01912223          	sw	s9,4(sp)
    2984:	02112623          	sw	ra,44(sp)
    2988:	02812423          	sw	s0,40(sp)
    298c:	02912223          	sw	s1,36(sp)
    2990:	03212023          	sw	s2,32(sp)
    2994:	01312e23          	sw	s3,28(sp)
    2998:	01412c23          	sw	s4,24(sp)
    299c:	01812423          	sw	s8,8(sp)
    29a0:	00050c93          	mv	s9,a0
    29a4:	00058b13          	mv	s6,a1
    29a8:	00100b93          	li	s7,1
    29ac:	9681a483          	lw	s1,-1688(gp) # 20990 <__atexit>
    29b0:	02048063          	beqz	s1,29d0 <__call_exitprocs+0x60>
    29b4:	0044a403          	lw	s0,4(s1)
    29b8:	0884a983          	lw	s3,136(s1)
    29bc:	fff40913          	addi	s2,s0,-1
    29c0:	00241413          	slli	s0,s0,0x2
    29c4:	00848a33          	add	s4,s1,s0
    29c8:	00898433          	add	s0,s3,s0
    29cc:	02095c63          	bgez	s2,2a04 <__call_exitprocs+0x94>
    29d0:	02c12083          	lw	ra,44(sp)
    29d4:	02812403          	lw	s0,40(sp)
    29d8:	02412483          	lw	s1,36(sp)
    29dc:	02012903          	lw	s2,32(sp)
    29e0:	01c12983          	lw	s3,28(sp)
    29e4:	01812a03          	lw	s4,24(sp)
    29e8:	01412a83          	lw	s5,20(sp)
    29ec:	01012b03          	lw	s6,16(sp)
    29f0:	00c12b83          	lw	s7,12(sp)
    29f4:	00812c03          	lw	s8,8(sp)
    29f8:	00412c83          	lw	s9,4(sp)
    29fc:	03010113          	addi	sp,sp,48
    2a00:	00008067          	ret
    2a04:	000b0863          	beqz	s6,2a14 <__call_exitprocs+0xa4>
    2a08:	04098663          	beqz	s3,2a54 <__call_exitprocs+0xe4>
    2a0c:	07c42783          	lw	a5,124(s0)
    2a10:	05679263          	bne	a5,s6,2a54 <__call_exitprocs+0xe4>
    2a14:	0044a703          	lw	a4,4(s1)
    2a18:	004a2783          	lw	a5,4(s4)
    2a1c:	fff70713          	addi	a4,a4,-1
    2a20:	05271263          	bne	a4,s2,2a64 <__call_exitprocs+0xf4>
    2a24:	0124a223          	sw	s2,4(s1)
    2a28:	02078663          	beqz	a5,2a54 <__call_exitprocs+0xe4>
    2a2c:	1009a683          	lw	a3,256(s3)
    2a30:	012b9733          	sll	a4,s7,s2
    2a34:	0044ac03          	lw	s8,4(s1)
    2a38:	00d776b3          	and	a3,a4,a3
    2a3c:	02069863          	bnez	a3,2a6c <__call_exitprocs+0xfc>
    2a40:	000780e7          	jalr	a5
    2a44:	0044a783          	lw	a5,4(s1)
    2a48:	f78792e3          	bne	a5,s8,29ac <__call_exitprocs+0x3c>
    2a4c:	9681a783          	lw	a5,-1688(gp) # 20990 <__atexit>
    2a50:	f4f49ee3          	bne	s1,a5,29ac <__call_exitprocs+0x3c>
    2a54:	fff90913          	addi	s2,s2,-1
    2a58:	ffca0a13          	addi	s4,s4,-4
    2a5c:	ffc40413          	addi	s0,s0,-4
    2a60:	f6dff06f          	j	29cc <__call_exitprocs+0x5c>
    2a64:	000a2223          	sw	zero,4(s4)
    2a68:	fc1ff06f          	j	2a28 <__call_exitprocs+0xb8>
    2a6c:	1049a683          	lw	a3,260(s3)
    2a70:	ffc42583          	lw	a1,-4(s0)
    2a74:	00d77733          	and	a4,a4,a3
    2a78:	00071863          	bnez	a4,2a88 <__call_exitprocs+0x118>
    2a7c:	000c8513          	mv	a0,s9
    2a80:	000780e7          	jalr	a5
    2a84:	fc1ff06f          	j	2a44 <__call_exitprocs+0xd4>
    2a88:	00058513          	mv	a0,a1
    2a8c:	000780e7          	jalr	a5
    2a90:	fb5ff06f          	j	2a44 <__call_exitprocs+0xd4>

00002a94 <_free_r>:
    2a94:	0e058a63          	beqz	a1,2b88 <_free_r+0xf4>
    2a98:	ffc5a783          	lw	a5,-4(a1)
    2a9c:	fe010113          	addi	sp,sp,-32
    2aa0:	00812c23          	sw	s0,24(sp)
    2aa4:	00112e23          	sw	ra,28(sp)
    2aa8:	ffc58413          	addi	s0,a1,-4
    2aac:	0007d463          	bgez	a5,2ab4 <_free_r+0x20>
    2ab0:	00f40433          	add	s0,s0,a5
    2ab4:	00a12623          	sw	a0,12(sp)
    2ab8:	320000ef          	jal	2dd8 <__malloc_lock>
    2abc:	9701a783          	lw	a5,-1680(gp) # 20998 <__malloc_free_list>
    2ac0:	00c12503          	lw	a0,12(sp)
    2ac4:	00079e63          	bnez	a5,2ae0 <_free_r+0x4c>
    2ac8:	00042223          	sw	zero,4(s0)
    2acc:	9681a823          	sw	s0,-1680(gp) # 20998 <__malloc_free_list>
    2ad0:	01812403          	lw	s0,24(sp)
    2ad4:	01c12083          	lw	ra,28(sp)
    2ad8:	02010113          	addi	sp,sp,32
    2adc:	3000006f          	j	2ddc <__malloc_unlock>
    2ae0:	02f47463          	bgeu	s0,a5,2b08 <_free_r+0x74>
    2ae4:	00042603          	lw	a2,0(s0)
    2ae8:	00c406b3          	add	a3,s0,a2
    2aec:	00d79a63          	bne	a5,a3,2b00 <_free_r+0x6c>
    2af0:	0007a683          	lw	a3,0(a5)
    2af4:	0047a783          	lw	a5,4(a5)
    2af8:	00c686b3          	add	a3,a3,a2
    2afc:	00d42023          	sw	a3,0(s0)
    2b00:	00f42223          	sw	a5,4(s0)
    2b04:	fc9ff06f          	j	2acc <_free_r+0x38>
    2b08:	00078713          	mv	a4,a5
    2b0c:	0047a783          	lw	a5,4(a5)
    2b10:	00078463          	beqz	a5,2b18 <_free_r+0x84>
    2b14:	fef47ae3          	bgeu	s0,a5,2b08 <_free_r+0x74>
    2b18:	00072683          	lw	a3,0(a4)
    2b1c:	00d70633          	add	a2,a4,a3
    2b20:	02861863          	bne	a2,s0,2b50 <_free_r+0xbc>
    2b24:	00042603          	lw	a2,0(s0)
    2b28:	00c686b3          	add	a3,a3,a2
    2b2c:	00d72023          	sw	a3,0(a4)
    2b30:	00d70633          	add	a2,a4,a3
    2b34:	f8c79ee3          	bne	a5,a2,2ad0 <_free_r+0x3c>
    2b38:	0007a603          	lw	a2,0(a5)
    2b3c:	0047a783          	lw	a5,4(a5)
    2b40:	00d606b3          	add	a3,a2,a3
    2b44:	00d72023          	sw	a3,0(a4)
    2b48:	00f72223          	sw	a5,4(a4)
    2b4c:	f85ff06f          	j	2ad0 <_free_r+0x3c>
    2b50:	00c47863          	bgeu	s0,a2,2b60 <_free_r+0xcc>
    2b54:	00c00793          	li	a5,12
    2b58:	00f52023          	sw	a5,0(a0)
    2b5c:	f75ff06f          	j	2ad0 <_free_r+0x3c>
    2b60:	00042603          	lw	a2,0(s0)
    2b64:	00c406b3          	add	a3,s0,a2
    2b68:	00d79a63          	bne	a5,a3,2b7c <_free_r+0xe8>
    2b6c:	0007a683          	lw	a3,0(a5)
    2b70:	0047a783          	lw	a5,4(a5)
    2b74:	00c686b3          	add	a3,a3,a2
    2b78:	00d42023          	sw	a3,0(s0)
    2b7c:	00f42223          	sw	a5,4(s0)
    2b80:	00872223          	sw	s0,4(a4)
    2b84:	f4dff06f          	j	2ad0 <_free_r+0x3c>
    2b88:	00008067          	ret

00002b8c <sbrk_aligned>:
    2b8c:	ff010113          	addi	sp,sp,-16
    2b90:	00812423          	sw	s0,8(sp)
    2b94:	96c1a783          	lw	a5,-1684(gp) # 20994 <__malloc_sbrk_start>
    2b98:	00912223          	sw	s1,4(sp)
    2b9c:	01212023          	sw	s2,0(sp)
    2ba0:	00112623          	sw	ra,12(sp)
    2ba4:	00050913          	mv	s2,a0
    2ba8:	00058493          	mv	s1,a1
    2bac:	00079863          	bnez	a5,2bbc <sbrk_aligned+0x30>
    2bb0:	00000593          	li	a1,0
    2bb4:	47c000ef          	jal	3030 <_sbrk_r>
    2bb8:	96a1a623          	sw	a0,-1684(gp) # 20994 <__malloc_sbrk_start>
    2bbc:	00048593          	mv	a1,s1
    2bc0:	00090513          	mv	a0,s2
    2bc4:	46c000ef          	jal	3030 <_sbrk_r>
    2bc8:	fff00493          	li	s1,-1
    2bcc:	00050413          	mv	s0,a0
    2bd0:	02950263          	beq	a0,s1,2bf4 <sbrk_aligned+0x68>
    2bd4:	00350413          	addi	s0,a0,3
    2bd8:	ffc47413          	andi	s0,s0,-4
    2bdc:	00850c63          	beq	a0,s0,2bf4 <sbrk_aligned+0x68>
    2be0:	40a405b3          	sub	a1,s0,a0
    2be4:	00090513          	mv	a0,s2
    2be8:	448000ef          	jal	3030 <_sbrk_r>
    2bec:	00951463          	bne	a0,s1,2bf4 <sbrk_aligned+0x68>
    2bf0:	00050413          	mv	s0,a0
    2bf4:	00c12083          	lw	ra,12(sp)
    2bf8:	00040513          	mv	a0,s0
    2bfc:	00812403          	lw	s0,8(sp)
    2c00:	00412483          	lw	s1,4(sp)
    2c04:	00012903          	lw	s2,0(sp)
    2c08:	01010113          	addi	sp,sp,16
    2c0c:	00008067          	ret

00002c10 <_malloc_r>:
    2c10:	fe010113          	addi	sp,sp,-32
    2c14:	00912a23          	sw	s1,20(sp)
    2c18:	00358493          	addi	s1,a1,3
    2c1c:	ffc4f493          	andi	s1,s1,-4
    2c20:	00112e23          	sw	ra,28(sp)
    2c24:	00812c23          	sw	s0,24(sp)
    2c28:	01212823          	sw	s2,16(sp)
    2c2c:	01312623          	sw	s3,12(sp)
    2c30:	01412423          	sw	s4,8(sp)
    2c34:	01512223          	sw	s5,4(sp)
    2c38:	00848493          	addi	s1,s1,8
    2c3c:	00c00793          	li	a5,12
    2c40:	00f4f463          	bgeu	s1,a5,2c48 <_malloc_r+0x38>
    2c44:	00078493          	mv	s1,a5
    2c48:	0004c463          	bltz	s1,2c50 <_malloc_r+0x40>
    2c4c:	02b4fc63          	bgeu	s1,a1,2c84 <_malloc_r+0x74>
    2c50:	00c00793          	li	a5,12
    2c54:	00f52023          	sw	a5,0(a0)
    2c58:	00000913          	li	s2,0
    2c5c:	01c12083          	lw	ra,28(sp)
    2c60:	01812403          	lw	s0,24(sp)
    2c64:	01412483          	lw	s1,20(sp)
    2c68:	00c12983          	lw	s3,12(sp)
    2c6c:	00812a03          	lw	s4,8(sp)
    2c70:	00412a83          	lw	s5,4(sp)
    2c74:	00090513          	mv	a0,s2
    2c78:	01012903          	lw	s2,16(sp)
    2c7c:	02010113          	addi	sp,sp,32
    2c80:	00008067          	ret
    2c84:	00050993          	mv	s3,a0
    2c88:	150000ef          	jal	2dd8 <__malloc_lock>
    2c8c:	9701a783          	lw	a5,-1680(gp) # 20998 <__malloc_free_list>
    2c90:	00078413          	mv	s0,a5
    2c94:	08041063          	bnez	s0,2d14 <_malloc_r+0x104>
    2c98:	00048593          	mv	a1,s1
    2c9c:	00098513          	mv	a0,s3
    2ca0:	eedff0ef          	jal	2b8c <sbrk_aligned>
    2ca4:	fff00793          	li	a5,-1
    2ca8:	00050413          	mv	s0,a0
    2cac:	12f51263          	bne	a0,a5,2dd0 <_malloc_r+0x1c0>
    2cb0:	9701a403          	lw	s0,-1680(gp) # 20998 <__malloc_free_list>
    2cb4:	00040913          	mv	s2,s0
    2cb8:	0e091263          	bnez	s2,2d9c <_malloc_r+0x18c>
    2cbc:	10040063          	beqz	s0,2dbc <_malloc_r+0x1ac>
    2cc0:	00042a83          	lw	s5,0(s0)
    2cc4:	00000593          	li	a1,0
    2cc8:	00098513          	mv	a0,s3
    2ccc:	01540ab3          	add	s5,s0,s5
    2cd0:	360000ef          	jal	3030 <_sbrk_r>
    2cd4:	0eaa9463          	bne	s5,a0,2dbc <_malloc_r+0x1ac>
    2cd8:	00042783          	lw	a5,0(s0)
    2cdc:	00098513          	mv	a0,s3
    2ce0:	40f484b3          	sub	s1,s1,a5
    2ce4:	00048593          	mv	a1,s1
    2ce8:	ea5ff0ef          	jal	2b8c <sbrk_aligned>
    2cec:	fff00793          	li	a5,-1
    2cf0:	0cf50663          	beq	a0,a5,2dbc <_malloc_r+0x1ac>
    2cf4:	00042783          	lw	a5,0(s0)
    2cf8:	009787b3          	add	a5,a5,s1
    2cfc:	00f42023          	sw	a5,0(s0)
    2d00:	9701a783          	lw	a5,-1680(gp) # 20998 <__malloc_free_list>
    2d04:	0047a703          	lw	a4,4(a5)
    2d08:	0a071063          	bnez	a4,2da8 <_malloc_r+0x198>
    2d0c:	9601a823          	sw	zero,-1680(gp) # 20998 <__malloc_free_list>
    2d10:	0340006f          	j	2d44 <_malloc_r+0x134>
    2d14:	00042683          	lw	a3,0(s0)
    2d18:	409686b3          	sub	a3,a3,s1
    2d1c:	0606ca63          	bltz	a3,2d90 <_malloc_r+0x180>
    2d20:	00b00713          	li	a4,11
    2d24:	04d77a63          	bgeu	a4,a3,2d78 <_malloc_r+0x168>
    2d28:	00942023          	sw	s1,0(s0)
    2d2c:	00940733          	add	a4,s0,s1
    2d30:	04879063          	bne	a5,s0,2d70 <_malloc_r+0x160>
    2d34:	96e1a823          	sw	a4,-1680(gp) # 20998 <__malloc_free_list>
    2d38:	00442783          	lw	a5,4(s0)
    2d3c:	00d72023          	sw	a3,0(a4)
    2d40:	00f72223          	sw	a5,4(a4)
    2d44:	00098513          	mv	a0,s3
    2d48:	094000ef          	jal	2ddc <__malloc_unlock>
    2d4c:	00b40913          	addi	s2,s0,11
    2d50:	00440793          	addi	a5,s0,4
    2d54:	ff897913          	andi	s2,s2,-8
    2d58:	40f90733          	sub	a4,s2,a5
    2d5c:	f0f900e3          	beq	s2,a5,2c5c <_malloc_r+0x4c>
    2d60:	00e40433          	add	s0,s0,a4
    2d64:	412787b3          	sub	a5,a5,s2
    2d68:	00f42023          	sw	a5,0(s0)
    2d6c:	ef1ff06f          	j	2c5c <_malloc_r+0x4c>
    2d70:	00e7a223          	sw	a4,4(a5)
    2d74:	fc5ff06f          	j	2d38 <_malloc_r+0x128>
    2d78:	00442703          	lw	a4,4(s0)
    2d7c:	00879663          	bne	a5,s0,2d88 <_malloc_r+0x178>
    2d80:	96e1a823          	sw	a4,-1680(gp) # 20998 <__malloc_free_list>
    2d84:	fc1ff06f          	j	2d44 <_malloc_r+0x134>
    2d88:	00e7a223          	sw	a4,4(a5)
    2d8c:	fb9ff06f          	j	2d44 <_malloc_r+0x134>
    2d90:	00040793          	mv	a5,s0
    2d94:	00442403          	lw	s0,4(s0)
    2d98:	efdff06f          	j	2c94 <_malloc_r+0x84>
    2d9c:	00090413          	mv	s0,s2
    2da0:	00492903          	lw	s2,4(s2)
    2da4:	f15ff06f          	j	2cb8 <_malloc_r+0xa8>
    2da8:	00078713          	mv	a4,a5
    2dac:	0047a783          	lw	a5,4(a5)
    2db0:	fe879ce3          	bne	a5,s0,2da8 <_malloc_r+0x198>
    2db4:	00072223          	sw	zero,4(a4)
    2db8:	f8dff06f          	j	2d44 <_malloc_r+0x134>
    2dbc:	00c00793          	li	a5,12
    2dc0:	00f9a023          	sw	a5,0(s3)
    2dc4:	00098513          	mv	a0,s3
    2dc8:	014000ef          	jal	2ddc <__malloc_unlock>
    2dcc:	e91ff06f          	j	2c5c <_malloc_r+0x4c>
    2dd0:	00952023          	sw	s1,0(a0)
    2dd4:	f71ff06f          	j	2d44 <_malloc_r+0x134>

00002dd8 <__malloc_lock>:
    2dd8:	00008067          	ret

00002ddc <__malloc_unlock>:
    2ddc:	00008067          	ret

00002de0 <__sflush_r>:
    2de0:	00c59783          	lh	a5,12(a1)
    2de4:	fe010113          	addi	sp,sp,-32
    2de8:	00812c23          	sw	s0,24(sp)
    2dec:	00912a23          	sw	s1,20(sp)
    2df0:	00112e23          	sw	ra,28(sp)
    2df4:	01212823          	sw	s2,16(sp)
    2df8:	0087f713          	andi	a4,a5,8
    2dfc:	00050493          	mv	s1,a0
    2e00:	00058413          	mv	s0,a1
    2e04:	14071c63          	bnez	a4,2f5c <__sflush_r+0x17c>
    2e08:	0045a703          	lw	a4,4(a1)
    2e0c:	00e04663          	bgtz	a4,2e18 <__sflush_r+0x38>
    2e10:	0405a703          	lw	a4,64(a1)
    2e14:	00e05663          	blez	a4,2e20 <__sflush_r+0x40>
    2e18:	02c42703          	lw	a4,44(s0)
    2e1c:	02071063          	bnez	a4,2e3c <__sflush_r+0x5c>
    2e20:	00000513          	li	a0,0
    2e24:	01c12083          	lw	ra,28(sp)
    2e28:	01812403          	lw	s0,24(sp)
    2e2c:	01412483          	lw	s1,20(sp)
    2e30:	01012903          	lw	s2,16(sp)
    2e34:	02010113          	addi	sp,sp,32
    2e38:	00008067          	ret
    2e3c:	0004a903          	lw	s2,0(s1)
    2e40:	01379693          	slli	a3,a5,0x13
    2e44:	0004a023          	sw	zero,0(s1)
    2e48:	0a06de63          	bgez	a3,2f04 <__sflush_r+0x124>
    2e4c:	05442503          	lw	a0,84(s0)
    2e50:	00c45783          	lhu	a5,12(s0)
    2e54:	0047f793          	andi	a5,a5,4
    2e58:	00078e63          	beqz	a5,2e74 <__sflush_r+0x94>
    2e5c:	00442783          	lw	a5,4(s0)
    2e60:	40f50533          	sub	a0,a0,a5
    2e64:	03442783          	lw	a5,52(s0)
    2e68:	00078663          	beqz	a5,2e74 <__sflush_r+0x94>
    2e6c:	04042783          	lw	a5,64(s0)
    2e70:	40f50533          	sub	a0,a0,a5
    2e74:	02c42783          	lw	a5,44(s0)
    2e78:	02042583          	lw	a1,32(s0)
    2e7c:	00050613          	mv	a2,a0
    2e80:	00000693          	li	a3,0
    2e84:	00048513          	mv	a0,s1
    2e88:	000780e7          	jalr	a5
    2e8c:	fff00793          	li	a5,-1
    2e90:	00c41703          	lh	a4,12(s0)
    2e94:	02f51263          	bne	a0,a5,2eb8 <__sflush_r+0xd8>
    2e98:	0004a683          	lw	a3,0(s1)
    2e9c:	01d00793          	li	a5,29
    2ea0:	0ad7e863          	bltu	a5,a3,2f50 <__sflush_r+0x170>
    2ea4:	204007b7          	lui	a5,0x20400
    2ea8:	00178793          	addi	a5,a5,1 # 20400001 <_sp+0x203d7421>
    2eac:	00d7d7b3          	srl	a5,a5,a3
    2eb0:	0017f793          	andi	a5,a5,1
    2eb4:	08078e63          	beqz	a5,2f50 <__sflush_r+0x170>
    2eb8:	01042783          	lw	a5,16(s0)
    2ebc:	00042223          	sw	zero,4(s0)
    2ec0:	00f42023          	sw	a5,0(s0)
    2ec4:	01371793          	slli	a5,a4,0x13
    2ec8:	0007dc63          	bgez	a5,2ee0 <__sflush_r+0x100>
    2ecc:	fff00793          	li	a5,-1
    2ed0:	00f51663          	bne	a0,a5,2edc <__sflush_r+0xfc>
    2ed4:	0004a783          	lw	a5,0(s1)
    2ed8:	00079463          	bnez	a5,2ee0 <__sflush_r+0x100>
    2edc:	04a42a23          	sw	a0,84(s0)
    2ee0:	03442583          	lw	a1,52(s0)
    2ee4:	0124a023          	sw	s2,0(s1)
    2ee8:	f2058ce3          	beqz	a1,2e20 <__sflush_r+0x40>
    2eec:	04440793          	addi	a5,s0,68
    2ef0:	00f58663          	beq	a1,a5,2efc <__sflush_r+0x11c>
    2ef4:	00048513          	mv	a0,s1
    2ef8:	b9dff0ef          	jal	2a94 <_free_r>
    2efc:	02042a23          	sw	zero,52(s0)
    2f00:	f21ff06f          	j	2e20 <__sflush_r+0x40>
    2f04:	02042583          	lw	a1,32(s0)
    2f08:	00100693          	li	a3,1
    2f0c:	00000613          	li	a2,0
    2f10:	00048513          	mv	a0,s1
    2f14:	000700e7          	jalr	a4
    2f18:	fff00793          	li	a5,-1
    2f1c:	f2f51ae3          	bne	a0,a5,2e50 <__sflush_r+0x70>
    2f20:	0004a783          	lw	a5,0(s1)
    2f24:	f20786e3          	beqz	a5,2e50 <__sflush_r+0x70>
    2f28:	fea78713          	addi	a4,a5,-22
    2f2c:	00070663          	beqz	a4,2f38 <__sflush_r+0x158>
    2f30:	fe378793          	addi	a5,a5,-29
    2f34:	00079663          	bnez	a5,2f40 <__sflush_r+0x160>
    2f38:	0124a023          	sw	s2,0(s1)
    2f3c:	ee5ff06f          	j	2e20 <__sflush_r+0x40>
    2f40:	00c45783          	lhu	a5,12(s0)
    2f44:	0407e793          	ori	a5,a5,64
    2f48:	00f41623          	sh	a5,12(s0)
    2f4c:	ed9ff06f          	j	2e24 <__sflush_r+0x44>
    2f50:	04076713          	ori	a4,a4,64
    2f54:	00e41623          	sh	a4,12(s0)
    2f58:	ecdff06f          	j	2e24 <__sflush_r+0x44>
    2f5c:	0105a603          	lw	a2,16(a1)
    2f60:	ec0600e3          	beqz	a2,2e20 <__sflush_r+0x40>
    2f64:	0005a683          	lw	a3,0(a1)
    2f68:	0037f793          	andi	a5,a5,3
    2f6c:	00c5a023          	sw	a2,0(a1)
    2f70:	40c68933          	sub	s2,a3,a2
    2f74:	00000713          	li	a4,0
    2f78:	00079463          	bnez	a5,2f80 <__sflush_r+0x1a0>
    2f7c:	0145a703          	lw	a4,20(a1)
    2f80:	00e42423          	sw	a4,8(s0)
    2f84:	e9205ee3          	blez	s2,2e20 <__sflush_r+0x40>
    2f88:	02842783          	lw	a5,40(s0)
    2f8c:	02042583          	lw	a1,32(s0)
    2f90:	00090693          	mv	a3,s2
    2f94:	00048513          	mv	a0,s1
    2f98:	00c12623          	sw	a2,12(sp)
    2f9c:	000780e7          	jalr	a5
    2fa0:	00c12603          	lw	a2,12(sp)
    2fa4:	00a04c63          	bgtz	a0,2fbc <__sflush_r+0x1dc>
    2fa8:	00c45783          	lhu	a5,12(s0)
    2fac:	fff00513          	li	a0,-1
    2fb0:	0407e793          	ori	a5,a5,64
    2fb4:	00f41623          	sh	a5,12(s0)
    2fb8:	e6dff06f          	j	2e24 <__sflush_r+0x44>
    2fbc:	00a60633          	add	a2,a2,a0
    2fc0:	40a90933          	sub	s2,s2,a0
    2fc4:	fc1ff06f          	j	2f84 <__sflush_r+0x1a4>

00002fc8 <_fflush_r>:
    2fc8:	0105a783          	lw	a5,16(a1)
    2fcc:	04078e63          	beqz	a5,3028 <_fflush_r+0x60>
    2fd0:	fe010113          	addi	sp,sp,-32
    2fd4:	00812c23          	sw	s0,24(sp)
    2fd8:	00112e23          	sw	ra,28(sp)
    2fdc:	00050413          	mv	s0,a0
    2fe0:	00050c63          	beqz	a0,2ff8 <_fflush_r+0x30>
    2fe4:	02052783          	lw	a5,32(a0)
    2fe8:	00079863          	bnez	a5,2ff8 <_fflush_r+0x30>
    2fec:	00b12623          	sw	a1,12(sp)
    2ff0:	cfcff0ef          	jal	24ec <__sinit>
    2ff4:	00c12583          	lw	a1,12(sp)
    2ff8:	00c59783          	lh	a5,12(a1)
    2ffc:	00078c63          	beqz	a5,3014 <_fflush_r+0x4c>
    3000:	00040513          	mv	a0,s0
    3004:	01812403          	lw	s0,24(sp)
    3008:	01c12083          	lw	ra,28(sp)
    300c:	02010113          	addi	sp,sp,32
    3010:	dd1ff06f          	j	2de0 <__sflush_r>
    3014:	01c12083          	lw	ra,28(sp)
    3018:	01812403          	lw	s0,24(sp)
    301c:	00000513          	li	a0,0
    3020:	02010113          	addi	sp,sp,32
    3024:	00008067          	ret
    3028:	00000513          	li	a0,0
    302c:	00008067          	ret

00003030 <_sbrk_r>:
    3030:	ff010113          	addi	sp,sp,-16
    3034:	00812423          	sw	s0,8(sp)
    3038:	00912223          	sw	s1,4(sp)
    303c:	00050493          	mv	s1,a0
    3040:	00058513          	mv	a0,a1
    3044:	00112623          	sw	ra,12(sp)
    3048:	9601a223          	sw	zero,-1692(gp) # 2098c <errno>
    304c:	838ff0ef          	jal	2084 <_sbrk>
    3050:	fff00793          	li	a5,-1
    3054:	00f51863          	bne	a0,a5,3064 <_sbrk_r+0x34>
    3058:	9641a783          	lw	a5,-1692(gp) # 2098c <errno>
    305c:	00078463          	beqz	a5,3064 <_sbrk_r+0x34>
    3060:	00f4a023          	sw	a5,0(s1)
    3064:	00c12083          	lw	ra,12(sp)
    3068:	00812403          	lw	s0,8(sp)
    306c:	00412483          	lw	s1,4(sp)
    3070:	01010113          	addi	sp,sp,16
    3074:	00008067          	ret

00003078 <iprintf>:
    3078:	fc010113          	addi	sp,sp,-64
    307c:	02f12a23          	sw	a5,52(sp)
    3080:	95c1a783          	lw	a5,-1700(gp) # 20984 <_impure_ptr>
    3084:	02c12423          	sw	a2,40(sp)
    3088:	02d12623          	sw	a3,44(sp)
    308c:	02b12223          	sw	a1,36(sp)
    3090:	02e12823          	sw	a4,48(sp)
    3094:	03012c23          	sw	a6,56(sp)
    3098:	03112e23          	sw	a7,60(sp)
    309c:	0087a583          	lw	a1,8(a5)
    30a0:	02410693          	addi	a3,sp,36
    30a4:	00050613          	mv	a2,a0
    30a8:	00078513          	mv	a0,a5
    30ac:	00112e23          	sw	ra,28(sp)
    30b0:	00d12623          	sw	a3,12(sp)
    30b4:	414000ef          	jal	34c8 <_vfiprintf_r>
    30b8:	01c12083          	lw	ra,28(sp)
    30bc:	04010113          	addi	sp,sp,64
    30c0:	00008067          	ret

000030c4 <_puts_r>:
    30c4:	02052783          	lw	a5,32(a0)
    30c8:	fe010113          	addi	sp,sp,-32
    30cc:	00812c23          	sw	s0,24(sp)
    30d0:	00912a23          	sw	s1,20(sp)
    30d4:	01212823          	sw	s2,16(sp)
    30d8:	00112e23          	sw	ra,28(sp)
    30dc:	01312623          	sw	s3,12(sp)
    30e0:	00852403          	lw	s0,8(a0)
    30e4:	00050493          	mv	s1,a0
    30e8:	00058913          	mv	s2,a1
    30ec:	00079463          	bnez	a5,30f4 <_puts_r+0x30>
    30f0:	bfcff0ef          	jal	24ec <__sinit>
    30f4:	00c45783          	lhu	a5,12(s0)
    30f8:	0087f793          	andi	a5,a5,8
    30fc:	00078663          	beqz	a5,3108 <_puts_r+0x44>
    3100:	01042783          	lw	a5,16(s0)
    3104:	0a079663          	bnez	a5,31b0 <_puts_r+0xec>
    3108:	00040593          	mv	a1,s0
    310c:	00048513          	mv	a0,s1
    3110:	1c8000ef          	jal	32d8 <__swsetup_r>
    3114:	00050793          	mv	a5,a0
    3118:	fff00513          	li	a0,-1
    311c:	08078a63          	beqz	a5,31b0 <_puts_r+0xec>
    3120:	01c12083          	lw	ra,28(sp)
    3124:	01812403          	lw	s0,24(sp)
    3128:	01412483          	lw	s1,20(sp)
    312c:	01012903          	lw	s2,16(sp)
    3130:	00c12983          	lw	s3,12(sp)
    3134:	02010113          	addi	sp,sp,32
    3138:	00008067          	ret
    313c:	0007da63          	bgez	a5,3150 <_puts_r+0x8c>
    3140:	01842703          	lw	a4,24(s0)
    3144:	04e7cc63          	blt	a5,a4,319c <_puts_r+0xd8>
    3148:	ff658793          	addi	a5,a1,-10
    314c:	04078863          	beqz	a5,319c <_puts_r+0xd8>
    3150:	00042783          	lw	a5,0(s0)
    3154:	00178713          	addi	a4,a5,1
    3158:	00e42023          	sw	a4,0(s0)
    315c:	00b78023          	sb	a1,0(a5)
    3160:	00190913          	addi	s2,s2,1
    3164:	00842783          	lw	a5,8(s0)
    3168:	00094583          	lbu	a1,0(s2)
    316c:	fff78793          	addi	a5,a5,-1
    3170:	00f42423          	sw	a5,8(s0)
    3174:	fc0594e3          	bnez	a1,313c <_puts_r+0x78>
    3178:	0407d063          	bgez	a5,31b8 <_puts_r+0xf4>
    317c:	00040613          	mv	a2,s0
    3180:	00a00593          	li	a1,10
    3184:	00048513          	mv	a0,s1
    3188:	054000ef          	jal	31dc <__swbuf_r>
    318c:	fff00793          	li	a5,-1
    3190:	f8f508e3          	beq	a0,a5,3120 <_puts_r+0x5c>
    3194:	00a00513          	li	a0,10
    3198:	f89ff06f          	j	3120 <_puts_r+0x5c>
    319c:	00040613          	mv	a2,s0
    31a0:	00048513          	mv	a0,s1
    31a4:	038000ef          	jal	31dc <__swbuf_r>
    31a8:	fb351ce3          	bne	a0,s3,3160 <_puts_r+0x9c>
    31ac:	f75ff06f          	j	3120 <_puts_r+0x5c>
    31b0:	fff00993          	li	s3,-1
    31b4:	fb1ff06f          	j	3164 <_puts_r+0xa0>
    31b8:	00042783          	lw	a5,0(s0)
    31bc:	00a00513          	li	a0,10
    31c0:	00178713          	addi	a4,a5,1
    31c4:	00e42023          	sw	a4,0(s0)
    31c8:	00a78023          	sb	a0,0(a5)
    31cc:	f55ff06f          	j	3120 <_puts_r+0x5c>

000031d0 <puts>:
    31d0:	00050593          	mv	a1,a0
    31d4:	95c1a503          	lw	a0,-1700(gp) # 20984 <_impure_ptr>
    31d8:	eedff06f          	j	30c4 <_puts_r>

000031dc <__swbuf_r>:
    31dc:	fe010113          	addi	sp,sp,-32
    31e0:	00812c23          	sw	s0,24(sp)
    31e4:	00912a23          	sw	s1,20(sp)
    31e8:	01312623          	sw	s3,12(sp)
    31ec:	00112e23          	sw	ra,28(sp)
    31f0:	01212823          	sw	s2,16(sp)
    31f4:	00050493          	mv	s1,a0
    31f8:	00058993          	mv	s3,a1
    31fc:	00060413          	mv	s0,a2
    3200:	00050863          	beqz	a0,3210 <__swbuf_r+0x34>
    3204:	02052783          	lw	a5,32(a0)
    3208:	00079463          	bnez	a5,3210 <__swbuf_r+0x34>
    320c:	ae0ff0ef          	jal	24ec <__sinit>
    3210:	01842783          	lw	a5,24(s0)
    3214:	00f42423          	sw	a5,8(s0)
    3218:	00c45783          	lhu	a5,12(s0)
    321c:	0087f793          	andi	a5,a5,8
    3220:	0a078063          	beqz	a5,32c0 <__swbuf_r+0xe4>
    3224:	01042783          	lw	a5,16(s0)
    3228:	08078c63          	beqz	a5,32c0 <__swbuf_r+0xe4>
    322c:	01042783          	lw	a5,16(s0)
    3230:	00042503          	lw	a0,0(s0)
    3234:	40f50533          	sub	a0,a0,a5
    3238:	01442783          	lw	a5,20(s0)
    323c:	00f54a63          	blt	a0,a5,3250 <__swbuf_r+0x74>
    3240:	00040593          	mv	a1,s0
    3244:	00048513          	mv	a0,s1
    3248:	d81ff0ef          	jal	2fc8 <_fflush_r>
    324c:	08051263          	bnez	a0,32d0 <__swbuf_r+0xf4>
    3250:	00842783          	lw	a5,8(s0)
    3254:	00150513          	addi	a0,a0,1
    3258:	0ff9f913          	zext.b	s2,s3
    325c:	fff78793          	addi	a5,a5,-1
    3260:	00f42423          	sw	a5,8(s0)
    3264:	00042783          	lw	a5,0(s0)
    3268:	00178713          	addi	a4,a5,1
    326c:	00e42023          	sw	a4,0(s0)
    3270:	01378023          	sb	s3,0(a5)
    3274:	01442783          	lw	a5,20(s0)
    3278:	00a78c63          	beq	a5,a0,3290 <__swbuf_r+0xb4>
    327c:	ff690793          	addi	a5,s2,-10
    3280:	02079063          	bnez	a5,32a0 <__swbuf_r+0xc4>
    3284:	00c45783          	lhu	a5,12(s0)
    3288:	0017f793          	andi	a5,a5,1
    328c:	00078a63          	beqz	a5,32a0 <__swbuf_r+0xc4>
    3290:	00040593          	mv	a1,s0
    3294:	00048513          	mv	a0,s1
    3298:	d31ff0ef          	jal	2fc8 <_fflush_r>
    329c:	02051a63          	bnez	a0,32d0 <__swbuf_r+0xf4>
    32a0:	01c12083          	lw	ra,28(sp)
    32a4:	01812403          	lw	s0,24(sp)
    32a8:	01412483          	lw	s1,20(sp)
    32ac:	00c12983          	lw	s3,12(sp)
    32b0:	00090513          	mv	a0,s2
    32b4:	01012903          	lw	s2,16(sp)
    32b8:	02010113          	addi	sp,sp,32
    32bc:	00008067          	ret
    32c0:	00040593          	mv	a1,s0
    32c4:	00048513          	mv	a0,s1
    32c8:	010000ef          	jal	32d8 <__swsetup_r>
    32cc:	f60500e3          	beqz	a0,322c <__swbuf_r+0x50>
    32d0:	fff00913          	li	s2,-1
    32d4:	fcdff06f          	j	32a0 <__swbuf_r+0xc4>

000032d8 <__swsetup_r>:
    32d8:	ff010113          	addi	sp,sp,-16
    32dc:	00912223          	sw	s1,4(sp)
    32e0:	00050493          	mv	s1,a0
    32e4:	95c1a503          	lw	a0,-1700(gp) # 20984 <_impure_ptr>
    32e8:	00812423          	sw	s0,8(sp)
    32ec:	00112623          	sw	ra,12(sp)
    32f0:	00058413          	mv	s0,a1
    32f4:	00050863          	beqz	a0,3304 <__swsetup_r+0x2c>
    32f8:	02052783          	lw	a5,32(a0)
    32fc:	00079463          	bnez	a5,3304 <__swsetup_r+0x2c>
    3300:	9ecff0ef          	jal	24ec <__sinit>
    3304:	00c41783          	lh	a5,12(s0)
    3308:	0087f713          	andi	a4,a5,8
    330c:	06071a63          	bnez	a4,3380 <__swsetup_r+0xa8>
    3310:	0107f713          	andi	a4,a5,16
    3314:	02071663          	bnez	a4,3340 <__swsetup_r+0x68>
    3318:	00900713          	li	a4,9
    331c:	00e4a023          	sw	a4,0(s1)
    3320:	0407e793          	ori	a5,a5,64
    3324:	00f41623          	sh	a5,12(s0)
    3328:	fff00513          	li	a0,-1
    332c:	00c12083          	lw	ra,12(sp)
    3330:	00812403          	lw	s0,8(sp)
    3334:	00412483          	lw	s1,4(sp)
    3338:	01010113          	addi	sp,sp,16
    333c:	00008067          	ret
    3340:	0047f713          	andi	a4,a5,4
    3344:	02070a63          	beqz	a4,3378 <__swsetup_r+0xa0>
    3348:	03442583          	lw	a1,52(s0)
    334c:	00058c63          	beqz	a1,3364 <__swsetup_r+0x8c>
    3350:	04440793          	addi	a5,s0,68
    3354:	00f58663          	beq	a1,a5,3360 <__swsetup_r+0x88>
    3358:	00048513          	mv	a0,s1
    335c:	f38ff0ef          	jal	2a94 <_free_r>
    3360:	02042a23          	sw	zero,52(s0)
    3364:	00c45783          	lhu	a5,12(s0)
    3368:	01042703          	lw	a4,16(s0)
    336c:	00042223          	sw	zero,4(s0)
    3370:	fdb7f793          	andi	a5,a5,-37
    3374:	00e42023          	sw	a4,0(s0)
    3378:	0087e793          	ori	a5,a5,8
    337c:	00f41623          	sh	a5,12(s0)
    3380:	01042783          	lw	a5,16(s0)
    3384:	02079063          	bnez	a5,33a4 <__swsetup_r+0xcc>
    3388:	00c42783          	lw	a5,12(s0)
    338c:	20000713          	li	a4,512
    3390:	2807f793          	andi	a5,a5,640
    3394:	00e78863          	beq	a5,a4,33a4 <__swsetup_r+0xcc>
    3398:	00040593          	mv	a1,s0
    339c:	00048513          	mv	a0,s1
    33a0:	285000ef          	jal	3e24 <__smakebuf_r>
    33a4:	00c41783          	lh	a5,12(s0)
    33a8:	0017f713          	andi	a4,a5,1
    33ac:	02070263          	beqz	a4,33d0 <__swsetup_r+0xf8>
    33b0:	01442703          	lw	a4,20(s0)
    33b4:	00042423          	sw	zero,8(s0)
    33b8:	40e00733          	neg	a4,a4
    33bc:	00e42c23          	sw	a4,24(s0)
    33c0:	01042703          	lw	a4,16(s0)
    33c4:	02070263          	beqz	a4,33e8 <__swsetup_r+0x110>
    33c8:	00000513          	li	a0,0
    33cc:	f61ff06f          	j	332c <__swsetup_r+0x54>
    33d0:	0027f713          	andi	a4,a5,2
    33d4:	00000693          	li	a3,0
    33d8:	00071463          	bnez	a4,33e0 <__swsetup_r+0x108>
    33dc:	01442683          	lw	a3,20(s0)
    33e0:	00d42423          	sw	a3,8(s0)
    33e4:	fddff06f          	j	33c0 <__swsetup_r+0xe8>
    33e8:	0807f713          	andi	a4,a5,128
    33ec:	fc070ee3          	beqz	a4,33c8 <__swsetup_r+0xf0>
    33f0:	f31ff06f          	j	3320 <__swsetup_r+0x48>

000033f4 <__errno>:
    33f4:	95c1a503          	lw	a0,-1700(gp) # 20984 <_impure_ptr>
    33f8:	00008067          	ret

000033fc <strlen>:
    33fc:	00050793          	mv	a5,a0
    3400:	0007c703          	lbu	a4,0(a5)
    3404:	00178793          	addi	a5,a5,1
    3408:	fe071ce3          	bnez	a4,3400 <strlen+0x4>
    340c:	40a78533          	sub	a0,a5,a0
    3410:	fff50513          	addi	a0,a0,-1
    3414:	00008067          	ret

00003418 <__sfputc_r>:
    3418:	00862783          	lw	a5,8(a2)
    341c:	fff78793          	addi	a5,a5,-1
    3420:	00f62423          	sw	a5,8(a2)
    3424:	0007dc63          	bgez	a5,343c <__sfputc_r+0x24>
    3428:	01862703          	lw	a4,24(a2)
    342c:	00e7c663          	blt	a5,a4,3438 <__sfputc_r+0x20>
    3430:	ff658793          	addi	a5,a1,-10
    3434:	00079463          	bnez	a5,343c <__sfputc_r+0x24>
    3438:	da5ff06f          	j	31dc <__swbuf_r>
    343c:	00062783          	lw	a5,0(a2)
    3440:	00058513          	mv	a0,a1
    3444:	00178713          	addi	a4,a5,1
    3448:	00e62023          	sw	a4,0(a2)
    344c:	00b78023          	sb	a1,0(a5)
    3450:	00008067          	ret

00003454 <__sfputs_r>:
    3454:	fe010113          	addi	sp,sp,-32
    3458:	00812c23          	sw	s0,24(sp)
    345c:	00912a23          	sw	s1,20(sp)
    3460:	01212823          	sw	s2,16(sp)
    3464:	01312623          	sw	s3,12(sp)
    3468:	01412423          	sw	s4,8(sp)
    346c:	00112e23          	sw	ra,28(sp)
    3470:	00050993          	mv	s3,a0
    3474:	00058a13          	mv	s4,a1
    3478:	00060413          	mv	s0,a2
    347c:	00d604b3          	add	s1,a2,a3
    3480:	fff00913          	li	s2,-1
    3484:	00941663          	bne	s0,s1,3490 <__sfputs_r+0x3c>
    3488:	00000513          	li	a0,0
    348c:	01c0006f          	j	34a8 <__sfputs_r+0x54>
    3490:	00044583          	lbu	a1,0(s0)
    3494:	000a0613          	mv	a2,s4
    3498:	00098513          	mv	a0,s3
    349c:	f7dff0ef          	jal	3418 <__sfputc_r>
    34a0:	00140413          	addi	s0,s0,1
    34a4:	ff2510e3          	bne	a0,s2,3484 <__sfputs_r+0x30>
    34a8:	01c12083          	lw	ra,28(sp)
    34ac:	01812403          	lw	s0,24(sp)
    34b0:	01412483          	lw	s1,20(sp)
    34b4:	01012903          	lw	s2,16(sp)
    34b8:	00c12983          	lw	s3,12(sp)
    34bc:	00812a03          	lw	s4,8(sp)
    34c0:	02010113          	addi	sp,sp,32
    34c4:	00008067          	ret

000034c8 <_vfiprintf_r>:
    34c8:	f5010113          	addi	sp,sp,-176
    34cc:	0a812423          	sw	s0,168(sp)
    34d0:	0a912223          	sw	s1,164(sp)
    34d4:	0b212023          	sw	s2,160(sp)
    34d8:	09312e23          	sw	s3,156(sp)
    34dc:	0a112623          	sw	ra,172(sp)
    34e0:	09412c23          	sw	s4,152(sp)
    34e4:	09512a23          	sw	s5,148(sp)
    34e8:	09612823          	sw	s6,144(sp)
    34ec:	09712623          	sw	s7,140(sp)
    34f0:	00050913          	mv	s2,a0
    34f4:	00058493          	mv	s1,a1
    34f8:	00060413          	mv	s0,a2
    34fc:	00068993          	mv	s3,a3
    3500:	00050863          	beqz	a0,3510 <_vfiprintf_r+0x48>
    3504:	02052783          	lw	a5,32(a0)
    3508:	00079463          	bnez	a5,3510 <_vfiprintf_r+0x48>
    350c:	fe1fe0ef          	jal	24ec <__sinit>
    3510:	00c4d783          	lhu	a5,12(s1)
    3514:	0087f793          	andi	a5,a5,8
    3518:	00078663          	beqz	a5,3524 <_vfiprintf_r+0x5c>
    351c:	0104a783          	lw	a5,16(s1)
    3520:	00079a63          	bnez	a5,3534 <_vfiprintf_r+0x6c>
    3524:	00048593          	mv	a1,s1
    3528:	00090513          	mv	a0,s2
    352c:	dadff0ef          	jal	32d8 <__swsetup_r>
    3530:	2a051a63          	bnez	a0,37e4 <_vfiprintf_r+0x31c>
    3534:	02000793          	li	a5,32
    3538:	02f10ca3          	sb	a5,57(sp)
    353c:	00020a37          	lui	s4,0x20
    3540:	03000793          	li	a5,48
    3544:	01312e23          	sw	s3,28(sp)
    3548:	02012a23          	sw	zero,52(sp)
    354c:	02f10d23          	sb	a5,58(sp)
    3550:	02500a93          	li	s5,37
    3554:	fff00993          	li	s3,-1
    3558:	4a4a0a13          	addi	s4,s4,1188 # 204a4 <__clz_tab+0x2d8>
    355c:	00100b13          	li	s6,1
    3560:	00040b93          	mv	s7,s0
    3564:	000bc783          	lbu	a5,0(s7)
    3568:	00078463          	beqz	a5,3570 <_vfiprintf_r+0xa8>
    356c:	0d579463          	bne	a5,s5,3634 <_vfiprintf_r+0x16c>
    3570:	408b86b3          	sub	a3,s7,s0
    3574:	028b8663          	beq	s7,s0,35a0 <_vfiprintf_r+0xd8>
    3578:	00040613          	mv	a2,s0
    357c:	00048593          	mv	a1,s1
    3580:	00090513          	mv	a0,s2
    3584:	00d12623          	sw	a3,12(sp)
    3588:	ecdff0ef          	jal	3454 <__sfputs_r>
    358c:	25350663          	beq	a0,s3,37d8 <_vfiprintf_r+0x310>
    3590:	03412783          	lw	a5,52(sp)
    3594:	00c12683          	lw	a3,12(sp)
    3598:	00d787b3          	add	a5,a5,a3
    359c:	02f12a23          	sw	a5,52(sp)
    35a0:	000bc783          	lbu	a5,0(s7)
    35a4:	22078a63          	beqz	a5,37d8 <_vfiprintf_r+0x310>
    35a8:	001b8413          	addi	s0,s7,1
    35ac:	02012023          	sw	zero,32(sp)
    35b0:	02012623          	sw	zero,44(sp)
    35b4:	03312223          	sw	s3,36(sp)
    35b8:	02012423          	sw	zero,40(sp)
    35bc:	060101a3          	sb	zero,99(sp)
    35c0:	06012c23          	sw	zero,120(sp)
    35c4:	00044583          	lbu	a1,0(s0)
    35c8:	00500613          	li	a2,5
    35cc:	000a0513          	mv	a0,s4
    35d0:	1b5000ef          	jal	3f84 <memchr>
    35d4:	02012783          	lw	a5,32(sp)
    35d8:	00140693          	addi	a3,s0,1
    35dc:	06051063          	bnez	a0,363c <_vfiprintf_r+0x174>
    35e0:	0107f713          	andi	a4,a5,16
    35e4:	00070663          	beqz	a4,35f0 <_vfiprintf_r+0x128>
    35e8:	02000713          	li	a4,32
    35ec:	06e101a3          	sb	a4,99(sp)
    35f0:	0087f713          	andi	a4,a5,8
    35f4:	00070663          	beqz	a4,3600 <_vfiprintf_r+0x138>
    35f8:	02b00713          	li	a4,43
    35fc:	06e101a3          	sb	a4,99(sp)
    3600:	00044603          	lbu	a2,0(s0)
    3604:	02a00713          	li	a4,42
    3608:	04e60663          	beq	a2,a4,3654 <_vfiprintf_r+0x18c>
    360c:	02c12783          	lw	a5,44(sp)
    3610:	00000693          	li	a3,0
    3614:	00900613          	li	a2,9
    3618:	00a00593          	li	a1,10
    361c:	00044703          	lbu	a4,0(s0)
    3620:	fd070713          	addi	a4,a4,-48
    3624:	08e67c63          	bgeu	a2,a4,36bc <_vfiprintf_r+0x1f4>
    3628:	04068463          	beqz	a3,3670 <_vfiprintf_r+0x1a8>
    362c:	02f12623          	sw	a5,44(sp)
    3630:	0400006f          	j	3670 <_vfiprintf_r+0x1a8>
    3634:	001b8b93          	addi	s7,s7,1
    3638:	f2dff06f          	j	3564 <_vfiprintf_r+0x9c>
    363c:	41450533          	sub	a0,a0,s4
    3640:	00ab1533          	sll	a0,s6,a0
    3644:	00f56533          	or	a0,a0,a5
    3648:	02a12023          	sw	a0,32(sp)
    364c:	00068413          	mv	s0,a3
    3650:	f75ff06f          	j	35c4 <_vfiprintf_r+0xfc>
    3654:	01c12703          	lw	a4,28(sp)
    3658:	00470613          	addi	a2,a4,4
    365c:	00072703          	lw	a4,0(a4)
    3660:	00c12e23          	sw	a2,28(sp)
    3664:	04074263          	bltz	a4,36a8 <_vfiprintf_r+0x1e0>
    3668:	02e12623          	sw	a4,44(sp)
    366c:	00068413          	mv	s0,a3
    3670:	00044703          	lbu	a4,0(s0)
    3674:	02e00793          	li	a5,46
    3678:	04f71e63          	bne	a4,a5,36d4 <_vfiprintf_r+0x20c>
    367c:	00144703          	lbu	a4,1(s0)
    3680:	02a00793          	li	a5,42
    3684:	0cf71e63          	bne	a4,a5,3760 <_vfiprintf_r+0x298>
    3688:	01c12783          	lw	a5,28(sp)
    368c:	00240413          	addi	s0,s0,2
    3690:	00478713          	addi	a4,a5,4
    3694:	0007a783          	lw	a5,0(a5)
    3698:	00e12e23          	sw	a4,28(sp)
    369c:	0207ca63          	bltz	a5,36d0 <_vfiprintf_r+0x208>
    36a0:	02f12223          	sw	a5,36(sp)
    36a4:	0300006f          	j	36d4 <_vfiprintf_r+0x20c>
    36a8:	40e00733          	neg	a4,a4
    36ac:	0027e793          	ori	a5,a5,2
    36b0:	02e12623          	sw	a4,44(sp)
    36b4:	02f12023          	sw	a5,32(sp)
    36b8:	fb5ff06f          	j	366c <_vfiprintf_r+0x1a4>
    36bc:	02b787b3          	mul	a5,a5,a1
    36c0:	00140413          	addi	s0,s0,1
    36c4:	00100693          	li	a3,1
    36c8:	00e787b3          	add	a5,a5,a4
    36cc:	f51ff06f          	j	361c <_vfiprintf_r+0x154>
    36d0:	03312223          	sw	s3,36(sp)
    36d4:	00044583          	lbu	a1,0(s0)
    36d8:	00020bb7          	lui	s7,0x20
    36dc:	00300613          	li	a2,3
    36e0:	4acb8513          	addi	a0,s7,1196 # 204ac <__clz_tab+0x2e0>
    36e4:	0a1000ef          	jal	3f84 <memchr>
    36e8:	02050263          	beqz	a0,370c <_vfiprintf_r+0x244>
    36ec:	02012783          	lw	a5,32(sp)
    36f0:	4acb8b93          	addi	s7,s7,1196
    36f4:	41750533          	sub	a0,a0,s7
    36f8:	04000713          	li	a4,64
    36fc:	00a71733          	sll	a4,a4,a0
    3700:	00e7e7b3          	or	a5,a5,a4
    3704:	00140413          	addi	s0,s0,1
    3708:	02f12023          	sw	a5,32(sp)
    370c:	00044583          	lbu	a1,0(s0)
    3710:	00020537          	lui	a0,0x20
    3714:	00600613          	li	a2,6
    3718:	4b050513          	addi	a0,a0,1200 # 204b0 <__clz_tab+0x2e4>
    371c:	02b10c23          	sb	a1,56(sp)
    3720:	065000ef          	jal	3f84 <memchr>
    3724:	0e050863          	beqz	a0,3814 <_vfiprintf_r+0x34c>
    3728:	00000793          	li	a5,0
    372c:	08079463          	bnez	a5,37b4 <_vfiprintf_r+0x2ec>
    3730:	02012503          	lw	a0,32(sp)
    3734:	01c12783          	lw	a5,28(sp)
    3738:	10057513          	andi	a0,a0,256
    373c:	06050263          	beqz	a0,37a0 <_vfiprintf_r+0x2d8>
    3740:	00478793          	addi	a5,a5,4
    3744:	00f12e23          	sw	a5,28(sp)
    3748:	00000513          	li	a0,0
    374c:	03412783          	lw	a5,52(sp)
    3750:	00140413          	addi	s0,s0,1
    3754:	00a787b3          	add	a5,a5,a0
    3758:	02f12a23          	sw	a5,52(sp)
    375c:	e05ff06f          	j	3560 <_vfiprintf_r+0x98>
    3760:	00140413          	addi	s0,s0,1
    3764:	00000713          	li	a4,0
    3768:	00000793          	li	a5,0
    376c:	00900613          	li	a2,9
    3770:	00a00593          	li	a1,10
    3774:	00044683          	lbu	a3,0(s0)
    3778:	fd068693          	addi	a3,a3,-48
    377c:	00d67863          	bgeu	a2,a3,378c <_vfiprintf_r+0x2c4>
    3780:	40e00733          	neg	a4,a4
    3784:	00e7f7b3          	and	a5,a5,a4
    3788:	f19ff06f          	j	36a0 <_vfiprintf_r+0x1d8>
    378c:	02b787b3          	mul	a5,a5,a1
    3790:	00140413          	addi	s0,s0,1
    3794:	00100713          	li	a4,1
    3798:	00d787b3          	add	a5,a5,a3
    379c:	fd9ff06f          	j	3774 <_vfiprintf_r+0x2ac>
    37a0:	00778793          	addi	a5,a5,7
    37a4:	ff87f793          	andi	a5,a5,-8
    37a8:	00878793          	addi	a5,a5,8
    37ac:	00f12e23          	sw	a5,28(sp)
    37b0:	f9dff06f          	j	374c <_vfiprintf_r+0x284>
    37b4:	000036b7          	lui	a3,0x3
    37b8:	01c10713          	addi	a4,sp,28
    37bc:	45468693          	addi	a3,a3,1108 # 3454 <__sfputs_r>
    37c0:	00048613          	mv	a2,s1
    37c4:	02010593          	addi	a1,sp,32
    37c8:	00090513          	mv	a0,s2
    37cc:	00000097          	auipc	ra,0x0
    37d0:	000000e7          	jalr	zero # 0 <__vector_start>
    37d4:	f7351ce3          	bne	a0,s3,374c <_vfiprintf_r+0x284>
    37d8:	00c4d783          	lhu	a5,12(s1)
    37dc:	0407f793          	andi	a5,a5,64
    37e0:	04078a63          	beqz	a5,3834 <_vfiprintf_r+0x36c>
    37e4:	fff00513          	li	a0,-1
    37e8:	0ac12083          	lw	ra,172(sp)
    37ec:	0a812403          	lw	s0,168(sp)
    37f0:	0a412483          	lw	s1,164(sp)
    37f4:	0a012903          	lw	s2,160(sp)
    37f8:	09c12983          	lw	s3,156(sp)
    37fc:	09812a03          	lw	s4,152(sp)
    3800:	09412a83          	lw	s5,148(sp)
    3804:	09012b03          	lw	s6,144(sp)
    3808:	08c12b83          	lw	s7,140(sp)
    380c:	0b010113          	addi	sp,sp,176
    3810:	00008067          	ret
    3814:	000036b7          	lui	a3,0x3
    3818:	01c10713          	addi	a4,sp,28
    381c:	45468693          	addi	a3,a3,1108 # 3454 <__sfputs_r>
    3820:	00048613          	mv	a2,s1
    3824:	02010593          	addi	a1,sp,32
    3828:	00090513          	mv	a0,s2
    382c:	1bc000ef          	jal	39e8 <_printf_i>
    3830:	fa5ff06f          	j	37d4 <_vfiprintf_r+0x30c>
    3834:	03412503          	lw	a0,52(sp)
    3838:	fb1ff06f          	j	37e8 <_vfiprintf_r+0x320>

0000383c <_printf_common>:
    383c:	fd010113          	addi	sp,sp,-48
    3840:	03212023          	sw	s2,32(sp)
    3844:	0105a783          	lw	a5,16(a1)
    3848:	00070913          	mv	s2,a4
    384c:	0085a703          	lw	a4,8(a1)
    3850:	02812423          	sw	s0,40(sp)
    3854:	01312e23          	sw	s3,28(sp)
    3858:	01612823          	sw	s6,16(sp)
    385c:	01712623          	sw	s7,12(sp)
    3860:	02112623          	sw	ra,44(sp)
    3864:	02912223          	sw	s1,36(sp)
    3868:	01412c23          	sw	s4,24(sp)
    386c:	01512a23          	sw	s5,20(sp)
    3870:	00050b13          	mv	s6,a0
    3874:	00058413          	mv	s0,a1
    3878:	00060993          	mv	s3,a2
    387c:	00068b93          	mv	s7,a3
    3880:	00e7d463          	bge	a5,a4,3888 <_printf_common+0x4c>
    3884:	00070793          	mv	a5,a4
    3888:	00f9a023          	sw	a5,0(s3)
    388c:	04344703          	lbu	a4,67(s0)
    3890:	00070663          	beqz	a4,389c <_printf_common+0x60>
    3894:	00178793          	addi	a5,a5,1
    3898:	00f9a023          	sw	a5,0(s3)
    389c:	00042783          	lw	a5,0(s0)
    38a0:	0207f793          	andi	a5,a5,32
    38a4:	00078863          	beqz	a5,38b4 <_printf_common+0x78>
    38a8:	0009a783          	lw	a5,0(s3)
    38ac:	00278793          	addi	a5,a5,2
    38b0:	00f9a023          	sw	a5,0(s3)
    38b4:	00042483          	lw	s1,0(s0)
    38b8:	0064f493          	andi	s1,s1,6
    38bc:	00049e63          	bnez	s1,38d8 <_printf_common+0x9c>
    38c0:	01940a13          	addi	s4,s0,25
    38c4:	fff00a93          	li	s5,-1
    38c8:	00c42783          	lw	a5,12(s0)
    38cc:	0009a703          	lw	a4,0(s3)
    38d0:	40e787b3          	sub	a5,a5,a4
    38d4:	0af4c863          	blt	s1,a5,3984 <_printf_common+0x148>
    38d8:	00042783          	lw	a5,0(s0)
    38dc:	04344683          	lbu	a3,67(s0)
    38e0:	0207f793          	andi	a5,a5,32
    38e4:	00d036b3          	snez	a3,a3
    38e8:	0a079e63          	bnez	a5,39a4 <_printf_common+0x168>
    38ec:	04340613          	addi	a2,s0,67
    38f0:	000b8593          	mv	a1,s7
    38f4:	000b0513          	mv	a0,s6
    38f8:	000900e7          	jalr	s2
    38fc:	fff00793          	li	a5,-1
    3900:	04f50c63          	beq	a0,a5,3958 <_printf_common+0x11c>
    3904:	00042783          	lw	a5,0(s0)
    3908:	00400713          	li	a4,4
    390c:	00000493          	li	s1,0
    3910:	0067f793          	andi	a5,a5,6
    3914:	00e79e63          	bne	a5,a4,3930 <_printf_common+0xf4>
    3918:	0009a783          	lw	a5,0(s3)
    391c:	00c42483          	lw	s1,12(s0)
    3920:	40f484b3          	sub	s1,s1,a5
    3924:	fff4c793          	not	a5,s1
    3928:	41f7d793          	srai	a5,a5,0x1f
    392c:	00f4f4b3          	and	s1,s1,a5
    3930:	00842783          	lw	a5,8(s0)
    3934:	01042703          	lw	a4,16(s0)
    3938:	00f75663          	bge	a4,a5,3944 <_printf_common+0x108>
    393c:	40e787b3          	sub	a5,a5,a4
    3940:	00f484b3          	add	s1,s1,a5
    3944:	00000993          	li	s3,0
    3948:	01a40413          	addi	s0,s0,26
    394c:	fff00a13          	li	s4,-1
    3950:	07349c63          	bne	s1,s3,39c8 <_printf_common+0x18c>
    3954:	00000513          	li	a0,0
    3958:	02c12083          	lw	ra,44(sp)
    395c:	02812403          	lw	s0,40(sp)
    3960:	02412483          	lw	s1,36(sp)
    3964:	02012903          	lw	s2,32(sp)
    3968:	01c12983          	lw	s3,28(sp)
    396c:	01812a03          	lw	s4,24(sp)
    3970:	01412a83          	lw	s5,20(sp)
    3974:	01012b03          	lw	s6,16(sp)
    3978:	00c12b83          	lw	s7,12(sp)
    397c:	03010113          	addi	sp,sp,48
    3980:	00008067          	ret
    3984:	00100693          	li	a3,1
    3988:	000a0613          	mv	a2,s4
    398c:	000b8593          	mv	a1,s7
    3990:	000b0513          	mv	a0,s6
    3994:	000900e7          	jalr	s2
    3998:	fd5500e3          	beq	a0,s5,3958 <_printf_common+0x11c>
    399c:	00148493          	addi	s1,s1,1
    39a0:	f29ff06f          	j	38c8 <_printf_common+0x8c>
    39a4:	00d40733          	add	a4,s0,a3
    39a8:	03000613          	li	a2,48
    39ac:	04c701a3          	sb	a2,67(a4)
    39b0:	04544703          	lbu	a4,69(s0)
    39b4:	00168793          	addi	a5,a3,1
    39b8:	00f407b3          	add	a5,s0,a5
    39bc:	00268693          	addi	a3,a3,2
    39c0:	04e781a3          	sb	a4,67(a5)
    39c4:	f29ff06f          	j	38ec <_printf_common+0xb0>
    39c8:	00100693          	li	a3,1
    39cc:	00040613          	mv	a2,s0
    39d0:	000b8593          	mv	a1,s7
    39d4:	000b0513          	mv	a0,s6
    39d8:	000900e7          	jalr	s2
    39dc:	f7450ee3          	beq	a0,s4,3958 <_printf_common+0x11c>
    39e0:	00198993          	addi	s3,s3,1
    39e4:	f6dff06f          	j	3950 <_printf_common+0x114>

000039e8 <_printf_i>:
    39e8:	fc010113          	addi	sp,sp,-64
    39ec:	02812c23          	sw	s0,56(sp)
    39f0:	03312623          	sw	s3,44(sp)
    39f4:	01812c23          	sw	s8,24(sp)
    39f8:	01912a23          	sw	s9,20(sp)
    39fc:	02112e23          	sw	ra,60(sp)
    3a00:	02912a23          	sw	s1,52(sp)
    3a04:	03212823          	sw	s2,48(sp)
    3a08:	03412423          	sw	s4,40(sp)
    3a0c:	03512223          	sw	s5,36(sp)
    3a10:	03612023          	sw	s6,32(sp)
    3a14:	01712e23          	sw	s7,28(sp)
    3a18:	0185c783          	lbu	a5,24(a1)
    3a1c:	00068993          	mv	s3,a3
    3a20:	07800693          	li	a3,120
    3a24:	00050c13          	mv	s8,a0
    3a28:	00058413          	mv	s0,a1
    3a2c:	00060c93          	mv	s9,a2
    3a30:	00f6ee63          	bltu	a3,a5,3a4c <_printf_i+0x64>
    3a34:	06200693          	li	a3,98
    3a38:	04358a13          	addi	s4,a1,67
    3a3c:	00f6ec63          	bltu	a3,a5,3a54 <_printf_i+0x6c>
    3a40:	2c078e63          	beqz	a5,3d1c <_printf_i+0x334>
    3a44:	05800693          	li	a3,88
    3a48:	10d78c63          	beq	a5,a3,3b60 <_printf_i+0x178>
    3a4c:	04240b13          	addi	s6,s0,66
    3a50:	0400006f          	j	3a90 <_printf_i+0xa8>
    3a54:	f9d78693          	addi	a3,a5,-99
    3a58:	0ff6f693          	zext.b	a3,a3
    3a5c:	01500613          	li	a2,21
    3a60:	fed666e3          	bltu	a2,a3,3a4c <_printf_i+0x64>
    3a64:	00020637          	lui	a2,0x20
    3a68:	00269693          	slli	a3,a3,0x2
    3a6c:	15c60613          	addi	a2,a2,348 # 2015c <jump_table.19+0x6c>
    3a70:	00c686b3          	add	a3,a3,a2
    3a74:	0006a683          	lw	a3,0(a3)
    3a78:	00068067          	jr	a3
    3a7c:	00072783          	lw	a5,0(a4)
    3a80:	04258b13          	addi	s6,a1,66
    3a84:	00478693          	addi	a3,a5,4
    3a88:	0007a783          	lw	a5,0(a5)
    3a8c:	00d72023          	sw	a3,0(a4)
    3a90:	04f40123          	sb	a5,66(s0)
    3a94:	00100793          	li	a5,1
    3a98:	2c00006f          	j	3d58 <_printf_i+0x370>
    3a9c:	0005a783          	lw	a5,0(a1)
    3aa0:	00072603          	lw	a2,0(a4)
    3aa4:	0807f593          	andi	a1,a5,128
    3aa8:	00460693          	addi	a3,a2,4
    3aac:	02058663          	beqz	a1,3ad8 <_printf_i+0xf0>
    3ab0:	00062483          	lw	s1,0(a2)
    3ab4:	00d72023          	sw	a3,0(a4)
    3ab8:	000207b7          	lui	a5,0x20
    3abc:	0004d863          	bgez	s1,3acc <_printf_i+0xe4>
    3ac0:	02d00713          	li	a4,45
    3ac4:	409004b3          	neg	s1,s1
    3ac8:	04e401a3          	sb	a4,67(s0)
    3acc:	4b878b93          	addi	s7,a5,1208 # 204b8 <__clz_tab+0x2ec>
    3ad0:	00a00913          	li	s2,10
    3ad4:	0e40006f          	j	3bb8 <_printf_i+0x1d0>
    3ad8:	00062483          	lw	s1,0(a2)
    3adc:	0407f793          	andi	a5,a5,64
    3ae0:	00d72023          	sw	a3,0(a4)
    3ae4:	fc078ae3          	beqz	a5,3ab8 <_printf_i+0xd0>
    3ae8:	01049493          	slli	s1,s1,0x10
    3aec:	4104d493          	srai	s1,s1,0x10
    3af0:	fc9ff06f          	j	3ab8 <_printf_i+0xd0>
    3af4:	0005a683          	lw	a3,0(a1)
    3af8:	00072783          	lw	a5,0(a4)
    3afc:	0806f593          	andi	a1,a3,128
    3b00:	00478613          	addi	a2,a5,4
    3b04:	00058863          	beqz	a1,3b14 <_printf_i+0x12c>
    3b08:	00c72023          	sw	a2,0(a4)
    3b0c:	0007a483          	lw	s1,0(a5)
    3b10:	0140006f          	j	3b24 <_printf_i+0x13c>
    3b14:	0406f693          	andi	a3,a3,64
    3b18:	00c72023          	sw	a2,0(a4)
    3b1c:	fe0688e3          	beqz	a3,3b0c <_printf_i+0x124>
    3b20:	0007d483          	lhu	s1,0(a5)
    3b24:	01844683          	lbu	a3,24(s0)
    3b28:	000207b7          	lui	a5,0x20
    3b2c:	06f00713          	li	a4,111
    3b30:	4b878b93          	addi	s7,a5,1208 # 204b8 <__clz_tab+0x2ec>
    3b34:	00800913          	li	s2,8
    3b38:	06e68e63          	beq	a3,a4,3bb4 <_printf_i+0x1cc>
    3b3c:	00a00913          	li	s2,10
    3b40:	0740006f          	j	3bb4 <_printf_i+0x1cc>
    3b44:	0005a783          	lw	a5,0(a1)
    3b48:	0207e793          	ori	a5,a5,32
    3b4c:	00f5a023          	sw	a5,0(a1)
    3b50:	07800793          	li	a5,120
    3b54:	00020bb7          	lui	s7,0x20
    3b58:	4ccb8b93          	addi	s7,s7,1228 # 204cc <__clz_tab+0x300>
    3b5c:	00c0006f          	j	3b68 <_printf_i+0x180>
    3b60:	00020bb7          	lui	s7,0x20
    3b64:	4b8b8b93          	addi	s7,s7,1208 # 204b8 <__clz_tab+0x2ec>
    3b68:	04f402a3          	sb	a5,69(s0)
    3b6c:	00042783          	lw	a5,0(s0)
    3b70:	00072683          	lw	a3,0(a4)
    3b74:	0807f593          	andi	a1,a5,128
    3b78:	00468613          	addi	a2,a3,4
    3b7c:	00058863          	beqz	a1,3b8c <_printf_i+0x1a4>
    3b80:	00c72023          	sw	a2,0(a4)
    3b84:	0006a483          	lw	s1,0(a3)
    3b88:	0140006f          	j	3b9c <_printf_i+0x1b4>
    3b8c:	0407f593          	andi	a1,a5,64
    3b90:	00c72023          	sw	a2,0(a4)
    3b94:	fe0588e3          	beqz	a1,3b84 <_printf_i+0x19c>
    3b98:	0006d483          	lhu	s1,0(a3)
    3b9c:	0017f713          	andi	a4,a5,1
    3ba0:	00070663          	beqz	a4,3bac <_printf_i+0x1c4>
    3ba4:	0207e793          	ori	a5,a5,32
    3ba8:	00f42023          	sw	a5,0(s0)
    3bac:	12048263          	beqz	s1,3cd0 <_printf_i+0x2e8>
    3bb0:	01000913          	li	s2,16
    3bb4:	040401a3          	sb	zero,67(s0)
    3bb8:	00442783          	lw	a5,4(s0)
    3bbc:	00f42423          	sw	a5,8(s0)
    3bc0:	0007ce63          	bltz	a5,3bdc <_printf_i+0x1f4>
    3bc4:	00042703          	lw	a4,0(s0)
    3bc8:	00f4e7b3          	or	a5,s1,a5
    3bcc:	000a0b13          	mv	s6,s4
    3bd0:	ffb77713          	andi	a4,a4,-5
    3bd4:	00e42023          	sw	a4,0(s0)
    3bd8:	02078e63          	beqz	a5,3c14 <_printf_i+0x22c>
    3bdc:	000a0b13          	mv	s6,s4
    3be0:	00090593          	mv	a1,s2
    3be4:	00048513          	mv	a0,s1
    3be8:	504020ef          	jal	60ec <__umodsi3>
    3bec:	00ab8533          	add	a0,s7,a0
    3bf0:	00054783          	lbu	a5,0(a0)
    3bf4:	00090593          	mv	a1,s2
    3bf8:	00048513          	mv	a0,s1
    3bfc:	fefb0fa3          	sb	a5,-1(s6)
    3c00:	00048a93          	mv	s5,s1
    3c04:	4a0020ef          	jal	60a4 <__hidden___udivsi3>
    3c08:	fffb0b13          	addi	s6,s6,-1
    3c0c:	00050493          	mv	s1,a0
    3c10:	fd2af8e3          	bgeu	s5,s2,3be0 <_printf_i+0x1f8>
    3c14:	00800793          	li	a5,8
    3c18:	02f91463          	bne	s2,a5,3c40 <_printf_i+0x258>
    3c1c:	00042783          	lw	a5,0(s0)
    3c20:	0017f793          	andi	a5,a5,1
    3c24:	00078e63          	beqz	a5,3c40 <_printf_i+0x258>
    3c28:	00442703          	lw	a4,4(s0)
    3c2c:	01042783          	lw	a5,16(s0)
    3c30:	00e7c863          	blt	a5,a4,3c40 <_printf_i+0x258>
    3c34:	03000793          	li	a5,48
    3c38:	fefb0fa3          	sb	a5,-1(s6)
    3c3c:	fffb0b13          	addi	s6,s6,-1
    3c40:	416a0a33          	sub	s4,s4,s6
    3c44:	01442823          	sw	s4,16(s0)
    3c48:	00098713          	mv	a4,s3
    3c4c:	000c8693          	mv	a3,s9
    3c50:	00c10613          	addi	a2,sp,12
    3c54:	00040593          	mv	a1,s0
    3c58:	000c0513          	mv	a0,s8
    3c5c:	be1ff0ef          	jal	383c <_printf_common>
    3c60:	fff00913          	li	s2,-1
    3c64:	03250c63          	beq	a0,s2,3c9c <_printf_i+0x2b4>
    3c68:	01042683          	lw	a3,16(s0)
    3c6c:	000b0613          	mv	a2,s6
    3c70:	000c8593          	mv	a1,s9
    3c74:	000c0513          	mv	a0,s8
    3c78:	000980e7          	jalr	s3
    3c7c:	03250063          	beq	a0,s2,3c9c <_printf_i+0x2b4>
    3c80:	00042783          	lw	a5,0(s0)
    3c84:	0027f793          	andi	a5,a5,2
    3c88:	10079663          	bnez	a5,3d94 <_printf_i+0x3ac>
    3c8c:	00c12783          	lw	a5,12(sp)
    3c90:	00c42503          	lw	a0,12(s0)
    3c94:	00f55463          	bge	a0,a5,3c9c <_printf_i+0x2b4>
    3c98:	00078513          	mv	a0,a5
    3c9c:	03c12083          	lw	ra,60(sp)
    3ca0:	03812403          	lw	s0,56(sp)
    3ca4:	03412483          	lw	s1,52(sp)
    3ca8:	03012903          	lw	s2,48(sp)
    3cac:	02c12983          	lw	s3,44(sp)
    3cb0:	02812a03          	lw	s4,40(sp)
    3cb4:	02412a83          	lw	s5,36(sp)
    3cb8:	02012b03          	lw	s6,32(sp)
    3cbc:	01c12b83          	lw	s7,28(sp)
    3cc0:	01812c03          	lw	s8,24(sp)
    3cc4:	01412c83          	lw	s9,20(sp)
    3cc8:	04010113          	addi	sp,sp,64
    3ccc:	00008067          	ret
    3cd0:	00042783          	lw	a5,0(s0)
    3cd4:	fdf7f793          	andi	a5,a5,-33
    3cd8:	00f42023          	sw	a5,0(s0)
    3cdc:	ed5ff06f          	j	3bb0 <_printf_i+0x1c8>
    3ce0:	0005a683          	lw	a3,0(a1)
    3ce4:	00072783          	lw	a5,0(a4)
    3ce8:	0145a603          	lw	a2,20(a1)
    3cec:	0806f513          	andi	a0,a3,128
    3cf0:	00478593          	addi	a1,a5,4
    3cf4:	00050a63          	beqz	a0,3d08 <_printf_i+0x320>
    3cf8:	00b72023          	sw	a1,0(a4)
    3cfc:	0007a783          	lw	a5,0(a5)
    3d00:	00c7a023          	sw	a2,0(a5)
    3d04:	0180006f          	j	3d1c <_printf_i+0x334>
    3d08:	00b72023          	sw	a1,0(a4)
    3d0c:	0406f693          	andi	a3,a3,64
    3d10:	0007a783          	lw	a5,0(a5)
    3d14:	fe0686e3          	beqz	a3,3d00 <_printf_i+0x318>
    3d18:	00c79023          	sh	a2,0(a5)
    3d1c:	00042823          	sw	zero,16(s0)
    3d20:	000a0b13          	mv	s6,s4
    3d24:	f25ff06f          	j	3c48 <_printf_i+0x260>
    3d28:	00072783          	lw	a5,0(a4)
    3d2c:	0045a603          	lw	a2,4(a1)
    3d30:	00000593          	li	a1,0
    3d34:	00478693          	addi	a3,a5,4
    3d38:	00d72023          	sw	a3,0(a4)
    3d3c:	0007ab03          	lw	s6,0(a5)
    3d40:	000b0513          	mv	a0,s6
    3d44:	240000ef          	jal	3f84 <memchr>
    3d48:	00050663          	beqz	a0,3d54 <_printf_i+0x36c>
    3d4c:	41650533          	sub	a0,a0,s6
    3d50:	00a42223          	sw	a0,4(s0)
    3d54:	00442783          	lw	a5,4(s0)
    3d58:	00f42823          	sw	a5,16(s0)
    3d5c:	040401a3          	sb	zero,67(s0)
    3d60:	ee9ff06f          	j	3c48 <_printf_i+0x260>
    3d64:	00100693          	li	a3,1
    3d68:	01940613          	addi	a2,s0,25
    3d6c:	000c8593          	mv	a1,s9
    3d70:	000c0513          	mv	a0,s8
    3d74:	000980e7          	jalr	s3
    3d78:	f32502e3          	beq	a0,s2,3c9c <_printf_i+0x2b4>
    3d7c:	00148493          	addi	s1,s1,1
    3d80:	00c42783          	lw	a5,12(s0)
    3d84:	00c12703          	lw	a4,12(sp)
    3d88:	40e787b3          	sub	a5,a5,a4
    3d8c:	fcf4cce3          	blt	s1,a5,3d64 <_printf_i+0x37c>
    3d90:	efdff06f          	j	3c8c <_printf_i+0x2a4>
    3d94:	00000493          	li	s1,0
    3d98:	fe9ff06f          	j	3d80 <_printf_i+0x398>

00003d9c <__swhatbuf_r>:
    3d9c:	f8010113          	addi	sp,sp,-128
    3da0:	06812c23          	sw	s0,120(sp)
    3da4:	00058413          	mv	s0,a1
    3da8:	00e59583          	lh	a1,14(a1)
    3dac:	06912a23          	sw	s1,116(sp)
    3db0:	06112e23          	sw	ra,124(sp)
    3db4:	00060493          	mv	s1,a2
    3db8:	0005cc63          	bltz	a1,3dd0 <__swhatbuf_r+0x34>
    3dbc:	01810613          	addi	a2,sp,24
    3dc0:	00d12623          	sw	a3,12(sp)
    3dc4:	12c000ef          	jal	3ef0 <_fstat_r>
    3dc8:	00c12683          	lw	a3,12(sp)
    3dcc:	02055c63          	bgez	a0,3e04 <__swhatbuf_r+0x68>
    3dd0:	00c45783          	lhu	a5,12(s0)
    3dd4:	0807f793          	andi	a5,a5,128
    3dd8:	04078263          	beqz	a5,3e1c <__swhatbuf_r+0x80>
    3ddc:	00000793          	li	a5,0
    3de0:	04000713          	li	a4,64
    3de4:	07c12083          	lw	ra,124(sp)
    3de8:	07812403          	lw	s0,120(sp)
    3dec:	00f6a023          	sw	a5,0(a3)
    3df0:	00e4a023          	sw	a4,0(s1)
    3df4:	00000513          	li	a0,0
    3df8:	07412483          	lw	s1,116(sp)
    3dfc:	08010113          	addi	sp,sp,128
    3e00:	00008067          	ret
    3e04:	01c12783          	lw	a5,28(sp)
    3e08:	0000f737          	lui	a4,0xf
    3e0c:	00e7f7b3          	and	a5,a5,a4
    3e10:	ffffe737          	lui	a4,0xffffe
    3e14:	00e787b3          	add	a5,a5,a4
    3e18:	0017b793          	seqz	a5,a5
    3e1c:	40000713          	li	a4,1024
    3e20:	fc5ff06f          	j	3de4 <__swhatbuf_r+0x48>

00003e24 <__smakebuf_r>:
    3e24:	00c5d703          	lhu	a4,12(a1)
    3e28:	fd010113          	addi	sp,sp,-48
    3e2c:	02812423          	sw	s0,40(sp)
    3e30:	02112623          	sw	ra,44(sp)
    3e34:	02912223          	sw	s1,36(sp)
    3e38:	00277713          	andi	a4,a4,2
    3e3c:	00058413          	mv	s0,a1
    3e40:	02070663          	beqz	a4,3e6c <__smakebuf_r+0x48>
    3e44:	04740793          	addi	a5,s0,71
    3e48:	00f42023          	sw	a5,0(s0)
    3e4c:	00f42823          	sw	a5,16(s0)
    3e50:	00100793          	li	a5,1
    3e54:	00f42a23          	sw	a5,20(s0)
    3e58:	02c12083          	lw	ra,44(sp)
    3e5c:	02812403          	lw	s0,40(sp)
    3e60:	02412483          	lw	s1,36(sp)
    3e64:	03010113          	addi	sp,sp,48
    3e68:	00008067          	ret
    3e6c:	01c10693          	addi	a3,sp,28
    3e70:	01810613          	addi	a2,sp,24
    3e74:	00050493          	mv	s1,a0
    3e78:	f25ff0ef          	jal	3d9c <__swhatbuf_r>
    3e7c:	01812583          	lw	a1,24(sp)
    3e80:	00048513          	mv	a0,s1
    3e84:	00b12623          	sw	a1,12(sp)
    3e88:	d89fe0ef          	jal	2c10 <_malloc_r>
    3e8c:	00c41783          	lh	a5,12(s0)
    3e90:	00c12583          	lw	a1,12(sp)
    3e94:	00051e63          	bnez	a0,3eb0 <__smakebuf_r+0x8c>
    3e98:	2007f713          	andi	a4,a5,512
    3e9c:	fa071ee3          	bnez	a4,3e58 <__smakebuf_r+0x34>
    3ea0:	ffc7f793          	andi	a5,a5,-4
    3ea4:	0027e793          	ori	a5,a5,2
    3ea8:	00f41623          	sh	a5,12(s0)
    3eac:	f99ff06f          	j	3e44 <__smakebuf_r+0x20>
    3eb0:	0807e793          	ori	a5,a5,128
    3eb4:	00f41623          	sh	a5,12(s0)
    3eb8:	01c12783          	lw	a5,28(sp)
    3ebc:	00a42023          	sw	a0,0(s0)
    3ec0:	00a42823          	sw	a0,16(s0)
    3ec4:	00b42a23          	sw	a1,20(s0)
    3ec8:	f80788e3          	beqz	a5,3e58 <__smakebuf_r+0x34>
    3ecc:	00e41583          	lh	a1,14(s0)
    3ed0:	00048513          	mv	a0,s1
    3ed4:	068000ef          	jal	3f3c <_isatty_r>
    3ed8:	f80500e3          	beqz	a0,3e58 <__smakebuf_r+0x34>
    3edc:	00c45783          	lhu	a5,12(s0)
    3ee0:	ffc7f793          	andi	a5,a5,-4
    3ee4:	0017e793          	ori	a5,a5,1
    3ee8:	00f41623          	sh	a5,12(s0)
    3eec:	f6dff06f          	j	3e58 <__smakebuf_r+0x34>

00003ef0 <_fstat_r>:
    3ef0:	ff010113          	addi	sp,sp,-16
    3ef4:	00812423          	sw	s0,8(sp)
    3ef8:	00912223          	sw	s1,4(sp)
    3efc:	00050493          	mv	s1,a0
    3f00:	00058513          	mv	a0,a1
    3f04:	00060593          	mv	a1,a2
    3f08:	00112623          	sw	ra,12(sp)
    3f0c:	9601a223          	sw	zero,-1692(gp) # 2098c <errno>
    3f10:	924fe0ef          	jal	2034 <_fstat>
    3f14:	fff00793          	li	a5,-1
    3f18:	00f51863          	bne	a0,a5,3f28 <_fstat_r+0x38>
    3f1c:	9641a783          	lw	a5,-1692(gp) # 2098c <errno>
    3f20:	00078463          	beqz	a5,3f28 <_fstat_r+0x38>
    3f24:	00f4a023          	sw	a5,0(s1)
    3f28:	00c12083          	lw	ra,12(sp)
    3f2c:	00812403          	lw	s0,8(sp)
    3f30:	00412483          	lw	s1,4(sp)
    3f34:	01010113          	addi	sp,sp,16
    3f38:	00008067          	ret

00003f3c <_isatty_r>:
    3f3c:	ff010113          	addi	sp,sp,-16
    3f40:	00812423          	sw	s0,8(sp)
    3f44:	00912223          	sw	s1,4(sp)
    3f48:	00050493          	mv	s1,a0
    3f4c:	00058513          	mv	a0,a1
    3f50:	00112623          	sw	ra,12(sp)
    3f54:	9601a223          	sw	zero,-1692(gp) # 2098c <errno>
    3f58:	8ecfe0ef          	jal	2044 <_isatty>
    3f5c:	fff00793          	li	a5,-1
    3f60:	00f51863          	bne	a0,a5,3f70 <_isatty_r+0x34>
    3f64:	9641a783          	lw	a5,-1692(gp) # 2098c <errno>
    3f68:	00078463          	beqz	a5,3f70 <_isatty_r+0x34>
    3f6c:	00f4a023          	sw	a5,0(s1)
    3f70:	00c12083          	lw	ra,12(sp)
    3f74:	00812403          	lw	s0,8(sp)
    3f78:	00412483          	lw	s1,4(sp)
    3f7c:	01010113          	addi	sp,sp,16
    3f80:	00008067          	ret

00003f84 <memchr>:
    3f84:	0ff5f593          	zext.b	a1,a1
    3f88:	00c50633          	add	a2,a0,a2
    3f8c:	00c51663          	bne	a0,a2,3f98 <memchr+0x14>
    3f90:	00000513          	li	a0,0
    3f94:	00008067          	ret
    3f98:	00054783          	lbu	a5,0(a0)
    3f9c:	feb78ce3          	beq	a5,a1,3f94 <memchr+0x10>
    3fa0:	00150513          	addi	a0,a0,1
    3fa4:	fe9ff06f          	j	3f8c <memchr+0x8>

00003fa8 <sqrt>:
    3fa8:	fe010113          	addi	sp,sp,-32
    3fac:	00812c23          	sw	s0,24(sp)
    3fb0:	00912a23          	sw	s1,20(sp)
    3fb4:	01212823          	sw	s2,16(sp)
    3fb8:	01312623          	sw	s3,12(sp)
    3fbc:	00050913          	mv	s2,a0
    3fc0:	00058993          	mv	s3,a1
    3fc4:	00112e23          	sw	ra,28(sp)
    3fc8:	088000ef          	jal	4050 <__ieee754_sqrt>
    3fcc:	00050493          	mv	s1,a0
    3fd0:	00058413          	mv	s0,a1
    3fd4:	00090613          	mv	a2,s2
    3fd8:	00098693          	mv	a3,s3
    3fdc:	00090513          	mv	a0,s2
    3fe0:	00098593          	mv	a1,s3
    3fe4:	04c020ef          	jal	6030 <__unorddf2>
    3fe8:	04051263          	bnez	a0,402c <__heap_size+0x2c>
    3fec:	00000613          	li	a2,0
    3ff0:	00000693          	li	a3,0
    3ff4:	00090513          	mv	a0,s2
    3ff8:	00098593          	mv	a1,s3
    3ffc:	1a0020ef          	jal	619c <__ledf2>
    4000:	02055663          	bgez	a0,402c <__heap_size+0x2c>
    4004:	bf0ff0ef          	jal	33f4 <__errno>
    4008:	02100793          	li	a5,33
    400c:	00000613          	li	a2,0
    4010:	00000693          	li	a3,0
    4014:	00f52023          	sw	a5,0(a0)
    4018:	00068593          	mv	a1,a3
    401c:	00060513          	mv	a0,a2
    4020:	255000ef          	jal	4a74 <__divdf3>
    4024:	00050493          	mv	s1,a0
    4028:	00058413          	mv	s0,a1
    402c:	01c12083          	lw	ra,28(sp)
    4030:	00040593          	mv	a1,s0
    4034:	01812403          	lw	s0,24(sp)
    4038:	01012903          	lw	s2,16(sp)
    403c:	00c12983          	lw	s3,12(sp)
    4040:	00048513          	mv	a0,s1
    4044:	01412483          	lw	s1,20(sp)
    4048:	02010113          	addi	sp,sp,32
    404c:	00008067          	ret

00004050 <__ieee754_sqrt>:
    4050:	fd010113          	addi	sp,sp,-48
    4054:	7ff007b7          	lui	a5,0x7ff00
    4058:	02812423          	sw	s0,40(sp)
    405c:	02912223          	sw	s1,36(sp)
    4060:	02112623          	sw	ra,44(sp)
    4064:	03212023          	sw	s2,32(sp)
    4068:	01312e23          	sw	s3,28(sp)
    406c:	01412c23          	sw	s4,24(sp)
    4070:	01512a23          	sw	s5,20(sp)
    4074:	01612823          	sw	s6,16(sp)
    4078:	01712623          	sw	s7,12(sp)
    407c:	00b7f733          	and	a4,a5,a1
    4080:	00050493          	mv	s1,a0
    4084:	00058413          	mv	s0,a1
    4088:	06f71063          	bne	a4,a5,40e8 <__ieee754_sqrt+0x98>
    408c:	00050613          	mv	a2,a0
    4090:	00058693          	mv	a3,a1
    4094:	1a4010ef          	jal	5238 <__muldf3>
    4098:	00050613          	mv	a2,a0
    409c:	00058693          	mv	a3,a1
    40a0:	00048513          	mv	a0,s1
    40a4:	00040593          	mv	a1,s0
    40a8:	280000ef          	jal	4328 <__adddf3>
    40ac:	00050493          	mv	s1,a0
    40b0:	00058413          	mv	s0,a1
    40b4:	02c12083          	lw	ra,44(sp)
    40b8:	00040593          	mv	a1,s0
    40bc:	02812403          	lw	s0,40(sp)
    40c0:	02012903          	lw	s2,32(sp)
    40c4:	01c12983          	lw	s3,28(sp)
    40c8:	01812a03          	lw	s4,24(sp)
    40cc:	01412a83          	lw	s5,20(sp)
    40d0:	01012b03          	lw	s6,16(sp)
    40d4:	00c12b83          	lw	s7,12(sp)
    40d8:	00048513          	mv	a0,s1
    40dc:	02412483          	lw	s1,36(sp)
    40e0:	03010113          	addi	sp,sp,48
    40e4:	00008067          	ret
    40e8:	00058713          	mv	a4,a1
    40ec:	00050793          	mv	a5,a0
    40f0:	02b04c63          	bgtz	a1,4128 <__ieee754_sqrt+0xd8>
    40f4:	00159693          	slli	a3,a1,0x1
    40f8:	0016d693          	srli	a3,a3,0x1
    40fc:	00a6e6b3          	or	a3,a3,a0
    4100:	fa068ae3          	beqz	a3,40b4 <__ieee754_sqrt+0x64>
    4104:	00000693          	li	a3,0
    4108:	02058e63          	beqz	a1,4144 <__ieee754_sqrt+0xf4>
    410c:	00050613          	mv	a2,a0
    4110:	00058693          	mv	a3,a1
    4114:	7c0010ef          	jal	58d4 <__subdf3>
    4118:	00050613          	mv	a2,a0
    411c:	00058693          	mv	a3,a1
    4120:	155000ef          	jal	4a74 <__divdf3>
    4124:	f89ff06f          	j	40ac <__ieee754_sqrt+0x5c>
    4128:	4145d693          	srai	a3,a1,0x14
    412c:	04069663          	bnez	a3,4178 <__ieee754_sqrt+0x128>
    4130:	00000613          	li	a2,0
    4134:	0200006f          	j	4154 <__ieee754_sqrt+0x104>
    4138:	00b7d713          	srli	a4,a5,0xb
    413c:	feb68693          	addi	a3,a3,-21
    4140:	01579793          	slli	a5,a5,0x15
    4144:	fe070ae3          	beqz	a4,4138 <__ieee754_sqrt+0xe8>
    4148:	fe9ff06f          	j	4130 <__ieee754_sqrt+0xe0>
    414c:	00171713          	slli	a4,a4,0x1
    4150:	00160613          	addi	a2,a2,1
    4154:	00b71593          	slli	a1,a4,0xb
    4158:	fe05dae3          	bgez	a1,414c <__ieee754_sqrt+0xfc>
    415c:	fff60593          	addi	a1,a2,-1
    4160:	40b686b3          	sub	a3,a3,a1
    4164:	02000593          	li	a1,32
    4168:	40c585b3          	sub	a1,a1,a2
    416c:	00b7d5b3          	srl	a1,a5,a1
    4170:	00b76733          	or	a4,a4,a1
    4174:	00c797b3          	sll	a5,a5,a2
    4178:	c0168613          	addi	a2,a3,-1023
    417c:	00c71693          	slli	a3,a4,0xc
    4180:	00c6d693          	srli	a3,a3,0xc
    4184:	00100737          	lui	a4,0x100
    4188:	00e6e6b3          	or	a3,a3,a4
    418c:	00167713          	andi	a4,a2,1
    4190:	00070a63          	beqz	a4,41a4 <__ieee754_sqrt+0x154>
    4194:	01f7d713          	srli	a4,a5,0x1f
    4198:	00169693          	slli	a3,a3,0x1
    419c:	00d706b3          	add	a3,a4,a3
    41a0:	00179793          	slli	a5,a5,0x1
    41a4:	01f7d713          	srli	a4,a5,0x1f
    41a8:	00169693          	slli	a3,a3,0x1
    41ac:	40165413          	srai	s0,a2,0x1
    41b0:	00d70733          	add	a4,a4,a3
    41b4:	00179793          	slli	a5,a5,0x1
    41b8:	01600693          	li	a3,22
    41bc:	00000993          	li	s3,0
    41c0:	00000613          	li	a2,0
    41c4:	002005b7          	lui	a1,0x200
    41c8:	00b60533          	add	a0,a2,a1
    41cc:	00a74863          	blt	a4,a0,41dc <__ieee754_sqrt+0x18c>
    41d0:	00b50633          	add	a2,a0,a1
    41d4:	40a70733          	sub	a4,a4,a0
    41d8:	00b989b3          	add	s3,s3,a1
    41dc:	01f7d513          	srli	a0,a5,0x1f
    41e0:	00171713          	slli	a4,a4,0x1
    41e4:	fff68693          	addi	a3,a3,-1
    41e8:	00e50733          	add	a4,a0,a4
    41ec:	00179793          	slli	a5,a5,0x1
    41f0:	0015d593          	srli	a1,a1,0x1
    41f4:	fc069ae3          	bnez	a3,41c8 <__ieee754_sqrt+0x178>
    41f8:	00000913          	li	s2,0
    41fc:	02000a13          	li	s4,32
    4200:	800005b7          	lui	a1,0x80000
    4204:	00d58833          	add	a6,a1,a3
    4208:	40c708b3          	sub	a7,a4,a2
    420c:	00e64663          	blt	a2,a4,4218 <__ieee754_sqrt+0x1c8>
    4210:	02089663          	bnez	a7,423c <__ieee754_sqrt+0x1ec>
    4214:	0307e463          	bltu	a5,a6,423c <__ieee754_sqrt+0x1ec>
    4218:	00b806b3          	add	a3,a6,a1
    421c:	fff6c513          	not	a0,a3
    4220:	01057533          	and	a0,a0,a6
    4224:	0107b733          	sltu	a4,a5,a6
    4228:	01f55513          	srli	a0,a0,0x1f
    422c:	40e88733          	sub	a4,a7,a4
    4230:	410787b3          	sub	a5,a5,a6
    4234:	00b90933          	add	s2,s2,a1
    4238:	00c50633          	add	a2,a0,a2
    423c:	01f7d513          	srli	a0,a5,0x1f
    4240:	00171713          	slli	a4,a4,0x1
    4244:	fffa0a13          	addi	s4,s4,-1
    4248:	00e50733          	add	a4,a0,a4
    424c:	00179793          	slli	a5,a5,0x1
    4250:	0015d593          	srli	a1,a1,0x1
    4254:	fa0a18e3          	bnez	s4,4204 <__ieee754_sqrt+0x1b4>
    4258:	00f76733          	or	a4,a4,a5
    425c:	04070063          	beqz	a4,429c <__ieee754_sqrt+0x24c>
    4260:	9501a503          	lw	a0,-1712(gp) # 20978 <one>
    4264:	9541a583          	lw	a1,-1708(gp) # 2097c <one+0x4>
    4268:	9481a603          	lw	a2,-1720(gp) # 20970 <tiny>
    426c:	94c1a683          	lw	a3,-1716(gp) # 20974 <tiny+0x4>
    4270:	9501a783          	lw	a5,-1712(gp) # 20978 <one>
    4274:	9541a803          	lw	a6,-1708(gp) # 2097c <one+0x4>
    4278:	00078b13          	mv	s6,a5
    427c:	00080b93          	mv	s7,a6
    4280:	654010ef          	jal	58d4 <__subdf3>
    4284:	00050613          	mv	a2,a0
    4288:	00058693          	mv	a3,a1
    428c:	000b0513          	mv	a0,s6
    4290:	000b8593          	mv	a1,s7
    4294:	709010ef          	jal	619c <__ledf2>
    4298:	02a05663          	blez	a0,42c4 <__ieee754_sqrt+0x274>
    429c:	00090a13          	mv	s4,s2
    42a0:	3fe007b7          	lui	a5,0x3fe00
    42a4:	4019d593          	srai	a1,s3,0x1
    42a8:	00f585b3          	add	a1,a1,a5
    42ac:	01441613          	slli	a2,s0,0x14
    42b0:	01f99793          	slli	a5,s3,0x1f
    42b4:	001a5713          	srli	a4,s4,0x1
    42b8:	00e7e4b3          	or	s1,a5,a4
    42bc:	00b60433          	add	s0,a2,a1
    42c0:	df5ff06f          	j	40b4 <__ieee754_sqrt+0x64>
    42c4:	9501a503          	lw	a0,-1712(gp) # 20978 <one>
    42c8:	9541a583          	lw	a1,-1708(gp) # 2097c <one+0x4>
    42cc:	9481a603          	lw	a2,-1720(gp) # 20970 <tiny>
    42d0:	94c1a683          	lw	a3,-1716(gp) # 20974 <tiny+0x4>
    42d4:	fff00793          	li	a5,-1
    42d8:	00f91663          	bne	s2,a5,42e4 <__ieee754_sqrt+0x294>
    42dc:	00198993          	addi	s3,s3,1
    42e0:	fc1ff06f          	j	42a0 <__ieee754_sqrt+0x250>
    42e4:	9501aa03          	lw	s4,-1712(gp) # 20978 <one>
    42e8:	9541aa83          	lw	s5,-1708(gp) # 2097c <one+0x4>
    42ec:	03c000ef          	jal	4328 <__adddf3>
    42f0:	00050613          	mv	a2,a0
    42f4:	00058693          	mv	a3,a1
    42f8:	000a0513          	mv	a0,s4
    42fc:	000a8593          	mv	a1,s5
    4300:	69d010ef          	jal	619c <__ledf2>
    4304:	00055c63          	bgez	a0,431c <__ieee754_sqrt+0x2cc>
    4308:	00290713          	addi	a4,s2,2
    430c:	00173793          	seqz	a5,a4
    4310:	00f989b3          	add	s3,s3,a5
    4314:	00070a13          	mv	s4,a4
    4318:	f89ff06f          	j	42a0 <__ieee754_sqrt+0x250>
    431c:	00190713          	addi	a4,s2,1
    4320:	ffe77a13          	andi	s4,a4,-2
    4324:	f7dff06f          	j	42a0 <__ieee754_sqrt+0x250>

00004328 <__adddf3>:
    4328:	00c59793          	slli	a5,a1,0xc
    432c:	fe010113          	addi	sp,sp,-32
    4330:	01d55713          	srli	a4,a0,0x1d
    4334:	0097d793          	srli	a5,a5,0x9
    4338:	0146d893          	srli	a7,a3,0x14
    433c:	00812c23          	sw	s0,24(sp)
    4340:	00f767b3          	or	a5,a4,a5
    4344:	0145d413          	srli	s0,a1,0x14
    4348:	00c69713          	slli	a4,a3,0xc
    434c:	00912a23          	sw	s1,20(sp)
    4350:	7ff47413          	andi	s0,s0,2047
    4354:	01f5d493          	srli	s1,a1,0x1f
    4358:	7ff8f893          	andi	a7,a7,2047
    435c:	01d65593          	srli	a1,a2,0x1d
    4360:	00975713          	srli	a4,a4,0x9
    4364:	00112e23          	sw	ra,28(sp)
    4368:	01212823          	sw	s2,16(sp)
    436c:	01312623          	sw	s3,12(sp)
    4370:	01f6d693          	srli	a3,a3,0x1f
    4374:	00351513          	slli	a0,a0,0x3
    4378:	00e5e733          	or	a4,a1,a4
    437c:	00361613          	slli	a2,a2,0x3
    4380:	41140833          	sub	a6,s0,a7
    4384:	7ff00313          	li	t1,2047
    4388:	30d49663          	bne	s1,a3,4694 <__adddf3+0x36c>
    438c:	17005663          	blez	a6,44f8 <__adddf3+0x1d0>
    4390:	0a089063          	bnez	a7,4430 <__adddf3+0x108>
    4394:	00c766b3          	or	a3,a4,a2
    4398:	02068463          	beqz	a3,43c0 <__adddf3+0x98>
    439c:	fff40813          	addi	a6,s0,-1
    43a0:	00081e63          	bnez	a6,43bc <__adddf3+0x94>
    43a4:	00c50633          	add	a2,a0,a2
    43a8:	00e787b3          	add	a5,a5,a4
    43ac:	00a63533          	sltu	a0,a2,a0
    43b0:	00a78733          	add	a4,a5,a0
    43b4:	00100413          	li	s0,1
    43b8:	0c80006f          	j	4480 <__adddf3+0x158>
    43bc:	08641063          	bne	s0,t1,443c <__adddf3+0x114>
    43c0:	01d79713          	slli	a4,a5,0x1d
    43c4:	00355513          	srli	a0,a0,0x3
    43c8:	7ff00693          	li	a3,2047
    43cc:	00a76733          	or	a4,a4,a0
    43d0:	0037d793          	srli	a5,a5,0x3
    43d4:	00d41e63          	bne	s0,a3,43f0 <__adddf3+0xc8>
    43d8:	00f76733          	or	a4,a4,a5
    43dc:	00000793          	li	a5,0
    43e0:	00070863          	beqz	a4,43f0 <__adddf3+0xc8>
    43e4:	000807b7          	lui	a5,0x80
    43e8:	00000713          	li	a4,0
    43ec:	00000493          	li	s1,0
    43f0:	7ff47413          	andi	s0,s0,2047
    43f4:	00c79793          	slli	a5,a5,0xc
    43f8:	00c7d793          	srli	a5,a5,0xc
    43fc:	01441413          	slli	s0,s0,0x14
    4400:	01f49593          	slli	a1,s1,0x1f
    4404:	00f46433          	or	s0,s0,a5
    4408:	01c12083          	lw	ra,28(sp)
    440c:	00b467b3          	or	a5,s0,a1
    4410:	01812403          	lw	s0,24(sp)
    4414:	01412483          	lw	s1,20(sp)
    4418:	01012903          	lw	s2,16(sp)
    441c:	00c12983          	lw	s3,12(sp)
    4420:	00070513          	mv	a0,a4
    4424:	00078593          	mv	a1,a5
    4428:	02010113          	addi	sp,sp,32
    442c:	00008067          	ret
    4430:	28640c63          	beq	s0,t1,46c8 <__adddf3+0x3a0>
    4434:	008006b7          	lui	a3,0x800
    4438:	00d76733          	or	a4,a4,a3
    443c:	03800693          	li	a3,56
    4440:	0b06c663          	blt	a3,a6,44ec <__adddf3+0x1c4>
    4444:	01f00693          	li	a3,31
    4448:	02000893          	li	a7,32
    444c:	0706c863          	blt	a3,a6,44bc <__adddf3+0x194>
    4450:	410888b3          	sub	a7,a7,a6
    4454:	011716b3          	sll	a3,a4,a7
    4458:	010655b3          	srl	a1,a2,a6
    445c:	011618b3          	sll	a7,a2,a7
    4460:	00b6e6b3          	or	a3,a3,a1
    4464:	011038b3          	snez	a7,a7
    4468:	0116e6b3          	or	a3,a3,a7
    446c:	01075833          	srl	a6,a4,a6
    4470:	00a68633          	add	a2,a3,a0
    4474:	00f80833          	add	a6,a6,a5
    4478:	00d636b3          	sltu	a3,a2,a3
    447c:	00d80733          	add	a4,a6,a3
    4480:	00871793          	slli	a5,a4,0x8
    4484:	1c07de63          	bgez	a5,4660 <__adddf3+0x338>
    4488:	00140413          	addi	s0,s0,1
    448c:	7ff00793          	li	a5,2047
    4490:	5af40c63          	beq	s0,a5,4a48 <TPG.c.96294d29+0x342>
    4494:	ff8007b7          	lui	a5,0xff800
    4498:	fff78793          	addi	a5,a5,-1 # ff7fffff <_sp+0xff7d741f>
    449c:	00f777b3          	and	a5,a4,a5
    44a0:	00165713          	srli	a4,a2,0x1
    44a4:	00167613          	andi	a2,a2,1
    44a8:	00c76733          	or	a4,a4,a2
    44ac:	01f79613          	slli	a2,a5,0x1f
    44b0:	00e66633          	or	a2,a2,a4
    44b4:	0017d713          	srli	a4,a5,0x1
    44b8:	1a80006f          	j	4660 <__adddf3+0x338>
    44bc:	fe080693          	addi	a3,a6,-32
    44c0:	00d756b3          	srl	a3,a4,a3
    44c4:	00000593          	li	a1,0
    44c8:	01180863          	beq	a6,a7,44d8 <__adddf3+0x1b0>
    44cc:	04000593          	li	a1,64
    44d0:	410585b3          	sub	a1,a1,a6
    44d4:	00b715b3          	sll	a1,a4,a1
    44d8:	00c5e5b3          	or	a1,a1,a2
    44dc:	00b035b3          	snez	a1,a1
    44e0:	00b6e6b3          	or	a3,a3,a1
    44e4:	00000813          	li	a6,0
    44e8:	f89ff06f          	j	4470 <__adddf3+0x148>
    44ec:	00c766b3          	or	a3,a4,a2
    44f0:	00d036b3          	snez	a3,a3
    44f4:	ff1ff06f          	j	44e4 <__adddf3+0x1bc>
    44f8:	0c080663          	beqz	a6,45c4 <__adddf3+0x29c>
    44fc:	408886b3          	sub	a3,a7,s0
    4500:	06041a63          	bnez	s0,4574 <__adddf3+0x24c>
    4504:	00a7e5b3          	or	a1,a5,a0
    4508:	00059a63          	bnez	a1,451c <__adddf3+0x1f4>
    450c:	00070793          	mv	a5,a4
    4510:	00060513          	mv	a0,a2
    4514:	00068413          	mv	s0,a3
    4518:	ea9ff06f          	j	43c0 <__adddf3+0x98>
    451c:	fff68593          	addi	a1,a3,-1 # 7fffff <_sp+0x7d741f>
    4520:	e80582e3          	beqz	a1,43a4 <__adddf3+0x7c>
    4524:	fe6684e3          	beq	a3,t1,450c <__adddf3+0x1e4>
    4528:	03800693          	li	a3,56
    452c:	08b6c663          	blt	a3,a1,45b8 <__adddf3+0x290>
    4530:	01f00693          	li	a3,31
    4534:	02000313          	li	t1,32
    4538:	04b6c863          	blt	a3,a1,4588 <__adddf3+0x260>
    453c:	40b30333          	sub	t1,t1,a1
    4540:	006796b3          	sll	a3,a5,t1
    4544:	00b55833          	srl	a6,a0,a1
    4548:	00651333          	sll	t1,a0,t1
    454c:	0106e6b3          	or	a3,a3,a6
    4550:	00603333          	snez	t1,t1
    4554:	0066e6b3          	or	a3,a3,t1
    4558:	00b7d5b3          	srl	a1,a5,a1
    455c:	00c68633          	add	a2,a3,a2
    4560:	00e585b3          	add	a1,a1,a4
    4564:	00d636b3          	sltu	a3,a2,a3
    4568:	00d58733          	add	a4,a1,a3
    456c:	00088413          	mv	s0,a7
    4570:	f11ff06f          	j	4480 <__adddf3+0x158>
    4574:	4e688a63          	beq	a7,t1,4a68 <TPG.c.96294d29+0x362>
    4578:	008005b7          	lui	a1,0x800
    457c:	00b7e7b3          	or	a5,a5,a1
    4580:	00068593          	mv	a1,a3
    4584:	fa5ff06f          	j	4528 <__adddf3+0x200>
    4588:	fe058693          	addi	a3,a1,-32 # 7fffe0 <_sp+0x7d7400>
    458c:	00d7d6b3          	srl	a3,a5,a3
    4590:	00000813          	li	a6,0
    4594:	00658863          	beq	a1,t1,45a4 <__adddf3+0x27c>
    4598:	04000813          	li	a6,64
    459c:	40b80833          	sub	a6,a6,a1
    45a0:	01079833          	sll	a6,a5,a6
    45a4:	00a86833          	or	a6,a6,a0
    45a8:	01003833          	snez	a6,a6
    45ac:	0106e6b3          	or	a3,a3,a6
    45b0:	00000593          	li	a1,0
    45b4:	fa9ff06f          	j	455c <__adddf3+0x234>
    45b8:	00a7e6b3          	or	a3,a5,a0
    45bc:	00d036b3          	snez	a3,a3
    45c0:	ff1ff06f          	j	45b0 <__adddf3+0x288>
    45c4:	00140693          	addi	a3,s0,1
    45c8:	7fe6f593          	andi	a1,a3,2046
    45cc:	06059663          	bnez	a1,4638 <__adddf3+0x310>
    45d0:	00a7e6b3          	or	a3,a5,a0
    45d4:	04041263          	bnez	s0,4618 <__adddf3+0x2f0>
    45d8:	2a068a63          	beqz	a3,488c <TPG.c.96294d29+0x186>
    45dc:	00c766b3          	or	a3,a4,a2
    45e0:	42068e63          	beqz	a3,4a1c <TPG.c.96294d29+0x316>
    45e4:	00c506b3          	add	a3,a0,a2
    45e8:	00e787b3          	add	a5,a5,a4
    45ec:	00a6b533          	sltu	a0,a3,a0
    45f0:	00a78733          	add	a4,a5,a0
    45f4:	00871793          	slli	a5,a4,0x8
    45f8:	00068613          	mv	a2,a3
    45fc:	2807d863          	bgez	a5,488c <TPG.c.96294d29+0x186>
    4600:	ff8007b7          	lui	a5,0xff800
    4604:	fff78793          	addi	a5,a5,-1 # ff7fffff <_sp+0xff7d741f>
    4608:	00f777b3          	and	a5,a4,a5
    460c:	00068513          	mv	a0,a3
    4610:	00100413          	li	s0,1
    4614:	dadff06f          	j	43c0 <__adddf3+0x98>
    4618:	44068863          	beqz	a3,4a68 <TPG.c.96294d29+0x362>
    461c:	00c76733          	or	a4,a4,a2
    4620:	00030413          	mv	s0,t1
    4624:	d8070ee3          	beqz	a4,43c0 <__adddf3+0x98>
    4628:	00000493          	li	s1,0
    462c:	004007b7          	lui	a5,0x400
    4630:	00000513          	li	a0,0
    4634:	d8dff06f          	j	43c0 <__adddf3+0x98>
    4638:	40668663          	beq	a3,t1,4a44 <TPG.c.96294d29+0x33e>
    463c:	00c50633          	add	a2,a0,a2
    4640:	00e787b3          	add	a5,a5,a4
    4644:	00a63533          	sltu	a0,a2,a0
    4648:	00a787b3          	add	a5,a5,a0
    464c:	01f79713          	slli	a4,a5,0x1f
    4650:	00165613          	srli	a2,a2,0x1
    4654:	00c76633          	or	a2,a4,a2
    4658:	00068413          	mv	s0,a3
    465c:	0017d713          	srli	a4,a5,0x1
    4660:	00767793          	andi	a5,a2,7
    4664:	3c079263          	bnez	a5,4a28 <TPG.c.96294d29+0x322>
    4668:	00070793          	mv	a5,a4
    466c:	00060513          	mv	a0,a2
    4670:	00879713          	slli	a4,a5,0x8
    4674:	d40756e3          	bgez	a4,43c0 <__adddf3+0x98>
    4678:	00140413          	addi	s0,s0,1
    467c:	7ff00713          	li	a4,2047
    4680:	3ce40463          	beq	s0,a4,4a48 <TPG.c.96294d29+0x342>
    4684:	ff800737          	lui	a4,0xff800
    4688:	fff70713          	addi	a4,a4,-1 # ff7fffff <_sp+0xff7d741f>
    468c:	00e7f7b3          	and	a5,a5,a4
    4690:	d31ff06f          	j	43c0 <__adddf3+0x98>
    4694:	0f005063          	blez	a6,4774 <TPG.c.96294d29+0x6e>
    4698:	02089c63          	bnez	a7,46d0 <__adddf3+0x3a8>
    469c:	00c766b3          	or	a3,a4,a2
    46a0:	d20680e3          	beqz	a3,43c0 <__adddf3+0x98>
    46a4:	fff40813          	addi	a6,s0,-1
    46a8:	00081e63          	bnez	a6,46c4 <__adddf3+0x39c>
    46ac:	40c50633          	sub	a2,a0,a2
    46b0:	40e787b3          	sub	a5,a5,a4
    46b4:	00c53533          	sltu	a0,a0,a2
    46b8:	40a78733          	sub	a4,a5,a0
    46bc:	00100413          	li	s0,1
    46c0:	0600006f          	j	4720 <TPG.c.96294d29+0x1a>
    46c4:	00641c63          	bne	s0,t1,46dc <__adddf3+0x3b4>
    46c8:	7ff00413          	li	s0,2047
    46cc:	cf5ff06f          	j	43c0 <__adddf3+0x98>
    46d0:	ce6408e3          	beq	s0,t1,43c0 <__adddf3+0x98>
    46d4:	008006b7          	lui	a3,0x800
    46d8:	00d76733          	or	a4,a4,a3
    46dc:	03800693          	li	a3,56
    46e0:	0906c463          	blt	a3,a6,4768 <TPG.c.96294d29+0x62>
    46e4:	01f00693          	li	a3,31
    46e8:	02000893          	li	a7,32
    46ec:	0506c663          	blt	a3,a6,4738 <TPG.c.96294d29+0x32>
    46f0:	410888b3          	sub	a7,a7,a6
    46f4:	011716b3          	sll	a3,a4,a7
    46f8:	010655b3          	srl	a1,a2,a6
    46fc:	011618b3          	sll	a7,a2,a7
    4700:	00b6e6b3          	or	a3,a3,a1
    4704:	011038b3          	snez	a7,a7
    4708:	0116e6b3          	or	a3,a3,a7
    470c:	01075833          	srl	a6,a4,a6
    4710:	40d50633          	sub	a2,a0,a3
    4714:	41078833          	sub	a6,a5,a6
    4718:	00c53533          	sltu	a0,a0,a2
    471c:	40a80733          	sub	a4,a6,a0
    4720:	00871793          	slli	a5,a4,0x8
    4724:	f207dee3          	bgez	a5,4660 <__adddf3+0x338>
    4728:	00971913          	slli	s2,a4,0x9
    472c:	00995913          	srli	s2,s2,0x9
    4730:	00060993          	mv	s3,a2
    4734:	2040006f          	j	4938 <TPG.c.96294d29+0x232>
    4738:	fe080693          	addi	a3,a6,-32
    473c:	00d756b3          	srl	a3,a4,a3
    4740:	00000593          	li	a1,0
    4744:	01180863          	beq	a6,a7,4754 <TPG.c.96294d29+0x4e>
    4748:	04000593          	li	a1,64
    474c:	410585b3          	sub	a1,a1,a6
    4750:	00b715b3          	sll	a1,a4,a1
    4754:	00c5e5b3          	or	a1,a1,a2
    4758:	00b035b3          	snez	a1,a1
    475c:	00b6e6b3          	or	a3,a3,a1
    4760:	00000813          	li	a6,0
    4764:	fadff06f          	j	4710 <TPG.c.96294d29+0xa>
    4768:	00c766b3          	or	a3,a4,a2
    476c:	00d036b3          	snez	a3,a3
    4770:	ff1ff06f          	j	4760 <TPG.c.96294d29+0x5a>
    4774:	0e080a63          	beqz	a6,4868 <TPG.c.96294d29+0x162>
    4778:	40888833          	sub	a6,a7,s0
    477c:	08041e63          	bnez	s0,4818 <TPG.c.96294d29+0x112>
    4780:	00a7e5b3          	or	a1,a5,a0
    4784:	00059c63          	bnez	a1,479c <TPG.c.96294d29+0x96>
    4788:	00068493          	mv	s1,a3
    478c:	00070793          	mv	a5,a4
    4790:	00060513          	mv	a0,a2
    4794:	00080413          	mv	s0,a6
    4798:	c29ff06f          	j	43c0 <__adddf3+0x98>
    479c:	fff80593          	addi	a1,a6,-1
    47a0:	02059063          	bnez	a1,47c0 <TPG.c.96294d29+0xba>
    47a4:	40a60533          	sub	a0,a2,a0
    47a8:	00a635b3          	sltu	a1,a2,a0
    47ac:	40f707b3          	sub	a5,a4,a5
    47b0:	00050613          	mv	a2,a0
    47b4:	40b78733          	sub	a4,a5,a1
    47b8:	00068493          	mv	s1,a3
    47bc:	f01ff06f          	j	46bc <__adddf3+0x394>
    47c0:	fc6804e3          	beq	a6,t1,4788 <TPG.c.96294d29+0x82>
    47c4:	03800813          	li	a6,56
    47c8:	08b84a63          	blt	a6,a1,485c <TPG.c.96294d29+0x156>
    47cc:	01f00813          	li	a6,31
    47d0:	02000e13          	li	t3,32
    47d4:	04b84c63          	blt	a6,a1,482c <TPG.c.96294d29+0x126>
    47d8:	40be0e33          	sub	t3,t3,a1
    47dc:	00b55333          	srl	t1,a0,a1
    47e0:	01c79833          	sll	a6,a5,t3
    47e4:	01c51e33          	sll	t3,a0,t3
    47e8:	00686833          	or	a6,a6,t1
    47ec:	01c03e33          	snez	t3,t3
    47f0:	01c86533          	or	a0,a6,t3
    47f4:	00b7d5b3          	srl	a1,a5,a1
    47f8:	40a60533          	sub	a0,a2,a0
    47fc:	00a637b3          	sltu	a5,a2,a0
    4800:	40b705b3          	sub	a1,a4,a1
    4804:	00050613          	mv	a2,a0
    4808:	40f58733          	sub	a4,a1,a5
    480c:	00088413          	mv	s0,a7
    4810:	00068493          	mv	s1,a3
    4814:	f0dff06f          	j	4720 <TPG.c.96294d29+0x1a>
    4818:	24688663          	beq	a7,t1,4a64 <TPG.c.96294d29+0x35e>
    481c:	008005b7          	lui	a1,0x800
    4820:	00b7e7b3          	or	a5,a5,a1
    4824:	00080593          	mv	a1,a6
    4828:	f9dff06f          	j	47c4 <TPG.c.96294d29+0xbe>
    482c:	fe058813          	addi	a6,a1,-32 # 7fffe0 <_sp+0x7d7400>
    4830:	0107d833          	srl	a6,a5,a6
    4834:	00000313          	li	t1,0
    4838:	01c58863          	beq	a1,t3,4848 <TPG.c.96294d29+0x142>
    483c:	04000313          	li	t1,64
    4840:	40b30333          	sub	t1,t1,a1
    4844:	00679333          	sll	t1,a5,t1
    4848:	00a36333          	or	t1,t1,a0
    484c:	00603333          	snez	t1,t1
    4850:	00686533          	or	a0,a6,t1
    4854:	00000593          	li	a1,0
    4858:	fa1ff06f          	j	47f8 <TPG.c.96294d29+0xf2>
    485c:	00a7e533          	or	a0,a5,a0
    4860:	00a03533          	snez	a0,a0
    4864:	ff1ff06f          	j	4854 <TPG.c.96294d29+0x14e>
    4868:	00140593          	addi	a1,s0,1
    486c:	7fe5f593          	andi	a1,a1,2046
    4870:	08059c63          	bnez	a1,4908 <TPG.c.96294d29+0x202>
    4874:	00a7e833          	or	a6,a5,a0
    4878:	00c765b3          	or	a1,a4,a2
    487c:	06041463          	bnez	s0,48e4 <TPG.c.96294d29+0x1de>
    4880:	00081e63          	bnez	a6,489c <TPG.c.96294d29+0x196>
    4884:	1c058663          	beqz	a1,4a50 <TPG.c.96294d29+0x34a>
    4888:	00068493          	mv	s1,a3
    488c:	00c76533          	or	a0,a4,a2
    4890:	10050c63          	beqz	a0,49a8 <TPG.c.96294d29+0x2a2>
    4894:	00000413          	li	s0,0
    4898:	dc9ff06f          	j	4660 <__adddf3+0x338>
    489c:	18058063          	beqz	a1,4a1c <TPG.c.96294d29+0x316>
    48a0:	40c50833          	sub	a6,a0,a2
    48a4:	010538b3          	sltu	a7,a0,a6
    48a8:	40e785b3          	sub	a1,a5,a4
    48ac:	411585b3          	sub	a1,a1,a7
    48b0:	00859893          	slli	a7,a1,0x8
    48b4:	0008de63          	bgez	a7,48d0 <TPG.c.96294d29+0x1ca>
    48b8:	40a60533          	sub	a0,a2,a0
    48bc:	00a635b3          	sltu	a1,a2,a0
    48c0:	40f707b3          	sub	a5,a4,a5
    48c4:	00050613          	mv	a2,a0
    48c8:	40b78733          	sub	a4,a5,a1
    48cc:	fbdff06f          	j	4888 <TPG.c.96294d29+0x182>
    48d0:	00b86533          	or	a0,a6,a1
    48d4:	18050263          	beqz	a0,4a58 <TPG.c.96294d29+0x352>
    48d8:	00058713          	mv	a4,a1
    48dc:	00080613          	mv	a2,a6
    48e0:	fadff06f          	j	488c <TPG.c.96294d29+0x186>
    48e4:	00081c63          	bnez	a6,48fc <TPG.c.96294d29+0x1f6>
    48e8:	16059e63          	bnez	a1,4a64 <TPG.c.96294d29+0x35e>
    48ec:	00000493          	li	s1,0
    48f0:	00000513          	li	a0,0
    48f4:	004007b7          	lui	a5,0x400
    48f8:	dd1ff06f          	j	46c8 <__adddf3+0x3a0>
    48fc:	00030413          	mv	s0,t1
    4900:	ac0580e3          	beqz	a1,43c0 <__adddf3+0x98>
    4904:	d25ff06f          	j	4628 <__adddf3+0x300>
    4908:	40c505b3          	sub	a1,a0,a2
    490c:	00b53833          	sltu	a6,a0,a1
    4910:	40e78933          	sub	s2,a5,a4
    4914:	41090933          	sub	s2,s2,a6
    4918:	00891813          	slli	a6,s2,0x8
    491c:	00058993          	mv	s3,a1
    4920:	06085e63          	bgez	a6,499c <TPG.c.96294d29+0x296>
    4924:	40a609b3          	sub	s3,a2,a0
    4928:	40f70933          	sub	s2,a4,a5
    492c:	01363633          	sltu	a2,a2,s3
    4930:	40c90933          	sub	s2,s2,a2
    4934:	00068493          	mv	s1,a3
    4938:	06090e63          	beqz	s2,49b4 <TPG.c.96294d29+0x2ae>
    493c:	00090513          	mv	a0,s2
    4940:	011010ef          	jal	6150 <__clzsi2>
    4944:	ff850793          	addi	a5,a0,-8
    4948:	02000713          	li	a4,32
    494c:	40f70733          	sub	a4,a4,a5
    4950:	00f91933          	sll	s2,s2,a5
    4954:	00e9d733          	srl	a4,s3,a4
    4958:	01276733          	or	a4,a4,s2
    495c:	00f99633          	sll	a2,s3,a5
    4960:	0a87c463          	blt	a5,s0,4a08 <TPG.c.96294d29+0x302>
    4964:	408787b3          	sub	a5,a5,s0
    4968:	00178513          	addi	a0,a5,1 # 400001 <_sp+0x3d7421>
    496c:	01f00693          	li	a3,31
    4970:	02000593          	li	a1,32
    4974:	06a6c263          	blt	a3,a0,49d8 <TPG.c.96294d29+0x2d2>
    4978:	40a585b3          	sub	a1,a1,a0
    497c:	00b717b3          	sll	a5,a4,a1
    4980:	00a656b3          	srl	a3,a2,a0
    4984:	00b615b3          	sll	a1,a2,a1
    4988:	00d7e7b3          	or	a5,a5,a3
    498c:	00b035b3          	snez	a1,a1
    4990:	00b7e633          	or	a2,a5,a1
    4994:	00a75733          	srl	a4,a4,a0
    4998:	ef5ff06f          	j	488c <TPG.c.96294d29+0x186>
    499c:	0125e533          	or	a0,a1,s2
    49a0:	f8051ce3          	bnez	a0,4938 <TPG.c.96294d29+0x232>
    49a4:	00000493          	li	s1,0
    49a8:	00000793          	li	a5,0
    49ac:	00000413          	li	s0,0
    49b0:	a11ff06f          	j	43c0 <__adddf3+0x98>
    49b4:	00098513          	mv	a0,s3
    49b8:	798010ef          	jal	6150 <__clzsi2>
    49bc:	01850793          	addi	a5,a0,24
    49c0:	01f00713          	li	a4,31
    49c4:	f8f752e3          	bge	a4,a5,4948 <TPG.c.96294d29+0x242>
    49c8:	ff850713          	addi	a4,a0,-8
    49cc:	00e99733          	sll	a4,s3,a4
    49d0:	00000613          	li	a2,0
    49d4:	f8dff06f          	j	4960 <TPG.c.96294d29+0x25a>
    49d8:	fe178793          	addi	a5,a5,-31
    49dc:	00f757b3          	srl	a5,a4,a5
    49e0:	00000693          	li	a3,0
    49e4:	00b50863          	beq	a0,a1,49f4 <TPG.c.96294d29+0x2ee>
    49e8:	04000693          	li	a3,64
    49ec:	40a686b3          	sub	a3,a3,a0
    49f0:	00d716b3          	sll	a3,a4,a3
    49f4:	00d666b3          	or	a3,a2,a3
    49f8:	00d036b3          	snez	a3,a3
    49fc:	00d7e633          	or	a2,a5,a3
    4a00:	00000713          	li	a4,0
    4a04:	e89ff06f          	j	488c <TPG.c.96294d29+0x186>
    4a08:	40f40433          	sub	s0,s0,a5
    4a0c:	ff8007b7          	lui	a5,0xff800
    4a10:	fff78793          	addi	a5,a5,-1 # ff7fffff <_sp+0xff7d741f>
    4a14:	00f77733          	and	a4,a4,a5
    4a18:	c49ff06f          	j	4660 <__adddf3+0x338>
    4a1c:	00078713          	mv	a4,a5
    4a20:	00050613          	mv	a2,a0
    4a24:	e69ff06f          	j	488c <TPG.c.96294d29+0x186>
    4a28:	00f67793          	andi	a5,a2,15
    4a2c:	00400693          	li	a3,4
    4a30:	c2d78ce3          	beq	a5,a3,4668 <__adddf3+0x340>
    4a34:	00d60533          	add	a0,a2,a3
    4a38:	00c537b3          	sltu	a5,a0,a2
    4a3c:	00e787b3          	add	a5,a5,a4
    4a40:	c31ff06f          	j	4670 <__adddf3+0x348>
    4a44:	00068413          	mv	s0,a3
    4a48:	00000793          	li	a5,0
    4a4c:	be5ff06f          	j	4630 <__adddf3+0x308>
    4a50:	00000493          	li	s1,0
    4a54:	ff5ff06f          	j	4a48 <TPG.c.96294d29+0x342>
    4a58:	00000493          	li	s1,0
    4a5c:	00000793          	li	a5,0
    4a60:	961ff06f          	j	43c0 <__adddf3+0x98>
    4a64:	00068493          	mv	s1,a3
    4a68:	00070793          	mv	a5,a4
    4a6c:	00060513          	mv	a0,a2
    4a70:	c59ff06f          	j	46c8 <__adddf3+0x3a0>

00004a74 <__divdf3>:
    4a74:	fb010113          	addi	sp,sp,-80
    4a78:	03412c23          	sw	s4,56(sp)
    4a7c:	0145da13          	srli	s4,a1,0x14
    4a80:	04812423          	sw	s0,72(sp)
    4a84:	05212023          	sw	s2,64(sp)
    4a88:	03312e23          	sw	s3,60(sp)
    4a8c:	03512a23          	sw	s5,52(sp)
    4a90:	03912223          	sw	s9,36(sp)
    4a94:	00c59413          	slli	s0,a1,0xc
    4a98:	04112623          	sw	ra,76(sp)
    4a9c:	04912223          	sw	s1,68(sp)
    4aa0:	03612823          	sw	s6,48(sp)
    4aa4:	03712623          	sw	s7,44(sp)
    4aa8:	03812423          	sw	s8,40(sp)
    4aac:	03a12023          	sw	s10,32(sp)
    4ab0:	01b12e23          	sw	s11,28(sp)
    4ab4:	7ffa7a13          	andi	s4,s4,2047
    4ab8:	00050913          	mv	s2,a0
    4abc:	00060c93          	mv	s9,a2
    4ac0:	00068993          	mv	s3,a3
    4ac4:	00c45413          	srli	s0,s0,0xc
    4ac8:	01f5da93          	srli	s5,a1,0x1f
    4acc:	440a0463          	beqz	s4,4f14 <__divdf3+0x4a0>
    4ad0:	7ff00793          	li	a5,2047
    4ad4:	4afa0463          	beq	s4,a5,4f7c <__divdf3+0x508>
    4ad8:	01d55c13          	srli	s8,a0,0x1d
    4adc:	00341413          	slli	s0,s0,0x3
    4ae0:	008c6c33          	or	s8,s8,s0
    4ae4:	008007b7          	lui	a5,0x800
    4ae8:	00fc6c33          	or	s8,s8,a5
    4aec:	00351493          	slli	s1,a0,0x3
    4af0:	c01a0a13          	addi	s4,s4,-1023
    4af4:	00000b13          	li	s6,0
    4af8:	0149d793          	srli	a5,s3,0x14
    4afc:	00c99913          	slli	s2,s3,0xc
    4b00:	7ff7f793          	andi	a5,a5,2047
    4b04:	000c8b93          	mv	s7,s9
    4b08:	00c95913          	srli	s2,s2,0xc
    4b0c:	01f9d993          	srli	s3,s3,0x1f
    4b10:	4a078063          	beqz	a5,4fb0 <__divdf3+0x53c>
    4b14:	7ff00713          	li	a4,2047
    4b18:	50e78263          	beq	a5,a4,501c <__divdf3+0x5a8>
    4b1c:	00391913          	slli	s2,s2,0x3
    4b20:	01dcd713          	srli	a4,s9,0x1d
    4b24:	00e96933          	or	s2,s2,a4
    4b28:	00800437          	lui	s0,0x800
    4b2c:	00896433          	or	s0,s2,s0
    4b30:	003c9b93          	slli	s7,s9,0x3
    4b34:	c0178793          	addi	a5,a5,-1023 # 7ffc01 <_sp+0x7d7021>
    4b38:	00000693          	li	a3,0
    4b3c:	40fa0a33          	sub	s4,s4,a5
    4b40:	002b1793          	slli	a5,s6,0x2
    4b44:	00d7e7b3          	or	a5,a5,a3
    4b48:	00700713          	li	a4,7
    4b4c:	013ac933          	xor	s2,s5,s3
    4b50:	4ef74e63          	blt	a4,a5,504c <__divdf3+0x5d8>
    4b54:	00100713          	li	a4,1
    4b58:	6ce78063          	beq	a5,a4,5218 <__divdf3+0x7a4>
    4b5c:	ffe78613          	addi	a2,a5,-2
    4b60:	00500593          	li	a1,5
    4b64:	50c5f663          	bgeu	a1,a2,5070 <__divdf3+0x5fc>
    4b68:	01846663          	bltu	s0,s8,4b74 <__divdf3+0x100>
    4b6c:	5574ec63          	bltu	s1,s7,50c4 <__divdf3+0x650>
    4b70:	548c1a63          	bne	s8,s0,50c4 <__divdf3+0x650>
    4b74:	01fc1713          	slli	a4,s8,0x1f
    4b78:	0014d793          	srli	a5,s1,0x1
    4b7c:	01f49993          	slli	s3,s1,0x1f
    4b80:	001c5c13          	srli	s8,s8,0x1
    4b84:	00f764b3          	or	s1,a4,a5
    4b88:	00841413          	slli	s0,s0,0x8
    4b8c:	018bdc93          	srli	s9,s7,0x18
    4b90:	01045793          	srli	a5,s0,0x10
    4b94:	008cecb3          	or	s9,s9,s0
    4b98:	00078593          	mv	a1,a5
    4b9c:	010c9b13          	slli	s6,s9,0x10
    4ba0:	000c0513          	mv	a0,s8
    4ba4:	00f12423          	sw	a5,8(sp)
    4ba8:	010b5b13          	srli	s6,s6,0x10
    4bac:	4f8010ef          	jal	60a4 <__hidden___udivsi3>
    4bb0:	02ab0ab3          	mul	s5,s6,a0
    4bb4:	00812583          	lw	a1,8(sp)
    4bb8:	00050413          	mv	s0,a0
    4bbc:	000c0513          	mv	a0,s8
    4bc0:	52c010ef          	jal	60ec <__umodsi3>
    4bc4:	01051513          	slli	a0,a0,0x10
    4bc8:	0104d793          	srli	a5,s1,0x10
    4bcc:	00a7e7b3          	or	a5,a5,a0
    4bd0:	008b9d13          	slli	s10,s7,0x8
    4bd4:	0157fa63          	bgeu	a5,s5,4be8 <__divdf3+0x174>
    4bd8:	00fc87b3          	add	a5,s9,a5
    4bdc:	0197e463          	bltu	a5,s9,4be4 <__divdf3+0x170>
    4be0:	4f57e863          	bltu	a5,s5,50d0 <__divdf3+0x65c>
    4be4:	fff40413          	addi	s0,s0,-1 # 7fffff <_sp+0x7d741f>
    4be8:	00812583          	lw	a1,8(sp)
    4bec:	41578ab3          	sub	s5,a5,s5
    4bf0:	000a8513          	mv	a0,s5
    4bf4:	4b0010ef          	jal	60a4 <__hidden___udivsi3>
    4bf8:	02ab0db3          	mul	s11,s6,a0
    4bfc:	00812583          	lw	a1,8(sp)
    4c00:	00050c13          	mv	s8,a0
    4c04:	000a8513          	mv	a0,s5
    4c08:	4e4010ef          	jal	60ec <__umodsi3>
    4c0c:	01049793          	slli	a5,s1,0x10
    4c10:	01051513          	slli	a0,a0,0x10
    4c14:	0107d793          	srli	a5,a5,0x10
    4c18:	00a7e7b3          	or	a5,a5,a0
    4c1c:	01b7fa63          	bgeu	a5,s11,4c30 <__divdf3+0x1bc>
    4c20:	00fc87b3          	add	a5,s9,a5
    4c24:	01b7f463          	bgeu	a5,s11,4c2c <__divdf3+0x1b8>
    4c28:	4b97fa63          	bgeu	a5,s9,50dc <__divdf3+0x668>
    4c2c:	fffc0c13          	addi	s8,s8,-1
    4c30:	01041413          	slli	s0,s0,0x10
    4c34:	01846433          	or	s0,s0,s8
    4c38:	010d1693          	slli	a3,s10,0x10
    4c3c:	0106d693          	srli	a3,a3,0x10
    4c40:	01041513          	slli	a0,s0,0x10
    4c44:	41b787b3          	sub	a5,a5,s11
    4c48:	01055513          	srli	a0,a0,0x10
    4c4c:	00d12623          	sw	a3,12(sp)
    4c50:	00068593          	mv	a1,a3
    4c54:	424010ef          	jal	6078 <__mulsi3>
    4c58:	00050813          	mv	a6,a0
    4c5c:	01041513          	slli	a0,s0,0x10
    4c60:	01055513          	srli	a0,a0,0x10
    4c64:	010d5593          	srli	a1,s10,0x10
    4c68:	410010ef          	jal	6078 <__mulsi3>
    4c6c:	010d1593          	slli	a1,s10,0x10
    4c70:	00050713          	mv	a4,a0
    4c74:	0105d593          	srli	a1,a1,0x10
    4c78:	01045513          	srli	a0,s0,0x10
    4c7c:	3fc010ef          	jal	6078 <__mulsi3>
    4c80:	00050893          	mv	a7,a0
    4c84:	010d5593          	srli	a1,s10,0x10
    4c88:	01045513          	srli	a0,s0,0x10
    4c8c:	3ec010ef          	jal	6078 <__mulsi3>
    4c90:	01085a93          	srli	s5,a6,0x10
    4c94:	01170733          	add	a4,a4,a7
    4c98:	00ea8ab3          	add	s5,s5,a4
    4c9c:	011af663          	bgeu	s5,a7,4ca8 <__divdf3+0x234>
    4ca0:	00010737          	lui	a4,0x10
    4ca4:	00e50533          	add	a0,a0,a4
    4ca8:	010ad713          	srli	a4,s5,0x10
    4cac:	01081813          	slli	a6,a6,0x10
    4cb0:	010a9a93          	slli	s5,s5,0x10
    4cb4:	01085813          	srli	a6,a6,0x10
    4cb8:	00a70533          	add	a0,a4,a0
    4cbc:	010a8ab3          	add	s5,s5,a6
    4cc0:	00a7e663          	bltu	a5,a0,4ccc <__divdf3+0x258>
    4cc4:	02a79e63          	bne	a5,a0,4d00 <__divdf3+0x28c>
    4cc8:	0359fc63          	bgeu	s3,s5,4d00 <__divdf3+0x28c>
    4ccc:	01a98733          	add	a4,s3,s10
    4cd0:	013736b3          	sltu	a3,a4,s3
    4cd4:	019685b3          	add	a1,a3,s9
    4cd8:	00b787b3          	add	a5,a5,a1
    4cdc:	fff40613          	addi	a2,s0,-1
    4ce0:	00070993          	mv	s3,a4
    4ce4:	00fce663          	bltu	s9,a5,4cf0 <__divdf3+0x27c>
    4ce8:	00fc9a63          	bne	s9,a5,4cfc <__divdf3+0x288>
    4cec:	00069863          	bnez	a3,4cfc <__divdf3+0x288>
    4cf0:	3ea7ec63          	bltu	a5,a0,50e8 <__divdf3+0x674>
    4cf4:	01577463          	bgeu	a4,s5,4cfc <__divdf3+0x288>
    4cf8:	3ef50863          	beq	a0,a5,50e8 <__divdf3+0x674>
    4cfc:	00060413          	mv	s0,a2
    4d00:	41598ab3          	sub	s5,s3,s5
    4d04:	40a787b3          	sub	a5,a5,a0
    4d08:	0159b733          	sltu	a4,s3,s5
    4d0c:	40e789b3          	sub	s3,a5,a4
    4d10:	fff00493          	li	s1,-1
    4d14:	153c8663          	beq	s9,s3,4e60 <__divdf3+0x3ec>
    4d18:	00812583          	lw	a1,8(sp)
    4d1c:	00098513          	mv	a0,s3
    4d20:	384010ef          	jal	60a4 <__hidden___udivsi3>
    4d24:	02ab0c33          	mul	s8,s6,a0
    4d28:	00812583          	lw	a1,8(sp)
    4d2c:	00050493          	mv	s1,a0
    4d30:	00098513          	mv	a0,s3
    4d34:	3b8010ef          	jal	60ec <__umodsi3>
    4d38:	01051513          	slli	a0,a0,0x10
    4d3c:	010ad713          	srli	a4,s5,0x10
    4d40:	00a76733          	or	a4,a4,a0
    4d44:	01877a63          	bgeu	a4,s8,4d58 <__divdf3+0x2e4>
    4d48:	00ec8733          	add	a4,s9,a4
    4d4c:	01877463          	bgeu	a4,s8,4d54 <__divdf3+0x2e0>
    4d50:	3b977863          	bgeu	a4,s9,5100 <__divdf3+0x68c>
    4d54:	fff48493          	addi	s1,s1,-1
    4d58:	00812583          	lw	a1,8(sp)
    4d5c:	418709b3          	sub	s3,a4,s8
    4d60:	00098513          	mv	a0,s3
    4d64:	340010ef          	jal	60a4 <__hidden___udivsi3>
    4d68:	02ab0b33          	mul	s6,s6,a0
    4d6c:	00812583          	lw	a1,8(sp)
    4d70:	00050c13          	mv	s8,a0
    4d74:	00098513          	mv	a0,s3
    4d78:	374010ef          	jal	60ec <__umodsi3>
    4d7c:	010a9793          	slli	a5,s5,0x10
    4d80:	01051513          	slli	a0,a0,0x10
    4d84:	0107d793          	srli	a5,a5,0x10
    4d88:	00a7e7b3          	or	a5,a5,a0
    4d8c:	0167fa63          	bgeu	a5,s6,4da0 <__divdf3+0x32c>
    4d90:	00fc87b3          	add	a5,s9,a5
    4d94:	0167f463          	bgeu	a5,s6,4d9c <__divdf3+0x328>
    4d98:	3797fa63          	bgeu	a5,s9,510c <__divdf3+0x698>
    4d9c:	fffc0c13          	addi	s8,s8,-1
    4da0:	01049493          	slli	s1,s1,0x10
    4da4:	0184e4b3          	or	s1,s1,s8
    4da8:	01049513          	slli	a0,s1,0x10
    4dac:	010d1593          	slli	a1,s10,0x10
    4db0:	416787b3          	sub	a5,a5,s6
    4db4:	01055513          	srli	a0,a0,0x10
    4db8:	0105d593          	srli	a1,a1,0x10
    4dbc:	2bc010ef          	jal	6078 <__mulsi3>
    4dc0:	00050813          	mv	a6,a0
    4dc4:	01049513          	slli	a0,s1,0x10
    4dc8:	01055513          	srli	a0,a0,0x10
    4dcc:	010d5593          	srli	a1,s10,0x10
    4dd0:	2a8010ef          	jal	6078 <__mulsi3>
    4dd4:	010d1593          	slli	a1,s10,0x10
    4dd8:	00050893          	mv	a7,a0
    4ddc:	0105d593          	srli	a1,a1,0x10
    4de0:	0104d513          	srli	a0,s1,0x10
    4de4:	294010ef          	jal	6078 <__mulsi3>
    4de8:	00050313          	mv	t1,a0
    4dec:	010d5593          	srli	a1,s10,0x10
    4df0:	0104d513          	srli	a0,s1,0x10
    4df4:	284010ef          	jal	6078 <__mulsi3>
    4df8:	01085713          	srli	a4,a6,0x10
    4dfc:	006888b3          	add	a7,a7,t1
    4e00:	01170733          	add	a4,a4,a7
    4e04:	00677663          	bgeu	a4,t1,4e10 <__divdf3+0x39c>
    4e08:	000106b7          	lui	a3,0x10
    4e0c:	00d50533          	add	a0,a0,a3
    4e10:	01075693          	srli	a3,a4,0x10
    4e14:	01081813          	slli	a6,a6,0x10
    4e18:	01071713          	slli	a4,a4,0x10
    4e1c:	01085813          	srli	a6,a6,0x10
    4e20:	00a68533          	add	a0,a3,a0
    4e24:	01070733          	add	a4,a4,a6
    4e28:	00a7e663          	bltu	a5,a0,4e34 <__divdf3+0x3c0>
    4e2c:	30a79863          	bne	a5,a0,513c <__divdf3+0x6c8>
    4e30:	30070063          	beqz	a4,5130 <__divdf3+0x6bc>
    4e34:	00fc86b3          	add	a3,s9,a5
    4e38:	fff48613          	addi	a2,s1,-1
    4e3c:	00068793          	mv	a5,a3
    4e40:	0196e863          	bltu	a3,s9,4e50 <__divdf3+0x3dc>
    4e44:	2ca6ea63          	bltu	a3,a0,5118 <__divdf3+0x6a4>
    4e48:	2ea69863          	bne	a3,a0,5138 <__divdf3+0x6c4>
    4e4c:	2ced6663          	bltu	s10,a4,5118 <__divdf3+0x6a4>
    4e50:	000d0b93          	mv	s7,s10
    4e54:	00060493          	mv	s1,a2
    4e58:	2eeb9263          	bne	s7,a4,513c <__divdf3+0x6c8>
    4e5c:	2ea79063          	bne	a5,a0,513c <__divdf3+0x6c8>
    4e60:	3ffa0793          	addi	a5,s4,1023
    4e64:	2ef05863          	blez	a5,5154 <__divdf3+0x6e0>
    4e68:	0074f713          	andi	a4,s1,7
    4e6c:	02070063          	beqz	a4,4e8c <__divdf3+0x418>
    4e70:	00f4f713          	andi	a4,s1,15
    4e74:	00400693          	li	a3,4
    4e78:	00d70a63          	beq	a4,a3,4e8c <__divdf3+0x418>
    4e7c:	00d48733          	add	a4,s1,a3
    4e80:	009736b3          	sltu	a3,a4,s1
    4e84:	00d40433          	add	s0,s0,a3
    4e88:	00070493          	mv	s1,a4
    4e8c:	00741713          	slli	a4,s0,0x7
    4e90:	00075a63          	bgez	a4,4ea4 <__divdf3+0x430>
    4e94:	ff0007b7          	lui	a5,0xff000
    4e98:	fff78793          	addi	a5,a5,-1 # feffffff <_sp+0xfefd741f>
    4e9c:	00f47433          	and	s0,s0,a5
    4ea0:	400a0793          	addi	a5,s4,1024
    4ea4:	7fe00713          	li	a4,2046
    4ea8:	36f74863          	blt	a4,a5,5218 <__divdf3+0x7a4>
    4eac:	01d41713          	slli	a4,s0,0x1d
    4eb0:	0034d493          	srli	s1,s1,0x3
    4eb4:	00976733          	or	a4,a4,s1
    4eb8:	00345413          	srli	s0,s0,0x3
    4ebc:	00c41413          	slli	s0,s0,0xc
    4ec0:	00c45413          	srli	s0,s0,0xc
    4ec4:	01479793          	slli	a5,a5,0x14
    4ec8:	04c12083          	lw	ra,76(sp)
    4ecc:	0087e7b3          	or	a5,a5,s0
    4ed0:	04812403          	lw	s0,72(sp)
    4ed4:	01f91913          	slli	s2,s2,0x1f
    4ed8:	04412483          	lw	s1,68(sp)
    4edc:	03c12983          	lw	s3,60(sp)
    4ee0:	03812a03          	lw	s4,56(sp)
    4ee4:	03412a83          	lw	s5,52(sp)
    4ee8:	03012b03          	lw	s6,48(sp)
    4eec:	02c12b83          	lw	s7,44(sp)
    4ef0:	02812c03          	lw	s8,40(sp)
    4ef4:	02412c83          	lw	s9,36(sp)
    4ef8:	02012d03          	lw	s10,32(sp)
    4efc:	01c12d83          	lw	s11,28(sp)
    4f00:	0127e5b3          	or	a1,a5,s2
    4f04:	00070513          	mv	a0,a4
    4f08:	04012903          	lw	s2,64(sp)
    4f0c:	05010113          	addi	sp,sp,80
    4f10:	00008067          	ret
    4f14:	00a46c33          	or	s8,s0,a0
    4f18:	060c0c63          	beqz	s8,4f90 <__divdf3+0x51c>
    4f1c:	04040063          	beqz	s0,4f5c <__divdf3+0x4e8>
    4f20:	00040513          	mv	a0,s0
    4f24:	22c010ef          	jal	6150 <__clzsi2>
    4f28:	00050793          	mv	a5,a0
    4f2c:	ff550713          	addi	a4,a0,-11
    4f30:	01d00c13          	li	s8,29
    4f34:	ff878693          	addi	a3,a5,-8
    4f38:	40ec0c33          	sub	s8,s8,a4
    4f3c:	00d41433          	sll	s0,s0,a3
    4f40:	01895c33          	srl	s8,s2,s8
    4f44:	008c6c33          	or	s8,s8,s0
    4f48:	00d91433          	sll	s0,s2,a3
    4f4c:	c0d00a13          	li	s4,-1011
    4f50:	40fa0a33          	sub	s4,s4,a5
    4f54:	00040493          	mv	s1,s0
    4f58:	b9dff06f          	j	4af4 <__divdf3+0x80>
    4f5c:	1f4010ef          	jal	6150 <__clzsi2>
    4f60:	01550713          	addi	a4,a0,21
    4f64:	01c00693          	li	a3,28
    4f68:	02050793          	addi	a5,a0,32
    4f6c:	fce6d2e3          	bge	a3,a4,4f30 <__divdf3+0x4bc>
    4f70:	ff850513          	addi	a0,a0,-8
    4f74:	00a91c33          	sll	s8,s2,a0
    4f78:	fd5ff06f          	j	4f4c <__divdf3+0x4d8>
    4f7c:	00a46c33          	or	s8,s0,a0
    4f80:	020c1063          	bnez	s8,4fa0 <__divdf3+0x52c>
    4f84:	00000493          	li	s1,0
    4f88:	00200b13          	li	s6,2
    4f8c:	b6dff06f          	j	4af8 <__divdf3+0x84>
    4f90:	00000493          	li	s1,0
    4f94:	00000a13          	li	s4,0
    4f98:	00100b13          	li	s6,1
    4f9c:	b5dff06f          	j	4af8 <__divdf3+0x84>
    4fa0:	00050493          	mv	s1,a0
    4fa4:	00040c13          	mv	s8,s0
    4fa8:	00300b13          	li	s6,3
    4fac:	b4dff06f          	j	4af8 <__divdf3+0x84>
    4fb0:	01996433          	or	s0,s2,s9
    4fb4:	06040e63          	beqz	s0,5030 <__divdf3+0x5bc>
    4fb8:	04090063          	beqz	s2,4ff8 <__divdf3+0x584>
    4fbc:	00090513          	mv	a0,s2
    4fc0:	190010ef          	jal	6150 <__clzsi2>
    4fc4:	00050713          	mv	a4,a0
    4fc8:	ff550793          	addi	a5,a0,-11
    4fcc:	01d00413          	li	s0,29
    4fd0:	ff870693          	addi	a3,a4,-8 # fff8 <heap.cpp.0096869b+0x2adb>
    4fd4:	40f40433          	sub	s0,s0,a5
    4fd8:	00d91933          	sll	s2,s2,a3
    4fdc:	008cd433          	srl	s0,s9,s0
    4fe0:	01246433          	or	s0,s0,s2
    4fe4:	00dc9933          	sll	s2,s9,a3
    4fe8:	c0d00793          	li	a5,-1011
    4fec:	40e787b3          	sub	a5,a5,a4
    4ff0:	00090b93          	mv	s7,s2
    4ff4:	b45ff06f          	j	4b38 <__divdf3+0xc4>
    4ff8:	000c8513          	mv	a0,s9
    4ffc:	154010ef          	jal	6150 <__clzsi2>
    5000:	01550793          	addi	a5,a0,21
    5004:	01c00693          	li	a3,28
    5008:	02050713          	addi	a4,a0,32
    500c:	fcf6d0e3          	bge	a3,a5,4fcc <__divdf3+0x558>
    5010:	ff850513          	addi	a0,a0,-8
    5014:	00ac9433          	sll	s0,s9,a0
    5018:	fd1ff06f          	j	4fe8 <__divdf3+0x574>
    501c:	01996433          	or	s0,s2,s9
    5020:	02041063          	bnez	s0,5040 <__divdf3+0x5cc>
    5024:	00000b93          	li	s7,0
    5028:	00200693          	li	a3,2
    502c:	b11ff06f          	j	4b3c <__divdf3+0xc8>
    5030:	00000b93          	li	s7,0
    5034:	00000793          	li	a5,0
    5038:	00100693          	li	a3,1
    503c:	b01ff06f          	j	4b3c <__divdf3+0xc8>
    5040:	00090413          	mv	s0,s2
    5044:	00300693          	li	a3,3
    5048:	af5ff06f          	j	4b3c <__divdf3+0xc8>
    504c:	ff678793          	addi	a5,a5,-10
    5050:	00500713          	li	a4,5
    5054:	1cf76263          	bltu	a4,a5,5218 <__divdf3+0x7a4>
    5058:	00020737          	lui	a4,0x20
    505c:	00279793          	slli	a5,a5,0x2
    5060:	1b470713          	addi	a4,a4,436 # 201b4 <jump_table.19+0xc4>
    5064:	00e787b3          	add	a5,a5,a4
    5068:	0007a783          	lw	a5,0(a5)
    506c:	00078067          	jr	a5
    5070:	00f71733          	sll	a4,a4,a5
    5074:	05477613          	andi	a2,a4,84
    5078:	04061063          	bnez	a2,50b8 <__divdf3+0x644>
    507c:	08877713          	andi	a4,a4,136
    5080:	0c071263          	bnez	a4,5144 <__divdf3+0x6d0>
    5084:	aeb792e3          	bne	a5,a1,4b68 <__divdf3+0xf4>
    5088:	00080437          	lui	s0,0x80
    508c:	7ff00793          	li	a5,2047
    5090:	00000913          	li	s2,0
    5094:	e29ff06f          	j	4ebc <__divdf3+0x448>
    5098:	000a8913          	mv	s2,s5
    509c:	000c0413          	mv	s0,s8
    50a0:	00200793          	li	a5,2
    50a4:	16fb0a63          	beq	s6,a5,5218 <__divdf3+0x7a4>
    50a8:	00300793          	li	a5,3
    50ac:	16fb0063          	beq	s6,a5,520c <__divdf3+0x798>
    50b0:	00100793          	li	a5,1
    50b4:	dafb16e3          	bne	s6,a5,4e60 <__divdf3+0x3ec>
    50b8:	00000413          	li	s0,0
    50bc:	00000713          	li	a4,0
    50c0:	10c0006f          	j	51cc <__divdf3+0x758>
    50c4:	fffa0a13          	addi	s4,s4,-1
    50c8:	00000993          	li	s3,0
    50cc:	abdff06f          	j	4b88 <__divdf3+0x114>
    50d0:	ffe40413          	addi	s0,s0,-2 # 7fffe <_sp+0x5741e>
    50d4:	019787b3          	add	a5,a5,s9
    50d8:	b11ff06f          	j	4be8 <__divdf3+0x174>
    50dc:	ffec0c13          	addi	s8,s8,-2
    50e0:	019787b3          	add	a5,a5,s9
    50e4:	b4dff06f          	j	4c30 <__divdf3+0x1bc>
    50e8:	00ed09b3          	add	s3,s10,a4
    50ec:	01a9b733          	sltu	a4,s3,s10
    50f0:	01970733          	add	a4,a4,s9
    50f4:	ffe40413          	addi	s0,s0,-2
    50f8:	00e787b3          	add	a5,a5,a4
    50fc:	c05ff06f          	j	4d00 <__divdf3+0x28c>
    5100:	ffe48493          	addi	s1,s1,-2
    5104:	01970733          	add	a4,a4,s9
    5108:	c51ff06f          	j	4d58 <__divdf3+0x2e4>
    510c:	ffec0c13          	addi	s8,s8,-2
    5110:	019787b3          	add	a5,a5,s9
    5114:	c8dff06f          	j	4da0 <__divdf3+0x32c>
    5118:	009b9b93          	slli	s7,s7,0x9
    511c:	01abb7b3          	sltu	a5,s7,s10
    5120:	019787b3          	add	a5,a5,s9
    5124:	ffe48493          	addi	s1,s1,-2
    5128:	00f687b3          	add	a5,a3,a5
    512c:	d2dff06f          	j	4e58 <__divdf3+0x3e4>
    5130:	00000b93          	li	s7,0
    5134:	d25ff06f          	j	4e58 <__divdf3+0x3e4>
    5138:	00060493          	mv	s1,a2
    513c:	0014e493          	ori	s1,s1,1
    5140:	d21ff06f          	j	4e60 <__divdf3+0x3ec>
    5144:	00098913          	mv	s2,s3
    5148:	000b8493          	mv	s1,s7
    514c:	00068b13          	mv	s6,a3
    5150:	f51ff06f          	j	50a0 <__divdf3+0x62c>
    5154:	08078063          	beqz	a5,51d4 <__divdf3+0x760>
    5158:	fc900713          	li	a4,-55
    515c:	f4e7cee3          	blt	a5,a4,50b8 <__divdf3+0x644>
    5160:	fe200713          	li	a4,-30
    5164:	06e7cc63          	blt	a5,a4,51dc <__divdf3+0x768>
    5168:	00100713          	li	a4,1
    516c:	40f70733          	sub	a4,a4,a5
    5170:	41ea0a13          	addi	s4,s4,1054
    5174:	00e4d7b3          	srl	a5,s1,a4
    5178:	014494b3          	sll	s1,s1,s4
    517c:	009034b3          	snez	s1,s1
    5180:	01441a33          	sll	s4,s0,s4
    5184:	0144e4b3          	or	s1,s1,s4
    5188:	0097e7b3          	or	a5,a5,s1
    518c:	00e45433          	srl	s0,s0,a4
    5190:	0077f713          	andi	a4,a5,7
    5194:	02070063          	beqz	a4,51b4 <__divdf3+0x740>
    5198:	00f7f713          	andi	a4,a5,15
    519c:	00400693          	li	a3,4
    51a0:	00d70a63          	beq	a4,a3,51b4 <__divdf3+0x740>
    51a4:	00d78733          	add	a4,a5,a3
    51a8:	00f736b3          	sltu	a3,a4,a5
    51ac:	00d40433          	add	s0,s0,a3
    51b0:	00070793          	mv	a5,a4
    51b4:	00841713          	slli	a4,s0,0x8
    51b8:	06074863          	bltz	a4,5228 <__divdf3+0x7b4>
    51bc:	01d41713          	slli	a4,s0,0x1d
    51c0:	0037d793          	srli	a5,a5,0x3
    51c4:	00f76733          	or	a4,a4,a5
    51c8:	00345413          	srli	s0,s0,0x3
    51cc:	00000793          	li	a5,0
    51d0:	cedff06f          	j	4ebc <__divdf3+0x448>
    51d4:	00100713          	li	a4,1
    51d8:	f99ff06f          	j	5170 <__divdf3+0x6fc>
    51dc:	fe100613          	li	a2,-31
    51e0:	40f60733          	sub	a4,a2,a5
    51e4:	00e45733          	srl	a4,s0,a4
    51e8:	00000693          	li	a3,0
    51ec:	00c78663          	beq	a5,a2,51f8 <__divdf3+0x784>
    51f0:	43ea0a13          	addi	s4,s4,1086
    51f4:	014416b3          	sll	a3,s0,s4
    51f8:	00d4e4b3          	or	s1,s1,a3
    51fc:	009034b3          	snez	s1,s1
    5200:	009767b3          	or	a5,a4,s1
    5204:	00000413          	li	s0,0
    5208:	f89ff06f          	j	5190 <__divdf3+0x71c>
    520c:	00080437          	lui	s0,0x80
    5210:	00000713          	li	a4,0
    5214:	e79ff06f          	j	508c <__divdf3+0x618>
    5218:	00000413          	li	s0,0
    521c:	00000713          	li	a4,0
    5220:	7ff00793          	li	a5,2047
    5224:	c99ff06f          	j	4ebc <__divdf3+0x448>
    5228:	00000413          	li	s0,0
    522c:	00000713          	li	a4,0
    5230:	00100793          	li	a5,1
    5234:	c89ff06f          	j	4ebc <__divdf3+0x448>

00005238 <__muldf3>:
    5238:	fd010113          	addi	sp,sp,-48
    523c:	01412c23          	sw	s4,24(sp)
    5240:	0145da13          	srli	s4,a1,0x14
    5244:	02812423          	sw	s0,40(sp)
    5248:	02912223          	sw	s1,36(sp)
    524c:	01312e23          	sw	s3,28(sp)
    5250:	01512a23          	sw	s5,20(sp)
    5254:	01712623          	sw	s7,12(sp)
    5258:	00c59493          	slli	s1,a1,0xc
    525c:	02112623          	sw	ra,44(sp)
    5260:	03212023          	sw	s2,32(sp)
    5264:	01612823          	sw	s6,16(sp)
    5268:	7ffa7a13          	andi	s4,s4,2047
    526c:	00050413          	mv	s0,a0
    5270:	00060b93          	mv	s7,a2
    5274:	00068993          	mv	s3,a3
    5278:	00c4d493          	srli	s1,s1,0xc
    527c:	01f5da93          	srli	s5,a1,0x1f
    5280:	0c0a0263          	beqz	s4,5344 <__muldf3+0x10c>
    5284:	7ff00793          	li	a5,2047
    5288:	12fa0463          	beq	s4,a5,53b0 <__muldf3+0x178>
    528c:	00349493          	slli	s1,s1,0x3
    5290:	01d55793          	srli	a5,a0,0x1d
    5294:	0097e7b3          	or	a5,a5,s1
    5298:	008004b7          	lui	s1,0x800
    529c:	0097e4b3          	or	s1,a5,s1
    52a0:	00351913          	slli	s2,a0,0x3
    52a4:	c01a0a13          	addi	s4,s4,-1023
    52a8:	00000b13          	li	s6,0
    52ac:	0149d793          	srli	a5,s3,0x14
    52b0:	00c99413          	slli	s0,s3,0xc
    52b4:	7ff7f793          	andi	a5,a5,2047
    52b8:	00c45413          	srli	s0,s0,0xc
    52bc:	01f9d993          	srli	s3,s3,0x1f
    52c0:	12078063          	beqz	a5,53e0 <__muldf3+0x1a8>
    52c4:	7ff00713          	li	a4,2047
    52c8:	18e78463          	beq	a5,a4,5450 <__muldf3+0x218>
    52cc:	00341413          	slli	s0,s0,0x3
    52d0:	01dbd713          	srli	a4,s7,0x1d
    52d4:	00876733          	or	a4,a4,s0
    52d8:	00800437          	lui	s0,0x800
    52dc:	00876433          	or	s0,a4,s0
    52e0:	003b9593          	slli	a1,s7,0x3
    52e4:	c0178793          	addi	a5,a5,-1023
    52e8:	00000693          	li	a3,0
    52ec:	00fa0a33          	add	s4,s4,a5
    52f0:	002b1793          	slli	a5,s6,0x2
    52f4:	00d7e7b3          	or	a5,a5,a3
    52f8:	00b00713          	li	a4,11
    52fc:	001a0893          	addi	a7,s4,1
    5300:	1af74663          	blt	a4,a5,54ac <__muldf3+0x274>
    5304:	00200613          	li	a2,2
    5308:	013ac833          	xor	a6,s5,s3
    530c:	00100713          	li	a4,1
    5310:	16f64863          	blt	a2,a5,5480 <__muldf3+0x248>
    5314:	fff78793          	addi	a5,a5,-1
    5318:	1af76a63          	bltu	a4,a5,54cc <__muldf3+0x294>
    531c:	00068b13          	mv	s6,a3
    5320:	00200793          	li	a5,2
    5324:	58fb0863          	beq	s6,a5,58b4 <__muldf3+0x67c>
    5328:	00300793          	li	a5,3
    532c:	18fb0663          	beq	s6,a5,54b8 <__muldf3+0x280>
    5330:	00100793          	li	a5,1
    5334:	40fb1463          	bne	s6,a5,573c <__muldf3+0x504>
    5338:	00000413          	li	s0,0
    533c:	00000713          	li	a4,0
    5340:	5340006f          	j	5874 <__muldf3+0x63c>
    5344:	00a4e933          	or	s2,s1,a0
    5348:	06090e63          	beqz	s2,53c4 <__muldf3+0x18c>
    534c:	04048263          	beqz	s1,5390 <__muldf3+0x158>
    5350:	00048513          	mv	a0,s1
    5354:	5fd000ef          	jal	6150 <__clzsi2>
    5358:	00050713          	mv	a4,a0
    535c:	ff550693          	addi	a3,a0,-11
    5360:	01d00793          	li	a5,29
    5364:	ff870613          	addi	a2,a4,-8
    5368:	40d787b3          	sub	a5,a5,a3
    536c:	00c494b3          	sll	s1,s1,a2
    5370:	00f457b3          	srl	a5,s0,a5
    5374:	0097e7b3          	or	a5,a5,s1
    5378:	00c414b3          	sll	s1,s0,a2
    537c:	c0d00a13          	li	s4,-1011
    5380:	00048913          	mv	s2,s1
    5384:	40ea0a33          	sub	s4,s4,a4
    5388:	00078493          	mv	s1,a5
    538c:	f1dff06f          	j	52a8 <__muldf3+0x70>
    5390:	5c1000ef          	jal	6150 <__clzsi2>
    5394:	01550693          	addi	a3,a0,21
    5398:	01c00793          	li	a5,28
    539c:	02050713          	addi	a4,a0,32
    53a0:	fcd7d0e3          	bge	a5,a3,5360 <__muldf3+0x128>
    53a4:	ff850793          	addi	a5,a0,-8
    53a8:	00f417b3          	sll	a5,s0,a5
    53ac:	fd1ff06f          	j	537c <__muldf3+0x144>
    53b0:	00a4e933          	or	s2,s1,a0
    53b4:	02091063          	bnez	s2,53d4 <__muldf3+0x19c>
    53b8:	00000493          	li	s1,0
    53bc:	00200b13          	li	s6,2
    53c0:	eedff06f          	j	52ac <__muldf3+0x74>
    53c4:	00000493          	li	s1,0
    53c8:	00000a13          	li	s4,0
    53cc:	00100b13          	li	s6,1
    53d0:	eddff06f          	j	52ac <__muldf3+0x74>
    53d4:	00050913          	mv	s2,a0
    53d8:	00300b13          	li	s6,3
    53dc:	ed1ff06f          	j	52ac <__muldf3+0x74>
    53e0:	017465b3          	or	a1,s0,s7
    53e4:	08058063          	beqz	a1,5464 <__muldf3+0x22c>
    53e8:	04040263          	beqz	s0,542c <__muldf3+0x1f4>
    53ec:	00040513          	mv	a0,s0
    53f0:	561000ef          	jal	6150 <__clzsi2>
    53f4:	00050693          	mv	a3,a0
    53f8:	ff550793          	addi	a5,a0,-11
    53fc:	01d00713          	li	a4,29
    5400:	ff868613          	addi	a2,a3,-8 # fff8 <heap.cpp.0096869b+0x2adb>
    5404:	40f70733          	sub	a4,a4,a5
    5408:	00c41433          	sll	s0,s0,a2
    540c:	00ebd733          	srl	a4,s7,a4
    5410:	00876733          	or	a4,a4,s0
    5414:	00cb9433          	sll	s0,s7,a2
    5418:	c0d00793          	li	a5,-1011
    541c:	00040593          	mv	a1,s0
    5420:	40d787b3          	sub	a5,a5,a3
    5424:	00070413          	mv	s0,a4
    5428:	ec1ff06f          	j	52e8 <__muldf3+0xb0>
    542c:	000b8513          	mv	a0,s7
    5430:	521000ef          	jal	6150 <__clzsi2>
    5434:	01550793          	addi	a5,a0,21
    5438:	01c00713          	li	a4,28
    543c:	02050693          	addi	a3,a0,32
    5440:	faf75ee3          	bge	a4,a5,53fc <__muldf3+0x1c4>
    5444:	ff850713          	addi	a4,a0,-8
    5448:	00eb9733          	sll	a4,s7,a4
    544c:	fcdff06f          	j	5418 <__muldf3+0x1e0>
    5450:	017465b3          	or	a1,s0,s7
    5454:	02059063          	bnez	a1,5474 <__muldf3+0x23c>
    5458:	00000413          	li	s0,0
    545c:	00200693          	li	a3,2
    5460:	e8dff06f          	j	52ec <__muldf3+0xb4>
    5464:	00000413          	li	s0,0
    5468:	00000793          	li	a5,0
    546c:	00100693          	li	a3,1
    5470:	e7dff06f          	j	52ec <__muldf3+0xb4>
    5474:	000b8593          	mv	a1,s7
    5478:	00300693          	li	a3,3
    547c:	e71ff06f          	j	52ec <__muldf3+0xb4>
    5480:	00f717b3          	sll	a5,a4,a5
    5484:	5307f713          	andi	a4,a5,1328
    5488:	36071063          	bnez	a4,57e8 <__muldf3+0x5b0>
    548c:	00001737          	lui	a4,0x1
    5490:	88870713          	addi	a4,a4,-1912 # 888 <spi_event_handler+0x198>
    5494:	00e7f733          	and	a4,a5,a4
    5498:	34071463          	bnez	a4,57e0 <__muldf3+0x5a8>
    549c:	2407f793          	andi	a5,a5,576
    54a0:	02078663          	beqz	a5,54cc <__muldf3+0x294>
    54a4:	00080437          	lui	s0,0x80
    54a8:	0180006f          	j	54c0 <__muldf3+0x288>
    54ac:	00f00713          	li	a4,15
    54b0:	000a8813          	mv	a6,s5
    54b4:	32e79a63          	bne	a5,a4,57e8 <__muldf3+0x5b0>
    54b8:	00080437          	lui	s0,0x80
    54bc:	00000713          	li	a4,0
    54c0:	7ff00793          	li	a5,2047
    54c4:	00000813          	li	a6,0
    54c8:	2d00006f          	j	5798 <__muldf3+0x560>
    54cc:	01095793          	srli	a5,s2,0x10
    54d0:	01059f13          	slli	t5,a1,0x10
    54d4:	01091913          	slli	s2,s2,0x10
    54d8:	01095913          	srli	s2,s2,0x10
    54dc:	010f5f13          	srli	t5,t5,0x10
    54e0:	0105de93          	srli	t4,a1,0x10
    54e4:	00090513          	mv	a0,s2
    54e8:	000f0593          	mv	a1,t5
    54ec:	38d000ef          	jal	6078 <__mulsi3>
    54f0:	00050e13          	mv	t3,a0
    54f4:	000e8593          	mv	a1,t4
    54f8:	00090513          	mv	a0,s2
    54fc:	37d000ef          	jal	6078 <__mulsi3>
    5500:	00050f93          	mv	t6,a0
    5504:	000f0593          	mv	a1,t5
    5508:	00078513          	mv	a0,a5
    550c:	36d000ef          	jal	6078 <__mulsi3>
    5510:	00050293          	mv	t0,a0
    5514:	000e8593          	mv	a1,t4
    5518:	00078513          	mv	a0,a5
    551c:	35d000ef          	jal	6078 <__mulsi3>
    5520:	010e5313          	srli	t1,t3,0x10
    5524:	005f8fb3          	add	t6,t6,t0
    5528:	01f30333          	add	t1,t1,t6
    552c:	00050713          	mv	a4,a0
    5530:	00537663          	bgeu	t1,t0,553c <__muldf3+0x304>
    5534:	000106b7          	lui	a3,0x10
    5538:	00d50733          	add	a4,a0,a3
    553c:	010e1e13          	slli	t3,t3,0x10
    5540:	01035393          	srli	t2,t1,0x10
    5544:	010e5e13          	srli	t3,t3,0x10
    5548:	01031313          	slli	t1,t1,0x10
    554c:	01c30333          	add	t1,t1,t3
    5550:	01045e13          	srli	t3,s0,0x10
    5554:	01041413          	slli	s0,s0,0x10
    5558:	01045413          	srli	s0,s0,0x10
    555c:	00090513          	mv	a0,s2
    5560:	00040593          	mv	a1,s0
    5564:	315000ef          	jal	6078 <__mulsi3>
    5568:	00050293          	mv	t0,a0
    556c:	000e0593          	mv	a1,t3
    5570:	00090513          	mv	a0,s2
    5574:	305000ef          	jal	6078 <__mulsi3>
    5578:	00050f93          	mv	t6,a0
    557c:	00040593          	mv	a1,s0
    5580:	00078513          	mv	a0,a5
    5584:	2f5000ef          	jal	6078 <__mulsi3>
    5588:	00050913          	mv	s2,a0
    558c:	000e0593          	mv	a1,t3
    5590:	00078513          	mv	a0,a5
    5594:	2e5000ef          	jal	6078 <__mulsi3>
    5598:	0102d793          	srli	a5,t0,0x10
    559c:	012f8fb3          	add	t6,t6,s2
    55a0:	01f787b3          	add	a5,a5,t6
    55a4:	0127f663          	bgeu	a5,s2,55b0 <__muldf3+0x378>
    55a8:	000106b7          	lui	a3,0x10
    55ac:	00d50533          	add	a0,a0,a3
    55b0:	01029293          	slli	t0,t0,0x10
    55b4:	0107d593          	srli	a1,a5,0x10
    55b8:	0102d293          	srli	t0,t0,0x10
    55bc:	0104d913          	srli	s2,s1,0x10
    55c0:	01079793          	slli	a5,a5,0x10
    55c4:	01049493          	slli	s1,s1,0x10
    55c8:	005787b3          	add	a5,a5,t0
    55cc:	0104d493          	srli	s1,s1,0x10
    55d0:	00a58fb3          	add	t6,a1,a0
    55d4:	00f383b3          	add	t2,t2,a5
    55d8:	00048513          	mv	a0,s1
    55dc:	000f0593          	mv	a1,t5
    55e0:	299000ef          	jal	6078 <__mulsi3>
    55e4:	00050293          	mv	t0,a0
    55e8:	000e8593          	mv	a1,t4
    55ec:	00048513          	mv	a0,s1
    55f0:	289000ef          	jal	6078 <__mulsi3>
    55f4:	00050993          	mv	s3,a0
    55f8:	000f0593          	mv	a1,t5
    55fc:	00090513          	mv	a0,s2
    5600:	279000ef          	jal	6078 <__mulsi3>
    5604:	00050f13          	mv	t5,a0
    5608:	000e8593          	mv	a1,t4
    560c:	00090513          	mv	a0,s2
    5610:	269000ef          	jal	6078 <__mulsi3>
    5614:	0102d613          	srli	a2,t0,0x10
    5618:	01e989b3          	add	s3,s3,t5
    561c:	01360633          	add	a2,a2,s3
    5620:	01e67663          	bgeu	a2,t5,562c <__muldf3+0x3f4>
    5624:	000106b7          	lui	a3,0x10
    5628:	00d50533          	add	a0,a0,a3
    562c:	01029293          	slli	t0,t0,0x10
    5630:	01065593          	srli	a1,a2,0x10
    5634:	0102d293          	srli	t0,t0,0x10
    5638:	01061613          	slli	a2,a2,0x10
    563c:	00a58eb3          	add	t4,a1,a0
    5640:	00560f33          	add	t5,a2,t0
    5644:	00048513          	mv	a0,s1
    5648:	00040593          	mv	a1,s0
    564c:	22d000ef          	jal	6078 <__mulsi3>
    5650:	00050293          	mv	t0,a0
    5654:	000e0593          	mv	a1,t3
    5658:	00048513          	mv	a0,s1
    565c:	21d000ef          	jal	6078 <__mulsi3>
    5660:	00050493          	mv	s1,a0
    5664:	00040593          	mv	a1,s0
    5668:	00090513          	mv	a0,s2
    566c:	20d000ef          	jal	6078 <__mulsi3>
    5670:	00050413          	mv	s0,a0
    5674:	000e0593          	mv	a1,t3
    5678:	00090513          	mv	a0,s2
