
sw/build/main.elf:     file format elf32-littleriscv


Disassembly of section .vectors:

00000000 <__vector_start>:
   0:	6390406f          	j	4e38 <handler_exception>
   4:	22c0006f          	j	230 <__no_irq_handler>
   8:	2280006f          	j	230 <__no_irq_handler>
   c:	6f10406f          	j	4efc <handler_irq_software>
  10:	2200006f          	j	230 <__no_irq_handler>
  14:	21c0006f          	j	230 <__no_irq_handler>
  18:	2180006f          	j	230 <__no_irq_handler>
  1c:	7350406f          	j	4f50 <handler_irq_timer>
  20:	2100006f          	j	230 <__no_irq_handler>
  24:	20c0006f          	j	230 <__no_irq_handler>
  28:	2080006f          	j	230 <__no_irq_handler>
  2c:	5590406f          	j	4d84 <handler_irq_external>
  30:	2000006f          	j	230 <__no_irq_handler>
  34:	1fc0006f          	j	230 <__no_irq_handler>
  38:	1f80006f          	j	230 <__no_irq_handler>
  3c:	1f40006f          	j	230 <__no_irq_handler>
  40:	4b80406f          	j	44f8 <handler_irq_fast_timer_1>
  44:	5500406f          	j	4594 <handler_irq_fast_timer_2>
  48:	5e80406f          	j	4630 <handler_irq_fast_timer_3>
  4c:	6800406f          	j	46cc <handler_irq_fast_dma_done>
  50:	2340506f          	j	5284 <handler_irq_fast_spi>
  54:	0d40506f          	j	5128 <handler_irq_fast_spi_flash>
  58:	0490406f          	j	48a0 <handler_irq_fast_gpio_0>
  5c:	0e10406f          	j	493c <handler_irq_fast_gpio_1>
  60:	1790406f          	j	49d8 <handler_irq_fast_gpio_2>
  64:	2110406f          	j	4a74 <handler_irq_fast_gpio_3>
  68:	2a90406f          	j	4b10 <handler_irq_fast_gpio_4>
  6c:	3410406f          	j	4bac <handler_irq_fast_gpio_5>
  70:	3dd0406f          	j	4c4c <handler_irq_fast_gpio_6>
  74:	4750406f          	j	4ce8 <handler_irq_fast_gpio_7>
  78:	6f00406f          	j	4768 <handler_irq_fast_dma_window>
  7c:	7880406f          	j	4804 <handler_irq_fast_external_peripheral>

Disassembly of section .init:

00000180 <_start>:
 180:	00021197          	auipc	gp,0x21
 184:	5f818193          	addi	gp,gp,1528 # 21778 <__global_pointer$>
 188:	00029117          	auipc	sp,0x29
 18c:	1b810113          	addi	sp,sp,440 # 29340 <_sp>
 190:	20000537          	lui	a0,0x20000
 194:	05f5e637          	lui	a2,0x5f5e
 198:	10060613          	addi	a2,a2,256 # 5f5e100 <_sp+0x5f34dc0>
 19c:	00c52e23          	sw	a2,28(a0) # 2000001c <_sp+0x1ffd6cdc>

000001a0 <_init_bss>:
 1a0:	00021517          	auipc	a0,0x21
 1a4:	f4050513          	addi	a0,a0,-192 # 210e0 <__stdio_exit_handler>
 1a8:	00021617          	auipc	a2,0x21
 1ac:	18c60613          	addi	a2,a2,396 # 21334 <__BSS_END__>
 1b0:	40a60633          	sub	a2,a2,a0
 1b4:	00000593          	li	a1,0
 1b8:	69c050ef          	jal	5854 <memset>
 1bc:	00000517          	auipc	a0,0x0
 1c0:	e4450513          	addi	a0,a0,-444 # 0 <__vector_start>
 1c4:	00156513          	ori	a0,a0,1
 1c8:	30551073          	csrw	mtvec,a0
 1cc:	00005517          	auipc	a0,0x5
 1d0:	63050513          	addi	a0,a0,1584 # 57fc <__libc_fini_array>
 1d4:	14c050ef          	jal	5320 <atexit>
 1d8:	590050ef          	jal	5768 <__libc_init_array>
 1dc:	00012503          	lw	a0,0(sp)
 1e0:	00410593          	addi	a1,sp,4
 1e4:	00000613          	li	a2,0
 1e8:	48c0a0ef          	jal	a674 <main>
 1ec:	00c0006f          	j	1f8 <exit>

000001f0 <_init>:
 1f0:	5b5040ef          	jal	4fa4 <init>

000001f4 <_fini>:
 1f4:	00008067          	ret

Disassembly of section .text:

000001f8 <exit>:
     1f8:	ff010113          	addi	sp,sp,-16
     1fc:	000067b7          	lui	a5,0x6
     200:	00812423          	sw	s0,8(sp)
     204:	00112623          	sw	ra,12(sp)
     208:	90478793          	addi	a5,a5,-1788 # 5904 <__call_exitprocs>
     20c:	00050413          	mv	s0,a0
     210:	00078663          	beqz	a5,21c <exit+0x24>
     214:	00000593          	li	a1,0
     218:	6ec050ef          	jal	5904 <__call_exitprocs>
     21c:	9681a783          	lw	a5,-1688(gp) # 210e0 <__stdio_exit_handler>
     220:	00078463          	beqz	a5,228 <exit+0x30>
     224:	000780e7          	jalr	a5
     228:	00040513          	mv	a0,s0
     22c:	589040ef          	jal	4fb4 <_exit>

00000230 <__no_irq_handler>:
     230:	0000006f          	j	230 <__no_irq_handler>

00000234 <fic_irq_dma_window>:
     234:	fe010113          	addi	sp,sp,-32
     238:	00112e23          	sw	ra,28(sp)
     23c:	00812c23          	sw	s0,24(sp)
     240:	02010413          	addi	s0,sp,32
     244:	fe042623          	sw	zero,-20(s0)
     248:	04c0006f          	j	294 <fic_irq_dma_window+0x60>
     24c:	98c18693          	addi	a3,gp,-1652 # 21104 <dma_subsys_per>
     250:	fec42703          	lw	a4,-20(s0)
     254:	00070793          	mv	a5,a4
     258:	00179793          	slli	a5,a5,0x1
     25c:	00e787b3          	add	a5,a5,a4
     260:	00279793          	slli	a5,a5,0x2
     264:	00f687b3          	add	a5,a3,a5
     268:	0087a783          	lw	a5,8(a5)
     26c:	0687a703          	lw	a4,104(a5)
     270:	00100793          	li	a5,1
     274:	00f71a63          	bne	a4,a5,288 <fic_irq_dma_window+0x54>
     278:	fec42783          	lw	a5,-20(s0)
     27c:	0ff7f793          	zext.b	a5,a5
     280:	00078513          	mv	a0,a5
     284:	100000ef          	jal	384 <dma_intr_handler_window_done>
     288:	fec42783          	lw	a5,-20(s0)
     28c:	00178793          	addi	a5,a5,1
     290:	fef42623          	sw	a5,-20(s0)
     294:	fec42703          	lw	a4,-20(s0)
     298:	00300793          	li	a5,3
     29c:	fae7d8e3          	bge	a5,a4,24c <fic_irq_dma_window+0x18>
     2a0:	00000013          	nop
     2a4:	01c12083          	lw	ra,28(sp)
     2a8:	01812403          	lw	s0,24(sp)
     2ac:	02010113          	addi	sp,sp,32
     2b0:	00008067          	ret

000002b4 <fic_irq_dma_done>:
     2b4:	fe010113          	addi	sp,sp,-32
     2b8:	00112e23          	sw	ra,28(sp)
     2bc:	00812c23          	sw	s0,24(sp)
     2c0:	02010413          	addi	s0,sp,32
     2c4:	fe042623          	sw	zero,-20(s0)
     2c8:	0700006f          	j	338 <fic_irq_dma_done+0x84>
     2cc:	98c18693          	addi	a3,gp,-1652 # 21104 <dma_subsys_per>
     2d0:	fec42703          	lw	a4,-20(s0)
     2d4:	00070793          	mv	a5,a4
     2d8:	00179793          	slli	a5,a5,0x1
     2dc:	00e787b3          	add	a5,a5,a4
     2e0:	00279793          	slli	a5,a5,0x2
     2e4:	00f687b3          	add	a5,a3,a5
     2e8:	0087a783          	lw	a5,8(a5)
     2ec:	0647a703          	lw	a4,100(a5)
     2f0:	00100793          	li	a5,1
     2f4:	02f71c63          	bne	a4,a5,32c <fic_irq_dma_done+0x78>
     2f8:	98c18693          	addi	a3,gp,-1652 # 21104 <dma_subsys_per>
     2fc:	fec42703          	lw	a4,-20(s0)
     300:	00070793          	mv	a5,a4
     304:	00179793          	slli	a5,a5,0x1
     308:	00e787b3          	add	a5,a5,a4
     30c:	00279793          	slli	a5,a5,0x2
     310:	00f687b3          	add	a5,a3,a5
     314:	00100713          	li	a4,1
     318:	00e78223          	sb	a4,4(a5)
     31c:	fec42783          	lw	a5,-20(s0)
     320:	0ff7f793          	zext.b	a5,a5
     324:	00078513          	mv	a0,a5
     328:	030000ef          	jal	358 <dma_intr_handler_trans_done>
     32c:	fec42783          	lw	a5,-20(s0)
     330:	00178793          	addi	a5,a5,1
     334:	fef42623          	sw	a5,-20(s0)
     338:	fec42703          	lw	a4,-20(s0)
     33c:	00300793          	li	a5,3
     340:	f8e7d6e3          	bge	a5,a4,2cc <fic_irq_dma_done+0x18>
     344:	00000013          	nop
     348:	01c12083          	lw	ra,28(sp)
     34c:	01812403          	lw	s0,24(sp)
     350:	02010113          	addi	sp,sp,32
     354:	00008067          	ret

00000358 <dma_intr_handler_trans_done>:
     358:	fe010113          	addi	sp,sp,-32
     35c:	00112e23          	sw	ra,28(sp)
     360:	00812c23          	sw	s0,24(sp)
     364:	02010413          	addi	s0,sp,32
     368:	00050793          	mv	a5,a0
     36c:	fef407a3          	sb	a5,-17(s0)
     370:	00000013          	nop
     374:	01c12083          	lw	ra,28(sp)
     378:	01812403          	lw	s0,24(sp)
     37c:	02010113          	addi	sp,sp,32
     380:	00008067          	ret

00000384 <dma_intr_handler_window_done>:
     384:	fe010113          	addi	sp,sp,-32
     388:	00112e23          	sw	ra,28(sp)
     38c:	00812c23          	sw	s0,24(sp)
     390:	02010413          	addi	s0,sp,32
     394:	00050793          	mv	a5,a0
     398:	fef407a3          	sb	a5,-17(s0)
     39c:	00000013          	nop
     3a0:	01c12083          	lw	ra,28(sp)
     3a4:	01812403          	lw	s0,24(sp)
     3a8:	02010113          	addi	sp,sp,32
     3ac:	00008067          	ret

000003b0 <fic_irq_timer_1>:
     3b0:	ff010113          	addi	sp,sp,-16
     3b4:	00112623          	sw	ra,12(sp)
     3b8:	00812423          	sw	s0,8(sp)
     3bc:	01010413          	addi	s0,sp,16
     3c0:	00000013          	nop
     3c4:	00c12083          	lw	ra,12(sp)
     3c8:	00812403          	lw	s0,8(sp)
     3cc:	01010113          	addi	sp,sp,16
     3d0:	00008067          	ret

000003d4 <fic_irq_timer_2>:
     3d4:	ff010113          	addi	sp,sp,-16
     3d8:	00112623          	sw	ra,12(sp)
     3dc:	00812423          	sw	s0,8(sp)
     3e0:	01010413          	addi	s0,sp,16
     3e4:	00000013          	nop
     3e8:	00c12083          	lw	ra,12(sp)
     3ec:	00812403          	lw	s0,8(sp)
     3f0:	01010113          	addi	sp,sp,16
     3f4:	00008067          	ret

000003f8 <fic_irq_timer_3>:
     3f8:	ff010113          	addi	sp,sp,-16
     3fc:	00112623          	sw	ra,12(sp)
     400:	00812423          	sw	s0,8(sp)
     404:	01010413          	addi	s0,sp,16
     408:	00000013          	nop
     40c:	00c12083          	lw	ra,12(sp)
     410:	00812403          	lw	s0,8(sp)
     414:	01010113          	addi	sp,sp,16
     418:	00008067          	ret

0000041c <fic_irq_ext_peripheral>:
     41c:	ff010113          	addi	sp,sp,-16
     420:	00112623          	sw	ra,12(sp)
     424:	00812423          	sw	s0,8(sp)
     428:	01010413          	addi	s0,sp,16
     42c:	00000013          	nop
     430:	00c12083          	lw	ra,12(sp)
     434:	00812403          	lw	s0,8(sp)
     438:	01010113          	addi	sp,sp,16
     43c:	00008067          	ret

00000440 <fic_irq_gpio_0>:
     440:	ff010113          	addi	sp,sp,-16
     444:	00112623          	sw	ra,12(sp)
     448:	00812423          	sw	s0,8(sp)
     44c:	01010413          	addi	s0,sp,16
     450:	00000013          	nop
     454:	00c12083          	lw	ra,12(sp)
     458:	00812403          	lw	s0,8(sp)
     45c:	01010113          	addi	sp,sp,16
     460:	00008067          	ret

00000464 <fic_irq_gpio_1>:
     464:	ff010113          	addi	sp,sp,-16
     468:	00112623          	sw	ra,12(sp)
     46c:	00812423          	sw	s0,8(sp)
     470:	01010413          	addi	s0,sp,16
     474:	00000013          	nop
     478:	00c12083          	lw	ra,12(sp)
     47c:	00812403          	lw	s0,8(sp)
     480:	01010113          	addi	sp,sp,16
     484:	00008067          	ret

00000488 <fic_irq_gpio_2>:
     488:	ff010113          	addi	sp,sp,-16
     48c:	00112623          	sw	ra,12(sp)
     490:	00812423          	sw	s0,8(sp)
     494:	01010413          	addi	s0,sp,16
     498:	00000013          	nop
     49c:	00c12083          	lw	ra,12(sp)
     4a0:	00812403          	lw	s0,8(sp)
     4a4:	01010113          	addi	sp,sp,16
     4a8:	00008067          	ret

000004ac <fic_irq_gpio_3>:
     4ac:	ff010113          	addi	sp,sp,-16
     4b0:	00112623          	sw	ra,12(sp)
     4b4:	00812423          	sw	s0,8(sp)
     4b8:	01010413          	addi	s0,sp,16
     4bc:	00000013          	nop
     4c0:	00c12083          	lw	ra,12(sp)
     4c4:	00812403          	lw	s0,8(sp)
     4c8:	01010113          	addi	sp,sp,16
     4cc:	00008067          	ret

000004d0 <fic_irq_gpio_4>:
     4d0:	ff010113          	addi	sp,sp,-16
     4d4:	00112623          	sw	ra,12(sp)
     4d8:	00812423          	sw	s0,8(sp)
     4dc:	01010413          	addi	s0,sp,16
     4e0:	00000013          	nop
     4e4:	00c12083          	lw	ra,12(sp)
     4e8:	00812403          	lw	s0,8(sp)
     4ec:	01010113          	addi	sp,sp,16
     4f0:	00008067          	ret

000004f4 <fic_irq_gpio_5>:
     4f4:	ff010113          	addi	sp,sp,-16
     4f8:	00112623          	sw	ra,12(sp)
     4fc:	00812423          	sw	s0,8(sp)
     500:	01010413          	addi	s0,sp,16
     504:	00000013          	nop
     508:	00c12083          	lw	ra,12(sp)
     50c:	00812403          	lw	s0,8(sp)
     510:	01010113          	addi	sp,sp,16
     514:	00008067          	ret

00000518 <fic_irq_gpio_6>:
     518:	ff010113          	addi	sp,sp,-16
     51c:	00112623          	sw	ra,12(sp)
     520:	00812423          	sw	s0,8(sp)
     524:	01010413          	addi	s0,sp,16
     528:	00000013          	nop
     52c:	00c12083          	lw	ra,12(sp)
     530:	00812403          	lw	s0,8(sp)
     534:	01010113          	addi	sp,sp,16
     538:	00008067          	ret

0000053c <fic_irq_gpio_7>:
     53c:	ff010113          	addi	sp,sp,-16
     540:	00112623          	sw	ra,12(sp)
     544:	00812423          	sw	s0,8(sp)
     548:	01010413          	addi	s0,sp,16
     54c:	00000013          	nop
     550:	00c12083          	lw	ra,12(sp)
     554:	00812403          	lw	s0,8(sp)
     558:	01010113          	addi	sp,sp,16
     55c:	00008067          	ret

00000560 <spi_get_events>:
     560:	ff010113          	addi	sp,sp,-16
     564:	01452783          	lw	a5,20(a0)
     568:	00f12623          	sw	a5,12(sp)
     56c:	00c12683          	lw	a3,12(sp)
     570:	0196d693          	srli	a3,a3,0x19
     574:	0016f693          	andi	a3,a3,1
     578:	0005a783          	lw	a5,0(a1)
     57c:	00c12703          	lw	a4,12(sp)
     580:	01b75713          	srli	a4,a4,0x1b
     584:	ffc7f793          	andi	a5,a5,-4
     588:	00d7e7b3          	or	a5,a5,a3
     58c:	00c12683          	lw	a3,12(sp)
     590:	0126d693          	srli	a3,a3,0x12
     594:	00277713          	andi	a4,a4,2
     598:	00f76733          	or	a4,a4,a5
     59c:	00c12783          	lw	a5,12(sp)
     5a0:	0177d793          	srli	a5,a5,0x17
     5a4:	0046f693          	andi	a3,a3,4
     5a8:	ff377713          	andi	a4,a4,-13
     5ac:	00d76733          	or	a4,a4,a3
     5b0:	00c12683          	lw	a3,12(sp)
     5b4:	01f6d693          	srli	a3,a3,0x1f
     5b8:	0087f793          	andi	a5,a5,8
     5bc:	00e7e7b3          	or	a5,a5,a4
     5c0:	00c12703          	lw	a4,12(sp)
     5c4:	01975713          	srli	a4,a4,0x19
     5c8:	00469693          	slli	a3,a3,0x4
     5cc:	fcf7f793          	andi	a5,a5,-49
     5d0:	00d7e7b3          	or	a5,a5,a3
     5d4:	02077713          	andi	a4,a4,32
     5d8:	02074713          	xori	a4,a4,32
     5dc:	00f767b3          	or	a5,a4,a5
     5e0:	00f5a023          	sw	a5,0(a1)
     5e4:	00000513          	li	a0,0
     5e8:	01010113          	addi	sp,sp,16
     5ec:	00008067          	ret

000005f0 <_write>:
     5f0:	00100793          	li	a5,1
     5f4:	08f51063          	bne	a0,a5,674 <_write+0x84>
     5f8:	200007b7          	lui	a5,0x20000
     5fc:	01c7a783          	lw	a5,28(a5) # 2000001c <_sp+0x1ffd6cdc>
     600:	08078263          	beqz	a5,684 <_write+0x94>
     604:	300807b7          	lui	a5,0x30080
     608:	0007a623          	sw	zero,12(a5) # 3008000c <_sp+0x30056ccc>
     60c:	00300713          	li	a4,3
     610:	00e7ae23          	sw	a4,28(a5)
     614:	0207a223          	sw	zero,36(a5)
     618:	0207a623          	sw	zero,44(a5)
     61c:	0007a223          	sw	zero,4(a5)
     620:	fff00713          	li	a4,-1
     624:	00e7a023          	sw	a4,0(a5)
     628:	0a7c0737          	lui	a4,0xa7c0
     62c:	00370713          	addi	a4,a4,3 # a7c0003 <_sp+0xa796cc3>
     630:	00e7a623          	sw	a4,12(a5)
     634:	0007a223          	sw	zero,4(a5)
     638:	02060a63          	beqz	a2,66c <_write+0x7c>
     63c:	00c58833          	add	a6,a1,a2
     640:	00078713          	mv	a4,a5
     644:	0005c683          	lbu	a3,0(a1)
     648:	01072783          	lw	a5,16(a4)
     64c:	0017f793          	andi	a5,a5,1
     650:	fe079ce3          	bnez	a5,648 <_write+0x58>
     654:	00d72c23          	sw	a3,24(a4)
     658:	01072783          	lw	a5,16(a4)
     65c:	0087f793          	andi	a5,a5,8
     660:	fe078ce3          	beqz	a5,658 <_write+0x68>
     664:	00158593          	addi	a1,a1,1
     668:	fd059ee3          	bne	a1,a6,644 <_write+0x54>
     66c:	00060513          	mv	a0,a2
     670:	00008067          	ret
     674:	05800713          	li	a4,88
     678:	96e1a623          	sw	a4,-1684(gp) # 210e4 <errno>
     67c:	fff00613          	li	a2,-1
     680:	fedff06f          	j	66c <_write+0x7c>
     684:	05800713          	li	a4,88
     688:	96e1a623          	sw	a4,-1684(gp) # 210e4 <errno>
     68c:	ff1ff06f          	j	67c <_write+0x8c>

00000690 <spi_empty_rx>:
     690:	02452783          	lw	a5,36(a0)
     694:	00078863          	beqz	a5,6a4 <spi_empty_rx+0x14>
     698:	03452783          	lw	a5,52(a0)
     69c:	02852703          	lw	a4,40(a0)
     6a0:	02e7e863          	bltu	a5,a4,6d0 <spi_empty_rx+0x40>
     6a4:	00000513          	li	a0,0
     6a8:	00008067          	ret
     6ac:	0286a703          	lw	a4,40(a3)
     6b0:	02452683          	lw	a3,36(a0)
     6b4:	20d7c7b3          	sh2add	a5,a5,a3
     6b8:	00e7a023          	sw	a4,0(a5)
     6bc:	03452783          	lw	a5,52(a0)
     6c0:	00178793          	addi	a5,a5,1
     6c4:	02f52a23          	sw	a5,52(a0)
     6c8:	02852703          	lw	a4,40(a0)
     6cc:	00e7fe63          	bgeu	a5,a4,6e8 <spi_empty_rx+0x58>
     6d0:	00052683          	lw	a3,0(a0)
     6d4:	00068a63          	beqz	a3,6e8 <spi_empty_rx+0x58>
     6d8:	0146a703          	lw	a4,20(a3)
     6dc:	00875713          	srli	a4,a4,0x8
     6e0:	0ff77713          	zext.b	a4,a4
     6e4:	fc0714e3          	bnez	a4,6ac <spi_empty_rx+0x1c>
     6e8:	00100513          	li	a0,1
     6ec:	00008067          	ret

000006f0 <spi_event_handler>:
     6f0:	ff010113          	addi	sp,sp,-16
     6f4:	00112623          	sw	ra,12(sp)
     6f8:	00912423          	sw	s1,8(sp)
     6fc:	01212223          	sw	s2,4(sp)
     700:	00050493          	mv	s1,a0
     704:	00058913          	mv	s2,a1
     708:	0105f793          	andi	a5,a1,16
     70c:	02078063          	beqz	a5,72c <spi_event_handler+0x3c>
     710:	01452703          	lw	a4,20(a0)
     714:	00070863          	beqz	a4,724 <spi_event_handler+0x34>
     718:	02c52683          	lw	a3,44(a0)
     71c:	01854783          	lbu	a5,24(a0)
     720:	02f6e863          	bltu	a3,a5,750 <spi_event_handler+0x60>
     724:	02097793          	andi	a5,s2,32
     728:	0a079e63          	bnez	a5,7e4 <spi_event_handler+0xf4>
     72c:	00897793          	andi	a5,s2,8
     730:	14079063          	bnez	a5,870 <spi_event_handler+0x180>
     734:	00497913          	andi	s2,s2,4
     738:	1a091663          	bnez	s2,8e4 <spi_event_handler+0x1f4>
     73c:	00c12083          	lw	ra,12(sp)
     740:	00812483          	lw	s1,8(sp)
     744:	00412903          	lw	s2,4(sp)
     748:	01010113          	addi	sp,sp,16
     74c:	00008067          	ret
     750:	20e6c733          	sh2add	a4,a3,a4
     754:	00072703          	lw	a4,0(a4)
     758:	00871613          	slli	a2,a4,0x8
     75c:	00865593          	srli	a1,a2,0x8
     760:	01875713          	srli	a4,a4,0x18
     764:	00f77613          	andi	a2,a4,15
     768:	00168693          	addi	a3,a3,1
     76c:	02d52623          	sw	a3,44(a0)
     770:	00052503          	lw	a0,0(a0)
     774:	fa050ce3          	beqz	a0,72c <spi_event_handler+0x3c>
     778:	00265713          	srli	a4,a2,0x2
     77c:	01971713          	slli	a4,a4,0x19
     780:	00367613          	andi	a2,a2,3
     784:	01b61613          	slli	a2,a2,0x1b
     788:	00c76733          	or	a4,a4,a2
     78c:	40d787b3          	sub	a5,a5,a3
     790:	00f037b3          	snez	a5,a5
     794:	01879793          	slli	a5,a5,0x18
     798:	00f767b3          	or	a5,a4,a5
     79c:	fff58613          	addi	a2,a1,-1
     7a0:	00861613          	slli	a2,a2,0x8
     7a4:	00865613          	srli	a2,a2,0x8
     7a8:	00c7e633          	or	a2,a5,a2
     7ac:	0197d793          	srli	a5,a5,0x19
     7b0:	0037f793          	andi	a5,a5,3
     7b4:	00200713          	li	a4,2
     7b8:	14f76c63          	bltu	a4,a5,910 <spi_event_handler+0x220>
     7bc:	01452703          	lw	a4,20(a0)
     7c0:	f60756e3          	bgez	a4,72c <spi_event_handler+0x3c>
     7c4:	01b65713          	srli	a4,a2,0x1b
     7c8:	ffd70713          	addi	a4,a4,-3
     7cc:	00173713          	seqz	a4,a4
     7d0:	00f037b3          	snez	a5,a5
     7d4:	00f777b3          	and	a5,a4,a5
     7d8:	f4079ae3          	bnez	a5,72c <spi_event_handler+0x3c>
     7dc:	02c52223          	sw	a2,36(a0)
     7e0:	f4dff06f          	j	72c <spi_event_handler+0x3c>
     7e4:	0004a783          	lw	a5,0(s1)
     7e8:	02078263          	beqz	a5,80c <spi_event_handler+0x11c>
     7ec:	0387a703          	lw	a4,56(a5)
     7f0:	fc077713          	andi	a4,a4,-64
     7f4:	02e7ac23          	sw	a4,56(a5)
     7f8:	0004a783          	lw	a5,0(s1)
     7fc:	00078863          	beqz	a5,80c <spi_event_handler+0x11c>
     800:	0047a703          	lw	a4,4(a5)
     804:	ffd77713          	andi	a4,a4,-3
     808:	00e7a223          	sw	a4,4(a5)
     80c:	00048513          	mv	a0,s1
     810:	e81ff0ef          	jal	690 <spi_empty_rx>
     814:	00400793          	li	a5,4
     818:	00f4a823          	sw	a5,16(s1)
     81c:	0384a783          	lw	a5,56(s1)
     820:	00078c63          	beqz	a5,838 <spi_event_handler+0x148>
     824:	0344a683          	lw	a3,52(s1)
     828:	0244a603          	lw	a2,36(s1)
     82c:	0304a583          	lw	a1,48(s1)
     830:	01c4a503          	lw	a0,28(s1)
     834:	000780e7          	jalr	a5
     838:	0204a623          	sw	zero,44(s1)
     83c:	0204a823          	sw	zero,48(s1)
     840:	0204aa23          	sw	zero,52(s1)
     844:	0004aa23          	sw	zero,20(s1)
     848:	0004ac23          	sw	zero,24(s1)
     84c:	0004ae23          	sw	zero,28(s1)
     850:	0204a023          	sw	zero,32(s1)
     854:	0204a223          	sw	zero,36(s1)
     858:	0204a423          	sw	zero,40(s1)
     85c:	0204ac23          	sw	zero,56(s1)
     860:	0204ae23          	sw	zero,60(s1)
     864:	0404a023          	sw	zero,64(s1)
     868:	0404a223          	sw	zero,68(s1)
     86c:	ed1ff06f          	j	73c <spi_event_handler+0x4c>
     870:	01c4a783          	lw	a5,28(s1)
     874:	ec0780e3          	beqz	a5,734 <spi_event_handler+0x44>
     878:	0304a783          	lw	a5,48(s1)
     87c:	0204a703          	lw	a4,32(s1)
     880:	eae7fae3          	bgeu	a5,a4,734 <spi_event_handler+0x44>
     884:	04700613          	li	a2,71
     888:	0280006f          	j	8b0 <spi_event_handler+0x1c0>
     88c:	01c4a683          	lw	a3,28(s1)
     890:	20d7c7b3          	sh2add	a5,a5,a3
     894:	0007a783          	lw	a5,0(a5)
     898:	02f72623          	sw	a5,44(a4)
     89c:	0304a783          	lw	a5,48(s1)
     8a0:	00178793          	addi	a5,a5,1
     8a4:	02f4a823          	sw	a5,48(s1)
     8a8:	0204a703          	lw	a4,32(s1)
     8ac:	00e7fc63          	bgeu	a5,a4,8c4 <spi_event_handler+0x1d4>
     8b0:	0004a703          	lw	a4,0(s1)
     8b4:	00070863          	beqz	a4,8c4 <spi_event_handler+0x1d4>
     8b8:	01472683          	lw	a3,20(a4)
     8bc:	0ff6f693          	zext.b	a3,a3
     8c0:	fcd676e3          	bgeu	a2,a3,88c <spi_event_handler+0x19c>
     8c4:	03c4a783          	lw	a5,60(s1)
     8c8:	e60786e3          	beqz	a5,734 <spi_event_handler+0x44>
     8cc:	0344a683          	lw	a3,52(s1)
     8d0:	0244a603          	lw	a2,36(s1)
     8d4:	0304a583          	lw	a1,48(s1)
     8d8:	01c4a503          	lw	a0,28(s1)
     8dc:	000780e7          	jalr	a5
     8e0:	e55ff06f          	j	734 <spi_event_handler+0x44>
     8e4:	00048513          	mv	a0,s1
     8e8:	da9ff0ef          	jal	690 <spi_empty_rx>
     8ec:	e40508e3          	beqz	a0,73c <spi_event_handler+0x4c>
     8f0:	0404a783          	lw	a5,64(s1)
     8f4:	e40784e3          	beqz	a5,73c <spi_event_handler+0x4c>
     8f8:	0344a683          	lw	a3,52(s1)
     8fc:	0244a603          	lw	a2,36(s1)
     900:	0304a583          	lw	a1,48(s1)
     904:	01c4a503          	lw	a0,28(s1)
     908:	000780e7          	jalr	a5
     90c:	e31ff06f          	j	73c <spi_event_handler+0x4c>
     910:	01452783          	lw	a5,20(a0)
     914:	e19ff06f          	j	72c <spi_event_handler+0x3c>

00000918 <spi_error_handler>:
     918:	fe010113          	addi	sp,sp,-32
     91c:	00112e23          	sw	ra,28(sp)
     920:	00912c23          	sw	s1,24(sp)
     924:	00050493          	mv	s1,a0
     928:	00052783          	lw	a5,0(a0)
     92c:	02078263          	beqz	a5,950 <spi_error_handler+0x38>
     930:	0387a703          	lw	a4,56(a5)
     934:	fc077713          	andi	a4,a4,-64
     938:	02e7ac23          	sw	a4,56(a5)
     93c:	00052783          	lw	a5,0(a0)
     940:	00078863          	beqz	a5,950 <spi_error_handler+0x38>
     944:	0047a703          	lw	a4,4(a5)
     948:	ffd77713          	andi	a4,a4,-3
     94c:	00e7a223          	sw	a4,4(a5)
     950:	0444a783          	lw	a5,68(s1)
     954:	00078c63          	beqz	a5,96c <spi_error_handler+0x54>
     958:	0344a683          	lw	a3,52(s1)
     95c:	0244a603          	lw	a2,36(s1)
     960:	0304a583          	lw	a1,48(s1)
     964:	01c4a503          	lw	a0,28(s1)
     968:	000780e7          	jalr	a5
     96c:	0204a623          	sw	zero,44(s1)
     970:	0204a823          	sw	zero,48(s1)
     974:	0204aa23          	sw	zero,52(s1)
     978:	0004aa23          	sw	zero,20(s1)
     97c:	0004ac23          	sw	zero,24(s1)
     980:	0004ae23          	sw	zero,28(s1)
     984:	0204a023          	sw	zero,32(s1)
     988:	0204a223          	sw	zero,36(s1)
     98c:	0204a423          	sw	zero,40(s1)
     990:	0204ac23          	sw	zero,56(s1)
     994:	0204ae23          	sw	zero,60(s1)
     998:	0404a023          	sw	zero,64(s1)
     99c:	0404a223          	sw	zero,68(s1)
     9a0:	0004a683          	lw	a3,0(s1)
     9a4:	10068463          	beqz	a3,aac <spi_error_handler+0x194>
     9a8:	0106a783          	lw	a5,16(a3)
     9ac:	40000737          	lui	a4,0x40000
     9b0:	00e7e7b3          	or	a5,a5,a4
     9b4:	00f6a823          	sw	a5,16(a3)
     9b8:	0146a783          	lw	a5,20(a3)
     9bc:	00f12623          	sw	a5,12(sp)
     9c0:	00c12783          	lw	a5,12(sp)
     9c4:	00179713          	slli	a4,a5,0x1
     9c8:	fe074ce3          	bltz	a4,9c0 <spi_error_handler+0xa8>
     9cc:	00c14783          	lbu	a5,12(sp)
     9d0:	fe0798e3          	bnez	a5,9c0 <spi_error_handler+0xa8>
     9d4:	00d14783          	lbu	a5,13(sp)
     9d8:	fe0794e3          	bnez	a5,9c0 <spi_error_handler+0xa8>
     9dc:	0106a783          	lw	a5,16(a3)
     9e0:	c0000737          	lui	a4,0xc0000
     9e4:	fff70713          	addi	a4,a4,-1 # bfffffff <_sp+0xbffd6cbf>
     9e8:	00e7f7b3          	and	a5,a5,a4
     9ec:	00f6a823          	sw	a5,16(a3)
     9f0:	0004a783          	lw	a5,0(s1)
     9f4:	0a078c63          	beqz	a5,aac <spi_error_handler+0x194>
     9f8:	0107a703          	lw	a4,16(a5)
     9fc:	800006b7          	lui	a3,0x80000
     a00:	00d76733          	or	a4,a4,a3
     a04:	00e7a823          	sw	a4,16(a5)
     a08:	0004a783          	lw	a5,0(s1)
     a0c:	0a078063          	beqz	a5,aac <spi_error_handler+0x194>
     a10:	0107a703          	lw	a4,16(a5)
     a14:	200006b7          	lui	a3,0x20000
     a18:	00d76733          	or	a4,a4,a3
     a1c:	00e7a823          	sw	a4,16(a5)
     a20:	0004a783          	lw	a5,0(s1)
     a24:	08078463          	beqz	a5,aac <spi_error_handler+0x194>
     a28:	0307a703          	lw	a4,48(a5)
     a2c:	01f76713          	ori	a4,a4,31
     a30:	02e7a823          	sw	a4,48(a5)
     a34:	0004a783          	lw	a5,0(s1)
     a38:	06078a63          	beqz	a5,aac <spi_error_handler+0x194>
     a3c:	0047a703          	lw	a4,4(a5)
     a40:	00176713          	ori	a4,a4,1
     a44:	00e7a223          	sw	a4,4(a5)
     a48:	0004a703          	lw	a4,0(s1)
     a4c:	0044c783          	lbu	a5,4(s1)
     a50:	00173693          	seqz	a3,a4
     a54:	0497b613          	sltiu	a2,a5,73
     a58:	00163613          	seqz	a2,a2
     a5c:	00c6e6b3          	or	a3,a3,a2
     a60:	02069063          	bnez	a3,a80 <spi_error_handler+0x168>
     a64:	01072683          	lw	a3,16(a4)
     a68:	ffff0637          	lui	a2,0xffff0
     a6c:	0ff60613          	addi	a2,a2,255 # ffff00ff <_sp+0xfffc6dbf>
     a70:	00c6f6b3          	and	a3,a3,a2
     a74:	00879793          	slli	a5,a5,0x8
     a78:	00d7e7b3          	or	a5,a5,a3
     a7c:	00f72823          	sw	a5,16(a4)
     a80:	0004a683          	lw	a3,0(s1)
     a84:	0054c703          	lbu	a4,5(s1)
     a88:	04173793          	sltiu	a5,a4,65
     a8c:	0017b793          	seqz	a5,a5
     a90:	0016b613          	seqz	a2,a3
     a94:	00c7e7b3          	or	a5,a5,a2
     a98:	00079a63          	bnez	a5,aac <spi_error_handler+0x194>
     a9c:	0106a783          	lw	a5,16(a3) # 20000010 <_sp+0x1ffd6cd0>
     aa0:	f007f793          	andi	a5,a5,-256
     aa4:	00f76733          	or	a4,a4,a5
     aa8:	00e6a823          	sw	a4,16(a3)
     aac:	0004a423          	sw	zero,8(s1)
     ab0:	00800793          	li	a5,8
     ab4:	00f4a823          	sw	a5,16(s1)
     ab8:	01c12083          	lw	ra,28(sp)
     abc:	01812483          	lw	s1,24(sp)
     ac0:	02010113          	addi	sp,sp,32
     ac4:	00008067          	ret

00000ac8 <_writestr>:
     ac8:	ff010113          	addi	sp,sp,-16
     acc:	00112623          	sw	ra,12(sp)
     ad0:	00912423          	sw	s1,8(sp)
     ad4:	00050493          	mv	s1,a0
     ad8:	0b9050ef          	jal	6390 <strlen>
     adc:	00150613          	addi	a2,a0,1
     ae0:	00048593          	mv	a1,s1
     ae4:	00100513          	li	a0,1
     ae8:	b09ff0ef          	jal	5f0 <_write>
     aec:	00c12083          	lw	ra,12(sp)
     af0:	00812483          	lw	s1,8(sp)
     af4:	01010113          	addi	sp,sp,16
     af8:	00008067          	ret

00000afc <print_exc_msg>:
     afc:	fe010113          	addi	sp,sp,-32
     b00:	00112e23          	sw	ra,28(sp)
     b04:	00912c23          	sw	s1,24(sp)
     b08:	fc1ff0ef          	jal	ac8 <_writestr>
     b0c:	343024f3          	csrr	s1,mtval
     b10:	00020537          	lui	a0,0x20
     b14:	41c50513          	addi	a0,a0,1052 # 2041c <__clz_tab+0x1b0>
     b18:	fb1ff0ef          	jal	ac8 <_writestr>
     b1c:	0184d793          	srli	a5,s1,0x18
     b20:	00f10423          	sb	a5,8(sp)
     b24:	0104d793          	srli	a5,s1,0x10
     b28:	00f104a3          	sb	a5,9(sp)
     b2c:	0084d793          	srli	a5,s1,0x8
     b30:	00f10523          	sb	a5,10(sp)
     b34:	009105a3          	sb	s1,11(sp)
     b38:	00a00793          	li	a5,10
     b3c:	00f10623          	sb	a5,12(sp)
     b40:	000106a3          	sb	zero,13(sp)
     b44:	00810513          	addi	a0,sp,8
     b48:	f81ff0ef          	jal	ac8 <_writestr>
     b4c:	0000006f          	j	b4c <print_exc_msg+0x50>

00000b50 <inferenceTPG>:
     b50:	e4010113          	addi	sp,sp,-448
     b54:	1a112e23          	sw	ra,444(sp)
     b58:	1a912c23          	sw	s1,440(sp)
     b5c:	1b212a23          	sw	s2,436(sp)
     b60:	1b312823          	sw	s3,432(sp)
     b64:	1b412623          	sw	s4,428(sp)
     b68:	1b512423          	sw	s5,424(sp)
     b6c:	1b612223          	sw	s6,420(sp)
     b70:	1b712023          	sw	s7,416(sp)
     b74:	00050b13          	mv	s6,a0
     b78:	00058993          	mv	s3,a1
     b7c:	00060913          	mv	s2,a2
     b80:	00068493          	mv	s1,a3
     b84:	00070a93          	mv	s5,a4
     b88:	00078a13          	mv	s4,a5
     b8c:	000047b7          	lui	a5,0x4
     b90:	3c078793          	addi	a5,a5,960 # 43c0 <T19_start>
     b94:	00078067          	jr	a5

00000b98 <T0_start>:
     b98:	b00027f3          	csrr	a5,mcycle
     b9c:	00078b93          	mv	s7,a5
     ba0:	02012c23          	sw	zero,56(sp)
     ba4:	014aa603          	lw	a2,20(s5)
     ba8:	02060463          	beqz	a2,bd0 <T0_start+0x38>
     bac:	0004a503          	lw	a0,0(s1)
     bb0:	41f55793          	srai	a5,a0,0x1f
     bb4:	01055593          	srli	a1,a0,0x10
     bb8:	01079793          	slli	a5,a5,0x10
     bbc:	41f65693          	srai	a3,a2,0x1f
     bc0:	01051513          	slli	a0,a0,0x10
     bc4:	00f585b3          	add	a1,a1,a5
     bc8:	2f0080ef          	jal	8eb8 <__divdi3>
     bcc:	00050613          	mv	a2,a0
     bd0:	02c12e23          	sw	a2,60(sp)
     bd4:	0044a783          	lw	a5,4(s1)
     bd8:	40f007b3          	neg	a5,a5
     bdc:	04f12023          	sw	a5,64(sp)

00000be0 <T0_end>:
     be0:	b00027f3          	csrr	a5,mcycle
     be4:	417787b3          	sub	a5,a5,s7
     be8:	00fa2023          	sw	a5,0(s4)
     bec:	03812683          	lw	a3,56(sp)
     bf0:	03c12703          	lw	a4,60(sp)
     bf4:	00100793          	li	a5,1
     bf8:	00d75663          	bge	a4,a3,c04 <T0_end+0x24>
     bfc:	00068713          	mv	a4,a3
     c00:	00000793          	li	a5,0
     c04:	04012683          	lw	a3,64(sp)
     c08:	00e6c463          	blt	a3,a4,c10 <T0_end+0x30>
     c0c:	00200793          	li	a5,2
     c10:	00020737          	lui	a4,0x20
     c14:	000206b7          	lui	a3,0x20
     c18:	1f068693          	addi	a3,a3,496 # 201f0 <next.20>
     c1c:	20d7c7b3          	sh2add	a5,a5,a3
     c20:	0007a783          	lw	a5,0(a5)
     c24:	17c70713          	addi	a4,a4,380 # 2017c <jump_table.21>
     c28:	20e7c7b3          	sh2add	a5,a5,a4
     c2c:	0007a783          	lw	a5,0(a5)
     c30:	f65ff06f          	j	b94 <inferenceTPG+0x44>

00000c34 <T1_start>:
     c34:	b00025f3          	csrr	a1,mcycle
     c38:	04012223          	sw	zero,68(sp)
     c3c:	0044a783          	lw	a5,4(s1)
     c40:	40f007b3          	neg	a5,a5
     c44:	04f12423          	sw	a5,72(sp)
     c48:	0089a703          	lw	a4,8(s3)
     c4c:	41f75793          	srai	a5,a4,0x1f
     c50:	0084a603          	lw	a2,8(s1)
     c54:	41f65693          	srai	a3,a2,0x1f
     c58:	02c787b3          	mul	a5,a5,a2
     c5c:	02e686b3          	mul	a3,a3,a4
     c60:	00d787b3          	add	a5,a5,a3
     c64:	02c706b3          	mul	a3,a4,a2
     c68:	02c73733          	mulhu	a4,a4,a2
     c6c:	00e787b3          	add	a5,a5,a4
     c70:	01079793          	slli	a5,a5,0x10
     c74:	0106d713          	srli	a4,a3,0x10
     c78:	00e78733          	add	a4,a5,a4
     c7c:	04e12623          	sw	a4,76(sp)

00000c80 <T1_end>:
     c80:	b00027f3          	csrr	a5,mcycle
     c84:	40b787b3          	sub	a5,a5,a1
     c88:	00fa2223          	sw	a5,4(s4)
     c8c:	04412683          	lw	a3,68(sp)
     c90:	04812703          	lw	a4,72(sp)
     c94:	00100793          	li	a5,1
     c98:	00d75663          	bge	a4,a3,ca4 <T1_end+0x24>
     c9c:	00068713          	mv	a4,a3
     ca0:	00000793          	li	a5,0
     ca4:	04c12683          	lw	a3,76(sp)
     ca8:	00e6c463          	blt	a3,a4,cb0 <T1_end+0x30>
     cac:	00200793          	li	a5,2
     cb0:	00020737          	lui	a4,0x20
     cb4:	000206b7          	lui	a3,0x20
     cb8:	17068693          	addi	a3,a3,368 # 20170 <next.19>
     cbc:	20d7c7b3          	sh2add	a5,a5,a3
     cc0:	0007a783          	lw	a5,0(a5)
     cc4:	17c70713          	addi	a4,a4,380 # 2017c <jump_table.21>
     cc8:	20e7c7b3          	sh2add	a5,a5,a4
     ccc:	0007a783          	lw	a5,0(a5)
     cd0:	ec5ff06f          	j	b94 <inferenceTPG+0x44>

00000cd4 <T2_start>:
     cd4:	b00027f3          	csrr	a5,mcycle
     cd8:	00078b93          	mv	s7,a5
     cdc:	014aa603          	lw	a2,20(s5)
     ce0:	02060463          	beqz	a2,d08 <T2_start+0x34>
     ce4:	0004a503          	lw	a0,0(s1)
     ce8:	41f55793          	srai	a5,a0,0x1f
     cec:	01055593          	srli	a1,a0,0x10
     cf0:	01079793          	slli	a5,a5,0x10
     cf4:	41f65693          	srai	a3,a2,0x1f
     cf8:	01051513          	slli	a0,a0,0x10
     cfc:	00f585b3          	add	a1,a1,a5
     d00:	1b8080ef          	jal	8eb8 <__divdi3>
     d04:	00050613          	mv	a2,a0
     d08:	04c12823          	sw	a2,80(sp)
     d0c:	0044a783          	lw	a5,4(s1)
     d10:	40f007b3          	neg	a5,a5
     d14:	04f12a23          	sw	a5,84(sp)
     d18:	0084a783          	lw	a5,8(s1)
     d1c:	04f12c23          	sw	a5,88(sp)

00000d20 <T2_end>:
     d20:	b00027f3          	csrr	a5,mcycle
     d24:	417787b3          	sub	a5,a5,s7
     d28:	00fa2423          	sw	a5,8(s4)
     d2c:	05012683          	lw	a3,80(sp)
     d30:	05412703          	lw	a4,84(sp)
     d34:	00100793          	li	a5,1
     d38:	00d75663          	bge	a4,a3,d44 <T2_end+0x24>
     d3c:	00068713          	mv	a4,a3
     d40:	00000793          	li	a5,0
     d44:	05812683          	lw	a3,88(sp)
     d48:	00e6c463          	blt	a3,a4,d50 <T2_end+0x30>
     d4c:	00200793          	li	a5,2
     d50:	00020737          	lui	a4,0x20
     d54:	000206b7          	lui	a3,0x20
     d58:	16468693          	addi	a3,a3,356 # 20164 <next.18>
     d5c:	20d7c7b3          	sh2add	a5,a5,a3
     d60:	0007a783          	lw	a5,0(a5)
     d64:	17c70713          	addi	a4,a4,380 # 2017c <jump_table.21>
     d68:	20e7c7b3          	sh2add	a5,a5,a4
     d6c:	0007a783          	lw	a5,0(a5)
     d70:	e25ff06f          	j	b94 <inferenceTPG+0x44>

00000d74 <T3_start>:
     d74:	b00027f3          	csrr	a5,mcycle
     d78:	00078b93          	mv	s7,a5
     d7c:	0084a783          	lw	a5,8(s1)
     d80:	04f12e23          	sw	a5,92(sp)
     d84:	00892603          	lw	a2,8(s2)
     d88:	517cd737          	lui	a4,0x517cd
     d8c:	c8370713          	addi	a4,a4,-893 # 517ccc83 <_sp+0x517a3943>
     d90:	02e61733          	mulh	a4,a2,a4
     d94:	41175713          	srai	a4,a4,0x11
     d98:	41f65793          	srai	a5,a2,0x1f
     d9c:	40f70733          	sub	a4,a4,a5
     da0:	000657b7          	lui	a5,0x65
     da4:	87e78793          	addi	a5,a5,-1922 # 6487e <_sp+0x3b53e>
     da8:	02f707b3          	mul	a5,a4,a5
     dac:	40f60733          	sub	a4,a2,a5
     db0:	26074263          	bltz	a4,1014 <T3_end+0x54>
     db4:	fffe77b7          	lui	a5,0xfffe7
     db8:	ddf78793          	addi	a5,a5,-545 # fffe6ddf <_sp+0xfffbda9f>
     dbc:	00f707b3          	add	a5,a4,a5
     dc0:	000196b7          	lui	a3,0x19
     dc4:	21e68693          	addi	a3,a3,542 # 1921e <heap.cpp.6b15d6f6+0x7551>
     dc8:	24f6ee63          	bltu	a3,a5,1024 <T3_end+0x64>
     dcc:	000327b7          	lui	a5,0x32
     dd0:	43f78793          	addi	a5,a5,1087 # 3243f <_sp+0x90ff>
     dd4:	40e78733          	sub	a4,a5,a4
     dd8:	00100513          	li	a0,1
     ddc:	000196b7          	lui	a3,0x19
     de0:	22068693          	addi	a3,a3,544 # 19220 <heap.cpp.6b15d6f6+0x7553>
     de4:	40c686b3          	sub	a3,a3,a2
     de8:	517cd7b7          	lui	a5,0x517cd
     dec:	c8378793          	addi	a5,a5,-893 # 517ccc83 <_sp+0x517a3943>
     df0:	02f697b3          	mulh	a5,a3,a5
     df4:	4117d793          	srai	a5,a5,0x11
     df8:	41f6d613          	srai	a2,a3,0x1f
     dfc:	40c787b3          	sub	a5,a5,a2
     e00:	00065637          	lui	a2,0x65
     e04:	87e60613          	addi	a2,a2,-1922 # 6487e <_sp+0x3b53e>
     e08:	02c787b3          	mul	a5,a5,a2
     e0c:	40f687b3          	sub	a5,a3,a5
     e10:	2607c263          	bltz	a5,1074 <T3_end+0xb4>
     e14:	fffe76b7          	lui	a3,0xfffe7
     e18:	ddf68693          	addi	a3,a3,-545 # fffe6ddf <_sp+0xfffbda9f>
     e1c:	00d786b3          	add	a3,a5,a3
     e20:	00019637          	lui	a2,0x19
     e24:	21e60613          	addi	a2,a2,542 # 1921e <heap.cpp.6b15d6f6+0x7551>
     e28:	24d66a63          	bltu	a2,a3,107c <T3_end+0xbc>
     e2c:	000326b7          	lui	a3,0x32
     e30:	43f68693          	addi	a3,a3,1087 # 3243f <_sp+0x90ff>
     e34:	40f687b3          	sub	a5,a3,a5
     e38:	00100813          	li	a6,1
     e3c:	41f7d313          	srai	t1,a5,0x1f
     e40:	02f306b3          	mul	a3,t1,a5
     e44:	02f785b3          	mul	a1,a5,a5
     e48:	02f7b633          	mulhu	a2,a5,a5
     e4c:	20c6a6b3          	sh1add	a3,a3,a2
     e50:	01069693          	slli	a3,a3,0x10
     e54:	0105d593          	srli	a1,a1,0x10
     e58:	00b685b3          	add	a1,a3,a1
     e5c:	41f5de13          	srai	t3,a1,0x1f
     e60:	1f300893          	li	a7,499
     e64:	031e06b3          	mul	a3,t3,a7
     e68:	03158633          	mul	a2,a1,a7
     e6c:	0315b8b3          	mulhu	a7,a1,a7
     e70:	011686b3          	add	a3,a3,a7
     e74:	01069693          	slli	a3,a3,0x10
     e78:	01065613          	srli	a2,a2,0x10
     e7c:	00c68633          	add	a2,a3,a2
     e80:	ffffd6b7          	lui	a3,0xffffd
     e84:	57e68693          	addi	a3,a3,1406 # ffffd57e <_sp+0xfffd423e>
     e88:	00d60633          	add	a2,a2,a3
     e8c:	41f65893          	srai	a7,a2,0x1f
     e90:	02b888b3          	mul	a7,a7,a1
     e94:	02ce0e33          	mul	t3,t3,a2
     e98:	01c888b3          	add	a7,a7,t3
     e9c:	02b606b3          	mul	a3,a2,a1
     ea0:	02b63633          	mulhu	a2,a2,a1
     ea4:	00c88633          	add	a2,a7,a2
     ea8:	01061613          	slli	a2,a2,0x10
     eac:	0106d693          	srli	a3,a3,0x10
     eb0:	00d606b3          	add	a3,a2,a3
     eb4:	00010637          	lui	a2,0x10
     eb8:	00c686b3          	add	a3,a3,a2
     ebc:	41f6d593          	srai	a1,a3,0x1f
     ec0:	02f585b3          	mul	a1,a1,a5
     ec4:	02d30333          	mul	t1,t1,a3
     ec8:	006585b3          	add	a1,a1,t1
     ecc:	02f68633          	mul	a2,a3,a5
     ed0:	02f6b6b3          	mulhu	a3,a3,a5
     ed4:	00d587b3          	add	a5,a1,a3
     ed8:	01079793          	slli	a5,a5,0x10
     edc:	01065613          	srli	a2,a2,0x10
     ee0:	00c78633          	add	a2,a5,a2
     ee4:	02c80633          	mul	a2,a6,a2
     ee8:	0c060863          	beqz	a2,fb8 <T3_start+0x244>
     eec:	41f75893          	srai	a7,a4,0x1f
     ef0:	02e887b3          	mul	a5,a7,a4
     ef4:	02e705b3          	mul	a1,a4,a4
     ef8:	02e736b3          	mulhu	a3,a4,a4
     efc:	20d7a7b3          	sh1add	a5,a5,a3
     f00:	01079793          	slli	a5,a5,0x10
     f04:	0105d593          	srli	a1,a1,0x10
     f08:	00b785b3          	add	a1,a5,a1
     f0c:	41f5d313          	srai	t1,a1,0x1f
     f10:	1f300813          	li	a6,499
     f14:	030307b3          	mul	a5,t1,a6
     f18:	030586b3          	mul	a3,a1,a6
     f1c:	0305b833          	mulhu	a6,a1,a6
     f20:	010787b3          	add	a5,a5,a6
     f24:	01079793          	slli	a5,a5,0x10
     f28:	0106d693          	srli	a3,a3,0x10
     f2c:	00d786b3          	add	a3,a5,a3
     f30:	ffffd7b7          	lui	a5,0xffffd
     f34:	57e78793          	addi	a5,a5,1406 # ffffd57e <_sp+0xfffd423e>
     f38:	00f686b3          	add	a3,a3,a5
     f3c:	41f6d813          	srai	a6,a3,0x1f
     f40:	02b80833          	mul	a6,a6,a1
     f44:	02d30333          	mul	t1,t1,a3
     f48:	00680833          	add	a6,a6,t1
     f4c:	02b687b3          	mul	a5,a3,a1
     f50:	02b6b6b3          	mulhu	a3,a3,a1
     f54:	00d806b3          	add	a3,a6,a3
     f58:	01069693          	slli	a3,a3,0x10
     f5c:	0107d793          	srli	a5,a5,0x10
     f60:	00f687b3          	add	a5,a3,a5
     f64:	000106b7          	lui	a3,0x10
     f68:	00d787b3          	add	a5,a5,a3
     f6c:	41f7d693          	srai	a3,a5,0x1f
     f70:	02e686b3          	mul	a3,a3,a4
     f74:	02f888b3          	mul	a7,a7,a5
     f78:	011686b3          	add	a3,a3,a7
     f7c:	02e785b3          	mul	a1,a5,a4
     f80:	02e7b7b3          	mulhu	a5,a5,a4
     f84:	00f687b3          	add	a5,a3,a5
     f88:	01079793          	slli	a5,a5,0x10
     f8c:	0105d713          	srli	a4,a1,0x10
     f90:	00e78733          	add	a4,a5,a4
     f94:	02e50533          	mul	a0,a0,a4
     f98:	41f55793          	srai	a5,a0,0x1f
     f9c:	01055593          	srli	a1,a0,0x10
     fa0:	01079793          	slli	a5,a5,0x10
     fa4:	41f65693          	srai	a3,a2,0x1f
     fa8:	01051513          	slli	a0,a0,0x10
     fac:	00f585b3          	add	a1,a1,a5
     fb0:	709070ef          	jal	8eb8 <__divdi3>
     fb4:	00050613          	mv	a2,a0
     fb8:	06c12023          	sw	a2,96(sp)
     fbc:	06012223          	sw	zero,100(sp)

00000fc0 <T3_end>:
     fc0:	b00027f3          	csrr	a5,mcycle
     fc4:	417787b3          	sub	a5,a5,s7
     fc8:	00fa2623          	sw	a5,12(s4)
     fcc:	05c12683          	lw	a3,92(sp)
     fd0:	06012703          	lw	a4,96(sp)
     fd4:	00100793          	li	a5,1
     fd8:	00d75663          	bge	a4,a3,fe4 <T3_end+0x24>
     fdc:	00068713          	mv	a4,a3
     fe0:	00000793          	li	a5,0
     fe4:	06412683          	lw	a3,100(sp)
     fe8:	00e6c463          	blt	a3,a4,ff0 <T3_end+0x30>
     fec:	00200793          	li	a5,2
     ff0:	00020737          	lui	a4,0x20
     ff4:	000206b7          	lui	a3,0x20
     ff8:	15868693          	addi	a3,a3,344 # 20158 <next.17>
     ffc:	20d7c7b3          	sh2add	a5,a5,a3
    1000:	0007a783          	lw	a5,0(a5)
    1004:	17c70713          	addi	a4,a4,380 # 2017c <jump_table.21>
    1008:	20e7c7b3          	sh2add	a5,a5,a4
    100c:	0007a783          	lw	a5,0(a5)
    1010:	b85ff06f          	j	b94 <inferenceTPG+0x44>
    1014:	000657b7          	lui	a5,0x65
    1018:	87e78793          	addi	a5,a5,-1922 # 6487e <_sp+0x3b53e>
    101c:	00f70733          	add	a4,a4,a5
    1020:	d95ff06f          	j	db4 <T3_start+0x40>
    1024:	fffce7b7          	lui	a5,0xfffce
    1028:	bc078793          	addi	a5,a5,-1088 # fffcdbc0 <_sp+0xfffa4880>
    102c:	00f707b3          	add	a5,a4,a5
    1030:	000196b7          	lui	a3,0x19
    1034:	21f68693          	addi	a3,a3,543 # 1921f <heap.cpp.6b15d6f6+0x7552>
    1038:	00f6ec63          	bltu	a3,a5,1050 <T3_end+0x90>
    103c:	fffce7b7          	lui	a5,0xfffce
    1040:	bc178793          	addi	a5,a5,-1087 # fffcdbc1 <_sp+0xfffa4881>
    1044:	00f70733          	add	a4,a4,a5
    1048:	fff00513          	li	a0,-1
    104c:	d91ff06f          	j	ddc <T3_start+0x68>
    1050:	0004b7b7          	lui	a5,0x4b
    1054:	65f78793          	addi	a5,a5,1631 # 4b65f <_sp+0x2231f>
    1058:	00100513          	li	a0,1
    105c:	d8e7d0e3          	bge	a5,a4,ddc <T3_start+0x68>
    1060:	000657b7          	lui	a5,0x65
    1064:	87e78793          	addi	a5,a5,-1922 # 6487e <_sp+0x3b53e>
    1068:	40e78733          	sub	a4,a5,a4
    106c:	fff00513          	li	a0,-1
    1070:	d6dff06f          	j	ddc <T3_start+0x68>
    1074:	00c787b3          	add	a5,a5,a2
    1078:	d9dff06f          	j	e14 <T3_start+0xa0>
    107c:	fffce6b7          	lui	a3,0xfffce
    1080:	bc068693          	addi	a3,a3,-1088 # fffcdbc0 <_sp+0xfffa4880>
    1084:	00d786b3          	add	a3,a5,a3
    1088:	00019637          	lui	a2,0x19
    108c:	21f60613          	addi	a2,a2,543 # 1921f <heap.cpp.6b15d6f6+0x7552>
    1090:	00d66c63          	bltu	a2,a3,10a8 <T3_end+0xe8>
    1094:	fffce6b7          	lui	a3,0xfffce
    1098:	bc168693          	addi	a3,a3,-1087 # fffcdbc1 <_sp+0xfffa4881>
    109c:	00d787b3          	add	a5,a5,a3
    10a0:	fff00813          	li	a6,-1
    10a4:	d99ff06f          	j	e3c <T3_start+0xc8>
    10a8:	0004b6b7          	lui	a3,0x4b
    10ac:	65f68693          	addi	a3,a3,1631 # 4b65f <_sp+0x2231f>
    10b0:	00100813          	li	a6,1
    10b4:	d8f6d4e3          	bge	a3,a5,e3c <T3_start+0xc8>
    10b8:	000656b7          	lui	a3,0x65
    10bc:	87e68693          	addi	a3,a3,-1922 # 6487e <_sp+0x3b53e>
    10c0:	40f687b3          	sub	a5,a3,a5
    10c4:	fff00813          	li	a6,-1
    10c8:	d75ff06f          	j	e3c <T3_start+0xc8>
    10cc:	19812e23          	sw	s8,412(sp)
    10d0:	19912c23          	sw	s9,408(sp)

000010d4 <T4_start>:
    10d4:	b00027f3          	csrr	a5,mcycle
    10d8:	00078c93          	mv	s9,a5
    10dc:	0044a783          	lw	a5,4(s1)
    10e0:	00078b93          	mv	s7,a5
    10e4:	517cd737          	lui	a4,0x517cd
    10e8:	c8370713          	addi	a4,a4,-893 # 517ccc83 <_sp+0x517a3943>
    10ec:	02e79733          	mulh	a4,a5,a4
    10f0:	41175713          	srai	a4,a4,0x11
    10f4:	41f7d793          	srai	a5,a5,0x1f
    10f8:	40f70733          	sub	a4,a4,a5
    10fc:	000657b7          	lui	a5,0x65
    1100:	87e78793          	addi	a5,a5,-1922 # 6487e <_sp+0x3b53e>
    1104:	02f707b3          	mul	a5,a4,a5
    1108:	40fb8733          	sub	a4,s7,a5
    110c:	4c074863          	bltz	a4,15dc <T4_end+0x24>
    1110:	fffe77b7          	lui	a5,0xfffe7
    1114:	ddf78793          	addi	a5,a5,-545 # fffe6ddf <_sp+0xfffbda9f>
    1118:	00f707b3          	add	a5,a4,a5
    111c:	000196b7          	lui	a3,0x19
    1120:	21e68693          	addi	a3,a3,542 # 1921e <heap.cpp.6b15d6f6+0x7551>
    1124:	4cf6e463          	bltu	a3,a5,15ec <T4_end+0x34>
    1128:	000327b7          	lui	a5,0x32
    112c:	43f78793          	addi	a5,a5,1087 # 3243f <_sp+0x90ff>
    1130:	40e78733          	sub	a4,a5,a4
    1134:	00100513          	li	a0,1
    1138:	000196b7          	lui	a3,0x19
    113c:	22068693          	addi	a3,a3,544 # 19220 <heap.cpp.6b15d6f6+0x7553>
    1140:	417686b3          	sub	a3,a3,s7
    1144:	517cd7b7          	lui	a5,0x517cd
    1148:	c8378793          	addi	a5,a5,-893 # 517ccc83 <_sp+0x517a3943>
    114c:	02f697b3          	mulh	a5,a3,a5
    1150:	4117d793          	srai	a5,a5,0x11
    1154:	41f6d613          	srai	a2,a3,0x1f
    1158:	40c787b3          	sub	a5,a5,a2
    115c:	00065637          	lui	a2,0x65
    1160:	87e60613          	addi	a2,a2,-1922 # 6487e <_sp+0x3b53e>
    1164:	02c787b3          	mul	a5,a5,a2
    1168:	40f687b3          	sub	a5,a3,a5
    116c:	4c07c863          	bltz	a5,163c <T4_end+0x84>
    1170:	fffe76b7          	lui	a3,0xfffe7
    1174:	ddf68693          	addi	a3,a3,-545 # fffe6ddf <_sp+0xfffbda9f>
    1178:	00d786b3          	add	a3,a5,a3
    117c:	00019637          	lui	a2,0x19
    1180:	21e60613          	addi	a2,a2,542 # 1921e <heap.cpp.6b15d6f6+0x7551>
    1184:	4cd66063          	bltu	a2,a3,1644 <T4_end+0x8c>
    1188:	000326b7          	lui	a3,0x32
    118c:	43f68693          	addi	a3,a3,1087 # 3243f <_sp+0x90ff>
    1190:	40f687b3          	sub	a5,a3,a5
    1194:	00100813          	li	a6,1
    1198:	41f7d893          	srai	a7,a5,0x1f
    119c:	02f886b3          	mul	a3,a7,a5
    11a0:	02f78333          	mul	t1,a5,a5
    11a4:	02f7b633          	mulhu	a2,a5,a5
    11a8:	20c6a6b3          	sh1add	a3,a3,a2
    11ac:	01069693          	slli	a3,a3,0x10
    11b0:	01035313          	srli	t1,t1,0x10
    11b4:	00668333          	add	t1,a3,t1
    11b8:	41f35e13          	srai	t3,t1,0x1f
    11bc:	1f300593          	li	a1,499
    11c0:	02be06b3          	mul	a3,t3,a1
    11c4:	02b30633          	mul	a2,t1,a1
    11c8:	02b335b3          	mulhu	a1,t1,a1
    11cc:	00b686b3          	add	a3,a3,a1
    11d0:	01069693          	slli	a3,a3,0x10
    11d4:	01065613          	srli	a2,a2,0x10
    11d8:	00c68633          	add	a2,a3,a2
    11dc:	ffffd6b7          	lui	a3,0xffffd
    11e0:	57e68693          	addi	a3,a3,1406 # ffffd57e <_sp+0xfffd423e>
    11e4:	00d60633          	add	a2,a2,a3
    11e8:	41f65593          	srai	a1,a2,0x1f
    11ec:	026585b3          	mul	a1,a1,t1
    11f0:	02ce0e33          	mul	t3,t3,a2
    11f4:	01c585b3          	add	a1,a1,t3
    11f8:	026606b3          	mul	a3,a2,t1
    11fc:	02663633          	mulhu	a2,a2,t1
    1200:	00c58633          	add	a2,a1,a2
    1204:	01061613          	slli	a2,a2,0x10
    1208:	0106d693          	srli	a3,a3,0x10
    120c:	00d606b3          	add	a3,a2,a3
    1210:	00010637          	lui	a2,0x10
    1214:	00c686b3          	add	a3,a3,a2
    1218:	41f6d593          	srai	a1,a3,0x1f
    121c:	02f585b3          	mul	a1,a1,a5
    1220:	02d888b3          	mul	a7,a7,a3
    1224:	011585b3          	add	a1,a1,a7
    1228:	02f68633          	mul	a2,a3,a5
    122c:	02f6b6b3          	mulhu	a3,a3,a5
    1230:	00d587b3          	add	a5,a1,a3
    1234:	01079793          	slli	a5,a5,0x10
    1238:	01065613          	srli	a2,a2,0x10
    123c:	00c78633          	add	a2,a5,a2
    1240:	02c80633          	mul	a2,a6,a2
    1244:	0c060863          	beqz	a2,1314 <T4_start+0x240>
    1248:	41f75893          	srai	a7,a4,0x1f
    124c:	02e887b3          	mul	a5,a7,a4
    1250:	02e705b3          	mul	a1,a4,a4
    1254:	02e736b3          	mulhu	a3,a4,a4
    1258:	20d7a7b3          	sh1add	a5,a5,a3
    125c:	01079793          	slli	a5,a5,0x10
    1260:	0105d593          	srli	a1,a1,0x10
    1264:	00b785b3          	add	a1,a5,a1
    1268:	41f5d313          	srai	t1,a1,0x1f
    126c:	1f300813          	li	a6,499
    1270:	030307b3          	mul	a5,t1,a6
    1274:	030586b3          	mul	a3,a1,a6
    1278:	0305b833          	mulhu	a6,a1,a6
    127c:	010787b3          	add	a5,a5,a6
    1280:	01079793          	slli	a5,a5,0x10
    1284:	0106d693          	srli	a3,a3,0x10
    1288:	00d786b3          	add	a3,a5,a3
    128c:	ffffd7b7          	lui	a5,0xffffd
    1290:	57e78793          	addi	a5,a5,1406 # ffffd57e <_sp+0xfffd423e>
    1294:	00f686b3          	add	a3,a3,a5
    1298:	41f6d813          	srai	a6,a3,0x1f
    129c:	02b80833          	mul	a6,a6,a1
    12a0:	02d30333          	mul	t1,t1,a3
    12a4:	00680833          	add	a6,a6,t1
    12a8:	02b687b3          	mul	a5,a3,a1
    12ac:	02b6b6b3          	mulhu	a3,a3,a1
    12b0:	00d806b3          	add	a3,a6,a3
    12b4:	01069693          	slli	a3,a3,0x10
    12b8:	0107d793          	srli	a5,a5,0x10
    12bc:	00f687b3          	add	a5,a3,a5
    12c0:	000106b7          	lui	a3,0x10
    12c4:	00d787b3          	add	a5,a5,a3
    12c8:	41f7d693          	srai	a3,a5,0x1f
    12cc:	02e686b3          	mul	a3,a3,a4
    12d0:	02f888b3          	mul	a7,a7,a5
    12d4:	011686b3          	add	a3,a3,a7
    12d8:	02e785b3          	mul	a1,a5,a4
    12dc:	02e7b7b3          	mulhu	a5,a5,a4
    12e0:	00f687b3          	add	a5,a3,a5
    12e4:	01079793          	slli	a5,a5,0x10
    12e8:	0105d713          	srli	a4,a1,0x10
    12ec:	00e78733          	add	a4,a5,a4
    12f0:	02e50533          	mul	a0,a0,a4
    12f4:	41f55793          	srai	a5,a0,0x1f
    12f8:	01055593          	srli	a1,a0,0x10
    12fc:	01079793          	slli	a5,a5,0x10
    1300:	41f65693          	srai	a3,a2,0x1f
    1304:	01051513          	slli	a0,a0,0x10
    1308:	00f585b3          	add	a1,a1,a5
    130c:	3ad070ef          	jal	8eb8 <__divdi3>
    1310:	00050613          	mv	a2,a0
    1314:	0ec12c23          	sw	a2,248(sp)
    1318:	0084a603          	lw	a2,8(s1)
    131c:	417607b3          	sub	a5,a2,s7
    1320:	0ef12e23          	sw	a5,252(sp)
    1324:	0004a783          	lw	a5,0(s1)
    1328:	00078c13          	mv	s8,a5
    132c:	000197b7          	lui	a5,0x19
    1330:	22078793          	addi	a5,a5,544 # 19220 <heap.cpp.6b15d6f6+0x7553>
    1334:	418787b3          	sub	a5,a5,s8
    1338:	517cd537          	lui	a0,0x517cd
    133c:	c8350513          	addi	a0,a0,-893 # 517ccc83 <_sp+0x517a3943>
    1340:	02a79533          	mulh	a0,a5,a0
    1344:	41155513          	srai	a0,a0,0x11
    1348:	41f7d713          	srai	a4,a5,0x1f
    134c:	40e50533          	sub	a0,a0,a4
    1350:	00065737          	lui	a4,0x65
    1354:	87e70713          	addi	a4,a4,-1922 # 6487e <_sp+0x3b53e>
    1358:	02e50733          	mul	a4,a0,a4
    135c:	40e78533          	sub	a0,a5,a4
    1360:	32054a63          	bltz	a0,1694 <T4_end+0xdc>
    1364:	fffe77b7          	lui	a5,0xfffe7
    1368:	ddf78793          	addi	a5,a5,-545 # fffe6ddf <_sp+0xfffbda9f>
    136c:	00f507b3          	add	a5,a0,a5
    1370:	00019737          	lui	a4,0x19
    1374:	21e70713          	addi	a4,a4,542 # 1921e <heap.cpp.6b15d6f6+0x7551>
    1378:	32f76663          	bltu	a4,a5,16a4 <T4_end+0xec>
    137c:	000327b7          	lui	a5,0x32
    1380:	43f78793          	addi	a5,a5,1087 # 3243f <_sp+0x90ff>
    1384:	40a78533          	sub	a0,a5,a0
    1388:	00100593          	li	a1,1
    138c:	41f55813          	srai	a6,a0,0x1f
    1390:	02a807b3          	mul	a5,a6,a0
    1394:	02a508b3          	mul	a7,a0,a0
    1398:	02a53733          	mulhu	a4,a0,a0
    139c:	20e7a7b3          	sh1add	a5,a5,a4
    13a0:	01079793          	slli	a5,a5,0x10
    13a4:	0108d893          	srli	a7,a7,0x10
    13a8:	011788b3          	add	a7,a5,a7
    13ac:	41f8d313          	srai	t1,a7,0x1f
    13b0:	1f300693          	li	a3,499
    13b4:	02d307b3          	mul	a5,t1,a3
    13b8:	02d88733          	mul	a4,a7,a3
    13bc:	02d8b6b3          	mulhu	a3,a7,a3
    13c0:	00d787b3          	add	a5,a5,a3
    13c4:	01079793          	slli	a5,a5,0x10
    13c8:	01075713          	srli	a4,a4,0x10
    13cc:	00e78733          	add	a4,a5,a4
    13d0:	ffffd7b7          	lui	a5,0xffffd
    13d4:	57e78793          	addi	a5,a5,1406 # ffffd57e <_sp+0xfffd423e>
    13d8:	00f70733          	add	a4,a4,a5
    13dc:	41f75693          	srai	a3,a4,0x1f
    13e0:	031686b3          	mul	a3,a3,a7
    13e4:	02e30333          	mul	t1,t1,a4
    13e8:	006686b3          	add	a3,a3,t1
    13ec:	031707b3          	mul	a5,a4,a7
    13f0:	03173733          	mulhu	a4,a4,a7
    13f4:	00e68733          	add	a4,a3,a4
    13f8:	01071713          	slli	a4,a4,0x10
    13fc:	0107d793          	srli	a5,a5,0x10
    1400:	00f707b3          	add	a5,a4,a5
    1404:	00010737          	lui	a4,0x10
    1408:	00e787b3          	add	a5,a5,a4
    140c:	41f7d713          	srai	a4,a5,0x1f
    1410:	02a70733          	mul	a4,a4,a0
    1414:	02f80833          	mul	a6,a6,a5
    1418:	01070733          	add	a4,a4,a6
    141c:	02a786b3          	mul	a3,a5,a0
    1420:	02a7b7b3          	mulhu	a5,a5,a0
    1424:	00f707b3          	add	a5,a4,a5
    1428:	01079793          	slli	a5,a5,0x10
    142c:	0106d713          	srli	a4,a3,0x10
    1430:	00e78733          	add	a4,a5,a4
    1434:	02e585b3          	mul	a1,a1,a4
    1438:	10b12023          	sw	a1,256(sp)
    143c:	10c12223          	sw	a2,260(sp)
    1440:	0089a783          	lw	a5,8(s3)
    1444:	00078b93          	mv	s7,a5
    1448:	00caa603          	lw	a2,12(s5)
    144c:	02060263          	beqz	a2,1470 <T4_start+0x39c>
    1450:	41f7d793          	srai	a5,a5,0x1f
    1454:	010bd593          	srli	a1,s7,0x10
    1458:	01079793          	slli	a5,a5,0x10
    145c:	41f65693          	srai	a3,a2,0x1f
    1460:	010b9513          	slli	a0,s7,0x10
    1464:	00f585b3          	add	a1,a1,a5
    1468:	251070ef          	jal	8eb8 <__divdi3>
    146c:	00050613          	mv	a2,a0
    1470:	10c12423          	sw	a2,264(sp)
    1474:	004aa683          	lw	a3,4(s5)
    1478:	517cd7b7          	lui	a5,0x517cd
    147c:	c8378793          	addi	a5,a5,-893 # 517ccc83 <_sp+0x517a3943>
    1480:	02f697b3          	mulh	a5,a3,a5
    1484:	4117d793          	srai	a5,a5,0x11
    1488:	41f6d713          	srai	a4,a3,0x1f
    148c:	40e787b3          	sub	a5,a5,a4
    1490:	00065737          	lui	a4,0x65
    1494:	87e70713          	addi	a4,a4,-1922 # 6487e <_sp+0x3b53e>
    1498:	02e787b3          	mul	a5,a5,a4
    149c:	40f687b3          	sub	a5,a3,a5
    14a0:	2407ca63          	bltz	a5,16f4 <T4_end+0x13c>
    14a4:	fffe7737          	lui	a4,0xfffe7
    14a8:	ddf70713          	addi	a4,a4,-545 # fffe6ddf <_sp+0xfffbda9f>
    14ac:	00e78733          	add	a4,a5,a4
    14b0:	000196b7          	lui	a3,0x19
    14b4:	21e68693          	addi	a3,a3,542 # 1921e <heap.cpp.6b15d6f6+0x7551>
    14b8:	24e6e663          	bltu	a3,a4,1704 <T4_end+0x14c>
    14bc:	00032737          	lui	a4,0x32
    14c0:	43f70713          	addi	a4,a4,1087 # 3243f <_sp+0x90ff>
    14c4:	40f707b3          	sub	a5,a4,a5
    14c8:	00100613          	li	a2,1
    14cc:	41f7d513          	srai	a0,a5,0x1f
    14d0:	02f50733          	mul	a4,a0,a5
    14d4:	02f78833          	mul	a6,a5,a5
    14d8:	02f7b6b3          	mulhu	a3,a5,a5
    14dc:	20d72733          	sh1add	a4,a4,a3
    14e0:	01071713          	slli	a4,a4,0x10
    14e4:	01085813          	srli	a6,a6,0x10
    14e8:	01070833          	add	a6,a4,a6
    14ec:	41f85893          	srai	a7,a6,0x1f
    14f0:	1f300593          	li	a1,499
    14f4:	02b88733          	mul	a4,a7,a1
    14f8:	02b806b3          	mul	a3,a6,a1
    14fc:	02b835b3          	mulhu	a1,a6,a1
    1500:	00b70733          	add	a4,a4,a1
    1504:	01071713          	slli	a4,a4,0x10
    1508:	0106d693          	srli	a3,a3,0x10
    150c:	00d706b3          	add	a3,a4,a3
    1510:	ffffd737          	lui	a4,0xffffd
    1514:	57e70713          	addi	a4,a4,1406 # ffffd57e <_sp+0xfffd423e>
    1518:	00e686b3          	add	a3,a3,a4
    151c:	41f6d593          	srai	a1,a3,0x1f
    1520:	030585b3          	mul	a1,a1,a6
    1524:	02d888b3          	mul	a7,a7,a3
    1528:	011585b3          	add	a1,a1,a7
    152c:	03068733          	mul	a4,a3,a6
    1530:	0306b6b3          	mulhu	a3,a3,a6
    1534:	00d586b3          	add	a3,a1,a3
    1538:	01069693          	slli	a3,a3,0x10
    153c:	01075713          	srli	a4,a4,0x10
    1540:	00e68733          	add	a4,a3,a4
    1544:	000106b7          	lui	a3,0x10
    1548:	00d70733          	add	a4,a4,a3
    154c:	41f75693          	srai	a3,a4,0x1f
    1550:	02f686b3          	mul	a3,a3,a5
    1554:	02e50533          	mul	a0,a0,a4
    1558:	00a686b3          	add	a3,a3,a0
    155c:	02f705b3          	mul	a1,a4,a5
    1560:	02f73733          	mulhu	a4,a4,a5
    1564:	00e687b3          	add	a5,a3,a4
    1568:	01079793          	slli	a5,a5,0x10
    156c:	0105d713          	srli	a4,a1,0x10
    1570:	00e78733          	add	a4,a5,a4
    1574:	02e60633          	mul	a2,a2,a4
    1578:	10c12623          	sw	a2,268(sp)
    157c:	020b8663          	beqz	s7,15a8 <T4_start+0x4d4>
    1580:	0009a503          	lw	a0,0(s3)
    1584:	41f55793          	srai	a5,a0,0x1f
    1588:	01055593          	srli	a1,a0,0x10
    158c:	01079793          	slli	a5,a5,0x10
    1590:	000b8613          	mv	a2,s7
    1594:	41fbd693          	srai	a3,s7,0x1f
    1598:	01051513          	slli	a0,a0,0x10
    159c:	00f585b3          	add	a1,a1,a5
    15a0:	119070ef          	jal	8eb8 <__divdi3>
    15a4:	00050b93          	mv	s7,a0
    15a8:	11712823          	sw	s7,272(sp)
    15ac:	000aa783          	lw	a5,0(s5)
    15b0:	40fc07b3          	sub	a5,s8,a5
    15b4:	10f12a23          	sw	a5,276(sp)

000015b8 <T4_end>:
    15b8:	b00027f3          	csrr	a5,mcycle
    15bc:	419787b3          	sub	a5,a5,s9
    15c0:	00fa2823          	sw	a5,16(s4)
    15c4:	0f812603          	lw	a2,248(sp)
    15c8:	0f810713          	addi	a4,sp,248
    15cc:	00000513          	li	a0,0
    15d0:	00100793          	li	a5,1
    15d4:	00800593          	li	a1,8
    15d8:	1880006f          	j	1760 <T4_end+0x1a8>
    15dc:	000657b7          	lui	a5,0x65
    15e0:	87e78793          	addi	a5,a5,-1922 # 6487e <_sp+0x3b53e>
    15e4:	00f70733          	add	a4,a4,a5
    15e8:	b29ff06f          	j	1110 <T4_start+0x3c>
    15ec:	fffce7b7          	lui	a5,0xfffce
    15f0:	bc078793          	addi	a5,a5,-1088 # fffcdbc0 <_sp+0xfffa4880>
    15f4:	00f707b3          	add	a5,a4,a5
    15f8:	000196b7          	lui	a3,0x19
    15fc:	21f68693          	addi	a3,a3,543 # 1921f <heap.cpp.6b15d6f6+0x7552>
    1600:	00f6ec63          	bltu	a3,a5,1618 <T4_end+0x60>
    1604:	fffce7b7          	lui	a5,0xfffce
    1608:	bc178793          	addi	a5,a5,-1087 # fffcdbc1 <_sp+0xfffa4881>
    160c:	00f70733          	add	a4,a4,a5
    1610:	fff00513          	li	a0,-1
    1614:	b25ff06f          	j	1138 <T4_start+0x64>
    1618:	0004b7b7          	lui	a5,0x4b
    161c:	65f78793          	addi	a5,a5,1631 # 4b65f <_sp+0x2231f>
    1620:	00100513          	li	a0,1
    1624:	b0e7dae3          	bge	a5,a4,1138 <T4_start+0x64>
    1628:	000657b7          	lui	a5,0x65
    162c:	87e78793          	addi	a5,a5,-1922 # 6487e <_sp+0x3b53e>
    1630:	40e78733          	sub	a4,a5,a4
    1634:	fff00513          	li	a0,-1
    1638:	b01ff06f          	j	1138 <T4_start+0x64>
    163c:	00c787b3          	add	a5,a5,a2
    1640:	b31ff06f          	j	1170 <T4_start+0x9c>
    1644:	fffce6b7          	lui	a3,0xfffce
    1648:	bc068693          	addi	a3,a3,-1088 # fffcdbc0 <_sp+0xfffa4880>
    164c:	00d786b3          	add	a3,a5,a3
    1650:	00019637          	lui	a2,0x19
    1654:	21f60613          	addi	a2,a2,543 # 1921f <heap.cpp.6b15d6f6+0x7552>
    1658:	00d66c63          	bltu	a2,a3,1670 <T4_end+0xb8>
    165c:	fffce6b7          	lui	a3,0xfffce
    1660:	bc168693          	addi	a3,a3,-1087 # fffcdbc1 <_sp+0xfffa4881>
    1664:	00d787b3          	add	a5,a5,a3
    1668:	fff00813          	li	a6,-1
    166c:	b2dff06f          	j	1198 <T4_start+0xc4>
    1670:	0004b6b7          	lui	a3,0x4b
    1674:	65f68693          	addi	a3,a3,1631 # 4b65f <_sp+0x2231f>
    1678:	00100813          	li	a6,1
    167c:	b0f6dee3          	bge	a3,a5,1198 <T4_start+0xc4>
    1680:	000656b7          	lui	a3,0x65
    1684:	87e68693          	addi	a3,a3,-1922 # 6487e <_sp+0x3b53e>
    1688:	40f687b3          	sub	a5,a3,a5
    168c:	fff00813          	li	a6,-1
    1690:	b09ff06f          	j	1198 <T4_start+0xc4>
    1694:	000657b7          	lui	a5,0x65
    1698:	87e78793          	addi	a5,a5,-1922 # 6487e <_sp+0x3b53e>
    169c:	00f50533          	add	a0,a0,a5
    16a0:	cc5ff06f          	j	1364 <T4_start+0x290>
    16a4:	fffce7b7          	lui	a5,0xfffce
    16a8:	bc078793          	addi	a5,a5,-1088 # fffcdbc0 <_sp+0xfffa4880>
    16ac:	00f507b3          	add	a5,a0,a5
    16b0:	00019737          	lui	a4,0x19
    16b4:	21f70713          	addi	a4,a4,543 # 1921f <heap.cpp.6b15d6f6+0x7552>
    16b8:	00f76c63          	bltu	a4,a5,16d0 <T4_end+0x118>
    16bc:	fffce7b7          	lui	a5,0xfffce
    16c0:	bc178793          	addi	a5,a5,-1087 # fffcdbc1 <_sp+0xfffa4881>
    16c4:	00f50533          	add	a0,a0,a5
    16c8:	fff00593          	li	a1,-1
    16cc:	cc1ff06f          	j	138c <T4_start+0x2b8>
    16d0:	0004b7b7          	lui	a5,0x4b
    16d4:	65f78793          	addi	a5,a5,1631 # 4b65f <_sp+0x2231f>
    16d8:	00100593          	li	a1,1
    16dc:	caa7d8e3          	bge	a5,a0,138c <T4_start+0x2b8>
    16e0:	000657b7          	lui	a5,0x65
    16e4:	87e78793          	addi	a5,a5,-1922 # 6487e <_sp+0x3b53e>
    16e8:	40a78533          	sub	a0,a5,a0
    16ec:	fff00593          	li	a1,-1
    16f0:	c9dff06f          	j	138c <T4_start+0x2b8>
    16f4:	00065737          	lui	a4,0x65
    16f8:	87e70713          	addi	a4,a4,-1922 # 6487e <_sp+0x3b53e>
    16fc:	00e787b3          	add	a5,a5,a4
    1700:	da5ff06f          	j	14a4 <T4_start+0x3d0>
    1704:	fffce737          	lui	a4,0xfffce
    1708:	bc070713          	addi	a4,a4,-1088 # fffcdbc0 <_sp+0xfffa4880>
    170c:	00e78733          	add	a4,a5,a4
    1710:	000196b7          	lui	a3,0x19
    1714:	21f68693          	addi	a3,a3,543 # 1921f <heap.cpp.6b15d6f6+0x7552>
    1718:	00e6ec63          	bltu	a3,a4,1730 <T4_end+0x178>
    171c:	fffce737          	lui	a4,0xfffce
    1720:	bc170713          	addi	a4,a4,-1087 # fffcdbc1 <_sp+0xfffa4881>
    1724:	00e787b3          	add	a5,a5,a4
    1728:	fff00613          	li	a2,-1
    172c:	da1ff06f          	j	14cc <T4_start+0x3f8>
    1730:	0004b737          	lui	a4,0x4b
    1734:	65f70713          	addi	a4,a4,1631 # 4b65f <_sp+0x2231f>
    1738:	00100613          	li	a2,1
    173c:	d8f758e3          	bge	a4,a5,14cc <T4_start+0x3f8>
    1740:	00065737          	lui	a4,0x65
    1744:	87e70713          	addi	a4,a4,-1922 # 6487e <_sp+0x3b53e>
    1748:	40f707b3          	sub	a5,a4,a5
    174c:	fff00613          	li	a2,-1
    1750:	d7dff06f          	j	14cc <T4_start+0x3f8>
    1754:	00178793          	addi	a5,a5,1
    1758:	00470713          	addi	a4,a4,4
    175c:	00b78c63          	beq	a5,a1,1774 <T4_end+0x1bc>
    1760:	00472683          	lw	a3,4(a4)
    1764:	fec6c8e3          	blt	a3,a2,1754 <T4_end+0x19c>
    1768:	00068613          	mv	a2,a3
    176c:	00078513          	mv	a0,a5
    1770:	fe5ff06f          	j	1754 <T4_end+0x19c>
    1774:	00020737          	lui	a4,0x20
    1778:	000207b7          	lui	a5,0x20
    177c:	13878793          	addi	a5,a5,312 # 20138 <next.16>
    1780:	20f54533          	sh2add	a0,a0,a5
    1784:	00052783          	lw	a5,0(a0)
    1788:	17c70713          	addi	a4,a4,380 # 2017c <jump_table.21>
    178c:	20e7c7b3          	sh2add	a5,a5,a4
    1790:	0007a783          	lw	a5,0(a5)
    1794:	19c12c03          	lw	s8,412(sp)
    1798:	19812c83          	lw	s9,408(sp)
    179c:	bf8ff06f          	j	b94 <inferenceTPG+0x44>
    17a0:	19812e23          	sw	s8,412(sp)
    17a4:	19912c23          	sw	s9,408(sp)

000017a8 <T5_start>:
    17a8:	b00027f3          	csrr	a5,mcycle
    17ac:	00078c93          	mv	s9,a5
    17b0:	0084a783          	lw	a5,8(s1)
    17b4:	00078b93          	mv	s7,a5
    17b8:	517cd737          	lui	a4,0x517cd
    17bc:	c8370713          	addi	a4,a4,-893 # 517ccc83 <_sp+0x517a3943>
    17c0:	02e79733          	mulh	a4,a5,a4
    17c4:	41175713          	srai	a4,a4,0x11
    17c8:	41f7d793          	srai	a5,a5,0x1f
    17cc:	40f70733          	sub	a4,a4,a5
    17d0:	000657b7          	lui	a5,0x65
    17d4:	87e78793          	addi	a5,a5,-1922 # 6487e <_sp+0x3b53e>
    17d8:	02f707b3          	mul	a5,a4,a5
    17dc:	40fb8733          	sub	a4,s7,a5
    17e0:	48074863          	bltz	a4,1c70 <T5_end+0x24>
    17e4:	fffe77b7          	lui	a5,0xfffe7
    17e8:	ddf78793          	addi	a5,a5,-545 # fffe6ddf <_sp+0xfffbda9f>
    17ec:	00f707b3          	add	a5,a4,a5
    17f0:	000196b7          	lui	a3,0x19
    17f4:	21e68693          	addi	a3,a3,542 # 1921e <heap.cpp.6b15d6f6+0x7551>
    17f8:	48f6e463          	bltu	a3,a5,1c80 <T5_end+0x34>
    17fc:	000327b7          	lui	a5,0x32
    1800:	43f78793          	addi	a5,a5,1087 # 3243f <_sp+0x90ff>
    1804:	40e78733          	sub	a4,a5,a4
    1808:	00100513          	li	a0,1
    180c:	000196b7          	lui	a3,0x19
    1810:	22068693          	addi	a3,a3,544 # 19220 <heap.cpp.6b15d6f6+0x7553>
    1814:	417686b3          	sub	a3,a3,s7
    1818:	517cd7b7          	lui	a5,0x517cd
    181c:	c8378793          	addi	a5,a5,-893 # 517ccc83 <_sp+0x517a3943>
    1820:	02f697b3          	mulh	a5,a3,a5
    1824:	4117d793          	srai	a5,a5,0x11
    1828:	41f6d613          	srai	a2,a3,0x1f
    182c:	40c787b3          	sub	a5,a5,a2
    1830:	00065637          	lui	a2,0x65
    1834:	87e60613          	addi	a2,a2,-1922 # 6487e <_sp+0x3b53e>
    1838:	02c787b3          	mul	a5,a5,a2
    183c:	40f687b3          	sub	a5,a3,a5
    1840:	4807c863          	bltz	a5,1cd0 <T5_end+0x84>
    1844:	fffe76b7          	lui	a3,0xfffe7
    1848:	ddf68693          	addi	a3,a3,-545 # fffe6ddf <_sp+0xfffbda9f>
    184c:	00d786b3          	add	a3,a5,a3
    1850:	00019637          	lui	a2,0x19
    1854:	21e60613          	addi	a2,a2,542 # 1921e <heap.cpp.6b15d6f6+0x7551>
    1858:	48d66063          	bltu	a2,a3,1cd8 <T5_end+0x8c>
    185c:	000326b7          	lui	a3,0x32
    1860:	43f68693          	addi	a3,a3,1087 # 3243f <_sp+0x90ff>
    1864:	40f687b3          	sub	a5,a3,a5
    1868:	00100813          	li	a6,1
    186c:	41f7d893          	srai	a7,a5,0x1f
    1870:	02f886b3          	mul	a3,a7,a5
    1874:	02f78333          	mul	t1,a5,a5
    1878:	02f7b633          	mulhu	a2,a5,a5
    187c:	20c6a6b3          	sh1add	a3,a3,a2
    1880:	01069693          	slli	a3,a3,0x10
    1884:	01035313          	srli	t1,t1,0x10
    1888:	00668333          	add	t1,a3,t1
    188c:	41f35e13          	srai	t3,t1,0x1f
    1890:	1f300593          	li	a1,499
    1894:	02be06b3          	mul	a3,t3,a1
    1898:	02b30633          	mul	a2,t1,a1
    189c:	02b335b3          	mulhu	a1,t1,a1
    18a0:	00b686b3          	add	a3,a3,a1
    18a4:	01069693          	slli	a3,a3,0x10
    18a8:	01065613          	srli	a2,a2,0x10
    18ac:	00c68633          	add	a2,a3,a2
    18b0:	ffffd6b7          	lui	a3,0xffffd
    18b4:	57e68693          	addi	a3,a3,1406 # ffffd57e <_sp+0xfffd423e>
    18b8:	00d60633          	add	a2,a2,a3
    18bc:	41f65593          	srai	a1,a2,0x1f
    18c0:	026585b3          	mul	a1,a1,t1
    18c4:	02ce0e33          	mul	t3,t3,a2
    18c8:	01c585b3          	add	a1,a1,t3
    18cc:	026606b3          	mul	a3,a2,t1
    18d0:	02663633          	mulhu	a2,a2,t1
    18d4:	00c58633          	add	a2,a1,a2
    18d8:	01061613          	slli	a2,a2,0x10
    18dc:	0106d693          	srli	a3,a3,0x10
    18e0:	00d606b3          	add	a3,a2,a3
    18e4:	00010637          	lui	a2,0x10
    18e8:	00c686b3          	add	a3,a3,a2
    18ec:	41f6d593          	srai	a1,a3,0x1f
    18f0:	02f585b3          	mul	a1,a1,a5
    18f4:	02d888b3          	mul	a7,a7,a3
    18f8:	011585b3          	add	a1,a1,a7
    18fc:	02f68633          	mul	a2,a3,a5
    1900:	02f6b6b3          	mulhu	a3,a3,a5
    1904:	00d587b3          	add	a5,a1,a3
    1908:	01079793          	slli	a5,a5,0x10
    190c:	01065613          	srli	a2,a2,0x10
    1910:	00c78633          	add	a2,a5,a2
    1914:	02c80633          	mul	a2,a6,a2
    1918:	0c060863          	beqz	a2,19e8 <T5_start+0x240>
    191c:	41f75893          	srai	a7,a4,0x1f
    1920:	02e887b3          	mul	a5,a7,a4
    1924:	02e705b3          	mul	a1,a4,a4
    1928:	02e736b3          	mulhu	a3,a4,a4
    192c:	20d7a7b3          	sh1add	a5,a5,a3
    1930:	01079793          	slli	a5,a5,0x10
    1934:	0105d593          	srli	a1,a1,0x10
    1938:	00b785b3          	add	a1,a5,a1
    193c:	41f5d313          	srai	t1,a1,0x1f
    1940:	1f300813          	li	a6,499
    1944:	030307b3          	mul	a5,t1,a6
    1948:	030586b3          	mul	a3,a1,a6
    194c:	0305b833          	mulhu	a6,a1,a6
    1950:	010787b3          	add	a5,a5,a6
    1954:	01079793          	slli	a5,a5,0x10
    1958:	0106d693          	srli	a3,a3,0x10
    195c:	00d786b3          	add	a3,a5,a3
    1960:	ffffd7b7          	lui	a5,0xffffd
    1964:	57e78793          	addi	a5,a5,1406 # ffffd57e <_sp+0xfffd423e>
    1968:	00f686b3          	add	a3,a3,a5
    196c:	41f6d813          	srai	a6,a3,0x1f
    1970:	02b80833          	mul	a6,a6,a1
    1974:	02d30333          	mul	t1,t1,a3
    1978:	00680833          	add	a6,a6,t1
    197c:	02b687b3          	mul	a5,a3,a1
    1980:	02b6b6b3          	mulhu	a3,a3,a1
    1984:	00d806b3          	add	a3,a6,a3
    1988:	01069693          	slli	a3,a3,0x10
    198c:	0107d793          	srli	a5,a5,0x10
    1990:	00f687b3          	add	a5,a3,a5
    1994:	000106b7          	lui	a3,0x10
    1998:	00d787b3          	add	a5,a5,a3
    199c:	41f7d693          	srai	a3,a5,0x1f
    19a0:	02e686b3          	mul	a3,a3,a4
    19a4:	02f888b3          	mul	a7,a7,a5
    19a8:	011686b3          	add	a3,a3,a7
    19ac:	02e785b3          	mul	a1,a5,a4
    19b0:	02e7b7b3          	mulhu	a5,a5,a4
    19b4:	00f687b3          	add	a5,a3,a5
    19b8:	01079793          	slli	a5,a5,0x10
    19bc:	0105d713          	srli	a4,a1,0x10
    19c0:	00e78733          	add	a4,a5,a4
    19c4:	02e50533          	mul	a0,a0,a4
    19c8:	41f55793          	srai	a5,a0,0x1f
    19cc:	01055593          	srli	a1,a0,0x10
    19d0:	01079793          	slli	a5,a5,0x10
    19d4:	41f65693          	srai	a3,a2,0x1f
    19d8:	01051513          	slli	a0,a0,0x10
    19dc:	00f585b3          	add	a1,a1,a5
    19e0:	4d8070ef          	jal	8eb8 <__divdi3>
    19e4:	00050613          	mv	a2,a0
    19e8:	0ac12823          	sw	a2,176(sp)
    19ec:	0044a783          	lw	a5,4(s1)
    19f0:	00078c13          	mv	s8,a5
    19f4:	517cd737          	lui	a4,0x517cd
    19f8:	c8370713          	addi	a4,a4,-893 # 517ccc83 <_sp+0x517a3943>
    19fc:	02e79733          	mulh	a4,a5,a4
    1a00:	41175713          	srai	a4,a4,0x11
    1a04:	41f7d793          	srai	a5,a5,0x1f
    1a08:	40f70733          	sub	a4,a4,a5
    1a0c:	000657b7          	lui	a5,0x65
    1a10:	87e78793          	addi	a5,a5,-1922 # 6487e <_sp+0x3b53e>
    1a14:	02f707b3          	mul	a5,a4,a5
    1a18:	40fc0733          	sub	a4,s8,a5
    1a1c:	30074663          	bltz	a4,1d28 <T5_end+0xdc>
    1a20:	fffe77b7          	lui	a5,0xfffe7
    1a24:	ddf78793          	addi	a5,a5,-545 # fffe6ddf <_sp+0xfffbda9f>
    1a28:	00f707b3          	add	a5,a4,a5
    1a2c:	000196b7          	lui	a3,0x19
    1a30:	21e68693          	addi	a3,a3,542 # 1921e <heap.cpp.6b15d6f6+0x7551>
    1a34:	30f6e263          	bltu	a3,a5,1d38 <T5_end+0xec>
    1a38:	000327b7          	lui	a5,0x32
    1a3c:	43f78793          	addi	a5,a5,1087 # 3243f <_sp+0x90ff>
    1a40:	40e78733          	sub	a4,a5,a4
    1a44:	00100513          	li	a0,1
    1a48:	000196b7          	lui	a3,0x19
    1a4c:	22068693          	addi	a3,a3,544 # 19220 <heap.cpp.6b15d6f6+0x7553>
    1a50:	418686b3          	sub	a3,a3,s8
    1a54:	517cd7b7          	lui	a5,0x517cd
    1a58:	c8378793          	addi	a5,a5,-893 # 517ccc83 <_sp+0x517a3943>
    1a5c:	02f697b3          	mulh	a5,a3,a5
    1a60:	4117d793          	srai	a5,a5,0x11
    1a64:	41f6d613          	srai	a2,a3,0x1f
    1a68:	40c787b3          	sub	a5,a5,a2
    1a6c:	00065637          	lui	a2,0x65
    1a70:	87e60613          	addi	a2,a2,-1922 # 6487e <_sp+0x3b53e>
    1a74:	02c787b3          	mul	a5,a5,a2
    1a78:	40f687b3          	sub	a5,a3,a5
    1a7c:	3007c663          	bltz	a5,1d88 <T5_end+0x13c>
    1a80:	fffe76b7          	lui	a3,0xfffe7
    1a84:	ddf68693          	addi	a3,a3,-545 # fffe6ddf <_sp+0xfffbda9f>
    1a88:	00d786b3          	add	a3,a5,a3
    1a8c:	00019637          	lui	a2,0x19
    1a90:	21e60613          	addi	a2,a2,542 # 1921e <heap.cpp.6b15d6f6+0x7551>
    1a94:	2ed66e63          	bltu	a2,a3,1d90 <T5_end+0x144>
    1a98:	000326b7          	lui	a3,0x32
    1a9c:	43f68693          	addi	a3,a3,1087 # 3243f <_sp+0x90ff>
    1aa0:	40f687b3          	sub	a5,a3,a5
    1aa4:	00100813          	li	a6,1
    1aa8:	41f7d893          	srai	a7,a5,0x1f
    1aac:	02f886b3          	mul	a3,a7,a5
    1ab0:	02f78333          	mul	t1,a5,a5
    1ab4:	02f7b633          	mulhu	a2,a5,a5
    1ab8:	20c6a6b3          	sh1add	a3,a3,a2
    1abc:	01069693          	slli	a3,a3,0x10
    1ac0:	01035313          	srli	t1,t1,0x10
    1ac4:	00668333          	add	t1,a3,t1
    1ac8:	41f35e13          	srai	t3,t1,0x1f
    1acc:	1f300593          	li	a1,499
    1ad0:	02be06b3          	mul	a3,t3,a1
    1ad4:	02b30633          	mul	a2,t1,a1
    1ad8:	02b335b3          	mulhu	a1,t1,a1
    1adc:	00b686b3          	add	a3,a3,a1
    1ae0:	01069693          	slli	a3,a3,0x10
    1ae4:	01065613          	srli	a2,a2,0x10
    1ae8:	00c68633          	add	a2,a3,a2
    1aec:	ffffd6b7          	lui	a3,0xffffd
    1af0:	57e68693          	addi	a3,a3,1406 # ffffd57e <_sp+0xfffd423e>
    1af4:	00d60633          	add	a2,a2,a3
    1af8:	41f65593          	srai	a1,a2,0x1f
    1afc:	026585b3          	mul	a1,a1,t1
    1b00:	02ce0e33          	mul	t3,t3,a2
    1b04:	01c585b3          	add	a1,a1,t3
    1b08:	026606b3          	mul	a3,a2,t1
    1b0c:	02663633          	mulhu	a2,a2,t1
    1b10:	00c58633          	add	a2,a1,a2
    1b14:	01061613          	slli	a2,a2,0x10
    1b18:	0106d693          	srli	a3,a3,0x10
    1b1c:	00d606b3          	add	a3,a2,a3
    1b20:	00010637          	lui	a2,0x10
    1b24:	00c686b3          	add	a3,a3,a2
    1b28:	41f6d593          	srai	a1,a3,0x1f
    1b2c:	02f585b3          	mul	a1,a1,a5
    1b30:	02d888b3          	mul	a7,a7,a3
    1b34:	011585b3          	add	a1,a1,a7
    1b38:	02f68633          	mul	a2,a3,a5
    1b3c:	02f6b6b3          	mulhu	a3,a3,a5
    1b40:	00d587b3          	add	a5,a1,a3
    1b44:	01079793          	slli	a5,a5,0x10
    1b48:	01065613          	srli	a2,a2,0x10
    1b4c:	00c78633          	add	a2,a5,a2
    1b50:	02c80633          	mul	a2,a6,a2
    1b54:	0c060863          	beqz	a2,1c24 <T5_start+0x47c>
    1b58:	41f75893          	srai	a7,a4,0x1f
    1b5c:	02e887b3          	mul	a5,a7,a4
    1b60:	02e705b3          	mul	a1,a4,a4
    1b64:	02e736b3          	mulhu	a3,a4,a4
    1b68:	20d7a7b3          	sh1add	a5,a5,a3
    1b6c:	01079793          	slli	a5,a5,0x10
    1b70:	0105d593          	srli	a1,a1,0x10
    1b74:	00b785b3          	add	a1,a5,a1
    1b78:	41f5d313          	srai	t1,a1,0x1f
    1b7c:	1f300813          	li	a6,499
    1b80:	030307b3          	mul	a5,t1,a6
    1b84:	030586b3          	mul	a3,a1,a6
    1b88:	0305b833          	mulhu	a6,a1,a6
    1b8c:	010787b3          	add	a5,a5,a6
    1b90:	01079793          	slli	a5,a5,0x10
    1b94:	0106d693          	srli	a3,a3,0x10
    1b98:	00d786b3          	add	a3,a5,a3
    1b9c:	ffffd7b7          	lui	a5,0xffffd
    1ba0:	57e78793          	addi	a5,a5,1406 # ffffd57e <_sp+0xfffd423e>
    1ba4:	00f686b3          	add	a3,a3,a5
    1ba8:	41f6d813          	srai	a6,a3,0x1f
    1bac:	02b80833          	mul	a6,a6,a1
    1bb0:	02d30333          	mul	t1,t1,a3
    1bb4:	00680833          	add	a6,a6,t1
    1bb8:	02b687b3          	mul	a5,a3,a1
    1bbc:	02b6b6b3          	mulhu	a3,a3,a1
    1bc0:	00d806b3          	add	a3,a6,a3
    1bc4:	01069693          	slli	a3,a3,0x10
    1bc8:	0107d793          	srli	a5,a5,0x10
    1bcc:	00f687b3          	add	a5,a3,a5
    1bd0:	000106b7          	lui	a3,0x10
    1bd4:	00d787b3          	add	a5,a5,a3
    1bd8:	41f7d693          	srai	a3,a5,0x1f
    1bdc:	02e686b3          	mul	a3,a3,a4
    1be0:	02f888b3          	mul	a7,a7,a5
    1be4:	011686b3          	add	a3,a3,a7
    1be8:	02e785b3          	mul	a1,a5,a4
    1bec:	02e7b7b3          	mulhu	a5,a5,a4
    1bf0:	00f687b3          	add	a5,a3,a5
    1bf4:	01079793          	slli	a5,a5,0x10
    1bf8:	0105d713          	srli	a4,a1,0x10
    1bfc:	00e78733          	add	a4,a5,a4
    1c00:	02e50533          	mul	a0,a0,a4
    1c04:	41f55793          	srai	a5,a0,0x1f
    1c08:	01055593          	srli	a1,a0,0x10
    1c0c:	01079793          	slli	a5,a5,0x10
    1c10:	41f65693          	srai	a3,a2,0x1f
    1c14:	01051513          	slli	a0,a0,0x10
    1c18:	00f585b3          	add	a1,a1,a5
    1c1c:	29c070ef          	jal	8eb8 <__divdi3>
    1c20:	00050613          	mv	a2,a0
    1c24:	0ac12a23          	sw	a2,180(sp)
    1c28:	00892783          	lw	a5,8(s2)
    1c2c:	0a07e7b3          	max	a5,a5,zero
    1c30:	0af12c23          	sw	a5,184(sp)
    1c34:	418b87b3          	sub	a5,s7,s8
    1c38:	0af12e23          	sw	a5,188(sp)
    1c3c:	0004a783          	lw	a5,0(s1)
    1c40:	0089a703          	lw	a4,8(s3)
    1c44:	00e787b3          	add	a5,a5,a4
    1c48:	0cf12023          	sw	a5,192(sp)

00001c4c <T5_end>:
    1c4c:	b00027f3          	csrr	a5,mcycle
    1c50:	419787b3          	sub	a5,a5,s9
    1c54:	00fa2a23          	sw	a5,20(s4)
    1c58:	0b012603          	lw	a2,176(sp)
    1c5c:	0b010713          	addi	a4,sp,176
    1c60:	00000513          	li	a0,0
    1c64:	00100793          	li	a5,1
    1c68:	00500593          	li	a1,5
    1c6c:	1800006f          	j	1dec <T5_end+0x1a0>
    1c70:	000657b7          	lui	a5,0x65
    1c74:	87e78793          	addi	a5,a5,-1922 # 6487e <_sp+0x3b53e>
    1c78:	00f70733          	add	a4,a4,a5
    1c7c:	b69ff06f          	j	17e4 <T5_start+0x3c>
    1c80:	fffce7b7          	lui	a5,0xfffce
    1c84:	bc078793          	addi	a5,a5,-1088 # fffcdbc0 <_sp+0xfffa4880>
    1c88:	00f707b3          	add	a5,a4,a5
    1c8c:	000196b7          	lui	a3,0x19
    1c90:	21f68693          	addi	a3,a3,543 # 1921f <heap.cpp.6b15d6f6+0x7552>
    1c94:	00f6ec63          	bltu	a3,a5,1cac <T5_end+0x60>
    1c98:	fffce7b7          	lui	a5,0xfffce
    1c9c:	bc178793          	addi	a5,a5,-1087 # fffcdbc1 <_sp+0xfffa4881>
    1ca0:	00f70733          	add	a4,a4,a5
    1ca4:	fff00513          	li	a0,-1
    1ca8:	b65ff06f          	j	180c <T5_start+0x64>
    1cac:	0004b7b7          	lui	a5,0x4b
    1cb0:	65f78793          	addi	a5,a5,1631 # 4b65f <_sp+0x2231f>
    1cb4:	00100513          	li	a0,1
    1cb8:	b4e7dae3          	bge	a5,a4,180c <T5_start+0x64>
    1cbc:	000657b7          	lui	a5,0x65
    1cc0:	87e78793          	addi	a5,a5,-1922 # 6487e <_sp+0x3b53e>
    1cc4:	40e78733          	sub	a4,a5,a4
    1cc8:	fff00513          	li	a0,-1
    1ccc:	b41ff06f          	j	180c <T5_start+0x64>
    1cd0:	00c787b3          	add	a5,a5,a2
    1cd4:	b71ff06f          	j	1844 <T5_start+0x9c>
    1cd8:	fffce6b7          	lui	a3,0xfffce
    1cdc:	bc068693          	addi	a3,a3,-1088 # fffcdbc0 <_sp+0xfffa4880>
    1ce0:	00d786b3          	add	a3,a5,a3
    1ce4:	00019637          	lui	a2,0x19
    1ce8:	21f60613          	addi	a2,a2,543 # 1921f <heap.cpp.6b15d6f6+0x7552>
    1cec:	00d66c63          	bltu	a2,a3,1d04 <T5_end+0xb8>
    1cf0:	fffce6b7          	lui	a3,0xfffce
    1cf4:	bc168693          	addi	a3,a3,-1087 # fffcdbc1 <_sp+0xfffa4881>
    1cf8:	00d787b3          	add	a5,a5,a3
    1cfc:	fff00813          	li	a6,-1
    1d00:	b6dff06f          	j	186c <T5_start+0xc4>
    1d04:	0004b6b7          	lui	a3,0x4b
    1d08:	65f68693          	addi	a3,a3,1631 # 4b65f <_sp+0x2231f>
    1d0c:	00100813          	li	a6,1
    1d10:	b4f6dee3          	bge	a3,a5,186c <T5_start+0xc4>
    1d14:	000656b7          	lui	a3,0x65
    1d18:	87e68693          	addi	a3,a3,-1922 # 6487e <_sp+0x3b53e>
    1d1c:	40f687b3          	sub	a5,a3,a5
    1d20:	fff00813          	li	a6,-1
    1d24:	b49ff06f          	j	186c <T5_start+0xc4>
    1d28:	000657b7          	lui	a5,0x65
    1d2c:	87e78793          	addi	a5,a5,-1922 # 6487e <_sp+0x3b53e>
    1d30:	00f70733          	add	a4,a4,a5
    1d34:	cedff06f          	j	1a20 <T5_start+0x278>
    1d38:	fffce7b7          	lui	a5,0xfffce
    1d3c:	bc078793          	addi	a5,a5,-1088 # fffcdbc0 <_sp+0xfffa4880>
    1d40:	00f707b3          	add	a5,a4,a5
    1d44:	000196b7          	lui	a3,0x19
    1d48:	21f68693          	addi	a3,a3,543 # 1921f <heap.cpp.6b15d6f6+0x7552>
    1d4c:	00f6ec63          	bltu	a3,a5,1d64 <T5_end+0x118>
    1d50:	fffce7b7          	lui	a5,0xfffce
    1d54:	bc178793          	addi	a5,a5,-1087 # fffcdbc1 <_sp+0xfffa4881>
    1d58:	00f70733          	add	a4,a4,a5
    1d5c:	fff00513          	li	a0,-1
    1d60:	ce9ff06f          	j	1a48 <T5_start+0x2a0>
    1d64:	0004b7b7          	lui	a5,0x4b
    1d68:	65f78793          	addi	a5,a5,1631 # 4b65f <_sp+0x2231f>
    1d6c:	00100513          	li	a0,1
    1d70:	cce7dce3          	bge	a5,a4,1a48 <T5_start+0x2a0>
    1d74:	000657b7          	lui	a5,0x65
    1d78:	87e78793          	addi	a5,a5,-1922 # 6487e <_sp+0x3b53e>
    1d7c:	40e78733          	sub	a4,a5,a4
    1d80:	fff00513          	li	a0,-1
    1d84:	cc5ff06f          	j	1a48 <T5_start+0x2a0>
    1d88:	00c787b3          	add	a5,a5,a2
    1d8c:	cf5ff06f          	j	1a80 <T5_start+0x2d8>
    1d90:	fffce6b7          	lui	a3,0xfffce
    1d94:	bc068693          	addi	a3,a3,-1088 # fffcdbc0 <_sp+0xfffa4880>
    1d98:	00d786b3          	add	a3,a5,a3
    1d9c:	00019637          	lui	a2,0x19
    1da0:	21f60613          	addi	a2,a2,543 # 1921f <heap.cpp.6b15d6f6+0x7552>
    1da4:	00d66c63          	bltu	a2,a3,1dbc <T5_end+0x170>
    1da8:	fffce6b7          	lui	a3,0xfffce
    1dac:	bc168693          	addi	a3,a3,-1087 # fffcdbc1 <_sp+0xfffa4881>
    1db0:	00d787b3          	add	a5,a5,a3
    1db4:	fff00813          	li	a6,-1
    1db8:	cf1ff06f          	j	1aa8 <T5_start+0x300>
    1dbc:	0004b6b7          	lui	a3,0x4b
    1dc0:	65f68693          	addi	a3,a3,1631 # 4b65f <_sp+0x2231f>
    1dc4:	00100813          	li	a6,1
    1dc8:	cef6d0e3          	bge	a3,a5,1aa8 <T5_start+0x300>
    1dcc:	000656b7          	lui	a3,0x65
    1dd0:	87e68693          	addi	a3,a3,-1922 # 6487e <_sp+0x3b53e>
    1dd4:	40f687b3          	sub	a5,a3,a5
    1dd8:	fff00813          	li	a6,-1
    1ddc:	ccdff06f          	j	1aa8 <T5_start+0x300>
    1de0:	00178793          	addi	a5,a5,1
    1de4:	00470713          	addi	a4,a4,4
    1de8:	00b78c63          	beq	a5,a1,1e00 <T5_end+0x1b4>
    1dec:	00472683          	lw	a3,4(a4)
    1df0:	fec6c8e3          	blt	a3,a2,1de0 <T5_end+0x194>
    1df4:	00068613          	mv	a2,a3
    1df8:	00078513          	mv	a0,a5
    1dfc:	fe5ff06f          	j	1de0 <T5_end+0x194>
    1e00:	00020737          	lui	a4,0x20
    1e04:	000207b7          	lui	a5,0x20
    1e08:	12478793          	addi	a5,a5,292 # 20124 <next.15>
    1e0c:	20f54533          	sh2add	a0,a0,a5
    1e10:	00052783          	lw	a5,0(a0)
    1e14:	17c70713          	addi	a4,a4,380 # 2017c <jump_table.21>
    1e18:	20e7c7b3          	sh2add	a5,a5,a4
    1e1c:	0007a783          	lw	a5,0(a5)
    1e20:	19c12c03          	lw	s8,412(sp)
    1e24:	19812c83          	lw	s9,408(sp)
    1e28:	d6dfe06f          	j	b94 <inferenceTPG+0x44>

00001e2c <T6_start>:
    1e2c:	b00026f3          	csrr	a3,mcycle
    1e30:	0004a703          	lw	a4,0(s1)
    1e34:	00492783          	lw	a5,4(s2)
    1e38:	0ae7e7b3          	max	a5,a5,a4
    1e3c:	08f12023          	sw	a5,128(sp)
    1e40:	0089a783          	lw	a5,8(s3)
    1e44:	00e787b3          	add	a5,a5,a4
    1e48:	08f12223          	sw	a5,132(sp)
    1e4c:	00892783          	lw	a5,8(s2)
    1e50:	0a07e7b3          	max	a5,a5,zero
    1e54:	08f12423          	sw	a5,136(sp)
    1e58:	0044a783          	lw	a5,4(s1)
    1e5c:	40f007b3          	neg	a5,a5
    1e60:	08f12623          	sw	a5,140(sp)

00001e64 <T6_end>:
    1e64:	b00027f3          	csrr	a5,mcycle
    1e68:	40d787b3          	sub	a5,a5,a3
    1e6c:	00fa2c23          	sw	a5,24(s4)
    1e70:	08012683          	lw	a3,128(sp)
    1e74:	08412703          	lw	a4,132(sp)
    1e78:	00100793          	li	a5,1
    1e7c:	00d75663          	bge	a4,a3,1e88 <T6_end+0x24>
    1e80:	00068713          	mv	a4,a3
    1e84:	00000793          	li	a5,0
    1e88:	08812683          	lw	a3,136(sp)
    1e8c:	02e6dc63          	bge	a3,a4,1ec4 <T6_end+0x60>
    1e90:	00070693          	mv	a3,a4
    1e94:	08c12703          	lw	a4,140(sp)
    1e98:	00d74463          	blt	a4,a3,1ea0 <T6_end+0x3c>
    1e9c:	00300793          	li	a5,3
    1ea0:	00020737          	lui	a4,0x20
    1ea4:	000206b7          	lui	a3,0x20
    1ea8:	11468693          	addi	a3,a3,276 # 20114 <next.14>
    1eac:	20d7c7b3          	sh2add	a5,a5,a3
    1eb0:	0007a783          	lw	a5,0(a5)
    1eb4:	17c70713          	addi	a4,a4,380 # 2017c <jump_table.21>
    1eb8:	20e7c7b3          	sh2add	a5,a5,a4
    1ebc:	0007a783          	lw	a5,0(a5)
    1ec0:	cd5fe06f          	j	b94 <inferenceTPG+0x44>
    1ec4:	00200793          	li	a5,2
    1ec8:	fcdff06f          	j	1e94 <T6_end+0x30>

00001ecc <T7_start>:
    1ecc:	b0002773          	csrr	a4,mcycle
    1ed0:	00892783          	lw	a5,8(s2)
    1ed4:	0a07e7b3          	max	a5,a5,zero
    1ed8:	00f12c23          	sw	a5,24(sp)
    1edc:	0044a783          	lw	a5,4(s1)
    1ee0:	40f007b3          	neg	a5,a5
    1ee4:	00f12e23          	sw	a5,28(sp)

00001ee8 <T7_end>:
    1ee8:	b00027f3          	csrr	a5,mcycle
    1eec:	40e787b3          	sub	a5,a5,a4
    1ef0:	00fa2e23          	sw	a5,28(s4)
    1ef4:	00020737          	lui	a4,0x20
    1ef8:	01812783          	lw	a5,24(sp)
    1efc:	01c12603          	lw	a2,28(sp)
    1f00:	00f627b3          	slt	a5,a2,a5
    1f04:	0017b793          	seqz	a5,a5
    1f08:	94818693          	addi	a3,gp,-1720 # 210c0 <next.13>
    1f0c:	20d7c7b3          	sh2add	a5,a5,a3
    1f10:	0007a783          	lw	a5,0(a5)
    1f14:	17c70713          	addi	a4,a4,380 # 2017c <jump_table.21>
    1f18:	20e7c7b3          	sh2add	a5,a5,a4
    1f1c:	0007a783          	lw	a5,0(a5)
    1f20:	c75fe06f          	j	b94 <inferenceTPG+0x44>

00001f24 <T8_start>:
    1f24:	b00026f3          	csrr	a3,mcycle
    1f28:	0044a783          	lw	a5,4(s1)
    1f2c:	40f007b3          	neg	a5,a5
    1f30:	08f12823          	sw	a5,144(sp)
    1f34:	00892783          	lw	a5,8(s2)
    1f38:	0a07e7b3          	max	a5,a5,zero
    1f3c:	08f12a23          	sw	a5,148(sp)
    1f40:	0004a703          	lw	a4,0(s1)
    1f44:	0089a783          	lw	a5,8(s3)
    1f48:	00e787b3          	add	a5,a5,a4
    1f4c:	08f12c23          	sw	a5,152(sp)
    1f50:	00492783          	lw	a5,4(s2)
    1f54:	0ae7e7b3          	max	a5,a5,a4
    1f58:	08f12e23          	sw	a5,156(sp)

00001f5c <T8_end>:
    1f5c:	b00027f3          	csrr	a5,mcycle
    1f60:	40d787b3          	sub	a5,a5,a3
    1f64:	02fa2023          	sw	a5,32(s4)
    1f68:	09012683          	lw	a3,144(sp)
    1f6c:	09412703          	lw	a4,148(sp)
    1f70:	00100793          	li	a5,1
    1f74:	00d75663          	bge	a4,a3,1f80 <T8_end+0x24>
    1f78:	00068713          	mv	a4,a3
    1f7c:	00000793          	li	a5,0
    1f80:	09812683          	lw	a3,152(sp)
    1f84:	02e6dc63          	bge	a3,a4,1fbc <T8_end+0x60>
    1f88:	00070693          	mv	a3,a4
    1f8c:	09c12703          	lw	a4,156(sp)
    1f90:	00d74463          	blt	a4,a3,1f98 <T8_end+0x3c>
    1f94:	00300793          	li	a5,3
    1f98:	00020737          	lui	a4,0x20
    1f9c:	000206b7          	lui	a3,0x20
    1fa0:	10468693          	addi	a3,a3,260 # 20104 <next.12>
    1fa4:	20d7c7b3          	sh2add	a5,a5,a3
    1fa8:	0007a783          	lw	a5,0(a5)
    1fac:	17c70713          	addi	a4,a4,380 # 2017c <jump_table.21>
    1fb0:	20e7c7b3          	sh2add	a5,a5,a4
    1fb4:	0007a783          	lw	a5,0(a5)
    1fb8:	bddfe06f          	j	b94 <inferenceTPG+0x44>
    1fbc:	00200793          	li	a5,2
    1fc0:	fcdff06f          	j	1f8c <T8_end+0x30>

00001fc4 <T9_start>:
    1fc4:	b00026f3          	csrr	a3,mcycle
    1fc8:	0004a703          	lw	a4,0(s1)
    1fcc:	00492783          	lw	a5,4(s2)
    1fd0:	40e787b3          	sub	a5,a5,a4
    1fd4:	06f12423          	sw	a5,104(sp)
    1fd8:	0089a783          	lw	a5,8(s3)
    1fdc:	00e787b3          	add	a5,a5,a4
    1fe0:	06f12623          	sw	a5,108(sp)
    1fe4:	00892783          	lw	a5,8(s2)
    1fe8:	0a07e7b3          	max	a5,a5,zero
    1fec:	06f12823          	sw	a5,112(sp)

00001ff0 <T9_end>:
    1ff0:	b00027f3          	csrr	a5,mcycle
    1ff4:	40d787b3          	sub	a5,a5,a3
    1ff8:	02fa2223          	sw	a5,36(s4)
    1ffc:	06812683          	lw	a3,104(sp)
    2000:	06c12703          	lw	a4,108(sp)
    2004:	00100793          	li	a5,1
    2008:	00d75663          	bge	a4,a3,2014 <T9_end+0x24>
    200c:	00068713          	mv	a4,a3
    2010:	00000793          	li	a5,0
    2014:	07012683          	lw	a3,112(sp)
    2018:	00e6c463          	blt	a3,a4,2020 <T9_end+0x30>
    201c:	00200793          	li	a5,2
    2020:	00020737          	lui	a4,0x20
    2024:	000206b7          	lui	a3,0x20
    2028:	0f868693          	addi	a3,a3,248 # 200f8 <next.11>
    202c:	20d7c7b3          	sh2add	a5,a5,a3
    2030:	0007a783          	lw	a5,0(a5)
    2034:	17c70713          	addi	a4,a4,380 # 2017c <jump_table.21>
    2038:	20e7c7b3          	sh2add	a5,a5,a4
    203c:	0007a783          	lw	a5,0(a5)
    2040:	b55fe06f          	j	b94 <inferenceTPG+0x44>

00002044 <T10_start>:
    2044:	b00026f3          	csrr	a3,mcycle
    2048:	0004a703          	lw	a4,0(s1)
    204c:	00492783          	lw	a5,4(s2)
    2050:	0ae7e7b3          	max	a5,a5,a4
    2054:	0cf12223          	sw	a5,196(sp)
    2058:	00892783          	lw	a5,8(s2)
    205c:	0a07e7b3          	max	a5,a5,zero
    2060:	0cf12423          	sw	a5,200(sp)
    2064:	0049a783          	lw	a5,4(s3)
    2068:	0cf12623          	sw	a5,204(sp)
    206c:	00092783          	lw	a5,0(s2)
    2070:	0009a603          	lw	a2,0(s3)
    2074:	00c787b3          	add	a5,a5,a2
    2078:	0cf12823          	sw	a5,208(sp)
    207c:	0084a783          	lw	a5,8(s1)
    2080:	0cf12a23          	sw	a5,212(sp)
    2084:	0089a783          	lw	a5,8(s3)
    2088:	00e787b3          	add	a5,a5,a4
    208c:	0cf12c23          	sw	a5,216(sp)

00002090 <T10_end>:
    2090:	b00027f3          	csrr	a5,mcycle
    2094:	40d787b3          	sub	a5,a5,a3
    2098:	02fa2423          	sw	a5,40(s4)
    209c:	0c412603          	lw	a2,196(sp)
    20a0:	0c810713          	addi	a4,sp,200
    20a4:	00000513          	li	a0,0
    20a8:	00100793          	li	a5,1
    20ac:	00600593          	li	a1,6
    20b0:	0100006f          	j	20c0 <T10_end+0x30>
    20b4:	00178793          	addi	a5,a5,1
    20b8:	00470713          	addi	a4,a4,4
    20bc:	00b78c63          	beq	a5,a1,20d4 <T10_end+0x44>
    20c0:	00072683          	lw	a3,0(a4)
    20c4:	fec6c8e3          	blt	a3,a2,20b4 <T10_end+0x24>
    20c8:	00068613          	mv	a2,a3
    20cc:	00078513          	mv	a0,a5
    20d0:	fe5ff06f          	j	20b4 <T10_end+0x24>
    20d4:	00020737          	lui	a4,0x20
    20d8:	000207b7          	lui	a5,0x20
    20dc:	0e078793          	addi	a5,a5,224 # 200e0 <next.10>
    20e0:	20f54533          	sh2add	a0,a0,a5
    20e4:	00052783          	lw	a5,0(a0)
    20e8:	17c70713          	addi	a4,a4,380 # 2017c <jump_table.21>
    20ec:	20e7c7b3          	sh2add	a5,a5,a4
    20f0:	0007a783          	lw	a5,0(a5)
    20f4:	aa1fe06f          	j	b94 <inferenceTPG+0x44>

000020f8 <T11_start>:
    20f8:	b0002773          	csrr	a4,mcycle
    20fc:	00492783          	lw	a5,4(s2)
    2100:	0044a683          	lw	a3,4(s1)
    2104:	0ad7e7b3          	max	a5,a5,a3
    2108:	06f12a23          	sw	a5,116(sp)
    210c:	0049a783          	lw	a5,4(s3)
    2110:	00092683          	lw	a3,0(s2)
    2114:	40d787b3          	sub	a5,a5,a3
    2118:	06f12c23          	sw	a5,120(sp)
    211c:	0089a783          	lw	a5,8(s3)
    2120:	0004a683          	lw	a3,0(s1)
    2124:	00d787b3          	add	a5,a5,a3
    2128:	06f12e23          	sw	a5,124(sp)

0000212c <T11_end>:
    212c:	b00027f3          	csrr	a5,mcycle
    2130:	40e787b3          	sub	a5,a5,a4
    2134:	02fa2623          	sw	a5,44(s4)
    2138:	07412683          	lw	a3,116(sp)
    213c:	07812703          	lw	a4,120(sp)
    2140:	00100793          	li	a5,1
    2144:	00d75663          	bge	a4,a3,2150 <T11_end+0x24>
    2148:	00068713          	mv	a4,a3
    214c:	00000793          	li	a5,0
    2150:	07c12683          	lw	a3,124(sp)
    2154:	00e6c463          	blt	a3,a4,215c <T11_end+0x30>
    2158:	00200793          	li	a5,2
    215c:	00020737          	lui	a4,0x20
    2160:	000206b7          	lui	a3,0x20
    2164:	0d468693          	addi	a3,a3,212 # 200d4 <next.9>
    2168:	20d7c7b3          	sh2add	a5,a5,a3
    216c:	0007a783          	lw	a5,0(a5)
    2170:	17c70713          	addi	a4,a4,380 # 2017c <jump_table.21>
    2174:	20e7c7b3          	sh2add	a5,a5,a4
    2178:	0007a783          	lw	a5,0(a5)
    217c:	a19fe06f          	j	b94 <inferenceTPG+0x44>

00002180 <T12_start>:
    2180:	b00026f3          	csrr	a3,mcycle
    2184:	0004a703          	lw	a4,0(s1)
    2188:	00492783          	lw	a5,4(s2)
    218c:	40e787b3          	sub	a5,a5,a4
    2190:	02f12023          	sw	a5,32(sp)
    2194:	0089a783          	lw	a5,8(s3)
    2198:	00e787b3          	add	a5,a5,a4
    219c:	02f12223          	sw	a5,36(sp)

000021a0 <T12_end>:
    21a0:	b00027f3          	csrr	a5,mcycle
    21a4:	40d787b3          	sub	a5,a5,a3
    21a8:	02fa2823          	sw	a5,48(s4)
    21ac:	00020737          	lui	a4,0x20
    21b0:	02012783          	lw	a5,32(sp)
    21b4:	02412603          	lw	a2,36(sp)
    21b8:	00f627b3          	slt	a5,a2,a5
    21bc:	0017b793          	seqz	a5,a5
    21c0:	94018693          	addi	a3,gp,-1728 # 210b8 <next.8>
    21c4:	20d7c7b3          	sh2add	a5,a5,a3
    21c8:	0007a783          	lw	a5,0(a5)
    21cc:	17c70713          	addi	a4,a4,380 # 2017c <jump_table.21>
    21d0:	20e7c7b3          	sh2add	a5,a5,a4
    21d4:	0007a783          	lw	a5,0(a5)
    21d8:	9bdfe06f          	j	b94 <inferenceTPG+0x44>

000021dc <T13_start>:
    21dc:	b00025f3          	csrr	a1,mcycle
    21e0:	0089a783          	lw	a5,8(s3)
    21e4:	0af12023          	sw	a5,160(sp)
    21e8:	008aa703          	lw	a4,8(s5)
    21ec:	41f75793          	srai	a5,a4,0x1f
    21f0:	00092603          	lw	a2,0(s2)
    21f4:	41f65693          	srai	a3,a2,0x1f
    21f8:	02c787b3          	mul	a5,a5,a2
    21fc:	02e686b3          	mul	a3,a3,a4
    2200:	00d787b3          	add	a5,a5,a3
    2204:	02c706b3          	mul	a3,a4,a2
    2208:	02c73733          	mulhu	a4,a4,a2
    220c:	00e787b3          	add	a5,a5,a4
    2210:	01079793          	slli	a5,a5,0x10
    2214:	0106d713          	srli	a4,a3,0x10
    2218:	00e78733          	add	a4,a5,a4
    221c:	0ae12223          	sw	a4,164(sp)
    2220:	0084a783          	lw	a5,8(s1)
    2224:	0044a703          	lw	a4,4(s1)
    2228:	40e787b3          	sub	a5,a5,a4
    222c:	0af12423          	sw	a5,168(sp)
    2230:	00892783          	lw	a5,8(s2)
    2234:	0a07e7b3          	max	a5,a5,zero
    2238:	0af12623          	sw	a5,172(sp)

0000223c <T13_end>:
    223c:	b00027f3          	csrr	a5,mcycle
    2240:	40b787b3          	sub	a5,a5,a1
    2244:	02fa2a23          	sw	a5,52(s4)
    2248:	0a012683          	lw	a3,160(sp)
    224c:	0a412703          	lw	a4,164(sp)
    2250:	00100793          	li	a5,1
    2254:	00d75663          	bge	a4,a3,2260 <T13_end+0x24>
    2258:	00068713          	mv	a4,a3
    225c:	00000793          	li	a5,0
    2260:	0a812683          	lw	a3,168(sp)
    2264:	02e6dc63          	bge	a3,a4,229c <T13_end+0x60>
    2268:	00070693          	mv	a3,a4
    226c:	0ac12703          	lw	a4,172(sp)
    2270:	00d74463          	blt	a4,a3,2278 <T13_end+0x3c>
    2274:	00300793          	li	a5,3
    2278:	00020737          	lui	a4,0x20
    227c:	000206b7          	lui	a3,0x20
    2280:	0c468693          	addi	a3,a3,196 # 200c4 <next.7>
    2284:	20d7c7b3          	sh2add	a5,a5,a3
    2288:	0007a783          	lw	a5,0(a5)
    228c:	17c70713          	addi	a4,a4,380 # 2017c <jump_table.21>
    2290:	20e7c7b3          	sh2add	a5,a5,a4
    2294:	0007a783          	lw	a5,0(a5)
    2298:	8fdfe06f          	j	b94 <inferenceTPG+0x44>
    229c:	00200793          	li	a5,2
    22a0:	fcdff06f          	j	226c <T13_end+0x30>
    22a4:	19812e23          	sw	s8,412(sp)
    22a8:	19912c23          	sw	s9,408(sp)
    22ac:	19a12a23          	sw	s10,404(sp)
    22b0:	19b12823          	sw	s11,400(sp)

000022b4 <T14_start>:
    22b4:	b00027f3          	csrr	a5,mcycle
    22b8:	00078d93          	mv	s11,a5
    22bc:	00492783          	lw	a5,4(s2)
    22c0:	00078c93          	mv	s9,a5
    22c4:	0044a783          	lw	a5,4(s1)
    22c8:	00078b93          	mv	s7,a5
    22cc:	0afce7b3          	max	a5,s9,a5
    22d0:	12f12c23          	sw	a5,312(sp)
    22d4:	00092783          	lw	a5,0(s2)
    22d8:	00078d13          	mv	s10,a5
    22dc:	0049a783          	lw	a5,4(s3)
    22e0:	41a787b3          	sub	a5,a5,s10
    22e4:	12f12e23          	sw	a5,316(sp)
    22e8:	0089a783          	lw	a5,8(s3)
    22ec:	00078c13          	mv	s8,a5
    22f0:	517cd737          	lui	a4,0x517cd
    22f4:	c8370713          	addi	a4,a4,-893 # 517ccc83 <_sp+0x517a3943>
    22f8:	02e79733          	mulh	a4,a5,a4
    22fc:	41175713          	srai	a4,a4,0x11
    2300:	41f7d793          	srai	a5,a5,0x1f
    2304:	40f70733          	sub	a4,a4,a5
    2308:	000657b7          	lui	a5,0x65
    230c:	87e78793          	addi	a5,a5,-1922 # 6487e <_sp+0x3b53e>
    2310:	02f707b3          	mul	a5,a4,a5
    2314:	40fc0733          	sub	a4,s8,a5
    2318:	5c074863          	bltz	a4,28e8 <T14_end+0x24>
    231c:	fffe77b7          	lui	a5,0xfffe7
    2320:	ddf78793          	addi	a5,a5,-545 # fffe6ddf <_sp+0xfffbda9f>
    2324:	00f707b3          	add	a5,a4,a5
    2328:	000196b7          	lui	a3,0x19
    232c:	21e68693          	addi	a3,a3,542 # 1921e <heap.cpp.6b15d6f6+0x7551>
    2330:	5cf6e463          	bltu	a3,a5,28f8 <T14_end+0x34>
    2334:	000327b7          	lui	a5,0x32
    2338:	43f78793          	addi	a5,a5,1087 # 3243f <_sp+0x90ff>
    233c:	40e78733          	sub	a4,a5,a4
    2340:	00100513          	li	a0,1
    2344:	000196b7          	lui	a3,0x19
    2348:	22068693          	addi	a3,a3,544 # 19220 <heap.cpp.6b15d6f6+0x7553>
    234c:	418686b3          	sub	a3,a3,s8
    2350:	517cd7b7          	lui	a5,0x517cd
    2354:	c8378793          	addi	a5,a5,-893 # 517ccc83 <_sp+0x517a3943>
    2358:	02f697b3          	mulh	a5,a3,a5
    235c:	4117d793          	srai	a5,a5,0x11
    2360:	41f6d613          	srai	a2,a3,0x1f
    2364:	40c787b3          	sub	a5,a5,a2
    2368:	00065637          	lui	a2,0x65
    236c:	87e60613          	addi	a2,a2,-1922 # 6487e <_sp+0x3b53e>
    2370:	02c787b3          	mul	a5,a5,a2
    2374:	40f687b3          	sub	a5,a3,a5
    2378:	5c07c863          	bltz	a5,2948 <T14_end+0x84>
    237c:	fffe76b7          	lui	a3,0xfffe7
    2380:	ddf68693          	addi	a3,a3,-545 # fffe6ddf <_sp+0xfffbda9f>
    2384:	00d786b3          	add	a3,a5,a3
    2388:	00019637          	lui	a2,0x19
    238c:	21e60613          	addi	a2,a2,542 # 1921e <heap.cpp.6b15d6f6+0x7551>
    2390:	5cd66063          	bltu	a2,a3,2950 <T14_end+0x8c>
    2394:	000326b7          	lui	a3,0x32
    2398:	43f68693          	addi	a3,a3,1087 # 3243f <_sp+0x90ff>
    239c:	40f687b3          	sub	a5,a3,a5
    23a0:	00100813          	li	a6,1
    23a4:	41f7d893          	srai	a7,a5,0x1f
    23a8:	02f886b3          	mul	a3,a7,a5
    23ac:	02f78333          	mul	t1,a5,a5
    23b0:	02f7b633          	mulhu	a2,a5,a5
    23b4:	20c6a6b3          	sh1add	a3,a3,a2
    23b8:	01069693          	slli	a3,a3,0x10
    23bc:	01035313          	srli	t1,t1,0x10
    23c0:	00668333          	add	t1,a3,t1
    23c4:	41f35e13          	srai	t3,t1,0x1f
    23c8:	1f300593          	li	a1,499
    23cc:	02be06b3          	mul	a3,t3,a1
    23d0:	02b30633          	mul	a2,t1,a1
    23d4:	02b335b3          	mulhu	a1,t1,a1
    23d8:	00b686b3          	add	a3,a3,a1
    23dc:	01069693          	slli	a3,a3,0x10
    23e0:	01065613          	srli	a2,a2,0x10
    23e4:	00c68633          	add	a2,a3,a2
    23e8:	ffffd6b7          	lui	a3,0xffffd
    23ec:	57e68693          	addi	a3,a3,1406 # ffffd57e <_sp+0xfffd423e>
    23f0:	00d60633          	add	a2,a2,a3
    23f4:	41f65593          	srai	a1,a2,0x1f
    23f8:	026585b3          	mul	a1,a1,t1
    23fc:	02ce0e33          	mul	t3,t3,a2
    2400:	01c585b3          	add	a1,a1,t3
    2404:	026606b3          	mul	a3,a2,t1
    2408:	02663633          	mulhu	a2,a2,t1
    240c:	00c58633          	add	a2,a1,a2
    2410:	01061613          	slli	a2,a2,0x10
    2414:	0106d693          	srli	a3,a3,0x10
    2418:	00d606b3          	add	a3,a2,a3
    241c:	00010637          	lui	a2,0x10
    2420:	00c686b3          	add	a3,a3,a2
    2424:	41f6d593          	srai	a1,a3,0x1f
    2428:	02f585b3          	mul	a1,a1,a5
    242c:	02d888b3          	mul	a7,a7,a3
    2430:	011585b3          	add	a1,a1,a7
    2434:	02f68633          	mul	a2,a3,a5
    2438:	02f6b6b3          	mulhu	a3,a3,a5
    243c:	00d587b3          	add	a5,a1,a3
    2440:	01079793          	slli	a5,a5,0x10
    2444:	01065613          	srli	a2,a2,0x10
    2448:	00c78633          	add	a2,a5,a2
    244c:	02c80633          	mul	a2,a6,a2
    2450:	0c060863          	beqz	a2,2520 <T14_start+0x26c>
    2454:	41f75813          	srai	a6,a4,0x1f
    2458:	02e807b3          	mul	a5,a6,a4
    245c:	02e705b3          	mul	a1,a4,a4
    2460:	02e736b3          	mulhu	a3,a4,a4
    2464:	20d7a7b3          	sh1add	a5,a5,a3
    2468:	01079793          	slli	a5,a5,0x10
    246c:	0105d593          	srli	a1,a1,0x10
    2470:	00b785b3          	add	a1,a5,a1
    2474:	41f5d313          	srai	t1,a1,0x1f
    2478:	1f300893          	li	a7,499
    247c:	031307b3          	mul	a5,t1,a7
    2480:	031586b3          	mul	a3,a1,a7
    2484:	0315b8b3          	mulhu	a7,a1,a7
    2488:	011787b3          	add	a5,a5,a7
    248c:	01079793          	slli	a5,a5,0x10
    2490:	0106d693          	srli	a3,a3,0x10
    2494:	00d786b3          	add	a3,a5,a3
    2498:	ffffd7b7          	lui	a5,0xffffd
    249c:	57e78793          	addi	a5,a5,1406 # ffffd57e <_sp+0xfffd423e>
    24a0:	00f686b3          	add	a3,a3,a5
    24a4:	41f6d893          	srai	a7,a3,0x1f
    24a8:	02b888b3          	mul	a7,a7,a1
    24ac:	02d30333          	mul	t1,t1,a3
    24b0:	006888b3          	add	a7,a7,t1
    24b4:	02b687b3          	mul	a5,a3,a1
    24b8:	02b6b6b3          	mulhu	a3,a3,a1
    24bc:	00d886b3          	add	a3,a7,a3
    24c0:	01069693          	slli	a3,a3,0x10
    24c4:	0107d793          	srli	a5,a5,0x10
    24c8:	00f687b3          	add	a5,a3,a5
    24cc:	000106b7          	lui	a3,0x10
    24d0:	00d787b3          	add	a5,a5,a3
    24d4:	41f7d693          	srai	a3,a5,0x1f
    24d8:	02e686b3          	mul	a3,a3,a4
    24dc:	02f80833          	mul	a6,a6,a5
    24e0:	010686b3          	add	a3,a3,a6
    24e4:	02e785b3          	mul	a1,a5,a4
    24e8:	02e7b7b3          	mulhu	a5,a5,a4
    24ec:	00f687b3          	add	a5,a3,a5
    24f0:	01079793          	slli	a5,a5,0x10
    24f4:	0105d713          	srli	a4,a1,0x10
    24f8:	00e78733          	add	a4,a5,a4
    24fc:	02e50533          	mul	a0,a0,a4
    2500:	41f55793          	srai	a5,a0,0x1f
    2504:	01055593          	srli	a1,a0,0x10
    2508:	01079793          	slli	a5,a5,0x10
    250c:	41f65693          	srai	a3,a2,0x1f
    2510:	01051513          	slli	a0,a0,0x10
    2514:	00f585b3          	add	a1,a1,a5
    2518:	1a1060ef          	jal	8eb8 <__divdi3>
    251c:	00050613          	mv	a2,a0
    2520:	14c12023          	sw	a2,320(sp)
    2524:	0004a703          	lw	a4,0(s1)
    2528:	41f75793          	srai	a5,a4,0x1f
    252c:	41fcd693          	srai	a3,s9,0x1f
    2530:	039787b3          	mul	a5,a5,s9
    2534:	02e686b3          	mul	a3,a3,a4
    2538:	00d787b3          	add	a5,a5,a3
    253c:	039706b3          	mul	a3,a4,s9
    2540:	03973733          	mulhu	a4,a4,s9
    2544:	00e787b3          	add	a5,a5,a4
    2548:	01079793          	slli	a5,a5,0x10
    254c:	0106d693          	srli	a3,a3,0x10
    2550:	00d786b3          	add	a3,a5,a3
    2554:	00019737          	lui	a4,0x19
    2558:	22070713          	addi	a4,a4,544 # 19220 <heap.cpp.6b15d6f6+0x7553>
    255c:	40d70733          	sub	a4,a4,a3
    2560:	517cd7b7          	lui	a5,0x517cd
    2564:	c8378793          	addi	a5,a5,-893 # 517ccc83 <_sp+0x517a3943>
    2568:	02f717b3          	mulh	a5,a4,a5
    256c:	4117d793          	srai	a5,a5,0x11
    2570:	41f75693          	srai	a3,a4,0x1f
    2574:	40d787b3          	sub	a5,a5,a3
    2578:	000656b7          	lui	a3,0x65
    257c:	87e68693          	addi	a3,a3,-1922 # 6487e <_sp+0x3b53e>
    2580:	02d787b3          	mul	a5,a5,a3
    2584:	40f707b3          	sub	a5,a4,a5
    2588:	4007cc63          	bltz	a5,29a0 <T14_end+0xdc>
    258c:	fffe7737          	lui	a4,0xfffe7
    2590:	ddf70713          	addi	a4,a4,-545 # fffe6ddf <_sp+0xfffbda9f>
    2594:	00e78733          	add	a4,a5,a4
    2598:	000196b7          	lui	a3,0x19
    259c:	21e68693          	addi	a3,a3,542 # 1921e <heap.cpp.6b15d6f6+0x7551>
    25a0:	40e6e463          	bltu	a3,a4,29a8 <T14_end+0xe4>
    25a4:	00032737          	lui	a4,0x32
    25a8:	43f70713          	addi	a4,a4,1087 # 3243f <_sp+0x90ff>
    25ac:	40f707b3          	sub	a5,a4,a5
    25b0:	00100613          	li	a2,1
    25b4:	41f7d513          	srai	a0,a5,0x1f
    25b8:	02f50733          	mul	a4,a0,a5
    25bc:	02f78833          	mul	a6,a5,a5
    25c0:	02f7b6b3          	mulhu	a3,a5,a5
    25c4:	20d72733          	sh1add	a4,a4,a3
    25c8:	01071713          	slli	a4,a4,0x10
    25cc:	01085813          	srli	a6,a6,0x10
    25d0:	01070833          	add	a6,a4,a6
    25d4:	41f85893          	srai	a7,a6,0x1f
    25d8:	1f300593          	li	a1,499
    25dc:	02b88733          	mul	a4,a7,a1
    25e0:	02b806b3          	mul	a3,a6,a1
    25e4:	02b835b3          	mulhu	a1,a6,a1
    25e8:	00b70733          	add	a4,a4,a1
    25ec:	01071713          	slli	a4,a4,0x10
    25f0:	0106d693          	srli	a3,a3,0x10
    25f4:	00d706b3          	add	a3,a4,a3
    25f8:	ffffd737          	lui	a4,0xffffd
    25fc:	57e70713          	addi	a4,a4,1406 # ffffd57e <_sp+0xfffd423e>
    2600:	00e686b3          	add	a3,a3,a4
    2604:	41f6d593          	srai	a1,a3,0x1f
    2608:	030585b3          	mul	a1,a1,a6
    260c:	02d888b3          	mul	a7,a7,a3
    2610:	011585b3          	add	a1,a1,a7
    2614:	03068733          	mul	a4,a3,a6
    2618:	0306b6b3          	mulhu	a3,a3,a6
    261c:	00d586b3          	add	a3,a1,a3
    2620:	01069693          	slli	a3,a3,0x10
    2624:	01075713          	srli	a4,a4,0x10
    2628:	00e68733          	add	a4,a3,a4
    262c:	000106b7          	lui	a3,0x10
    2630:	00d70733          	add	a4,a4,a3
    2634:	41f75693          	srai	a3,a4,0x1f
    2638:	02f686b3          	mul	a3,a3,a5
    263c:	02e50533          	mul	a0,a0,a4
    2640:	00a686b3          	add	a3,a3,a0
    2644:	02f705b3          	mul	a1,a4,a5
    2648:	02f73733          	mulhu	a4,a4,a5
    264c:	00e687b3          	add	a5,a3,a4
    2650:	01079793          	slli	a5,a5,0x10
    2654:	0105d713          	srli	a4,a1,0x10
    2658:	00e78733          	add	a4,a5,a4
    265c:	02e60633          	mul	a2,a2,a4
    2660:	14c12223          	sw	a2,324(sp)
    2664:	000aa783          	lw	a5,0(s5)
    2668:	40fc07b3          	sub	a5,s8,a5
    266c:	14f12423          	sw	a5,328(sp)
    2670:	417007b3          	neg	a5,s7
    2674:	14f12623          	sw	a5,332(sp)
    2678:	0084a783          	lw	a5,8(s1)
    267c:	14f12823          	sw	a5,336(sp)
    2680:	0009a783          	lw	a5,0(s3)
    2684:	00fd07b3          	add	a5,s10,a5
    2688:	017787b3          	add	a5,a5,s7
    268c:	14f12a23          	sw	a5,340(sp)
    2690:	517cd7b7          	lui	a5,0x517cd
    2694:	c8378793          	addi	a5,a5,-893 # 517ccc83 <_sp+0x517a3943>
    2698:	02fb97b3          	mulh	a5,s7,a5
    269c:	4117d793          	srai	a5,a5,0x11
    26a0:	41fbd713          	srai	a4,s7,0x1f
    26a4:	40e787b3          	sub	a5,a5,a4
    26a8:	00065737          	lui	a4,0x65
    26ac:	87e70713          	addi	a4,a4,-1922 # 6487e <_sp+0x3b53e>
    26b0:	02e787b3          	mul	a5,a5,a4
    26b4:	40fb87b3          	sub	a5,s7,a5
    26b8:	3407c063          	bltz	a5,29f8 <T14_end+0x134>
    26bc:	fffe7737          	lui	a4,0xfffe7
    26c0:	ddf70713          	addi	a4,a4,-545 # fffe6ddf <_sp+0xfffbda9f>
    26c4:	00e78733          	add	a4,a5,a4
    26c8:	000196b7          	lui	a3,0x19
    26cc:	21e68693          	addi	a3,a3,542 # 1921e <heap.cpp.6b15d6f6+0x7551>
    26d0:	32e6ec63          	bltu	a3,a4,2a08 <T14_end+0x144>
    26d4:	00032737          	lui	a4,0x32
    26d8:	43f70713          	addi	a4,a4,1087 # 3243f <_sp+0x90ff>
    26dc:	40f707b3          	sub	a5,a4,a5
    26e0:	00100513          	li	a0,1
    26e4:	00019737          	lui	a4,0x19
    26e8:	22070713          	addi	a4,a4,544 # 19220 <heap.cpp.6b15d6f6+0x7553>
    26ec:	41770733          	sub	a4,a4,s7
    26f0:	517cd837          	lui	a6,0x517cd
    26f4:	c8380813          	addi	a6,a6,-893 # 517ccc83 <_sp+0x517a3943>
    26f8:	03071833          	mulh	a6,a4,a6
    26fc:	41185813          	srai	a6,a6,0x11
    2700:	41f75693          	srai	a3,a4,0x1f
    2704:	40d80833          	sub	a6,a6,a3
    2708:	000656b7          	lui	a3,0x65
    270c:	87e68693          	addi	a3,a3,-1922 # 6487e <_sp+0x3b53e>
    2710:	02d806b3          	mul	a3,a6,a3
    2714:	40d70833          	sub	a6,a4,a3
    2718:	34084063          	bltz	a6,2a58 <T14_end+0x194>
    271c:	fffe7737          	lui	a4,0xfffe7
    2720:	ddf70713          	addi	a4,a4,-545 # fffe6ddf <_sp+0xfffbda9f>
    2724:	00e80733          	add	a4,a6,a4
    2728:	000196b7          	lui	a3,0x19
    272c:	21e68693          	addi	a3,a3,542 # 1921e <heap.cpp.6b15d6f6+0x7551>
    2730:	32e6ec63          	bltu	a3,a4,2a68 <T14_end+0x1a4>
    2734:	00032737          	lui	a4,0x32
    2738:	43f70713          	addi	a4,a4,1087 # 3243f <_sp+0x90ff>
    273c:	41070833          	sub	a6,a4,a6
    2740:	00100593          	li	a1,1
    2744:	41f85893          	srai	a7,a6,0x1f
    2748:	03088733          	mul	a4,a7,a6
    274c:	03080333          	mul	t1,a6,a6
    2750:	030836b3          	mulhu	a3,a6,a6
    2754:	20d72733          	sh1add	a4,a4,a3
    2758:	01071713          	slli	a4,a4,0x10
    275c:	01035313          	srli	t1,t1,0x10
    2760:	00670333          	add	t1,a4,t1
    2764:	41f35e13          	srai	t3,t1,0x1f
    2768:	1f300613          	li	a2,499
    276c:	02ce0733          	mul	a4,t3,a2
    2770:	02c306b3          	mul	a3,t1,a2
    2774:	02c33633          	mulhu	a2,t1,a2
    2778:	00c70733          	add	a4,a4,a2
    277c:	01071713          	slli	a4,a4,0x10
    2780:	0106d693          	srli	a3,a3,0x10
    2784:	00d706b3          	add	a3,a4,a3
    2788:	ffffd737          	lui	a4,0xffffd
    278c:	57e70713          	addi	a4,a4,1406 # ffffd57e <_sp+0xfffd423e>
    2790:	00e686b3          	add	a3,a3,a4
    2794:	41f6d613          	srai	a2,a3,0x1f
    2798:	02660633          	mul	a2,a2,t1
    279c:	02de0e33          	mul	t3,t3,a3
    27a0:	01c60633          	add	a2,a2,t3
    27a4:	02668733          	mul	a4,a3,t1
    27a8:	0266b6b3          	mulhu	a3,a3,t1
    27ac:	00d606b3          	add	a3,a2,a3
    27b0:	01069693          	slli	a3,a3,0x10
    27b4:	01075713          	srli	a4,a4,0x10
    27b8:	00e68733          	add	a4,a3,a4
    27bc:	000106b7          	lui	a3,0x10
    27c0:	00d70733          	add	a4,a4,a3
    27c4:	41f75693          	srai	a3,a4,0x1f
    27c8:	030686b3          	mul	a3,a3,a6
    27cc:	02e888b3          	mul	a7,a7,a4
    27d0:	011686b3          	add	a3,a3,a7
    27d4:	03070633          	mul	a2,a4,a6
    27d8:	03073733          	mulhu	a4,a4,a6
    27dc:	00e68733          	add	a4,a3,a4
    27e0:	01071713          	slli	a4,a4,0x10
    27e4:	01065613          	srli	a2,a2,0x10
    27e8:	00c70633          	add	a2,a4,a2
    27ec:	02c58633          	mul	a2,a1,a2
    27f0:	0c060863          	beqz	a2,28c0 <T14_start+0x60c>
    27f4:	41f7d893          	srai	a7,a5,0x1f
    27f8:	02f88733          	mul	a4,a7,a5
    27fc:	02f785b3          	mul	a1,a5,a5
    2800:	02f7b6b3          	mulhu	a3,a5,a5
    2804:	20d72733          	sh1add	a4,a4,a3
    2808:	01071713          	slli	a4,a4,0x10
    280c:	0105d593          	srli	a1,a1,0x10
    2810:	00b705b3          	add	a1,a4,a1
    2814:	41f5d313          	srai	t1,a1,0x1f
    2818:	1f300813          	li	a6,499
    281c:	03030733          	mul	a4,t1,a6
    2820:	030586b3          	mul	a3,a1,a6
    2824:	0305b833          	mulhu	a6,a1,a6
    2828:	01070733          	add	a4,a4,a6
    282c:	01071713          	slli	a4,a4,0x10
    2830:	0106d693          	srli	a3,a3,0x10
    2834:	00d706b3          	add	a3,a4,a3
    2838:	ffffd737          	lui	a4,0xffffd
    283c:	57e70713          	addi	a4,a4,1406 # ffffd57e <_sp+0xfffd423e>
    2840:	00e686b3          	add	a3,a3,a4
    2844:	41f6d813          	srai	a6,a3,0x1f
    2848:	02b80833          	mul	a6,a6,a1
    284c:	02d30333          	mul	t1,t1,a3
    2850:	00680833          	add	a6,a6,t1
    2854:	02b68733          	mul	a4,a3,a1
    2858:	02b6b6b3          	mulhu	a3,a3,a1
    285c:	00d806b3          	add	a3,a6,a3
    2860:	01069693          	slli	a3,a3,0x10
    2864:	01075713          	srli	a4,a4,0x10
    2868:	00e68733          	add	a4,a3,a4
    286c:	000106b7          	lui	a3,0x10
    2870:	00d70733          	add	a4,a4,a3
    2874:	41f75693          	srai	a3,a4,0x1f
    2878:	02f686b3          	mul	a3,a3,a5
    287c:	02e888b3          	mul	a7,a7,a4
    2880:	011686b3          	add	a3,a3,a7
    2884:	02f705b3          	mul	a1,a4,a5
    2888:	02f73733          	mulhu	a4,a4,a5
    288c:	00e687b3          	add	a5,a3,a4
    2890:	01079793          	slli	a5,a5,0x10
    2894:	0105d713          	srli	a4,a1,0x10
    2898:	00e78733          	add	a4,a5,a4
    289c:	02e50533          	mul	a0,a0,a4
    28a0:	41f55793          	srai	a5,a0,0x1f
    28a4:	01055593          	srli	a1,a0,0x10
    28a8:	01079793          	slli	a5,a5,0x10
    28ac:	41f65693          	srai	a3,a2,0x1f
    28b0:	01051513          	slli	a0,a0,0x10
    28b4:	00f585b3          	add	a1,a1,a5
    28b8:	600060ef          	jal	8eb8 <__divdi3>
    28bc:	00050613          	mv	a2,a0
    28c0:	14c12c23          	sw	a2,344(sp)

000028c4 <T14_end>:
    28c4:	b00027f3          	csrr	a5,mcycle
    28c8:	41b787b3          	sub	a5,a5,s11
    28cc:	02fa2c23          	sw	a5,56(s4)
    28d0:	13812603          	lw	a2,312(sp)
    28d4:	13810713          	addi	a4,sp,312
    28d8:	00000513          	li	a0,0
    28dc:	00100793          	li	a5,1
    28e0:	00900593          	li	a1,9
    28e4:	1e00006f          	j	2ac4 <T14_end+0x200>
    28e8:	000657b7          	lui	a5,0x65
    28ec:	87e78793          	addi	a5,a5,-1922 # 6487e <_sp+0x3b53e>
    28f0:	00f70733          	add	a4,a4,a5
    28f4:	a29ff06f          	j	231c <T14_start+0x68>
    28f8:	fffce7b7          	lui	a5,0xfffce
    28fc:	bc078793          	addi	a5,a5,-1088 # fffcdbc0 <_sp+0xfffa4880>
    2900:	00f707b3          	add	a5,a4,a5
    2904:	000196b7          	lui	a3,0x19
    2908:	21f68693          	addi	a3,a3,543 # 1921f <heap.cpp.6b15d6f6+0x7552>
    290c:	00f6ec63          	bltu	a3,a5,2924 <T14_end+0x60>
    2910:	fffce7b7          	lui	a5,0xfffce
    2914:	bc178793          	addi	a5,a5,-1087 # fffcdbc1 <_sp+0xfffa4881>
    2918:	00f70733          	add	a4,a4,a5
    291c:	fff00513          	li	a0,-1
    2920:	a25ff06f          	j	2344 <T14_start+0x90>
    2924:	0004b7b7          	lui	a5,0x4b
    2928:	65f78793          	addi	a5,a5,1631 # 4b65f <_sp+0x2231f>
    292c:	00100513          	li	a0,1
    2930:	a0e7dae3          	bge	a5,a4,2344 <T14_start+0x90>
    2934:	000657b7          	lui	a5,0x65
    2938:	87e78793          	addi	a5,a5,-1922 # 6487e <_sp+0x3b53e>
    293c:	40e78733          	sub	a4,a5,a4
    2940:	fff00513          	li	a0,-1
    2944:	a01ff06f          	j	2344 <T14_start+0x90>
    2948:	00c787b3          	add	a5,a5,a2
    294c:	a31ff06f          	j	237c <T14_start+0xc8>
    2950:	fffce6b7          	lui	a3,0xfffce
    2954:	bc068693          	addi	a3,a3,-1088 # fffcdbc0 <_sp+0xfffa4880>
    2958:	00d786b3          	add	a3,a5,a3
    295c:	00019637          	lui	a2,0x19
    2960:	21f60613          	addi	a2,a2,543 # 1921f <heap.cpp.6b15d6f6+0x7552>
    2964:	00d66c63          	bltu	a2,a3,297c <T14_end+0xb8>
    2968:	fffce6b7          	lui	a3,0xfffce
    296c:	bc168693          	addi	a3,a3,-1087 # fffcdbc1 <_sp+0xfffa4881>
    2970:	00d787b3          	add	a5,a5,a3
    2974:	fff00813          	li	a6,-1
    2978:	a2dff06f          	j	23a4 <T14_start+0xf0>
    297c:	0004b6b7          	lui	a3,0x4b
    2980:	65f68693          	addi	a3,a3,1631 # 4b65f <_sp+0x2231f>
    2984:	00100813          	li	a6,1
    2988:	a0f6dee3          	bge	a3,a5,23a4 <T14_start+0xf0>
    298c:	000656b7          	lui	a3,0x65
    2990:	87e68693          	addi	a3,a3,-1922 # 6487e <_sp+0x3b53e>
    2994:	40f687b3          	sub	a5,a3,a5
    2998:	fff00813          	li	a6,-1
    299c:	a09ff06f          	j	23a4 <T14_start+0xf0>
    29a0:	00d787b3          	add	a5,a5,a3
    29a4:	be9ff06f          	j	258c <T14_start+0x2d8>
    29a8:	fffce737          	lui	a4,0xfffce
    29ac:	bc070713          	addi	a4,a4,-1088 # fffcdbc0 <_sp+0xfffa4880>
    29b0:	00e78733          	add	a4,a5,a4
    29b4:	000196b7          	lui	a3,0x19
    29b8:	21f68693          	addi	a3,a3,543 # 1921f <heap.cpp.6b15d6f6+0x7552>
    29bc:	00e6ec63          	bltu	a3,a4,29d4 <T14_end+0x110>
    29c0:	fffce737          	lui	a4,0xfffce
    29c4:	bc170713          	addi	a4,a4,-1087 # fffcdbc1 <_sp+0xfffa4881>
    29c8:	00e787b3          	add	a5,a5,a4
    29cc:	fff00613          	li	a2,-1
    29d0:	be5ff06f          	j	25b4 <T14_start+0x300>
    29d4:	0004b737          	lui	a4,0x4b
    29d8:	65f70713          	addi	a4,a4,1631 # 4b65f <_sp+0x2231f>
    29dc:	00100613          	li	a2,1
    29e0:	bcf75ae3          	bge	a4,a5,25b4 <T14_start+0x300>
    29e4:	00065737          	lui	a4,0x65
    29e8:	87e70713          	addi	a4,a4,-1922 # 6487e <_sp+0x3b53e>
    29ec:	40f707b3          	sub	a5,a4,a5
    29f0:	fff00613          	li	a2,-1
    29f4:	bc1ff06f          	j	25b4 <T14_start+0x300>
    29f8:	00065737          	lui	a4,0x65
    29fc:	87e70713          	addi	a4,a4,-1922 # 6487e <_sp+0x3b53e>
    2a00:	00e787b3          	add	a5,a5,a4
    2a04:	cb9ff06f          	j	26bc <T14_start+0x408>
    2a08:	fffce737          	lui	a4,0xfffce
    2a0c:	bc070713          	addi	a4,a4,-1088 # fffcdbc0 <_sp+0xfffa4880>
    2a10:	00e78733          	add	a4,a5,a4
    2a14:	000196b7          	lui	a3,0x19
    2a18:	21f68693          	addi	a3,a3,543 # 1921f <heap.cpp.6b15d6f6+0x7552>
    2a1c:	00e6ec63          	bltu	a3,a4,2a34 <T14_end+0x170>
    2a20:	fffce737          	lui	a4,0xfffce
    2a24:	bc170713          	addi	a4,a4,-1087 # fffcdbc1 <_sp+0xfffa4881>
    2a28:	00e787b3          	add	a5,a5,a4
    2a2c:	fff00513          	li	a0,-1
    2a30:	cb5ff06f          	j	26e4 <T14_start+0x430>
    2a34:	0004b737          	lui	a4,0x4b
    2a38:	65f70713          	addi	a4,a4,1631 # 4b65f <_sp+0x2231f>
    2a3c:	00100513          	li	a0,1
    2a40:	caf752e3          	bge	a4,a5,26e4 <T14_start+0x430>
    2a44:	00065737          	lui	a4,0x65
    2a48:	87e70713          	addi	a4,a4,-1922 # 6487e <_sp+0x3b53e>
    2a4c:	40f707b3          	sub	a5,a4,a5
    2a50:	fff00513          	li	a0,-1
    2a54:	c91ff06f          	j	26e4 <T14_start+0x430>
    2a58:	00065737          	lui	a4,0x65
    2a5c:	87e70713          	addi	a4,a4,-1922 # 6487e <_sp+0x3b53e>
    2a60:	00e80833          	add	a6,a6,a4
    2a64:	cb9ff06f          	j	271c <T14_start+0x468>
    2a68:	fffce737          	lui	a4,0xfffce
    2a6c:	bc070713          	addi	a4,a4,-1088 # fffcdbc0 <_sp+0xfffa4880>
    2a70:	00e80733          	add	a4,a6,a4
    2a74:	000196b7          	lui	a3,0x19
    2a78:	21f68693          	addi	a3,a3,543 # 1921f <heap.cpp.6b15d6f6+0x7552>
    2a7c:	00e6ec63          	bltu	a3,a4,2a94 <T14_end+0x1d0>
    2a80:	fffce737          	lui	a4,0xfffce
    2a84:	bc170713          	addi	a4,a4,-1087 # fffcdbc1 <_sp+0xfffa4881>
    2a88:	00e80833          	add	a6,a6,a4
    2a8c:	fff00593          	li	a1,-1
    2a90:	cb5ff06f          	j	2744 <T14_start+0x490>
    2a94:	0004b737          	lui	a4,0x4b
    2a98:	65f70713          	addi	a4,a4,1631 # 4b65f <_sp+0x2231f>
    2a9c:	00100593          	li	a1,1
    2aa0:	cb0752e3          	bge	a4,a6,2744 <T14_start+0x490>
    2aa4:	00065737          	lui	a4,0x65
    2aa8:	87e70713          	addi	a4,a4,-1922 # 6487e <_sp+0x3b53e>
    2aac:	41070833          	sub	a6,a4,a6
    2ab0:	fff00593          	li	a1,-1
    2ab4:	c91ff06f          	j	2744 <T14_start+0x490>
    2ab8:	00178793          	addi	a5,a5,1
    2abc:	00470713          	addi	a4,a4,4
    2ac0:	00b78c63          	beq	a5,a1,2ad8 <T14_end+0x214>
    2ac4:	00472683          	lw	a3,4(a4)
    2ac8:	fec6c8e3          	blt	a3,a2,2ab8 <T14_end+0x1f4>
    2acc:	00068613          	mv	a2,a3
    2ad0:	00078513          	mv	a0,a5
    2ad4:	fe5ff06f          	j	2ab8 <T14_end+0x1f4>
    2ad8:	00020737          	lui	a4,0x20
    2adc:	000207b7          	lui	a5,0x20
    2ae0:	0a078793          	addi	a5,a5,160 # 200a0 <next.6>
    2ae4:	20f54533          	sh2add	a0,a0,a5
    2ae8:	00052783          	lw	a5,0(a0)
    2aec:	17c70713          	addi	a4,a4,380 # 2017c <jump_table.21>
    2af0:	20e7c7b3          	sh2add	a5,a5,a4
    2af4:	0007a783          	lw	a5,0(a5)
    2af8:	19c12c03          	lw	s8,412(sp)
    2afc:	19812c83          	lw	s9,408(sp)
    2b00:	19412d03          	lw	s10,404(sp)
    2b04:	19012d83          	lw	s11,400(sp)
    2b08:	88cfe06f          	j	b94 <inferenceTPG+0x44>

00002b0c <T15_start>:
    2b0c:	b0002873          	csrr	a6,mcycle
    2b10:	0009a783          	lw	a5,0(s3)
    2b14:	00092703          	lw	a4,0(s2)
    2b18:	00e787b3          	add	a5,a5,a4
    2b1c:	02f12423          	sw	a5,40(sp)
    2b20:	0004a683          	lw	a3,0(s1)
    2b24:	517cd7b7          	lui	a5,0x517cd
    2b28:	c8378793          	addi	a5,a5,-893 # 517ccc83 <_sp+0x517a3943>
    2b2c:	02f697b3          	mulh	a5,a3,a5
    2b30:	4117d793          	srai	a5,a5,0x11
    2b34:	41f6d713          	srai	a4,a3,0x1f
    2b38:	40e787b3          	sub	a5,a5,a4
    2b3c:	00065737          	lui	a4,0x65
    2b40:	87e70713          	addi	a4,a4,-1922 # 6487e <_sp+0x3b53e>
    2b44:	02e787b3          	mul	a5,a5,a4
    2b48:	40f687b3          	sub	a5,a3,a5
    2b4c:	1207c063          	bltz	a5,2c6c <T15_end+0x3c>
    2b50:	fffe7737          	lui	a4,0xfffe7
    2b54:	ddf70713          	addi	a4,a4,-545 # fffe6ddf <_sp+0xfffbda9f>
    2b58:	00e78733          	add	a4,a5,a4
    2b5c:	000196b7          	lui	a3,0x19
    2b60:	21e68693          	addi	a3,a3,542 # 1921e <heap.cpp.6b15d6f6+0x7551>
    2b64:	10e6ec63          	bltu	a3,a4,2c7c <T15_end+0x4c>
    2b68:	00032737          	lui	a4,0x32
    2b6c:	43f70713          	addi	a4,a4,1087 # 3243f <_sp+0x90ff>
    2b70:	40f707b3          	sub	a5,a4,a5
    2b74:	00100513          	li	a0,1
    2b78:	41f7d893          	srai	a7,a5,0x1f
    2b7c:	02f88733          	mul	a4,a7,a5
    2b80:	02f78633          	mul	a2,a5,a5
    2b84:	02f7b6b3          	mulhu	a3,a5,a5
    2b88:	20d72733          	sh1add	a4,a4,a3
    2b8c:	01071713          	slli	a4,a4,0x10
    2b90:	01065613          	srli	a2,a2,0x10
    2b94:	00c70633          	add	a2,a4,a2
    2b98:	41f65313          	srai	t1,a2,0x1f
    2b9c:	1f300593          	li	a1,499
    2ba0:	02b30733          	mul	a4,t1,a1
    2ba4:	02b606b3          	mul	a3,a2,a1
    2ba8:	02b635b3          	mulhu	a1,a2,a1
    2bac:	00b70733          	add	a4,a4,a1
    2bb0:	01071713          	slli	a4,a4,0x10
    2bb4:	0106d693          	srli	a3,a3,0x10
    2bb8:	00d706b3          	add	a3,a4,a3
    2bbc:	ffffd737          	lui	a4,0xffffd
    2bc0:	57e70713          	addi	a4,a4,1406 # ffffd57e <_sp+0xfffd423e>
    2bc4:	00e686b3          	add	a3,a3,a4
    2bc8:	41f6d593          	srai	a1,a3,0x1f
    2bcc:	02c585b3          	mul	a1,a1,a2
    2bd0:	02d30333          	mul	t1,t1,a3
    2bd4:	006585b3          	add	a1,a1,t1
    2bd8:	02c68733          	mul	a4,a3,a2
    2bdc:	02c6b6b3          	mulhu	a3,a3,a2
    2be0:	00d586b3          	add	a3,a1,a3
    2be4:	01069693          	slli	a3,a3,0x10
    2be8:	01075713          	srli	a4,a4,0x10
    2bec:	00e68733          	add	a4,a3,a4
    2bf0:	000106b7          	lui	a3,0x10
    2bf4:	00d70733          	add	a4,a4,a3
    2bf8:	41f75693          	srai	a3,a4,0x1f
    2bfc:	02f686b3          	mul	a3,a3,a5
    2c00:	02e888b3          	mul	a7,a7,a4
    2c04:	011686b3          	add	a3,a3,a7
    2c08:	02f70633          	mul	a2,a4,a5
    2c0c:	02f73733          	mulhu	a4,a4,a5
    2c10:	00e687b3          	add	a5,a3,a4
    2c14:	01079793          	slli	a5,a5,0x10
    2c18:	01065713          	srli	a4,a2,0x10
    2c1c:	00e78733          	add	a4,a5,a4
    2c20:	02e50533          	mul	a0,a0,a4
    2c24:	0049a783          	lw	a5,4(s3)
    2c28:	40f50533          	sub	a0,a0,a5
    2c2c:	02a12623          	sw	a0,44(sp)

00002c30 <T15_end>:
    2c30:	b00027f3          	csrr	a5,mcycle
    2c34:	410787b3          	sub	a5,a5,a6
    2c38:	02fa2e23          	sw	a5,60(s4)
    2c3c:	00020737          	lui	a4,0x20
    2c40:	02812783          	lw	a5,40(sp)
    2c44:	02c12603          	lw	a2,44(sp)
    2c48:	00f627b3          	slt	a5,a2,a5
    2c4c:	0017b793          	seqz	a5,a5
    2c50:	93818693          	addi	a3,gp,-1736 # 210b0 <next.5>
    2c54:	20d7c7b3          	sh2add	a5,a5,a3
    2c58:	0007a783          	lw	a5,0(a5)
    2c5c:	17c70713          	addi	a4,a4,380 # 2017c <jump_table.21>
    2c60:	20e7c7b3          	sh2add	a5,a5,a4
    2c64:	0007a783          	lw	a5,0(a5)
    2c68:	f2dfd06f          	j	b94 <inferenceTPG+0x44>
    2c6c:	00065737          	lui	a4,0x65
    2c70:	87e70713          	addi	a4,a4,-1922 # 6487e <_sp+0x3b53e>
    2c74:	00e787b3          	add	a5,a5,a4
    2c78:	ed9ff06f          	j	2b50 <T15_start+0x44>
    2c7c:	fffce737          	lui	a4,0xfffce
    2c80:	bc070713          	addi	a4,a4,-1088 # fffcdbc0 <_sp+0xfffa4880>
    2c84:	00e78733          	add	a4,a5,a4
    2c88:	000196b7          	lui	a3,0x19
    2c8c:	21f68693          	addi	a3,a3,543 # 1921f <heap.cpp.6b15d6f6+0x7552>
    2c90:	00e6ec63          	bltu	a3,a4,2ca8 <T15_end+0x78>
    2c94:	fffce737          	lui	a4,0xfffce
    2c98:	bc170713          	addi	a4,a4,-1087 # fffcdbc1 <_sp+0xfffa4881>
    2c9c:	00e787b3          	add	a5,a5,a4
    2ca0:	fff00513          	li	a0,-1
    2ca4:	ed5ff06f          	j	2b78 <T15_start+0x6c>
    2ca8:	0004b737          	lui	a4,0x4b
    2cac:	65f70713          	addi	a4,a4,1631 # 4b65f <_sp+0x2231f>
    2cb0:	00100513          	li	a0,1
    2cb4:	ecf752e3          	bge	a4,a5,2b78 <T15_start+0x6c>
    2cb8:	00065737          	lui	a4,0x65
    2cbc:	87e70713          	addi	a4,a4,-1922 # 6487e <_sp+0x3b53e>
    2cc0:	40f707b3          	sub	a5,a4,a5
    2cc4:	fff00513          	li	a0,-1
    2cc8:	eb1ff06f          	j	2b78 <T15_start+0x6c>
    2ccc:	19812e23          	sw	s8,412(sp)
    2cd0:	19912c23          	sw	s9,408(sp)
    2cd4:	19a12a23          	sw	s10,404(sp)
    2cd8:	19b12823          	sw	s11,400(sp)

00002cdc <T16_start>:
    2cdc:	b00027f3          	csrr	a5,mcycle
    2ce0:	00f12423          	sw	a5,8(sp)
    2ce4:	0004a783          	lw	a5,0(s1)
    2ce8:	00f12023          	sw	a5,0(sp)
    2cec:	00492783          	lw	a5,4(s2)
    2cf0:	00078c93          	mv	s9,a5
    2cf4:	00012783          	lw	a5,0(sp)
    2cf8:	019787b3          	add	a5,a5,s9
    2cfc:	14f12e23          	sw	a5,348(sp)
    2d00:	00892783          	lw	a5,8(s2)
    2d04:	00078d93          	mv	s11,a5
    2d08:	517cd7b7          	lui	a5,0x517cd
    2d0c:	c8378793          	addi	a5,a5,-893 # 517ccc83 <_sp+0x517a3943>
    2d10:	02fd97b3          	mulh	a5,s11,a5
    2d14:	4117d793          	srai	a5,a5,0x11
    2d18:	41fdd713          	srai	a4,s11,0x1f
    2d1c:	40e787b3          	sub	a5,a5,a4
    2d20:	00078b93          	mv	s7,a5
    2d24:	000657b7          	lui	a5,0x65
    2d28:	87e78793          	addi	a5,a5,-1922 # 6487e <_sp+0x3b53e>
    2d2c:	02fb87b3          	mul	a5,s7,a5
    2d30:	40fd87b3          	sub	a5,s11,a5
    2d34:	00078b93          	mv	s7,a5
    2d38:	3207c2e3          	bltz	a5,385c <T16_end+0x28>
    2d3c:	01712623          	sw	s7,12(sp)
    2d40:	fffe77b7          	lui	a5,0xfffe7
    2d44:	ddf78793          	addi	a5,a5,-545 # fffe6ddf <_sp+0xfffbda9f>
    2d48:	00fb87b3          	add	a5,s7,a5
    2d4c:	00f12223          	sw	a5,4(sp)
    2d50:	000197b7          	lui	a5,0x19
    2d54:	21e78793          	addi	a5,a5,542 # 1921e <heap.cpp.6b15d6f6+0x7551>
    2d58:	00412703          	lw	a4,4(sp)
    2d5c:	30e7eae3          	bltu	a5,a4,3870 <T16_end+0x3c>
    2d60:	000327b7          	lui	a5,0x32
    2d64:	43f78793          	addi	a5,a5,1087 # 3243f <_sp+0x90ff>
    2d68:	417787b3          	sub	a5,a5,s7
    2d6c:	00100613          	li	a2,1
    2d70:	41f7d513          	srai	a0,a5,0x1f
    2d74:	02f50733          	mul	a4,a0,a5
    2d78:	02f78833          	mul	a6,a5,a5
    2d7c:	02f7b6b3          	mulhu	a3,a5,a5
    2d80:	20d72733          	sh1add	a4,a4,a3
    2d84:	01071713          	slli	a4,a4,0x10
    2d88:	01085813          	srli	a6,a6,0x10
    2d8c:	01070833          	add	a6,a4,a6
    2d90:	41f85893          	srai	a7,a6,0x1f
    2d94:	1f300593          	li	a1,499
    2d98:	02b88733          	mul	a4,a7,a1
    2d9c:	02b806b3          	mul	a3,a6,a1
    2da0:	02b835b3          	mulhu	a1,a6,a1
    2da4:	00b70733          	add	a4,a4,a1
    2da8:	01071713          	slli	a4,a4,0x10
    2dac:	0106d693          	srli	a3,a3,0x10
    2db0:	00d706b3          	add	a3,a4,a3
    2db4:	ffffd737          	lui	a4,0xffffd
    2db8:	57e70713          	addi	a4,a4,1406 # ffffd57e <_sp+0xfffd423e>
    2dbc:	00e686b3          	add	a3,a3,a4
    2dc0:	41f6d593          	srai	a1,a3,0x1f
    2dc4:	030585b3          	mul	a1,a1,a6
    2dc8:	02d888b3          	mul	a7,a7,a3
    2dcc:	011585b3          	add	a1,a1,a7
    2dd0:	03068733          	mul	a4,a3,a6
    2dd4:	0306b6b3          	mulhu	a3,a3,a6
    2dd8:	00d586b3          	add	a3,a1,a3
    2ddc:	01069693          	slli	a3,a3,0x10
    2de0:	01075713          	srli	a4,a4,0x10
    2de4:	00e68733          	add	a4,a3,a4
    2de8:	000106b7          	lui	a3,0x10
    2dec:	00d70733          	add	a4,a4,a3
    2df0:	41f75693          	srai	a3,a4,0x1f
    2df4:	02f686b3          	mul	a3,a3,a5
    2df8:	02e50533          	mul	a0,a0,a4
    2dfc:	00a686b3          	add	a3,a3,a0
    2e00:	02f705b3          	mul	a1,a4,a5
    2e04:	02f73733          	mulhu	a4,a4,a5
    2e08:	00e687b3          	add	a5,a3,a4
    2e0c:	01079793          	slli	a5,a5,0x10
    2e10:	0105d713          	srli	a4,a1,0x10
    2e14:	00e78733          	add	a4,a5,a4
    2e18:	02e60633          	mul	a2,a2,a4
    2e1c:	16c12023          	sw	a2,352(sp)
    2e20:	0044a783          	lw	a5,4(s1)
    2e24:	00078d13          	mv	s10,a5
    2e28:	517cd737          	lui	a4,0x517cd
    2e2c:	c8370713          	addi	a4,a4,-893 # 517ccc83 <_sp+0x517a3943>
    2e30:	02e79733          	mulh	a4,a5,a4
    2e34:	41175713          	srai	a4,a4,0x11
    2e38:	41f7d793          	srai	a5,a5,0x1f
    2e3c:	40f70733          	sub	a4,a4,a5
    2e40:	000657b7          	lui	a5,0x65
    2e44:	87e78793          	addi	a5,a5,-1922 # 6487e <_sp+0x3b53e>
    2e48:	02f707b3          	mul	a5,a4,a5
    2e4c:	40fd0733          	sub	a4,s10,a5
    2e50:	26074ae3          	bltz	a4,38c4 <T16_end+0x90>
    2e54:	fffe77b7          	lui	a5,0xfffe7
    2e58:	ddf78793          	addi	a5,a5,-545 # fffe6ddf <_sp+0xfffbda9f>
    2e5c:	00f707b3          	add	a5,a4,a5
    2e60:	000196b7          	lui	a3,0x19
    2e64:	21e68693          	addi	a3,a3,542 # 1921e <heap.cpp.6b15d6f6+0x7551>
    2e68:	26f6e6e3          	bltu	a3,a5,38d4 <T16_end+0xa0>
    2e6c:	000327b7          	lui	a5,0x32
    2e70:	43f78793          	addi	a5,a5,1087 # 3243f <_sp+0x90ff>
    2e74:	40e78733          	sub	a4,a5,a4
    2e78:	00100513          	li	a0,1
    2e7c:	000196b7          	lui	a3,0x19
    2e80:	22068693          	addi	a3,a3,544 # 19220 <heap.cpp.6b15d6f6+0x7553>
    2e84:	41a686b3          	sub	a3,a3,s10
    2e88:	517cd7b7          	lui	a5,0x517cd
    2e8c:	c8378793          	addi	a5,a5,-893 # 517ccc83 <_sp+0x517a3943>
    2e90:	02f697b3          	mulh	a5,a3,a5
    2e94:	4117d793          	srai	a5,a5,0x11
    2e98:	41f6d613          	srai	a2,a3,0x1f
    2e9c:	40c787b3          	sub	a5,a5,a2
    2ea0:	00065637          	lui	a2,0x65
    2ea4:	87e60613          	addi	a2,a2,-1922 # 6487e <_sp+0x3b53e>
    2ea8:	02c787b3          	mul	a5,a5,a2
    2eac:	40f687b3          	sub	a5,a3,a5
    2eb0:	2607cae3          	bltz	a5,3924 <T16_end+0xf0>
    2eb4:	fffe76b7          	lui	a3,0xfffe7
    2eb8:	ddf68693          	addi	a3,a3,-545 # fffe6ddf <_sp+0xfffbda9f>
    2ebc:	00d786b3          	add	a3,a5,a3
    2ec0:	00019637          	lui	a2,0x19
    2ec4:	21e60613          	addi	a2,a2,542 # 1921e <heap.cpp.6b15d6f6+0x7551>
    2ec8:	26d662e3          	bltu	a2,a3,392c <T16_end+0xf8>
    2ecc:	000326b7          	lui	a3,0x32
    2ed0:	43f68693          	addi	a3,a3,1087 # 3243f <_sp+0x90ff>
    2ed4:	40f687b3          	sub	a5,a3,a5
    2ed8:	00100813          	li	a6,1
    2edc:	41f7d893          	srai	a7,a5,0x1f
    2ee0:	02f886b3          	mul	a3,a7,a5
    2ee4:	02f78333          	mul	t1,a5,a5
    2ee8:	02f7b633          	mulhu	a2,a5,a5
    2eec:	20c6a6b3          	sh1add	a3,a3,a2
    2ef0:	01069693          	slli	a3,a3,0x10
    2ef4:	01035313          	srli	t1,t1,0x10
    2ef8:	00668333          	add	t1,a3,t1
    2efc:	41f35e13          	srai	t3,t1,0x1f
    2f00:	1f300593          	li	a1,499
    2f04:	02be06b3          	mul	a3,t3,a1
    2f08:	02b30633          	mul	a2,t1,a1
    2f0c:	02b335b3          	mulhu	a1,t1,a1
    2f10:	00b686b3          	add	a3,a3,a1
    2f14:	01069693          	slli	a3,a3,0x10
    2f18:	01065613          	srli	a2,a2,0x10
    2f1c:	00c68633          	add	a2,a3,a2
    2f20:	ffffd6b7          	lui	a3,0xffffd
    2f24:	57e68693          	addi	a3,a3,1406 # ffffd57e <_sp+0xfffd423e>
    2f28:	00d60633          	add	a2,a2,a3
    2f2c:	41f65593          	srai	a1,a2,0x1f
    2f30:	026585b3          	mul	a1,a1,t1
    2f34:	02ce0e33          	mul	t3,t3,a2
    2f38:	01c585b3          	add	a1,a1,t3
    2f3c:	026606b3          	mul	a3,a2,t1
    2f40:	02663633          	mulhu	a2,a2,t1
    2f44:	00c58633          	add	a2,a1,a2
    2f48:	01061613          	slli	a2,a2,0x10
    2f4c:	0106d693          	srli	a3,a3,0x10
    2f50:	00d606b3          	add	a3,a2,a3
    2f54:	00010637          	lui	a2,0x10
    2f58:	00c686b3          	add	a3,a3,a2
    2f5c:	41f6d593          	srai	a1,a3,0x1f
    2f60:	02f585b3          	mul	a1,a1,a5
    2f64:	02d888b3          	mul	a7,a7,a3
    2f68:	011585b3          	add	a1,a1,a7
    2f6c:	02f68633          	mul	a2,a3,a5
    2f70:	02f6b6b3          	mulhu	a3,a3,a5
    2f74:	00d587b3          	add	a5,a1,a3
    2f78:	01079793          	slli	a5,a5,0x10
    2f7c:	01065613          	srli	a2,a2,0x10
    2f80:	00c78633          	add	a2,a5,a2
    2f84:	02c80633          	mul	a2,a6,a2
    2f88:	0c060863          	beqz	a2,3058 <T16_start+0x37c>
    2f8c:	41f75813          	srai	a6,a4,0x1f
    2f90:	02e807b3          	mul	a5,a6,a4
    2f94:	02e705b3          	mul	a1,a4,a4
    2f98:	02e736b3          	mulhu	a3,a4,a4
    2f9c:	20d7a7b3          	sh1add	a5,a5,a3
    2fa0:	01079793          	slli	a5,a5,0x10
    2fa4:	0105d593          	srli	a1,a1,0x10
    2fa8:	00b785b3          	add	a1,a5,a1
    2fac:	41f5d313          	srai	t1,a1,0x1f
    2fb0:	1f300893          	li	a7,499
    2fb4:	031307b3          	mul	a5,t1,a7
    2fb8:	031586b3          	mul	a3,a1,a7
    2fbc:	0315b8b3          	mulhu	a7,a1,a7
    2fc0:	011787b3          	add	a5,a5,a7
    2fc4:	01079793          	slli	a5,a5,0x10
    2fc8:	0106d693          	srli	a3,a3,0x10
    2fcc:	00d786b3          	add	a3,a5,a3
    2fd0:	ffffd7b7          	lui	a5,0xffffd
    2fd4:	57e78793          	addi	a5,a5,1406 # ffffd57e <_sp+0xfffd423e>
    2fd8:	00f686b3          	add	a3,a3,a5
    2fdc:	41f6d893          	srai	a7,a3,0x1f
    2fe0:	02b888b3          	mul	a7,a7,a1
    2fe4:	02d30333          	mul	t1,t1,a3
    2fe8:	006888b3          	add	a7,a7,t1
    2fec:	02b687b3          	mul	a5,a3,a1
    2ff0:	02b6b6b3          	mulhu	a3,a3,a1
    2ff4:	00d886b3          	add	a3,a7,a3
    2ff8:	01069693          	slli	a3,a3,0x10
    2ffc:	0107d793          	srli	a5,a5,0x10
    3000:	00f687b3          	add	a5,a3,a5
    3004:	000106b7          	lui	a3,0x10
    3008:	00d787b3          	add	a5,a5,a3
    300c:	41f7d693          	srai	a3,a5,0x1f
    3010:	02e686b3          	mul	a3,a3,a4
    3014:	02f80833          	mul	a6,a6,a5
    3018:	010686b3          	add	a3,a3,a6
    301c:	02e785b3          	mul	a1,a5,a4
    3020:	02e7b7b3          	mulhu	a5,a5,a4
    3024:	00f687b3          	add	a5,a3,a5
    3028:	01079793          	slli	a5,a5,0x10
    302c:	0105d713          	srli	a4,a1,0x10
    3030:	00e78733          	add	a4,a5,a4
    3034:	02e50533          	mul	a0,a0,a4
    3038:	41f55793          	srai	a5,a0,0x1f
    303c:	01055593          	srli	a1,a0,0x10
    3040:	01079793          	slli	a5,a5,0x10
    3044:	41f65693          	srai	a3,a2,0x1f
    3048:	01051513          	slli	a0,a0,0x10
    304c:	00f585b3          	add	a1,a1,a5
    3050:	669050ef          	jal	8eb8 <__divdi3>
    3054:	00050613          	mv	a2,a0
    3058:	00012783          	lw	a5,0(sp)
    305c:	40f60633          	sub	a2,a2,a5
    3060:	16c12223          	sw	a2,356(sp)
    3064:	000aa783          	lw	a5,0(s5)
    3068:	00078c13          	mv	s8,a5
    306c:	517cd737          	lui	a4,0x517cd
    3070:	c8370713          	addi	a4,a4,-893 # 517ccc83 <_sp+0x517a3943>
    3074:	02e79733          	mulh	a4,a5,a4
    3078:	41175713          	srai	a4,a4,0x11
    307c:	41f7d793          	srai	a5,a5,0x1f
    3080:	40f70733          	sub	a4,a4,a5
    3084:	000657b7          	lui	a5,0x65
    3088:	87e78793          	addi	a5,a5,-1922 # 6487e <_sp+0x3b53e>
    308c:	02f707b3          	mul	a5,a4,a5
    3090:	40fc0733          	sub	a4,s8,a5
    3094:	0e0744e3          	bltz	a4,397c <T16_end+0x148>
    3098:	fffe77b7          	lui	a5,0xfffe7
    309c:	ddf78793          	addi	a5,a5,-545 # fffe6ddf <_sp+0xfffbda9f>
    30a0:	00f707b3          	add	a5,a4,a5
    30a4:	000196b7          	lui	a3,0x19
    30a8:	21e68693          	addi	a3,a3,542 # 1921e <heap.cpp.6b15d6f6+0x7551>
    30ac:	0ef6e0e3          	bltu	a3,a5,398c <T16_end+0x158>
    30b0:	000327b7          	lui	a5,0x32
    30b4:	43f78793          	addi	a5,a5,1087 # 3243f <_sp+0x90ff>
    30b8:	40e78733          	sub	a4,a5,a4
    30bc:	00100593          	li	a1,1
    30c0:	000196b7          	lui	a3,0x19
    30c4:	22068693          	addi	a3,a3,544 # 19220 <heap.cpp.6b15d6f6+0x7553>
    30c8:	418686b3          	sub	a3,a3,s8
    30cc:	517cd7b7          	lui	a5,0x517cd
    30d0:	c8378793          	addi	a5,a5,-893 # 517ccc83 <_sp+0x517a3943>
    30d4:	02f697b3          	mulh	a5,a3,a5
    30d8:	4117d793          	srai	a5,a5,0x11
    30dc:	41f6d613          	srai	a2,a3,0x1f
    30e0:	40c787b3          	sub	a5,a5,a2
    30e4:	00065637          	lui	a2,0x65
    30e8:	87e60613          	addi	a2,a2,-1922 # 6487e <_sp+0x3b53e>
    30ec:	02c787b3          	mul	a5,a5,a2
    30f0:	40f687b3          	sub	a5,a3,a5
    30f4:	0e07c4e3          	bltz	a5,39dc <T16_end+0x1a8>
    30f8:	fffe76b7          	lui	a3,0xfffe7
    30fc:	ddf68693          	addi	a3,a3,-545 # fffe6ddf <_sp+0xfffbda9f>
    3100:	00d786b3          	add	a3,a5,a3
    3104:	00019637          	lui	a2,0x19
    3108:	21e60613          	addi	a2,a2,542 # 1921e <heap.cpp.6b15d6f6+0x7551>
    310c:	0cd66ce3          	bltu	a2,a3,39e4 <T16_end+0x1b0>
    3110:	000326b7          	lui	a3,0x32
    3114:	43f68693          	addi	a3,a3,1087 # 3243f <_sp+0x90ff>
    3118:	40f687b3          	sub	a5,a3,a5
    311c:	00100513          	li	a0,1
    3120:	41f7d813          	srai	a6,a5,0x1f
    3124:	02f806b3          	mul	a3,a6,a5
    3128:	02f78333          	mul	t1,a5,a5
    312c:	02f7b633          	mulhu	a2,a5,a5
    3130:	20c6a6b3          	sh1add	a3,a3,a2
    3134:	01069693          	slli	a3,a3,0x10
    3138:	01035313          	srli	t1,t1,0x10
    313c:	00668333          	add	t1,a3,t1
    3140:	41f35e13          	srai	t3,t1,0x1f
    3144:	1f300893          	li	a7,499
    3148:	031e06b3          	mul	a3,t3,a7
    314c:	03130633          	mul	a2,t1,a7
    3150:	031338b3          	mulhu	a7,t1,a7
    3154:	011686b3          	add	a3,a3,a7
    3158:	01069693          	slli	a3,a3,0x10
    315c:	01065613          	srli	a2,a2,0x10
    3160:	00c68633          	add	a2,a3,a2
    3164:	ffffd6b7          	lui	a3,0xffffd
    3168:	57e68693          	addi	a3,a3,1406 # ffffd57e <_sp+0xfffd423e>
    316c:	00d60633          	add	a2,a2,a3
    3170:	41f65893          	srai	a7,a2,0x1f
    3174:	026888b3          	mul	a7,a7,t1
    3178:	02ce0e33          	mul	t3,t3,a2
    317c:	01c888b3          	add	a7,a7,t3
    3180:	026606b3          	mul	a3,a2,t1
    3184:	02663633          	mulhu	a2,a2,t1
    3188:	00c88633          	add	a2,a7,a2
    318c:	01061613          	slli	a2,a2,0x10
    3190:	0106d693          	srli	a3,a3,0x10
    3194:	00d606b3          	add	a3,a2,a3
    3198:	00010637          	lui	a2,0x10
    319c:	00c686b3          	add	a3,a3,a2
    31a0:	41f6d613          	srai	a2,a3,0x1f
    31a4:	02f60633          	mul	a2,a2,a5
    31a8:	02d80833          	mul	a6,a6,a3
    31ac:	01060633          	add	a2,a2,a6
    31b0:	02f68833          	mul	a6,a3,a5
    31b4:	02f6b6b3          	mulhu	a3,a3,a5
    31b8:	00d607b3          	add	a5,a2,a3
    31bc:	01079793          	slli	a5,a5,0x10
    31c0:	01085693          	srli	a3,a6,0x10
    31c4:	00d786b3          	add	a3,a5,a3
    31c8:	02d50633          	mul	a2,a0,a3
    31cc:	0c060863          	beqz	a2,329c <T16_start+0x5c0>
    31d0:	41f75513          	srai	a0,a4,0x1f
    31d4:	02e507b3          	mul	a5,a0,a4
    31d8:	02e706b3          	mul	a3,a4,a4
    31dc:	02e73833          	mulhu	a6,a4,a4
    31e0:	2107a7b3          	sh1add	a5,a5,a6
    31e4:	01079793          	slli	a5,a5,0x10
    31e8:	0106d693          	srli	a3,a3,0x10
    31ec:	00d786b3          	add	a3,a5,a3
    31f0:	41f6d313          	srai	t1,a3,0x1f
    31f4:	1f300893          	li	a7,499
    31f8:	031307b3          	mul	a5,t1,a7
    31fc:	03168833          	mul	a6,a3,a7
    3200:	0316b8b3          	mulhu	a7,a3,a7
    3204:	011787b3          	add	a5,a5,a7
    3208:	01079793          	slli	a5,a5,0x10
    320c:	01085813          	srli	a6,a6,0x10
    3210:	01078833          	add	a6,a5,a6
    3214:	ffffd7b7          	lui	a5,0xffffd
    3218:	57e78793          	addi	a5,a5,1406 # ffffd57e <_sp+0xfffd423e>
    321c:	00f80833          	add	a6,a6,a5
    3220:	41f85893          	srai	a7,a6,0x1f
    3224:	02d888b3          	mul	a7,a7,a3
    3228:	03030333          	mul	t1,t1,a6
    322c:	006888b3          	add	a7,a7,t1
    3230:	02d807b3          	mul	a5,a6,a3
    3234:	02d83833          	mulhu	a6,a6,a3
    3238:	010886b3          	add	a3,a7,a6
    323c:	01069693          	slli	a3,a3,0x10
    3240:	0107d793          	srli	a5,a5,0x10
    3244:	00f687b3          	add	a5,a3,a5
    3248:	000106b7          	lui	a3,0x10
    324c:	00d787b3          	add	a5,a5,a3
    3250:	41f7d693          	srai	a3,a5,0x1f
    3254:	02e686b3          	mul	a3,a3,a4
    3258:	02f50533          	mul	a0,a0,a5
    325c:	00a686b3          	add	a3,a3,a0
    3260:	02e78533          	mul	a0,a5,a4
    3264:	02e7b7b3          	mulhu	a5,a5,a4
    3268:	00f687b3          	add	a5,a3,a5
    326c:	01079793          	slli	a5,a5,0x10
    3270:	01055713          	srli	a4,a0,0x10
    3274:	00e78733          	add	a4,a5,a4
    3278:	02e58533          	mul	a0,a1,a4
    327c:	41f55793          	srai	a5,a0,0x1f
    3280:	01055593          	srli	a1,a0,0x10
    3284:	01079793          	slli	a5,a5,0x10
    3288:	41f65693          	srai	a3,a2,0x1f
    328c:	01051513          	slli	a0,a0,0x10
    3290:	00f585b3          	add	a1,a1,a5
    3294:	425050ef          	jal	8eb8 <__divdi3>
    3298:	00050613          	mv	a2,a0
    329c:	16c12423          	sw	a2,360(sp)
    32a0:	000197b7          	lui	a5,0x19
    32a4:	21e78793          	addi	a5,a5,542 # 1921e <heap.cpp.6b15d6f6+0x7551>
    32a8:	00412703          	lw	a4,4(sp)
    32ac:	78e7e463          	bltu	a5,a4,3a34 <T16_end+0x200>
    32b0:	000327b7          	lui	a5,0x32
    32b4:	43f78793          	addi	a5,a5,1087 # 3243f <_sp+0x90ff>
    32b8:	417787b3          	sub	a5,a5,s7
    32bc:	00078b93          	mv	s7,a5
    32c0:	00100593          	li	a1,1
    32c4:	00019737          	lui	a4,0x19
    32c8:	22070713          	addi	a4,a4,544 # 19220 <heap.cpp.6b15d6f6+0x7553>
    32cc:	41b70733          	sub	a4,a4,s11
    32d0:	517cd7b7          	lui	a5,0x517cd
    32d4:	c8378793          	addi	a5,a5,-893 # 517ccc83 <_sp+0x517a3943>
    32d8:	02f717b3          	mulh	a5,a4,a5
    32dc:	4117d793          	srai	a5,a5,0x11
    32e0:	41f75693          	srai	a3,a4,0x1f
    32e4:	40d787b3          	sub	a5,a5,a3
    32e8:	000656b7          	lui	a3,0x65
    32ec:	87e68693          	addi	a3,a3,-1922 # 6487e <_sp+0x3b53e>
    32f0:	02d787b3          	mul	a5,a5,a3
    32f4:	40f707b3          	sub	a5,a4,a5
    32f8:	7807cc63          	bltz	a5,3a90 <T16_end+0x25c>
    32fc:	fffe7737          	lui	a4,0xfffe7
    3300:	ddf70713          	addi	a4,a4,-545 # fffe6ddf <_sp+0xfffbda9f>
    3304:	00e78733          	add	a4,a5,a4
    3308:	000196b7          	lui	a3,0x19
    330c:	21e68693          	addi	a3,a3,542 # 1921e <heap.cpp.6b15d6f6+0x7551>
    3310:	78e6e463          	bltu	a3,a4,3a98 <T16_end+0x264>
    3314:	00032737          	lui	a4,0x32
    3318:	43f70713          	addi	a4,a4,1087 # 3243f <_sp+0x90ff>
    331c:	40f707b3          	sub	a5,a4,a5
    3320:	00100613          	li	a2,1
    3324:	41f7d513          	srai	a0,a5,0x1f
    3328:	02f50733          	mul	a4,a0,a5
    332c:	02f788b3          	mul	a7,a5,a5
    3330:	02f7b6b3          	mulhu	a3,a5,a5
    3334:	20d72733          	sh1add	a4,a4,a3
    3338:	01071713          	slli	a4,a4,0x10
    333c:	0108d893          	srli	a7,a7,0x10
    3340:	011708b3          	add	a7,a4,a7
    3344:	41f8d313          	srai	t1,a7,0x1f
    3348:	1f300813          	li	a6,499
    334c:	03030733          	mul	a4,t1,a6
    3350:	030886b3          	mul	a3,a7,a6
    3354:	0308b833          	mulhu	a6,a7,a6
    3358:	01070733          	add	a4,a4,a6
    335c:	01071713          	slli	a4,a4,0x10
    3360:	0106d693          	srli	a3,a3,0x10
    3364:	00d706b3          	add	a3,a4,a3
    3368:	ffffd737          	lui	a4,0xffffd
    336c:	57e70713          	addi	a4,a4,1406 # ffffd57e <_sp+0xfffd423e>
    3370:	00e686b3          	add	a3,a3,a4
    3374:	41f6d813          	srai	a6,a3,0x1f
    3378:	03180833          	mul	a6,a6,a7
    337c:	02d30333          	mul	t1,t1,a3
    3380:	00680833          	add	a6,a6,t1
    3384:	03168733          	mul	a4,a3,a7
    3388:	0316b6b3          	mulhu	a3,a3,a7
    338c:	00d806b3          	add	a3,a6,a3
    3390:	01069693          	slli	a3,a3,0x10
    3394:	01075713          	srli	a4,a4,0x10
    3398:	00e68733          	add	a4,a3,a4
    339c:	000106b7          	lui	a3,0x10
    33a0:	00d70733          	add	a4,a4,a3
    33a4:	41f75693          	srai	a3,a4,0x1f
    33a8:	02f686b3          	mul	a3,a3,a5
    33ac:	02e50533          	mul	a0,a0,a4
    33b0:	00a686b3          	add	a3,a3,a0
    33b4:	02f70533          	mul	a0,a4,a5
    33b8:	02f73733          	mulhu	a4,a4,a5
    33bc:	00e687b3          	add	a5,a3,a4
    33c0:	01079793          	slli	a5,a5,0x10
    33c4:	01055713          	srli	a4,a0,0x10
    33c8:	00e78733          	add	a4,a5,a4
    33cc:	02e60633          	mul	a2,a2,a4
    33d0:	0c060863          	beqz	a2,34a0 <T16_start+0x7c4>
    33d4:	41fbd513          	srai	a0,s7,0x1f
    33d8:	037507b3          	mul	a5,a0,s7
    33dc:	037b86b3          	mul	a3,s7,s7
    33e0:	037bb733          	mulhu	a4,s7,s7
    33e4:	20e7a7b3          	sh1add	a5,a5,a4
    33e8:	01079793          	slli	a5,a5,0x10
    33ec:	0106d693          	srli	a3,a3,0x10
    33f0:	00d786b3          	add	a3,a5,a3
    33f4:	41f6d893          	srai	a7,a3,0x1f
    33f8:	1f300813          	li	a6,499
    33fc:	030887b3          	mul	a5,a7,a6
    3400:	03068733          	mul	a4,a3,a6
    3404:	0306b833          	mulhu	a6,a3,a6
    3408:	010787b3          	add	a5,a5,a6
    340c:	01079793          	slli	a5,a5,0x10
    3410:	01075713          	srli	a4,a4,0x10
    3414:	00e78733          	add	a4,a5,a4
    3418:	ffffd7b7          	lui	a5,0xffffd
    341c:	57e78793          	addi	a5,a5,1406 # ffffd57e <_sp+0xfffd423e>
    3420:	00f70733          	add	a4,a4,a5
    3424:	41f75813          	srai	a6,a4,0x1f
    3428:	02d80833          	mul	a6,a6,a3
    342c:	02e888b3          	mul	a7,a7,a4
    3430:	01180833          	add	a6,a6,a7
    3434:	02d707b3          	mul	a5,a4,a3
    3438:	02d73733          	mulhu	a4,a4,a3
    343c:	00e80733          	add	a4,a6,a4
    3440:	01071713          	slli	a4,a4,0x10
    3444:	0107d793          	srli	a5,a5,0x10
    3448:	00f707b3          	add	a5,a4,a5
    344c:	00010737          	lui	a4,0x10
    3450:	00e787b3          	add	a5,a5,a4
    3454:	41f7d713          	srai	a4,a5,0x1f
    3458:	03770733          	mul	a4,a4,s7
    345c:	02f50533          	mul	a0,a0,a5
    3460:	00a70733          	add	a4,a4,a0
    3464:	037786b3          	mul	a3,a5,s7
    3468:	0377b7b3          	mulhu	a5,a5,s7
    346c:	00f707b3          	add	a5,a4,a5
    3470:	01079793          	slli	a5,a5,0x10
    3474:	0106d713          	srli	a4,a3,0x10
    3478:	00e78733          	add	a4,a5,a4
    347c:	02e58533          	mul	a0,a1,a4
    3480:	41f55793          	srai	a5,a0,0x1f
    3484:	01055593          	srli	a1,a0,0x10
    3488:	01079793          	slli	a5,a5,0x10
    348c:	41f65693          	srai	a3,a2,0x1f
    3490:	01051513          	slli	a0,a0,0x10
    3494:	00f585b3          	add	a1,a1,a5
    3498:	221050ef          	jal	8eb8 <__divdi3>
    349c:	00050613          	mv	a2,a0
    34a0:	16c12623          	sw	a2,364(sp)
    34a4:	00012703          	lw	a4,0(sp)
    34a8:	40ec87b3          	sub	a5,s9,a4
    34ac:	16f12823          	sw	a5,368(sp)
    34b0:	0009a683          	lw	a3,0(s3)
    34b4:	517cd7b7          	lui	a5,0x517cd
    34b8:	c8378793          	addi	a5,a5,-893 # 517ccc83 <_sp+0x517a3943>
    34bc:	02f697b3          	mulh	a5,a3,a5
    34c0:	4117d793          	srai	a5,a5,0x11
    34c4:	41f6d713          	srai	a4,a3,0x1f
    34c8:	40e787b3          	sub	a5,a5,a4
    34cc:	00065737          	lui	a4,0x65
    34d0:	87e70713          	addi	a4,a4,-1922 # 6487e <_sp+0x3b53e>
    34d4:	02e787b3          	mul	a5,a5,a4
    34d8:	40f687b3          	sub	a5,a3,a5
    34dc:	6007c663          	bltz	a5,3ae8 <T16_end+0x2b4>
    34e0:	fffe7737          	lui	a4,0xfffe7
    34e4:	ddf70713          	addi	a4,a4,-545 # fffe6ddf <_sp+0xfffbda9f>
    34e8:	00e78733          	add	a4,a5,a4
    34ec:	000196b7          	lui	a3,0x19
    34f0:	21e68693          	addi	a3,a3,542 # 1921e <heap.cpp.6b15d6f6+0x7551>
    34f4:	60e6e263          	bltu	a3,a4,3af8 <T16_end+0x2c4>
    34f8:	00032737          	lui	a4,0x32
    34fc:	43f70713          	addi	a4,a4,1087 # 3243f <_sp+0x90ff>
    3500:	40f707b3          	sub	a5,a4,a5
    3504:	00100613          	li	a2,1
    3508:	41f7d513          	srai	a0,a5,0x1f
    350c:	02f50733          	mul	a4,a0,a5
    3510:	02f78833          	mul	a6,a5,a5
    3514:	02f7b6b3          	mulhu	a3,a5,a5
    3518:	20d72733          	sh1add	a4,a4,a3
    351c:	01071713          	slli	a4,a4,0x10
    3520:	01085813          	srli	a6,a6,0x10
    3524:	01070833          	add	a6,a4,a6
    3528:	41f85893          	srai	a7,a6,0x1f
    352c:	1f300593          	li	a1,499
    3530:	02b88733          	mul	a4,a7,a1
    3534:	02b806b3          	mul	a3,a6,a1
    3538:	02b835b3          	mulhu	a1,a6,a1
    353c:	00b70733          	add	a4,a4,a1
    3540:	01071713          	slli	a4,a4,0x10
    3544:	0106d693          	srli	a3,a3,0x10
    3548:	00d706b3          	add	a3,a4,a3
    354c:	ffffd737          	lui	a4,0xffffd
    3550:	57e70713          	addi	a4,a4,1406 # ffffd57e <_sp+0xfffd423e>
    3554:	00e686b3          	add	a3,a3,a4
    3558:	41f6d593          	srai	a1,a3,0x1f
    355c:	030585b3          	mul	a1,a1,a6
    3560:	02d888b3          	mul	a7,a7,a3
    3564:	011585b3          	add	a1,a1,a7
    3568:	03068733          	mul	a4,a3,a6
    356c:	0306b6b3          	mulhu	a3,a3,a6
    3570:	00d586b3          	add	a3,a1,a3
    3574:	01069693          	slli	a3,a3,0x10
    3578:	01075713          	srli	a4,a4,0x10
    357c:	00e68733          	add	a4,a3,a4
    3580:	000106b7          	lui	a3,0x10
    3584:	00d70733          	add	a4,a4,a3
    3588:	41f75693          	srai	a3,a4,0x1f
    358c:	02f686b3          	mul	a3,a3,a5
    3590:	02e50533          	mul	a0,a0,a4
    3594:	00a686b3          	add	a3,a3,a0
    3598:	02f705b3          	mul	a1,a4,a5
    359c:	02f73733          	mulhu	a4,a4,a5
    35a0:	00e687b3          	add	a5,a3,a4
    35a4:	01079793          	slli	a5,a5,0x10
    35a8:	0105d713          	srli	a4,a1,0x10
    35ac:	00e78733          	add	a4,a5,a4
    35b0:	02e60633          	mul	a2,a2,a4
    35b4:	16c12a23          	sw	a2,372(sp)
    35b8:	014aa683          	lw	a3,20(s5)
    35bc:	517cd7b7          	lui	a5,0x517cd
    35c0:	c8378793          	addi	a5,a5,-893 # 517ccc83 <_sp+0x517a3943>
    35c4:	02f697b3          	mulh	a5,a3,a5
    35c8:	4117d793          	srai	a5,a5,0x11
    35cc:	41f6d713          	srai	a4,a3,0x1f
    35d0:	40e787b3          	sub	a5,a5,a4
    35d4:	00065737          	lui	a4,0x65
    35d8:	87e70713          	addi	a4,a4,-1922 # 6487e <_sp+0x3b53e>
    35dc:	02e787b3          	mul	a5,a5,a4
    35e0:	40f687b3          	sub	a5,a3,a5
    35e4:	5607c263          	bltz	a5,3b48 <T16_end+0x314>
    35e8:	fffe7737          	lui	a4,0xfffe7
    35ec:	ddf70713          	addi	a4,a4,-545 # fffe6ddf <_sp+0xfffbda9f>
    35f0:	00e78733          	add	a4,a5,a4
    35f4:	000196b7          	lui	a3,0x19
    35f8:	21e68693          	addi	a3,a3,542 # 1921e <heap.cpp.6b15d6f6+0x7551>
    35fc:	54e6ee63          	bltu	a3,a4,3b58 <T16_end+0x324>
    3600:	00032737          	lui	a4,0x32
    3604:	43f70713          	addi	a4,a4,1087 # 3243f <_sp+0x90ff>
    3608:	40f707b3          	sub	a5,a4,a5
    360c:	00100613          	li	a2,1
    3610:	41f7d513          	srai	a0,a5,0x1f
    3614:	02f50733          	mul	a4,a0,a5
    3618:	02f78833          	mul	a6,a5,a5
    361c:	02f7b6b3          	mulhu	a3,a5,a5
    3620:	20d72733          	sh1add	a4,a4,a3
    3624:	01071713          	slli	a4,a4,0x10
    3628:	01085813          	srli	a6,a6,0x10
    362c:	01070833          	add	a6,a4,a6
    3630:	41f85893          	srai	a7,a6,0x1f
    3634:	1f300593          	li	a1,499
    3638:	02b88733          	mul	a4,a7,a1
    363c:	02b806b3          	mul	a3,a6,a1
    3640:	02b835b3          	mulhu	a1,a6,a1
    3644:	00b70733          	add	a4,a4,a1
    3648:	01071713          	slli	a4,a4,0x10
    364c:	0106d693          	srli	a3,a3,0x10
    3650:	00d706b3          	add	a3,a4,a3
    3654:	ffffd737          	lui	a4,0xffffd
    3658:	57e70713          	addi	a4,a4,1406 # ffffd57e <_sp+0xfffd423e>
    365c:	00e686b3          	add	a3,a3,a4
    3660:	41f6d593          	srai	a1,a3,0x1f
    3664:	030585b3          	mul	a1,a1,a6
    3668:	02d888b3          	mul	a7,a7,a3
    366c:	011585b3          	add	a1,a1,a7
    3670:	03068733          	mul	a4,a3,a6
    3674:	0306b6b3          	mulhu	a3,a3,a6
    3678:	00d586b3          	add	a3,a1,a3
    367c:	01069693          	slli	a3,a3,0x10
    3680:	01075713          	srli	a4,a4,0x10
    3684:	00e68733          	add	a4,a3,a4
    3688:	0084a683          	lw	a3,8(s1)
    368c:	00068b93          	mv	s7,a3
    3690:	000106b7          	lui	a3,0x10
    3694:	00d70733          	add	a4,a4,a3
    3698:	41f75693          	srai	a3,a4,0x1f
    369c:	02f686b3          	mul	a3,a3,a5
    36a0:	02e50533          	mul	a0,a0,a4
    36a4:	00a686b3          	add	a3,a3,a0
    36a8:	02f705b3          	mul	a1,a4,a5
    36ac:	02f73733          	mulhu	a4,a4,a5
    36b0:	00e687b3          	add	a5,a3,a4
    36b4:	01079793          	slli	a5,a5,0x10
    36b8:	0105d713          	srli	a4,a1,0x10
    36bc:	00e78733          	add	a4,a5,a4
    36c0:	02e60633          	mul	a2,a2,a4
    36c4:	40cb8633          	sub	a2,s7,a2
    36c8:	16c12c23          	sw	a2,376(sp)
    36cc:	41a007b3          	neg	a5,s10
    36d0:	16f12e23          	sw	a5,380(sp)
    36d4:	0049a783          	lw	a5,4(s3)
    36d8:	0afce7b3          	max	a5,s9,a5
    36dc:	00078d13          	mv	s10,a5
    36e0:	5c0c88e3          	beqz	s9,44b0 <T19_end+0xac>
    36e4:	41fc5793          	srai	a5,s8,0x1f
    36e8:	010c5593          	srli	a1,s8,0x10
    36ec:	01079793          	slli	a5,a5,0x10
    36f0:	000c8613          	mv	a2,s9
    36f4:	41fcd693          	srai	a3,s9,0x1f
    36f8:	010c1513          	slli	a0,s8,0x10
    36fc:	00f585b3          	add	a1,a1,a5
    3700:	7b8050ef          	jal	8eb8 <__divdi3>
    3704:	417c86b3          	sub	a3,s9,s7
    3708:	000197b7          	lui	a5,0x19
    370c:	22078793          	addi	a5,a5,544 # 19220 <heap.cpp.6b15d6f6+0x7553>
    3710:	419787b3          	sub	a5,a5,s9
    3714:	517cd837          	lui	a6,0x517cd
    3718:	c8380813          	addi	a6,a6,-893 # 517ccc83 <_sp+0x517a3943>
    371c:	03079833          	mulh	a6,a5,a6
    3720:	41185813          	srai	a6,a6,0x11
    3724:	41f7d713          	srai	a4,a5,0x1f
    3728:	40e80833          	sub	a6,a6,a4
    372c:	00065737          	lui	a4,0x65
    3730:	87e70713          	addi	a4,a4,-1922 # 6487e <_sp+0x3b53e>
    3734:	02e80733          	mul	a4,a6,a4
    3738:	40e78833          	sub	a6,a5,a4
    373c:	00085863          	bgez	a6,374c <T16_start+0xa70>
    3740:	000657b7          	lui	a5,0x65
    3744:	87e78793          	addi	a5,a5,-1922 # 6487e <_sp+0x3b53e>
    3748:	00f80833          	add	a6,a6,a5
    374c:	19a12023          	sw	s10,384(sp)
    3750:	18a12223          	sw	a0,388(sp)
    3754:	18d12423          	sw	a3,392(sp)
    3758:	00080793          	mv	a5,a6
    375c:	fffe7737          	lui	a4,0xfffe7
    3760:	ddf70713          	addi	a4,a4,-545 # fffe6ddf <_sp+0xfffbda9f>
    3764:	00e80733          	add	a4,a6,a4
    3768:	000196b7          	lui	a3,0x19
    376c:	21e68693          	addi	a3,a3,542 # 1921e <heap.cpp.6b15d6f6+0x7551>
    3770:	54e6eee3          	bltu	a3,a4,44cc <T19_end+0xc8>
    3774:	000327b7          	lui	a5,0x32
    3778:	43f78793          	addi	a5,a5,1087 # 3243f <_sp+0x90ff>
    377c:	41078833          	sub	a6,a5,a6
    3780:	00100593          	li	a1,1
    3784:	41f85513          	srai	a0,a6,0x1f
    3788:	030507b3          	mul	a5,a0,a6
    378c:	030806b3          	mul	a3,a6,a6
    3790:	03083733          	mulhu	a4,a6,a6
    3794:	20e7a7b3          	sh1add	a5,a5,a4
    3798:	01079793          	slli	a5,a5,0x10
    379c:	0106d693          	srli	a3,a3,0x10
    37a0:	00d786b3          	add	a3,a5,a3
    37a4:	41f6d893          	srai	a7,a3,0x1f
    37a8:	1f300613          	li	a2,499
    37ac:	02c887b3          	mul	a5,a7,a2
    37b0:	02c68733          	mul	a4,a3,a2
    37b4:	02c6b633          	mulhu	a2,a3,a2
    37b8:	00c787b3          	add	a5,a5,a2
    37bc:	01079793          	slli	a5,a5,0x10
    37c0:	01075713          	srli	a4,a4,0x10
    37c4:	00e78733          	add	a4,a5,a4
    37c8:	ffffd7b7          	lui	a5,0xffffd
    37cc:	57e78793          	addi	a5,a5,1406 # ffffd57e <_sp+0xfffd423e>
    37d0:	00f70733          	add	a4,a4,a5
    37d4:	41f75613          	srai	a2,a4,0x1f
    37d8:	02d60633          	mul	a2,a2,a3
    37dc:	02e888b3          	mul	a7,a7,a4
    37e0:	01160633          	add	a2,a2,a7
    37e4:	02d707b3          	mul	a5,a4,a3
    37e8:	02d73733          	mulhu	a4,a4,a3
    37ec:	00e60733          	add	a4,a2,a4
    37f0:	01071713          	slli	a4,a4,0x10
    37f4:	0107d793          	srli	a5,a5,0x10
    37f8:	00f707b3          	add	a5,a4,a5
    37fc:	00010737          	lui	a4,0x10
    3800:	00e787b3          	add	a5,a5,a4
    3804:	41f7d713          	srai	a4,a5,0x1f
    3808:	03070733          	mul	a4,a4,a6
    380c:	02f50533          	mul	a0,a0,a5
    3810:	00a70733          	add	a4,a4,a0
    3814:	030786b3          	mul	a3,a5,a6
    3818:	0307b7b3          	mulhu	a5,a5,a6
    381c:	00f707b3          	add	a5,a4,a5
    3820:	01079793          	slli	a5,a5,0x10
    3824:	0106d713          	srli	a4,a3,0x10
    3828:	00e78733          	add	a4,a5,a4
    382c:	02e585b3          	mul	a1,a1,a4
    3830:	18b12623          	sw	a1,396(sp)

00003834 <T16_end>:
    3834:	b00027f3          	csrr	a5,mcycle
    3838:	00812703          	lw	a4,8(sp)
    383c:	40e787b3          	sub	a5,a5,a4
    3840:	04fa2023          	sw	a5,64(s4)
    3844:	15c12603          	lw	a2,348(sp)
    3848:	16010713          	addi	a4,sp,352
    384c:	00000513          	li	a0,0
    3850:	00100793          	li	a5,1
    3854:	00d00593          	li	a1,13
    3858:	3800006f          	j	3bd8 <T16_end+0x3a4>
    385c:	000657b7          	lui	a5,0x65
    3860:	87e78793          	addi	a5,a5,-1922 # 6487e <_sp+0x3b53e>
    3864:	00fb87b3          	add	a5,s7,a5
    3868:	00078b93          	mv	s7,a5
    386c:	cd0ff06f          	j	2d3c <T16_start+0x60>
    3870:	fffce7b7          	lui	a5,0xfffce
    3874:	bc078793          	addi	a5,a5,-1088 # fffcdbc0 <_sp+0xfffa4880>
    3878:	00fb87b3          	add	a5,s7,a5
    387c:	00019737          	lui	a4,0x19
    3880:	21f70713          	addi	a4,a4,543 # 1921f <heap.cpp.6b15d6f6+0x7552>
    3884:	00f76c63          	bltu	a4,a5,389c <T16_end+0x68>
    3888:	fffce7b7          	lui	a5,0xfffce
    388c:	bc178793          	addi	a5,a5,-1087 # fffcdbc1 <_sp+0xfffa4881>
    3890:	00fb87b3          	add	a5,s7,a5
    3894:	fff00613          	li	a2,-1
    3898:	cd8ff06f          	j	2d70 <T16_start+0x94>
    389c:	0004b737          	lui	a4,0x4b
    38a0:	65f70713          	addi	a4,a4,1631 # 4b65f <_sp+0x2231f>
    38a4:	000b8793          	mv	a5,s7
    38a8:	00100613          	li	a2,1
    38ac:	cd775263          	bge	a4,s7,2d70 <T16_start+0x94>
    38b0:	000657b7          	lui	a5,0x65
    38b4:	87e78793          	addi	a5,a5,-1922 # 6487e <_sp+0x3b53e>
    38b8:	417787b3          	sub	a5,a5,s7
    38bc:	fff00613          	li	a2,-1
    38c0:	cb0ff06f          	j	2d70 <T16_start+0x94>
    38c4:	000657b7          	lui	a5,0x65
    38c8:	87e78793          	addi	a5,a5,-1922 # 6487e <_sp+0x3b53e>
    38cc:	00f70733          	add	a4,a4,a5
    38d0:	d84ff06f          	j	2e54 <T16_start+0x178>
    38d4:	fffce7b7          	lui	a5,0xfffce
    38d8:	bc078793          	addi	a5,a5,-1088 # fffcdbc0 <_sp+0xfffa4880>
    38dc:	00f707b3          	add	a5,a4,a5
    38e0:	000196b7          	lui	a3,0x19
    38e4:	21f68693          	addi	a3,a3,543 # 1921f <heap.cpp.6b15d6f6+0x7552>
    38e8:	00f6ec63          	bltu	a3,a5,3900 <T16_end+0xcc>
    38ec:	fffce7b7          	lui	a5,0xfffce
    38f0:	bc178793          	addi	a5,a5,-1087 # fffcdbc1 <_sp+0xfffa4881>
    38f4:	00f70733          	add	a4,a4,a5
    38f8:	fff00513          	li	a0,-1
    38fc:	d80ff06f          	j	2e7c <T16_start+0x1a0>
    3900:	0004b7b7          	lui	a5,0x4b
    3904:	65f78793          	addi	a5,a5,1631 # 4b65f <_sp+0x2231f>
    3908:	00100513          	li	a0,1
    390c:	d6e7d863          	bge	a5,a4,2e7c <T16_start+0x1a0>
    3910:	000657b7          	lui	a5,0x65
    3914:	87e78793          	addi	a5,a5,-1922 # 6487e <_sp+0x3b53e>
    3918:	40e78733          	sub	a4,a5,a4
    391c:	fff00513          	li	a0,-1
    3920:	d5cff06f          	j	2e7c <T16_start+0x1a0>
    3924:	00c787b3          	add	a5,a5,a2
    3928:	d8cff06f          	j	2eb4 <T16_start+0x1d8>
    392c:	fffce6b7          	lui	a3,0xfffce
    3930:	bc068693          	addi	a3,a3,-1088 # fffcdbc0 <_sp+0xfffa4880>
    3934:	00d786b3          	add	a3,a5,a3
    3938:	00019637          	lui	a2,0x19
    393c:	21f60613          	addi	a2,a2,543 # 1921f <heap.cpp.6b15d6f6+0x7552>
    3940:	00d66c63          	bltu	a2,a3,3958 <T16_end+0x124>
    3944:	fffce6b7          	lui	a3,0xfffce
    3948:	bc168693          	addi	a3,a3,-1087 # fffcdbc1 <_sp+0xfffa4881>
    394c:	00d787b3          	add	a5,a5,a3
    3950:	fff00813          	li	a6,-1
    3954:	d88ff06f          	j	2edc <T16_start+0x200>
    3958:	0004b6b7          	lui	a3,0x4b
    395c:	65f68693          	addi	a3,a3,1631 # 4b65f <_sp+0x2231f>
    3960:	00100813          	li	a6,1
    3964:	d6f6dc63          	bge	a3,a5,2edc <T16_start+0x200>
    3968:	000656b7          	lui	a3,0x65
    396c:	87e68693          	addi	a3,a3,-1922 # 6487e <_sp+0x3b53e>
    3970:	40f687b3          	sub	a5,a3,a5
    3974:	fff00813          	li	a6,-1
    3978:	d64ff06f          	j	2edc <T16_start+0x200>
    397c:	000657b7          	lui	a5,0x65
    3980:	87e78793          	addi	a5,a5,-1922 # 6487e <_sp+0x3b53e>
    3984:	00f70733          	add	a4,a4,a5
    3988:	f10ff06f          	j	3098 <T16_start+0x3bc>
    398c:	fffce7b7          	lui	a5,0xfffce
    3990:	bc078793          	addi	a5,a5,-1088 # fffcdbc0 <_sp+0xfffa4880>
    3994:	00f707b3          	add	a5,a4,a5
    3998:	000196b7          	lui	a3,0x19
    399c:	21f68693          	addi	a3,a3,543 # 1921f <heap.cpp.6b15d6f6+0x7552>
    39a0:	00f6ec63          	bltu	a3,a5,39b8 <T16_end+0x184>
    39a4:	fffce7b7          	lui	a5,0xfffce
    39a8:	bc178793          	addi	a5,a5,-1087 # fffcdbc1 <_sp+0xfffa4881>
    39ac:	00f70733          	add	a4,a4,a5
    39b0:	fff00593          	li	a1,-1
    39b4:	f0cff06f          	j	30c0 <T16_start+0x3e4>
    39b8:	0004b7b7          	lui	a5,0x4b
    39bc:	65f78793          	addi	a5,a5,1631 # 4b65f <_sp+0x2231f>
    39c0:	00100593          	li	a1,1
    39c4:	eee7de63          	bge	a5,a4,30c0 <T16_start+0x3e4>
    39c8:	000657b7          	lui	a5,0x65
    39cc:	87e78793          	addi	a5,a5,-1922 # 6487e <_sp+0x3b53e>
    39d0:	40e78733          	sub	a4,a5,a4
    39d4:	fff00593          	li	a1,-1
    39d8:	ee8ff06f          	j	30c0 <T16_start+0x3e4>
    39dc:	00c787b3          	add	a5,a5,a2
    39e0:	f18ff06f          	j	30f8 <T16_start+0x41c>
    39e4:	fffce6b7          	lui	a3,0xfffce
    39e8:	bc068693          	addi	a3,a3,-1088 # fffcdbc0 <_sp+0xfffa4880>
    39ec:	00d786b3          	add	a3,a5,a3
    39f0:	00019637          	lui	a2,0x19
    39f4:	21f60613          	addi	a2,a2,543 # 1921f <heap.cpp.6b15d6f6+0x7552>
    39f8:	00d66c63          	bltu	a2,a3,3a10 <T16_end+0x1dc>
    39fc:	fffce6b7          	lui	a3,0xfffce
    3a00:	bc168693          	addi	a3,a3,-1087 # fffcdbc1 <_sp+0xfffa4881>
    3a04:	00d787b3          	add	a5,a5,a3
    3a08:	fff00513          	li	a0,-1
    3a0c:	f14ff06f          	j	3120 <T16_start+0x444>
    3a10:	0004b6b7          	lui	a3,0x4b
    3a14:	65f68693          	addi	a3,a3,1631 # 4b65f <_sp+0x2231f>
    3a18:	00100513          	li	a0,1
    3a1c:	f0f6d263          	bge	a3,a5,3120 <T16_start+0x444>
    3a20:	000656b7          	lui	a3,0x65
    3a24:	87e68693          	addi	a3,a3,-1922 # 6487e <_sp+0x3b53e>
    3a28:	40f687b3          	sub	a5,a3,a5
    3a2c:	fff00513          	li	a0,-1
    3a30:	ef0ff06f          	j	3120 <T16_start+0x444>
    3a34:	fffce7b7          	lui	a5,0xfffce
    3a38:	bc078793          	addi	a5,a5,-1088 # fffcdbc0 <_sp+0xfffa4880>
    3a3c:	00c12703          	lw	a4,12(sp)
    3a40:	00f707b3          	add	a5,a4,a5
    3a44:	00019737          	lui	a4,0x19
    3a48:	21f70713          	addi	a4,a4,543 # 1921f <heap.cpp.6b15d6f6+0x7552>
    3a4c:	00f76e63          	bltu	a4,a5,3a68 <T16_end+0x234>
    3a50:	fffce7b7          	lui	a5,0xfffce
    3a54:	bc178793          	addi	a5,a5,-1087 # fffcdbc1 <_sp+0xfffa4881>
    3a58:	00fb87b3          	add	a5,s7,a5
    3a5c:	00078b93          	mv	s7,a5
    3a60:	fff00593          	li	a1,-1
    3a64:	861ff06f          	j	32c4 <T16_start+0x5e8>
    3a68:	0004b7b7          	lui	a5,0x4b
    3a6c:	65f78793          	addi	a5,a5,1631 # 4b65f <_sp+0x2231f>
    3a70:	00100593          	li	a1,1
    3a74:	8577d8e3          	bge	a5,s7,32c4 <T16_start+0x5e8>
    3a78:	000657b7          	lui	a5,0x65
    3a7c:	87e78793          	addi	a5,a5,-1922 # 6487e <_sp+0x3b53e>
    3a80:	417787b3          	sub	a5,a5,s7
    3a84:	00078b93          	mv	s7,a5
    3a88:	fff00593          	li	a1,-1
    3a8c:	839ff06f          	j	32c4 <T16_start+0x5e8>
    3a90:	00d787b3          	add	a5,a5,a3
    3a94:	869ff06f          	j	32fc <T16_start+0x620>
    3a98:	fffce737          	lui	a4,0xfffce
    3a9c:	bc070713          	addi	a4,a4,-1088 # fffcdbc0 <_sp+0xfffa4880>
    3aa0:	00e78733          	add	a4,a5,a4
    3aa4:	000196b7          	lui	a3,0x19
    3aa8:	21f68693          	addi	a3,a3,543 # 1921f <heap.cpp.6b15d6f6+0x7552>
    3aac:	00e6ec63          	bltu	a3,a4,3ac4 <T16_end+0x290>
    3ab0:	fffce737          	lui	a4,0xfffce
    3ab4:	bc170713          	addi	a4,a4,-1087 # fffcdbc1 <_sp+0xfffa4881>
    3ab8:	00e787b3          	add	a5,a5,a4
    3abc:	fff00613          	li	a2,-1
    3ac0:	865ff06f          	j	3324 <T16_start+0x648>
    3ac4:	0004b737          	lui	a4,0x4b
    3ac8:	65f70713          	addi	a4,a4,1631 # 4b65f <_sp+0x2231f>
    3acc:	00100613          	li	a2,1
    3ad0:	84f75ae3          	bge	a4,a5,3324 <T16_start+0x648>
    3ad4:	00065737          	lui	a4,0x65
    3ad8:	87e70713          	addi	a4,a4,-1922 # 6487e <_sp+0x3b53e>
    3adc:	40f707b3          	sub	a5,a4,a5
    3ae0:	fff00613          	li	a2,-1
    3ae4:	841ff06f          	j	3324 <T16_start+0x648>
    3ae8:	00065737          	lui	a4,0x65
    3aec:	87e70713          	addi	a4,a4,-1922 # 6487e <_sp+0x3b53e>
    3af0:	00e787b3          	add	a5,a5,a4
    3af4:	9edff06f          	j	34e0 <T16_start+0x804>
    3af8:	fffce737          	lui	a4,0xfffce
    3afc:	bc070713          	addi	a4,a4,-1088 # fffcdbc0 <_sp+0xfffa4880>
    3b00:	00e78733          	add	a4,a5,a4
    3b04:	000196b7          	lui	a3,0x19
    3b08:	21f68693          	addi	a3,a3,543 # 1921f <heap.cpp.6b15d6f6+0x7552>
    3b0c:	00e6ec63          	bltu	a3,a4,3b24 <T16_end+0x2f0>
    3b10:	fffce737          	lui	a4,0xfffce
    3b14:	bc170713          	addi	a4,a4,-1087 # fffcdbc1 <_sp+0xfffa4881>
    3b18:	00e787b3          	add	a5,a5,a4
    3b1c:	fff00613          	li	a2,-1
    3b20:	9e9ff06f          	j	3508 <T16_start+0x82c>
    3b24:	0004b737          	lui	a4,0x4b
    3b28:	65f70713          	addi	a4,a4,1631 # 4b65f <_sp+0x2231f>
    3b2c:	00100613          	li	a2,1
    3b30:	9cf75ce3          	bge	a4,a5,3508 <T16_start+0x82c>
    3b34:	00065737          	lui	a4,0x65
    3b38:	87e70713          	addi	a4,a4,-1922 # 6487e <_sp+0x3b53e>
    3b3c:	40f707b3          	sub	a5,a4,a5
    3b40:	fff00613          	li	a2,-1
    3b44:	9c5ff06f          	j	3508 <T16_start+0x82c>
    3b48:	00065737          	lui	a4,0x65
    3b4c:	87e70713          	addi	a4,a4,-1922 # 6487e <_sp+0x3b53e>
    3b50:	00e787b3          	add	a5,a5,a4
    3b54:	a95ff06f          	j	35e8 <T16_start+0x90c>
    3b58:	fffce737          	lui	a4,0xfffce
    3b5c:	bc070713          	addi	a4,a4,-1088 # fffcdbc0 <_sp+0xfffa4880>
    3b60:	00e78733          	add	a4,a5,a4
    3b64:	000196b7          	lui	a3,0x19
    3b68:	21f68693          	addi	a3,a3,543 # 1921f <heap.cpp.6b15d6f6+0x7552>
    3b6c:	00e6ec63          	bltu	a3,a4,3b84 <T16_end+0x350>
    3b70:	fffce737          	lui	a4,0xfffce
    3b74:	bc170713          	addi	a4,a4,-1087 # fffcdbc1 <_sp+0xfffa4881>
    3b78:	00e787b3          	add	a5,a5,a4
    3b7c:	fff00613          	li	a2,-1
    3b80:	a91ff06f          	j	3610 <T16_start+0x934>
    3b84:	0004b737          	lui	a4,0x4b
    3b88:	65f70713          	addi	a4,a4,1631 # 4b65f <_sp+0x2231f>
    3b8c:	00100613          	li	a2,1
    3b90:	a8f750e3          	bge	a4,a5,3610 <T16_start+0x934>
    3b94:	00065737          	lui	a4,0x65
    3b98:	87e70713          	addi	a4,a4,-1922 # 6487e <_sp+0x3b53e>
    3b9c:	40f707b3          	sub	a5,a4,a5
    3ba0:	fff00613          	li	a2,-1
    3ba4:	a6dff06f          	j	3610 <T16_start+0x934>
    3ba8:	0004b7b7          	lui	a5,0x4b
    3bac:	65f78793          	addi	a5,a5,1631 # 4b65f <_sp+0x2231f>
    3bb0:	00100593          	li	a1,1
    3bb4:	bd07d8e3          	bge	a5,a6,3784 <T16_start+0xaa8>
    3bb8:	000657b7          	lui	a5,0x65
    3bbc:	87e78793          	addi	a5,a5,-1922 # 6487e <_sp+0x3b53e>
    3bc0:	41078833          	sub	a6,a5,a6
    3bc4:	fff00593          	li	a1,-1
    3bc8:	bbdff06f          	j	3784 <T16_start+0xaa8>
    3bcc:	00178793          	addi	a5,a5,1
    3bd0:	00470713          	addi	a4,a4,4
    3bd4:	00b78c63          	beq	a5,a1,3bec <T16_end+0x3b8>
    3bd8:	00072683          	lw	a3,0(a4)
    3bdc:	fec6c8e3          	blt	a3,a2,3bcc <T16_end+0x398>
    3be0:	00068613          	mv	a2,a3
    3be4:	00078513          	mv	a0,a5
    3be8:	fe5ff06f          	j	3bcc <T16_end+0x398>
    3bec:	00020737          	lui	a4,0x20
    3bf0:	000207b7          	lui	a5,0x20
    3bf4:	06c78793          	addi	a5,a5,108 # 2006c <next.4>
    3bf8:	20f54533          	sh2add	a0,a0,a5
    3bfc:	00052783          	lw	a5,0(a0)
    3c00:	17c70713          	addi	a4,a4,380 # 2017c <jump_table.21>
    3c04:	20e7c7b3          	sh2add	a5,a5,a4
    3c08:	0007a783          	lw	a5,0(a5)
    3c0c:	19c12c03          	lw	s8,412(sp)
    3c10:	19812c83          	lw	s9,408(sp)
    3c14:	19412d03          	lw	s10,404(sp)
    3c18:	19012d83          	lw	s11,400(sp)
    3c1c:	f79fc06f          	j	b94 <inferenceTPG+0x44>
    3c20:	19812e23          	sw	s8,412(sp)
    3c24:	19912c23          	sw	s9,408(sp)

00003c28 <T17_start>:
    3c28:	b00027f3          	csrr	a5,mcycle
    3c2c:	00078c93          	mv	s9,a5
    3c30:	0089a783          	lw	a5,8(s3)
    3c34:	00078c13          	mv	s8,a5
    3c38:	00492783          	lw	a5,4(s2)
    3c3c:	00078b93          	mv	s7,a5
    3c40:	00078513          	mv	a0,a5
    3c44:	02078263          	beqz	a5,3c68 <T17_start+0x40>
    3c48:	41fc5793          	srai	a5,s8,0x1f
    3c4c:	010c5593          	srli	a1,s8,0x10
    3c50:	01079793          	slli	a5,a5,0x10
    3c54:	00050613          	mv	a2,a0
    3c58:	41fbd693          	srai	a3,s7,0x1f
    3c5c:	010c1513          	slli	a0,s8,0x10
    3c60:	00f585b3          	add	a1,a1,a5
    3c64:	254050ef          	jal	8eb8 <__divdi3>
    3c68:	0049a783          	lw	a5,4(s3)
    3c6c:	40a787b3          	sub	a5,a5,a0
    3c70:	0cf12e23          	sw	a5,220(sp)
    3c74:	000aa783          	lw	a5,0(s5)
    3c78:	00092703          	lw	a4,0(s2)
    3c7c:	40e78733          	sub	a4,a5,a4
    3c80:	0ee12023          	sw	a4,224(sp)
    3c84:	0009a703          	lw	a4,0(s3)
    3c88:	40ec0733          	sub	a4,s8,a4
    3c8c:	0ee12223          	sw	a4,228(sp)
    3c90:	0a07e7b3          	max	a5,a5,zero
    3c94:	0ef12423          	sw	a5,232(sp)
    3c98:	0004a603          	lw	a2,0(s1)
    3c9c:	517cd737          	lui	a4,0x517cd
    3ca0:	c8370713          	addi	a4,a4,-893 # 517ccc83 <_sp+0x517a3943>
    3ca4:	02e61733          	mulh	a4,a2,a4
    3ca8:	41175713          	srai	a4,a4,0x11
    3cac:	41f65793          	srai	a5,a2,0x1f
    3cb0:	40f70733          	sub	a4,a4,a5
    3cb4:	000657b7          	lui	a5,0x65
    3cb8:	87e78793          	addi	a5,a5,-1922 # 6487e <_sp+0x3b53e>
    3cbc:	02f707b3          	mul	a5,a4,a5
    3cc0:	40f60733          	sub	a4,a2,a5
    3cc4:	32074e63          	bltz	a4,4000 <__heap_size>
    3cc8:	fffe77b7          	lui	a5,0xfffe7
    3ccc:	ddf78793          	addi	a5,a5,-545 # fffe6ddf <_sp+0xfffbda9f>
    3cd0:	00f707b3          	add	a5,a4,a5
    3cd4:	000196b7          	lui	a3,0x19
    3cd8:	21e68693          	addi	a3,a3,542 # 1921e <heap.cpp.6b15d6f6+0x7551>
    3cdc:	32f6ea63          	bltu	a3,a5,4010 <__heap_size+0x10>
    3ce0:	000327b7          	lui	a5,0x32
    3ce4:	43f78793          	addi	a5,a5,1087 # 3243f <_sp+0x90ff>
    3ce8:	40e78733          	sub	a4,a5,a4
    3cec:	00100593          	li	a1,1
    3cf0:	000196b7          	lui	a3,0x19
    3cf4:	22068693          	addi	a3,a3,544 # 19220 <heap.cpp.6b15d6f6+0x7553>
    3cf8:	40c686b3          	sub	a3,a3,a2
    3cfc:	517cd7b7          	lui	a5,0x517cd
    3d00:	c8378793          	addi	a5,a5,-893 # 517ccc83 <_sp+0x517a3943>
    3d04:	02f697b3          	mulh	a5,a3,a5
    3d08:	4117d793          	srai	a5,a5,0x11
    3d0c:	41f6d613          	srai	a2,a3,0x1f
    3d10:	40c787b3          	sub	a5,a5,a2
    3d14:	00065637          	lui	a2,0x65
    3d18:	87e60613          	addi	a2,a2,-1922 # 6487e <_sp+0x3b53e>
    3d1c:	02c787b3          	mul	a5,a5,a2
    3d20:	40f687b3          	sub	a5,a3,a5
    3d24:	3207ce63          	bltz	a5,4060 <__heap_size+0x60>
    3d28:	fffe76b7          	lui	a3,0xfffe7
    3d2c:	ddf68693          	addi	a3,a3,-545 # fffe6ddf <_sp+0xfffbda9f>
    3d30:	00d786b3          	add	a3,a5,a3
    3d34:	00019637          	lui	a2,0x19
    3d38:	21e60613          	addi	a2,a2,542 # 1921e <heap.cpp.6b15d6f6+0x7551>
    3d3c:	32d66663          	bltu	a2,a3,4068 <__heap_size+0x68>
    3d40:	000326b7          	lui	a3,0x32
    3d44:	43f68693          	addi	a3,a3,1087 # 3243f <_sp+0x90ff>
    3d48:	40f687b3          	sub	a5,a3,a5
    3d4c:	00100513          	li	a0,1
    3d50:	41f7d893          	srai	a7,a5,0x1f
    3d54:	02f886b3          	mul	a3,a7,a5
    3d58:	02f78333          	mul	t1,a5,a5
    3d5c:	02f7b633          	mulhu	a2,a5,a5
    3d60:	20c6a6b3          	sh1add	a3,a3,a2
    3d64:	01069693          	slli	a3,a3,0x10
    3d68:	01035313          	srli	t1,t1,0x10
    3d6c:	00668333          	add	t1,a3,t1
    3d70:	41f35e13          	srai	t3,t1,0x1f
    3d74:	1f300813          	li	a6,499
    3d78:	030e06b3          	mul	a3,t3,a6
    3d7c:	03030633          	mul	a2,t1,a6
    3d80:	03033833          	mulhu	a6,t1,a6
    3d84:	010686b3          	add	a3,a3,a6
    3d88:	01069693          	slli	a3,a3,0x10
    3d8c:	01065613          	srli	a2,a2,0x10
    3d90:	00c68633          	add	a2,a3,a2
    3d94:	ffffd6b7          	lui	a3,0xffffd
    3d98:	57e68693          	addi	a3,a3,1406 # ffffd57e <_sp+0xfffd423e>
    3d9c:	00d60633          	add	a2,a2,a3
    3da0:	41f65813          	srai	a6,a2,0x1f
    3da4:	02680833          	mul	a6,a6,t1
    3da8:	02ce0e33          	mul	t3,t3,a2
    3dac:	01c80833          	add	a6,a6,t3
    3db0:	026606b3          	mul	a3,a2,t1
    3db4:	02663633          	mulhu	a2,a2,t1
    3db8:	00c80633          	add	a2,a6,a2
    3dbc:	01061613          	slli	a2,a2,0x10
    3dc0:	0106d693          	srli	a3,a3,0x10
    3dc4:	00d606b3          	add	a3,a2,a3
    3dc8:	00010637          	lui	a2,0x10
    3dcc:	00c686b3          	add	a3,a3,a2
    3dd0:	41f6d613          	srai	a2,a3,0x1f
    3dd4:	02f60633          	mul	a2,a2,a5
    3dd8:	02d888b3          	mul	a7,a7,a3
    3ddc:	01160633          	add	a2,a2,a7
    3de0:	02f68833          	mul	a6,a3,a5
    3de4:	02f6b6b3          	mulhu	a3,a3,a5
    3de8:	00d607b3          	add	a5,a2,a3
    3dec:	01079793          	slli	a5,a5,0x10
    3df0:	01085693          	srli	a3,a6,0x10
    3df4:	00d786b3          	add	a3,a5,a3
    3df8:	02d50633          	mul	a2,a0,a3
    3dfc:	0c060863          	beqz	a2,3ecc <T17_start+0x2a4>
    3e00:	41f75893          	srai	a7,a4,0x1f
    3e04:	02e887b3          	mul	a5,a7,a4
    3e08:	02e706b3          	mul	a3,a4,a4
    3e0c:	02e73533          	mulhu	a0,a4,a4
    3e10:	20a7a7b3          	sh1add	a5,a5,a0
    3e14:	01079793          	slli	a5,a5,0x10
    3e18:	0106d693          	srli	a3,a3,0x10
    3e1c:	00d786b3          	add	a3,a5,a3
    3e20:	41f6d313          	srai	t1,a3,0x1f
    3e24:	1f300513          	li	a0,499
    3e28:	02a307b3          	mul	a5,t1,a0
    3e2c:	02a68833          	mul	a6,a3,a0
    3e30:	02a6b533          	mulhu	a0,a3,a0
    3e34:	00a787b3          	add	a5,a5,a0
    3e38:	01079793          	slli	a5,a5,0x10
    3e3c:	01085813          	srli	a6,a6,0x10
    3e40:	01078833          	add	a6,a5,a6
    3e44:	ffffd7b7          	lui	a5,0xffffd
    3e48:	57e78793          	addi	a5,a5,1406 # ffffd57e <_sp+0xfffd423e>
    3e4c:	00f80833          	add	a6,a6,a5
    3e50:	41f85513          	srai	a0,a6,0x1f
    3e54:	02d50533          	mul	a0,a0,a3
    3e58:	03030333          	mul	t1,t1,a6
    3e5c:	00650533          	add	a0,a0,t1
    3e60:	02d807b3          	mul	a5,a6,a3
    3e64:	02d83833          	mulhu	a6,a6,a3
    3e68:	010506b3          	add	a3,a0,a6
    3e6c:	01069693          	slli	a3,a3,0x10
    3e70:	0107d793          	srli	a5,a5,0x10
    3e74:	00f687b3          	add	a5,a3,a5
    3e78:	000106b7          	lui	a3,0x10
    3e7c:	00d787b3          	add	a5,a5,a3
    3e80:	41f7d693          	srai	a3,a5,0x1f
    3e84:	02e686b3          	mul	a3,a3,a4
    3e88:	02f888b3          	mul	a7,a7,a5
    3e8c:	011686b3          	add	a3,a3,a7
    3e90:	02e78533          	mul	a0,a5,a4
    3e94:	02e7b7b3          	mulhu	a5,a5,a4
    3e98:	00f687b3          	add	a5,a3,a5
    3e9c:	01079793          	slli	a5,a5,0x10
    3ea0:	01055713          	srli	a4,a0,0x10
    3ea4:	00e78733          	add	a4,a5,a4
    3ea8:	02e58533          	mul	a0,a1,a4
    3eac:	41f55793          	srai	a5,a0,0x1f
    3eb0:	01055593          	srli	a1,a0,0x10
    3eb4:	01079793          	slli	a5,a5,0x10
    3eb8:	41f65693          	srai	a3,a2,0x1f
    3ebc:	01051513          	slli	a0,a0,0x10
    3ec0:	00f585b3          	add	a1,a1,a5
    3ec4:	7f5040ef          	jal	8eb8 <__divdi3>
    3ec8:	00050613          	mv	a2,a0
    3ecc:	0ec12623          	sw	a2,236(sp)
    3ed0:	0f812823          	sw	s8,240(sp)
    3ed4:	517cd7b7          	lui	a5,0x517cd
    3ed8:	c8378793          	addi	a5,a5,-893 # 517ccc83 <_sp+0x517a3943>
    3edc:	02fb97b3          	mulh	a5,s7,a5
    3ee0:	4117d793          	srai	a5,a5,0x11
    3ee4:	41fbd713          	srai	a4,s7,0x1f
    3ee8:	40e787b3          	sub	a5,a5,a4
    3eec:	00065737          	lui	a4,0x65
    3ef0:	87e70713          	addi	a4,a4,-1922 # 6487e <_sp+0x3b53e>
    3ef4:	02e787b3          	mul	a5,a5,a4
    3ef8:	40fb87b3          	sub	a5,s7,a5
    3efc:	1a07ce63          	bltz	a5,40b8 <__heap_size+0xb8>
    3f00:	fffe7737          	lui	a4,0xfffe7
    3f04:	ddf70713          	addi	a4,a4,-545 # fffe6ddf <_sp+0xfffbda9f>
    3f08:	00e78733          	add	a4,a5,a4
    3f0c:	000196b7          	lui	a3,0x19
    3f10:	21e68693          	addi	a3,a3,542 # 1921e <heap.cpp.6b15d6f6+0x7551>
    3f14:	1ae6ea63          	bltu	a3,a4,40c8 <__heap_size+0xc8>
    3f18:	00032737          	lui	a4,0x32
    3f1c:	43f70713          	addi	a4,a4,1087 # 3243f <_sp+0x90ff>
    3f20:	40f707b3          	sub	a5,a4,a5
    3f24:	00100593          	li	a1,1
    3f28:	41f7d513          	srai	a0,a5,0x1f
    3f2c:	02f50733          	mul	a4,a0,a5
    3f30:	02f78833          	mul	a6,a5,a5
    3f34:	02f7b6b3          	mulhu	a3,a5,a5
    3f38:	20d72733          	sh1add	a4,a4,a3
    3f3c:	01071713          	slli	a4,a4,0x10
    3f40:	01085813          	srli	a6,a6,0x10
    3f44:	01070833          	add	a6,a4,a6
    3f48:	41f85893          	srai	a7,a6,0x1f
    3f4c:	1f300613          	li	a2,499
    3f50:	02c88733          	mul	a4,a7,a2
    3f54:	02c806b3          	mul	a3,a6,a2
    3f58:	02c83633          	mulhu	a2,a6,a2
    3f5c:	00c70733          	add	a4,a4,a2
    3f60:	01071713          	slli	a4,a4,0x10
    3f64:	0106d693          	srli	a3,a3,0x10
    3f68:	00d706b3          	add	a3,a4,a3
    3f6c:	ffffd737          	lui	a4,0xffffd
    3f70:	57e70713          	addi	a4,a4,1406 # ffffd57e <_sp+0xfffd423e>
    3f74:	00e686b3          	add	a3,a3,a4
    3f78:	41f6d613          	srai	a2,a3,0x1f
    3f7c:	03060633          	mul	a2,a2,a6
    3f80:	02d888b3          	mul	a7,a7,a3
    3f84:	01160633          	add	a2,a2,a7
    3f88:	03068733          	mul	a4,a3,a6
    3f8c:	0306b6b3          	mulhu	a3,a3,a6
    3f90:	00d606b3          	add	a3,a2,a3
    3f94:	01069693          	slli	a3,a3,0x10
    3f98:	01075713          	srli	a4,a4,0x10
    3f9c:	00e68733          	add	a4,a3,a4
    3fa0:	000106b7          	lui	a3,0x10
    3fa4:	00d70733          	add	a4,a4,a3
    3fa8:	41f75693          	srai	a3,a4,0x1f
    3fac:	02f686b3          	mul	a3,a3,a5
    3fb0:	02e50533          	mul	a0,a0,a4
    3fb4:	00a686b3          	add	a3,a3,a0
    3fb8:	02f70633          	mul	a2,a4,a5
    3fbc:	02f73733          	mulhu	a4,a4,a5
    3fc0:	00e687b3          	add	a5,a3,a4
    3fc4:	01079793          	slli	a5,a5,0x10
    3fc8:	01065713          	srli	a4,a2,0x10
    3fcc:	00e78733          	add	a4,a5,a4
    3fd0:	02e585b3          	mul	a1,a1,a4
    3fd4:	417585b3          	sub	a1,a1,s7
    3fd8:	0eb12a23          	sw	a1,244(sp)

00003fdc <T17_end>:
    3fdc:	b00027f3          	csrr	a5,mcycle
    3fe0:	419787b3          	sub	a5,a5,s9
    3fe4:	04fa2223          	sw	a5,68(s4)
    3fe8:	0dc12603          	lw	a2,220(sp)
    3fec:	0dc10713          	addi	a4,sp,220
    3ff0:	00000513          	li	a0,0
    3ff4:	00100793          	li	a5,1
    3ff8:	00700593          	li	a1,7
    3ffc:	1280006f          	j	4124 <__heap_size+0x124>
    4000:	000657b7          	lui	a5,0x65
    4004:	87e78793          	addi	a5,a5,-1922 # 6487e <_sp+0x3b53e>
    4008:	00f70733          	add	a4,a4,a5
    400c:	cbdff06f          	j	3cc8 <T17_start+0xa0>
    4010:	fffce7b7          	lui	a5,0xfffce
    4014:	bc078793          	addi	a5,a5,-1088 # fffcdbc0 <_sp+0xfffa4880>
    4018:	00f707b3          	add	a5,a4,a5
    401c:	000196b7          	lui	a3,0x19
    4020:	21f68693          	addi	a3,a3,543 # 1921f <heap.cpp.6b15d6f6+0x7552>
    4024:	00f6ec63          	bltu	a3,a5,403c <__heap_size+0x3c>
    4028:	fffce7b7          	lui	a5,0xfffce
    402c:	bc178793          	addi	a5,a5,-1087 # fffcdbc1 <_sp+0xfffa4881>
    4030:	00f70733          	add	a4,a4,a5
    4034:	fff00593          	li	a1,-1
    4038:	cb9ff06f          	j	3cf0 <T17_start+0xc8>
    403c:	0004b7b7          	lui	a5,0x4b
    4040:	65f78793          	addi	a5,a5,1631 # 4b65f <_sp+0x2231f>
    4044:	00100593          	li	a1,1
    4048:	cae7d4e3          	bge	a5,a4,3cf0 <T17_start+0xc8>
    404c:	000657b7          	lui	a5,0x65
    4050:	87e78793          	addi	a5,a5,-1922 # 6487e <_sp+0x3b53e>
    4054:	40e78733          	sub	a4,a5,a4
    4058:	fff00593          	li	a1,-1
    405c:	c95ff06f          	j	3cf0 <T17_start+0xc8>
    4060:	00c787b3          	add	a5,a5,a2
    4064:	cc5ff06f          	j	3d28 <T17_start+0x100>
    4068:	fffce6b7          	lui	a3,0xfffce
    406c:	bc068693          	addi	a3,a3,-1088 # fffcdbc0 <_sp+0xfffa4880>
    4070:	00d786b3          	add	a3,a5,a3
    4074:	00019637          	lui	a2,0x19
    4078:	21f60613          	addi	a2,a2,543 # 1921f <heap.cpp.6b15d6f6+0x7552>
    407c:	00d66c63          	bltu	a2,a3,4094 <__heap_size+0x94>
    4080:	fffce6b7          	lui	a3,0xfffce
    4084:	bc168693          	addi	a3,a3,-1087 # fffcdbc1 <_sp+0xfffa4881>
    4088:	00d787b3          	add	a5,a5,a3
    408c:	fff00513          	li	a0,-1
    4090:	cc1ff06f          	j	3d50 <T17_start+0x128>
    4094:	0004b6b7          	lui	a3,0x4b
    4098:	65f68693          	addi	a3,a3,1631 # 4b65f <_sp+0x2231f>
    409c:	00100513          	li	a0,1
    40a0:	caf6d8e3          	bge	a3,a5,3d50 <T17_start+0x128>
    40a4:	000656b7          	lui	a3,0x65
    40a8:	87e68693          	addi	a3,a3,-1922 # 6487e <_sp+0x3b53e>
    40ac:	40f687b3          	sub	a5,a3,a5
    40b0:	fff00513          	li	a0,-1
    40b4:	c9dff06f          	j	3d50 <T17_start+0x128>
    40b8:	00065737          	lui	a4,0x65
    40bc:	87e70713          	addi	a4,a4,-1922 # 6487e <_sp+0x3b53e>
    40c0:	00e787b3          	add	a5,a5,a4
    40c4:	e3dff06f          	j	3f00 <T17_start+0x2d8>
    40c8:	fffce737          	lui	a4,0xfffce
    40cc:	bc070713          	addi	a4,a4,-1088 # fffcdbc0 <_sp+0xfffa4880>
    40d0:	00e78733          	add	a4,a5,a4
    40d4:	000196b7          	lui	a3,0x19
    40d8:	21f68693          	addi	a3,a3,543 # 1921f <heap.cpp.6b15d6f6+0x7552>
    40dc:	00e6ec63          	bltu	a3,a4,40f4 <__heap_size+0xf4>
    40e0:	fffce737          	lui	a4,0xfffce
    40e4:	bc170713          	addi	a4,a4,-1087 # fffcdbc1 <_sp+0xfffa4881>
    40e8:	00e787b3          	add	a5,a5,a4
    40ec:	fff00593          	li	a1,-1
    40f0:	e39ff06f          	j	3f28 <T17_start+0x300>
    40f4:	0004b737          	lui	a4,0x4b
    40f8:	65f70713          	addi	a4,a4,1631 # 4b65f <_sp+0x2231f>
    40fc:	00100593          	li	a1,1
    4100:	e2f754e3          	bge	a4,a5,3f28 <T17_start+0x300>
    4104:	00065737          	lui	a4,0x65
    4108:	87e70713          	addi	a4,a4,-1922 # 6487e <_sp+0x3b53e>
    410c:	40f707b3          	sub	a5,a4,a5
    4110:	fff00593          	li	a1,-1
    4114:	e15ff06f          	j	3f28 <T17_start+0x300>
    4118:	00178793          	addi	a5,a5,1
    411c:	00470713          	addi	a4,a4,4
    4120:	00b78c63          	beq	a5,a1,4138 <__heap_size+0x138>
    4124:	00472683          	lw	a3,4(a4)
    4128:	fec6c8e3          	blt	a3,a2,4118 <__heap_size+0x118>
    412c:	00068613          	mv	a2,a3
    4130:	00078513          	mv	a0,a5
    4134:	fe5ff06f          	j	4118 <__heap_size+0x118>
    4138:	00020737          	lui	a4,0x20
    413c:	000207b7          	lui	a5,0x20
    4140:	05078793          	addi	a5,a5,80 # 20050 <next.3>
    4144:	20f54533          	sh2add	a0,a0,a5
    4148:	00052783          	lw	a5,0(a0)
    414c:	17c70713          	addi	a4,a4,380 # 2017c <jump_table.21>
    4150:	20e7c7b3          	sh2add	a5,a5,a4
    4154:	0007a783          	lw	a5,0(a5)
    4158:	19c12c03          	lw	s8,412(sp)
    415c:	19812c83          	lw	s9,408(sp)
    4160:	a35fc06f          	j	b94 <inferenceTPG+0x44>

00004164 <T18_start>:
    4164:	b0002873          	csrr	a6,mcycle
    4168:	004aa603          	lw	a2,4(s5)
    416c:	00caa703          	lw	a4,12(s5)
    4170:	41f75793          	srai	a5,a4,0x1f
    4174:	41f65593          	srai	a1,a2,0x1f
    4178:	02c787b3          	mul	a5,a5,a2
    417c:	02e586b3          	mul	a3,a1,a4
    4180:	00d787b3          	add	a5,a5,a3
    4184:	02c706b3          	mul	a3,a4,a2
    4188:	02c73733          	mulhu	a4,a4,a2
    418c:	00e787b3          	add	a5,a5,a4
    4190:	01079793          	slli	a5,a5,0x10
    4194:	0106d713          	srli	a4,a3,0x10
    4198:	00e78733          	add	a4,a5,a4
    419c:	10e12c23          	sw	a4,280(sp)
    41a0:	00492683          	lw	a3,4(s2)
    41a4:	0049a783          	lw	a5,4(s3)
    41a8:	0ad7e7b3          	max	a5,a5,a3
    41ac:	10f12e23          	sw	a5,284(sp)
    41b0:	0044a783          	lw	a5,4(s1)
    41b4:	0089a703          	lw	a4,8(s3)
    41b8:	00e787b3          	add	a5,a5,a4
    41bc:	12f12023          	sw	a5,288(sp)
    41c0:	0009a783          	lw	a5,0(s3)
    41c4:	00092703          	lw	a4,0(s2)
    41c8:	00f70733          	add	a4,a4,a5
    41cc:	12e12223          	sw	a4,292(sp)
    41d0:	00179793          	slli	a5,a5,0x1
    41d4:	12f12423          	sw	a5,296(sp)
    41d8:	0004a783          	lw	a5,0(s1)
    41dc:	00d787b3          	add	a5,a5,a3
    41e0:	12f12623          	sw	a5,300(sp)
    41e4:	517cd7b7          	lui	a5,0x517cd
    41e8:	c8378793          	addi	a5,a5,-893 # 517ccc83 <_sp+0x517a3943>
    41ec:	02f617b3          	mulh	a5,a2,a5
    41f0:	4117d793          	srai	a5,a5,0x11
    41f4:	40b787b3          	sub	a5,a5,a1
    41f8:	00065737          	lui	a4,0x65
    41fc:	87e70713          	addi	a4,a4,-1922 # 6487e <_sp+0x3b53e>
    4200:	02e787b3          	mul	a5,a5,a4
    4204:	40f607b3          	sub	a5,a2,a5
    4208:	1007ca63          	bltz	a5,431c <T18_end+0x24>
    420c:	fffe7737          	lui	a4,0xfffe7
    4210:	ddf70713          	addi	a4,a4,-545 # fffe6ddf <_sp+0xfffbda9f>
    4214:	00e78733          	add	a4,a5,a4
    4218:	000196b7          	lui	a3,0x19
    421c:	21e68693          	addi	a3,a3,542 # 1921e <heap.cpp.6b15d6f6+0x7551>
    4220:	10e6e663          	bltu	a3,a4,432c <T18_end+0x34>
    4224:	00032737          	lui	a4,0x32
    4228:	43f70713          	addi	a4,a4,1087 # 3243f <_sp+0x90ff>
    422c:	40f707b3          	sub	a5,a4,a5
    4230:	00100513          	li	a0,1
    4234:	41f7d893          	srai	a7,a5,0x1f
    4238:	02f88733          	mul	a4,a7,a5
    423c:	02f78633          	mul	a2,a5,a5
    4240:	02f7b6b3          	mulhu	a3,a5,a5
    4244:	20d72733          	sh1add	a4,a4,a3
    4248:	01071713          	slli	a4,a4,0x10
    424c:	01065613          	srli	a2,a2,0x10
    4250:	00c70633          	add	a2,a4,a2
    4254:	41f65313          	srai	t1,a2,0x1f
    4258:	1f300593          	li	a1,499
    425c:	02b30733          	mul	a4,t1,a1
    4260:	02b606b3          	mul	a3,a2,a1
    4264:	02b635b3          	mulhu	a1,a2,a1
    4268:	00b70733          	add	a4,a4,a1
    426c:	01071713          	slli	a4,a4,0x10
    4270:	0106d693          	srli	a3,a3,0x10
    4274:	00d706b3          	add	a3,a4,a3
    4278:	ffffd737          	lui	a4,0xffffd
    427c:	57e70713          	addi	a4,a4,1406 # ffffd57e <_sp+0xfffd423e>
    4280:	00e686b3          	add	a3,a3,a4
    4284:	41f6d593          	srai	a1,a3,0x1f
    4288:	02c585b3          	mul	a1,a1,a2
    428c:	02d30333          	mul	t1,t1,a3
    4290:	006585b3          	add	a1,a1,t1
    4294:	02c68733          	mul	a4,a3,a2
    4298:	02c6b6b3          	mulhu	a3,a3,a2
    429c:	00d586b3          	add	a3,a1,a3
    42a0:	01069693          	slli	a3,a3,0x10
    42a4:	01075713          	srli	a4,a4,0x10
    42a8:	00e68733          	add	a4,a3,a4
    42ac:	000106b7          	lui	a3,0x10
    42b0:	00d70733          	add	a4,a4,a3
    42b4:	41f75693          	srai	a3,a4,0x1f
    42b8:	02f686b3          	mul	a3,a3,a5
    42bc:	02e888b3          	mul	a7,a7,a4
    42c0:	011686b3          	add	a3,a3,a7
    42c4:	02f70633          	mul	a2,a4,a5
    42c8:	02f73733          	mulhu	a4,a4,a5
    42cc:	00e687b3          	add	a5,a3,a4
    42d0:	01079793          	slli	a5,a5,0x10
    42d4:	01065713          	srli	a4,a2,0x10
    42d8:	00e78733          	add	a4,a5,a4
    42dc:	02e50533          	mul	a0,a0,a4
    42e0:	0084a783          	lw	a5,8(s1)
    42e4:	40a787b3          	sub	a5,a5,a0
    42e8:	12f12823          	sw	a5,304(sp)
    42ec:	00892783          	lw	a5,8(s2)
    42f0:	0a07e7b3          	max	a5,a5,zero
    42f4:	12f12a23          	sw	a5,308(sp)

000042f8 <T18_end>:
    42f8:	b00027f3          	csrr	a5,mcycle
    42fc:	410787b3          	sub	a5,a5,a6
    4300:	04fa2423          	sw	a5,72(s4)
    4304:	11812603          	lw	a2,280(sp)
    4308:	11810713          	addi	a4,sp,280
    430c:	00000513          	li	a0,0
    4310:	00100793          	li	a5,1
    4314:	00800593          	li	a1,8
    4318:	0700006f          	j	4388 <T18_end+0x90>
    431c:	00065737          	lui	a4,0x65
    4320:	87e70713          	addi	a4,a4,-1922 # 6487e <_sp+0x3b53e>
    4324:	00e787b3          	add	a5,a5,a4
    4328:	ee5ff06f          	j	420c <T18_start+0xa8>
    432c:	fffce737          	lui	a4,0xfffce
    4330:	bc070713          	addi	a4,a4,-1088 # fffcdbc0 <_sp+0xfffa4880>
    4334:	00e78733          	add	a4,a5,a4
    4338:	000196b7          	lui	a3,0x19
    433c:	21f68693          	addi	a3,a3,543 # 1921f <heap.cpp.6b15d6f6+0x7552>
    4340:	00e6ec63          	bltu	a3,a4,4358 <T18_end+0x60>
    4344:	fffce737          	lui	a4,0xfffce
    4348:	bc170713          	addi	a4,a4,-1087 # fffcdbc1 <_sp+0xfffa4881>
    434c:	00e787b3          	add	a5,a5,a4
    4350:	fff00513          	li	a0,-1
    4354:	ee1ff06f          	j	4234 <T18_start+0xd0>
    4358:	0004b737          	lui	a4,0x4b
    435c:	65f70713          	addi	a4,a4,1631 # 4b65f <_sp+0x2231f>
    4360:	00100513          	li	a0,1
    4364:	ecf758e3          	bge	a4,a5,4234 <T18_start+0xd0>
    4368:	00065737          	lui	a4,0x65
    436c:	87e70713          	addi	a4,a4,-1922 # 6487e <_sp+0x3b53e>
    4370:	40f707b3          	sub	a5,a4,a5
    4374:	fff00513          	li	a0,-1
    4378:	ebdff06f          	j	4234 <T18_start+0xd0>
    437c:	00178793          	addi	a5,a5,1
    4380:	00470713          	addi	a4,a4,4
    4384:	00b78c63          	beq	a5,a1,439c <T18_end+0xa4>
    4388:	00472683          	lw	a3,4(a4)
    438c:	fec6c8e3          	blt	a3,a2,437c <T18_end+0x84>
    4390:	00068613          	mv	a2,a3
    4394:	00078513          	mv	a0,a5
    4398:	fe5ff06f          	j	437c <T18_end+0x84>
    439c:	00020737          	lui	a4,0x20
    43a0:	000207b7          	lui	a5,0x20
    43a4:	03078793          	addi	a5,a5,48 # 20030 <next.2>
    43a8:	20f54533          	sh2add	a0,a0,a5
    43ac:	00052783          	lw	a5,0(a0)
    43b0:	17c70713          	addi	a4,a4,380 # 2017c <jump_table.21>
    43b4:	20e7c7b3          	sh2add	a5,a5,a4
    43b8:	0007a783          	lw	a5,0(a5)
    43bc:	fd8fc06f          	j	b94 <inferenceTPG+0x44>

000043c0 <T19_start>:
    43c0:	b00027f3          	csrr	a5,mcycle
    43c4:	00078b93          	mv	s7,a5
    43c8:	00492603          	lw	a2,4(s2)
    43cc:	00caa783          	lw	a5,12(s5)
    43d0:	00c787b3          	add	a5,a5,a2
    43d4:	02f12823          	sw	a5,48(sp)
    43d8:	02060463          	beqz	a2,4400 <T19_start+0x40>
    43dc:	0089a503          	lw	a0,8(s3)
    43e0:	41f55793          	srai	a5,a0,0x1f
    43e4:	01055593          	srli	a1,a0,0x10
    43e8:	01079793          	slli	a5,a5,0x10
    43ec:	41f65693          	srai	a3,a2,0x1f
    43f0:	01051513          	slli	a0,a0,0x10
    43f4:	00f585b3          	add	a1,a1,a5
    43f8:	2c1040ef          	jal	8eb8 <__divdi3>
    43fc:	00050613          	mv	a2,a0
    4400:	02c12a23          	sw	a2,52(sp)

00004404 <T19_end>:
    4404:	b00027f3          	csrr	a5,mcycle
    4408:	417787b3          	sub	a5,a5,s7
    440c:	04fa2623          	sw	a5,76(s4)
    4410:	00020737          	lui	a4,0x20
    4414:	03012783          	lw	a5,48(sp)
    4418:	03412603          	lw	a2,52(sp)
    441c:	00f627b3          	slt	a5,a2,a5
    4420:	0017b793          	seqz	a5,a5
    4424:	93018693          	addi	a3,gp,-1744 # 210a8 <next.1>
    4428:	20d7c7b3          	sh2add	a5,a5,a3
    442c:	0007a783          	lw	a5,0(a5)
    4430:	17c70713          	addi	a4,a4,380 # 2017c <jump_table.21>
    4434:	20e7c7b3          	sh2add	a5,a5,a4
    4438:	0007a783          	lw	a5,0(a5)
    443c:	f58fc06f          	j	b94 <inferenceTPG+0x44>
    4440:	00500793          	li	a5,5
    4444:	00fb2023          	sw	a5,0(s6)
    4448:	1bc12083          	lw	ra,444(sp)
    444c:	1b812483          	lw	s1,440(sp)
    4450:	1b412903          	lw	s2,436(sp)
    4454:	1b012983          	lw	s3,432(sp)
    4458:	1ac12a03          	lw	s4,428(sp)
    445c:	1a812a83          	lw	s5,424(sp)
    4460:	1a412b03          	lw	s6,420(sp)
    4464:	1a012b83          	lw	s7,416(sp)
    4468:	1c010113          	addi	sp,sp,448
    446c:	00008067          	ret
    4470:	00400793          	li	a5,4
    4474:	fd1ff06f          	j	4444 <T19_end+0x40>
    4478:	00800793          	li	a5,8
    447c:	fc9ff06f          	j	4444 <T19_end+0x40>
    4480:	00600793          	li	a5,6
    4484:	fc1ff06f          	j	4444 <T19_end+0x40>
    4488:	00300793          	li	a5,3
    448c:	fb9ff06f          	j	4444 <T19_end+0x40>
    4490:	00700793          	li	a5,7
    4494:	fb1ff06f          	j	4444 <T19_end+0x40>
    4498:	00100793          	li	a5,1
    449c:	fa9ff06f          	j	4444 <T19_end+0x40>
    44a0:	00200793          	li	a5,2
    44a4:	fa1ff06f          	j	4444 <T19_end+0x40>
    44a8:	00000793          	li	a5,0
    44ac:	f99ff06f          	j	4444 <T19_end+0x40>
    44b0:	18f12023          	sw	a5,384(sp)
    44b4:	18012223          	sw	zero,388(sp)
    44b8:	417007b3          	neg	a5,s7
    44bc:	18f12423          	sw	a5,392(sp)
    44c0:	000197b7          	lui	a5,0x19
    44c4:	22078793          	addi	a5,a5,544 # 19220 <heap.cpp.6b15d6f6+0x7553>
    44c8:	00078813          	mv	a6,a5
    44cc:	fffce737          	lui	a4,0xfffce
    44d0:	bc070713          	addi	a4,a4,-1088 # fffcdbc0 <_sp+0xfffa4880>
    44d4:	00e787b3          	add	a5,a5,a4
    44d8:	00019737          	lui	a4,0x19
    44dc:	21f70713          	addi	a4,a4,543 # 1921f <heap.cpp.6b15d6f6+0x7552>
    44e0:	ecf76463          	bltu	a4,a5,3ba8 <T16_end+0x374>
    44e4:	fffce7b7          	lui	a5,0xfffce
    44e8:	bc178793          	addi	a5,a5,-1087 # fffcdbc1 <_sp+0xfffa4881>
    44ec:	00f80833          	add	a6,a6,a5
    44f0:	fff00593          	li	a1,-1
    44f4:	a90ff06f          	j	3784 <T16_start+0xaa8>

000044f8 <handler_irq_fast_timer_1>:
    44f8:	fc010113          	addi	sp,sp,-64
    44fc:	02112e23          	sw	ra,60(sp)
    4500:	02512c23          	sw	t0,56(sp)
    4504:	02612a23          	sw	t1,52(sp)
    4508:	02712823          	sw	t2,48(sp)
    450c:	02a12623          	sw	a0,44(sp)
    4510:	02b12423          	sw	a1,40(sp)
    4514:	02c12223          	sw	a2,36(sp)
    4518:	02d12023          	sw	a3,32(sp)
    451c:	00e12e23          	sw	a4,28(sp)
    4520:	00f12c23          	sw	a5,24(sp)
    4524:	01012a23          	sw	a6,20(sp)
    4528:	01112823          	sw	a7,16(sp)
    452c:	01c12623          	sw	t3,12(sp)
    4530:	01d12423          	sw	t4,8(sp)
    4534:	01e12223          	sw	t5,4(sp)
    4538:	01f12023          	sw	t6,0(sp)
    453c:	200607b7          	lui	a5,0x20060
    4540:	00100713          	li	a4,1
    4544:	00e7a223          	sw	a4,4(a5) # 20060004 <_sp+0x20036cc4>
    4548:	e69fb0ef          	jal	3b0 <fic_irq_timer_1>
    454c:	03c12083          	lw	ra,60(sp)
    4550:	03812283          	lw	t0,56(sp)
    4554:	03412303          	lw	t1,52(sp)
    4558:	03012383          	lw	t2,48(sp)
    455c:	02c12503          	lw	a0,44(sp)
    4560:	02812583          	lw	a1,40(sp)
    4564:	02412603          	lw	a2,36(sp)
    4568:	02012683          	lw	a3,32(sp)
    456c:	01c12703          	lw	a4,28(sp)
    4570:	01812783          	lw	a5,24(sp)
    4574:	01412803          	lw	a6,20(sp)
    4578:	01012883          	lw	a7,16(sp)
    457c:	00c12e03          	lw	t3,12(sp)
    4580:	00812e83          	lw	t4,8(sp)
    4584:	00412f03          	lw	t5,4(sp)
    4588:	00012f83          	lw	t6,0(sp)
    458c:	04010113          	addi	sp,sp,64
    4590:	30200073          	mret

00004594 <handler_irq_fast_timer_2>:
    4594:	fc010113          	addi	sp,sp,-64
    4598:	02112e23          	sw	ra,60(sp)
    459c:	02512c23          	sw	t0,56(sp)
    45a0:	02612a23          	sw	t1,52(sp)
    45a4:	02712823          	sw	t2,48(sp)
    45a8:	02a12623          	sw	a0,44(sp)
    45ac:	02b12423          	sw	a1,40(sp)
    45b0:	02c12223          	sw	a2,36(sp)
    45b4:	02d12023          	sw	a3,32(sp)
    45b8:	00e12e23          	sw	a4,28(sp)
    45bc:	00f12c23          	sw	a5,24(sp)
    45c0:	01012a23          	sw	a6,20(sp)
    45c4:	01112823          	sw	a7,16(sp)
    45c8:	01c12623          	sw	t3,12(sp)
    45cc:	01d12423          	sw	t4,8(sp)
    45d0:	01e12223          	sw	t5,4(sp)
    45d4:	01f12023          	sw	t6,0(sp)
    45d8:	200607b7          	lui	a5,0x20060
    45dc:	00200713          	li	a4,2
    45e0:	00e7a223          	sw	a4,4(a5) # 20060004 <_sp+0x20036cc4>
    45e4:	df1fb0ef          	jal	3d4 <fic_irq_timer_2>
    45e8:	03c12083          	lw	ra,60(sp)
    45ec:	03812283          	lw	t0,56(sp)
    45f0:	03412303          	lw	t1,52(sp)
    45f4:	03012383          	lw	t2,48(sp)
    45f8:	02c12503          	lw	a0,44(sp)
    45fc:	02812583          	lw	a1,40(sp)
    4600:	02412603          	lw	a2,36(sp)
    4604:	02012683          	lw	a3,32(sp)
    4608:	01c12703          	lw	a4,28(sp)
    460c:	01812783          	lw	a5,24(sp)
    4610:	01412803          	lw	a6,20(sp)
    4614:	01012883          	lw	a7,16(sp)
    4618:	00c12e03          	lw	t3,12(sp)
    461c:	00812e83          	lw	t4,8(sp)
    4620:	00412f03          	lw	t5,4(sp)
    4624:	00012f83          	lw	t6,0(sp)
    4628:	04010113          	addi	sp,sp,64
    462c:	30200073          	mret

00004630 <handler_irq_fast_timer_3>:
    4630:	fc010113          	addi	sp,sp,-64
    4634:	02112e23          	sw	ra,60(sp)
    4638:	02512c23          	sw	t0,56(sp)
    463c:	02612a23          	sw	t1,52(sp)
    4640:	02712823          	sw	t2,48(sp)
    4644:	02a12623          	sw	a0,44(sp)
    4648:	02b12423          	sw	a1,40(sp)
    464c:	02c12223          	sw	a2,36(sp)
    4650:	02d12023          	sw	a3,32(sp)
    4654:	00e12e23          	sw	a4,28(sp)
    4658:	00f12c23          	sw	a5,24(sp)
    465c:	01012a23          	sw	a6,20(sp)
    4660:	01112823          	sw	a7,16(sp)
    4664:	01c12623          	sw	t3,12(sp)
    4668:	01d12423          	sw	t4,8(sp)
    466c:	01e12223          	sw	t5,4(sp)
    4670:	01f12023          	sw	t6,0(sp)
    4674:	200607b7          	lui	a5,0x20060
    4678:	00400713          	li	a4,4
    467c:	00e7a223          	sw	a4,4(a5) # 20060004 <_sp+0x20036cc4>
    4680:	d79fb0ef          	jal	3f8 <fic_irq_timer_3>
    4684:	03c12083          	lw	ra,60(sp)
    4688:	03812283          	lw	t0,56(sp)
    468c:	03412303          	lw	t1,52(sp)
    4690:	03012383          	lw	t2,48(sp)
    4694:	02c12503          	lw	a0,44(sp)
    4698:	02812583          	lw	a1,40(sp)
    469c:	02412603          	lw	a2,36(sp)
    46a0:	02012683          	lw	a3,32(sp)
    46a4:	01c12703          	lw	a4,28(sp)
    46a8:	01812783          	lw	a5,24(sp)
    46ac:	01412803          	lw	a6,20(sp)
    46b0:	01012883          	lw	a7,16(sp)
    46b4:	00c12e03          	lw	t3,12(sp)
    46b8:	00812e83          	lw	t4,8(sp)
    46bc:	00412f03          	lw	t5,4(sp)
    46c0:	00012f83          	lw	t6,0(sp)
    46c4:	04010113          	addi	sp,sp,64
    46c8:	30200073          	mret

000046cc <handler_irq_fast_dma_done>:
    46cc:	fc010113          	addi	sp,sp,-64
    46d0:	02112e23          	sw	ra,60(sp)
    46d4:	02512c23          	sw	t0,56(sp)
    46d8:	02612a23          	sw	t1,52(sp)
    46dc:	02712823          	sw	t2,48(sp)
    46e0:	02a12623          	sw	a0,44(sp)
    46e4:	02b12423          	sw	a1,40(sp)
    46e8:	02c12223          	sw	a2,36(sp)
    46ec:	02d12023          	sw	a3,32(sp)
    46f0:	00e12e23          	sw	a4,28(sp)
    46f4:	00f12c23          	sw	a5,24(sp)
    46f8:	01012a23          	sw	a6,20(sp)
    46fc:	01112823          	sw	a7,16(sp)
    4700:	01c12623          	sw	t3,12(sp)
    4704:	01d12423          	sw	t4,8(sp)
    4708:	01e12223          	sw	t5,4(sp)
    470c:	01f12023          	sw	t6,0(sp)
    4710:	200607b7          	lui	a5,0x20060
    4714:	00800713          	li	a4,8
    4718:	00e7a223          	sw	a4,4(a5) # 20060004 <_sp+0x20036cc4>
    471c:	b99fb0ef          	jal	2b4 <fic_irq_dma_done>
    4720:	03c12083          	lw	ra,60(sp)
    4724:	03812283          	lw	t0,56(sp)
    4728:	03412303          	lw	t1,52(sp)
    472c:	03012383          	lw	t2,48(sp)
    4730:	02c12503          	lw	a0,44(sp)
    4734:	02812583          	lw	a1,40(sp)
    4738:	02412603          	lw	a2,36(sp)
    473c:	02012683          	lw	a3,32(sp)
    4740:	01c12703          	lw	a4,28(sp)
    4744:	01812783          	lw	a5,24(sp)
    4748:	01412803          	lw	a6,20(sp)
    474c:	01012883          	lw	a7,16(sp)
    4750:	00c12e03          	lw	t3,12(sp)
    4754:	00812e83          	lw	t4,8(sp)
    4758:	00412f03          	lw	t5,4(sp)
    475c:	00012f83          	lw	t6,0(sp)
    4760:	04010113          	addi	sp,sp,64
    4764:	30200073          	mret

00004768 <handler_irq_fast_dma_window>:
    4768:	fc010113          	addi	sp,sp,-64
    476c:	02112e23          	sw	ra,60(sp)
    4770:	02512c23          	sw	t0,56(sp)
    4774:	02612a23          	sw	t1,52(sp)
    4778:	02712823          	sw	t2,48(sp)
    477c:	02a12623          	sw	a0,44(sp)
    4780:	02b12423          	sw	a1,40(sp)
    4784:	02c12223          	sw	a2,36(sp)
    4788:	02d12023          	sw	a3,32(sp)
    478c:	00e12e23          	sw	a4,28(sp)
    4790:	00f12c23          	sw	a5,24(sp)
    4794:	01012a23          	sw	a6,20(sp)
    4798:	01112823          	sw	a7,16(sp)
    479c:	01c12623          	sw	t3,12(sp)
    47a0:	01d12423          	sw	t4,8(sp)
    47a4:	01e12223          	sw	t5,4(sp)
    47a8:	01f12023          	sw	t6,0(sp)
    47ac:	200607b7          	lui	a5,0x20060
    47b0:	00004737          	lui	a4,0x4
    47b4:	00e7a223          	sw	a4,4(a5) # 20060004 <_sp+0x20036cc4>
    47b8:	a7dfb0ef          	jal	234 <fic_irq_dma_window>
    47bc:	03c12083          	lw	ra,60(sp)
    47c0:	03812283          	lw	t0,56(sp)
    47c4:	03412303          	lw	t1,52(sp)
    47c8:	03012383          	lw	t2,48(sp)
    47cc:	02c12503          	lw	a0,44(sp)
    47d0:	02812583          	lw	a1,40(sp)
    47d4:	02412603          	lw	a2,36(sp)
    47d8:	02012683          	lw	a3,32(sp)
    47dc:	01c12703          	lw	a4,28(sp)
    47e0:	01812783          	lw	a5,24(sp)
    47e4:	01412803          	lw	a6,20(sp)
    47e8:	01012883          	lw	a7,16(sp)
    47ec:	00c12e03          	lw	t3,12(sp)
    47f0:	00812e83          	lw	t4,8(sp)
    47f4:	00412f03          	lw	t5,4(sp)
    47f8:	00012f83          	lw	t6,0(sp)
    47fc:	04010113          	addi	sp,sp,64
    4800:	30200073          	mret

00004804 <handler_irq_fast_external_peripheral>:
    4804:	fc010113          	addi	sp,sp,-64
    4808:	02112e23          	sw	ra,60(sp)
    480c:	02512c23          	sw	t0,56(sp)
    4810:	02612a23          	sw	t1,52(sp)
    4814:	02712823          	sw	t2,48(sp)
    4818:	02a12623          	sw	a0,44(sp)
    481c:	02b12423          	sw	a1,40(sp)
    4820:	02c12223          	sw	a2,36(sp)
    4824:	02d12023          	sw	a3,32(sp)
    4828:	00e12e23          	sw	a4,28(sp)
    482c:	00f12c23          	sw	a5,24(sp)
    4830:	01012a23          	sw	a6,20(sp)
    4834:	01112823          	sw	a7,16(sp)
    4838:	01c12623          	sw	t3,12(sp)
    483c:	01d12423          	sw	t4,8(sp)
    4840:	01e12223          	sw	t5,4(sp)
    4844:	01f12023          	sw	t6,0(sp)
    4848:	200607b7          	lui	a5,0x20060
    484c:	00008737          	lui	a4,0x8
    4850:	00e7a223          	sw	a4,4(a5) # 20060004 <_sp+0x20036cc4>
    4854:	bc9fb0ef          	jal	41c <fic_irq_ext_peripheral>
    4858:	03c12083          	lw	ra,60(sp)
    485c:	03812283          	lw	t0,56(sp)
    4860:	03412303          	lw	t1,52(sp)
    4864:	03012383          	lw	t2,48(sp)
    4868:	02c12503          	lw	a0,44(sp)
    486c:	02812583          	lw	a1,40(sp)
    4870:	02412603          	lw	a2,36(sp)
    4874:	02012683          	lw	a3,32(sp)
    4878:	01c12703          	lw	a4,28(sp)
    487c:	01812783          	lw	a5,24(sp)
    4880:	01412803          	lw	a6,20(sp)
    4884:	01012883          	lw	a7,16(sp)
    4888:	00c12e03          	lw	t3,12(sp)
    488c:	00812e83          	lw	t4,8(sp)
    4890:	00412f03          	lw	t5,4(sp)
    4894:	00012f83          	lw	t6,0(sp)
    4898:	04010113          	addi	sp,sp,64
    489c:	30200073          	mret

000048a0 <handler_irq_fast_gpio_0>:
    48a0:	fc010113          	addi	sp,sp,-64
    48a4:	02112e23          	sw	ra,60(sp)
    48a8:	02512c23          	sw	t0,56(sp)
    48ac:	02612a23          	sw	t1,52(sp)
    48b0:	02712823          	sw	t2,48(sp)
    48b4:	02a12623          	sw	a0,44(sp)
    48b8:	02b12423          	sw	a1,40(sp)
    48bc:	02c12223          	sw	a2,36(sp)
    48c0:	02d12023          	sw	a3,32(sp)
    48c4:	00e12e23          	sw	a4,28(sp)
    48c8:	00f12c23          	sw	a5,24(sp)
    48cc:	01012a23          	sw	a6,20(sp)
    48d0:	01112823          	sw	a7,16(sp)
    48d4:	01c12623          	sw	t3,12(sp)
    48d8:	01d12423          	sw	t4,8(sp)
    48dc:	01e12223          	sw	t5,4(sp)
    48e0:	01f12023          	sw	t6,0(sp)
    48e4:	200607b7          	lui	a5,0x20060
    48e8:	04000713          	li	a4,64
    48ec:	00e7a223          	sw	a4,4(a5) # 20060004 <_sp+0x20036cc4>
    48f0:	b51fb0ef          	jal	440 <fic_irq_gpio_0>
    48f4:	03c12083          	lw	ra,60(sp)
    48f8:	03812283          	lw	t0,56(sp)
    48fc:	03412303          	lw	t1,52(sp)
    4900:	03012383          	lw	t2,48(sp)
    4904:	02c12503          	lw	a0,44(sp)
    4908:	02812583          	lw	a1,40(sp)
    490c:	02412603          	lw	a2,36(sp)
    4910:	02012683          	lw	a3,32(sp)
    4914:	01c12703          	lw	a4,28(sp)
    4918:	01812783          	lw	a5,24(sp)
    491c:	01412803          	lw	a6,20(sp)
    4920:	01012883          	lw	a7,16(sp)
    4924:	00c12e03          	lw	t3,12(sp)
    4928:	00812e83          	lw	t4,8(sp)
    492c:	00412f03          	lw	t5,4(sp)
    4930:	00012f83          	lw	t6,0(sp)
    4934:	04010113          	addi	sp,sp,64
    4938:	30200073          	mret

0000493c <handler_irq_fast_gpio_1>:
    493c:	fc010113          	addi	sp,sp,-64
    4940:	02112e23          	sw	ra,60(sp)
    4944:	02512c23          	sw	t0,56(sp)
    4948:	02612a23          	sw	t1,52(sp)
    494c:	02712823          	sw	t2,48(sp)
    4950:	02a12623          	sw	a0,44(sp)
    4954:	02b12423          	sw	a1,40(sp)
    4958:	02c12223          	sw	a2,36(sp)
    495c:	02d12023          	sw	a3,32(sp)
    4960:	00e12e23          	sw	a4,28(sp)
    4964:	00f12c23          	sw	a5,24(sp)
    4968:	01012a23          	sw	a6,20(sp)
    496c:	01112823          	sw	a7,16(sp)
    4970:	01c12623          	sw	t3,12(sp)
    4974:	01d12423          	sw	t4,8(sp)
    4978:	01e12223          	sw	t5,4(sp)
    497c:	01f12023          	sw	t6,0(sp)
    4980:	200607b7          	lui	a5,0x20060
    4984:	08000713          	li	a4,128
    4988:	00e7a223          	sw	a4,4(a5) # 20060004 <_sp+0x20036cc4>
    498c:	ad9fb0ef          	jal	464 <fic_irq_gpio_1>
    4990:	03c12083          	lw	ra,60(sp)
    4994:	03812283          	lw	t0,56(sp)
    4998:	03412303          	lw	t1,52(sp)
    499c:	03012383          	lw	t2,48(sp)
    49a0:	02c12503          	lw	a0,44(sp)
    49a4:	02812583          	lw	a1,40(sp)
    49a8:	02412603          	lw	a2,36(sp)
    49ac:	02012683          	lw	a3,32(sp)
    49b0:	01c12703          	lw	a4,28(sp)
    49b4:	01812783          	lw	a5,24(sp)
    49b8:	01412803          	lw	a6,20(sp)
    49bc:	01012883          	lw	a7,16(sp)
    49c0:	00c12e03          	lw	t3,12(sp)
    49c4:	00812e83          	lw	t4,8(sp)
    49c8:	00412f03          	lw	t5,4(sp)
    49cc:	00012f83          	lw	t6,0(sp)
    49d0:	04010113          	addi	sp,sp,64
    49d4:	30200073          	mret

000049d8 <handler_irq_fast_gpio_2>:
    49d8:	fc010113          	addi	sp,sp,-64
    49dc:	02112e23          	sw	ra,60(sp)
    49e0:	02512c23          	sw	t0,56(sp)
    49e4:	02612a23          	sw	t1,52(sp)
    49e8:	02712823          	sw	t2,48(sp)
    49ec:	02a12623          	sw	a0,44(sp)
    49f0:	02b12423          	sw	a1,40(sp)
    49f4:	02c12223          	sw	a2,36(sp)
    49f8:	02d12023          	sw	a3,32(sp)
    49fc:	00e12e23          	sw	a4,28(sp)
    4a00:	00f12c23          	sw	a5,24(sp)
    4a04:	01012a23          	sw	a6,20(sp)
    4a08:	01112823          	sw	a7,16(sp)
    4a0c:	01c12623          	sw	t3,12(sp)
    4a10:	01d12423          	sw	t4,8(sp)
    4a14:	01e12223          	sw	t5,4(sp)
    4a18:	01f12023          	sw	t6,0(sp)
    4a1c:	200607b7          	lui	a5,0x20060
    4a20:	10000713          	li	a4,256
    4a24:	00e7a223          	sw	a4,4(a5) # 20060004 <_sp+0x20036cc4>
    4a28:	a61fb0ef          	jal	488 <fic_irq_gpio_2>
    4a2c:	03c12083          	lw	ra,60(sp)
    4a30:	03812283          	lw	t0,56(sp)
    4a34:	03412303          	lw	t1,52(sp)
    4a38:	03012383          	lw	t2,48(sp)
    4a3c:	02c12503          	lw	a0,44(sp)
    4a40:	02812583          	lw	a1,40(sp)
    4a44:	02412603          	lw	a2,36(sp)
    4a48:	02012683          	lw	a3,32(sp)
    4a4c:	01c12703          	lw	a4,28(sp)
    4a50:	01812783          	lw	a5,24(sp)
    4a54:	01412803          	lw	a6,20(sp)
    4a58:	01012883          	lw	a7,16(sp)
    4a5c:	00c12e03          	lw	t3,12(sp)
    4a60:	00812e83          	lw	t4,8(sp)
    4a64:	00412f03          	lw	t5,4(sp)
    4a68:	00012f83          	lw	t6,0(sp)
    4a6c:	04010113          	addi	sp,sp,64
    4a70:	30200073          	mret

00004a74 <handler_irq_fast_gpio_3>:
    4a74:	fc010113          	addi	sp,sp,-64
    4a78:	02112e23          	sw	ra,60(sp)
    4a7c:	02512c23          	sw	t0,56(sp)
    4a80:	02612a23          	sw	t1,52(sp)
    4a84:	02712823          	sw	t2,48(sp)
    4a88:	02a12623          	sw	a0,44(sp)
    4a8c:	02b12423          	sw	a1,40(sp)
    4a90:	02c12223          	sw	a2,36(sp)
    4a94:	02d12023          	sw	a3,32(sp)
    4a98:	00e12e23          	sw	a4,28(sp)
    4a9c:	00f12c23          	sw	a5,24(sp)
    4aa0:	01012a23          	sw	a6,20(sp)
    4aa4:	01112823          	sw	a7,16(sp)
    4aa8:	01c12623          	sw	t3,12(sp)
    4aac:	01d12423          	sw	t4,8(sp)
    4ab0:	01e12223          	sw	t5,4(sp)
    4ab4:	01f12023          	sw	t6,0(sp)
    4ab8:	200607b7          	lui	a5,0x20060
    4abc:	20000713          	li	a4,512
    4ac0:	00e7a223          	sw	a4,4(a5) # 20060004 <_sp+0x20036cc4>
    4ac4:	9e9fb0ef          	jal	4ac <fic_irq_gpio_3>
    4ac8:	03c12083          	lw	ra,60(sp)
    4acc:	03812283          	lw	t0,56(sp)
    4ad0:	03412303          	lw	t1,52(sp)
    4ad4:	03012383          	lw	t2,48(sp)
    4ad8:	02c12503          	lw	a0,44(sp)
    4adc:	02812583          	lw	a1,40(sp)
    4ae0:	02412603          	lw	a2,36(sp)
    4ae4:	02012683          	lw	a3,32(sp)
    4ae8:	01c12703          	lw	a4,28(sp)
    4aec:	01812783          	lw	a5,24(sp)
    4af0:	01412803          	lw	a6,20(sp)
    4af4:	01012883          	lw	a7,16(sp)
    4af8:	00c12e03          	lw	t3,12(sp)
    4afc:	00812e83          	lw	t4,8(sp)
    4b00:	00412f03          	lw	t5,4(sp)
    4b04:	00012f83          	lw	t6,0(sp)
    4b08:	04010113          	addi	sp,sp,64
    4b0c:	30200073          	mret

00004b10 <handler_irq_fast_gpio_4>:
    4b10:	fc010113          	addi	sp,sp,-64
    4b14:	02112e23          	sw	ra,60(sp)
    4b18:	02512c23          	sw	t0,56(sp)
    4b1c:	02612a23          	sw	t1,52(sp)
    4b20:	02712823          	sw	t2,48(sp)
    4b24:	02a12623          	sw	a0,44(sp)
    4b28:	02b12423          	sw	a1,40(sp)
    4b2c:	02c12223          	sw	a2,36(sp)
    4b30:	02d12023          	sw	a3,32(sp)
    4b34:	00e12e23          	sw	a4,28(sp)
    4b38:	00f12c23          	sw	a5,24(sp)
    4b3c:	01012a23          	sw	a6,20(sp)
    4b40:	01112823          	sw	a7,16(sp)
    4b44:	01c12623          	sw	t3,12(sp)
    4b48:	01d12423          	sw	t4,8(sp)
    4b4c:	01e12223          	sw	t5,4(sp)
    4b50:	01f12023          	sw	t6,0(sp)
    4b54:	200607b7          	lui	a5,0x20060
    4b58:	40000713          	li	a4,1024
    4b5c:	00e7a223          	sw	a4,4(a5) # 20060004 <_sp+0x20036cc4>
    4b60:	971fb0ef          	jal	4d0 <fic_irq_gpio_4>
    4b64:	03c12083          	lw	ra,60(sp)
    4b68:	03812283          	lw	t0,56(sp)
    4b6c:	03412303          	lw	t1,52(sp)
    4b70:	03012383          	lw	t2,48(sp)
    4b74:	02c12503          	lw	a0,44(sp)
    4b78:	02812583          	lw	a1,40(sp)
    4b7c:	02412603          	lw	a2,36(sp)
    4b80:	02012683          	lw	a3,32(sp)
    4b84:	01c12703          	lw	a4,28(sp)
    4b88:	01812783          	lw	a5,24(sp)
    4b8c:	01412803          	lw	a6,20(sp)
    4b90:	01012883          	lw	a7,16(sp)
    4b94:	00c12e03          	lw	t3,12(sp)
    4b98:	00812e83          	lw	t4,8(sp)
    4b9c:	00412f03          	lw	t5,4(sp)
    4ba0:	00012f83          	lw	t6,0(sp)
    4ba4:	04010113          	addi	sp,sp,64
    4ba8:	30200073          	mret

00004bac <handler_irq_fast_gpio_5>:
    4bac:	fc010113          	addi	sp,sp,-64
    4bb0:	02112e23          	sw	ra,60(sp)
    4bb4:	02512c23          	sw	t0,56(sp)
    4bb8:	02612a23          	sw	t1,52(sp)
    4bbc:	02712823          	sw	t2,48(sp)
    4bc0:	02a12623          	sw	a0,44(sp)
    4bc4:	02b12423          	sw	a1,40(sp)
    4bc8:	02c12223          	sw	a2,36(sp)
    4bcc:	02d12023          	sw	a3,32(sp)
    4bd0:	00e12e23          	sw	a4,28(sp)
    4bd4:	00f12c23          	sw	a5,24(sp)
    4bd8:	01012a23          	sw	a6,20(sp)
    4bdc:	01112823          	sw	a7,16(sp)
    4be0:	01c12623          	sw	t3,12(sp)
    4be4:	01d12423          	sw	t4,8(sp)
    4be8:	01e12223          	sw	t5,4(sp)
    4bec:	01f12023          	sw	t6,0(sp)
    4bf0:	20060737          	lui	a4,0x20060
    4bf4:	000017b7          	lui	a5,0x1
    4bf8:	80078793          	addi	a5,a5,-2048 # 800 <spi_event_handler+0x110>
    4bfc:	00f72223          	sw	a5,4(a4) # 20060004 <_sp+0x20036cc4>
    4c00:	8f5fb0ef          	jal	4f4 <fic_irq_gpio_5>
    4c04:	03c12083          	lw	ra,60(sp)
    4c08:	03812283          	lw	t0,56(sp)
    4c0c:	03412303          	lw	t1,52(sp)
    4c10:	03012383          	lw	t2,48(sp)
    4c14:	02c12503          	lw	a0,44(sp)
    4c18:	02812583          	lw	a1,40(sp)
    4c1c:	02412603          	lw	a2,36(sp)
    4c20:	02012683          	lw	a3,32(sp)
    4c24:	01c12703          	lw	a4,28(sp)
    4c28:	01812783          	lw	a5,24(sp)
    4c2c:	01412803          	lw	a6,20(sp)
    4c30:	01012883          	lw	a7,16(sp)
    4c34:	00c12e03          	lw	t3,12(sp)
    4c38:	00812e83          	lw	t4,8(sp)
    4c3c:	00412f03          	lw	t5,4(sp)
    4c40:	00012f83          	lw	t6,0(sp)
    4c44:	04010113          	addi	sp,sp,64
    4c48:	30200073          	mret

00004c4c <handler_irq_fast_gpio_6>:
    4c4c:	fc010113          	addi	sp,sp,-64
    4c50:	02112e23          	sw	ra,60(sp)
    4c54:	02512c23          	sw	t0,56(sp)
    4c58:	02612a23          	sw	t1,52(sp)
    4c5c:	02712823          	sw	t2,48(sp)
    4c60:	02a12623          	sw	a0,44(sp)
    4c64:	02b12423          	sw	a1,40(sp)
    4c68:	02c12223          	sw	a2,36(sp)
    4c6c:	02d12023          	sw	a3,32(sp)
    4c70:	00e12e23          	sw	a4,28(sp)
    4c74:	00f12c23          	sw	a5,24(sp)
    4c78:	01012a23          	sw	a6,20(sp)
    4c7c:	01112823          	sw	a7,16(sp)
    4c80:	01c12623          	sw	t3,12(sp)
    4c84:	01d12423          	sw	t4,8(sp)
    4c88:	01e12223          	sw	t5,4(sp)
    4c8c:	01f12023          	sw	t6,0(sp)
    4c90:	200607b7          	lui	a5,0x20060
    4c94:	00001737          	lui	a4,0x1
    4c98:	00e7a223          	sw	a4,4(a5) # 20060004 <_sp+0x20036cc4>
    4c9c:	87dfb0ef          	jal	518 <fic_irq_gpio_6>
    4ca0:	03c12083          	lw	ra,60(sp)
    4ca4:	03812283          	lw	t0,56(sp)
    4ca8:	03412303          	lw	t1,52(sp)
    4cac:	03012383          	lw	t2,48(sp)
    4cb0:	02c12503          	lw	a0,44(sp)
    4cb4:	02812583          	lw	a1,40(sp)
    4cb8:	02412603          	lw	a2,36(sp)
    4cbc:	02012683          	lw	a3,32(sp)
    4cc0:	01c12703          	lw	a4,28(sp)
    4cc4:	01812783          	lw	a5,24(sp)
    4cc8:	01412803          	lw	a6,20(sp)
    4ccc:	01012883          	lw	a7,16(sp)
    4cd0:	00c12e03          	lw	t3,12(sp)
    4cd4:	00812e83          	lw	t4,8(sp)
    4cd8:	00412f03          	lw	t5,4(sp)
    4cdc:	00012f83          	lw	t6,0(sp)
    4ce0:	04010113          	addi	sp,sp,64
    4ce4:	30200073          	mret

00004ce8 <handler_irq_fast_gpio_7>:
    4ce8:	fc010113          	addi	sp,sp,-64
    4cec:	02112e23          	sw	ra,60(sp)
    4cf0:	02512c23          	sw	t0,56(sp)
    4cf4:	02612a23          	sw	t1,52(sp)
    4cf8:	02712823          	sw	t2,48(sp)
    4cfc:	02a12623          	sw	a0,44(sp)
    4d00:	02b12423          	sw	a1,40(sp)
    4d04:	02c12223          	sw	a2,36(sp)
    4d08:	02d12023          	sw	a3,32(sp)
    4d0c:	00e12e23          	sw	a4,28(sp)
    4d10:	00f12c23          	sw	a5,24(sp)
    4d14:	01012a23          	sw	a6,20(sp)
    4d18:	01112823          	sw	a7,16(sp)
    4d1c:	01c12623          	sw	t3,12(sp)
    4d20:	01d12423          	sw	t4,8(sp)
    4d24:	01e12223          	sw	t5,4(sp)
    4d28:	01f12023          	sw	t6,0(sp)
    4d2c:	200607b7          	lui	a5,0x20060
    4d30:	00002737          	lui	a4,0x2
    4d34:	00e7a223          	sw	a4,4(a5) # 20060004 <_sp+0x20036cc4>
    4d38:	805fb0ef          	jal	53c <fic_irq_gpio_7>
    4d3c:	03c12083          	lw	ra,60(sp)
    4d40:	03812283          	lw	t0,56(sp)
    4d44:	03412303          	lw	t1,52(sp)
    4d48:	03012383          	lw	t2,48(sp)
    4d4c:	02c12503          	lw	a0,44(sp)
    4d50:	02812583          	lw	a1,40(sp)
    4d54:	02412603          	lw	a2,36(sp)
    4d58:	02012683          	lw	a3,32(sp)
    4d5c:	01c12703          	lw	a4,28(sp)
    4d60:	01812783          	lw	a5,24(sp)
    4d64:	01412803          	lw	a6,20(sp)
    4d68:	01012883          	lw	a7,16(sp)
    4d6c:	00c12e03          	lw	t3,12(sp)
    4d70:	00812e83          	lw	t4,8(sp)
    4d74:	00412f03          	lw	t5,4(sp)
    4d78:	00012f83          	lw	t6,0(sp)
    4d7c:	04010113          	addi	sp,sp,64
    4d80:	30200073          	mret

00004d84 <handler_irq_external>:
    4d84:	fb010113          	addi	sp,sp,-80
    4d88:	04112623          	sw	ra,76(sp)
    4d8c:	04512423          	sw	t0,72(sp)
    4d90:	04612223          	sw	t1,68(sp)
    4d94:	04712023          	sw	t2,64(sp)
    4d98:	02912e23          	sw	s1,60(sp)
    4d9c:	02a12c23          	sw	a0,56(sp)
    4da0:	02b12a23          	sw	a1,52(sp)
    4da4:	02c12823          	sw	a2,48(sp)
    4da8:	02d12623          	sw	a3,44(sp)
    4dac:	02e12423          	sw	a4,40(sp)
    4db0:	02f12223          	sw	a5,36(sp)
    4db4:	03012023          	sw	a6,32(sp)
    4db8:	01112e23          	sw	a7,28(sp)
    4dbc:	01212c23          	sw	s2,24(sp)
    4dc0:	01c12a23          	sw	t3,20(sp)
    4dc4:	01d12823          	sw	t4,16(sp)
    4dc8:	01e12623          	sw	t5,12(sp)
    4dcc:	01f12423          	sw	t6,8(sp)
    4dd0:	300004b7          	lui	s1,0x30000
    4dd4:	20c4a903          	lw	s2,524(s1) # 3000020c <_sp+0x2ffd6ecc>
    4dd8:	00090513          	mv	a0,s2
    4ddc:	00000793          	li	a5,0
    4de0:	000780e7          	jalr	a5
    4de4:	2124a623          	sw	s2,524(s1)
    4de8:	04c12083          	lw	ra,76(sp)
    4dec:	04812283          	lw	t0,72(sp)
    4df0:	04412303          	lw	t1,68(sp)
    4df4:	04012383          	lw	t2,64(sp)
    4df8:	03c12483          	lw	s1,60(sp)
    4dfc:	03812503          	lw	a0,56(sp)
    4e00:	03412583          	lw	a1,52(sp)
    4e04:	03012603          	lw	a2,48(sp)
    4e08:	02c12683          	lw	a3,44(sp)
    4e0c:	02812703          	lw	a4,40(sp)
    4e10:	02412783          	lw	a5,36(sp)
    4e14:	02012803          	lw	a6,32(sp)
    4e18:	01c12883          	lw	a7,28(sp)
    4e1c:	01812903          	lw	s2,24(sp)
    4e20:	01412e03          	lw	t3,20(sp)
    4e24:	01012e83          	lw	t4,16(sp)
    4e28:	00c12f03          	lw	t5,12(sp)
    4e2c:	00812f83          	lw	t6,8(sp)
    4e30:	05010113          	addi	sp,sp,80
    4e34:	30200073          	mret

00004e38 <handler_exception>:
    4e38:	fc010113          	addi	sp,sp,-64
    4e3c:	02112e23          	sw	ra,60(sp)
    4e40:	02512c23          	sw	t0,56(sp)
    4e44:	02612a23          	sw	t1,52(sp)
    4e48:	02712823          	sw	t2,48(sp)
    4e4c:	02a12623          	sw	a0,44(sp)
    4e50:	02b12423          	sw	a1,40(sp)
    4e54:	02c12223          	sw	a2,36(sp)
    4e58:	02d12023          	sw	a3,32(sp)
    4e5c:	00e12e23          	sw	a4,28(sp)
    4e60:	00f12c23          	sw	a5,24(sp)
    4e64:	01012a23          	sw	a6,20(sp)
    4e68:	01112823          	sw	a7,16(sp)
    4e6c:	01c12623          	sw	t3,12(sp)
    4e70:	01d12423          	sw	t4,8(sp)
    4e74:	01e12223          	sw	t5,4(sp)
    4e78:	01f12023          	sw	t6,0(sp)
    4e7c:	342027f3          	csrr	a5,mcause
    4e80:	01f7f793          	andi	a5,a5,31
    4e84:	00b00713          	li	a4,11
    4e88:	06f76863          	bltu	a4,a5,4ef8 <handler_exception+0xc0>
    4e8c:	00020737          	lui	a4,0x20
    4e90:	00070713          	mv	a4,a4
    4e94:	20e7c7b3          	sh2add	a5,a5,a4
    4e98:	0007a783          	lw	a5,0(a5)
    4e9c:	00078067          	jr	a5
    4ea0:	00020537          	lui	a0,0x20
    4ea4:	42c50513          	addi	a0,a0,1068 # 2042c <__clz_tab+0x1c0>
    4ea8:	c55fb0ef          	jal	afc <print_exc_msg>
    4eac:	00020537          	lui	a0,0x20
    4eb0:	42c50513          	addi	a0,a0,1068 # 2042c <__clz_tab+0x1c0>
    4eb4:	c49fb0ef          	jal	afc <print_exc_msg>
    4eb8:	00020537          	lui	a0,0x20
    4ebc:	46450513          	addi	a0,a0,1124 # 20464 <__clz_tab+0x1f8>
    4ec0:	c3dfb0ef          	jal	afc <print_exc_msg>
    4ec4:	00020537          	lui	a0,0x20
    4ec8:	4a050513          	addi	a0,a0,1184 # 204a0 <__clz_tab+0x234>
    4ecc:	c31fb0ef          	jal	afc <print_exc_msg>
    4ed0:	00020537          	lui	a0,0x20
    4ed4:	4dc50513          	addi	a0,a0,1244 # 204dc <__clz_tab+0x270>
    4ed8:	c25fb0ef          	jal	afc <print_exc_msg>
    4edc:	00020537          	lui	a0,0x20
    4ee0:	4dc50513          	addi	a0,a0,1244 # 204dc <__clz_tab+0x270>
    4ee4:	c19fb0ef          	jal	afc <print_exc_msg>
    4ee8:	00020537          	lui	a0,0x20
    4eec:	51050513          	addi	a0,a0,1296 # 20510 <__clz_tab+0x2a4>
    4ef0:	bd9fb0ef          	jal	ac8 <_writestr>
    4ef4:	0000006f          	j	4ef4 <handler_exception+0xbc>
    4ef8:	0000006f          	j	4ef8 <handler_exception+0xc0>

00004efc <handler_irq_software>:
    4efc:	fc010113          	addi	sp,sp,-64
    4f00:	02112e23          	sw	ra,60(sp)
    4f04:	02512c23          	sw	t0,56(sp)
    4f08:	02612a23          	sw	t1,52(sp)
    4f0c:	02712823          	sw	t2,48(sp)
    4f10:	02a12623          	sw	a0,44(sp)
    4f14:	02b12423          	sw	a1,40(sp)
    4f18:	02c12223          	sw	a2,36(sp)
    4f1c:	02d12023          	sw	a3,32(sp)
    4f20:	00e12e23          	sw	a4,28(sp)
    4f24:	00f12c23          	sw	a5,24(sp)
    4f28:	01012a23          	sw	a6,20(sp)
    4f2c:	01112823          	sw	a7,16(sp)
    4f30:	01c12623          	sw	t3,12(sp)
    4f34:	01d12423          	sw	t4,8(sp)
    4f38:	01e12223          	sw	t5,4(sp)
    4f3c:	01f12023          	sw	t6,0(sp)
    4f40:	00020537          	lui	a0,0x20
    4f44:	53050513          	addi	a0,a0,1328 # 20530 <__clz_tab+0x2c4>
    4f48:	b81fb0ef          	jal	ac8 <_writestr>
    4f4c:	0000006f          	j	4f4c <handler_irq_software+0x50>

00004f50 <handler_irq_timer>:
    4f50:	fc010113          	addi	sp,sp,-64
    4f54:	02112e23          	sw	ra,60(sp)
    4f58:	02512c23          	sw	t0,56(sp)
    4f5c:	02612a23          	sw	t1,52(sp)
    4f60:	02712823          	sw	t2,48(sp)
    4f64:	02a12623          	sw	a0,44(sp)
    4f68:	02b12423          	sw	a1,40(sp)
    4f6c:	02c12223          	sw	a2,36(sp)
    4f70:	02d12023          	sw	a3,32(sp)
    4f74:	00e12e23          	sw	a4,28(sp)
    4f78:	00f12c23          	sw	a5,24(sp)
    4f7c:	01012a23          	sw	a6,20(sp)
    4f80:	01112823          	sw	a7,16(sp)
    4f84:	01c12623          	sw	t3,12(sp)
    4f88:	01d12423          	sw	t4,8(sp)
    4f8c:	01e12223          	sw	t5,4(sp)
    4f90:	01f12023          	sw	t6,0(sp)
    4f94:	00020537          	lui	a0,0x20
    4f98:	54c50513          	addi	a0,a0,1356 # 2054c <__clz_tab+0x2e0>
    4f9c:	b2dfb0ef          	jal	ac8 <_writestr>
    4fa0:	0000006f          	j	4fa0 <handler_irq_timer+0x50>

00004fa4 <init>:
    4fa4:	00000513          	li	a0,0
    4fa8:	00008067          	ret

00004fac <_close>:
    4fac:	fff00513          	li	a0,-1
    4fb0:	00008067          	ret

00004fb4 <_exit>:
    4fb4:	200007b7          	lui	a5,0x20000
    4fb8:	00a7a223          	sw	a0,4(a5) # 20000004 <_sp+0x1ffd6cc4>
    4fbc:	00100713          	li	a4,1
    4fc0:	00e78023          	sb	a4,0(a5)
    4fc4:	10500073          	wfi

00004fc8 <_fstat>:
    4fc8:	000027b7          	lui	a5,0x2
    4fcc:	00f5a223          	sw	a5,4(a1)
    4fd0:	00000513          	li	a0,0
    4fd4:	00008067          	ret

00004fd8 <_isatty>:
    4fd8:	fff50513          	addi	a0,a0,-1
    4fdc:	00153513          	seqz	a0,a0
    4fe0:	00008067          	ret

00004fe4 <_lseek>:
    4fe4:	00000513          	li	a0,0
    4fe8:	00008067          	ret

00004fec <_read>:
    4fec:	00000513          	li	a0,0
    4ff0:	00008067          	ret

00004ff4 <_write_r>:
    4ff4:	ff010113          	addi	sp,sp,-16
    4ff8:	00112623          	sw	ra,12(sp)
    4ffc:	00058513          	mv	a0,a1
    5000:	00060593          	mv	a1,a2
    5004:	00068613          	mv	a2,a3
    5008:	de8fb0ef          	jal	5f0 <_write>
    500c:	00c12083          	lw	ra,12(sp)
    5010:	01010113          	addi	sp,sp,16
    5014:	00008067          	ret

00005018 <_sbrk>:
    5018:	00050713          	mv	a4,a0
    501c:	bbc18693          	addi	a3,gp,-1092 # 21334 <__BSS_END__>
    5020:	000257b7          	lui	a5,0x25
    5024:	33478793          	addi	a5,a5,820 # 25334 <__heap_end>
    5028:	02f68c63          	beq	a3,a5,5060 <_sbrk+0x48>
    502c:	9601a503          	lw	a0,-1696(gp) # 210d8 <brk>
    5030:	00e50733          	add	a4,a0,a4
    5034:	00d737b3          	sltu	a5,a4,a3
    5038:	0017b793          	seqz	a5,a5
    503c:	000256b7          	lui	a3,0x25
    5040:	33468693          	addi	a3,a3,820 # 25334 <__heap_end>
    5044:	00d736b3          	sltu	a3,a4,a3
    5048:	00d7f7b3          	and	a5,a5,a3
    504c:	00079663          	bnez	a5,5058 <_sbrk+0x40>
    5050:	fff00513          	li	a0,-1
    5054:	00008067          	ret
    5058:	96e1a023          	sw	a4,-1696(gp) # 210d8 <brk>
    505c:	00008067          	ret
    5060:	00000513          	li	a0,0
    5064:	00008067          	ret

00005068 <spi_intr_handler_event_flash>:
    5068:	000217b7          	lui	a5,0x21
    506c:	f887a703          	lw	a4,-120(a5) # 20f88 <peripherals+0x10>
    5070:	00200793          	li	a5,2
    5074:	00f70463          	beq	a4,a5,507c <spi_intr_handler_event_flash+0x14>
    5078:	00008067          	ret
    507c:	ff010113          	addi	sp,sp,-16
    5080:	00112623          	sw	ra,12(sp)
    5084:	00050593          	mv	a1,a0
    5088:	00021537          	lui	a0,0x21
    508c:	f7850513          	addi	a0,a0,-136 # 20f78 <peripherals>
    5090:	e60fb0ef          	jal	6f0 <spi_event_handler>
    5094:	00c12083          	lw	ra,12(sp)
    5098:	01010113          	addi	sp,sp,16
    509c:	00008067          	ret

000050a0 <spi_intr_handler_error_flash>:
    50a0:	000217b7          	lui	a5,0x21
    50a4:	f887a703          	lw	a4,-120(a5) # 20f88 <peripherals+0x10>
    50a8:	00200793          	li	a5,2
    50ac:	00f70463          	beq	a4,a5,50b4 <spi_intr_handler_error_flash+0x14>
    50b0:	00008067          	ret
    50b4:	ff010113          	addi	sp,sp,-16
    50b8:	00112623          	sw	ra,12(sp)
    50bc:	00050593          	mv	a1,a0
    50c0:	00021537          	lui	a0,0x21
    50c4:	f7850513          	addi	a0,a0,-136 # 20f78 <peripherals>
    50c8:	851fb0ef          	jal	918 <spi_error_handler>
    50cc:	00c12083          	lw	ra,12(sp)
    50d0:	01010113          	addi	sp,sp,16
    50d4:	00008067          	ret

000050d8 <fic_irq_spi_flash>:
    50d8:	fe010113          	addi	sp,sp,-32
    50dc:	00112e23          	sw	ra,28(sp)
    50e0:	200207b7          	lui	a5,0x20020
    50e4:	0347a503          	lw	a0,52(a5) # 20020034 <_sp+0x1fff6cf4>
    50e8:	03f57513          	andi	a0,a0,63
    50ec:	00050a63          	beqz	a0,5100 <fic_irq_spi_flash+0x28>
    50f0:	fb1ff0ef          	jal	50a0 <spi_intr_handler_error_flash>
    50f4:	01c12083          	lw	ra,28(sp)
    50f8:	02010113          	addi	sp,sp,32
    50fc:	00008067          	ret
    5100:	20020737          	lui	a4,0x20020
    5104:	00072783          	lw	a5,0(a4) # 20020000 <_sp+0x1fff6cc0>
    5108:	0027e793          	ori	a5,a5,2
    510c:	00f72023          	sw	a5,0(a4)
    5110:	00c10593          	addi	a1,sp,12
    5114:	00070513          	mv	a0,a4
    5118:	c48fb0ef          	jal	560 <spi_get_events>
    511c:	00c12503          	lw	a0,12(sp)
    5120:	f49ff0ef          	jal	5068 <spi_intr_handler_event_flash>
    5124:	fd1ff06f          	j	50f4 <fic_irq_spi_flash+0x1c>

00005128 <handler_irq_fast_spi_flash>:
    5128:	fc010113          	addi	sp,sp,-64
    512c:	02112e23          	sw	ra,60(sp)
    5130:	02512c23          	sw	t0,56(sp)
    5134:	02612a23          	sw	t1,52(sp)
    5138:	02712823          	sw	t2,48(sp)
    513c:	02a12623          	sw	a0,44(sp)
    5140:	02b12423          	sw	a1,40(sp)
    5144:	02c12223          	sw	a2,36(sp)
    5148:	02d12023          	sw	a3,32(sp)
    514c:	00e12e23          	sw	a4,28(sp)
    5150:	00f12c23          	sw	a5,24(sp)
    5154:	01012a23          	sw	a6,20(sp)
    5158:	01112823          	sw	a7,16(sp)
    515c:	01c12623          	sw	t3,12(sp)
    5160:	01d12423          	sw	t4,8(sp)
    5164:	01e12223          	sw	t5,4(sp)
    5168:	01f12023          	sw	t6,0(sp)
    516c:	200607b7          	lui	a5,0x20060
    5170:	02000713          	li	a4,32
    5174:	00e7a223          	sw	a4,4(a5) # 20060004 <_sp+0x20036cc4>
    5178:	f61ff0ef          	jal	50d8 <fic_irq_spi_flash>
    517c:	03c12083          	lw	ra,60(sp)
    5180:	03812283          	lw	t0,56(sp)
    5184:	03412303          	lw	t1,52(sp)
    5188:	03012383          	lw	t2,48(sp)
    518c:	02c12503          	lw	a0,44(sp)
    5190:	02812583          	lw	a1,40(sp)
    5194:	02412603          	lw	a2,36(sp)
    5198:	02012683          	lw	a3,32(sp)
    519c:	01c12703          	lw	a4,28(sp)
    51a0:	01812783          	lw	a5,24(sp)
    51a4:	01412803          	lw	a6,20(sp)
    51a8:	01012883          	lw	a7,16(sp)
    51ac:	00c12e03          	lw	t3,12(sp)
    51b0:	00812e83          	lw	t4,8(sp)
    51b4:	00412f03          	lw	t5,4(sp)
    51b8:	00012f83          	lw	t6,0(sp)
    51bc:	04010113          	addi	sp,sp,64
    51c0:	30200073          	mret

000051c4 <spi_intr_handler_event_host>:
    51c4:	000217b7          	lui	a5,0x21
    51c8:	fd07a703          	lw	a4,-48(a5) # 20fd0 <peripherals+0x58>
    51cc:	00200793          	li	a5,2
    51d0:	00f70463          	beq	a4,a5,51d8 <spi_intr_handler_event_host+0x14>
    51d4:	00008067          	ret
    51d8:	ff010113          	addi	sp,sp,-16
    51dc:	00112623          	sw	ra,12(sp)
    51e0:	00050593          	mv	a1,a0
    51e4:	00021537          	lui	a0,0x21
    51e8:	fc050513          	addi	a0,a0,-64 # 20fc0 <peripherals+0x48>
    51ec:	d04fb0ef          	jal	6f0 <spi_event_handler>
    51f0:	00c12083          	lw	ra,12(sp)
    51f4:	01010113          	addi	sp,sp,16
    51f8:	00008067          	ret

000051fc <spi_intr_handler_error_host>:
    51fc:	000217b7          	lui	a5,0x21
    5200:	fd07a703          	lw	a4,-48(a5) # 20fd0 <peripherals+0x58>
    5204:	00200793          	li	a5,2
    5208:	00f70463          	beq	a4,a5,5210 <spi_intr_handler_error_host+0x14>
    520c:	00008067          	ret
    5210:	ff010113          	addi	sp,sp,-16
    5214:	00112623          	sw	ra,12(sp)
    5218:	00050593          	mv	a1,a0
    521c:	00021537          	lui	a0,0x21
    5220:	fc050513          	addi	a0,a0,-64 # 20fc0 <peripherals+0x48>
    5224:	ef4fb0ef          	jal	918 <spi_error_handler>
    5228:	00c12083          	lw	ra,12(sp)
    522c:	01010113          	addi	sp,sp,16
    5230:	00008067          	ret

00005234 <fic_irq_spi>:
    5234:	fe010113          	addi	sp,sp,-32
    5238:	00112e23          	sw	ra,28(sp)
    523c:	300107b7          	lui	a5,0x30010
    5240:	0347a503          	lw	a0,52(a5) # 30010034 <_sp+0x2ffe6cf4>
    5244:	03f57513          	andi	a0,a0,63
    5248:	00050a63          	beqz	a0,525c <fic_irq_spi+0x28>
    524c:	fb1ff0ef          	jal	51fc <spi_intr_handler_error_host>
    5250:	01c12083          	lw	ra,28(sp)
    5254:	02010113          	addi	sp,sp,32
    5258:	00008067          	ret
    525c:	30010737          	lui	a4,0x30010
    5260:	00072783          	lw	a5,0(a4) # 30010000 <_sp+0x2ffe6cc0>
    5264:	0027e793          	ori	a5,a5,2
    5268:	00f72023          	sw	a5,0(a4)
    526c:	00c10593          	addi	a1,sp,12
    5270:	00070513          	mv	a0,a4
    5274:	aecfb0ef          	jal	560 <spi_get_events>
    5278:	00c12503          	lw	a0,12(sp)
    527c:	f49ff0ef          	jal	51c4 <spi_intr_handler_event_host>
    5280:	fd1ff06f          	j	5250 <fic_irq_spi+0x1c>

00005284 <handler_irq_fast_spi>:
    5284:	fc010113          	addi	sp,sp,-64
    5288:	02112e23          	sw	ra,60(sp)
    528c:	02512c23          	sw	t0,56(sp)
    5290:	02612a23          	sw	t1,52(sp)
    5294:	02712823          	sw	t2,48(sp)
    5298:	02a12623          	sw	a0,44(sp)
    529c:	02b12423          	sw	a1,40(sp)
    52a0:	02c12223          	sw	a2,36(sp)
    52a4:	02d12023          	sw	a3,32(sp)
    52a8:	00e12e23          	sw	a4,28(sp)
    52ac:	00f12c23          	sw	a5,24(sp)
    52b0:	01012a23          	sw	a6,20(sp)
    52b4:	01112823          	sw	a7,16(sp)
    52b8:	01c12623          	sw	t3,12(sp)
    52bc:	01d12423          	sw	t4,8(sp)
    52c0:	01e12223          	sw	t5,4(sp)
    52c4:	01f12023          	sw	t6,0(sp)
    52c8:	200607b7          	lui	a5,0x20060
    52cc:	01000713          	li	a4,16
    52d0:	00e7a223          	sw	a4,4(a5) # 20060004 <_sp+0x20036cc4>
    52d4:	f61ff0ef          	jal	5234 <fic_irq_spi>
    52d8:	03c12083          	lw	ra,60(sp)
    52dc:	03812283          	lw	t0,56(sp)
    52e0:	03412303          	lw	t1,52(sp)
    52e4:	03012383          	lw	t2,48(sp)
    52e8:	02c12503          	lw	a0,44(sp)
    52ec:	02812583          	lw	a1,40(sp)
    52f0:	02412603          	lw	a2,36(sp)
    52f4:	02012683          	lw	a3,32(sp)
    52f8:	01c12703          	lw	a4,28(sp)
    52fc:	01812783          	lw	a5,24(sp)
    5300:	01412803          	lw	a6,20(sp)
    5304:	01012883          	lw	a7,16(sp)
    5308:	00c12e03          	lw	t3,12(sp)
    530c:	00812e83          	lw	t4,8(sp)
    5310:	00412f03          	lw	t5,4(sp)
    5314:	00012f83          	lw	t6,0(sp)
    5318:	04010113          	addi	sp,sp,64
    531c:	30200073          	mret

00005320 <atexit>:
    5320:	00050593          	mv	a1,a0
    5324:	00000693          	li	a3,0
    5328:	00000613          	li	a2,0
    532c:	00000513          	li	a0,0
    5330:	5400006f          	j	5870 <__register_exitproc>

00005334 <std>:
    5334:	ff010113          	addi	sp,sp,-16
    5338:	00812423          	sw	s0,8(sp)
    533c:	00112623          	sw	ra,12(sp)
    5340:	00050413          	mv	s0,a0
    5344:	00b51623          	sh	a1,12(a0)
    5348:	00c51723          	sh	a2,14(a0)
    534c:	00052023          	sw	zero,0(a0)
    5350:	00052223          	sw	zero,4(a0)
    5354:	00052423          	sw	zero,8(a0)
    5358:	06052223          	sw	zero,100(a0)
    535c:	00052823          	sw	zero,16(a0)
    5360:	00052a23          	sw	zero,20(a0)
    5364:	00052c23          	sw	zero,24(a0)
    5368:	00800613          	li	a2,8
    536c:	00000593          	li	a1,0
    5370:	05c50513          	addi	a0,a0,92
    5374:	4e0000ef          	jal	5854 <memset>
    5378:	000057b7          	lui	a5,0x5
    537c:	54c78793          	addi	a5,a5,1356 # 554c <__sread>
    5380:	02f42223          	sw	a5,36(s0)
    5384:	000057b7          	lui	a5,0x5
    5388:	59c78793          	addi	a5,a5,1436 # 559c <__swrite>
    538c:	02f42423          	sw	a5,40(s0)
    5390:	000057b7          	lui	a5,0x5
    5394:	62078793          	addi	a5,a5,1568 # 5620 <__sseek>
    5398:	02f42623          	sw	a5,44(s0)
    539c:	000057b7          	lui	a5,0x5
    53a0:	67878793          	addi	a5,a5,1656 # 5678 <__sclose>
    53a4:	00c12083          	lw	ra,12(sp)
    53a8:	02842023          	sw	s0,32(s0)
    53ac:	02f42823          	sw	a5,48(s0)
    53b0:	00812403          	lw	s0,8(sp)
    53b4:	01010113          	addi	sp,sp,16
    53b8:	00008067          	ret

000053bc <stdio_exit_handler>:
    53bc:	000065b7          	lui	a1,0x6
    53c0:	8d818613          	addi	a2,gp,-1832 # 21050 <__sglue>
    53c4:	f5c58593          	addi	a1,a1,-164 # 5f5c <_fflush_r>
    53c8:	8e418513          	addi	a0,gp,-1820 # 2105c <_impure_data>
    53cc:	0d80006f          	j	54a4 <_fwalk_sglue>

000053d0 <cleanup_stdio>:
    53d0:	00452583          	lw	a1,4(a0)
    53d4:	ff010113          	addi	sp,sp,-16
    53d8:	00812423          	sw	s0,8(sp)
    53dc:	00112623          	sw	ra,12(sp)
    53e0:	9bc18793          	addi	a5,gp,-1604 # 21134 <__sf>
    53e4:	00050413          	mv	s0,a0
    53e8:	00f58463          	beq	a1,a5,53f0 <cleanup_stdio+0x20>
    53ec:	371000ef          	jal	5f5c <_fflush_r>
    53f0:	00842583          	lw	a1,8(s0)
    53f4:	a2418793          	addi	a5,gp,-1500 # 2119c <__sf+0x68>
    53f8:	00f58663          	beq	a1,a5,5404 <cleanup_stdio+0x34>
    53fc:	00040513          	mv	a0,s0
    5400:	35d000ef          	jal	5f5c <_fflush_r>
    5404:	00c42583          	lw	a1,12(s0)
    5408:	a8c18793          	addi	a5,gp,-1396 # 21204 <__sf+0xd0>
    540c:	00f58c63          	beq	a1,a5,5424 <cleanup_stdio+0x54>
    5410:	00040513          	mv	a0,s0
    5414:	00812403          	lw	s0,8(sp)
    5418:	00c12083          	lw	ra,12(sp)
    541c:	01010113          	addi	sp,sp,16
    5420:	33d0006f          	j	5f5c <_fflush_r>
    5424:	00c12083          	lw	ra,12(sp)
    5428:	00812403          	lw	s0,8(sp)
    542c:	01010113          	addi	sp,sp,16
    5430:	00008067          	ret

00005434 <global_stdio_init.part.0>:
    5434:	000057b7          	lui	a5,0x5
    5438:	ff010113          	addi	sp,sp,-16
    543c:	3bc78793          	addi	a5,a5,956 # 53bc <stdio_exit_handler>
    5440:	00000613          	li	a2,0
    5444:	00400593          	li	a1,4
    5448:	9bc18513          	addi	a0,gp,-1604 # 21134 <__sf>
    544c:	00112623          	sw	ra,12(sp)
    5450:	96f1a423          	sw	a5,-1688(gp) # 210e0 <__stdio_exit_handler>
    5454:	ee1ff0ef          	jal	5334 <std>
    5458:	00100613          	li	a2,1
    545c:	00900593          	li	a1,9
    5460:	a2418513          	addi	a0,gp,-1500 # 2119c <__sf+0x68>
    5464:	ed1ff0ef          	jal	5334 <std>
    5468:	00c12083          	lw	ra,12(sp)
    546c:	00200613          	li	a2,2
    5470:	01200593          	li	a1,18
    5474:	a8c18513          	addi	a0,gp,-1396 # 21204 <__sf+0xd0>
    5478:	01010113          	addi	sp,sp,16
    547c:	eb9ff06f          	j	5334 <std>

00005480 <__sinit>:
    5480:	02052783          	lw	a5,32(a0)
    5484:	00079e63          	bnez	a5,54a0 <__sinit+0x20>
    5488:	000057b7          	lui	a5,0x5
    548c:	3d078793          	addi	a5,a5,976 # 53d0 <cleanup_stdio>
    5490:	02f52023          	sw	a5,32(a0)
    5494:	9681a783          	lw	a5,-1688(gp) # 210e0 <__stdio_exit_handler>
    5498:	00079463          	bnez	a5,54a0 <__sinit+0x20>
    549c:	f99ff06f          	j	5434 <global_stdio_init.part.0>
    54a0:	00008067          	ret

000054a4 <_fwalk_sglue>:
    54a4:	fd010113          	addi	sp,sp,-48
    54a8:	02812423          	sw	s0,40(sp)
    54ac:	03212023          	sw	s2,32(sp)
    54b0:	01312e23          	sw	s3,28(sp)
    54b4:	01412c23          	sw	s4,24(sp)
    54b8:	01512a23          	sw	s5,20(sp)
    54bc:	02112623          	sw	ra,44(sp)
    54c0:	02912223          	sw	s1,36(sp)
    54c4:	00050a13          	mv	s4,a0
    54c8:	00058a93          	mv	s5,a1
    54cc:	00000413          	li	s0,0
    54d0:	00100913          	li	s2,1
    54d4:	fff00993          	li	s3,-1
    54d8:	00862583          	lw	a1,8(a2)
