
sw/build/main.elf:     file format elf32-littleriscv


Disassembly of section .vectors:

00000000 <__vector_start>:
   0:	4790106f          	j	1c78 <handler_exception>
   4:	22c0006f          	j	230 <__no_irq_handler>
   8:	2280006f          	j	230 <__no_irq_handler>
   c:	5310106f          	j	1d3c <handler_irq_software>
  10:	2200006f          	j	230 <__no_irq_handler>
  14:	21c0006f          	j	230 <__no_irq_handler>
  18:	2180006f          	j	230 <__no_irq_handler>
  1c:	5750106f          	j	1d90 <handler_irq_timer>
  20:	2100006f          	j	230 <__no_irq_handler>
  24:	20c0006f          	j	230 <__no_irq_handler>
  28:	2080006f          	j	230 <__no_irq_handler>
  2c:	3990106f          	j	1bc4 <handler_irq_external>
  30:	2000006f          	j	230 <__no_irq_handler>
  34:	1fc0006f          	j	230 <__no_irq_handler>
  38:	1f80006f          	j	230 <__no_irq_handler>
  3c:	1f40006f          	j	230 <__no_irq_handler>
  40:	2f80106f          	j	1338 <handler_irq_fast_timer_1>
  44:	3900106f          	j	13d4 <handler_irq_fast_timer_2>
  48:	4280106f          	j	1470 <handler_irq_fast_timer_3>
  4c:	4c00106f          	j	150c <handler_irq_fast_dma_done>
  50:	0740206f          	j	20c4 <handler_irq_fast_spi>
  54:	7150106f          	j	1f68 <handler_irq_fast_spi_flash>
  58:	6880106f          	j	16e0 <handler_irq_fast_gpio_0>
  5c:	7200106f          	j	177c <handler_irq_fast_gpio_1>
  60:	7b80106f          	j	1818 <handler_irq_fast_gpio_2>
  64:	0510106f          	j	18b4 <handler_irq_fast_gpio_3>
  68:	0e90106f          	j	1950 <handler_irq_fast_gpio_4>
  6c:	1810106f          	j	19ec <handler_irq_fast_gpio_5>
  70:	21d0106f          	j	1a8c <handler_irq_fast_gpio_6>
  74:	2b50106f          	j	1b28 <handler_irq_fast_gpio_7>
  78:	5300106f          	j	15a8 <handler_irq_fast_dma_window>
  7c:	5c80106f          	j	1644 <handler_irq_fast_external_peripheral>

Disassembly of section .init:

00000180 <_start>:
 180:	00021197          	auipc	gp,0x21
 184:	1bc18193          	addi	gp,gp,444 # 2133c <__global_pointer$>
 188:	00029117          	auipc	sp,0x29
 18c:	d9810113          	addi	sp,sp,-616 # 28f20 <_sp>
 190:	20000537          	lui	a0,0x20000
 194:	05f5e637          	lui	a2,0x5f5e
 198:	10060613          	addi	a2,a2,256 # 5f5e100 <_sp+0x5f351e0>
 19c:	00c52e23          	sw	a2,28(a0) # 2000001c <_sp+0x1ffd70fc>

000001a0 <_init_bss>:
 1a0:	00021517          	auipc	a0,0x21
 1a4:	b2850513          	addi	a0,a0,-1240 # 20cc8 <__stdio_exit_handler>
 1a8:	00021617          	auipc	a2,0x21
 1ac:	d7460613          	addi	a2,a2,-652 # 20f1c <__BSS_END__>
 1b0:	40a60633          	sub	a2,a2,a0
 1b4:	00000593          	li	a1,0
 1b8:	4dc020ef          	jal	2694 <memset>
 1bc:	00000517          	auipc	a0,0x0
 1c0:	e4450513          	addi	a0,a0,-444 # 0 <__vector_start>
 1c4:	00156513          	ori	a0,a0,1
 1c8:	30551073          	csrw	mtvec,a0
 1cc:	00002517          	auipc	a0,0x2
 1d0:	47050513          	addi	a0,a0,1136 # 263c <__libc_fini_array>
 1d4:	78d010ef          	jal	2160 <atexit>
 1d8:	3d0020ef          	jal	25a8 <__libc_init_array>
 1dc:	00012503          	lw	a0,0(sp)
 1e0:	00410593          	addi	a1,sp,4
 1e4:	00000613          	li	a2,0
 1e8:	6c1060ef          	jal	70a8 <main>
 1ec:	00c0006f          	j	1f8 <exit>

000001f0 <_init>:
 1f0:	3f5010ef          	jal	1de4 <init>

000001f4 <_fini>:
 1f4:	00008067          	ret

Disassembly of section .text:

000001f8 <exit>:
     1f8:	ff010113          	addi	sp,sp,-16
     1fc:	000027b7          	lui	a5,0x2
     200:	00812423          	sw	s0,8(sp)
     204:	00112623          	sw	ra,12(sp)
     208:	74478793          	addi	a5,a5,1860 # 2744 <__call_exitprocs>
     20c:	00050413          	mv	s0,a0
     210:	00078663          	beqz	a5,21c <exit+0x24>
     214:	00000593          	li	a1,0
     218:	52c020ef          	jal	2744 <__call_exitprocs>
     21c:	98c1a783          	lw	a5,-1652(gp) # 20cc8 <__stdio_exit_handler>
     220:	00078463          	beqz	a5,228 <exit+0x30>
     224:	000780e7          	jalr	a5
     228:	00040513          	mv	a0,s0
     22c:	3c9010ef          	jal	1df4 <_exit>

00000230 <__no_irq_handler>:
     230:	0000006f          	j	230 <__no_irq_handler>

00000234 <fic_irq_dma_window>:
     234:	fe010113          	addi	sp,sp,-32
     238:	00112e23          	sw	ra,28(sp)
     23c:	00812c23          	sw	s0,24(sp)
     240:	02010413          	addi	s0,sp,32
     244:	fe042623          	sw	zero,-20(s0)
     248:	04c0006f          	j	294 <fic_irq_dma_window+0x60>
     24c:	9b018693          	addi	a3,gp,-1616 # 20cec <dma_subsys_per>
     250:	fec42703          	lw	a4,-20(s0)
     254:	00070793          	mv	a5,a4
     258:	00179793          	slli	a5,a5,0x1
     25c:	00e787b3          	add	a5,a5,a4
     260:	00279793          	slli	a5,a5,0x2
     264:	00f687b3          	add	a5,a3,a5
     268:	0087a783          	lw	a5,8(a5)
     26c:	0687a703          	lw	a4,104(a5)
     270:	00100793          	li	a5,1
     274:	00f71a63          	bne	a4,a5,288 <fic_irq_dma_window+0x54>
     278:	fec42783          	lw	a5,-20(s0)
     27c:	0ff7f793          	zext.b	a5,a5
     280:	00078513          	mv	a0,a5
     284:	100000ef          	jal	384 <dma_intr_handler_window_done>
     288:	fec42783          	lw	a5,-20(s0)
     28c:	00178793          	addi	a5,a5,1
     290:	fef42623          	sw	a5,-20(s0)
     294:	fec42703          	lw	a4,-20(s0)
     298:	00300793          	li	a5,3
     29c:	fae7d8e3          	bge	a5,a4,24c <fic_irq_dma_window+0x18>
     2a0:	00000013          	nop
     2a4:	01c12083          	lw	ra,28(sp)
     2a8:	01812403          	lw	s0,24(sp)
     2ac:	02010113          	addi	sp,sp,32
     2b0:	00008067          	ret

000002b4 <fic_irq_dma_done>:
     2b4:	fe010113          	addi	sp,sp,-32
     2b8:	00112e23          	sw	ra,28(sp)
     2bc:	00812c23          	sw	s0,24(sp)
     2c0:	02010413          	addi	s0,sp,32
     2c4:	fe042623          	sw	zero,-20(s0)
     2c8:	0700006f          	j	338 <fic_irq_dma_done+0x84>
     2cc:	9b018693          	addi	a3,gp,-1616 # 20cec <dma_subsys_per>
     2d0:	fec42703          	lw	a4,-20(s0)
     2d4:	00070793          	mv	a5,a4
     2d8:	00179793          	slli	a5,a5,0x1
     2dc:	00e787b3          	add	a5,a5,a4
     2e0:	00279793          	slli	a5,a5,0x2
     2e4:	00f687b3          	add	a5,a3,a5
     2e8:	0087a783          	lw	a5,8(a5)
     2ec:	0647a703          	lw	a4,100(a5)
     2f0:	00100793          	li	a5,1
     2f4:	02f71c63          	bne	a4,a5,32c <fic_irq_dma_done+0x78>
     2f8:	9b018693          	addi	a3,gp,-1616 # 20cec <dma_subsys_per>
     2fc:	fec42703          	lw	a4,-20(s0)
     300:	00070793          	mv	a5,a4
     304:	00179793          	slli	a5,a5,0x1
     308:	00e787b3          	add	a5,a5,a4
     30c:	00279793          	slli	a5,a5,0x2
     310:	00f687b3          	add	a5,a3,a5
     314:	00100713          	li	a4,1
     318:	00e78223          	sb	a4,4(a5)
     31c:	fec42783          	lw	a5,-20(s0)
     320:	0ff7f793          	zext.b	a5,a5
     324:	00078513          	mv	a0,a5
     328:	030000ef          	jal	358 <dma_intr_handler_trans_done>
     32c:	fec42783          	lw	a5,-20(s0)
     330:	00178793          	addi	a5,a5,1
     334:	fef42623          	sw	a5,-20(s0)
     338:	fec42703          	lw	a4,-20(s0)
     33c:	00300793          	li	a5,3
     340:	f8e7d6e3          	bge	a5,a4,2cc <fic_irq_dma_done+0x18>
     344:	00000013          	nop
     348:	01c12083          	lw	ra,28(sp)
     34c:	01812403          	lw	s0,24(sp)
     350:	02010113          	addi	sp,sp,32
     354:	00008067          	ret

00000358 <dma_intr_handler_trans_done>:
     358:	fe010113          	addi	sp,sp,-32
     35c:	00112e23          	sw	ra,28(sp)
     360:	00812c23          	sw	s0,24(sp)
     364:	02010413          	addi	s0,sp,32
     368:	00050793          	mv	a5,a0
     36c:	fef407a3          	sb	a5,-17(s0)
     370:	00000013          	nop
     374:	01c12083          	lw	ra,28(sp)
     378:	01812403          	lw	s0,24(sp)
     37c:	02010113          	addi	sp,sp,32
     380:	00008067          	ret

00000384 <dma_intr_handler_window_done>:
     384:	fe010113          	addi	sp,sp,-32
     388:	00112e23          	sw	ra,28(sp)
     38c:	00812c23          	sw	s0,24(sp)
     390:	02010413          	addi	s0,sp,32
     394:	00050793          	mv	a5,a0
     398:	fef407a3          	sb	a5,-17(s0)
     39c:	00000013          	nop
     3a0:	01c12083          	lw	ra,28(sp)
     3a4:	01812403          	lw	s0,24(sp)
     3a8:	02010113          	addi	sp,sp,32
     3ac:	00008067          	ret

000003b0 <fic_irq_timer_1>:
     3b0:	ff010113          	addi	sp,sp,-16
     3b4:	00112623          	sw	ra,12(sp)
     3b8:	00812423          	sw	s0,8(sp)
     3bc:	01010413          	addi	s0,sp,16
     3c0:	00000013          	nop
     3c4:	00c12083          	lw	ra,12(sp)
     3c8:	00812403          	lw	s0,8(sp)
     3cc:	01010113          	addi	sp,sp,16
     3d0:	00008067          	ret

000003d4 <fic_irq_timer_2>:
     3d4:	ff010113          	addi	sp,sp,-16
     3d8:	00112623          	sw	ra,12(sp)
     3dc:	00812423          	sw	s0,8(sp)
     3e0:	01010413          	addi	s0,sp,16
     3e4:	00000013          	nop
     3e8:	00c12083          	lw	ra,12(sp)
     3ec:	00812403          	lw	s0,8(sp)
     3f0:	01010113          	addi	sp,sp,16
     3f4:	00008067          	ret

000003f8 <fic_irq_timer_3>:
     3f8:	ff010113          	addi	sp,sp,-16
     3fc:	00112623          	sw	ra,12(sp)
     400:	00812423          	sw	s0,8(sp)
     404:	01010413          	addi	s0,sp,16
     408:	00000013          	nop
     40c:	00c12083          	lw	ra,12(sp)
     410:	00812403          	lw	s0,8(sp)
     414:	01010113          	addi	sp,sp,16
     418:	00008067          	ret

0000041c <fic_irq_ext_peripheral>:
     41c:	ff010113          	addi	sp,sp,-16
     420:	00112623          	sw	ra,12(sp)
     424:	00812423          	sw	s0,8(sp)
     428:	01010413          	addi	s0,sp,16
     42c:	00000013          	nop
     430:	00c12083          	lw	ra,12(sp)
     434:	00812403          	lw	s0,8(sp)
     438:	01010113          	addi	sp,sp,16
     43c:	00008067          	ret

00000440 <fic_irq_gpio_0>:
     440:	ff010113          	addi	sp,sp,-16
     444:	00112623          	sw	ra,12(sp)
     448:	00812423          	sw	s0,8(sp)
     44c:	01010413          	addi	s0,sp,16
     450:	00000013          	nop
     454:	00c12083          	lw	ra,12(sp)
     458:	00812403          	lw	s0,8(sp)
     45c:	01010113          	addi	sp,sp,16
     460:	00008067          	ret

00000464 <fic_irq_gpio_1>:
     464:	ff010113          	addi	sp,sp,-16
     468:	00112623          	sw	ra,12(sp)
     46c:	00812423          	sw	s0,8(sp)
     470:	01010413          	addi	s0,sp,16
     474:	00000013          	nop
     478:	00c12083          	lw	ra,12(sp)
     47c:	00812403          	lw	s0,8(sp)
     480:	01010113          	addi	sp,sp,16
     484:	00008067          	ret

00000488 <fic_irq_gpio_2>:
     488:	ff010113          	addi	sp,sp,-16
     48c:	00112623          	sw	ra,12(sp)
     490:	00812423          	sw	s0,8(sp)
     494:	01010413          	addi	s0,sp,16
     498:	00000013          	nop
     49c:	00c12083          	lw	ra,12(sp)
     4a0:	00812403          	lw	s0,8(sp)
     4a4:	01010113          	addi	sp,sp,16
     4a8:	00008067          	ret

000004ac <fic_irq_gpio_3>:
     4ac:	ff010113          	addi	sp,sp,-16
     4b0:	00112623          	sw	ra,12(sp)
     4b4:	00812423          	sw	s0,8(sp)
     4b8:	01010413          	addi	s0,sp,16
     4bc:	00000013          	nop
     4c0:	00c12083          	lw	ra,12(sp)
     4c4:	00812403          	lw	s0,8(sp)
     4c8:	01010113          	addi	sp,sp,16
     4cc:	00008067          	ret

000004d0 <fic_irq_gpio_4>:
     4d0:	ff010113          	addi	sp,sp,-16
     4d4:	00112623          	sw	ra,12(sp)
     4d8:	00812423          	sw	s0,8(sp)
     4dc:	01010413          	addi	s0,sp,16
     4e0:	00000013          	nop
     4e4:	00c12083          	lw	ra,12(sp)
     4e8:	00812403          	lw	s0,8(sp)
     4ec:	01010113          	addi	sp,sp,16
     4f0:	00008067          	ret

000004f4 <fic_irq_gpio_5>:
     4f4:	ff010113          	addi	sp,sp,-16
     4f8:	00112623          	sw	ra,12(sp)
     4fc:	00812423          	sw	s0,8(sp)
     500:	01010413          	addi	s0,sp,16
     504:	00000013          	nop
     508:	00c12083          	lw	ra,12(sp)
     50c:	00812403          	lw	s0,8(sp)
     510:	01010113          	addi	sp,sp,16
     514:	00008067          	ret

00000518 <fic_irq_gpio_6>:
     518:	ff010113          	addi	sp,sp,-16
     51c:	00112623          	sw	ra,12(sp)
     520:	00812423          	sw	s0,8(sp)
     524:	01010413          	addi	s0,sp,16
     528:	00000013          	nop
     52c:	00c12083          	lw	ra,12(sp)
     530:	00812403          	lw	s0,8(sp)
     534:	01010113          	addi	sp,sp,16
     538:	00008067          	ret

0000053c <fic_irq_gpio_7>:
     53c:	ff010113          	addi	sp,sp,-16
     540:	00112623          	sw	ra,12(sp)
     544:	00812423          	sw	s0,8(sp)
     548:	01010413          	addi	s0,sp,16
     54c:	00000013          	nop
     550:	00c12083          	lw	ra,12(sp)
     554:	00812403          	lw	s0,8(sp)
     558:	01010113          	addi	sp,sp,16
     55c:	00008067          	ret

00000560 <spi_get_events>:
     560:	ff010113          	addi	sp,sp,-16
     564:	01452783          	lw	a5,20(a0)
     568:	00f12623          	sw	a5,12(sp)
     56c:	00c12683          	lw	a3,12(sp)
     570:	0196d693          	srli	a3,a3,0x19
     574:	0016f693          	andi	a3,a3,1
     578:	0005a783          	lw	a5,0(a1)
     57c:	00c12703          	lw	a4,12(sp)
     580:	01b75713          	srli	a4,a4,0x1b
     584:	ffc7f793          	andi	a5,a5,-4
     588:	00d7e7b3          	or	a5,a5,a3
     58c:	00c12683          	lw	a3,12(sp)
     590:	0126d693          	srli	a3,a3,0x12
     594:	00277713          	andi	a4,a4,2
     598:	00f76733          	or	a4,a4,a5
     59c:	00c12783          	lw	a5,12(sp)
     5a0:	0177d793          	srli	a5,a5,0x17
     5a4:	0046f693          	andi	a3,a3,4
     5a8:	ff377713          	andi	a4,a4,-13
     5ac:	00d76733          	or	a4,a4,a3
     5b0:	00c12683          	lw	a3,12(sp)
     5b4:	01f6d693          	srli	a3,a3,0x1f
     5b8:	0087f793          	andi	a5,a5,8
     5bc:	00e7e7b3          	or	a5,a5,a4
     5c0:	00c12703          	lw	a4,12(sp)
     5c4:	01975713          	srli	a4,a4,0x19
     5c8:	00469693          	slli	a3,a3,0x4
     5cc:	fcf7f793          	andi	a5,a5,-49
     5d0:	00d7e7b3          	or	a5,a5,a3
     5d4:	02077713          	andi	a4,a4,32
     5d8:	02074713          	xori	a4,a4,32
     5dc:	00f767b3          	or	a5,a4,a5
     5e0:	00f5a023          	sw	a5,0(a1)
     5e4:	00000513          	li	a0,0
     5e8:	01010113          	addi	sp,sp,16
     5ec:	00008067          	ret

000005f0 <_write>:
     5f0:	00100793          	li	a5,1
     5f4:	08f51063          	bne	a0,a5,674 <_write+0x84>
     5f8:	200007b7          	lui	a5,0x20000
     5fc:	01c7a783          	lw	a5,28(a5) # 2000001c <_sp+0x1ffd70fc>
     600:	08078263          	beqz	a5,684 <_write+0x94>
     604:	300807b7          	lui	a5,0x30080
     608:	0007a623          	sw	zero,12(a5) # 3008000c <_sp+0x300570ec>
     60c:	00300713          	li	a4,3
     610:	00e7ae23          	sw	a4,28(a5)
     614:	0207a223          	sw	zero,36(a5)
     618:	0207a623          	sw	zero,44(a5)
     61c:	0007a223          	sw	zero,4(a5)
     620:	fff00713          	li	a4,-1
     624:	00e7a023          	sw	a4,0(a5)
     628:	0a7c0737          	lui	a4,0xa7c0
     62c:	00370713          	addi	a4,a4,3 # a7c0003 <_sp+0xa7970e3>
     630:	00e7a623          	sw	a4,12(a5)
     634:	0007a223          	sw	zero,4(a5)
     638:	02060a63          	beqz	a2,66c <_write+0x7c>
     63c:	00c58833          	add	a6,a1,a2
     640:	00078713          	mv	a4,a5
     644:	0005c683          	lbu	a3,0(a1)
     648:	01072783          	lw	a5,16(a4)
     64c:	0017f793          	andi	a5,a5,1
     650:	fe079ce3          	bnez	a5,648 <_write+0x58>
     654:	00d72c23          	sw	a3,24(a4)
     658:	01072783          	lw	a5,16(a4)
     65c:	0087f793          	andi	a5,a5,8
     660:	fe078ce3          	beqz	a5,658 <_write+0x68>
     664:	00158593          	addi	a1,a1,1
     668:	fd059ee3          	bne	a1,a6,644 <_write+0x54>
     66c:	00060513          	mv	a0,a2
     670:	00008067          	ret
     674:	05800713          	li	a4,88
     678:	98e1a823          	sw	a4,-1648(gp) # 20ccc <errno>
     67c:	fff00613          	li	a2,-1
     680:	fedff06f          	j	66c <_write+0x7c>
     684:	05800713          	li	a4,88
     688:	98e1a823          	sw	a4,-1648(gp) # 20ccc <errno>
     68c:	ff1ff06f          	j	67c <_write+0x8c>

00000690 <spi_empty_rx>:
     690:	02452783          	lw	a5,36(a0)
     694:	00078863          	beqz	a5,6a4 <spi_empty_rx+0x14>
     698:	03452783          	lw	a5,52(a0)
     69c:	02852703          	lw	a4,40(a0)
     6a0:	02e7e863          	bltu	a5,a4,6d0 <spi_empty_rx+0x40>
     6a4:	00000513          	li	a0,0
     6a8:	00008067          	ret
     6ac:	0286a703          	lw	a4,40(a3)
     6b0:	02452683          	lw	a3,36(a0)
     6b4:	20d7c7b3          	sh2add	a5,a5,a3
     6b8:	00e7a023          	sw	a4,0(a5)
     6bc:	03452783          	lw	a5,52(a0)
     6c0:	00178793          	addi	a5,a5,1
     6c4:	02f52a23          	sw	a5,52(a0)
     6c8:	02852703          	lw	a4,40(a0)
     6cc:	00e7fe63          	bgeu	a5,a4,6e8 <spi_empty_rx+0x58>
     6d0:	00052683          	lw	a3,0(a0)
     6d4:	00068a63          	beqz	a3,6e8 <spi_empty_rx+0x58>
     6d8:	0146a703          	lw	a4,20(a3)
     6dc:	00875713          	srli	a4,a4,0x8
     6e0:	0ff77713          	zext.b	a4,a4
     6e4:	fc0714e3          	bnez	a4,6ac <spi_empty_rx+0x1c>
     6e8:	00100513          	li	a0,1
     6ec:	00008067          	ret

000006f0 <spi_event_handler>:
     6f0:	ff010113          	addi	sp,sp,-16
     6f4:	00112623          	sw	ra,12(sp)
     6f8:	00912423          	sw	s1,8(sp)
     6fc:	01212223          	sw	s2,4(sp)
     700:	00050493          	mv	s1,a0
     704:	00058913          	mv	s2,a1
     708:	0105f793          	andi	a5,a1,16
     70c:	02078063          	beqz	a5,72c <spi_event_handler+0x3c>
     710:	01452703          	lw	a4,20(a0)
     714:	00070863          	beqz	a4,724 <spi_event_handler+0x34>
     718:	02c52683          	lw	a3,44(a0)
     71c:	01854783          	lbu	a5,24(a0)
     720:	02f6e863          	bltu	a3,a5,750 <spi_event_handler+0x60>
     724:	02097793          	andi	a5,s2,32
     728:	0a079e63          	bnez	a5,7e4 <spi_event_handler+0xf4>
     72c:	00897793          	andi	a5,s2,8
     730:	14079063          	bnez	a5,870 <spi_event_handler+0x180>
     734:	00497913          	andi	s2,s2,4
     738:	1a091663          	bnez	s2,8e4 <spi_event_handler+0x1f4>
     73c:	00c12083          	lw	ra,12(sp)
     740:	00812483          	lw	s1,8(sp)
     744:	00412903          	lw	s2,4(sp)
     748:	01010113          	addi	sp,sp,16
     74c:	00008067          	ret
     750:	20e6c733          	sh2add	a4,a3,a4
     754:	00072703          	lw	a4,0(a4)
     758:	00871613          	slli	a2,a4,0x8
     75c:	00865593          	srli	a1,a2,0x8
     760:	01875713          	srli	a4,a4,0x18
     764:	00f77613          	andi	a2,a4,15
     768:	00168693          	addi	a3,a3,1
     76c:	02d52623          	sw	a3,44(a0)
     770:	00052503          	lw	a0,0(a0)
     774:	fa050ce3          	beqz	a0,72c <spi_event_handler+0x3c>
     778:	00265713          	srli	a4,a2,0x2
     77c:	01971713          	slli	a4,a4,0x19
     780:	00367613          	andi	a2,a2,3
     784:	01b61613          	slli	a2,a2,0x1b
     788:	00c76733          	or	a4,a4,a2
     78c:	40d787b3          	sub	a5,a5,a3
     790:	00f037b3          	snez	a5,a5
     794:	01879793          	slli	a5,a5,0x18
     798:	00f767b3          	or	a5,a4,a5
     79c:	fff58613          	addi	a2,a1,-1
     7a0:	00861613          	slli	a2,a2,0x8
     7a4:	00865613          	srli	a2,a2,0x8
     7a8:	00c7e633          	or	a2,a5,a2
     7ac:	0197d793          	srli	a5,a5,0x19
     7b0:	0037f793          	andi	a5,a5,3
     7b4:	00200713          	li	a4,2
     7b8:	14f76c63          	bltu	a4,a5,910 <spi_event_handler+0x220>
     7bc:	01452703          	lw	a4,20(a0)
     7c0:	f60756e3          	bgez	a4,72c <spi_event_handler+0x3c>
     7c4:	01b65713          	srli	a4,a2,0x1b
     7c8:	ffd70713          	addi	a4,a4,-3
     7cc:	00173713          	seqz	a4,a4
     7d0:	00f037b3          	snez	a5,a5
     7d4:	00f777b3          	and	a5,a4,a5
     7d8:	f4079ae3          	bnez	a5,72c <spi_event_handler+0x3c>
     7dc:	02c52223          	sw	a2,36(a0)
     7e0:	f4dff06f          	j	72c <spi_event_handler+0x3c>
     7e4:	0004a783          	lw	a5,0(s1)
     7e8:	02078263          	beqz	a5,80c <spi_event_handler+0x11c>
     7ec:	0387a703          	lw	a4,56(a5)
     7f0:	fc077713          	andi	a4,a4,-64
     7f4:	02e7ac23          	sw	a4,56(a5)
     7f8:	0004a783          	lw	a5,0(s1)
     7fc:	00078863          	beqz	a5,80c <spi_event_handler+0x11c>
     800:	0047a703          	lw	a4,4(a5)
     804:	ffd77713          	andi	a4,a4,-3
     808:	00e7a223          	sw	a4,4(a5)
     80c:	00048513          	mv	a0,s1
     810:	e81ff0ef          	jal	690 <spi_empty_rx>
     814:	00400793          	li	a5,4
     818:	00f4a823          	sw	a5,16(s1)
     81c:	0384a783          	lw	a5,56(s1)
     820:	00078c63          	beqz	a5,838 <spi_event_handler+0x148>
     824:	0344a683          	lw	a3,52(s1)
     828:	0244a603          	lw	a2,36(s1)
     82c:	0304a583          	lw	a1,48(s1)
     830:	01c4a503          	lw	a0,28(s1)
     834:	000780e7          	jalr	a5
     838:	0204a623          	sw	zero,44(s1)
     83c:	0204a823          	sw	zero,48(s1)
     840:	0204aa23          	sw	zero,52(s1)
     844:	0004aa23          	sw	zero,20(s1)
     848:	0004ac23          	sw	zero,24(s1)
     84c:	0004ae23          	sw	zero,28(s1)
     850:	0204a023          	sw	zero,32(s1)
     854:	0204a223          	sw	zero,36(s1)
     858:	0204a423          	sw	zero,40(s1)
     85c:	0204ac23          	sw	zero,56(s1)
     860:	0204ae23          	sw	zero,60(s1)
     864:	0404a023          	sw	zero,64(s1)
     868:	0404a223          	sw	zero,68(s1)
     86c:	ed1ff06f          	j	73c <spi_event_handler+0x4c>
     870:	01c4a783          	lw	a5,28(s1)
     874:	ec0780e3          	beqz	a5,734 <spi_event_handler+0x44>
     878:	0304a783          	lw	a5,48(s1)
     87c:	0204a703          	lw	a4,32(s1)
     880:	eae7fae3          	bgeu	a5,a4,734 <spi_event_handler+0x44>
     884:	04700613          	li	a2,71
     888:	0280006f          	j	8b0 <spi_event_handler+0x1c0>
     88c:	01c4a683          	lw	a3,28(s1)
     890:	20d7c7b3          	sh2add	a5,a5,a3
     894:	0007a783          	lw	a5,0(a5)
     898:	02f72623          	sw	a5,44(a4)
     89c:	0304a783          	lw	a5,48(s1)
     8a0:	00178793          	addi	a5,a5,1
     8a4:	02f4a823          	sw	a5,48(s1)
     8a8:	0204a703          	lw	a4,32(s1)
     8ac:	00e7fc63          	bgeu	a5,a4,8c4 <spi_event_handler+0x1d4>
     8b0:	0004a703          	lw	a4,0(s1)
     8b4:	00070863          	beqz	a4,8c4 <spi_event_handler+0x1d4>
     8b8:	01472683          	lw	a3,20(a4)
     8bc:	0ff6f693          	zext.b	a3,a3
     8c0:	fcd676e3          	bgeu	a2,a3,88c <spi_event_handler+0x19c>
     8c4:	03c4a783          	lw	a5,60(s1)
     8c8:	e60786e3          	beqz	a5,734 <spi_event_handler+0x44>
     8cc:	0344a683          	lw	a3,52(s1)
     8d0:	0244a603          	lw	a2,36(s1)
     8d4:	0304a583          	lw	a1,48(s1)
     8d8:	01c4a503          	lw	a0,28(s1)
     8dc:	000780e7          	jalr	a5
     8e0:	e55ff06f          	j	734 <spi_event_handler+0x44>
     8e4:	00048513          	mv	a0,s1
     8e8:	da9ff0ef          	jal	690 <spi_empty_rx>
     8ec:	e40508e3          	beqz	a0,73c <spi_event_handler+0x4c>
     8f0:	0404a783          	lw	a5,64(s1)
     8f4:	e40784e3          	beqz	a5,73c <spi_event_handler+0x4c>
     8f8:	0344a683          	lw	a3,52(s1)
     8fc:	0244a603          	lw	a2,36(s1)
     900:	0304a583          	lw	a1,48(s1)
     904:	01c4a503          	lw	a0,28(s1)
     908:	000780e7          	jalr	a5
     90c:	e31ff06f          	j	73c <spi_event_handler+0x4c>
     910:	01452783          	lw	a5,20(a0)
     914:	e19ff06f          	j	72c <spi_event_handler+0x3c>

00000918 <spi_error_handler>:
     918:	fe010113          	addi	sp,sp,-32
     91c:	00112e23          	sw	ra,28(sp)
     920:	00912c23          	sw	s1,24(sp)
     924:	00050493          	mv	s1,a0
     928:	00052783          	lw	a5,0(a0)
     92c:	02078263          	beqz	a5,950 <spi_error_handler+0x38>
     930:	0387a703          	lw	a4,56(a5)
     934:	fc077713          	andi	a4,a4,-64
     938:	02e7ac23          	sw	a4,56(a5)
     93c:	00052783          	lw	a5,0(a0)
     940:	00078863          	beqz	a5,950 <spi_error_handler+0x38>
     944:	0047a703          	lw	a4,4(a5)
     948:	ffd77713          	andi	a4,a4,-3
     94c:	00e7a223          	sw	a4,4(a5)
     950:	0444a783          	lw	a5,68(s1)
     954:	00078c63          	beqz	a5,96c <spi_error_handler+0x54>
     958:	0344a683          	lw	a3,52(s1)
     95c:	0244a603          	lw	a2,36(s1)
     960:	0304a583          	lw	a1,48(s1)
     964:	01c4a503          	lw	a0,28(s1)
     968:	000780e7          	jalr	a5
     96c:	0204a623          	sw	zero,44(s1)
     970:	0204a823          	sw	zero,48(s1)
     974:	0204aa23          	sw	zero,52(s1)
     978:	0004aa23          	sw	zero,20(s1)
     97c:	0004ac23          	sw	zero,24(s1)
     980:	0004ae23          	sw	zero,28(s1)
     984:	0204a023          	sw	zero,32(s1)
     988:	0204a223          	sw	zero,36(s1)
     98c:	0204a423          	sw	zero,40(s1)
     990:	0204ac23          	sw	zero,56(s1)
     994:	0204ae23          	sw	zero,60(s1)
     998:	0404a023          	sw	zero,64(s1)
     99c:	0404a223          	sw	zero,68(s1)
     9a0:	0004a683          	lw	a3,0(s1)
     9a4:	10068463          	beqz	a3,aac <spi_error_handler+0x194>
     9a8:	0106a783          	lw	a5,16(a3)
     9ac:	40000737          	lui	a4,0x40000
     9b0:	00e7e7b3          	or	a5,a5,a4
     9b4:	00f6a823          	sw	a5,16(a3)
     9b8:	0146a783          	lw	a5,20(a3)
     9bc:	00f12623          	sw	a5,12(sp)
     9c0:	00c12783          	lw	a5,12(sp)
     9c4:	00179713          	slli	a4,a5,0x1
     9c8:	fe074ce3          	bltz	a4,9c0 <spi_error_handler+0xa8>
     9cc:	00c14783          	lbu	a5,12(sp)
     9d0:	fe0798e3          	bnez	a5,9c0 <spi_error_handler+0xa8>
     9d4:	00d14783          	lbu	a5,13(sp)
     9d8:	fe0794e3          	bnez	a5,9c0 <spi_error_handler+0xa8>
     9dc:	0106a783          	lw	a5,16(a3)
     9e0:	c0000737          	lui	a4,0xc0000
     9e4:	fff70713          	addi	a4,a4,-1 # bfffffff <_sp+0xbffd70df>
     9e8:	00e7f7b3          	and	a5,a5,a4
     9ec:	00f6a823          	sw	a5,16(a3)
     9f0:	0004a783          	lw	a5,0(s1)
     9f4:	0a078c63          	beqz	a5,aac <spi_error_handler+0x194>
     9f8:	0107a703          	lw	a4,16(a5)
     9fc:	800006b7          	lui	a3,0x80000
     a00:	00d76733          	or	a4,a4,a3
     a04:	00e7a823          	sw	a4,16(a5)
     a08:	0004a783          	lw	a5,0(s1)
     a0c:	0a078063          	beqz	a5,aac <spi_error_handler+0x194>
     a10:	0107a703          	lw	a4,16(a5)
     a14:	200006b7          	lui	a3,0x20000
     a18:	00d76733          	or	a4,a4,a3
     a1c:	00e7a823          	sw	a4,16(a5)
     a20:	0004a783          	lw	a5,0(s1)
     a24:	08078463          	beqz	a5,aac <spi_error_handler+0x194>
     a28:	0307a703          	lw	a4,48(a5)
     a2c:	01f76713          	ori	a4,a4,31
     a30:	02e7a823          	sw	a4,48(a5)
     a34:	0004a783          	lw	a5,0(s1)
     a38:	06078a63          	beqz	a5,aac <spi_error_handler+0x194>
     a3c:	0047a703          	lw	a4,4(a5)
     a40:	00176713          	ori	a4,a4,1
     a44:	00e7a223          	sw	a4,4(a5)
     a48:	0004a703          	lw	a4,0(s1)
     a4c:	0044c783          	lbu	a5,4(s1)
     a50:	00173693          	seqz	a3,a4
     a54:	0497b613          	sltiu	a2,a5,73
     a58:	00163613          	seqz	a2,a2
     a5c:	00c6e6b3          	or	a3,a3,a2
     a60:	02069063          	bnez	a3,a80 <spi_error_handler+0x168>
     a64:	01072683          	lw	a3,16(a4)
     a68:	ffff0637          	lui	a2,0xffff0
     a6c:	0ff60613          	addi	a2,a2,255 # ffff00ff <_sp+0xfffc71df>
     a70:	00c6f6b3          	and	a3,a3,a2
     a74:	00879793          	slli	a5,a5,0x8
     a78:	00d7e7b3          	or	a5,a5,a3
     a7c:	00f72823          	sw	a5,16(a4)
     a80:	0004a683          	lw	a3,0(s1)
     a84:	0054c703          	lbu	a4,5(s1)
     a88:	04173793          	sltiu	a5,a4,65
     a8c:	0017b793          	seqz	a5,a5
     a90:	0016b613          	seqz	a2,a3
     a94:	00c7e7b3          	or	a5,a5,a2
     a98:	00079a63          	bnez	a5,aac <spi_error_handler+0x194>
     a9c:	0106a783          	lw	a5,16(a3) # 20000010 <_sp+0x1ffd70f0>
     aa0:	f007f793          	andi	a5,a5,-256
     aa4:	00f76733          	or	a4,a4,a5
     aa8:	00e6a823          	sw	a4,16(a3)
     aac:	0004a423          	sw	zero,8(s1)
     ab0:	00800793          	li	a5,8
     ab4:	00f4a823          	sw	a5,16(s1)
     ab8:	01c12083          	lw	ra,28(sp)
     abc:	01812483          	lw	s1,24(sp)
     ac0:	02010113          	addi	sp,sp,32
     ac4:	00008067          	ret

00000ac8 <_writestr>:
     ac8:	ff010113          	addi	sp,sp,-16
     acc:	00112623          	sw	ra,12(sp)
     ad0:	00912423          	sw	s1,8(sp)
     ad4:	00050493          	mv	s1,a0
     ad8:	6f8020ef          	jal	31d0 <strlen>
     adc:	00150613          	addi	a2,a0,1
     ae0:	00048593          	mv	a1,s1
     ae4:	00100513          	li	a0,1
     ae8:	b09ff0ef          	jal	5f0 <_write>
     aec:	00c12083          	lw	ra,12(sp)
     af0:	00812483          	lw	s1,8(sp)
     af4:	01010113          	addi	sp,sp,16
     af8:	00008067          	ret

00000afc <print_exc_msg>:
     afc:	fe010113          	addi	sp,sp,-32
     b00:	00112e23          	sw	ra,28(sp)
     b04:	00912c23          	sw	s1,24(sp)
     b08:	fc1ff0ef          	jal	ac8 <_writestr>
     b0c:	343024f3          	csrr	s1,mtval
     b10:	00020537          	lui	a0,0x20
     b14:	32850513          	addi	a0,a0,808 # 20328 <__clz_tab+0x1b0>
     b18:	fb1ff0ef          	jal	ac8 <_writestr>
     b1c:	0184d793          	srli	a5,s1,0x18
     b20:	00f10423          	sb	a5,8(sp)
     b24:	0104d793          	srli	a5,s1,0x10
     b28:	00f104a3          	sb	a5,9(sp)
     b2c:	0084d793          	srli	a5,s1,0x8
     b30:	00f10523          	sb	a5,10(sp)
     b34:	009105a3          	sb	s1,11(sp)
     b38:	00a00793          	li	a5,10
     b3c:	00f10623          	sb	a5,12(sp)
     b40:	000106a3          	sb	zero,13(sp)
     b44:	00810513          	addi	a0,sp,8
     b48:	f81ff0ef          	jal	ac8 <_writestr>
     b4c:	0000006f          	j	b4c <print_exc_msg+0x50>

00000b50 <inferenceTPG>:
     b50:	f4010113          	addi	sp,sp,-192
     b54:	00001837          	lui	a6,0x1
     b58:	24c80813          	addi	a6,a6,588 # 124c <T16_start>
     b5c:	00080067          	jr	a6

00000b60 <T0_start>:
     b60:	b00028f3          	csrr	a7,mcycle
     b64:	00012623          	sw	zero,12(sp)
     b68:	00862803          	lw	a6,8(a2)
     b6c:	0085a303          	lw	t1,8(a1)
     b70:	40680833          	sub	a6,a6,t1
     b74:	01012823          	sw	a6,16(sp)

00000b78 <T0_end>:
     b78:	b0002873          	csrr	a6,mcycle
     b7c:	41180833          	sub	a6,a6,a7
     b80:	0107a023          	sw	a6,0(a5)
     b84:	000208b7          	lui	a7,0x20
     b88:	00c12803          	lw	a6,12(sp)
     b8c:	01012e03          	lw	t3,16(sp)
     b90:	010e2833          	slt	a6,t3,a6
     b94:	00183813          	seqz	a6,a6
     b98:	96c18313          	addi	t1,gp,-1684 # 20ca8 <next.16>
     b9c:	20684833          	sh2add	a6,a6,t1
     ba0:	00082803          	lw	a6,0(a6)
     ba4:	0a488893          	addi	a7,a7,164 # 200a4 <jump_table.17>
     ba8:	21184833          	sh2add	a6,a6,a7
     bac:	00082803          	lw	a6,0(a6)
     bb0:	fadff06f          	j	b5c <inferenceTPG+0xc>

00000bb4 <T1_start>:
     bb4:	b00028f3          	csrr	a7,mcycle
     bb8:	0086a803          	lw	a6,8(a3)
     bbc:	0a086833          	max	a6,a6,zero
     bc0:	05012623          	sw	a6,76(sp)
     bc4:	00100813          	li	a6,1
     bc8:	05012823          	sw	a6,80(sp)
     bcc:	0046a803          	lw	a6,4(a3)
     bd0:	05012a23          	sw	a6,84(sp)

00000bd4 <T1_end>:
     bd4:	b0002873          	csrr	a6,mcycle
     bd8:	41180833          	sub	a6,a6,a7
     bdc:	0107a223          	sw	a6,4(a5)
     be0:	04c12303          	lw	t1,76(sp)
     be4:	05012883          	lw	a7,80(sp)
     be8:	00100813          	li	a6,1
     bec:	0068d663          	bge	a7,t1,bf8 <T1_end+0x24>
     bf0:	00030893          	mv	a7,t1
     bf4:	00000813          	li	a6,0
     bf8:	05412303          	lw	t1,84(sp)
     bfc:	01134463          	blt	t1,a7,c04 <T1_end+0x30>
     c00:	00200813          	li	a6,2
     c04:	000208b7          	lui	a7,0x20
     c08:	00020337          	lui	t1,0x20
     c0c:	09830313          	addi	t1,t1,152 # 20098 <next.15>
     c10:	20684833          	sh2add	a6,a6,t1
     c14:	00082803          	lw	a6,0(a6)
     c18:	0a488893          	addi	a7,a7,164 # 200a4 <jump_table.17>
     c1c:	21184833          	sh2add	a6,a6,a7
     c20:	00082803          	lw	a6,0(a6)
     c24:	f39ff06f          	j	b5c <inferenceTPG+0xc>

00000c28 <T2_start>:
     c28:	b00028f3          	csrr	a7,mcycle

00000c2c <T2_end>:
     c2c:	b0002873          	csrr	a6,mcycle
     c30:	41180833          	sub	a6,a6,a7
     c34:	0107a423          	sw	a6,8(a5)
     c38:	00001837          	lui	a6,0x1
     c3c:	bb480813          	addi	a6,a6,-1100 # bb4 <T1_start>
     c40:	f1dff06f          	j	b5c <inferenceTPG+0xc>

00000c44 <T3_start>:
     c44:	b0002e73          	csrr	t3,mcycle
     c48:	0045a303          	lw	t1,4(a1)
     c4c:	0086a803          	lw	a6,8(a3)
     c50:	0a686833          	max	a6,a6,t1
     c54:	07012e23          	sw	a6,124(sp)
     c58:	0085a883          	lw	a7,8(a1)
     c5c:	00000813          	li	a6,0
     c60:	01105863          	blez	a7,c70 <T3_start+0x2c>
     c64:	60089893          	clz	a7,a7
     c68:	01f00813          	li	a6,31
     c6c:	41180833          	sub	a6,a6,a7
     c70:	09012023          	sw	a6,128(sp)
     c74:	0046a803          	lw	a6,4(a3)
     c78:	09012223          	sw	a6,132(sp)
     c7c:	00680833          	add	a6,a6,t1
     c80:	09012423          	sw	a6,136(sp)

00000c84 <T3_end>:
     c84:	b0002873          	csrr	a6,mcycle
     c88:	41c80833          	sub	a6,a6,t3
     c8c:	0107a623          	sw	a6,12(a5)
     c90:	07c12303          	lw	t1,124(sp)
     c94:	08012883          	lw	a7,128(sp)
     c98:	00100813          	li	a6,1
     c9c:	0068d663          	bge	a7,t1,ca8 <T3_end+0x24>
     ca0:	00030893          	mv	a7,t1
     ca4:	00000813          	li	a6,0
     ca8:	08412303          	lw	t1,132(sp)
     cac:	03135c63          	bge	t1,a7,ce4 <T3_end+0x60>
     cb0:	00088313          	mv	t1,a7
     cb4:	08812883          	lw	a7,136(sp)
     cb8:	0068c463          	blt	a7,t1,cc0 <T3_end+0x3c>
     cbc:	00300813          	li	a6,3
     cc0:	000208b7          	lui	a7,0x20
     cc4:	00020337          	lui	t1,0x20
     cc8:	08830313          	addi	t1,t1,136 # 20088 <next.13>
     ccc:	20684833          	sh2add	a6,a6,t1
     cd0:	00082803          	lw	a6,0(a6)
     cd4:	0a488893          	addi	a7,a7,164 # 200a4 <jump_table.17>
     cd8:	21184833          	sh2add	a6,a6,a7
     cdc:	00082803          	lw	a6,0(a6)
     ce0:	e7dff06f          	j	b5c <inferenceTPG+0xc>
     ce4:	00200813          	li	a6,2
     ce8:	fcdff06f          	j	cb4 <T3_end+0x30>

00000cec <T4_start>:
     cec:	b00028f3          	csrr	a7,mcycle
     cf0:	00872803          	lw	a6,8(a4)
     cf4:	0a086833          	max	a6,a6,zero
     cf8:	01012a23          	sw	a6,20(sp)
     cfc:	0005a803          	lw	a6,0(a1)
     d00:	00c72303          	lw	t1,12(a4)
     d04:	00680833          	add	a6,a6,t1
     d08:	01012c23          	sw	a6,24(sp)

00000d0c <T4_end>:
     d0c:	b0002873          	csrr	a6,mcycle
     d10:	41180833          	sub	a6,a6,a7
     d14:	0107a823          	sw	a6,16(a5)
     d18:	000208b7          	lui	a7,0x20
     d1c:	01412803          	lw	a6,20(sp)
     d20:	01812e03          	lw	t3,24(sp)
     d24:	010e2833          	slt	a6,t3,a6
     d28:	00183813          	seqz	a6,a6
     d2c:	96418313          	addi	t1,gp,-1692 # 20ca0 <next.12>
     d30:	20684833          	sh2add	a6,a6,t1
     d34:	00082803          	lw	a6,0(a6)
     d38:	0a488893          	addi	a7,a7,164 # 200a4 <jump_table.17>
     d3c:	21184833          	sh2add	a6,a6,a7
     d40:	00082803          	lw	a6,0(a6)
     d44:	e19ff06f          	j	b5c <inferenceTPG+0xc>

00000d48 <T5_start>:
     d48:	b00028f3          	csrr	a7,mcycle
     d4c:	00200813          	li	a6,2
     d50:	05012c23          	sw	a6,88(sp)
     d54:	0046a803          	lw	a6,4(a3)
     d58:	05012e23          	sw	a6,92(sp)
     d5c:	0086a803          	lw	a6,8(a3)
     d60:	07012023          	sw	a6,96(sp)

00000d64 <T5_end>:
     d64:	b0002873          	csrr	a6,mcycle
     d68:	41180833          	sub	a6,a6,a7
     d6c:	0107aa23          	sw	a6,20(a5)
     d70:	05812303          	lw	t1,88(sp)
     d74:	05c12883          	lw	a7,92(sp)
     d78:	00100813          	li	a6,1
     d7c:	0068d663          	bge	a7,t1,d88 <T5_end+0x24>
     d80:	00030893          	mv	a7,t1
     d84:	00000813          	li	a6,0
     d88:	06012303          	lw	t1,96(sp)
     d8c:	01134463          	blt	t1,a7,d94 <T5_end+0x30>
     d90:	00200813          	li	a6,2
     d94:	000208b7          	lui	a7,0x20
     d98:	00020337          	lui	t1,0x20
     d9c:	07c30313          	addi	t1,t1,124 # 2007c <next.11>
     da0:	20684833          	sh2add	a6,a6,t1
     da4:	00082803          	lw	a6,0(a6)
     da8:	0a488893          	addi	a7,a7,164 # 200a4 <jump_table.17>
     dac:	21184833          	sh2add	a6,a6,a7
     db0:	00082803          	lw	a6,0(a6)
     db4:	da9ff06f          	j	b5c <inferenceTPG+0xc>

00000db8 <T6_start>:
     db8:	b0002373          	csrr	t1,mcycle
     dbc:	00872883          	lw	a7,8(a4)
     dc0:	0a08e833          	max	a6,a7,zero
     dc4:	01012e23          	sw	a6,28(sp)
     dc8:	0006a803          	lw	a6,0(a3)
     dcc:	01180833          	add	a6,a6,a7
     dd0:	03012023          	sw	a6,32(sp)

00000dd4 <T6_end>:
     dd4:	b0002873          	csrr	a6,mcycle
     dd8:	40680833          	sub	a6,a6,t1
     ddc:	0107ac23          	sw	a6,24(a5)
     de0:	000208b7          	lui	a7,0x20
     de4:	01c12803          	lw	a6,28(sp)
     de8:	02012e03          	lw	t3,32(sp)
     dec:	010e2833          	slt	a6,t3,a6
     df0:	00183813          	seqz	a6,a6
     df4:	95c18313          	addi	t1,gp,-1700 # 20c98 <next.10>
     df8:	20684833          	sh2add	a6,a6,t1
     dfc:	00082803          	lw	a6,0(a6)
     e00:	0a488893          	addi	a7,a7,164 # 200a4 <jump_table.17>
     e04:	21184833          	sh2add	a6,a6,a7
     e08:	00082803          	lw	a6,0(a6)
     e0c:	d51ff06f          	j	b5c <inferenceTPG+0xc>

00000e10 <T7_start>:
     e10:	b00028f3          	csrr	a7,mcycle
     e14:	00072803          	lw	a6,0(a4)
     e18:	0a086833          	max	a6,a6,zero
     e1c:	03012223          	sw	a6,36(sp)
     e20:	00062803          	lw	a6,0(a2)
     e24:	0005a303          	lw	t1,0(a1)
     e28:	00680833          	add	a6,a6,t1
     e2c:	03012423          	sw	a6,40(sp)

00000e30 <T7_end>:
     e30:	b0002873          	csrr	a6,mcycle
     e34:	41180833          	sub	a6,a6,a7
     e38:	0107ae23          	sw	a6,28(a5)
     e3c:	000208b7          	lui	a7,0x20
     e40:	02412803          	lw	a6,36(sp)
     e44:	02812e03          	lw	t3,40(sp)
     e48:	010e2833          	slt	a6,t3,a6
     e4c:	00183813          	seqz	a6,a6
     e50:	95418313          	addi	t1,gp,-1708 # 20c90 <next.9>
     e54:	20684833          	sh2add	a6,a6,t1
     e58:	00082803          	lw	a6,0(a6)
     e5c:	0a488893          	addi	a7,a7,164 # 200a4 <jump_table.17>
     e60:	21184833          	sh2add	a6,a6,a7
     e64:	00082803          	lw	a6,0(a6)
     e68:	cf5ff06f          	j	b5c <inferenceTPG+0xc>

00000e6c <T8_start>:
     e6c:	b00028f3          	csrr	a7,mcycle
     e70:	0005a803          	lw	a6,0(a1)
     e74:	00062303          	lw	t1,0(a2)
     e78:	00680833          	add	a6,a6,t1
     e7c:	03012623          	sw	a6,44(sp)
     e80:	00072803          	lw	a6,0(a4)
     e84:	0a086833          	max	a6,a6,zero
     e88:	03012823          	sw	a6,48(sp)

00000e8c <T8_end>:
     e8c:	b0002873          	csrr	a6,mcycle
     e90:	41180833          	sub	a6,a6,a7
     e94:	0307a023          	sw	a6,32(a5)
     e98:	000208b7          	lui	a7,0x20
     e9c:	02c12803          	lw	a6,44(sp)
     ea0:	03012e03          	lw	t3,48(sp)
     ea4:	010e2833          	slt	a6,t3,a6
     ea8:	00183813          	seqz	a6,a6
     eac:	94c18313          	addi	t1,gp,-1716 # 20c88 <next.8>
     eb0:	20684833          	sh2add	a6,a6,t1
     eb4:	00082803          	lw	a6,0(a6)
     eb8:	0a488893          	addi	a7,a7,164 # 200a4 <jump_table.17>
     ebc:	21184833          	sh2add	a6,a6,a7
     ec0:	00082803          	lw	a6,0(a6)
     ec4:	c99ff06f          	j	b5c <inferenceTPG+0xc>

00000ec8 <T9_start>:
     ec8:	b00028f3          	csrr	a7,mcycle
     ecc:	00872803          	lw	a6,8(a4)
     ed0:	00462303          	lw	t1,4(a2)
     ed4:	40680833          	sub	a6,a6,t1
     ed8:	03012a23          	sw	a6,52(sp)
     edc:	00c72803          	lw	a6,12(a4)
     ee0:	0045a303          	lw	t1,4(a1)
     ee4:	0a686833          	max	a6,a6,t1
     ee8:	03012c23          	sw	a6,56(sp)

00000eec <T9_end>:
     eec:	b0002873          	csrr	a6,mcycle
     ef0:	41180833          	sub	a6,a6,a7
     ef4:	0307a223          	sw	a6,36(a5)
     ef8:	000208b7          	lui	a7,0x20
     efc:	03412803          	lw	a6,52(sp)
     f00:	03812e03          	lw	t3,56(sp)
     f04:	010e2833          	slt	a6,t3,a6
     f08:	00183813          	seqz	a6,a6
     f0c:	94418313          	addi	t1,gp,-1724 # 20c80 <next.7>
     f10:	20684833          	sh2add	a6,a6,t1
     f14:	00082803          	lw	a6,0(a6)
     f18:	0a488893          	addi	a7,a7,164 # 200a4 <jump_table.17>
     f1c:	21184833          	sh2add	a6,a6,a7
     f20:	00082803          	lw	a6,0(a6)
     f24:	c39ff06f          	j	b5c <inferenceTPG+0xc>

00000f28 <T10_start>:
     f28:	b0002373          	csrr	t1,mcycle
     f2c:	00c72883          	lw	a7,12(a4)
     f30:	0086a803          	lw	a6,8(a3)
     f34:	01180833          	add	a6,a6,a7
     f38:	07012223          	sw	a6,100(sp)
     f3c:	00072803          	lw	a6,0(a4)
     f40:	0a086833          	max	a6,a6,zero
     f44:	07012423          	sw	a6,104(sp)
     f48:	0005a803          	lw	a6,0(a1)
     f4c:	01180833          	add	a6,a6,a7
     f50:	07012623          	sw	a6,108(sp)

00000f54 <T10_end>:
     f54:	b0002873          	csrr	a6,mcycle
     f58:	40680833          	sub	a6,a6,t1
     f5c:	0307a423          	sw	a6,40(a5)
     f60:	06412303          	lw	t1,100(sp)
     f64:	06812883          	lw	a7,104(sp)
     f68:	00100813          	li	a6,1
     f6c:	0068d663          	bge	a7,t1,f78 <T10_end+0x24>
     f70:	00030893          	mv	a7,t1
     f74:	00000813          	li	a6,0
     f78:	06c12303          	lw	t1,108(sp)
     f7c:	01134463          	blt	t1,a7,f84 <T10_end+0x30>
     f80:	00200813          	li	a6,2
     f84:	000208b7          	lui	a7,0x20
     f88:	00020337          	lui	t1,0x20
     f8c:	07030313          	addi	t1,t1,112 # 20070 <next.6>
     f90:	20684833          	sh2add	a6,a6,t1
     f94:	00082803          	lw	a6,0(a6)
     f98:	0a488893          	addi	a7,a7,164 # 200a4 <jump_table.17>
     f9c:	21184833          	sh2add	a6,a6,a7
     fa0:	00082803          	lw	a6,0(a6)
     fa4:	bb9ff06f          	j	b5c <inferenceTPG+0xc>

00000fa8 <T11_start>:
     fa8:	b00028f3          	csrr	a7,mcycle
     fac:	00462803          	lw	a6,4(a2)
     fb0:	00472303          	lw	t1,4(a4)
     fb4:	00680833          	add	a6,a6,t1
     fb8:	0085a303          	lw	t1,8(a1)
     fbc:	00680833          	add	a6,a6,t1
     fc0:	03012e23          	sw	a6,60(sp)
     fc4:	0045a803          	lw	a6,4(a1)
     fc8:	00c72303          	lw	t1,12(a4)
     fcc:	00680833          	add	a6,a6,t1
     fd0:	05012023          	sw	a6,64(sp)

00000fd4 <T11_end>:
     fd4:	b0002873          	csrr	a6,mcycle
     fd8:	41180833          	sub	a6,a6,a7
     fdc:	0307a623          	sw	a6,44(a5)
     fe0:	000208b7          	lui	a7,0x20
     fe4:	03c12803          	lw	a6,60(sp)
     fe8:	04012e03          	lw	t3,64(sp)
     fec:	010e2833          	slt	a6,t3,a6
     ff0:	00183813          	seqz	a6,a6
     ff4:	93c18313          	addi	t1,gp,-1732 # 20c78 <next.5>
     ff8:	20684833          	sh2add	a6,a6,t1
     ffc:	00082803          	lw	a6,0(a6)
    1000:	0a488893          	addi	a7,a7,164 # 200a4 <jump_table.17>
    1004:	21184833          	sh2add	a6,a6,a7
    1008:	00082803          	lw	a6,0(a6)
    100c:	b51ff06f          	j	b5c <inferenceTPG+0xc>

00001010 <T12_start>:
    1010:	b0002373          	csrr	t1,mcycle
    1014:	00c72883          	lw	a7,12(a4)
    1018:	01472803          	lw	a6,20(a4)
    101c:	0b186833          	max	a6,a6,a7
    1020:	05012223          	sw	a6,68(sp)
    1024:	0006a803          	lw	a6,0(a3)
    1028:	01180833          	add	a6,a6,a7
    102c:	05012423          	sw	a6,72(sp)

00001030 <T12_end>:
    1030:	b0002873          	csrr	a6,mcycle
    1034:	40680833          	sub	a6,a6,t1
    1038:	0307a823          	sw	a6,48(a5)
    103c:	000208b7          	lui	a7,0x20
    1040:	04412803          	lw	a6,68(sp)
    1044:	04812e03          	lw	t3,72(sp)
    1048:	010e2833          	slt	a6,t3,a6
    104c:	00183813          	seqz	a6,a6
    1050:	93418313          	addi	t1,gp,-1740 # 20c70 <next.4>
    1054:	20684833          	sh2add	a6,a6,t1
    1058:	00082803          	lw	a6,0(a6)
    105c:	0a488893          	addi	a7,a7,164 # 200a4 <jump_table.17>
    1060:	21184833          	sh2add	a6,a6,a7
    1064:	00082803          	lw	a6,0(a6)
    1068:	af5ff06f          	j	b5c <inferenceTPG+0xc>

0000106c <T13_start>:
    106c:	b0002ef3          	csrr	t4,mcycle
    1070:	00472e03          	lw	t3,4(a4)
    1074:	00462883          	lw	a7,4(a2)
    1078:	011e0833          	add	a6,t3,a7
    107c:	0085a303          	lw	t1,8(a1)
    1080:	00680833          	add	a6,a6,t1
    1084:	09012623          	sw	a6,140(sp)
    1088:	00c72803          	lw	a6,12(a4)
    108c:	01180333          	add	t1,a6,a7
    1090:	08612823          	sw	t1,144(sp)
    1094:	0045a303          	lw	t1,4(a1)
    1098:	01c30333          	add	t1,t1,t3
    109c:	08612a23          	sw	t1,148(sp)
    10a0:	41180833          	sub	a6,a6,a7
    10a4:	09012c23          	sw	a6,152(sp)

000010a8 <T13_end>:
    10a8:	b0002873          	csrr	a6,mcycle
    10ac:	41d80833          	sub	a6,a6,t4
    10b0:	0307aa23          	sw	a6,52(a5)
    10b4:	08c12303          	lw	t1,140(sp)
    10b8:	09012883          	lw	a7,144(sp)
    10bc:	00100813          	li	a6,1
    10c0:	0068d663          	bge	a7,t1,10cc <T13_end+0x24>
    10c4:	00030893          	mv	a7,t1
    10c8:	00000813          	li	a6,0
    10cc:	09412303          	lw	t1,148(sp)
    10d0:	03135c63          	bge	t1,a7,1108 <T13_end+0x60>
    10d4:	00088313          	mv	t1,a7
    10d8:	09812883          	lw	a7,152(sp)
    10dc:	0068c463          	blt	a7,t1,10e4 <T13_end+0x3c>
    10e0:	00300813          	li	a6,3
    10e4:	000208b7          	lui	a7,0x20
    10e8:	00020337          	lui	t1,0x20
    10ec:	06030313          	addi	t1,t1,96 # 20060 <next.3>
    10f0:	20684833          	sh2add	a6,a6,t1
    10f4:	00082803          	lw	a6,0(a6)
    10f8:	0a488893          	addi	a7,a7,164 # 200a4 <jump_table.17>
    10fc:	21184833          	sh2add	a6,a6,a7
    1100:	00082803          	lw	a6,0(a6)
    1104:	a59ff06f          	j	b5c <inferenceTPG+0xc>
    1108:	00200813          	li	a6,2
    110c:	fcdff06f          	j	10d8 <T13_end+0x30>

00001110 <T14_start>:
    1110:	b0002373          	csrr	t1,mcycle
    1114:	00472803          	lw	a6,4(a4)
    1118:	00462883          	lw	a7,4(a2)
    111c:	01180833          	add	a6,a6,a7
    1120:	0085a883          	lw	a7,8(a1)
    1124:	01180833          	add	a6,a6,a7
    1128:	07012823          	sw	a6,112(sp)
    112c:	00c72883          	lw	a7,12(a4)
    1130:	0006a803          	lw	a6,0(a3)
    1134:	01180833          	add	a6,a6,a7
    1138:	07012a23          	sw	a6,116(sp)
    113c:	0045a803          	lw	a6,4(a1)
    1140:	01180833          	add	a6,a6,a7
    1144:	07012c23          	sw	a6,120(sp)

00001148 <T14_end>:
    1148:	b0002873          	csrr	a6,mcycle
    114c:	40680833          	sub	a6,a6,t1
    1150:	0307ac23          	sw	a6,56(a5)
    1154:	07012303          	lw	t1,112(sp)
    1158:	07412883          	lw	a7,116(sp)
    115c:	00100813          	li	a6,1
    1160:	0068d663          	bge	a7,t1,116c <T14_end+0x24>
    1164:	00030893          	mv	a7,t1
    1168:	00000813          	li	a6,0
    116c:	07812303          	lw	t1,120(sp)
    1170:	01134463          	blt	t1,a7,1178 <T14_end+0x30>
    1174:	00200813          	li	a6,2
    1178:	000208b7          	lui	a7,0x20
    117c:	00020337          	lui	t1,0x20
    1180:	05430313          	addi	t1,t1,84 # 20054 <next.2>
    1184:	20684833          	sh2add	a6,a6,t1
    1188:	00082803          	lw	a6,0(a6)
    118c:	0a488893          	addi	a7,a7,164 # 200a4 <jump_table.17>
    1190:	21184833          	sh2add	a6,a6,a7
    1194:	00082803          	lw	a6,0(a6)
    1198:	9c5ff06f          	j	b5c <inferenceTPG+0xc>

0000119c <T15_start>:
    119c:	b0002373          	csrr	t1,mcycle
    11a0:	00072883          	lw	a7,0(a4)
    11a4:	0046a803          	lw	a6,4(a3)
    11a8:	01180833          	add	a6,a6,a7
    11ac:	0b012623          	sw	a6,172(sp)
    11b0:	0006a803          	lw	a6,0(a3)
    11b4:	01180833          	add	a6,a6,a7
    11b8:	0b012823          	sw	a6,176(sp)
    11bc:	00472803          	lw	a6,4(a4)
    11c0:	00062883          	lw	a7,0(a2)
    11c4:	010888b3          	add	a7,a7,a6
    11c8:	0b112a23          	sw	a7,180(sp)
    11cc:	0085a883          	lw	a7,8(a1)
    11d0:	010888b3          	add	a7,a7,a6
    11d4:	0b112c23          	sw	a7,184(sp)
    11d8:	0086a883          	lw	a7,8(a3)
    11dc:	41180833          	sub	a6,a6,a7
    11e0:	0b012e23          	sw	a6,188(sp)

000011e4 <T15_end>:
    11e4:	b0002873          	csrr	a6,mcycle
    11e8:	40680833          	sub	a6,a6,t1
    11ec:	0307ae23          	sw	a6,60(a5)
    11f0:	0ac12e03          	lw	t3,172(sp)
    11f4:	0ac10893          	addi	a7,sp,172
    11f8:	00000f13          	li	t5,0
    11fc:	00100813          	li	a6,1
    1200:	00500e93          	li	t4,5
    1204:	0100006f          	j	1214 <T15_end+0x30>
    1208:	00180813          	addi	a6,a6,1
    120c:	00488893          	addi	a7,a7,4
    1210:	01d80c63          	beq	a6,t4,1228 <T15_end+0x44>
    1214:	0048a303          	lw	t1,4(a7)
    1218:	ffc348e3          	blt	t1,t3,1208 <T15_end+0x24>
    121c:	00030e13          	mv	t3,t1
    1220:	00080f13          	mv	t5,a6
    1224:	fe5ff06f          	j	1208 <T15_end+0x24>
    1228:	000208b7          	lui	a7,0x20
    122c:	00020837          	lui	a6,0x20
    1230:	04080813          	addi	a6,a6,64 # 20040 <next.1>
    1234:	210f4f33          	sh2add	t5,t5,a6
    1238:	000f2803          	lw	a6,0(t5)
    123c:	0a488893          	addi	a7,a7,164 # 200a4 <jump_table.17>
    1240:	21184833          	sh2add	a6,a6,a7
    1244:	00082803          	lw	a6,0(a6)
    1248:	915ff06f          	j	b5c <inferenceTPG+0xc>

0000124c <T16_start>:
    124c:	b0002373          	csrr	t1,mcycle
    1250:	00872803          	lw	a6,8(a4)
    1254:	00462883          	lw	a7,4(a2)
    1258:	21182833          	sh1add	a6,a6,a7
    125c:	09012e23          	sw	a6,156(sp)
    1260:	00072883          	lw	a7,0(a4)
    1264:	00472803          	lw	a6,4(a4)
    1268:	0b186833          	max	a6,a6,a7
    126c:	0b012023          	sw	a6,160(sp)
    1270:	0086a803          	lw	a6,8(a3)
    1274:	01180833          	add	a6,a6,a7
    1278:	0b012223          	sw	a6,164(sp)
    127c:	0006a803          	lw	a6,0(a3)
    1280:	01180833          	add	a6,a6,a7
    1284:	0b012423          	sw	a6,168(sp)

00001288 <T16_end>:
    1288:	b0002873          	csrr	a6,mcycle
    128c:	40680833          	sub	a6,a6,t1
    1290:	0507a023          	sw	a6,64(a5)
    1294:	09c12303          	lw	t1,156(sp)
    1298:	0a012883          	lw	a7,160(sp)
    129c:	00100813          	li	a6,1
    12a0:	0068d663          	bge	a7,t1,12ac <T16_end+0x24>
    12a4:	00030893          	mv	a7,t1
    12a8:	00000813          	li	a6,0
    12ac:	0a412303          	lw	t1,164(sp)
    12b0:	03135c63          	bge	t1,a7,12e8 <T16_end+0x60>
    12b4:	00088313          	mv	t1,a7
    12b8:	0a812883          	lw	a7,168(sp)
    12bc:	0068c463          	blt	a7,t1,12c4 <T16_end+0x3c>
    12c0:	00300813          	li	a6,3
    12c4:	000208b7          	lui	a7,0x20
    12c8:	00020337          	lui	t1,0x20
    12cc:	03030313          	addi	t1,t1,48 # 20030 <next.0>
    12d0:	20684833          	sh2add	a6,a6,t1
    12d4:	00082803          	lw	a6,0(a6)
    12d8:	0a488893          	addi	a7,a7,164 # 200a4 <jump_table.17>
    12dc:	21184833          	sh2add	a6,a6,a7
    12e0:	00082803          	lw	a6,0(a6)
    12e4:	879ff06f          	j	b5c <inferenceTPG+0xc>
    12e8:	00200813          	li	a6,2
    12ec:	fcdff06f          	j	12b8 <T16_end+0x30>
    12f0:	00500793          	li	a5,5
    12f4:	00f52023          	sw	a5,0(a0)
    12f8:	0c010113          	addi	sp,sp,192
    12fc:	00008067          	ret
    1300:	00600793          	li	a5,6
    1304:	ff1ff06f          	j	12f4 <T16_end+0x6c>
    1308:	00400793          	li	a5,4
    130c:	fe9ff06f          	j	12f4 <T16_end+0x6c>
    1310:	00800793          	li	a5,8
    1314:	fe1ff06f          	j	12f4 <T16_end+0x6c>
    1318:	00000793          	li	a5,0
    131c:	fd9ff06f          	j	12f4 <T16_end+0x6c>
    1320:	00700793          	li	a5,7
    1324:	fd1ff06f          	j	12f4 <T16_end+0x6c>
    1328:	00200793          	li	a5,2
    132c:	fc9ff06f          	j	12f4 <T16_end+0x6c>
    1330:	00100793          	li	a5,1
    1334:	fc1ff06f          	j	12f4 <T16_end+0x6c>

00001338 <handler_irq_fast_timer_1>:
    1338:	fc010113          	addi	sp,sp,-64
    133c:	02112e23          	sw	ra,60(sp)
    1340:	02512c23          	sw	t0,56(sp)
    1344:	02612a23          	sw	t1,52(sp)
    1348:	02712823          	sw	t2,48(sp)
    134c:	02a12623          	sw	a0,44(sp)
    1350:	02b12423          	sw	a1,40(sp)
    1354:	02c12223          	sw	a2,36(sp)
    1358:	02d12023          	sw	a3,32(sp)
    135c:	00e12e23          	sw	a4,28(sp)
    1360:	00f12c23          	sw	a5,24(sp)
    1364:	01012a23          	sw	a6,20(sp)
    1368:	01112823          	sw	a7,16(sp)
    136c:	01c12623          	sw	t3,12(sp)
    1370:	01d12423          	sw	t4,8(sp)
    1374:	01e12223          	sw	t5,4(sp)
    1378:	01f12023          	sw	t6,0(sp)
    137c:	200607b7          	lui	a5,0x20060
    1380:	00100713          	li	a4,1
    1384:	00e7a223          	sw	a4,4(a5) # 20060004 <_sp+0x200370e4>
    1388:	828ff0ef          	jal	3b0 <fic_irq_timer_1>
    138c:	03c12083          	lw	ra,60(sp)
    1390:	03812283          	lw	t0,56(sp)
    1394:	03412303          	lw	t1,52(sp)
    1398:	03012383          	lw	t2,48(sp)
    139c:	02c12503          	lw	a0,44(sp)
    13a0:	02812583          	lw	a1,40(sp)
    13a4:	02412603          	lw	a2,36(sp)
    13a8:	02012683          	lw	a3,32(sp)
    13ac:	01c12703          	lw	a4,28(sp)
    13b0:	01812783          	lw	a5,24(sp)
    13b4:	01412803          	lw	a6,20(sp)
    13b8:	01012883          	lw	a7,16(sp)
    13bc:	00c12e03          	lw	t3,12(sp)
    13c0:	00812e83          	lw	t4,8(sp)
    13c4:	00412f03          	lw	t5,4(sp)
    13c8:	00012f83          	lw	t6,0(sp)
    13cc:	04010113          	addi	sp,sp,64
    13d0:	30200073          	mret

000013d4 <handler_irq_fast_timer_2>:
    13d4:	fc010113          	addi	sp,sp,-64
    13d8:	02112e23          	sw	ra,60(sp)
    13dc:	02512c23          	sw	t0,56(sp)
    13e0:	02612a23          	sw	t1,52(sp)
    13e4:	02712823          	sw	t2,48(sp)
    13e8:	02a12623          	sw	a0,44(sp)
    13ec:	02b12423          	sw	a1,40(sp)
    13f0:	02c12223          	sw	a2,36(sp)
    13f4:	02d12023          	sw	a3,32(sp)
    13f8:	00e12e23          	sw	a4,28(sp)
    13fc:	00f12c23          	sw	a5,24(sp)
    1400:	01012a23          	sw	a6,20(sp)
    1404:	01112823          	sw	a7,16(sp)
    1408:	01c12623          	sw	t3,12(sp)
    140c:	01d12423          	sw	t4,8(sp)
    1410:	01e12223          	sw	t5,4(sp)
    1414:	01f12023          	sw	t6,0(sp)
    1418:	200607b7          	lui	a5,0x20060
    141c:	00200713          	li	a4,2
    1420:	00e7a223          	sw	a4,4(a5) # 20060004 <_sp+0x200370e4>
    1424:	fb1fe0ef          	jal	3d4 <fic_irq_timer_2>
    1428:	03c12083          	lw	ra,60(sp)
    142c:	03812283          	lw	t0,56(sp)
    1430:	03412303          	lw	t1,52(sp)
    1434:	03012383          	lw	t2,48(sp)
    1438:	02c12503          	lw	a0,44(sp)
    143c:	02812583          	lw	a1,40(sp)
    1440:	02412603          	lw	a2,36(sp)
    1444:	02012683          	lw	a3,32(sp)
    1448:	01c12703          	lw	a4,28(sp)
    144c:	01812783          	lw	a5,24(sp)
    1450:	01412803          	lw	a6,20(sp)
    1454:	01012883          	lw	a7,16(sp)
    1458:	00c12e03          	lw	t3,12(sp)
    145c:	00812e83          	lw	t4,8(sp)
    1460:	00412f03          	lw	t5,4(sp)
    1464:	00012f83          	lw	t6,0(sp)
    1468:	04010113          	addi	sp,sp,64
    146c:	30200073          	mret

00001470 <handler_irq_fast_timer_3>:
    1470:	fc010113          	addi	sp,sp,-64
    1474:	02112e23          	sw	ra,60(sp)
    1478:	02512c23          	sw	t0,56(sp)
    147c:	02612a23          	sw	t1,52(sp)
    1480:	02712823          	sw	t2,48(sp)
    1484:	02a12623          	sw	a0,44(sp)
    1488:	02b12423          	sw	a1,40(sp)
    148c:	02c12223          	sw	a2,36(sp)
    1490:	02d12023          	sw	a3,32(sp)
    1494:	00e12e23          	sw	a4,28(sp)
    1498:	00f12c23          	sw	a5,24(sp)
    149c:	01012a23          	sw	a6,20(sp)
    14a0:	01112823          	sw	a7,16(sp)
    14a4:	01c12623          	sw	t3,12(sp)
    14a8:	01d12423          	sw	t4,8(sp)
    14ac:	01e12223          	sw	t5,4(sp)
    14b0:	01f12023          	sw	t6,0(sp)
    14b4:	200607b7          	lui	a5,0x20060
    14b8:	00400713          	li	a4,4
    14bc:	00e7a223          	sw	a4,4(a5) # 20060004 <_sp+0x200370e4>
    14c0:	f39fe0ef          	jal	3f8 <fic_irq_timer_3>
    14c4:	03c12083          	lw	ra,60(sp)
    14c8:	03812283          	lw	t0,56(sp)
    14cc:	03412303          	lw	t1,52(sp)
    14d0:	03012383          	lw	t2,48(sp)
    14d4:	02c12503          	lw	a0,44(sp)
    14d8:	02812583          	lw	a1,40(sp)
    14dc:	02412603          	lw	a2,36(sp)
    14e0:	02012683          	lw	a3,32(sp)
    14e4:	01c12703          	lw	a4,28(sp)
    14e8:	01812783          	lw	a5,24(sp)
    14ec:	01412803          	lw	a6,20(sp)
    14f0:	01012883          	lw	a7,16(sp)
    14f4:	00c12e03          	lw	t3,12(sp)
    14f8:	00812e83          	lw	t4,8(sp)
    14fc:	00412f03          	lw	t5,4(sp)
    1500:	00012f83          	lw	t6,0(sp)
    1504:	04010113          	addi	sp,sp,64
    1508:	30200073          	mret

0000150c <handler_irq_fast_dma_done>:
    150c:	fc010113          	addi	sp,sp,-64
    1510:	02112e23          	sw	ra,60(sp)
    1514:	02512c23          	sw	t0,56(sp)
    1518:	02612a23          	sw	t1,52(sp)
    151c:	02712823          	sw	t2,48(sp)
    1520:	02a12623          	sw	a0,44(sp)
    1524:	02b12423          	sw	a1,40(sp)
    1528:	02c12223          	sw	a2,36(sp)
    152c:	02d12023          	sw	a3,32(sp)
    1530:	00e12e23          	sw	a4,28(sp)
    1534:	00f12c23          	sw	a5,24(sp)
    1538:	01012a23          	sw	a6,20(sp)
    153c:	01112823          	sw	a7,16(sp)
    1540:	01c12623          	sw	t3,12(sp)
    1544:	01d12423          	sw	t4,8(sp)
    1548:	01e12223          	sw	t5,4(sp)
    154c:	01f12023          	sw	t6,0(sp)
    1550:	200607b7          	lui	a5,0x20060
    1554:	00800713          	li	a4,8
    1558:	00e7a223          	sw	a4,4(a5) # 20060004 <_sp+0x200370e4>
    155c:	d59fe0ef          	jal	2b4 <fic_irq_dma_done>
    1560:	03c12083          	lw	ra,60(sp)
    1564:	03812283          	lw	t0,56(sp)
    1568:	03412303          	lw	t1,52(sp)
    156c:	03012383          	lw	t2,48(sp)
    1570:	02c12503          	lw	a0,44(sp)
    1574:	02812583          	lw	a1,40(sp)
    1578:	02412603          	lw	a2,36(sp)
    157c:	02012683          	lw	a3,32(sp)
    1580:	01c12703          	lw	a4,28(sp)
    1584:	01812783          	lw	a5,24(sp)
    1588:	01412803          	lw	a6,20(sp)
    158c:	01012883          	lw	a7,16(sp)
    1590:	00c12e03          	lw	t3,12(sp)
    1594:	00812e83          	lw	t4,8(sp)
    1598:	00412f03          	lw	t5,4(sp)
    159c:	00012f83          	lw	t6,0(sp)
    15a0:	04010113          	addi	sp,sp,64
    15a4:	30200073          	mret

000015a8 <handler_irq_fast_dma_window>:
    15a8:	fc010113          	addi	sp,sp,-64
    15ac:	02112e23          	sw	ra,60(sp)
    15b0:	02512c23          	sw	t0,56(sp)
    15b4:	02612a23          	sw	t1,52(sp)
    15b8:	02712823          	sw	t2,48(sp)
    15bc:	02a12623          	sw	a0,44(sp)
    15c0:	02b12423          	sw	a1,40(sp)
    15c4:	02c12223          	sw	a2,36(sp)
    15c8:	02d12023          	sw	a3,32(sp)
    15cc:	00e12e23          	sw	a4,28(sp)
    15d0:	00f12c23          	sw	a5,24(sp)
    15d4:	01012a23          	sw	a6,20(sp)
    15d8:	01112823          	sw	a7,16(sp)
    15dc:	01c12623          	sw	t3,12(sp)
    15e0:	01d12423          	sw	t4,8(sp)
    15e4:	01e12223          	sw	t5,4(sp)
    15e8:	01f12023          	sw	t6,0(sp)
    15ec:	200607b7          	lui	a5,0x20060
    15f0:	00004737          	lui	a4,0x4
    15f4:	00e7a223          	sw	a4,4(a5) # 20060004 <_sp+0x200370e4>
    15f8:	c3dfe0ef          	jal	234 <fic_irq_dma_window>
    15fc:	03c12083          	lw	ra,60(sp)
    1600:	03812283          	lw	t0,56(sp)
    1604:	03412303          	lw	t1,52(sp)
    1608:	03012383          	lw	t2,48(sp)
    160c:	02c12503          	lw	a0,44(sp)
    1610:	02812583          	lw	a1,40(sp)
    1614:	02412603          	lw	a2,36(sp)
    1618:	02012683          	lw	a3,32(sp)
    161c:	01c12703          	lw	a4,28(sp)
    1620:	01812783          	lw	a5,24(sp)
    1624:	01412803          	lw	a6,20(sp)
    1628:	01012883          	lw	a7,16(sp)
    162c:	00c12e03          	lw	t3,12(sp)
    1630:	00812e83          	lw	t4,8(sp)
    1634:	00412f03          	lw	t5,4(sp)
    1638:	00012f83          	lw	t6,0(sp)
    163c:	04010113          	addi	sp,sp,64
    1640:	30200073          	mret

00001644 <handler_irq_fast_external_peripheral>:
    1644:	fc010113          	addi	sp,sp,-64
    1648:	02112e23          	sw	ra,60(sp)
    164c:	02512c23          	sw	t0,56(sp)
    1650:	02612a23          	sw	t1,52(sp)
    1654:	02712823          	sw	t2,48(sp)
    1658:	02a12623          	sw	a0,44(sp)
    165c:	02b12423          	sw	a1,40(sp)
    1660:	02c12223          	sw	a2,36(sp)
    1664:	02d12023          	sw	a3,32(sp)
    1668:	00e12e23          	sw	a4,28(sp)
    166c:	00f12c23          	sw	a5,24(sp)
    1670:	01012a23          	sw	a6,20(sp)
    1674:	01112823          	sw	a7,16(sp)
    1678:	01c12623          	sw	t3,12(sp)
    167c:	01d12423          	sw	t4,8(sp)
    1680:	01e12223          	sw	t5,4(sp)
    1684:	01f12023          	sw	t6,0(sp)
    1688:	200607b7          	lui	a5,0x20060
    168c:	00008737          	lui	a4,0x8
    1690:	00e7a223          	sw	a4,4(a5) # 20060004 <_sp+0x200370e4>
    1694:	d89fe0ef          	jal	41c <fic_irq_ext_peripheral>
    1698:	03c12083          	lw	ra,60(sp)
    169c:	03812283          	lw	t0,56(sp)
    16a0:	03412303          	lw	t1,52(sp)
    16a4:	03012383          	lw	t2,48(sp)
    16a8:	02c12503          	lw	a0,44(sp)
    16ac:	02812583          	lw	a1,40(sp)
    16b0:	02412603          	lw	a2,36(sp)
    16b4:	02012683          	lw	a3,32(sp)
    16b8:	01c12703          	lw	a4,28(sp)
    16bc:	01812783          	lw	a5,24(sp)
    16c0:	01412803          	lw	a6,20(sp)
    16c4:	01012883          	lw	a7,16(sp)
    16c8:	00c12e03          	lw	t3,12(sp)
    16cc:	00812e83          	lw	t4,8(sp)
    16d0:	00412f03          	lw	t5,4(sp)
    16d4:	00012f83          	lw	t6,0(sp)
    16d8:	04010113          	addi	sp,sp,64
    16dc:	30200073          	mret

000016e0 <handler_irq_fast_gpio_0>:
    16e0:	fc010113          	addi	sp,sp,-64
    16e4:	02112e23          	sw	ra,60(sp)
    16e8:	02512c23          	sw	t0,56(sp)
    16ec:	02612a23          	sw	t1,52(sp)
    16f0:	02712823          	sw	t2,48(sp)
    16f4:	02a12623          	sw	a0,44(sp)
    16f8:	02b12423          	sw	a1,40(sp)
    16fc:	02c12223          	sw	a2,36(sp)
    1700:	02d12023          	sw	a3,32(sp)
    1704:	00e12e23          	sw	a4,28(sp)
    1708:	00f12c23          	sw	a5,24(sp)
    170c:	01012a23          	sw	a6,20(sp)
    1710:	01112823          	sw	a7,16(sp)
    1714:	01c12623          	sw	t3,12(sp)
    1718:	01d12423          	sw	t4,8(sp)
    171c:	01e12223          	sw	t5,4(sp)
    1720:	01f12023          	sw	t6,0(sp)
    1724:	200607b7          	lui	a5,0x20060
    1728:	04000713          	li	a4,64
    172c:	00e7a223          	sw	a4,4(a5) # 20060004 <_sp+0x200370e4>
    1730:	d11fe0ef          	jal	440 <fic_irq_gpio_0>
    1734:	03c12083          	lw	ra,60(sp)
    1738:	03812283          	lw	t0,56(sp)
    173c:	03412303          	lw	t1,52(sp)
    1740:	03012383          	lw	t2,48(sp)
    1744:	02c12503          	lw	a0,44(sp)
    1748:	02812583          	lw	a1,40(sp)
    174c:	02412603          	lw	a2,36(sp)
    1750:	02012683          	lw	a3,32(sp)
    1754:	01c12703          	lw	a4,28(sp)
    1758:	01812783          	lw	a5,24(sp)
    175c:	01412803          	lw	a6,20(sp)
    1760:	01012883          	lw	a7,16(sp)
    1764:	00c12e03          	lw	t3,12(sp)
    1768:	00812e83          	lw	t4,8(sp)
    176c:	00412f03          	lw	t5,4(sp)
    1770:	00012f83          	lw	t6,0(sp)
    1774:	04010113          	addi	sp,sp,64
    1778:	30200073          	mret

0000177c <handler_irq_fast_gpio_1>:
    177c:	fc010113          	addi	sp,sp,-64
    1780:	02112e23          	sw	ra,60(sp)
    1784:	02512c23          	sw	t0,56(sp)
    1788:	02612a23          	sw	t1,52(sp)
    178c:	02712823          	sw	t2,48(sp)
    1790:	02a12623          	sw	a0,44(sp)
    1794:	02b12423          	sw	a1,40(sp)
    1798:	02c12223          	sw	a2,36(sp)
    179c:	02d12023          	sw	a3,32(sp)
    17a0:	00e12e23          	sw	a4,28(sp)
    17a4:	00f12c23          	sw	a5,24(sp)
    17a8:	01012a23          	sw	a6,20(sp)
    17ac:	01112823          	sw	a7,16(sp)
    17b0:	01c12623          	sw	t3,12(sp)
    17b4:	01d12423          	sw	t4,8(sp)
    17b8:	01e12223          	sw	t5,4(sp)
    17bc:	01f12023          	sw	t6,0(sp)
    17c0:	200607b7          	lui	a5,0x20060
    17c4:	08000713          	li	a4,128
    17c8:	00e7a223          	sw	a4,4(a5) # 20060004 <_sp+0x200370e4>
    17cc:	c99fe0ef          	jal	464 <fic_irq_gpio_1>
    17d0:	03c12083          	lw	ra,60(sp)
    17d4:	03812283          	lw	t0,56(sp)
    17d8:	03412303          	lw	t1,52(sp)
    17dc:	03012383          	lw	t2,48(sp)
    17e0:	02c12503          	lw	a0,44(sp)
    17e4:	02812583          	lw	a1,40(sp)
    17e8:	02412603          	lw	a2,36(sp)
    17ec:	02012683          	lw	a3,32(sp)
    17f0:	01c12703          	lw	a4,28(sp)
    17f4:	01812783          	lw	a5,24(sp)
    17f8:	01412803          	lw	a6,20(sp)
    17fc:	01012883          	lw	a7,16(sp)
    1800:	00c12e03          	lw	t3,12(sp)
    1804:	00812e83          	lw	t4,8(sp)
    1808:	00412f03          	lw	t5,4(sp)
    180c:	00012f83          	lw	t6,0(sp)
    1810:	04010113          	addi	sp,sp,64
    1814:	30200073          	mret

00001818 <handler_irq_fast_gpio_2>:
    1818:	fc010113          	addi	sp,sp,-64
    181c:	02112e23          	sw	ra,60(sp)
    1820:	02512c23          	sw	t0,56(sp)
    1824:	02612a23          	sw	t1,52(sp)
    1828:	02712823          	sw	t2,48(sp)
    182c:	02a12623          	sw	a0,44(sp)
    1830:	02b12423          	sw	a1,40(sp)
    1834:	02c12223          	sw	a2,36(sp)
    1838:	02d12023          	sw	a3,32(sp)
    183c:	00e12e23          	sw	a4,28(sp)
    1840:	00f12c23          	sw	a5,24(sp)
    1844:	01012a23          	sw	a6,20(sp)
    1848:	01112823          	sw	a7,16(sp)
    184c:	01c12623          	sw	t3,12(sp)
    1850:	01d12423          	sw	t4,8(sp)
    1854:	01e12223          	sw	t5,4(sp)
    1858:	01f12023          	sw	t6,0(sp)
    185c:	200607b7          	lui	a5,0x20060
    1860:	10000713          	li	a4,256
    1864:	00e7a223          	sw	a4,4(a5) # 20060004 <_sp+0x200370e4>
    1868:	c21fe0ef          	jal	488 <fic_irq_gpio_2>
    186c:	03c12083          	lw	ra,60(sp)
    1870:	03812283          	lw	t0,56(sp)
    1874:	03412303          	lw	t1,52(sp)
    1878:	03012383          	lw	t2,48(sp)
    187c:	02c12503          	lw	a0,44(sp)
    1880:	02812583          	lw	a1,40(sp)
    1884:	02412603          	lw	a2,36(sp)
    1888:	02012683          	lw	a3,32(sp)
    188c:	01c12703          	lw	a4,28(sp)
    1890:	01812783          	lw	a5,24(sp)
    1894:	01412803          	lw	a6,20(sp)
    1898:	01012883          	lw	a7,16(sp)
    189c:	00c12e03          	lw	t3,12(sp)
    18a0:	00812e83          	lw	t4,8(sp)
    18a4:	00412f03          	lw	t5,4(sp)
    18a8:	00012f83          	lw	t6,0(sp)
    18ac:	04010113          	addi	sp,sp,64
    18b0:	30200073          	mret

000018b4 <handler_irq_fast_gpio_3>:
    18b4:	fc010113          	addi	sp,sp,-64
    18b8:	02112e23          	sw	ra,60(sp)
    18bc:	02512c23          	sw	t0,56(sp)
    18c0:	02612a23          	sw	t1,52(sp)
    18c4:	02712823          	sw	t2,48(sp)
    18c8:	02a12623          	sw	a0,44(sp)
    18cc:	02b12423          	sw	a1,40(sp)
    18d0:	02c12223          	sw	a2,36(sp)
    18d4:	02d12023          	sw	a3,32(sp)
    18d8:	00e12e23          	sw	a4,28(sp)
    18dc:	00f12c23          	sw	a5,24(sp)
    18e0:	01012a23          	sw	a6,20(sp)
    18e4:	01112823          	sw	a7,16(sp)
    18e8:	01c12623          	sw	t3,12(sp)
    18ec:	01d12423          	sw	t4,8(sp)
    18f0:	01e12223          	sw	t5,4(sp)
    18f4:	01f12023          	sw	t6,0(sp)
    18f8:	200607b7          	lui	a5,0x20060
    18fc:	20000713          	li	a4,512
    1900:	00e7a223          	sw	a4,4(a5) # 20060004 <_sp+0x200370e4>
    1904:	ba9fe0ef          	jal	4ac <fic_irq_gpio_3>
    1908:	03c12083          	lw	ra,60(sp)
    190c:	03812283          	lw	t0,56(sp)
    1910:	03412303          	lw	t1,52(sp)
    1914:	03012383          	lw	t2,48(sp)
    1918:	02c12503          	lw	a0,44(sp)
    191c:	02812583          	lw	a1,40(sp)
    1920:	02412603          	lw	a2,36(sp)
    1924:	02012683          	lw	a3,32(sp)
    1928:	01c12703          	lw	a4,28(sp)
    192c:	01812783          	lw	a5,24(sp)
    1930:	01412803          	lw	a6,20(sp)
    1934:	01012883          	lw	a7,16(sp)
    1938:	00c12e03          	lw	t3,12(sp)
    193c:	00812e83          	lw	t4,8(sp)
    1940:	00412f03          	lw	t5,4(sp)
    1944:	00012f83          	lw	t6,0(sp)
    1948:	04010113          	addi	sp,sp,64
    194c:	30200073          	mret

00001950 <handler_irq_fast_gpio_4>:
    1950:	fc010113          	addi	sp,sp,-64
    1954:	02112e23          	sw	ra,60(sp)
    1958:	02512c23          	sw	t0,56(sp)
    195c:	02612a23          	sw	t1,52(sp)
    1960:	02712823          	sw	t2,48(sp)
    1964:	02a12623          	sw	a0,44(sp)
    1968:	02b12423          	sw	a1,40(sp)
    196c:	02c12223          	sw	a2,36(sp)
    1970:	02d12023          	sw	a3,32(sp)
    1974:	00e12e23          	sw	a4,28(sp)
    1978:	00f12c23          	sw	a5,24(sp)
    197c:	01012a23          	sw	a6,20(sp)
    1980:	01112823          	sw	a7,16(sp)
    1984:	01c12623          	sw	t3,12(sp)
    1988:	01d12423          	sw	t4,8(sp)
    198c:	01e12223          	sw	t5,4(sp)
    1990:	01f12023          	sw	t6,0(sp)
    1994:	200607b7          	lui	a5,0x20060
    1998:	40000713          	li	a4,1024
    199c:	00e7a223          	sw	a4,4(a5) # 20060004 <_sp+0x200370e4>
    19a0:	b31fe0ef          	jal	4d0 <fic_irq_gpio_4>
    19a4:	03c12083          	lw	ra,60(sp)
    19a8:	03812283          	lw	t0,56(sp)
    19ac:	03412303          	lw	t1,52(sp)
    19b0:	03012383          	lw	t2,48(sp)
    19b4:	02c12503          	lw	a0,44(sp)
    19b8:	02812583          	lw	a1,40(sp)
    19bc:	02412603          	lw	a2,36(sp)
    19c0:	02012683          	lw	a3,32(sp)
    19c4:	01c12703          	lw	a4,28(sp)
    19c8:	01812783          	lw	a5,24(sp)
    19cc:	01412803          	lw	a6,20(sp)
    19d0:	01012883          	lw	a7,16(sp)
    19d4:	00c12e03          	lw	t3,12(sp)
    19d8:	00812e83          	lw	t4,8(sp)
    19dc:	00412f03          	lw	t5,4(sp)
    19e0:	00012f83          	lw	t6,0(sp)
    19e4:	04010113          	addi	sp,sp,64
    19e8:	30200073          	mret

000019ec <handler_irq_fast_gpio_5>:
    19ec:	fc010113          	addi	sp,sp,-64
    19f0:	02112e23          	sw	ra,60(sp)
    19f4:	02512c23          	sw	t0,56(sp)
    19f8:	02612a23          	sw	t1,52(sp)
    19fc:	02712823          	sw	t2,48(sp)
    1a00:	02a12623          	sw	a0,44(sp)
    1a04:	02b12423          	sw	a1,40(sp)
    1a08:	02c12223          	sw	a2,36(sp)
    1a0c:	02d12023          	sw	a3,32(sp)
    1a10:	00e12e23          	sw	a4,28(sp)
    1a14:	00f12c23          	sw	a5,24(sp)
    1a18:	01012a23          	sw	a6,20(sp)
    1a1c:	01112823          	sw	a7,16(sp)
    1a20:	01c12623          	sw	t3,12(sp)
    1a24:	01d12423          	sw	t4,8(sp)
    1a28:	01e12223          	sw	t5,4(sp)
    1a2c:	01f12023          	sw	t6,0(sp)
    1a30:	20060737          	lui	a4,0x20060
    1a34:	000017b7          	lui	a5,0x1
    1a38:	80078793          	addi	a5,a5,-2048 # 800 <spi_event_handler+0x110>
    1a3c:	00f72223          	sw	a5,4(a4) # 20060004 <_sp+0x200370e4>
    1a40:	ab5fe0ef          	jal	4f4 <fic_irq_gpio_5>
    1a44:	03c12083          	lw	ra,60(sp)
    1a48:	03812283          	lw	t0,56(sp)
    1a4c:	03412303          	lw	t1,52(sp)
    1a50:	03012383          	lw	t2,48(sp)
    1a54:	02c12503          	lw	a0,44(sp)
    1a58:	02812583          	lw	a1,40(sp)
    1a5c:	02412603          	lw	a2,36(sp)
    1a60:	02012683          	lw	a3,32(sp)
    1a64:	01c12703          	lw	a4,28(sp)
    1a68:	01812783          	lw	a5,24(sp)
    1a6c:	01412803          	lw	a6,20(sp)
    1a70:	01012883          	lw	a7,16(sp)
    1a74:	00c12e03          	lw	t3,12(sp)
    1a78:	00812e83          	lw	t4,8(sp)
    1a7c:	00412f03          	lw	t5,4(sp)
    1a80:	00012f83          	lw	t6,0(sp)
    1a84:	04010113          	addi	sp,sp,64
    1a88:	30200073          	mret

00001a8c <handler_irq_fast_gpio_6>:
    1a8c:	fc010113          	addi	sp,sp,-64
    1a90:	02112e23          	sw	ra,60(sp)
    1a94:	02512c23          	sw	t0,56(sp)
    1a98:	02612a23          	sw	t1,52(sp)
    1a9c:	02712823          	sw	t2,48(sp)
    1aa0:	02a12623          	sw	a0,44(sp)
    1aa4:	02b12423          	sw	a1,40(sp)
    1aa8:	02c12223          	sw	a2,36(sp)
    1aac:	02d12023          	sw	a3,32(sp)
    1ab0:	00e12e23          	sw	a4,28(sp)
    1ab4:	00f12c23          	sw	a5,24(sp)
    1ab8:	01012a23          	sw	a6,20(sp)
    1abc:	01112823          	sw	a7,16(sp)
    1ac0:	01c12623          	sw	t3,12(sp)
    1ac4:	01d12423          	sw	t4,8(sp)
    1ac8:	01e12223          	sw	t5,4(sp)
    1acc:	01f12023          	sw	t6,0(sp)
    1ad0:	200607b7          	lui	a5,0x20060
    1ad4:	00001737          	lui	a4,0x1
    1ad8:	00e7a223          	sw	a4,4(a5) # 20060004 <_sp+0x200370e4>
    1adc:	a3dfe0ef          	jal	518 <fic_irq_gpio_6>
    1ae0:	03c12083          	lw	ra,60(sp)
    1ae4:	03812283          	lw	t0,56(sp)
    1ae8:	03412303          	lw	t1,52(sp)
    1aec:	03012383          	lw	t2,48(sp)
    1af0:	02c12503          	lw	a0,44(sp)
    1af4:	02812583          	lw	a1,40(sp)
    1af8:	02412603          	lw	a2,36(sp)
    1afc:	02012683          	lw	a3,32(sp)
    1b00:	01c12703          	lw	a4,28(sp)
    1b04:	01812783          	lw	a5,24(sp)
    1b08:	01412803          	lw	a6,20(sp)
    1b0c:	01012883          	lw	a7,16(sp)
    1b10:	00c12e03          	lw	t3,12(sp)
    1b14:	00812e83          	lw	t4,8(sp)
    1b18:	00412f03          	lw	t5,4(sp)
    1b1c:	00012f83          	lw	t6,0(sp)
    1b20:	04010113          	addi	sp,sp,64
    1b24:	30200073          	mret

00001b28 <handler_irq_fast_gpio_7>:
    1b28:	fc010113          	addi	sp,sp,-64
    1b2c:	02112e23          	sw	ra,60(sp)
    1b30:	02512c23          	sw	t0,56(sp)
    1b34:	02612a23          	sw	t1,52(sp)
    1b38:	02712823          	sw	t2,48(sp)
    1b3c:	02a12623          	sw	a0,44(sp)
    1b40:	02b12423          	sw	a1,40(sp)
    1b44:	02c12223          	sw	a2,36(sp)
    1b48:	02d12023          	sw	a3,32(sp)
    1b4c:	00e12e23          	sw	a4,28(sp)
    1b50:	00f12c23          	sw	a5,24(sp)
    1b54:	01012a23          	sw	a6,20(sp)
    1b58:	01112823          	sw	a7,16(sp)
    1b5c:	01c12623          	sw	t3,12(sp)
    1b60:	01d12423          	sw	t4,8(sp)
    1b64:	01e12223          	sw	t5,4(sp)
    1b68:	01f12023          	sw	t6,0(sp)
    1b6c:	200607b7          	lui	a5,0x20060
    1b70:	00002737          	lui	a4,0x2
    1b74:	00e7a223          	sw	a4,4(a5) # 20060004 <_sp+0x200370e4>
    1b78:	9c5fe0ef          	jal	53c <fic_irq_gpio_7>
    1b7c:	03c12083          	lw	ra,60(sp)
    1b80:	03812283          	lw	t0,56(sp)
    1b84:	03412303          	lw	t1,52(sp)
    1b88:	03012383          	lw	t2,48(sp)
    1b8c:	02c12503          	lw	a0,44(sp)
    1b90:	02812583          	lw	a1,40(sp)
    1b94:	02412603          	lw	a2,36(sp)
    1b98:	02012683          	lw	a3,32(sp)
    1b9c:	01c12703          	lw	a4,28(sp)
    1ba0:	01812783          	lw	a5,24(sp)
    1ba4:	01412803          	lw	a6,20(sp)
    1ba8:	01012883          	lw	a7,16(sp)
    1bac:	00c12e03          	lw	t3,12(sp)
    1bb0:	00812e83          	lw	t4,8(sp)
    1bb4:	00412f03          	lw	t5,4(sp)
    1bb8:	00012f83          	lw	t6,0(sp)
    1bbc:	04010113          	addi	sp,sp,64
    1bc0:	30200073          	mret

00001bc4 <handler_irq_external>:
    1bc4:	fb010113          	addi	sp,sp,-80
    1bc8:	04112623          	sw	ra,76(sp)
    1bcc:	04512423          	sw	t0,72(sp)
    1bd0:	04612223          	sw	t1,68(sp)
    1bd4:	04712023          	sw	t2,64(sp)
    1bd8:	02912e23          	sw	s1,60(sp)
    1bdc:	02a12c23          	sw	a0,56(sp)
    1be0:	02b12a23          	sw	a1,52(sp)
    1be4:	02c12823          	sw	a2,48(sp)
    1be8:	02d12623          	sw	a3,44(sp)
    1bec:	02e12423          	sw	a4,40(sp)
    1bf0:	02f12223          	sw	a5,36(sp)
    1bf4:	03012023          	sw	a6,32(sp)
    1bf8:	01112e23          	sw	a7,28(sp)
    1bfc:	01212c23          	sw	s2,24(sp)
    1c00:	01c12a23          	sw	t3,20(sp)
    1c04:	01d12823          	sw	t4,16(sp)
    1c08:	01e12623          	sw	t5,12(sp)
    1c0c:	01f12423          	sw	t6,8(sp)
    1c10:	300004b7          	lui	s1,0x30000
    1c14:	20c4a903          	lw	s2,524(s1) # 3000020c <_sp+0x2ffd72ec>
    1c18:	00090513          	mv	a0,s2
    1c1c:	00000793          	li	a5,0
    1c20:	000780e7          	jalr	a5
    1c24:	2124a623          	sw	s2,524(s1)
    1c28:	04c12083          	lw	ra,76(sp)
    1c2c:	04812283          	lw	t0,72(sp)
    1c30:	04412303          	lw	t1,68(sp)
    1c34:	04012383          	lw	t2,64(sp)
    1c38:	03c12483          	lw	s1,60(sp)
    1c3c:	03812503          	lw	a0,56(sp)
    1c40:	03412583          	lw	a1,52(sp)
    1c44:	03012603          	lw	a2,48(sp)
    1c48:	02c12683          	lw	a3,44(sp)
    1c4c:	02812703          	lw	a4,40(sp)
    1c50:	02412783          	lw	a5,36(sp)
    1c54:	02012803          	lw	a6,32(sp)
    1c58:	01c12883          	lw	a7,28(sp)
    1c5c:	01812903          	lw	s2,24(sp)
    1c60:	01412e03          	lw	t3,20(sp)
    1c64:	01012e83          	lw	t4,16(sp)
    1c68:	00c12f03          	lw	t5,12(sp)
    1c6c:	00812f83          	lw	t6,8(sp)
    1c70:	05010113          	addi	sp,sp,80
    1c74:	30200073          	mret

00001c78 <handler_exception>:
    1c78:	fc010113          	addi	sp,sp,-64
    1c7c:	02112e23          	sw	ra,60(sp)
    1c80:	02512c23          	sw	t0,56(sp)
    1c84:	02612a23          	sw	t1,52(sp)
    1c88:	02712823          	sw	t2,48(sp)
    1c8c:	02a12623          	sw	a0,44(sp)
    1c90:	02b12423          	sw	a1,40(sp)
    1c94:	02c12223          	sw	a2,36(sp)
    1c98:	02d12023          	sw	a3,32(sp)
    1c9c:	00e12e23          	sw	a4,28(sp)
    1ca0:	00f12c23          	sw	a5,24(sp)
    1ca4:	01012a23          	sw	a6,20(sp)
    1ca8:	01112823          	sw	a7,16(sp)
    1cac:	01c12623          	sw	t3,12(sp)
    1cb0:	01d12423          	sw	t4,8(sp)
    1cb4:	01e12223          	sw	t5,4(sp)
    1cb8:	01f12023          	sw	t6,0(sp)
    1cbc:	342027f3          	csrr	a5,mcause
    1cc0:	01f7f793          	andi	a5,a5,31
    1cc4:	00b00713          	li	a4,11
    1cc8:	06f76863          	bltu	a4,a5,1d38 <handler_exception+0xc0>
    1ccc:	00020737          	lui	a4,0x20
    1cd0:	00070713          	mv	a4,a4
    1cd4:	20e7c7b3          	sh2add	a5,a5,a4
    1cd8:	0007a783          	lw	a5,0(a5)
    1cdc:	00078067          	jr	a5
    1ce0:	00020537          	lui	a0,0x20
    1ce4:	33850513          	addi	a0,a0,824 # 20338 <__clz_tab+0x1c0>
    1ce8:	e15fe0ef          	jal	afc <print_exc_msg>
    1cec:	00020537          	lui	a0,0x20
    1cf0:	33850513          	addi	a0,a0,824 # 20338 <__clz_tab+0x1c0>
    1cf4:	e09fe0ef          	jal	afc <print_exc_msg>
    1cf8:	00020537          	lui	a0,0x20
    1cfc:	37050513          	addi	a0,a0,880 # 20370 <__clz_tab+0x1f8>
    1d00:	dfdfe0ef          	jal	afc <print_exc_msg>
    1d04:	00020537          	lui	a0,0x20
    1d08:	3ac50513          	addi	a0,a0,940 # 203ac <__clz_tab+0x234>
    1d0c:	df1fe0ef          	jal	afc <print_exc_msg>
    1d10:	00020537          	lui	a0,0x20
    1d14:	3e850513          	addi	a0,a0,1000 # 203e8 <__clz_tab+0x270>
    1d18:	de5fe0ef          	jal	afc <print_exc_msg>
    1d1c:	00020537          	lui	a0,0x20
    1d20:	3e850513          	addi	a0,a0,1000 # 203e8 <__clz_tab+0x270>
    1d24:	dd9fe0ef          	jal	afc <print_exc_msg>
    1d28:	00020537          	lui	a0,0x20
    1d2c:	41c50513          	addi	a0,a0,1052 # 2041c <__clz_tab+0x2a4>
    1d30:	d99fe0ef          	jal	ac8 <_writestr>
    1d34:	0000006f          	j	1d34 <handler_exception+0xbc>
    1d38:	0000006f          	j	1d38 <handler_exception+0xc0>

00001d3c <handler_irq_software>:
    1d3c:	fc010113          	addi	sp,sp,-64
    1d40:	02112e23          	sw	ra,60(sp)
    1d44:	02512c23          	sw	t0,56(sp)
    1d48:	02612a23          	sw	t1,52(sp)
    1d4c:	02712823          	sw	t2,48(sp)
    1d50:	02a12623          	sw	a0,44(sp)
    1d54:	02b12423          	sw	a1,40(sp)
    1d58:	02c12223          	sw	a2,36(sp)
    1d5c:	02d12023          	sw	a3,32(sp)
    1d60:	00e12e23          	sw	a4,28(sp)
    1d64:	00f12c23          	sw	a5,24(sp)
    1d68:	01012a23          	sw	a6,20(sp)
    1d6c:	01112823          	sw	a7,16(sp)
    1d70:	01c12623          	sw	t3,12(sp)
    1d74:	01d12423          	sw	t4,8(sp)
    1d78:	01e12223          	sw	t5,4(sp)
    1d7c:	01f12023          	sw	t6,0(sp)
    1d80:	00020537          	lui	a0,0x20
    1d84:	43c50513          	addi	a0,a0,1084 # 2043c <__clz_tab+0x2c4>
    1d88:	d41fe0ef          	jal	ac8 <_writestr>
    1d8c:	0000006f          	j	1d8c <handler_irq_software+0x50>

00001d90 <handler_irq_timer>:
    1d90:	fc010113          	addi	sp,sp,-64
    1d94:	02112e23          	sw	ra,60(sp)
    1d98:	02512c23          	sw	t0,56(sp)
    1d9c:	02612a23          	sw	t1,52(sp)
    1da0:	02712823          	sw	t2,48(sp)
    1da4:	02a12623          	sw	a0,44(sp)
    1da8:	02b12423          	sw	a1,40(sp)
    1dac:	02c12223          	sw	a2,36(sp)
    1db0:	02d12023          	sw	a3,32(sp)
    1db4:	00e12e23          	sw	a4,28(sp)
    1db8:	00f12c23          	sw	a5,24(sp)
    1dbc:	01012a23          	sw	a6,20(sp)
    1dc0:	01112823          	sw	a7,16(sp)
    1dc4:	01c12623          	sw	t3,12(sp)
    1dc8:	01d12423          	sw	t4,8(sp)
    1dcc:	01e12223          	sw	t5,4(sp)
    1dd0:	01f12023          	sw	t6,0(sp)
    1dd4:	00020537          	lui	a0,0x20
    1dd8:	45850513          	addi	a0,a0,1112 # 20458 <__clz_tab+0x2e0>
    1ddc:	cedfe0ef          	jal	ac8 <_writestr>
    1de0:	0000006f          	j	1de0 <handler_irq_timer+0x50>

00001de4 <init>:
    1de4:	00000513          	li	a0,0
    1de8:	00008067          	ret

00001dec <_close>:
    1dec:	fff00513          	li	a0,-1
    1df0:	00008067          	ret

00001df4 <_exit>:
    1df4:	200007b7          	lui	a5,0x20000
    1df8:	00a7a223          	sw	a0,4(a5) # 20000004 <_sp+0x1ffd70e4>
    1dfc:	00100713          	li	a4,1
    1e00:	00e78023          	sb	a4,0(a5)
    1e04:	10500073          	wfi

00001e08 <_fstat>:
    1e08:	000027b7          	lui	a5,0x2
    1e0c:	00f5a223          	sw	a5,4(a1)
    1e10:	00000513          	li	a0,0
    1e14:	00008067          	ret

00001e18 <_isatty>:
    1e18:	fff50513          	addi	a0,a0,-1
    1e1c:	00153513          	seqz	a0,a0
    1e20:	00008067          	ret

00001e24 <_lseek>:
    1e24:	00000513          	li	a0,0
    1e28:	00008067          	ret

00001e2c <_read>:
    1e2c:	00000513          	li	a0,0
    1e30:	00008067          	ret

00001e34 <_write_r>:
    1e34:	ff010113          	addi	sp,sp,-16
    1e38:	00112623          	sw	ra,12(sp)
    1e3c:	00058513          	mv	a0,a1
    1e40:	00060593          	mv	a1,a2
    1e44:	00068613          	mv	a2,a3
    1e48:	fa8fe0ef          	jal	5f0 <_write>
    1e4c:	00c12083          	lw	ra,12(sp)
    1e50:	01010113          	addi	sp,sp,16
    1e54:	00008067          	ret

00001e58 <_sbrk>:
    1e58:	00050713          	mv	a4,a0
    1e5c:	be018693          	addi	a3,gp,-1056 # 20f1c <__BSS_END__>
    1e60:	000257b7          	lui	a5,0x25
    1e64:	f1c78793          	addi	a5,a5,-228 # 24f1c <__heap_end>
    1e68:	02f68c63          	beq	a3,a5,1ea0 <_sbrk+0x48>
    1e6c:	9841a503          	lw	a0,-1660(gp) # 20cc0 <brk>
    1e70:	00e50733          	add	a4,a0,a4
    1e74:	00d737b3          	sltu	a5,a4,a3
    1e78:	0017b793          	seqz	a5,a5
    1e7c:	000256b7          	lui	a3,0x25
    1e80:	f1c68693          	addi	a3,a3,-228 # 24f1c <__heap_end>
    1e84:	00d736b3          	sltu	a3,a4,a3
    1e88:	00d7f7b3          	and	a5,a5,a3
    1e8c:	00079663          	bnez	a5,1e98 <_sbrk+0x40>
    1e90:	fff00513          	li	a0,-1
    1e94:	00008067          	ret
    1e98:	98e1a223          	sw	a4,-1660(gp) # 20cc0 <brk>
    1e9c:	00008067          	ret
    1ea0:	00000513          	li	a0,0
    1ea4:	00008067          	ret

00001ea8 <spi_intr_handler_event_flash>:
    1ea8:	000217b7          	lui	a5,0x21
    1eac:	b4c7a703          	lw	a4,-1204(a5) # 20b4c <peripherals+0x10>
    1eb0:	00200793          	li	a5,2
    1eb4:	00f70463          	beq	a4,a5,1ebc <spi_intr_handler_event_flash+0x14>
    1eb8:	00008067          	ret
    1ebc:	ff010113          	addi	sp,sp,-16
    1ec0:	00112623          	sw	ra,12(sp)
    1ec4:	00050593          	mv	a1,a0
    1ec8:	00021537          	lui	a0,0x21
    1ecc:	b3c50513          	addi	a0,a0,-1220 # 20b3c <peripherals>
    1ed0:	821fe0ef          	jal	6f0 <spi_event_handler>
    1ed4:	00c12083          	lw	ra,12(sp)
    1ed8:	01010113          	addi	sp,sp,16
    1edc:	00008067          	ret

00001ee0 <spi_intr_handler_error_flash>:
    1ee0:	000217b7          	lui	a5,0x21
    1ee4:	b4c7a703          	lw	a4,-1204(a5) # 20b4c <peripherals+0x10>
    1ee8:	00200793          	li	a5,2
    1eec:	00f70463          	beq	a4,a5,1ef4 <spi_intr_handler_error_flash+0x14>
    1ef0:	00008067          	ret
    1ef4:	ff010113          	addi	sp,sp,-16
    1ef8:	00112623          	sw	ra,12(sp)
    1efc:	00050593          	mv	a1,a0
    1f00:	00021537          	lui	a0,0x21
    1f04:	b3c50513          	addi	a0,a0,-1220 # 20b3c <peripherals>
    1f08:	a11fe0ef          	jal	918 <spi_error_handler>
    1f0c:	00c12083          	lw	ra,12(sp)
    1f10:	01010113          	addi	sp,sp,16
    1f14:	00008067          	ret

00001f18 <fic_irq_spi_flash>:
    1f18:	fe010113          	addi	sp,sp,-32
    1f1c:	00112e23          	sw	ra,28(sp)
    1f20:	200207b7          	lui	a5,0x20020
    1f24:	0347a503          	lw	a0,52(a5) # 20020034 <_sp+0x1fff7114>
    1f28:	03f57513          	andi	a0,a0,63
    1f2c:	00050a63          	beqz	a0,1f40 <fic_irq_spi_flash+0x28>
    1f30:	fb1ff0ef          	jal	1ee0 <spi_intr_handler_error_flash>
    1f34:	01c12083          	lw	ra,28(sp)
    1f38:	02010113          	addi	sp,sp,32
    1f3c:	00008067          	ret
    1f40:	20020737          	lui	a4,0x20020
    1f44:	00072783          	lw	a5,0(a4) # 20020000 <_sp+0x1fff70e0>
    1f48:	0027e793          	ori	a5,a5,2
    1f4c:	00f72023          	sw	a5,0(a4)
    1f50:	00c10593          	addi	a1,sp,12
    1f54:	00070513          	mv	a0,a4
    1f58:	e08fe0ef          	jal	560 <spi_get_events>
    1f5c:	00c12503          	lw	a0,12(sp)
    1f60:	f49ff0ef          	jal	1ea8 <spi_intr_handler_event_flash>
    1f64:	fd1ff06f          	j	1f34 <fic_irq_spi_flash+0x1c>

00001f68 <handler_irq_fast_spi_flash>:
    1f68:	fc010113          	addi	sp,sp,-64
    1f6c:	02112e23          	sw	ra,60(sp)
    1f70:	02512c23          	sw	t0,56(sp)
    1f74:	02612a23          	sw	t1,52(sp)
    1f78:	02712823          	sw	t2,48(sp)
    1f7c:	02a12623          	sw	a0,44(sp)
    1f80:	02b12423          	sw	a1,40(sp)
    1f84:	02c12223          	sw	a2,36(sp)
    1f88:	02d12023          	sw	a3,32(sp)
    1f8c:	00e12e23          	sw	a4,28(sp)
    1f90:	00f12c23          	sw	a5,24(sp)
    1f94:	01012a23          	sw	a6,20(sp)
    1f98:	01112823          	sw	a7,16(sp)
    1f9c:	01c12623          	sw	t3,12(sp)
    1fa0:	01d12423          	sw	t4,8(sp)
    1fa4:	01e12223          	sw	t5,4(sp)
    1fa8:	01f12023          	sw	t6,0(sp)
    1fac:	200607b7          	lui	a5,0x20060
    1fb0:	02000713          	li	a4,32
    1fb4:	00e7a223          	sw	a4,4(a5) # 20060004 <_sp+0x200370e4>
    1fb8:	f61ff0ef          	jal	1f18 <fic_irq_spi_flash>
    1fbc:	03c12083          	lw	ra,60(sp)
    1fc0:	03812283          	lw	t0,56(sp)
    1fc4:	03412303          	lw	t1,52(sp)
    1fc8:	03012383          	lw	t2,48(sp)
    1fcc:	02c12503          	lw	a0,44(sp)
    1fd0:	02812583          	lw	a1,40(sp)
    1fd4:	02412603          	lw	a2,36(sp)
    1fd8:	02012683          	lw	a3,32(sp)
    1fdc:	01c12703          	lw	a4,28(sp)
    1fe0:	01812783          	lw	a5,24(sp)
    1fe4:	01412803          	lw	a6,20(sp)
    1fe8:	01012883          	lw	a7,16(sp)
    1fec:	00c12e03          	lw	t3,12(sp)
    1ff0:	00812e83          	lw	t4,8(sp)
    1ff4:	00412f03          	lw	t5,4(sp)
    1ff8:	00012f83          	lw	t6,0(sp)
    1ffc:	04010113          	addi	sp,sp,64
    2000:	30200073          	mret

00002004 <spi_intr_handler_event_host>:
    2004:	000217b7          	lui	a5,0x21
    2008:	b947a703          	lw	a4,-1132(a5) # 20b94 <peripherals+0x58>
    200c:	00200793          	li	a5,2
    2010:	00f70463          	beq	a4,a5,2018 <spi_intr_handler_event_host+0x14>
    2014:	00008067          	ret
    2018:	ff010113          	addi	sp,sp,-16
    201c:	00112623          	sw	ra,12(sp)
    2020:	00050593          	mv	a1,a0
    2024:	00021537          	lui	a0,0x21
    2028:	b8450513          	addi	a0,a0,-1148 # 20b84 <peripherals+0x48>
    202c:	ec4fe0ef          	jal	6f0 <spi_event_handler>
    2030:	00c12083          	lw	ra,12(sp)
    2034:	01010113          	addi	sp,sp,16
    2038:	00008067          	ret

0000203c <spi_intr_handler_error_host>:
    203c:	000217b7          	lui	a5,0x21
    2040:	b947a703          	lw	a4,-1132(a5) # 20b94 <peripherals+0x58>
    2044:	00200793          	li	a5,2
    2048:	00f70463          	beq	a4,a5,2050 <spi_intr_handler_error_host+0x14>
    204c:	00008067          	ret
    2050:	ff010113          	addi	sp,sp,-16
    2054:	00112623          	sw	ra,12(sp)
    2058:	00050593          	mv	a1,a0
    205c:	00021537          	lui	a0,0x21
    2060:	b8450513          	addi	a0,a0,-1148 # 20b84 <peripherals+0x48>
    2064:	8b5fe0ef          	jal	918 <spi_error_handler>
    2068:	00c12083          	lw	ra,12(sp)
    206c:	01010113          	addi	sp,sp,16
    2070:	00008067          	ret

00002074 <fic_irq_spi>:
    2074:	fe010113          	addi	sp,sp,-32
    2078:	00112e23          	sw	ra,28(sp)
    207c:	300107b7          	lui	a5,0x30010
    2080:	0347a503          	lw	a0,52(a5) # 30010034 <_sp+0x2ffe7114>
    2084:	03f57513          	andi	a0,a0,63
    2088:	00050a63          	beqz	a0,209c <fic_irq_spi+0x28>
    208c:	fb1ff0ef          	jal	203c <spi_intr_handler_error_host>
    2090:	01c12083          	lw	ra,28(sp)
    2094:	02010113          	addi	sp,sp,32
    2098:	00008067          	ret
    209c:	30010737          	lui	a4,0x30010
    20a0:	00072783          	lw	a5,0(a4) # 30010000 <_sp+0x2ffe70e0>
    20a4:	0027e793          	ori	a5,a5,2
    20a8:	00f72023          	sw	a5,0(a4)
    20ac:	00c10593          	addi	a1,sp,12
    20b0:	00070513          	mv	a0,a4
    20b4:	cacfe0ef          	jal	560 <spi_get_events>
    20b8:	00c12503          	lw	a0,12(sp)
    20bc:	f49ff0ef          	jal	2004 <spi_intr_handler_event_host>
    20c0:	fd1ff06f          	j	2090 <fic_irq_spi+0x1c>

000020c4 <handler_irq_fast_spi>:
    20c4:	fc010113          	addi	sp,sp,-64
    20c8:	02112e23          	sw	ra,60(sp)
    20cc:	02512c23          	sw	t0,56(sp)
    20d0:	02612a23          	sw	t1,52(sp)
    20d4:	02712823          	sw	t2,48(sp)
    20d8:	02a12623          	sw	a0,44(sp)
    20dc:	02b12423          	sw	a1,40(sp)
    20e0:	02c12223          	sw	a2,36(sp)
    20e4:	02d12023          	sw	a3,32(sp)
    20e8:	00e12e23          	sw	a4,28(sp)
    20ec:	00f12c23          	sw	a5,24(sp)
    20f0:	01012a23          	sw	a6,20(sp)
    20f4:	01112823          	sw	a7,16(sp)
    20f8:	01c12623          	sw	t3,12(sp)
    20fc:	01d12423          	sw	t4,8(sp)
    2100:	01e12223          	sw	t5,4(sp)
    2104:	01f12023          	sw	t6,0(sp)
    2108:	200607b7          	lui	a5,0x20060
    210c:	01000713          	li	a4,16
    2110:	00e7a223          	sw	a4,4(a5) # 20060004 <_sp+0x200370e4>
    2114:	f61ff0ef          	jal	2074 <fic_irq_spi>
    2118:	03c12083          	lw	ra,60(sp)
    211c:	03812283          	lw	t0,56(sp)
    2120:	03412303          	lw	t1,52(sp)
    2124:	03012383          	lw	t2,48(sp)
    2128:	02c12503          	lw	a0,44(sp)
    212c:	02812583          	lw	a1,40(sp)
    2130:	02412603          	lw	a2,36(sp)
    2134:	02012683          	lw	a3,32(sp)
    2138:	01c12703          	lw	a4,28(sp)
    213c:	01812783          	lw	a5,24(sp)
    2140:	01412803          	lw	a6,20(sp)
    2144:	01012883          	lw	a7,16(sp)
    2148:	00c12e03          	lw	t3,12(sp)
    214c:	00812e83          	lw	t4,8(sp)
    2150:	00412f03          	lw	t5,4(sp)
    2154:	00012f83          	lw	t6,0(sp)
    2158:	04010113          	addi	sp,sp,64
    215c:	30200073          	mret

00002160 <atexit>:
    2160:	00050593          	mv	a1,a0
    2164:	00000693          	li	a3,0
    2168:	00000613          	li	a2,0
    216c:	00000513          	li	a0,0
    2170:	5400006f          	j	26b0 <__register_exitproc>

00002174 <std>:
    2174:	ff010113          	addi	sp,sp,-16
    2178:	00812423          	sw	s0,8(sp)
    217c:	00112623          	sw	ra,12(sp)
    2180:	00050413          	mv	s0,a0
    2184:	00b51623          	sh	a1,12(a0)
    2188:	00c51723          	sh	a2,14(a0)
    218c:	00052023          	sw	zero,0(a0)
    2190:	00052223          	sw	zero,4(a0)
    2194:	00052423          	sw	zero,8(a0)
    2198:	06052223          	sw	zero,100(a0)
    219c:	00052823          	sw	zero,16(a0)
    21a0:	00052a23          	sw	zero,20(a0)
    21a4:	00052c23          	sw	zero,24(a0)
    21a8:	00800613          	li	a2,8
    21ac:	00000593          	li	a1,0
    21b0:	05c50513          	addi	a0,a0,92
    21b4:	4e0000ef          	jal	2694 <memset>
    21b8:	000027b7          	lui	a5,0x2
    21bc:	38c78793          	addi	a5,a5,908 # 238c <__sread>
    21c0:	02f42223          	sw	a5,36(s0)
    21c4:	000027b7          	lui	a5,0x2
    21c8:	3dc78793          	addi	a5,a5,988 # 23dc <__swrite>
    21cc:	02f42423          	sw	a5,40(s0)
    21d0:	000027b7          	lui	a5,0x2
    21d4:	46078793          	addi	a5,a5,1120 # 2460 <__sseek>
    21d8:	02f42623          	sw	a5,44(s0)
    21dc:	000027b7          	lui	a5,0x2
    21e0:	4b878793          	addi	a5,a5,1208 # 24b8 <__sclose>
    21e4:	00c12083          	lw	ra,12(sp)
    21e8:	02842023          	sw	s0,32(s0)
    21ec:	02f42823          	sw	a5,48(s0)
    21f0:	00812403          	lw	s0,8(sp)
    21f4:	01010113          	addi	sp,sp,16
    21f8:	00008067          	ret

000021fc <stdio_exit_handler>:
    21fc:	000035b7          	lui	a1,0x3
    2200:	8d818613          	addi	a2,gp,-1832 # 20c14 <__sglue>
    2204:	d9c58593          	addi	a1,a1,-612 # 2d9c <_fflush_r>
    2208:	8e418513          	addi	a0,gp,-1820 # 20c20 <_impure_data>
    220c:	0d80006f          	j	22e4 <_fwalk_sglue>

00002210 <cleanup_stdio>:
    2210:	00452583          	lw	a1,4(a0)
    2214:	ff010113          	addi	sp,sp,-16
    2218:	00812423          	sw	s0,8(sp)
    221c:	00112623          	sw	ra,12(sp)
    2220:	9e018793          	addi	a5,gp,-1568 # 20d1c <__sf>
    2224:	00050413          	mv	s0,a0
    2228:	00f58463          	beq	a1,a5,2230 <cleanup_stdio+0x20>
    222c:	371000ef          	jal	2d9c <_fflush_r>
    2230:	00842583          	lw	a1,8(s0)
    2234:	a4818793          	addi	a5,gp,-1464 # 20d84 <__sf+0x68>
    2238:	00f58663          	beq	a1,a5,2244 <cleanup_stdio+0x34>
    223c:	00040513          	mv	a0,s0
    2240:	35d000ef          	jal	2d9c <_fflush_r>
    2244:	00c42583          	lw	a1,12(s0)
    2248:	ab018793          	addi	a5,gp,-1360 # 20dec <__sf+0xd0>
    224c:	00f58c63          	beq	a1,a5,2264 <cleanup_stdio+0x54>
    2250:	00040513          	mv	a0,s0
    2254:	00812403          	lw	s0,8(sp)
    2258:	00c12083          	lw	ra,12(sp)
    225c:	01010113          	addi	sp,sp,16
    2260:	33d0006f          	j	2d9c <_fflush_r>
    2264:	00c12083          	lw	ra,12(sp)
    2268:	00812403          	lw	s0,8(sp)
    226c:	01010113          	addi	sp,sp,16
    2270:	00008067          	ret

00002274 <global_stdio_init.part.0>:
    2274:	000027b7          	lui	a5,0x2
    2278:	ff010113          	addi	sp,sp,-16
    227c:	1fc78793          	addi	a5,a5,508 # 21fc <stdio_exit_handler>
    2280:	00000613          	li	a2,0
    2284:	00400593          	li	a1,4
    2288:	9e018513          	addi	a0,gp,-1568 # 20d1c <__sf>
    228c:	00112623          	sw	ra,12(sp)
    2290:	98f1a623          	sw	a5,-1652(gp) # 20cc8 <__stdio_exit_handler>
    2294:	ee1ff0ef          	jal	2174 <std>
    2298:	00100613          	li	a2,1
    229c:	00900593          	li	a1,9
    22a0:	a4818513          	addi	a0,gp,-1464 # 20d84 <__sf+0x68>
    22a4:	ed1ff0ef          	jal	2174 <std>
    22a8:	00c12083          	lw	ra,12(sp)
    22ac:	00200613          	li	a2,2
    22b0:	01200593          	li	a1,18
    22b4:	ab018513          	addi	a0,gp,-1360 # 20dec <__sf+0xd0>
    22b8:	01010113          	addi	sp,sp,16
    22bc:	eb9ff06f          	j	2174 <std>

000022c0 <__sinit>:
    22c0:	02052783          	lw	a5,32(a0)
    22c4:	00079e63          	bnez	a5,22e0 <__sinit+0x20>
    22c8:	000027b7          	lui	a5,0x2
    22cc:	21078793          	addi	a5,a5,528 # 2210 <cleanup_stdio>
    22d0:	02f52023          	sw	a5,32(a0)
    22d4:	98c1a783          	lw	a5,-1652(gp) # 20cc8 <__stdio_exit_handler>
    22d8:	00079463          	bnez	a5,22e0 <__sinit+0x20>
    22dc:	f99ff06f          	j	2274 <global_stdio_init.part.0>
    22e0:	00008067          	ret

000022e4 <_fwalk_sglue>:
    22e4:	fd010113          	addi	sp,sp,-48
    22e8:	02812423          	sw	s0,40(sp)
    22ec:	03212023          	sw	s2,32(sp)
    22f0:	01312e23          	sw	s3,28(sp)
    22f4:	01412c23          	sw	s4,24(sp)
    22f8:	01512a23          	sw	s5,20(sp)
    22fc:	02112623          	sw	ra,44(sp)
    2300:	02912223          	sw	s1,36(sp)
    2304:	00050a13          	mv	s4,a0
    2308:	00058a93          	mv	s5,a1
    230c:	00000413          	li	s0,0
    2310:	00100913          	li	s2,1
    2314:	fff00993          	li	s3,-1
    2318:	00862583          	lw	a1,8(a2)
    231c:	00462483          	lw	s1,4(a2)
    2320:	fff48493          	addi	s1,s1,-1
    2324:	0204da63          	bgez	s1,2358 <_fwalk_sglue+0x74>
    2328:	00062603          	lw	a2,0(a2)
    232c:	fe0616e3          	bnez	a2,2318 <_fwalk_sglue+0x34>
    2330:	02c12083          	lw	ra,44(sp)
    2334:	00040513          	mv	a0,s0
    2338:	02812403          	lw	s0,40(sp)
    233c:	02412483          	lw	s1,36(sp)
    2340:	02012903          	lw	s2,32(sp)
    2344:	01c12983          	lw	s3,28(sp)
    2348:	01812a03          	lw	s4,24(sp)
    234c:	01412a83          	lw	s5,20(sp)
    2350:	03010113          	addi	sp,sp,48
    2354:	00008067          	ret
    2358:	00c5d783          	lhu	a5,12(a1)
    235c:	02f97463          	bgeu	s2,a5,2384 <_fwalk_sglue+0xa0>
    2360:	00e59783          	lh	a5,14(a1)
    2364:	03378063          	beq	a5,s3,2384 <_fwalk_sglue+0xa0>
    2368:	000a0513          	mv	a0,s4
    236c:	00c12623          	sw	a2,12(sp)
    2370:	00b12423          	sw	a1,8(sp)
    2374:	000a80e7          	jalr	s5
    2378:	00c12603          	lw	a2,12(sp)
    237c:	00812583          	lw	a1,8(sp)
    2380:	00a46433          	or	s0,s0,a0
    2384:	06858593          	addi	a1,a1,104
    2388:	f99ff06f          	j	2320 <_fwalk_sglue+0x3c>

0000238c <__sread>:
    238c:	ff010113          	addi	sp,sp,-16
    2390:	00812423          	sw	s0,8(sp)
    2394:	00058413          	mv	s0,a1
    2398:	00e59583          	lh	a1,14(a1)
    239c:	00112623          	sw	ra,12(sp)
    23a0:	1b8000ef          	jal	2558 <_read_r>
    23a4:	02054063          	bltz	a0,23c4 <__sread+0x38>
    23a8:	05442783          	lw	a5,84(s0)
    23ac:	00a787b3          	add	a5,a5,a0
    23b0:	04f42a23          	sw	a5,84(s0)
    23b4:	00c12083          	lw	ra,12(sp)
    23b8:	00812403          	lw	s0,8(sp)
    23bc:	01010113          	addi	sp,sp,16
    23c0:	00008067          	ret
    23c4:	00c45783          	lhu	a5,12(s0)
    23c8:	fffff737          	lui	a4,0xfffff
    23cc:	fff70713          	addi	a4,a4,-1 # ffffefff <_sp+0xfffd60df>
    23d0:	00e7f7b3          	and	a5,a5,a4
    23d4:	00f41623          	sh	a5,12(s0)
    23d8:	fddff06f          	j	23b4 <__sread+0x28>

000023dc <__swrite>:
    23dc:	00c5d783          	lhu	a5,12(a1)
    23e0:	fe010113          	addi	sp,sp,-32
    23e4:	00812c23          	sw	s0,24(sp)
    23e8:	00912a23          	sw	s1,20(sp)
    23ec:	01212823          	sw	s2,16(sp)
    23f0:	01312623          	sw	s3,12(sp)
    23f4:	00112e23          	sw	ra,28(sp)
    23f8:	1007f793          	andi	a5,a5,256
    23fc:	00050493          	mv	s1,a0
    2400:	00058413          	mv	s0,a1
    2404:	00060913          	mv	s2,a2
    2408:	00068993          	mv	s3,a3
    240c:	00078a63          	beqz	a5,2420 <__swrite+0x44>
    2410:	00e59583          	lh	a1,14(a1)
    2414:	00200693          	li	a3,2
    2418:	00000613          	li	a2,0
    241c:	0ec000ef          	jal	2508 <_lseek_r>
    2420:	00c45783          	lhu	a5,12(s0)
    2424:	fffff737          	lui	a4,0xfffff
    2428:	fff70713          	addi	a4,a4,-1 # ffffefff <_sp+0xfffd60df>
    242c:	00e7f7b3          	and	a5,a5,a4
    2430:	00e41583          	lh	a1,14(s0)
    2434:	00f41623          	sh	a5,12(s0)
    2438:	01812403          	lw	s0,24(sp)
    243c:	01c12083          	lw	ra,28(sp)
    2440:	00098693          	mv	a3,s3
    2444:	00090613          	mv	a2,s2
    2448:	00c12983          	lw	s3,12(sp)
    244c:	01012903          	lw	s2,16(sp)
    2450:	00048513          	mv	a0,s1
    2454:	01412483          	lw	s1,20(sp)
    2458:	02010113          	addi	sp,sp,32
    245c:	9d9ff06f          	j	1e34 <_write_r>

00002460 <__sseek>:
    2460:	ff010113          	addi	sp,sp,-16
    2464:	00812423          	sw	s0,8(sp)
    2468:	00058413          	mv	s0,a1
    246c:	00e59583          	lh	a1,14(a1)
    2470:	00112623          	sw	ra,12(sp)
    2474:	094000ef          	jal	2508 <_lseek_r>
    2478:	fff00713          	li	a4,-1
    247c:	00c41783          	lh	a5,12(s0)
    2480:	02e51263          	bne	a0,a4,24a4 <__sseek+0x44>
    2484:	fffff737          	lui	a4,0xfffff
    2488:	00a70733          	add	a4,a4,a0
    248c:	00e7f7b3          	and	a5,a5,a4
    2490:	00f41623          	sh	a5,12(s0)
    2494:	00c12083          	lw	ra,12(sp)
    2498:	00812403          	lw	s0,8(sp)
    249c:	01010113          	addi	sp,sp,16
    24a0:	00008067          	ret
    24a4:	00001737          	lui	a4,0x1
    24a8:	00e7e7b3          	or	a5,a5,a4
    24ac:	00f41623          	sh	a5,12(s0)
    24b0:	04a42a23          	sw	a0,84(s0)
    24b4:	fe1ff06f          	j	2494 <__sseek+0x34>

000024b8 <__sclose>:
    24b8:	00e59583          	lh	a1,14(a1)
    24bc:	0040006f          	j	24c0 <_close_r>

000024c0 <_close_r>:
    24c0:	ff010113          	addi	sp,sp,-16
    24c4:	00812423          	sw	s0,8(sp)
    24c8:	00912223          	sw	s1,4(sp)
    24cc:	00050493          	mv	s1,a0
    24d0:	00058513          	mv	a0,a1
    24d4:	00112623          	sw	ra,12(sp)
    24d8:	9801a823          	sw	zero,-1648(gp) # 20ccc <errno>
    24dc:	911ff0ef          	jal	1dec <_close>
    24e0:	fff00793          	li	a5,-1
    24e4:	00f51863          	bne	a0,a5,24f4 <_close_r+0x34>
    24e8:	9901a783          	lw	a5,-1648(gp) # 20ccc <errno>
    24ec:	00078463          	beqz	a5,24f4 <_close_r+0x34>
    24f0:	00f4a023          	sw	a5,0(s1)
    24f4:	00c12083          	lw	ra,12(sp)
    24f8:	00812403          	lw	s0,8(sp)
    24fc:	00412483          	lw	s1,4(sp)
    2500:	01010113          	addi	sp,sp,16
    2504:	00008067          	ret

00002508 <_lseek_r>:
    2508:	ff010113          	addi	sp,sp,-16
    250c:	00812423          	sw	s0,8(sp)
    2510:	00912223          	sw	s1,4(sp)
    2514:	00050493          	mv	s1,a0
    2518:	00058513          	mv	a0,a1
    251c:	00060593          	mv	a1,a2
    2520:	00068613          	mv	a2,a3
    2524:	00112623          	sw	ra,12(sp)
    2528:	9801a823          	sw	zero,-1648(gp) # 20ccc <errno>
    252c:	8f9ff0ef          	jal	1e24 <_lseek>
    2530:	fff00793          	li	a5,-1
    2534:	00f51863          	bne	a0,a5,2544 <_lseek_r+0x3c>
    2538:	9901a783          	lw	a5,-1648(gp) # 20ccc <errno>
    253c:	00078463          	beqz	a5,2544 <_lseek_r+0x3c>
    2540:	00f4a023          	sw	a5,0(s1)
    2544:	00c12083          	lw	ra,12(sp)
    2548:	00812403          	lw	s0,8(sp)
    254c:	00412483          	lw	s1,4(sp)
    2550:	01010113          	addi	sp,sp,16
    2554:	00008067          	ret

00002558 <_read_r>:
    2558:	ff010113          	addi	sp,sp,-16
    255c:	00812423          	sw	s0,8(sp)
    2560:	00912223          	sw	s1,4(sp)
    2564:	00050493          	mv	s1,a0
    2568:	00058513          	mv	a0,a1
    256c:	00060593          	mv	a1,a2
    2570:	00068613          	mv	a2,a3
    2574:	00112623          	sw	ra,12(sp)
    2578:	9801a823          	sw	zero,-1648(gp) # 20ccc <errno>
    257c:	8b1ff0ef          	jal	1e2c <_read>
    2580:	fff00793          	li	a5,-1
    2584:	00f51863          	bne	a0,a5,2594 <_read_r+0x3c>
    2588:	9901a783          	lw	a5,-1648(gp) # 20ccc <errno>
    258c:	00078463          	beqz	a5,2594 <_read_r+0x3c>
    2590:	00f4a023          	sw	a5,0(s1)
    2594:	00c12083          	lw	ra,12(sp)
    2598:	00812403          	lw	s0,8(sp)
    259c:	00412483          	lw	s1,4(sp)
    25a0:	01010113          	addi	sp,sp,16
    25a4:	00008067          	ret

000025a8 <__libc_init_array>:
    25a8:	ff010113          	addi	sp,sp,-16
    25ac:	00812423          	sw	s0,8(sp)
    25b0:	00912223          	sw	s1,4(sp)
    25b4:	00021437          	lui	s0,0x21
    25b8:	000214b7          	lui	s1,0x21
    25bc:	b3c40413          	addi	s0,s0,-1220 # 20b3c <peripherals>
    25c0:	b3c48493          	addi	s1,s1,-1220 # 20b3c <peripherals>
    25c4:	408484b3          	sub	s1,s1,s0
    25c8:	01212023          	sw	s2,0(sp)
    25cc:	00112623          	sw	ra,12(sp)
    25d0:	4024d493          	srai	s1,s1,0x2
    25d4:	00000913          	li	s2,0
    25d8:	02991e63          	bne	s2,s1,2614 <__libc_init_array+0x6c>
    25dc:	00021437          	lui	s0,0x21
    25e0:	000214b7          	lui	s1,0x21
    25e4:	b3c40413          	addi	s0,s0,-1220 # 20b3c <peripherals>
    25e8:	b3c48493          	addi	s1,s1,-1220 # 20b3c <peripherals>
    25ec:	408484b3          	sub	s1,s1,s0
    25f0:	4024d493          	srai	s1,s1,0x2
    25f4:	00000913          	li	s2,0
    25f8:	02991863          	bne	s2,s1,2628 <__libc_init_array+0x80>
    25fc:	00c12083          	lw	ra,12(sp)
    2600:	00812403          	lw	s0,8(sp)
    2604:	00412483          	lw	s1,4(sp)
    2608:	00012903          	lw	s2,0(sp)
    260c:	01010113          	addi	sp,sp,16
    2610:	00008067          	ret
    2614:	00042783          	lw	a5,0(s0)
    2618:	00190913          	addi	s2,s2,1
    261c:	00440413          	addi	s0,s0,4
    2620:	000780e7          	jalr	a5
    2624:	fb5ff06f          	j	25d8 <__libc_init_array+0x30>
    2628:	00042783          	lw	a5,0(s0)
    262c:	00190913          	addi	s2,s2,1
    2630:	00440413          	addi	s0,s0,4
    2634:	000780e7          	jalr	a5
    2638:	fc1ff06f          	j	25f8 <__libc_init_array+0x50>

0000263c <__libc_fini_array>:
    263c:	ff010113          	addi	sp,sp,-16
    2640:	00812423          	sw	s0,8(sp)
    2644:	00912223          	sw	s1,4(sp)
    2648:	00021437          	lui	s0,0x21
    264c:	000214b7          	lui	s1,0x21
    2650:	b3c48493          	addi	s1,s1,-1220 # 20b3c <peripherals>
    2654:	b3c40413          	addi	s0,s0,-1220 # 20b3c <peripherals>
    2658:	40940433          	sub	s0,s0,s1
    265c:	00112623          	sw	ra,12(sp)
    2660:	40245413          	srai	s0,s0,0x2
    2664:	00041c63          	bnez	s0,267c <__libc_fini_array+0x40>
    2668:	00c12083          	lw	ra,12(sp)
    266c:	00812403          	lw	s0,8(sp)
    2670:	00412483          	lw	s1,4(sp)
    2674:	01010113          	addi	sp,sp,16
    2678:	00008067          	ret
    267c:	fff40413          	addi	s0,s0,-1
    2680:	00241793          	slli	a5,s0,0x2
    2684:	00f487b3          	add	a5,s1,a5
    2688:	0007a783          	lw	a5,0(a5)
    268c:	000780e7          	jalr	a5
    2690:	fd5ff06f          	j	2664 <__libc_fini_array+0x28>

00002694 <memset>:
    2694:	00050693          	mv	a3,a0
    2698:	00060a63          	beqz	a2,26ac <memset+0x18>
    269c:	00b68023          	sb	a1,0(a3)
    26a0:	fff60613          	addi	a2,a2,-1
    26a4:	00168693          	addi	a3,a3,1
    26a8:	fe061ae3          	bnez	a2,269c <memset+0x8>
    26ac:	00008067          	ret

000026b0 <__register_exitproc>:
    26b0:	9941a783          	lw	a5,-1644(gp) # 20cd0 <__atexit>
    26b4:	00079e63          	bnez	a5,26d0 <__register_exitproc+0x20>
    26b8:	b1818793          	addi	a5,gp,-1256 # 20e54 <__atexit0>
    26bc:	98f1aa23          	sw	a5,-1644(gp) # 20cd0 <__atexit>
    26c0:	00000813          	li	a6,0
    26c4:	00080663          	beqz	a6,26d0 <__register_exitproc+0x20>
    26c8:	00002703          	lw	a4,0(zero) # 0 <__vector_start>
    26cc:	08e7a423          	sw	a4,136(a5)
    26d0:	0047a703          	lw	a4,4(a5)
    26d4:	01f00813          	li	a6,31
    26d8:	00e85663          	bge	a6,a4,26e4 <__register_exitproc+0x34>
    26dc:	fff00513          	li	a0,-1
    26e0:	00008067          	ret
    26e4:	04050263          	beqz	a0,2728 <__register_exitproc+0x78>
    26e8:	0887a803          	lw	a6,136(a5)
    26ec:	fe0808e3          	beqz	a6,26dc <__register_exitproc+0x2c>
    26f0:	00271893          	slli	a7,a4,0x2
    26f4:	011808b3          	add	a7,a6,a7
    26f8:	00c8a023          	sw	a2,0(a7)
    26fc:	10082303          	lw	t1,256(a6)
    2700:	00100613          	li	a2,1
    2704:	00e61633          	sll	a2,a2,a4
    2708:	00c36333          	or	t1,t1,a2
    270c:	10682023          	sw	t1,256(a6)
    2710:	08d8a023          	sw	a3,128(a7)
    2714:	00200693          	li	a3,2
    2718:	00d51863          	bne	a0,a3,2728 <__register_exitproc+0x78>
    271c:	10482683          	lw	a3,260(a6)
    2720:	00c6e6b3          	or	a3,a3,a2
    2724:	10d82223          	sw	a3,260(a6)
    2728:	00170693          	addi	a3,a4,1 # 1001 <T11_end+0x2d>
    272c:	00271713          	slli	a4,a4,0x2
    2730:	00d7a223          	sw	a3,4(a5)
    2734:	00e787b3          	add	a5,a5,a4
    2738:	00b7a423          	sw	a1,8(a5)
    273c:	00000513          	li	a0,0
    2740:	00008067          	ret

00002744 <__call_exitprocs>:
    2744:	fd010113          	addi	sp,sp,-48
    2748:	01512a23          	sw	s5,20(sp)
    274c:	01612823          	sw	s6,16(sp)
    2750:	01712623          	sw	s7,12(sp)
    2754:	01912223          	sw	s9,4(sp)
    2758:	02112623          	sw	ra,44(sp)
    275c:	02812423          	sw	s0,40(sp)
    2760:	02912223          	sw	s1,36(sp)
    2764:	03212023          	sw	s2,32(sp)
    2768:	01312e23          	sw	s3,28(sp)
    276c:	01412c23          	sw	s4,24(sp)
    2770:	01812423          	sw	s8,8(sp)
    2774:	00050c93          	mv	s9,a0
    2778:	00058b13          	mv	s6,a1
    277c:	00100b93          	li	s7,1
    2780:	9941a483          	lw	s1,-1644(gp) # 20cd0 <__atexit>
    2784:	02048063          	beqz	s1,27a4 <__call_exitprocs+0x60>
    2788:	0044a403          	lw	s0,4(s1)
    278c:	0884a983          	lw	s3,136(s1)
    2790:	fff40913          	addi	s2,s0,-1
    2794:	00241413          	slli	s0,s0,0x2
    2798:	00848a33          	add	s4,s1,s0
    279c:	00898433          	add	s0,s3,s0
    27a0:	02095c63          	bgez	s2,27d8 <__call_exitprocs+0x94>
    27a4:	02c12083          	lw	ra,44(sp)
    27a8:	02812403          	lw	s0,40(sp)
    27ac:	02412483          	lw	s1,36(sp)
    27b0:	02012903          	lw	s2,32(sp)
    27b4:	01c12983          	lw	s3,28(sp)
    27b8:	01812a03          	lw	s4,24(sp)
    27bc:	01412a83          	lw	s5,20(sp)
    27c0:	01012b03          	lw	s6,16(sp)
    27c4:	00c12b83          	lw	s7,12(sp)
    27c8:	00812c03          	lw	s8,8(sp)
    27cc:	00412c83          	lw	s9,4(sp)
    27d0:	03010113          	addi	sp,sp,48
    27d4:	00008067          	ret
    27d8:	000b0863          	beqz	s6,27e8 <__call_exitprocs+0xa4>
    27dc:	04098663          	beqz	s3,2828 <__call_exitprocs+0xe4>
    27e0:	07c42783          	lw	a5,124(s0)
    27e4:	05679263          	bne	a5,s6,2828 <__call_exitprocs+0xe4>
    27e8:	0044a703          	lw	a4,4(s1)
    27ec:	004a2783          	lw	a5,4(s4)
    27f0:	fff70713          	addi	a4,a4,-1
    27f4:	05271263          	bne	a4,s2,2838 <__call_exitprocs+0xf4>
    27f8:	0124a223          	sw	s2,4(s1)
    27fc:	02078663          	beqz	a5,2828 <__call_exitprocs+0xe4>
    2800:	1009a683          	lw	a3,256(s3)
    2804:	012b9733          	sll	a4,s7,s2
    2808:	0044ac03          	lw	s8,4(s1)
    280c:	00d776b3          	and	a3,a4,a3
    2810:	02069863          	bnez	a3,2840 <__call_exitprocs+0xfc>
    2814:	000780e7          	jalr	a5
    2818:	0044a783          	lw	a5,4(s1)
    281c:	f78792e3          	bne	a5,s8,2780 <__call_exitprocs+0x3c>
    2820:	9941a783          	lw	a5,-1644(gp) # 20cd0 <__atexit>
    2824:	f4f49ee3          	bne	s1,a5,2780 <__call_exitprocs+0x3c>
    2828:	fff90913          	addi	s2,s2,-1
    282c:	ffca0a13          	addi	s4,s4,-4
    2830:	ffc40413          	addi	s0,s0,-4
    2834:	f6dff06f          	j	27a0 <__call_exitprocs+0x5c>
    2838:	000a2223          	sw	zero,4(s4)
    283c:	fc1ff06f          	j	27fc <__call_exitprocs+0xb8>
    2840:	1049a683          	lw	a3,260(s3)
    2844:	ffc42583          	lw	a1,-4(s0)
    2848:	00d77733          	and	a4,a4,a3
    284c:	00071863          	bnez	a4,285c <__call_exitprocs+0x118>
    2850:	000c8513          	mv	a0,s9
    2854:	000780e7          	jalr	a5
    2858:	fc1ff06f          	j	2818 <__call_exitprocs+0xd4>
    285c:	00058513          	mv	a0,a1
    2860:	000780e7          	jalr	a5
    2864:	fb5ff06f          	j	2818 <__call_exitprocs+0xd4>

00002868 <_free_r>:
    2868:	0e058a63          	beqz	a1,295c <_free_r+0xf4>
    286c:	ffc5a783          	lw	a5,-4(a1)
    2870:	fe010113          	addi	sp,sp,-32
    2874:	00812c23          	sw	s0,24(sp)
    2878:	00112e23          	sw	ra,28(sp)
    287c:	ffc58413          	addi	s0,a1,-4
    2880:	0007d463          	bgez	a5,2888 <_free_r+0x20>
    2884:	00f40433          	add	s0,s0,a5
    2888:	00a12623          	sw	a0,12(sp)
    288c:	320000ef          	jal	2bac <__malloc_lock>
    2890:	99c1a783          	lw	a5,-1636(gp) # 20cd8 <__malloc_free_list>
    2894:	00c12503          	lw	a0,12(sp)
    2898:	00079e63          	bnez	a5,28b4 <_free_r+0x4c>
    289c:	00042223          	sw	zero,4(s0)
    28a0:	9881ae23          	sw	s0,-1636(gp) # 20cd8 <__malloc_free_list>
    28a4:	01812403          	lw	s0,24(sp)
    28a8:	01c12083          	lw	ra,28(sp)
    28ac:	02010113          	addi	sp,sp,32
    28b0:	3000006f          	j	2bb0 <__malloc_unlock>
    28b4:	02f47463          	bgeu	s0,a5,28dc <_free_r+0x74>
    28b8:	00042603          	lw	a2,0(s0)
    28bc:	00c406b3          	add	a3,s0,a2
    28c0:	00d79a63          	bne	a5,a3,28d4 <_free_r+0x6c>
    28c4:	0007a683          	lw	a3,0(a5)
    28c8:	0047a783          	lw	a5,4(a5)
    28cc:	00c686b3          	add	a3,a3,a2
    28d0:	00d42023          	sw	a3,0(s0)
    28d4:	00f42223          	sw	a5,4(s0)
    28d8:	fc9ff06f          	j	28a0 <_free_r+0x38>
    28dc:	00078713          	mv	a4,a5
    28e0:	0047a783          	lw	a5,4(a5)
    28e4:	00078463          	beqz	a5,28ec <_free_r+0x84>
    28e8:	fef47ae3          	bgeu	s0,a5,28dc <_free_r+0x74>
    28ec:	00072683          	lw	a3,0(a4)
    28f0:	00d70633          	add	a2,a4,a3
    28f4:	02861863          	bne	a2,s0,2924 <_free_r+0xbc>
    28f8:	00042603          	lw	a2,0(s0)
    28fc:	00c686b3          	add	a3,a3,a2
    2900:	00d72023          	sw	a3,0(a4)
    2904:	00d70633          	add	a2,a4,a3
    2908:	f8c79ee3          	bne	a5,a2,28a4 <_free_r+0x3c>
    290c:	0007a603          	lw	a2,0(a5)
    2910:	0047a783          	lw	a5,4(a5)
    2914:	00d606b3          	add	a3,a2,a3
    2918:	00d72023          	sw	a3,0(a4)
    291c:	00f72223          	sw	a5,4(a4)
    2920:	f85ff06f          	j	28a4 <_free_r+0x3c>
    2924:	00c47863          	bgeu	s0,a2,2934 <_free_r+0xcc>
    2928:	00c00793          	li	a5,12
    292c:	00f52023          	sw	a5,0(a0)
    2930:	f75ff06f          	j	28a4 <_free_r+0x3c>
    2934:	00042603          	lw	a2,0(s0)
    2938:	00c406b3          	add	a3,s0,a2
    293c:	00d79a63          	bne	a5,a3,2950 <_free_r+0xe8>
    2940:	0007a683          	lw	a3,0(a5)
    2944:	0047a783          	lw	a5,4(a5)
    2948:	00c686b3          	add	a3,a3,a2
    294c:	00d42023          	sw	a3,0(s0)
    2950:	00f42223          	sw	a5,4(s0)
    2954:	00872223          	sw	s0,4(a4)
    2958:	f4dff06f          	j	28a4 <_free_r+0x3c>
    295c:	00008067          	ret

00002960 <sbrk_aligned>:
    2960:	ff010113          	addi	sp,sp,-16
    2964:	00812423          	sw	s0,8(sp)
    2968:	9981a783          	lw	a5,-1640(gp) # 20cd4 <__malloc_sbrk_start>
    296c:	00912223          	sw	s1,4(sp)
    2970:	01212023          	sw	s2,0(sp)
    2974:	00112623          	sw	ra,12(sp)
    2978:	00050913          	mv	s2,a0
    297c:	00058493          	mv	s1,a1
    2980:	00079863          	bnez	a5,2990 <sbrk_aligned+0x30>
    2984:	00000593          	li	a1,0
    2988:	47c000ef          	jal	2e04 <_sbrk_r>
    298c:	98a1ac23          	sw	a0,-1640(gp) # 20cd4 <__malloc_sbrk_start>
    2990:	00048593          	mv	a1,s1
    2994:	00090513          	mv	a0,s2
    2998:	46c000ef          	jal	2e04 <_sbrk_r>
    299c:	fff00493          	li	s1,-1
    29a0:	00050413          	mv	s0,a0
    29a4:	02950263          	beq	a0,s1,29c8 <sbrk_aligned+0x68>
    29a8:	00350413          	addi	s0,a0,3
    29ac:	ffc47413          	andi	s0,s0,-4
    29b0:	00850c63          	beq	a0,s0,29c8 <sbrk_aligned+0x68>
    29b4:	40a405b3          	sub	a1,s0,a0
    29b8:	00090513          	mv	a0,s2
    29bc:	448000ef          	jal	2e04 <_sbrk_r>
    29c0:	00951463          	bne	a0,s1,29c8 <sbrk_aligned+0x68>
    29c4:	00050413          	mv	s0,a0
    29c8:	00c12083          	lw	ra,12(sp)
    29cc:	00040513          	mv	a0,s0
    29d0:	00812403          	lw	s0,8(sp)
    29d4:	00412483          	lw	s1,4(sp)
    29d8:	00012903          	lw	s2,0(sp)
    29dc:	01010113          	addi	sp,sp,16
    29e0:	00008067          	ret

000029e4 <_malloc_r>:
    29e4:	fe010113          	addi	sp,sp,-32
    29e8:	00912a23          	sw	s1,20(sp)
    29ec:	00358493          	addi	s1,a1,3
    29f0:	ffc4f493          	andi	s1,s1,-4
    29f4:	00112e23          	sw	ra,28(sp)
    29f8:	00812c23          	sw	s0,24(sp)
    29fc:	01212823          	sw	s2,16(sp)
    2a00:	01312623          	sw	s3,12(sp)
    2a04:	01412423          	sw	s4,8(sp)
    2a08:	01512223          	sw	s5,4(sp)
    2a0c:	00848493          	addi	s1,s1,8
    2a10:	00c00793          	li	a5,12
    2a14:	00f4f463          	bgeu	s1,a5,2a1c <_malloc_r+0x38>
    2a18:	00078493          	mv	s1,a5
    2a1c:	0004c463          	bltz	s1,2a24 <_malloc_r+0x40>
    2a20:	02b4fc63          	bgeu	s1,a1,2a58 <_malloc_r+0x74>
    2a24:	00c00793          	li	a5,12
    2a28:	00f52023          	sw	a5,0(a0)
    2a2c:	00000913          	li	s2,0
    2a30:	01c12083          	lw	ra,28(sp)
    2a34:	01812403          	lw	s0,24(sp)
    2a38:	01412483          	lw	s1,20(sp)
    2a3c:	00c12983          	lw	s3,12(sp)
    2a40:	00812a03          	lw	s4,8(sp)
    2a44:	00412a83          	lw	s5,4(sp)
    2a48:	00090513          	mv	a0,s2
    2a4c:	01012903          	lw	s2,16(sp)
    2a50:	02010113          	addi	sp,sp,32
    2a54:	00008067          	ret
    2a58:	00050993          	mv	s3,a0
    2a5c:	150000ef          	jal	2bac <__malloc_lock>
    2a60:	99c1a783          	lw	a5,-1636(gp) # 20cd8 <__malloc_free_list>
    2a64:	00078413          	mv	s0,a5
    2a68:	08041063          	bnez	s0,2ae8 <_malloc_r+0x104>
    2a6c:	00048593          	mv	a1,s1
    2a70:	00098513          	mv	a0,s3
    2a74:	eedff0ef          	jal	2960 <sbrk_aligned>
    2a78:	fff00793          	li	a5,-1
    2a7c:	00050413          	mv	s0,a0
    2a80:	12f51263          	bne	a0,a5,2ba4 <_malloc_r+0x1c0>
    2a84:	99c1a403          	lw	s0,-1636(gp) # 20cd8 <__malloc_free_list>
    2a88:	00040913          	mv	s2,s0
    2a8c:	0e091263          	bnez	s2,2b70 <_malloc_r+0x18c>
    2a90:	10040063          	beqz	s0,2b90 <_malloc_r+0x1ac>
    2a94:	00042a83          	lw	s5,0(s0)
    2a98:	00000593          	li	a1,0
    2a9c:	00098513          	mv	a0,s3
    2aa0:	01540ab3          	add	s5,s0,s5
    2aa4:	360000ef          	jal	2e04 <_sbrk_r>
    2aa8:	0eaa9463          	bne	s5,a0,2b90 <_malloc_r+0x1ac>
    2aac:	00042783          	lw	a5,0(s0)
    2ab0:	00098513          	mv	a0,s3
    2ab4:	40f484b3          	sub	s1,s1,a5
    2ab8:	00048593          	mv	a1,s1
    2abc:	ea5ff0ef          	jal	2960 <sbrk_aligned>
    2ac0:	fff00793          	li	a5,-1
    2ac4:	0cf50663          	beq	a0,a5,2b90 <_malloc_r+0x1ac>
    2ac8:	00042783          	lw	a5,0(s0)
    2acc:	009787b3          	add	a5,a5,s1
    2ad0:	00f42023          	sw	a5,0(s0)
    2ad4:	99c1a783          	lw	a5,-1636(gp) # 20cd8 <__malloc_free_list>
    2ad8:	0047a703          	lw	a4,4(a5)
    2adc:	0a071063          	bnez	a4,2b7c <_malloc_r+0x198>
    2ae0:	9801ae23          	sw	zero,-1636(gp) # 20cd8 <__malloc_free_list>
    2ae4:	0340006f          	j	2b18 <_malloc_r+0x134>
    2ae8:	00042683          	lw	a3,0(s0)
    2aec:	409686b3          	sub	a3,a3,s1
    2af0:	0606ca63          	bltz	a3,2b64 <_malloc_r+0x180>
    2af4:	00b00713          	li	a4,11
    2af8:	04d77a63          	bgeu	a4,a3,2b4c <_malloc_r+0x168>
    2afc:	00942023          	sw	s1,0(s0)
    2b00:	00940733          	add	a4,s0,s1
    2b04:	04879063          	bne	a5,s0,2b44 <_malloc_r+0x160>
    2b08:	98e1ae23          	sw	a4,-1636(gp) # 20cd8 <__malloc_free_list>
    2b0c:	00442783          	lw	a5,4(s0)
    2b10:	00d72023          	sw	a3,0(a4)
    2b14:	00f72223          	sw	a5,4(a4)
    2b18:	00098513          	mv	a0,s3
    2b1c:	094000ef          	jal	2bb0 <__malloc_unlock>
    2b20:	00b40913          	addi	s2,s0,11
    2b24:	00440793          	addi	a5,s0,4
    2b28:	ff897913          	andi	s2,s2,-8
    2b2c:	40f90733          	sub	a4,s2,a5
    2b30:	f0f900e3          	beq	s2,a5,2a30 <_malloc_r+0x4c>
    2b34:	00e40433          	add	s0,s0,a4
    2b38:	412787b3          	sub	a5,a5,s2
    2b3c:	00f42023          	sw	a5,0(s0)
    2b40:	ef1ff06f          	j	2a30 <_malloc_r+0x4c>
    2b44:	00e7a223          	sw	a4,4(a5)
    2b48:	fc5ff06f          	j	2b0c <_malloc_r+0x128>
    2b4c:	00442703          	lw	a4,4(s0)
    2b50:	00879663          	bne	a5,s0,2b5c <_malloc_r+0x178>
    2b54:	98e1ae23          	sw	a4,-1636(gp) # 20cd8 <__malloc_free_list>
    2b58:	fc1ff06f          	j	2b18 <_malloc_r+0x134>
    2b5c:	00e7a223          	sw	a4,4(a5)
    2b60:	fb9ff06f          	j	2b18 <_malloc_r+0x134>
    2b64:	00040793          	mv	a5,s0
    2b68:	00442403          	lw	s0,4(s0)
    2b6c:	efdff06f          	j	2a68 <_malloc_r+0x84>
    2b70:	00090413          	mv	s0,s2
    2b74:	00492903          	lw	s2,4(s2)
    2b78:	f15ff06f          	j	2a8c <_malloc_r+0xa8>
    2b7c:	00078713          	mv	a4,a5
    2b80:	0047a783          	lw	a5,4(a5)
    2b84:	fe879ce3          	bne	a5,s0,2b7c <_malloc_r+0x198>
    2b88:	00072223          	sw	zero,4(a4)
    2b8c:	f8dff06f          	j	2b18 <_malloc_r+0x134>
    2b90:	00c00793          	li	a5,12
    2b94:	00f9a023          	sw	a5,0(s3)
    2b98:	00098513          	mv	a0,s3
    2b9c:	014000ef          	jal	2bb0 <__malloc_unlock>
    2ba0:	e91ff06f          	j	2a30 <_malloc_r+0x4c>
    2ba4:	00952023          	sw	s1,0(a0)
    2ba8:	f71ff06f          	j	2b18 <_malloc_r+0x134>

00002bac <__malloc_lock>:
    2bac:	00008067          	ret

00002bb0 <__malloc_unlock>:
    2bb0:	00008067          	ret

00002bb4 <__sflush_r>:
    2bb4:	00c59783          	lh	a5,12(a1)
    2bb8:	fe010113          	addi	sp,sp,-32
    2bbc:	00812c23          	sw	s0,24(sp)
    2bc0:	00912a23          	sw	s1,20(sp)
    2bc4:	00112e23          	sw	ra,28(sp)
    2bc8:	01212823          	sw	s2,16(sp)
    2bcc:	0087f713          	andi	a4,a5,8
    2bd0:	00050493          	mv	s1,a0
    2bd4:	00058413          	mv	s0,a1
    2bd8:	14071c63          	bnez	a4,2d30 <__sflush_r+0x17c>
    2bdc:	0045a703          	lw	a4,4(a1)
    2be0:	00e04663          	bgtz	a4,2bec <__sflush_r+0x38>
    2be4:	0405a703          	lw	a4,64(a1)
    2be8:	00e05663          	blez	a4,2bf4 <__sflush_r+0x40>
    2bec:	02c42703          	lw	a4,44(s0)
    2bf0:	02071063          	bnez	a4,2c10 <__sflush_r+0x5c>
    2bf4:	00000513          	li	a0,0
    2bf8:	01c12083          	lw	ra,28(sp)
    2bfc:	01812403          	lw	s0,24(sp)
    2c00:	01412483          	lw	s1,20(sp)
    2c04:	01012903          	lw	s2,16(sp)
    2c08:	02010113          	addi	sp,sp,32
    2c0c:	00008067          	ret
    2c10:	0004a903          	lw	s2,0(s1)
    2c14:	01379693          	slli	a3,a5,0x13
    2c18:	0004a023          	sw	zero,0(s1)
    2c1c:	0a06de63          	bgez	a3,2cd8 <__sflush_r+0x124>
    2c20:	05442503          	lw	a0,84(s0)
    2c24:	00c45783          	lhu	a5,12(s0)
    2c28:	0047f793          	andi	a5,a5,4
    2c2c:	00078e63          	beqz	a5,2c48 <__sflush_r+0x94>
    2c30:	00442783          	lw	a5,4(s0)
    2c34:	40f50533          	sub	a0,a0,a5
    2c38:	03442783          	lw	a5,52(s0)
    2c3c:	00078663          	beqz	a5,2c48 <__sflush_r+0x94>
    2c40:	04042783          	lw	a5,64(s0)
    2c44:	40f50533          	sub	a0,a0,a5
    2c48:	02c42783          	lw	a5,44(s0)
    2c4c:	02042583          	lw	a1,32(s0)
    2c50:	00050613          	mv	a2,a0
    2c54:	00000693          	li	a3,0
    2c58:	00048513          	mv	a0,s1
    2c5c:	000780e7          	jalr	a5
    2c60:	fff00793          	li	a5,-1
    2c64:	00c41703          	lh	a4,12(s0)
    2c68:	02f51263          	bne	a0,a5,2c8c <__sflush_r+0xd8>
    2c6c:	0004a683          	lw	a3,0(s1)
    2c70:	01d00793          	li	a5,29
    2c74:	0ad7e863          	bltu	a5,a3,2d24 <__sflush_r+0x170>
    2c78:	204007b7          	lui	a5,0x20400
    2c7c:	00178793          	addi	a5,a5,1 # 20400001 <_sp+0x203d70e1>
    2c80:	00d7d7b3          	srl	a5,a5,a3
    2c84:	0017f793          	andi	a5,a5,1
    2c88:	08078e63          	beqz	a5,2d24 <__sflush_r+0x170>
    2c8c:	01042783          	lw	a5,16(s0)
    2c90:	00042223          	sw	zero,4(s0)
    2c94:	00f42023          	sw	a5,0(s0)
    2c98:	01371793          	slli	a5,a4,0x13
    2c9c:	0007dc63          	bgez	a5,2cb4 <__sflush_r+0x100>
    2ca0:	fff00793          	li	a5,-1
    2ca4:	00f51663          	bne	a0,a5,2cb0 <__sflush_r+0xfc>
    2ca8:	0004a783          	lw	a5,0(s1)
    2cac:	00079463          	bnez	a5,2cb4 <__sflush_r+0x100>
    2cb0:	04a42a23          	sw	a0,84(s0)
    2cb4:	03442583          	lw	a1,52(s0)
    2cb8:	0124a023          	sw	s2,0(s1)
    2cbc:	f2058ce3          	beqz	a1,2bf4 <__sflush_r+0x40>
    2cc0:	04440793          	addi	a5,s0,68
    2cc4:	00f58663          	beq	a1,a5,2cd0 <__sflush_r+0x11c>
    2cc8:	00048513          	mv	a0,s1
    2ccc:	b9dff0ef          	jal	2868 <_free_r>
    2cd0:	02042a23          	sw	zero,52(s0)
    2cd4:	f21ff06f          	j	2bf4 <__sflush_r+0x40>
    2cd8:	02042583          	lw	a1,32(s0)
    2cdc:	00100693          	li	a3,1
    2ce0:	00000613          	li	a2,0
    2ce4:	00048513          	mv	a0,s1
    2ce8:	000700e7          	jalr	a4
    2cec:	fff00793          	li	a5,-1
    2cf0:	f2f51ae3          	bne	a0,a5,2c24 <__sflush_r+0x70>
    2cf4:	0004a783          	lw	a5,0(s1)
    2cf8:	f20786e3          	beqz	a5,2c24 <__sflush_r+0x70>
    2cfc:	fea78713          	addi	a4,a5,-22
    2d00:	00070663          	beqz	a4,2d0c <__sflush_r+0x158>
    2d04:	fe378793          	addi	a5,a5,-29
    2d08:	00079663          	bnez	a5,2d14 <__sflush_r+0x160>
    2d0c:	0124a023          	sw	s2,0(s1)
    2d10:	ee5ff06f          	j	2bf4 <__sflush_r+0x40>
    2d14:	00c45783          	lhu	a5,12(s0)
    2d18:	0407e793          	ori	a5,a5,64
    2d1c:	00f41623          	sh	a5,12(s0)
    2d20:	ed9ff06f          	j	2bf8 <__sflush_r+0x44>
    2d24:	04076713          	ori	a4,a4,64
    2d28:	00e41623          	sh	a4,12(s0)
    2d2c:	ecdff06f          	j	2bf8 <__sflush_r+0x44>
    2d30:	0105a603          	lw	a2,16(a1)
    2d34:	ec0600e3          	beqz	a2,2bf4 <__sflush_r+0x40>
    2d38:	0005a683          	lw	a3,0(a1)
    2d3c:	0037f793          	andi	a5,a5,3
    2d40:	00c5a023          	sw	a2,0(a1)
    2d44:	40c68933          	sub	s2,a3,a2
    2d48:	00000713          	li	a4,0
    2d4c:	00079463          	bnez	a5,2d54 <__sflush_r+0x1a0>
    2d50:	0145a703          	lw	a4,20(a1)
    2d54:	00e42423          	sw	a4,8(s0)
    2d58:	e9205ee3          	blez	s2,2bf4 <__sflush_r+0x40>
    2d5c:	02842783          	lw	a5,40(s0)
    2d60:	02042583          	lw	a1,32(s0)
    2d64:	00090693          	mv	a3,s2
    2d68:	00048513          	mv	a0,s1
    2d6c:	00c12623          	sw	a2,12(sp)
    2d70:	000780e7          	jalr	a5
    2d74:	00c12603          	lw	a2,12(sp)
    2d78:	00a04c63          	bgtz	a0,2d90 <__sflush_r+0x1dc>
    2d7c:	00c45783          	lhu	a5,12(s0)
    2d80:	fff00513          	li	a0,-1
    2d84:	0407e793          	ori	a5,a5,64
    2d88:	00f41623          	sh	a5,12(s0)
    2d8c:	e6dff06f          	j	2bf8 <__sflush_r+0x44>
    2d90:	00a60633          	add	a2,a2,a0
    2d94:	40a90933          	sub	s2,s2,a0
    2d98:	fc1ff06f          	j	2d58 <__sflush_r+0x1a4>

00002d9c <_fflush_r>:
    2d9c:	0105a783          	lw	a5,16(a1)
    2da0:	04078e63          	beqz	a5,2dfc <_fflush_r+0x60>
    2da4:	fe010113          	addi	sp,sp,-32
    2da8:	00812c23          	sw	s0,24(sp)
    2dac:	00112e23          	sw	ra,28(sp)
    2db0:	00050413          	mv	s0,a0
    2db4:	00050c63          	beqz	a0,2dcc <_fflush_r+0x30>
    2db8:	02052783          	lw	a5,32(a0)
    2dbc:	00079863          	bnez	a5,2dcc <_fflush_r+0x30>
    2dc0:	00b12623          	sw	a1,12(sp)
    2dc4:	cfcff0ef          	jal	22c0 <__sinit>
    2dc8:	00c12583          	lw	a1,12(sp)
    2dcc:	00c59783          	lh	a5,12(a1)
    2dd0:	00078c63          	beqz	a5,2de8 <_fflush_r+0x4c>
    2dd4:	00040513          	mv	a0,s0
    2dd8:	01812403          	lw	s0,24(sp)
    2ddc:	01c12083          	lw	ra,28(sp)
    2de0:	02010113          	addi	sp,sp,32
    2de4:	dd1ff06f          	j	2bb4 <__sflush_r>
    2de8:	01c12083          	lw	ra,28(sp)
    2dec:	01812403          	lw	s0,24(sp)
    2df0:	00000513          	li	a0,0
    2df4:	02010113          	addi	sp,sp,32
    2df8:	00008067          	ret
    2dfc:	00000513          	li	a0,0
    2e00:	00008067          	ret

00002e04 <_sbrk_r>:
    2e04:	ff010113          	addi	sp,sp,-16
    2e08:	00812423          	sw	s0,8(sp)
    2e0c:	00912223          	sw	s1,4(sp)
    2e10:	00050493          	mv	s1,a0
    2e14:	00058513          	mv	a0,a1
    2e18:	00112623          	sw	ra,12(sp)
    2e1c:	9801a823          	sw	zero,-1648(gp) # 20ccc <errno>
    2e20:	838ff0ef          	jal	1e58 <_sbrk>
    2e24:	fff00793          	li	a5,-1
    2e28:	00f51863          	bne	a0,a5,2e38 <_sbrk_r+0x34>
    2e2c:	9901a783          	lw	a5,-1648(gp) # 20ccc <errno>
    2e30:	00078463          	beqz	a5,2e38 <_sbrk_r+0x34>
    2e34:	00f4a023          	sw	a5,0(s1)
    2e38:	00c12083          	lw	ra,12(sp)
    2e3c:	00812403          	lw	s0,8(sp)
    2e40:	00412483          	lw	s1,4(sp)
    2e44:	01010113          	addi	sp,sp,16
    2e48:	00008067          	ret

00002e4c <iprintf>:
    2e4c:	fc010113          	addi	sp,sp,-64
    2e50:	02f12a23          	sw	a5,52(sp)
    2e54:	9881a783          	lw	a5,-1656(gp) # 20cc4 <_impure_ptr>
    2e58:	02c12423          	sw	a2,40(sp)
    2e5c:	02d12623          	sw	a3,44(sp)
    2e60:	02b12223          	sw	a1,36(sp)
    2e64:	02e12823          	sw	a4,48(sp)
    2e68:	03012c23          	sw	a6,56(sp)
    2e6c:	03112e23          	sw	a7,60(sp)
    2e70:	0087a583          	lw	a1,8(a5)
    2e74:	02410693          	addi	a3,sp,36
    2e78:	00050613          	mv	a2,a0
    2e7c:	00078513          	mv	a0,a5
    2e80:	00112e23          	sw	ra,28(sp)
    2e84:	00d12623          	sw	a3,12(sp)
    2e88:	414000ef          	jal	329c <_vfiprintf_r>
    2e8c:	01c12083          	lw	ra,28(sp)
    2e90:	04010113          	addi	sp,sp,64
    2e94:	00008067          	ret

00002e98 <_puts_r>:
    2e98:	02052783          	lw	a5,32(a0)
    2e9c:	fe010113          	addi	sp,sp,-32
    2ea0:	00812c23          	sw	s0,24(sp)
    2ea4:	00912a23          	sw	s1,20(sp)
    2ea8:	01212823          	sw	s2,16(sp)
    2eac:	00112e23          	sw	ra,28(sp)
    2eb0:	01312623          	sw	s3,12(sp)
    2eb4:	00852403          	lw	s0,8(a0)
    2eb8:	00050493          	mv	s1,a0
    2ebc:	00058913          	mv	s2,a1
    2ec0:	00079463          	bnez	a5,2ec8 <_puts_r+0x30>
    2ec4:	bfcff0ef          	jal	22c0 <__sinit>
    2ec8:	00c45783          	lhu	a5,12(s0)
    2ecc:	0087f793          	andi	a5,a5,8
    2ed0:	00078663          	beqz	a5,2edc <_puts_r+0x44>
    2ed4:	01042783          	lw	a5,16(s0)
    2ed8:	0a079663          	bnez	a5,2f84 <_puts_r+0xec>
    2edc:	00040593          	mv	a1,s0
    2ee0:	00048513          	mv	a0,s1
    2ee4:	1c8000ef          	jal	30ac <__swsetup_r>
    2ee8:	00050793          	mv	a5,a0
    2eec:	fff00513          	li	a0,-1
    2ef0:	08078a63          	beqz	a5,2f84 <_puts_r+0xec>
    2ef4:	01c12083          	lw	ra,28(sp)
    2ef8:	01812403          	lw	s0,24(sp)
    2efc:	01412483          	lw	s1,20(sp)
    2f00:	01012903          	lw	s2,16(sp)
    2f04:	00c12983          	lw	s3,12(sp)
    2f08:	02010113          	addi	sp,sp,32
    2f0c:	00008067          	ret
    2f10:	0007da63          	bgez	a5,2f24 <_puts_r+0x8c>
    2f14:	01842703          	lw	a4,24(s0)
    2f18:	04e7cc63          	blt	a5,a4,2f70 <_puts_r+0xd8>
    2f1c:	ff658793          	addi	a5,a1,-10
    2f20:	04078863          	beqz	a5,2f70 <_puts_r+0xd8>
    2f24:	00042783          	lw	a5,0(s0)
    2f28:	00178713          	addi	a4,a5,1
    2f2c:	00e42023          	sw	a4,0(s0)
    2f30:	00b78023          	sb	a1,0(a5)
    2f34:	00190913          	addi	s2,s2,1
    2f38:	00842783          	lw	a5,8(s0)
    2f3c:	00094583          	lbu	a1,0(s2)
    2f40:	fff78793          	addi	a5,a5,-1
    2f44:	00f42423          	sw	a5,8(s0)
    2f48:	fc0594e3          	bnez	a1,2f10 <_puts_r+0x78>
    2f4c:	0407d063          	bgez	a5,2f8c <_puts_r+0xf4>
    2f50:	00040613          	mv	a2,s0
    2f54:	00a00593          	li	a1,10
    2f58:	00048513          	mv	a0,s1
    2f5c:	054000ef          	jal	2fb0 <__swbuf_r>
    2f60:	fff00793          	li	a5,-1
    2f64:	f8f508e3          	beq	a0,a5,2ef4 <_puts_r+0x5c>
    2f68:	00a00513          	li	a0,10
    2f6c:	f89ff06f          	j	2ef4 <_puts_r+0x5c>
    2f70:	00040613          	mv	a2,s0
    2f74:	00048513          	mv	a0,s1
    2f78:	038000ef          	jal	2fb0 <__swbuf_r>
    2f7c:	fb351ce3          	bne	a0,s3,2f34 <_puts_r+0x9c>
    2f80:	f75ff06f          	j	2ef4 <_puts_r+0x5c>
    2f84:	fff00993          	li	s3,-1
    2f88:	fb1ff06f          	j	2f38 <_puts_r+0xa0>
    2f8c:	00042783          	lw	a5,0(s0)
    2f90:	00a00513          	li	a0,10
    2f94:	00178713          	addi	a4,a5,1
    2f98:	00e42023          	sw	a4,0(s0)
    2f9c:	00a78023          	sb	a0,0(a5)
    2fa0:	f55ff06f          	j	2ef4 <_puts_r+0x5c>

00002fa4 <puts>:
    2fa4:	00050593          	mv	a1,a0
    2fa8:	9881a503          	lw	a0,-1656(gp) # 20cc4 <_impure_ptr>
    2fac:	eedff06f          	j	2e98 <_puts_r>

00002fb0 <__swbuf_r>:
    2fb0:	fe010113          	addi	sp,sp,-32
    2fb4:	00812c23          	sw	s0,24(sp)
    2fb8:	00912a23          	sw	s1,20(sp)
    2fbc:	01312623          	sw	s3,12(sp)
    2fc0:	00112e23          	sw	ra,28(sp)
    2fc4:	01212823          	sw	s2,16(sp)
    2fc8:	00050493          	mv	s1,a0
    2fcc:	00058993          	mv	s3,a1
    2fd0:	00060413          	mv	s0,a2
    2fd4:	00050863          	beqz	a0,2fe4 <__swbuf_r+0x34>
    2fd8:	02052783          	lw	a5,32(a0)
    2fdc:	00079463          	bnez	a5,2fe4 <__swbuf_r+0x34>
    2fe0:	ae0ff0ef          	jal	22c0 <__sinit>
    2fe4:	01842783          	lw	a5,24(s0)
    2fe8:	00f42423          	sw	a5,8(s0)
    2fec:	00c45783          	lhu	a5,12(s0)
    2ff0:	0087f793          	andi	a5,a5,8
    2ff4:	0a078063          	beqz	a5,3094 <__swbuf_r+0xe4>
    2ff8:	01042783          	lw	a5,16(s0)
    2ffc:	08078c63          	beqz	a5,3094 <__swbuf_r+0xe4>
    3000:	01042783          	lw	a5,16(s0)
    3004:	00042503          	lw	a0,0(s0)
    3008:	40f50533          	sub	a0,a0,a5
    300c:	01442783          	lw	a5,20(s0)
    3010:	00f54a63          	blt	a0,a5,3024 <__swbuf_r+0x74>
    3014:	00040593          	mv	a1,s0
    3018:	00048513          	mv	a0,s1
    301c:	d81ff0ef          	jal	2d9c <_fflush_r>
    3020:	08051263          	bnez	a0,30a4 <__swbuf_r+0xf4>
    3024:	00842783          	lw	a5,8(s0)
    3028:	00150513          	addi	a0,a0,1
    302c:	0ff9f913          	zext.b	s2,s3
    3030:	fff78793          	addi	a5,a5,-1
    3034:	00f42423          	sw	a5,8(s0)
    3038:	00042783          	lw	a5,0(s0)
    303c:	00178713          	addi	a4,a5,1
    3040:	00e42023          	sw	a4,0(s0)
    3044:	01378023          	sb	s3,0(a5)
    3048:	01442783          	lw	a5,20(s0)
    304c:	00a78c63          	beq	a5,a0,3064 <__swbuf_r+0xb4>
    3050:	ff690793          	addi	a5,s2,-10
    3054:	02079063          	bnez	a5,3074 <__swbuf_r+0xc4>
    3058:	00c45783          	lhu	a5,12(s0)
    305c:	0017f793          	andi	a5,a5,1
    3060:	00078a63          	beqz	a5,3074 <__swbuf_r+0xc4>
    3064:	00040593          	mv	a1,s0
    3068:	00048513          	mv	a0,s1
    306c:	d31ff0ef          	jal	2d9c <_fflush_r>
    3070:	02051a63          	bnez	a0,30a4 <__swbuf_r+0xf4>
    3074:	01c12083          	lw	ra,28(sp)
    3078:	01812403          	lw	s0,24(sp)
    307c:	01412483          	lw	s1,20(sp)
    3080:	00c12983          	lw	s3,12(sp)
    3084:	00090513          	mv	a0,s2
    3088:	01012903          	lw	s2,16(sp)
    308c:	02010113          	addi	sp,sp,32
    3090:	00008067          	ret
    3094:	00040593          	mv	a1,s0
    3098:	00048513          	mv	a0,s1
    309c:	010000ef          	jal	30ac <__swsetup_r>
    30a0:	f60500e3          	beqz	a0,3000 <__swbuf_r+0x50>
    30a4:	fff00913          	li	s2,-1
    30a8:	fcdff06f          	j	3074 <__swbuf_r+0xc4>

000030ac <__swsetup_r>:
    30ac:	ff010113          	addi	sp,sp,-16
    30b0:	00912223          	sw	s1,4(sp)
    30b4:	00050493          	mv	s1,a0
    30b8:	9881a503          	lw	a0,-1656(gp) # 20cc4 <_impure_ptr>
    30bc:	00812423          	sw	s0,8(sp)
    30c0:	00112623          	sw	ra,12(sp)
    30c4:	00058413          	mv	s0,a1
    30c8:	00050863          	beqz	a0,30d8 <__swsetup_r+0x2c>
    30cc:	02052783          	lw	a5,32(a0)
    30d0:	00079463          	bnez	a5,30d8 <__swsetup_r+0x2c>
    30d4:	9ecff0ef          	jal	22c0 <__sinit>
    30d8:	00c41783          	lh	a5,12(s0)
    30dc:	0087f713          	andi	a4,a5,8
    30e0:	06071a63          	bnez	a4,3154 <__swsetup_r+0xa8>
    30e4:	0107f713          	andi	a4,a5,16
    30e8:	02071663          	bnez	a4,3114 <__swsetup_r+0x68>
    30ec:	00900713          	li	a4,9
    30f0:	00e4a023          	sw	a4,0(s1)
    30f4:	0407e793          	ori	a5,a5,64
    30f8:	00f41623          	sh	a5,12(s0)
    30fc:	fff00513          	li	a0,-1
    3100:	00c12083          	lw	ra,12(sp)
    3104:	00812403          	lw	s0,8(sp)
    3108:	00412483          	lw	s1,4(sp)
    310c:	01010113          	addi	sp,sp,16
    3110:	00008067          	ret
    3114:	0047f713          	andi	a4,a5,4
    3118:	02070a63          	beqz	a4,314c <__swsetup_r+0xa0>
    311c:	03442583          	lw	a1,52(s0)
    3120:	00058c63          	beqz	a1,3138 <__swsetup_r+0x8c>
    3124:	04440793          	addi	a5,s0,68
    3128:	00f58663          	beq	a1,a5,3134 <__swsetup_r+0x88>
    312c:	00048513          	mv	a0,s1
    3130:	f38ff0ef          	jal	2868 <_free_r>
    3134:	02042a23          	sw	zero,52(s0)
    3138:	00c45783          	lhu	a5,12(s0)
    313c:	01042703          	lw	a4,16(s0)
    3140:	00042223          	sw	zero,4(s0)
    3144:	fdb7f793          	andi	a5,a5,-37
    3148:	00e42023          	sw	a4,0(s0)
    314c:	0087e793          	ori	a5,a5,8
    3150:	00f41623          	sh	a5,12(s0)
    3154:	01042783          	lw	a5,16(s0)
    3158:	02079063          	bnez	a5,3178 <__swsetup_r+0xcc>
    315c:	00c42783          	lw	a5,12(s0)
    3160:	20000713          	li	a4,512
    3164:	2807f793          	andi	a5,a5,640
    3168:	00e78863          	beq	a5,a4,3178 <__swsetup_r+0xcc>
    316c:	00040593          	mv	a1,s0
    3170:	00048513          	mv	a0,s1
    3174:	25d000ef          	jal	3bd0 <__smakebuf_r>
    3178:	00c41783          	lh	a5,12(s0)
    317c:	0017f713          	andi	a4,a5,1
    3180:	02070263          	beqz	a4,31a4 <__swsetup_r+0xf8>
    3184:	01442703          	lw	a4,20(s0)
    3188:	00042423          	sw	zero,8(s0)
    318c:	40e00733          	neg	a4,a4
    3190:	00e42c23          	sw	a4,24(s0)
    3194:	01042703          	lw	a4,16(s0)
    3198:	02070263          	beqz	a4,31bc <__swsetup_r+0x110>
    319c:	00000513          	li	a0,0
    31a0:	f61ff06f          	j	3100 <__swsetup_r+0x54>
    31a4:	0027f713          	andi	a4,a5,2
    31a8:	00000693          	li	a3,0
    31ac:	00071463          	bnez	a4,31b4 <__swsetup_r+0x108>
    31b0:	01442683          	lw	a3,20(s0)
    31b4:	00d42423          	sw	a3,8(s0)
    31b8:	fddff06f          	j	3194 <__swsetup_r+0xe8>
    31bc:	0807f713          	andi	a4,a5,128
    31c0:	fc070ee3          	beqz	a4,319c <__swsetup_r+0xf0>
    31c4:	f31ff06f          	j	30f4 <__swsetup_r+0x48>

000031c8 <__errno>:
    31c8:	9881a503          	lw	a0,-1656(gp) # 20cc4 <_impure_ptr>
    31cc:	00008067          	ret

000031d0 <strlen>:
    31d0:	00050793          	mv	a5,a0
    31d4:	0007c703          	lbu	a4,0(a5)
    31d8:	00178793          	addi	a5,a5,1
    31dc:	fe071ce3          	bnez	a4,31d4 <strlen+0x4>
    31e0:	40a78533          	sub	a0,a5,a0
    31e4:	fff50513          	addi	a0,a0,-1
    31e8:	00008067          	ret

000031ec <__sfputc_r>:
    31ec:	00862783          	lw	a5,8(a2)
    31f0:	fff78793          	addi	a5,a5,-1
    31f4:	00f62423          	sw	a5,8(a2)
    31f8:	0007dc63          	bgez	a5,3210 <__sfputc_r+0x24>
    31fc:	01862703          	lw	a4,24(a2)
    3200:	00e7c663          	blt	a5,a4,320c <__sfputc_r+0x20>
    3204:	ff658793          	addi	a5,a1,-10
    3208:	00079463          	bnez	a5,3210 <__sfputc_r+0x24>
    320c:	da5ff06f          	j	2fb0 <__swbuf_r>
    3210:	00062783          	lw	a5,0(a2)
    3214:	00058513          	mv	a0,a1
    3218:	00178713          	addi	a4,a5,1
    321c:	00e62023          	sw	a4,0(a2)
    3220:	00b78023          	sb	a1,0(a5)
    3224:	00008067          	ret

00003228 <__sfputs_r>:
    3228:	fe010113          	addi	sp,sp,-32
    322c:	00812c23          	sw	s0,24(sp)
    3230:	00912a23          	sw	s1,20(sp)
    3234:	01212823          	sw	s2,16(sp)
    3238:	01312623          	sw	s3,12(sp)
    323c:	01412423          	sw	s4,8(sp)
    3240:	00112e23          	sw	ra,28(sp)
    3244:	00050993          	mv	s3,a0
    3248:	00058a13          	mv	s4,a1
    324c:	00060413          	mv	s0,a2
    3250:	00d604b3          	add	s1,a2,a3
    3254:	fff00913          	li	s2,-1
    3258:	00941663          	bne	s0,s1,3264 <__sfputs_r+0x3c>
    325c:	00000513          	li	a0,0
    3260:	01c0006f          	j	327c <__sfputs_r+0x54>
    3264:	00044583          	lbu	a1,0(s0)
    3268:	000a0613          	mv	a2,s4
    326c:	00098513          	mv	a0,s3
    3270:	f7dff0ef          	jal	31ec <__sfputc_r>
    3274:	00140413          	addi	s0,s0,1
    3278:	ff2510e3          	bne	a0,s2,3258 <__sfputs_r+0x30>
    327c:	01c12083          	lw	ra,28(sp)
    3280:	01812403          	lw	s0,24(sp)
    3284:	01412483          	lw	s1,20(sp)
    3288:	01012903          	lw	s2,16(sp)
    328c:	00c12983          	lw	s3,12(sp)
    3290:	00812a03          	lw	s4,8(sp)
    3294:	02010113          	addi	sp,sp,32
    3298:	00008067          	ret

0000329c <_vfiprintf_r>:
    329c:	f5010113          	addi	sp,sp,-176
    32a0:	0a812423          	sw	s0,168(sp)
    32a4:	0a912223          	sw	s1,164(sp)
    32a8:	0b212023          	sw	s2,160(sp)
    32ac:	09312e23          	sw	s3,156(sp)
    32b0:	0a112623          	sw	ra,172(sp)
    32b4:	09412c23          	sw	s4,152(sp)
    32b8:	09512a23          	sw	s5,148(sp)
    32bc:	09612823          	sw	s6,144(sp)
    32c0:	09712623          	sw	s7,140(sp)
    32c4:	00050913          	mv	s2,a0
    32c8:	00058493          	mv	s1,a1
    32cc:	00060413          	mv	s0,a2
    32d0:	00068993          	mv	s3,a3
    32d4:	00050863          	beqz	a0,32e4 <_vfiprintf_r+0x48>
    32d8:	02052783          	lw	a5,32(a0)
    32dc:	00079463          	bnez	a5,32e4 <_vfiprintf_r+0x48>
    32e0:	fe1fe0ef          	jal	22c0 <__sinit>
    32e4:	00c4d783          	lhu	a5,12(s1)
    32e8:	0087f793          	andi	a5,a5,8
    32ec:	00078663          	beqz	a5,32f8 <_vfiprintf_r+0x5c>
    32f0:	0104a783          	lw	a5,16(s1)
    32f4:	00079a63          	bnez	a5,3308 <_vfiprintf_r+0x6c>
    32f8:	00048593          	mv	a1,s1
    32fc:	00090513          	mv	a0,s2
    3300:	dadff0ef          	jal	30ac <__swsetup_r>
    3304:	2a051a63          	bnez	a0,35b8 <_vfiprintf_r+0x31c>
    3308:	02000793          	li	a5,32
    330c:	02f10ca3          	sb	a5,57(sp)
    3310:	00020a37          	lui	s4,0x20
    3314:	03000793          	li	a5,48
    3318:	01312e23          	sw	s3,28(sp)
    331c:	02012a23          	sw	zero,52(sp)
    3320:	02f10d23          	sb	a5,58(sp)
    3324:	02500a93          	li	s5,37
    3328:	fff00993          	li	s3,-1
    332c:	470a0a13          	addi	s4,s4,1136 # 20470 <__clz_tab+0x2f8>
    3330:	00100b13          	li	s6,1
    3334:	00040b93          	mv	s7,s0
    3338:	000bc783          	lbu	a5,0(s7)
    333c:	00078463          	beqz	a5,3344 <_vfiprintf_r+0xa8>
    3340:	0d579463          	bne	a5,s5,3408 <_vfiprintf_r+0x16c>
    3344:	408b86b3          	sub	a3,s7,s0
    3348:	028b8663          	beq	s7,s0,3374 <_vfiprintf_r+0xd8>
    334c:	00040613          	mv	a2,s0
    3350:	00048593          	mv	a1,s1
    3354:	00090513          	mv	a0,s2
    3358:	00d12623          	sw	a3,12(sp)
    335c:	ecdff0ef          	jal	3228 <__sfputs_r>
    3360:	25350663          	beq	a0,s3,35ac <_vfiprintf_r+0x310>
    3364:	03412783          	lw	a5,52(sp)
    3368:	00c12683          	lw	a3,12(sp)
    336c:	00d787b3          	add	a5,a5,a3
    3370:	02f12a23          	sw	a5,52(sp)
    3374:	000bc783          	lbu	a5,0(s7)
    3378:	22078a63          	beqz	a5,35ac <_vfiprintf_r+0x310>
    337c:	001b8413          	addi	s0,s7,1
    3380:	02012023          	sw	zero,32(sp)
    3384:	02012623          	sw	zero,44(sp)
    3388:	03312223          	sw	s3,36(sp)
    338c:	02012423          	sw	zero,40(sp)
    3390:	060101a3          	sb	zero,99(sp)
    3394:	06012c23          	sw	zero,120(sp)
    3398:	00044583          	lbu	a1,0(s0)
    339c:	00500613          	li	a2,5
    33a0:	000a0513          	mv	a0,s4
    33a4:	18d000ef          	jal	3d30 <memchr>
    33a8:	02012783          	lw	a5,32(sp)
    33ac:	00140693          	addi	a3,s0,1
    33b0:	06051063          	bnez	a0,3410 <_vfiprintf_r+0x174>
    33b4:	0107f713          	andi	a4,a5,16
    33b8:	00070663          	beqz	a4,33c4 <_vfiprintf_r+0x128>
    33bc:	02000713          	li	a4,32
    33c0:	06e101a3          	sb	a4,99(sp)
    33c4:	0087f713          	andi	a4,a5,8
    33c8:	00070663          	beqz	a4,33d4 <_vfiprintf_r+0x138>
    33cc:	02b00713          	li	a4,43
    33d0:	06e101a3          	sb	a4,99(sp)
    33d4:	00044603          	lbu	a2,0(s0)
    33d8:	02a00713          	li	a4,42
    33dc:	04e60663          	beq	a2,a4,3428 <_vfiprintf_r+0x18c>
    33e0:	02c12783          	lw	a5,44(sp)
    33e4:	00000693          	li	a3,0
    33e8:	00900613          	li	a2,9
    33ec:	00a00593          	li	a1,10
    33f0:	00044703          	lbu	a4,0(s0)
    33f4:	fd070713          	addi	a4,a4,-48
    33f8:	08e67c63          	bgeu	a2,a4,3490 <_vfiprintf_r+0x1f4>
    33fc:	04068463          	beqz	a3,3444 <_vfiprintf_r+0x1a8>
    3400:	02f12623          	sw	a5,44(sp)
    3404:	0400006f          	j	3444 <_vfiprintf_r+0x1a8>
    3408:	001b8b93          	addi	s7,s7,1
    340c:	f2dff06f          	j	3338 <_vfiprintf_r+0x9c>
    3410:	41450533          	sub	a0,a0,s4
    3414:	00ab1533          	sll	a0,s6,a0
    3418:	00f56533          	or	a0,a0,a5
    341c:	02a12023          	sw	a0,32(sp)
    3420:	00068413          	mv	s0,a3
    3424:	f75ff06f          	j	3398 <_vfiprintf_r+0xfc>
    3428:	01c12703          	lw	a4,28(sp)
    342c:	00470613          	addi	a2,a4,4
    3430:	00072703          	lw	a4,0(a4)
    3434:	00c12e23          	sw	a2,28(sp)
    3438:	04074263          	bltz	a4,347c <_vfiprintf_r+0x1e0>
    343c:	02e12623          	sw	a4,44(sp)
    3440:	00068413          	mv	s0,a3
    3444:	00044703          	lbu	a4,0(s0)
    3448:	02e00793          	li	a5,46
    344c:	04f71e63          	bne	a4,a5,34a8 <_vfiprintf_r+0x20c>
    3450:	00144703          	lbu	a4,1(s0)
    3454:	02a00793          	li	a5,42
    3458:	0cf71e63          	bne	a4,a5,3534 <_vfiprintf_r+0x298>
    345c:	01c12783          	lw	a5,28(sp)
    3460:	00240413          	addi	s0,s0,2
    3464:	00478713          	addi	a4,a5,4
    3468:	0007a783          	lw	a5,0(a5)
    346c:	00e12e23          	sw	a4,28(sp)
    3470:	0207ca63          	bltz	a5,34a4 <_vfiprintf_r+0x208>
    3474:	02f12223          	sw	a5,36(sp)
    3478:	0300006f          	j	34a8 <_vfiprintf_r+0x20c>
    347c:	40e00733          	neg	a4,a4
    3480:	0027e793          	ori	a5,a5,2
    3484:	02e12623          	sw	a4,44(sp)
    3488:	02f12023          	sw	a5,32(sp)
    348c:	fb5ff06f          	j	3440 <_vfiprintf_r+0x1a4>
    3490:	02b787b3          	mul	a5,a5,a1
    3494:	00140413          	addi	s0,s0,1
    3498:	00100693          	li	a3,1
    349c:	00e787b3          	add	a5,a5,a4
    34a0:	f51ff06f          	j	33f0 <_vfiprintf_r+0x154>
    34a4:	03312223          	sw	s3,36(sp)
    34a8:	00044583          	lbu	a1,0(s0)
    34ac:	00020bb7          	lui	s7,0x20
    34b0:	00300613          	li	a2,3
    34b4:	478b8513          	addi	a0,s7,1144 # 20478 <__clz_tab+0x300>
    34b8:	079000ef          	jal	3d30 <memchr>
    34bc:	02050263          	beqz	a0,34e0 <_vfiprintf_r+0x244>
    34c0:	02012783          	lw	a5,32(sp)
    34c4:	478b8b93          	addi	s7,s7,1144
    34c8:	41750533          	sub	a0,a0,s7
    34cc:	04000713          	li	a4,64
    34d0:	00a71733          	sll	a4,a4,a0
    34d4:	00e7e7b3          	or	a5,a5,a4
    34d8:	00140413          	addi	s0,s0,1
    34dc:	02f12023          	sw	a5,32(sp)
    34e0:	00044583          	lbu	a1,0(s0)
    34e4:	00020537          	lui	a0,0x20
    34e8:	00600613          	li	a2,6
    34ec:	47c50513          	addi	a0,a0,1148 # 2047c <__clz_tab+0x304>
    34f0:	02b10c23          	sb	a1,56(sp)
    34f4:	03d000ef          	jal	3d30 <memchr>
    34f8:	0e050863          	beqz	a0,35e8 <_vfiprintf_r+0x34c>
    34fc:	00000793          	li	a5,0
    3500:	08079463          	bnez	a5,3588 <_vfiprintf_r+0x2ec>
    3504:	02012503          	lw	a0,32(sp)
    3508:	01c12783          	lw	a5,28(sp)
    350c:	10057513          	andi	a0,a0,256
    3510:	06050263          	beqz	a0,3574 <_vfiprintf_r+0x2d8>
    3514:	00478793          	addi	a5,a5,4
    3518:	00f12e23          	sw	a5,28(sp)
    351c:	00000513          	li	a0,0
    3520:	03412783          	lw	a5,52(sp)
    3524:	00140413          	addi	s0,s0,1
    3528:	00a787b3          	add	a5,a5,a0
    352c:	02f12a23          	sw	a5,52(sp)
    3530:	e05ff06f          	j	3334 <_vfiprintf_r+0x98>
    3534:	00140413          	addi	s0,s0,1
    3538:	00000713          	li	a4,0
    353c:	00000793          	li	a5,0
    3540:	00900613          	li	a2,9
    3544:	00a00593          	li	a1,10
    3548:	00044683          	lbu	a3,0(s0)
    354c:	fd068693          	addi	a3,a3,-48
    3550:	00d67863          	bgeu	a2,a3,3560 <_vfiprintf_r+0x2c4>
    3554:	40e00733          	neg	a4,a4
    3558:	00e7f7b3          	and	a5,a5,a4
    355c:	f19ff06f          	j	3474 <_vfiprintf_r+0x1d8>
    3560:	02b787b3          	mul	a5,a5,a1
    3564:	00140413          	addi	s0,s0,1
    3568:	00100713          	li	a4,1
    356c:	00d787b3          	add	a5,a5,a3
    3570:	fd9ff06f          	j	3548 <_vfiprintf_r+0x2ac>
    3574:	00778793          	addi	a5,a5,7
    3578:	ff87f793          	andi	a5,a5,-8
    357c:	00878793          	addi	a5,a5,8
    3580:	00f12e23          	sw	a5,28(sp)
    3584:	f9dff06f          	j	3520 <_vfiprintf_r+0x284>
    3588:	000036b7          	lui	a3,0x3
    358c:	01c10713          	addi	a4,sp,28
    3590:	22868693          	addi	a3,a3,552 # 3228 <__sfputs_r>
    3594:	00048613          	mv	a2,s1
    3598:	02010593          	addi	a1,sp,32
    359c:	00090513          	mv	a0,s2
    35a0:	00000097          	auipc	ra,0x0
    35a4:	000000e7          	jalr	zero # 0 <__vector_start>
    35a8:	f7351ce3          	bne	a0,s3,3520 <_vfiprintf_r+0x284>
    35ac:	00c4d783          	lhu	a5,12(s1)
    35b0:	0407f793          	andi	a5,a5,64
    35b4:	04078a63          	beqz	a5,3608 <_vfiprintf_r+0x36c>
    35b8:	fff00513          	li	a0,-1
    35bc:	0ac12083          	lw	ra,172(sp)
    35c0:	0a812403          	lw	s0,168(sp)
    35c4:	0a412483          	lw	s1,164(sp)
    35c8:	0a012903          	lw	s2,160(sp)
    35cc:	09c12983          	lw	s3,156(sp)
    35d0:	09812a03          	lw	s4,152(sp)
    35d4:	09412a83          	lw	s5,148(sp)
    35d8:	09012b03          	lw	s6,144(sp)
    35dc:	08c12b83          	lw	s7,140(sp)
    35e0:	0b010113          	addi	sp,sp,176
    35e4:	00008067          	ret
    35e8:	000036b7          	lui	a3,0x3
    35ec:	01c10713          	addi	a4,sp,28
    35f0:	22868693          	addi	a3,a3,552 # 3228 <__sfputs_r>
    35f4:	00048613          	mv	a2,s1
    35f8:	02010593          	addi	a1,sp,32
    35fc:	00090513          	mv	a0,s2
    3600:	1bc000ef          	jal	37bc <_printf_i>
    3604:	fa5ff06f          	j	35a8 <_vfiprintf_r+0x30c>
    3608:	03412503          	lw	a0,52(sp)
    360c:	fb1ff06f          	j	35bc <_vfiprintf_r+0x320>

00003610 <_printf_common>:
    3610:	fd010113          	addi	sp,sp,-48
    3614:	03212023          	sw	s2,32(sp)
    3618:	0105a783          	lw	a5,16(a1)
    361c:	00070913          	mv	s2,a4
    3620:	0085a703          	lw	a4,8(a1)
    3624:	02812423          	sw	s0,40(sp)
    3628:	01312e23          	sw	s3,28(sp)
    362c:	01612823          	sw	s6,16(sp)
    3630:	01712623          	sw	s7,12(sp)
    3634:	02112623          	sw	ra,44(sp)
    3638:	02912223          	sw	s1,36(sp)
    363c:	01412c23          	sw	s4,24(sp)
    3640:	01512a23          	sw	s5,20(sp)
    3644:	00050b13          	mv	s6,a0
    3648:	00058413          	mv	s0,a1
    364c:	00060993          	mv	s3,a2
    3650:	00068b93          	mv	s7,a3
    3654:	00e7d463          	bge	a5,a4,365c <_printf_common+0x4c>
    3658:	00070793          	mv	a5,a4
    365c:	00f9a023          	sw	a5,0(s3)
    3660:	04344703          	lbu	a4,67(s0)
    3664:	00070663          	beqz	a4,3670 <_printf_common+0x60>
    3668:	00178793          	addi	a5,a5,1
    366c:	00f9a023          	sw	a5,0(s3)
    3670:	00042783          	lw	a5,0(s0)
    3674:	0207f793          	andi	a5,a5,32
    3678:	00078863          	beqz	a5,3688 <_printf_common+0x78>
    367c:	0009a783          	lw	a5,0(s3)
    3680:	00278793          	addi	a5,a5,2
    3684:	00f9a023          	sw	a5,0(s3)
    3688:	00042483          	lw	s1,0(s0)
    368c:	0064f493          	andi	s1,s1,6
    3690:	00049e63          	bnez	s1,36ac <_printf_common+0x9c>
    3694:	01940a13          	addi	s4,s0,25
    3698:	fff00a93          	li	s5,-1
    369c:	00c42783          	lw	a5,12(s0)
    36a0:	0009a703          	lw	a4,0(s3)
    36a4:	40e787b3          	sub	a5,a5,a4
    36a8:	0af4c863          	blt	s1,a5,3758 <_printf_common+0x148>
    36ac:	00042783          	lw	a5,0(s0)
    36b0:	04344683          	lbu	a3,67(s0)
    36b4:	0207f793          	andi	a5,a5,32
    36b8:	00d036b3          	snez	a3,a3
    36bc:	0a079e63          	bnez	a5,3778 <_printf_common+0x168>
    36c0:	04340613          	addi	a2,s0,67
    36c4:	000b8593          	mv	a1,s7
    36c8:	000b0513          	mv	a0,s6
    36cc:	000900e7          	jalr	s2
    36d0:	fff00793          	li	a5,-1
    36d4:	04f50c63          	beq	a0,a5,372c <_printf_common+0x11c>
    36d8:	00042783          	lw	a5,0(s0)
    36dc:	00400713          	li	a4,4
    36e0:	00000493          	li	s1,0
    36e4:	0067f793          	andi	a5,a5,6
    36e8:	00e79e63          	bne	a5,a4,3704 <_printf_common+0xf4>
    36ec:	0009a783          	lw	a5,0(s3)
    36f0:	00c42483          	lw	s1,12(s0)
    36f4:	40f484b3          	sub	s1,s1,a5
    36f8:	fff4c793          	not	a5,s1
    36fc:	41f7d793          	srai	a5,a5,0x1f
    3700:	00f4f4b3          	and	s1,s1,a5
    3704:	00842783          	lw	a5,8(s0)
    3708:	01042703          	lw	a4,16(s0)
    370c:	00f75663          	bge	a4,a5,3718 <_printf_common+0x108>
    3710:	40e787b3          	sub	a5,a5,a4
    3714:	00f484b3          	add	s1,s1,a5
    3718:	00000993          	li	s3,0
    371c:	01a40413          	addi	s0,s0,26
    3720:	fff00a13          	li	s4,-1
    3724:	07349c63          	bne	s1,s3,379c <_printf_common+0x18c>
    3728:	00000513          	li	a0,0
    372c:	02c12083          	lw	ra,44(sp)
    3730:	02812403          	lw	s0,40(sp)
    3734:	02412483          	lw	s1,36(sp)
    3738:	02012903          	lw	s2,32(sp)
    373c:	01c12983          	lw	s3,28(sp)
    3740:	01812a03          	lw	s4,24(sp)
    3744:	01412a83          	lw	s5,20(sp)
    3748:	01012b03          	lw	s6,16(sp)
    374c:	00c12b83          	lw	s7,12(sp)
    3750:	03010113          	addi	sp,sp,48
    3754:	00008067          	ret
    3758:	00100693          	li	a3,1
    375c:	000a0613          	mv	a2,s4
    3760:	000b8593          	mv	a1,s7
    3764:	000b0513          	mv	a0,s6
    3768:	000900e7          	jalr	s2
    376c:	fd5500e3          	beq	a0,s5,372c <_printf_common+0x11c>
    3770:	00148493          	addi	s1,s1,1
    3774:	f29ff06f          	j	369c <_printf_common+0x8c>
    3778:	00d40733          	add	a4,s0,a3
    377c:	03000613          	li	a2,48
    3780:	04c701a3          	sb	a2,67(a4)
    3784:	04544703          	lbu	a4,69(s0)
    3788:	00168793          	addi	a5,a3,1
    378c:	00f407b3          	add	a5,s0,a5
    3790:	00268693          	addi	a3,a3,2
    3794:	04e781a3          	sb	a4,67(a5)
    3798:	f29ff06f          	j	36c0 <_printf_common+0xb0>
    379c:	00100693          	li	a3,1
    37a0:	00040613          	mv	a2,s0
    37a4:	000b8593          	mv	a1,s7
    37a8:	000b0513          	mv	a0,s6
    37ac:	000900e7          	jalr	s2
    37b0:	f7450ee3          	beq	a0,s4,372c <_printf_common+0x11c>
    37b4:	00198993          	addi	s3,s3,1
    37b8:	f6dff06f          	j	3724 <_printf_common+0x114>

000037bc <_printf_i>:
    37bc:	fc010113          	addi	sp,sp,-64
    37c0:	02812c23          	sw	s0,56(sp)
    37c4:	02912a23          	sw	s1,52(sp)
    37c8:	03412423          	sw	s4,40(sp)
    37cc:	03512223          	sw	s5,36(sp)
    37d0:	02112e23          	sw	ra,60(sp)
    37d4:	03212823          	sw	s2,48(sp)
    37d8:	03312623          	sw	s3,44(sp)
    37dc:	0185c783          	lbu	a5,24(a1)
    37e0:	00068493          	mv	s1,a3
    37e4:	07800693          	li	a3,120
    37e8:	00050a13          	mv	s4,a0
    37ec:	00058413          	mv	s0,a1
    37f0:	00060a93          	mv	s5,a2
    37f4:	00f6ee63          	bltu	a3,a5,3810 <_printf_i+0x54>
    37f8:	06200693          	li	a3,98
    37fc:	04358613          	addi	a2,a1,67
    3800:	00f6ec63          	bltu	a3,a5,3818 <_printf_i+0x5c>
    3804:	2a078e63          	beqz	a5,3ac0 <_printf_i+0x304>
    3808:	05800693          	li	a3,88
    380c:	20d78463          	beq	a5,a3,3a14 <_printf_i+0x258>
    3810:	04240913          	addi	s2,s0,66
    3814:	0400006f          	j	3854 <_printf_i+0x98>
    3818:	f9d78693          	addi	a3,a5,-99
    381c:	0ff6f693          	zext.b	a3,a3
    3820:	01500593          	li	a1,21
    3824:	fed5e6e3          	bltu	a1,a3,3810 <_printf_i+0x54>
    3828:	000205b7          	lui	a1,0x20
    382c:	00269693          	slli	a3,a3,0x2
    3830:	10858593          	addi	a1,a1,264 # 20108 <jump_table.17+0x64>
    3834:	00b686b3          	add	a3,a3,a1
    3838:	0006a683          	lw	a3,0(a3)
    383c:	00068067          	jr	a3
    3840:	00072783          	lw	a5,0(a4)
    3844:	04240913          	addi	s2,s0,66
    3848:	00478693          	addi	a3,a5,4
    384c:	0007a783          	lw	a5,0(a5)
    3850:	00d72023          	sw	a3,0(a4)
    3854:	04f40123          	sb	a5,66(s0)
    3858:	00100793          	li	a5,1
    385c:	2a00006f          	j	3afc <_printf_i+0x340>
    3860:	00042783          	lw	a5,0(s0)
    3864:	00072503          	lw	a0,0(a4)
    3868:	0807f693          	andi	a3,a5,128
    386c:	00450593          	addi	a1,a0,4
    3870:	02068663          	beqz	a3,389c <_printf_i+0xe0>
    3874:	00052783          	lw	a5,0(a0)
    3878:	00b72023          	sw	a1,0(a4)
    387c:	000206b7          	lui	a3,0x20
    3880:	0007d863          	bgez	a5,3890 <_printf_i+0xd4>
    3884:	02d00713          	li	a4,45
    3888:	40f007b3          	neg	a5,a5
    388c:	04e401a3          	sb	a4,67(s0)
    3890:	48468693          	addi	a3,a3,1156 # 20484 <__clz_tab+0x30c>
    3894:	00a00713          	li	a4,10
    3898:	06c0006f          	j	3904 <_printf_i+0x148>
    389c:	0407f693          	andi	a3,a5,64
    38a0:	00052783          	lw	a5,0(a0)
    38a4:	00b72023          	sw	a1,0(a4)
    38a8:	fc068ae3          	beqz	a3,387c <_printf_i+0xc0>
    38ac:	01079793          	slli	a5,a5,0x10
    38b0:	4107d793          	srai	a5,a5,0x10
    38b4:	fc9ff06f          	j	387c <_printf_i+0xc0>
    38b8:	00042683          	lw	a3,0(s0)
    38bc:	00072783          	lw	a5,0(a4)
    38c0:	0806f513          	andi	a0,a3,128
    38c4:	00478593          	addi	a1,a5,4
    38c8:	00050863          	beqz	a0,38d8 <_printf_i+0x11c>
    38cc:	00b72023          	sw	a1,0(a4)
    38d0:	0007a783          	lw	a5,0(a5)
    38d4:	0140006f          	j	38e8 <_printf_i+0x12c>
    38d8:	0406f693          	andi	a3,a3,64
    38dc:	00b72023          	sw	a1,0(a4)
    38e0:	fe0688e3          	beqz	a3,38d0 <_printf_i+0x114>
    38e4:	0007d783          	lhu	a5,0(a5)
    38e8:	01844583          	lbu	a1,24(s0)
    38ec:	000206b7          	lui	a3,0x20
    38f0:	06f00713          	li	a4,111
    38f4:	48468693          	addi	a3,a3,1156 # 20484 <__clz_tab+0x30c>
    38f8:	18e59263          	bne	a1,a4,3a7c <_printf_i+0x2c0>
    38fc:	00800713          	li	a4,8
    3900:	040401a3          	sb	zero,67(s0)
    3904:	00442583          	lw	a1,4(s0)
    3908:	00b42423          	sw	a1,8(s0)
    390c:	0005ce63          	bltz	a1,3928 <_printf_i+0x16c>
    3910:	00042503          	lw	a0,0(s0)
    3914:	00b7e5b3          	or	a1,a5,a1
    3918:	00060913          	mv	s2,a2
    391c:	ffb57513          	andi	a0,a0,-5
    3920:	00a42023          	sw	a0,0(s0)
    3924:	02058463          	beqz	a1,394c <_printf_i+0x190>
    3928:	00060913          	mv	s2,a2
    392c:	02e7f5b3          	remu	a1,a5,a4
    3930:	fff90913          	addi	s2,s2,-1
    3934:	00b685b3          	add	a1,a3,a1
    3938:	0005c583          	lbu	a1,0(a1)
    393c:	00b90023          	sb	a1,0(s2)
    3940:	00078593          	mv	a1,a5
    3944:	02e7d7b3          	divu	a5,a5,a4
    3948:	fee5f2e3          	bgeu	a1,a4,392c <_printf_i+0x170>
    394c:	00800793          	li	a5,8
    3950:	02f71463          	bne	a4,a5,3978 <_printf_i+0x1bc>
    3954:	00042783          	lw	a5,0(s0)
    3958:	0017f793          	andi	a5,a5,1
    395c:	00078e63          	beqz	a5,3978 <_printf_i+0x1bc>
    3960:	00442703          	lw	a4,4(s0)
    3964:	01042783          	lw	a5,16(s0)
    3968:	00e7c863          	blt	a5,a4,3978 <_printf_i+0x1bc>
    396c:	03000793          	li	a5,48
    3970:	fef90fa3          	sb	a5,-1(s2)
    3974:	fff90913          	addi	s2,s2,-1
    3978:	41260633          	sub	a2,a2,s2
    397c:	00c42823          	sw	a2,16(s0)
    3980:	00048713          	mv	a4,s1
    3984:	000a8693          	mv	a3,s5
    3988:	01c10613          	addi	a2,sp,28
    398c:	00040593          	mv	a1,s0
    3990:	000a0513          	mv	a0,s4
    3994:	c7dff0ef          	jal	3610 <_printf_common>
    3998:	fff00993          	li	s3,-1
    399c:	03350c63          	beq	a0,s3,39d4 <_printf_i+0x218>
    39a0:	01042683          	lw	a3,16(s0)
    39a4:	00090613          	mv	a2,s2
    39a8:	000a8593          	mv	a1,s5
    39ac:	000a0513          	mv	a0,s4
    39b0:	000480e7          	jalr	s1
    39b4:	03350063          	beq	a0,s3,39d4 <_printf_i+0x218>
    39b8:	00042783          	lw	a5,0(s0)
    39bc:	0027f793          	andi	a5,a5,2
    39c0:	16079e63          	bnez	a5,3b3c <_printf_i+0x380>
    39c4:	01c12783          	lw	a5,28(sp)
    39c8:	00c42503          	lw	a0,12(s0)
    39cc:	00f55463          	bge	a0,a5,39d4 <_printf_i+0x218>
    39d0:	00078513          	mv	a0,a5
    39d4:	03c12083          	lw	ra,60(sp)
    39d8:	03812403          	lw	s0,56(sp)
    39dc:	03412483          	lw	s1,52(sp)
    39e0:	03012903          	lw	s2,48(sp)
    39e4:	02c12983          	lw	s3,44(sp)
    39e8:	02812a03          	lw	s4,40(sp)
    39ec:	02412a83          	lw	s5,36(sp)
    39f0:	04010113          	addi	sp,sp,64
    39f4:	00008067          	ret
    39f8:	00042783          	lw	a5,0(s0)
    39fc:	0207e793          	ori	a5,a5,32
    3a00:	00f42023          	sw	a5,0(s0)
    3a04:	07800793          	li	a5,120
    3a08:	000206b7          	lui	a3,0x20
    3a0c:	49868693          	addi	a3,a3,1176 # 20498 <__clz_tab+0x320>
    3a10:	00c0006f          	j	3a1c <_printf_i+0x260>
    3a14:	000206b7          	lui	a3,0x20
    3a18:	48468693          	addi	a3,a3,1156 # 20484 <__clz_tab+0x30c>
    3a1c:	00042583          	lw	a1,0(s0)
    3a20:	04f402a3          	sb	a5,69(s0)
    3a24:	00072783          	lw	a5,0(a4)
    3a28:	0805f813          	andi	a6,a1,128
    3a2c:	00478513          	addi	a0,a5,4
    3a30:	00080863          	beqz	a6,3a40 <_printf_i+0x284>
    3a34:	00a72023          	sw	a0,0(a4)
    3a38:	0007a783          	lw	a5,0(a5)
    3a3c:	0140006f          	j	3a50 <_printf_i+0x294>
    3a40:	0405f813          	andi	a6,a1,64
    3a44:	00a72023          	sw	a0,0(a4)
    3a48:	fe0808e3          	beqz	a6,3a38 <_printf_i+0x27c>
    3a4c:	0007d783          	lhu	a5,0(a5)
    3a50:	0015f713          	andi	a4,a1,1
    3a54:	00070663          	beqz	a4,3a60 <_printf_i+0x2a4>
    3a58:	0205e593          	ori	a1,a1,32
    3a5c:	00b42023          	sw	a1,0(s0)
    3a60:	00078663          	beqz	a5,3a6c <_printf_i+0x2b0>
    3a64:	01000713          	li	a4,16
    3a68:	e99ff06f          	j	3900 <_printf_i+0x144>
    3a6c:	00042703          	lw	a4,0(s0)
    3a70:	fdf77713          	andi	a4,a4,-33
    3a74:	00e42023          	sw	a4,0(s0)
    3a78:	fedff06f          	j	3a64 <_printf_i+0x2a8>
    3a7c:	00a00713          	li	a4,10
    3a80:	e81ff06f          	j	3900 <_printf_i+0x144>
    3a84:	00042683          	lw	a3,0(s0)
    3a88:	00072783          	lw	a5,0(a4)
    3a8c:	01442583          	lw	a1,20(s0)
    3a90:	0806f813          	andi	a6,a3,128
    3a94:	00478513          	addi	a0,a5,4
    3a98:	00080a63          	beqz	a6,3aac <_printf_i+0x2f0>
    3a9c:	00a72023          	sw	a0,0(a4)
    3aa0:	0007a783          	lw	a5,0(a5)
    3aa4:	00b7a023          	sw	a1,0(a5)
    3aa8:	0180006f          	j	3ac0 <_printf_i+0x304>
    3aac:	00a72023          	sw	a0,0(a4)
    3ab0:	0406f693          	andi	a3,a3,64
    3ab4:	0007a783          	lw	a5,0(a5)
    3ab8:	fe0686e3          	beqz	a3,3aa4 <_printf_i+0x2e8>
    3abc:	00b79023          	sh	a1,0(a5)
    3ac0:	00042823          	sw	zero,16(s0)
    3ac4:	00060913          	mv	s2,a2
    3ac8:	eb9ff06f          	j	3980 <_printf_i+0x1c4>
    3acc:	00072783          	lw	a5,0(a4)
    3ad0:	00442603          	lw	a2,4(s0)
    3ad4:	00000593          	li	a1,0
    3ad8:	00478693          	addi	a3,a5,4
    3adc:	00d72023          	sw	a3,0(a4)
    3ae0:	0007a903          	lw	s2,0(a5)
    3ae4:	00090513          	mv	a0,s2
    3ae8:	248000ef          	jal	3d30 <memchr>
    3aec:	00050663          	beqz	a0,3af8 <_printf_i+0x33c>
    3af0:	41250533          	sub	a0,a0,s2
    3af4:	00a42223          	sw	a0,4(s0)
    3af8:	00442783          	lw	a5,4(s0)
    3afc:	00f42823          	sw	a5,16(s0)
    3b00:	040401a3          	sb	zero,67(s0)
    3b04:	e7dff06f          	j	3980 <_printf_i+0x1c4>
    3b08:	00100693          	li	a3,1
    3b0c:	000a8593          	mv	a1,s5
    3b10:	000a0513          	mv	a0,s4
    3b14:	00c12623          	sw	a2,12(sp)
    3b18:	000480e7          	jalr	s1
    3b1c:	eb350ce3          	beq	a0,s3,39d4 <_printf_i+0x218>
    3b20:	00c12603          	lw	a2,12(sp)
    3b24:	00190913          	addi	s2,s2,1
    3b28:	00c42783          	lw	a5,12(s0)
    3b2c:	01c12703          	lw	a4,28(sp)
    3b30:	40e787b3          	sub	a5,a5,a4
    3b34:	fcf94ae3          	blt	s2,a5,3b08 <_printf_i+0x34c>
    3b38:	e8dff06f          	j	39c4 <_printf_i+0x208>
    3b3c:	00000913          	li	s2,0
    3b40:	01940613          	addi	a2,s0,25
    3b44:	fe5ff06f          	j	3b28 <_printf_i+0x36c>

00003b48 <__swhatbuf_r>:
    3b48:	f8010113          	addi	sp,sp,-128
    3b4c:	06812c23          	sw	s0,120(sp)
    3b50:	00058413          	mv	s0,a1
    3b54:	00e59583          	lh	a1,14(a1)
    3b58:	06912a23          	sw	s1,116(sp)
    3b5c:	06112e23          	sw	ra,124(sp)
    3b60:	00060493          	mv	s1,a2
    3b64:	0005cc63          	bltz	a1,3b7c <__swhatbuf_r+0x34>
    3b68:	01810613          	addi	a2,sp,24
    3b6c:	00d12623          	sw	a3,12(sp)
    3b70:	12c000ef          	jal	3c9c <_fstat_r>
    3b74:	00c12683          	lw	a3,12(sp)
    3b78:	02055c63          	bgez	a0,3bb0 <__swhatbuf_r+0x68>
    3b7c:	00c45783          	lhu	a5,12(s0)
    3b80:	0807f793          	andi	a5,a5,128
    3b84:	04078263          	beqz	a5,3bc8 <__swhatbuf_r+0x80>
    3b88:	00000793          	li	a5,0
    3b8c:	04000713          	li	a4,64
    3b90:	07c12083          	lw	ra,124(sp)
    3b94:	07812403          	lw	s0,120(sp)
    3b98:	00f6a023          	sw	a5,0(a3)
    3b9c:	00e4a023          	sw	a4,0(s1)
    3ba0:	00000513          	li	a0,0
    3ba4:	07412483          	lw	s1,116(sp)
    3ba8:	08010113          	addi	sp,sp,128
    3bac:	00008067          	ret
    3bb0:	01c12783          	lw	a5,28(sp)
    3bb4:	0000f737          	lui	a4,0xf
    3bb8:	00e7f7b3          	and	a5,a5,a4
    3bbc:	ffffe737          	lui	a4,0xffffe
    3bc0:	00e787b3          	add	a5,a5,a4
    3bc4:	0017b793          	seqz	a5,a5
    3bc8:	40000713          	li	a4,1024
    3bcc:	fc5ff06f          	j	3b90 <__swhatbuf_r+0x48>

00003bd0 <__smakebuf_r>:
    3bd0:	00c5d703          	lhu	a4,12(a1)
    3bd4:	fd010113          	addi	sp,sp,-48
    3bd8:	02812423          	sw	s0,40(sp)
    3bdc:	02112623          	sw	ra,44(sp)
    3be0:	02912223          	sw	s1,36(sp)
    3be4:	00277713          	andi	a4,a4,2
    3be8:	00058413          	mv	s0,a1
    3bec:	02070663          	beqz	a4,3c18 <__smakebuf_r+0x48>
    3bf0:	04740793          	addi	a5,s0,71
    3bf4:	00f42023          	sw	a5,0(s0)
    3bf8:	00f42823          	sw	a5,16(s0)
    3bfc:	00100793          	li	a5,1
    3c00:	00f42a23          	sw	a5,20(s0)
    3c04:	02c12083          	lw	ra,44(sp)
    3c08:	02812403          	lw	s0,40(sp)
    3c0c:	02412483          	lw	s1,36(sp)
    3c10:	03010113          	addi	sp,sp,48
    3c14:	00008067          	ret
    3c18:	01c10693          	addi	a3,sp,28
    3c1c:	01810613          	addi	a2,sp,24
    3c20:	00050493          	mv	s1,a0
    3c24:	f25ff0ef          	jal	3b48 <__swhatbuf_r>
    3c28:	01812583          	lw	a1,24(sp)
    3c2c:	00048513          	mv	a0,s1
    3c30:	00b12623          	sw	a1,12(sp)
    3c34:	db1fe0ef          	jal	29e4 <_malloc_r>
    3c38:	00c41783          	lh	a5,12(s0)
    3c3c:	00c12583          	lw	a1,12(sp)
    3c40:	00051e63          	bnez	a0,3c5c <__smakebuf_r+0x8c>
    3c44:	2007f713          	andi	a4,a5,512
    3c48:	fa071ee3          	bnez	a4,3c04 <__smakebuf_r+0x34>
    3c4c:	ffc7f793          	andi	a5,a5,-4
    3c50:	0027e793          	ori	a5,a5,2
    3c54:	00f41623          	sh	a5,12(s0)
    3c58:	f99ff06f          	j	3bf0 <__smakebuf_r+0x20>
    3c5c:	0807e793          	ori	a5,a5,128
    3c60:	00f41623          	sh	a5,12(s0)
    3c64:	01c12783          	lw	a5,28(sp)
    3c68:	00a42023          	sw	a0,0(s0)
    3c6c:	00a42823          	sw	a0,16(s0)
    3c70:	00b42a23          	sw	a1,20(s0)
    3c74:	f80788e3          	beqz	a5,3c04 <__smakebuf_r+0x34>
    3c78:	00e41583          	lh	a1,14(s0)
    3c7c:	00048513          	mv	a0,s1
    3c80:	068000ef          	jal	3ce8 <_isatty_r>
    3c84:	f80500e3          	beqz	a0,3c04 <__smakebuf_r+0x34>
    3c88:	00c45783          	lhu	a5,12(s0)
    3c8c:	ffc7f793          	andi	a5,a5,-4
    3c90:	0017e793          	ori	a5,a5,1
    3c94:	00f41623          	sh	a5,12(s0)
    3c98:	f6dff06f          	j	3c04 <__smakebuf_r+0x34>

00003c9c <_fstat_r>:
    3c9c:	ff010113          	addi	sp,sp,-16
    3ca0:	00812423          	sw	s0,8(sp)
    3ca4:	00912223          	sw	s1,4(sp)
    3ca8:	00050493          	mv	s1,a0
    3cac:	00058513          	mv	a0,a1
    3cb0:	00060593          	mv	a1,a2
    3cb4:	00112623          	sw	ra,12(sp)
    3cb8:	9801a823          	sw	zero,-1648(gp) # 20ccc <errno>
    3cbc:	94cfe0ef          	jal	1e08 <_fstat>
    3cc0:	fff00793          	li	a5,-1
    3cc4:	00f51863          	bne	a0,a5,3cd4 <_fstat_r+0x38>
    3cc8:	9901a783          	lw	a5,-1648(gp) # 20ccc <errno>
    3ccc:	00078463          	beqz	a5,3cd4 <_fstat_r+0x38>
    3cd0:	00f4a023          	sw	a5,0(s1)
    3cd4:	00c12083          	lw	ra,12(sp)
    3cd8:	00812403          	lw	s0,8(sp)
    3cdc:	00412483          	lw	s1,4(sp)
    3ce0:	01010113          	addi	sp,sp,16
    3ce4:	00008067          	ret

00003ce8 <_isatty_r>:
    3ce8:	ff010113          	addi	sp,sp,-16
    3cec:	00812423          	sw	s0,8(sp)
    3cf0:	00912223          	sw	s1,4(sp)
    3cf4:	00050493          	mv	s1,a0
    3cf8:	00058513          	mv	a0,a1
    3cfc:	00112623          	sw	ra,12(sp)
    3d00:	9801a823          	sw	zero,-1648(gp) # 20ccc <errno>
    3d04:	914fe0ef          	jal	1e18 <_isatty>
    3d08:	fff00793          	li	a5,-1
    3d0c:	00f51863          	bne	a0,a5,3d1c <_isatty_r+0x34>
    3d10:	9901a783          	lw	a5,-1648(gp) # 20ccc <errno>
    3d14:	00078463          	beqz	a5,3d1c <_isatty_r+0x34>
    3d18:	00f4a023          	sw	a5,0(s1)
    3d1c:	00c12083          	lw	ra,12(sp)
    3d20:	00812403          	lw	s0,8(sp)
    3d24:	00412483          	lw	s1,4(sp)
    3d28:	01010113          	addi	sp,sp,16
    3d2c:	00008067          	ret

00003d30 <memchr>:
    3d30:	0ff5f593          	zext.b	a1,a1
    3d34:	00c50633          	add	a2,a0,a2
    3d38:	00c51663          	bne	a0,a2,3d44 <memchr+0x14>
    3d3c:	00000513          	li	a0,0
    3d40:	00008067          	ret
    3d44:	00054783          	lbu	a5,0(a0)
    3d48:	feb78ce3          	beq	a5,a1,3d40 <memchr+0x10>
    3d4c:	00150513          	addi	a0,a0,1
    3d50:	fe9ff06f          	j	3d38 <memchr+0x8>

00003d54 <sqrt>:
    3d54:	fe010113          	addi	sp,sp,-32
    3d58:	00812c23          	sw	s0,24(sp)
    3d5c:	00912a23          	sw	s1,20(sp)
    3d60:	01212823          	sw	s2,16(sp)
    3d64:	01312623          	sw	s3,12(sp)
    3d68:	00050913          	mv	s2,a0
    3d6c:	00058993          	mv	s3,a1
    3d70:	00112e23          	sw	ra,28(sp)
    3d74:	088000ef          	jal	3dfc <__ieee754_sqrt>
    3d78:	00050493          	mv	s1,a0
    3d7c:	00058413          	mv	s0,a1
    3d80:	00090613          	mv	a2,s2
    3d84:	00098693          	mv	a3,s3
    3d88:	00090513          	mv	a0,s2
    3d8c:	00098593          	mv	a1,s3
    3d90:	6d5010ef          	jal	5c64 <__unorddf2>
    3d94:	04051263          	bnez	a0,3dd8 <sqrt+0x84>
    3d98:	00000613          	li	a2,0
    3d9c:	00000693          	li	a3,0
    3da0:	00090513          	mv	a0,s2
    3da4:	00098593          	mv	a1,s3
    3da8:	751010ef          	jal	5cf8 <__ledf2>
    3dac:	02055663          	bgez	a0,3dd8 <sqrt+0x84>
    3db0:	c18ff0ef          	jal	31c8 <__errno>
    3db4:	02100793          	li	a5,33
    3db8:	00000613          	li	a2,0
    3dbc:	00000693          	li	a3,0
    3dc0:	00f52023          	sw	a5,0(a0)
    3dc4:	00068593          	mv	a1,a3
    3dc8:	00060513          	mv	a0,a2
    3dcc:	255000ef          	jal	4820 <__divdf3>
    3dd0:	00050493          	mv	s1,a0
    3dd4:	00058413          	mv	s0,a1
    3dd8:	01c12083          	lw	ra,28(sp)
    3ddc:	00040593          	mv	a1,s0
    3de0:	01812403          	lw	s0,24(sp)
    3de4:	01012903          	lw	s2,16(sp)
    3de8:	00c12983          	lw	s3,12(sp)
    3dec:	00048513          	mv	a0,s1
    3df0:	01412483          	lw	s1,20(sp)
    3df4:	02010113          	addi	sp,sp,32
    3df8:	00008067          	ret

00003dfc <__ieee754_sqrt>:
    3dfc:	fd010113          	addi	sp,sp,-48
    3e00:	7ff007b7          	lui	a5,0x7ff00
    3e04:	02812423          	sw	s0,40(sp)
    3e08:	02912223          	sw	s1,36(sp)
    3e0c:	02112623          	sw	ra,44(sp)
    3e10:	03212023          	sw	s2,32(sp)
    3e14:	01312e23          	sw	s3,28(sp)
    3e18:	01412c23          	sw	s4,24(sp)
    3e1c:	01512a23          	sw	s5,20(sp)
    3e20:	01612823          	sw	s6,16(sp)
    3e24:	01712623          	sw	s7,12(sp)
    3e28:	00b7f733          	and	a4,a5,a1
    3e2c:	00050493          	mv	s1,a0
    3e30:	00058413          	mv	s0,a1
    3e34:	06f71063          	bne	a4,a5,3e94 <__ieee754_sqrt+0x98>
    3e38:	00050613          	mv	a2,a0
    3e3c:	00058693          	mv	a3,a1
    3e40:	0e0010ef          	jal	4f20 <__muldf3>
    3e44:	00050613          	mv	a2,a0
    3e48:	00058693          	mv	a3,a1
    3e4c:	00048513          	mv	a0,s1
    3e50:	00040593          	mv	a1,s0
    3e54:	280000ef          	jal	40d4 <__adddf3>
    3e58:	00050493          	mv	s1,a0
    3e5c:	00058413          	mv	s0,a1
    3e60:	02c12083          	lw	ra,44(sp)
    3e64:	00040593          	mv	a1,s0
    3e68:	02812403          	lw	s0,40(sp)
    3e6c:	02012903          	lw	s2,32(sp)
    3e70:	01c12983          	lw	s3,28(sp)
    3e74:	01812a03          	lw	s4,24(sp)
    3e78:	01412a83          	lw	s5,20(sp)
    3e7c:	01012b03          	lw	s6,16(sp)
    3e80:	00c12b83          	lw	s7,12(sp)
    3e84:	00048513          	mv	a0,s1
    3e88:	02412483          	lw	s1,36(sp)
    3e8c:	03010113          	addi	sp,sp,48
    3e90:	00008067          	ret
    3e94:	00058713          	mv	a4,a1
    3e98:	00050793          	mv	a5,a0
    3e9c:	02b04c63          	bgtz	a1,3ed4 <__ieee754_sqrt+0xd8>
    3ea0:	00159693          	slli	a3,a1,0x1
    3ea4:	0016d693          	srli	a3,a3,0x1
    3ea8:	00a6e6b3          	or	a3,a3,a0
    3eac:	fa068ae3          	beqz	a3,3e60 <__ieee754_sqrt+0x64>
    3eb0:	00000693          	li	a3,0
    3eb4:	02058e63          	beqz	a1,3ef0 <__ieee754_sqrt+0xf4>
    3eb8:	00050613          	mv	a2,a0
    3ebc:	00058693          	mv	a3,a1
    3ec0:	648010ef          	jal	5508 <__subdf3>
    3ec4:	00050613          	mv	a2,a0
    3ec8:	00058693          	mv	a3,a1
    3ecc:	155000ef          	jal	4820 <__divdf3>
    3ed0:	f89ff06f          	j	3e58 <__ieee754_sqrt+0x5c>
    3ed4:	4145d693          	srai	a3,a1,0x14
    3ed8:	04069663          	bnez	a3,3f24 <__ieee754_sqrt+0x128>
    3edc:	00000613          	li	a2,0
    3ee0:	0200006f          	j	3f00 <__ieee754_sqrt+0x104>
    3ee4:	00b7d713          	srli	a4,a5,0xb
    3ee8:	feb68693          	addi	a3,a3,-21
    3eec:	01579793          	slli	a5,a5,0x15
    3ef0:	fe070ae3          	beqz	a4,3ee4 <__ieee754_sqrt+0xe8>
    3ef4:	fe9ff06f          	j	3edc <__ieee754_sqrt+0xe0>
    3ef8:	00171713          	slli	a4,a4,0x1
    3efc:	00160613          	addi	a2,a2,1
    3f00:	00b71593          	slli	a1,a4,0xb
    3f04:	fe05dae3          	bgez	a1,3ef8 <__ieee754_sqrt+0xfc>
    3f08:	fff60593          	addi	a1,a2,-1
    3f0c:	40b686b3          	sub	a3,a3,a1
    3f10:	02000593          	li	a1,32
    3f14:	40c585b3          	sub	a1,a1,a2
    3f18:	00b7d5b3          	srl	a1,a5,a1
    3f1c:	00b76733          	or	a4,a4,a1
    3f20:	00c797b3          	sll	a5,a5,a2
    3f24:	c0168613          	addi	a2,a3,-1023
    3f28:	00c71693          	slli	a3,a4,0xc
    3f2c:	00c6d693          	srli	a3,a3,0xc
    3f30:	00100737          	lui	a4,0x100
    3f34:	00e6e6b3          	or	a3,a3,a4
    3f38:	00167713          	andi	a4,a2,1
    3f3c:	00070a63          	beqz	a4,3f50 <__ieee754_sqrt+0x154>
    3f40:	01f7d713          	srli	a4,a5,0x1f
    3f44:	00169693          	slli	a3,a3,0x1
    3f48:	00d706b3          	add	a3,a4,a3
    3f4c:	00179793          	slli	a5,a5,0x1
    3f50:	01f7d713          	srli	a4,a5,0x1f
    3f54:	00169693          	slli	a3,a3,0x1
    3f58:	40165413          	srai	s0,a2,0x1
    3f5c:	00d70733          	add	a4,a4,a3
    3f60:	00179793          	slli	a5,a5,0x1
    3f64:	01600693          	li	a3,22
    3f68:	00000993          	li	s3,0
    3f6c:	00000613          	li	a2,0
    3f70:	002005b7          	lui	a1,0x200
    3f74:	00b60533          	add	a0,a2,a1
    3f78:	00a74863          	blt	a4,a0,3f88 <__ieee754_sqrt+0x18c>
    3f7c:	00b50633          	add	a2,a0,a1
    3f80:	40a70733          	sub	a4,a4,a0
    3f84:	00b989b3          	add	s3,s3,a1
    3f88:	01f7d513          	srli	a0,a5,0x1f
    3f8c:	00171713          	slli	a4,a4,0x1
    3f90:	fff68693          	addi	a3,a3,-1
    3f94:	00e50733          	add	a4,a0,a4
    3f98:	00179793          	slli	a5,a5,0x1
    3f9c:	0015d593          	srli	a1,a1,0x1
    3fa0:	fc069ae3          	bnez	a3,3f74 <__ieee754_sqrt+0x178>
    3fa4:	00000913          	li	s2,0
    3fa8:	02000a13          	li	s4,32
    3fac:	800005b7          	lui	a1,0x80000
    3fb0:	00d58833          	add	a6,a1,a3
    3fb4:	40c708b3          	sub	a7,a4,a2
    3fb8:	00e64663          	blt	a2,a4,3fc4 <__ieee754_sqrt+0x1c8>
    3fbc:	02089663          	bnez	a7,3fe8 <__ieee754_sqrt+0x1ec>
    3fc0:	0307e463          	bltu	a5,a6,3fe8 <__ieee754_sqrt+0x1ec>
    3fc4:	00b806b3          	add	a3,a6,a1
    3fc8:	fff6c513          	not	a0,a3
    3fcc:	01057533          	and	a0,a0,a6
    3fd0:	0107b733          	sltu	a4,a5,a6
    3fd4:	01f55513          	srli	a0,a0,0x1f
    3fd8:	40e88733          	sub	a4,a7,a4
    3fdc:	410787b3          	sub	a5,a5,a6
    3fe0:	00b90933          	add	s2,s2,a1
    3fe4:	00c50633          	add	a2,a0,a2
    3fe8:	01f7d513          	srli	a0,a5,0x1f
    3fec:	00171713          	slli	a4,a4,0x1
    3ff0:	fffa0a13          	addi	s4,s4,-1
    3ff4:	00e50733          	add	a4,a0,a4
    3ff8:	00179793          	slli	a5,a5,0x1
    3ffc:	0015d593          	srli	a1,a1,0x1
    4000:	fa0a18e3          	bnez	s4,3fb0 <__ieee754_sqrt+0x1b4>
    4004:	00f76733          	or	a4,a4,a5
    4008:	04070063          	beqz	a4,4048 <__heap_size+0x48>
    400c:	97c1a503          	lw	a0,-1668(gp) # 20cb8 <one>
    4010:	9801a583          	lw	a1,-1664(gp) # 20cbc <one+0x4>
    4014:	9741a603          	lw	a2,-1676(gp) # 20cb0 <tiny>
    4018:	9781a683          	lw	a3,-1672(gp) # 20cb4 <tiny+0x4>
    401c:	97c1a783          	lw	a5,-1668(gp) # 20cb8 <one>
    4020:	9801a803          	lw	a6,-1664(gp) # 20cbc <one+0x4>
    4024:	00078b13          	mv	s6,a5
    4028:	00080b93          	mv	s7,a6
    402c:	4dc010ef          	jal	5508 <__subdf3>
    4030:	00050613          	mv	a2,a0
    4034:	00058693          	mv	a3,a1
    4038:	000b0513          	mv	a0,s6
    403c:	000b8593          	mv	a1,s7
    4040:	4b9010ef          	jal	5cf8 <__ledf2>
    4044:	02a05663          	blez	a0,4070 <__heap_size+0x70>
    4048:	00090a13          	mv	s4,s2
    404c:	3fe007b7          	lui	a5,0x3fe00
    4050:	4019d593          	srai	a1,s3,0x1
    4054:	00f585b3          	add	a1,a1,a5
    4058:	01441613          	slli	a2,s0,0x14
    405c:	01f99793          	slli	a5,s3,0x1f
    4060:	001a5713          	srli	a4,s4,0x1
    4064:	00e7e4b3          	or	s1,a5,a4
    4068:	00b60433          	add	s0,a2,a1
    406c:	df5ff06f          	j	3e60 <__ieee754_sqrt+0x64>
    4070:	97c1a503          	lw	a0,-1668(gp) # 20cb8 <one>
    4074:	9801a583          	lw	a1,-1664(gp) # 20cbc <one+0x4>
    4078:	9741a603          	lw	a2,-1676(gp) # 20cb0 <tiny>
    407c:	9781a683          	lw	a3,-1672(gp) # 20cb4 <tiny+0x4>
    4080:	fff00793          	li	a5,-1
    4084:	00f91663          	bne	s2,a5,4090 <__heap_size+0x90>
    4088:	00198993          	addi	s3,s3,1
    408c:	fc1ff06f          	j	404c <__heap_size+0x4c>
    4090:	97c1aa03          	lw	s4,-1668(gp) # 20cb8 <one>
    4094:	9801aa83          	lw	s5,-1664(gp) # 20cbc <one+0x4>
    4098:	03c000ef          	jal	40d4 <__adddf3>
    409c:	00050613          	mv	a2,a0
    40a0:	00058693          	mv	a3,a1
    40a4:	000a0513          	mv	a0,s4
    40a8:	000a8593          	mv	a1,s5
    40ac:	44d010ef          	jal	5cf8 <__ledf2>
    40b0:	00055c63          	bgez	a0,40c8 <__heap_size+0xc8>
    40b4:	00290713          	addi	a4,s2,2
    40b8:	00173793          	seqz	a5,a4
    40bc:	00f989b3          	add	s3,s3,a5
    40c0:	00070a13          	mv	s4,a4
    40c4:	f89ff06f          	j	404c <__heap_size+0x4c>
    40c8:	00190713          	addi	a4,s2,1
    40cc:	ffe77a13          	andi	s4,a4,-2
    40d0:	f7dff06f          	j	404c <__heap_size+0x4c>

000040d4 <__adddf3>:
    40d4:	00c59793          	slli	a5,a1,0xc
    40d8:	fe010113          	addi	sp,sp,-32
    40dc:	01d55713          	srli	a4,a0,0x1d
    40e0:	0097d793          	srli	a5,a5,0x9
    40e4:	0146d893          	srli	a7,a3,0x14
    40e8:	00812c23          	sw	s0,24(sp)
    40ec:	00f767b3          	or	a5,a4,a5
    40f0:	0145d413          	srli	s0,a1,0x14
    40f4:	00c69713          	slli	a4,a3,0xc
    40f8:	00912a23          	sw	s1,20(sp)
    40fc:	7ff47413          	andi	s0,s0,2047
    4100:	01f5d493          	srli	s1,a1,0x1f
    4104:	7ff8f893          	andi	a7,a7,2047
    4108:	01d65593          	srli	a1,a2,0x1d
    410c:	00975713          	srli	a4,a4,0x9
    4110:	00112e23          	sw	ra,28(sp)
    4114:	01212823          	sw	s2,16(sp)
    4118:	01312623          	sw	s3,12(sp)
    411c:	01f6d693          	srli	a3,a3,0x1f
    4120:	00351513          	slli	a0,a0,0x3
    4124:	00e5e733          	or	a4,a1,a4
    4128:	00361613          	slli	a2,a2,0x3
    412c:	41140833          	sub	a6,s0,a7
    4130:	7ff00313          	li	t1,2047
    4134:	30d49663          	bne	s1,a3,4440 <TPG.c.3393d56f+0x29d>
    4138:	17005663          	blez	a6,42a4 <TPG.c.3393d56f+0x101>
    413c:	0a089063          	bnez	a7,41dc <TPG.c.3393d56f+0x39>
    4140:	00c766b3          	or	a3,a4,a2
    4144:	02068463          	beqz	a3,416c <__adddf3+0x98>
    4148:	fff40813          	addi	a6,s0,-1
    414c:	00081e63          	bnez	a6,4168 <__adddf3+0x94>
    4150:	00c50633          	add	a2,a0,a2
    4154:	00e787b3          	add	a5,a5,a4
    4158:	00a63533          	sltu	a0,a2,a0
    415c:	00a78733          	add	a4,a5,a0
    4160:	00100413          	li	s0,1
    4164:	0c80006f          	j	422c <TPG.c.3393d56f+0x89>
    4168:	08641063          	bne	s0,t1,41e8 <TPG.c.3393d56f+0x45>
    416c:	01d79713          	slli	a4,a5,0x1d
    4170:	00355513          	srli	a0,a0,0x3
    4174:	7ff00693          	li	a3,2047
    4178:	00a76733          	or	a4,a4,a0
    417c:	0037d793          	srli	a5,a5,0x3
    4180:	00d41e63          	bne	s0,a3,419c <__adddf3+0xc8>
    4184:	00f76733          	or	a4,a4,a5
    4188:	00000793          	li	a5,0
    418c:	00070863          	beqz	a4,419c <__adddf3+0xc8>
    4190:	000807b7          	lui	a5,0x80
    4194:	00000713          	li	a4,0
    4198:	00000493          	li	s1,0
    419c:	7ff47413          	andi	s0,s0,2047
    41a0:	00c79793          	slli	a5,a5,0xc
    41a4:	00c7d793          	srli	a5,a5,0xc
    41a8:	01441413          	slli	s0,s0,0x14
    41ac:	01f49593          	slli	a1,s1,0x1f
    41b0:	00f46433          	or	s0,s0,a5
    41b4:	01c12083          	lw	ra,28(sp)
    41b8:	00b467b3          	or	a5,s0,a1
    41bc:	01812403          	lw	s0,24(sp)
    41c0:	01412483          	lw	s1,20(sp)
    41c4:	01012903          	lw	s2,16(sp)
    41c8:	00c12983          	lw	s3,12(sp)
    41cc:	00070513          	mv	a0,a4
    41d0:	00078593          	mv	a1,a5
    41d4:	02010113          	addi	sp,sp,32
    41d8:	00008067          	ret
    41dc:	28640c63          	beq	s0,t1,4474 <TPG.c.3393d56f+0x2d1>
    41e0:	008006b7          	lui	a3,0x800
    41e4:	00d76733          	or	a4,a4,a3
    41e8:	03800693          	li	a3,56
    41ec:	0b06c663          	blt	a3,a6,4298 <TPG.c.3393d56f+0xf5>
    41f0:	01f00693          	li	a3,31
    41f4:	02000893          	li	a7,32
    41f8:	0706c863          	blt	a3,a6,4268 <TPG.c.3393d56f+0xc5>
    41fc:	410888b3          	sub	a7,a7,a6
    4200:	011716b3          	sll	a3,a4,a7
    4204:	010655b3          	srl	a1,a2,a6
    4208:	011618b3          	sll	a7,a2,a7
    420c:	00b6e6b3          	or	a3,a3,a1
    4210:	011038b3          	snez	a7,a7
    4214:	0116e6b3          	or	a3,a3,a7
    4218:	01075833          	srl	a6,a4,a6
    421c:	00a68633          	add	a2,a3,a0
    4220:	00f80833          	add	a6,a6,a5
    4224:	00d636b3          	sltu	a3,a2,a3
    4228:	00d80733          	add	a4,a6,a3
    422c:	00871793          	slli	a5,a4,0x8
    4230:	1c07de63          	bgez	a5,440c <TPG.c.3393d56f+0x269>
    4234:	00140413          	addi	s0,s0,1
    4238:	7ff00793          	li	a5,2047
    423c:	5af40c63          	beq	s0,a5,47f4 <TPG.c.3393d56f+0x651>
    4240:	ff8007b7          	lui	a5,0xff800
    4244:	fff78793          	addi	a5,a5,-1 # ff7fffff <_sp+0xff7d70df>
    4248:	00f777b3          	and	a5,a4,a5
    424c:	00165713          	srli	a4,a2,0x1
    4250:	00167613          	andi	a2,a2,1
    4254:	00c76733          	or	a4,a4,a2
    4258:	01f79613          	slli	a2,a5,0x1f
    425c:	00e66633          	or	a2,a2,a4
    4260:	0017d713          	srli	a4,a5,0x1
    4264:	1a80006f          	j	440c <TPG.c.3393d56f+0x269>
    4268:	fe080693          	addi	a3,a6,-32
    426c:	00d756b3          	srl	a3,a4,a3
    4270:	00000593          	li	a1,0
    4274:	01180863          	beq	a6,a7,4284 <TPG.c.3393d56f+0xe1>
    4278:	04000593          	li	a1,64
    427c:	410585b3          	sub	a1,a1,a6
    4280:	00b715b3          	sll	a1,a4,a1
    4284:	00c5e5b3          	or	a1,a1,a2
    4288:	00b035b3          	snez	a1,a1
    428c:	00b6e6b3          	or	a3,a3,a1
    4290:	00000813          	li	a6,0
    4294:	f89ff06f          	j	421c <TPG.c.3393d56f+0x79>
    4298:	00c766b3          	or	a3,a4,a2
    429c:	00d036b3          	snez	a3,a3
    42a0:	ff1ff06f          	j	4290 <TPG.c.3393d56f+0xed>
    42a4:	0c080663          	beqz	a6,4370 <TPG.c.3393d56f+0x1cd>
    42a8:	408886b3          	sub	a3,a7,s0
    42ac:	06041a63          	bnez	s0,4320 <TPG.c.3393d56f+0x17d>
    42b0:	00a7e5b3          	or	a1,a5,a0
    42b4:	00059a63          	bnez	a1,42c8 <TPG.c.3393d56f+0x125>
    42b8:	00070793          	mv	a5,a4
    42bc:	00060513          	mv	a0,a2
    42c0:	00068413          	mv	s0,a3
    42c4:	ea9ff06f          	j	416c <__adddf3+0x98>
    42c8:	fff68593          	addi	a1,a3,-1 # 7fffff <_sp+0x7d70df>
    42cc:	e80582e3          	beqz	a1,4150 <__adddf3+0x7c>
    42d0:	fe6684e3          	beq	a3,t1,42b8 <TPG.c.3393d56f+0x115>
    42d4:	03800693          	li	a3,56
    42d8:	08b6c663          	blt	a3,a1,4364 <TPG.c.3393d56f+0x1c1>
    42dc:	01f00693          	li	a3,31
    42e0:	02000313          	li	t1,32
    42e4:	04b6c863          	blt	a3,a1,4334 <TPG.c.3393d56f+0x191>
    42e8:	40b30333          	sub	t1,t1,a1
    42ec:	006796b3          	sll	a3,a5,t1
    42f0:	00b55833          	srl	a6,a0,a1
    42f4:	00651333          	sll	t1,a0,t1
    42f8:	0106e6b3          	or	a3,a3,a6
    42fc:	00603333          	snez	t1,t1
    4300:	0066e6b3          	or	a3,a3,t1
    4304:	00b7d5b3          	srl	a1,a5,a1
    4308:	00c68633          	add	a2,a3,a2
    430c:	00e585b3          	add	a1,a1,a4
    4310:	00d636b3          	sltu	a3,a2,a3
    4314:	00d58733          	add	a4,a1,a3
    4318:	00088413          	mv	s0,a7
    431c:	f11ff06f          	j	422c <TPG.c.3393d56f+0x89>
    4320:	4e688a63          	beq	a7,t1,4814 <TPG.c.3393d56f+0x671>
    4324:	008005b7          	lui	a1,0x800
    4328:	00b7e7b3          	or	a5,a5,a1
    432c:	00068593          	mv	a1,a3
    4330:	fa5ff06f          	j	42d4 <TPG.c.3393d56f+0x131>
    4334:	fe058693          	addi	a3,a1,-32 # 7fffe0 <_sp+0x7d70c0>
    4338:	00d7d6b3          	srl	a3,a5,a3
    433c:	00000813          	li	a6,0
    4340:	00658863          	beq	a1,t1,4350 <TPG.c.3393d56f+0x1ad>
    4344:	04000813          	li	a6,64
    4348:	40b80833          	sub	a6,a6,a1
    434c:	01079833          	sll	a6,a5,a6
    4350:	00a86833          	or	a6,a6,a0
    4354:	01003833          	snez	a6,a6
    4358:	0106e6b3          	or	a3,a3,a6
    435c:	00000593          	li	a1,0
    4360:	fa9ff06f          	j	4308 <TPG.c.3393d56f+0x165>
    4364:	00a7e6b3          	or	a3,a5,a0
    4368:	00d036b3          	snez	a3,a3
    436c:	ff1ff06f          	j	435c <TPG.c.3393d56f+0x1b9>
    4370:	00140693          	addi	a3,s0,1
    4374:	7fe6f593          	andi	a1,a3,2046
    4378:	06059663          	bnez	a1,43e4 <TPG.c.3393d56f+0x241>
    437c:	00a7e6b3          	or	a3,a5,a0
    4380:	04041263          	bnez	s0,43c4 <TPG.c.3393d56f+0x221>
    4384:	2a068a63          	beqz	a3,4638 <TPG.c.3393d56f+0x495>
    4388:	00c766b3          	or	a3,a4,a2
    438c:	42068e63          	beqz	a3,47c8 <TPG.c.3393d56f+0x625>
    4390:	00c506b3          	add	a3,a0,a2
    4394:	00e787b3          	add	a5,a5,a4
    4398:	00a6b533          	sltu	a0,a3,a0
    439c:	00a78733          	add	a4,a5,a0
    43a0:	00871793          	slli	a5,a4,0x8
    43a4:	00068613          	mv	a2,a3
    43a8:	2807d863          	bgez	a5,4638 <TPG.c.3393d56f+0x495>
    43ac:	ff8007b7          	lui	a5,0xff800
    43b0:	fff78793          	addi	a5,a5,-1 # ff7fffff <_sp+0xff7d70df>
    43b4:	00f777b3          	and	a5,a4,a5
    43b8:	00068513          	mv	a0,a3
    43bc:	00100413          	li	s0,1
    43c0:	dadff06f          	j	416c <__adddf3+0x98>
    43c4:	44068863          	beqz	a3,4814 <TPG.c.3393d56f+0x671>
    43c8:	00c76733          	or	a4,a4,a2
    43cc:	00030413          	mv	s0,t1
    43d0:	d8070ee3          	beqz	a4,416c <__adddf3+0x98>
    43d4:	00000493          	li	s1,0
    43d8:	004007b7          	lui	a5,0x400
    43dc:	00000513          	li	a0,0
    43e0:	d8dff06f          	j	416c <__adddf3+0x98>
    43e4:	40668663          	beq	a3,t1,47f0 <TPG.c.3393d56f+0x64d>
    43e8:	00c50633          	add	a2,a0,a2
    43ec:	00e787b3          	add	a5,a5,a4
    43f0:	00a63533          	sltu	a0,a2,a0
    43f4:	00a787b3          	add	a5,a5,a0
    43f8:	01f79713          	slli	a4,a5,0x1f
    43fc:	00165613          	srli	a2,a2,0x1
    4400:	00c76633          	or	a2,a4,a2
    4404:	00068413          	mv	s0,a3
    4408:	0017d713          	srli	a4,a5,0x1
    440c:	00767793          	andi	a5,a2,7
    4410:	3c079263          	bnez	a5,47d4 <TPG.c.3393d56f+0x631>
    4414:	00070793          	mv	a5,a4
    4418:	00060513          	mv	a0,a2
    441c:	00879713          	slli	a4,a5,0x8
    4420:	d40756e3          	bgez	a4,416c <__adddf3+0x98>
    4424:	00140413          	addi	s0,s0,1
    4428:	7ff00713          	li	a4,2047
    442c:	3ce40463          	beq	s0,a4,47f4 <TPG.c.3393d56f+0x651>
    4430:	ff800737          	lui	a4,0xff800
    4434:	fff70713          	addi	a4,a4,-1 # ff7fffff <_sp+0xff7d70df>
    4438:	00e7f7b3          	and	a5,a5,a4
    443c:	d31ff06f          	j	416c <__adddf3+0x98>
    4440:	0f005063          	blez	a6,4520 <TPG.c.3393d56f+0x37d>
    4444:	02089c63          	bnez	a7,447c <TPG.c.3393d56f+0x2d9>
    4448:	00c766b3          	or	a3,a4,a2
    444c:	d20680e3          	beqz	a3,416c <__adddf3+0x98>
    4450:	fff40813          	addi	a6,s0,-1
    4454:	00081e63          	bnez	a6,4470 <TPG.c.3393d56f+0x2cd>
    4458:	40c50633          	sub	a2,a0,a2
    445c:	40e787b3          	sub	a5,a5,a4
    4460:	00c53533          	sltu	a0,a0,a2
    4464:	40a78733          	sub	a4,a5,a0
    4468:	00100413          	li	s0,1
    446c:	0600006f          	j	44cc <TPG.c.3393d56f+0x329>
    4470:	00641c63          	bne	s0,t1,4488 <TPG.c.3393d56f+0x2e5>
    4474:	7ff00413          	li	s0,2047
    4478:	cf5ff06f          	j	416c <__adddf3+0x98>
    447c:	ce6408e3          	beq	s0,t1,416c <__adddf3+0x98>
    4480:	008006b7          	lui	a3,0x800
    4484:	00d76733          	or	a4,a4,a3
    4488:	03800693          	li	a3,56
    448c:	0906c463          	blt	a3,a6,4514 <TPG.c.3393d56f+0x371>
    4490:	01f00693          	li	a3,31
    4494:	02000893          	li	a7,32
    4498:	0506c663          	blt	a3,a6,44e4 <TPG.c.3393d56f+0x341>
    449c:	410888b3          	sub	a7,a7,a6
    44a0:	011716b3          	sll	a3,a4,a7
    44a4:	010655b3          	srl	a1,a2,a6
    44a8:	011618b3          	sll	a7,a2,a7
    44ac:	00b6e6b3          	or	a3,a3,a1
    44b0:	011038b3          	snez	a7,a7
    44b4:	0116e6b3          	or	a3,a3,a7
    44b8:	01075833          	srl	a6,a4,a6
    44bc:	40d50633          	sub	a2,a0,a3
    44c0:	41078833          	sub	a6,a5,a6
    44c4:	00c53533          	sltu	a0,a0,a2
    44c8:	40a80733          	sub	a4,a6,a0
    44cc:	00871793          	slli	a5,a4,0x8
    44d0:	f207dee3          	bgez	a5,440c <TPG.c.3393d56f+0x269>
    44d4:	00971913          	slli	s2,a4,0x9
    44d8:	00995913          	srli	s2,s2,0x9
    44dc:	00060993          	mv	s3,a2
    44e0:	2040006f          	j	46e4 <TPG.c.3393d56f+0x541>
    44e4:	fe080693          	addi	a3,a6,-32
    44e8:	00d756b3          	srl	a3,a4,a3
    44ec:	00000593          	li	a1,0
    44f0:	01180863          	beq	a6,a7,4500 <TPG.c.3393d56f+0x35d>
    44f4:	04000593          	li	a1,64
    44f8:	410585b3          	sub	a1,a1,a6
    44fc:	00b715b3          	sll	a1,a4,a1
    4500:	00c5e5b3          	or	a1,a1,a2
    4504:	00b035b3          	snez	a1,a1
    4508:	00b6e6b3          	or	a3,a3,a1
    450c:	00000813          	li	a6,0
    4510:	fadff06f          	j	44bc <TPG.c.3393d56f+0x319>
    4514:	00c766b3          	or	a3,a4,a2
    4518:	00d036b3          	snez	a3,a3
    451c:	ff1ff06f          	j	450c <TPG.c.3393d56f+0x369>
    4520:	0e080a63          	beqz	a6,4614 <TPG.c.3393d56f+0x471>
    4524:	40888833          	sub	a6,a7,s0
    4528:	08041e63          	bnez	s0,45c4 <TPG.c.3393d56f+0x421>
    452c:	00a7e5b3          	or	a1,a5,a0
    4530:	00059c63          	bnez	a1,4548 <TPG.c.3393d56f+0x3a5>
    4534:	00068493          	mv	s1,a3
    4538:	00070793          	mv	a5,a4
    453c:	00060513          	mv	a0,a2
    4540:	00080413          	mv	s0,a6
    4544:	c29ff06f          	j	416c <__adddf3+0x98>
    4548:	fff80593          	addi	a1,a6,-1
    454c:	02059063          	bnez	a1,456c <TPG.c.3393d56f+0x3c9>
    4550:	40a60533          	sub	a0,a2,a0
    4554:	00a635b3          	sltu	a1,a2,a0
    4558:	40f707b3          	sub	a5,a4,a5
    455c:	00050613          	mv	a2,a0
    4560:	40b78733          	sub	a4,a5,a1
    4564:	00068493          	mv	s1,a3
    4568:	f01ff06f          	j	4468 <TPG.c.3393d56f+0x2c5>
    456c:	fc6804e3          	beq	a6,t1,4534 <TPG.c.3393d56f+0x391>
    4570:	03800813          	li	a6,56
    4574:	08b84a63          	blt	a6,a1,4608 <TPG.c.3393d56f+0x465>
    4578:	01f00813          	li	a6,31
    457c:	02000e13          	li	t3,32
    4580:	04b84c63          	blt	a6,a1,45d8 <TPG.c.3393d56f+0x435>
    4584:	40be0e33          	sub	t3,t3,a1
    4588:	00b55333          	srl	t1,a0,a1
    458c:	01c79833          	sll	a6,a5,t3
    4590:	01c51e33          	sll	t3,a0,t3
    4594:	00686833          	or	a6,a6,t1
    4598:	01c03e33          	snez	t3,t3
    459c:	01c86533          	or	a0,a6,t3
    45a0:	00b7d5b3          	srl	a1,a5,a1
    45a4:	40a60533          	sub	a0,a2,a0
    45a8:	00a637b3          	sltu	a5,a2,a0
    45ac:	40b705b3          	sub	a1,a4,a1
    45b0:	00050613          	mv	a2,a0
    45b4:	40f58733          	sub	a4,a1,a5
    45b8:	00088413          	mv	s0,a7
    45bc:	00068493          	mv	s1,a3
    45c0:	f0dff06f          	j	44cc <TPG.c.3393d56f+0x329>
    45c4:	24688663          	beq	a7,t1,4810 <TPG.c.3393d56f+0x66d>
    45c8:	008005b7          	lui	a1,0x800
    45cc:	00b7e7b3          	or	a5,a5,a1
    45d0:	00080593          	mv	a1,a6
    45d4:	f9dff06f          	j	4570 <TPG.c.3393d56f+0x3cd>
    45d8:	fe058813          	addi	a6,a1,-32 # 7fffe0 <_sp+0x7d70c0>
    45dc:	0107d833          	srl	a6,a5,a6
    45e0:	00000313          	li	t1,0
    45e4:	01c58863          	beq	a1,t3,45f4 <TPG.c.3393d56f+0x451>
    45e8:	04000313          	li	t1,64
    45ec:	40b30333          	sub	t1,t1,a1
    45f0:	00679333          	sll	t1,a5,t1
    45f4:	00a36333          	or	t1,t1,a0
    45f8:	00603333          	snez	t1,t1
    45fc:	00686533          	or	a0,a6,t1
    4600:	00000593          	li	a1,0
    4604:	fa1ff06f          	j	45a4 <TPG.c.3393d56f+0x401>
    4608:	00a7e533          	or	a0,a5,a0
    460c:	00a03533          	snez	a0,a0
    4610:	ff1ff06f          	j	4600 <TPG.c.3393d56f+0x45d>
    4614:	00140593          	addi	a1,s0,1
    4618:	7fe5f593          	andi	a1,a1,2046
    461c:	08059c63          	bnez	a1,46b4 <TPG.c.3393d56f+0x511>
    4620:	00a7e833          	or	a6,a5,a0
    4624:	00c765b3          	or	a1,a4,a2
    4628:	06041463          	bnez	s0,4690 <TPG.c.3393d56f+0x4ed>
    462c:	00081e63          	bnez	a6,4648 <TPG.c.3393d56f+0x4a5>
    4630:	1c058663          	beqz	a1,47fc <TPG.c.3393d56f+0x659>
    4634:	00068493          	mv	s1,a3
    4638:	00c76533          	or	a0,a4,a2
    463c:	10050c63          	beqz	a0,4754 <TPG.c.3393d56f+0x5b1>
    4640:	00000413          	li	s0,0
    4644:	dc9ff06f          	j	440c <TPG.c.3393d56f+0x269>
    4648:	18058063          	beqz	a1,47c8 <TPG.c.3393d56f+0x625>
    464c:	40c50833          	sub	a6,a0,a2
    4650:	010538b3          	sltu	a7,a0,a6
    4654:	40e785b3          	sub	a1,a5,a4
    4658:	411585b3          	sub	a1,a1,a7
    465c:	00859893          	slli	a7,a1,0x8
    4660:	0008de63          	bgez	a7,467c <TPG.c.3393d56f+0x4d9>
    4664:	40a60533          	sub	a0,a2,a0
    4668:	00a635b3          	sltu	a1,a2,a0
    466c:	40f707b3          	sub	a5,a4,a5
    4670:	00050613          	mv	a2,a0
    4674:	40b78733          	sub	a4,a5,a1
    4678:	fbdff06f          	j	4634 <TPG.c.3393d56f+0x491>
    467c:	00b86533          	or	a0,a6,a1
    4680:	18050263          	beqz	a0,4804 <TPG.c.3393d56f+0x661>
    4684:	00058713          	mv	a4,a1
    4688:	00080613          	mv	a2,a6
    468c:	fadff06f          	j	4638 <TPG.c.3393d56f+0x495>
    4690:	00081c63          	bnez	a6,46a8 <TPG.c.3393d56f+0x505>
    4694:	16059e63          	bnez	a1,4810 <TPG.c.3393d56f+0x66d>
    4698:	00000493          	li	s1,0
    469c:	00000513          	li	a0,0
    46a0:	004007b7          	lui	a5,0x400
    46a4:	dd1ff06f          	j	4474 <TPG.c.3393d56f+0x2d1>
    46a8:	00030413          	mv	s0,t1
    46ac:	ac0580e3          	beqz	a1,416c <__adddf3+0x98>
    46b0:	d25ff06f          	j	43d4 <TPG.c.3393d56f+0x231>
    46b4:	40c505b3          	sub	a1,a0,a2
    46b8:	00b53833          	sltu	a6,a0,a1
    46bc:	40e78933          	sub	s2,a5,a4
    46c0:	41090933          	sub	s2,s2,a6
    46c4:	00891813          	slli	a6,s2,0x8
    46c8:	00058993          	mv	s3,a1
    46cc:	06085e63          	bgez	a6,4748 <TPG.c.3393d56f+0x5a5>
    46d0:	40a609b3          	sub	s3,a2,a0
    46d4:	40f70933          	sub	s2,a4,a5
    46d8:	01363633          	sltu	a2,a2,s3
    46dc:	40c90933          	sub	s2,s2,a2
    46e0:	00068493          	mv	s1,a3
    46e4:	06090e63          	beqz	s2,4760 <TPG.c.3393d56f+0x5bd>
    46e8:	00090513          	mv	a0,s2
    46ec:	5c0010ef          	jal	5cac <__clzsi2>
    46f0:	ff850793          	addi	a5,a0,-8
    46f4:	02000713          	li	a4,32
    46f8:	40f70733          	sub	a4,a4,a5
    46fc:	00f91933          	sll	s2,s2,a5
    4700:	00e9d733          	srl	a4,s3,a4
    4704:	01276733          	or	a4,a4,s2
    4708:	00f99633          	sll	a2,s3,a5
    470c:	0a87c463          	blt	a5,s0,47b4 <TPG.c.3393d56f+0x611>
    4710:	408787b3          	sub	a5,a5,s0
    4714:	00178513          	addi	a0,a5,1 # 400001 <_sp+0x3d70e1>
    4718:	01f00693          	li	a3,31
    471c:	02000593          	li	a1,32
    4720:	06a6c263          	blt	a3,a0,4784 <TPG.c.3393d56f+0x5e1>
    4724:	40a585b3          	sub	a1,a1,a0
    4728:	00b717b3          	sll	a5,a4,a1
    472c:	00a656b3          	srl	a3,a2,a0
    4730:	00b615b3          	sll	a1,a2,a1
    4734:	00d7e7b3          	or	a5,a5,a3
    4738:	00b035b3          	snez	a1,a1
    473c:	00b7e633          	or	a2,a5,a1
    4740:	00a75733          	srl	a4,a4,a0
    4744:	ef5ff06f          	j	4638 <TPG.c.3393d56f+0x495>
    4748:	0125e533          	or	a0,a1,s2
    474c:	f8051ce3          	bnez	a0,46e4 <TPG.c.3393d56f+0x541>
    4750:	00000493          	li	s1,0
    4754:	00000793          	li	a5,0
    4758:	00000413          	li	s0,0
    475c:	a11ff06f          	j	416c <__adddf3+0x98>
    4760:	00098513          	mv	a0,s3
    4764:	548010ef          	jal	5cac <__clzsi2>
    4768:	01850793          	addi	a5,a0,24
    476c:	01f00713          	li	a4,31
    4770:	f8f752e3          	bge	a4,a5,46f4 <TPG.c.3393d56f+0x551>
    4774:	ff850713          	addi	a4,a0,-8
    4778:	00e99733          	sll	a4,s3,a4
    477c:	00000613          	li	a2,0
    4780:	f8dff06f          	j	470c <TPG.c.3393d56f+0x569>
    4784:	fe178793          	addi	a5,a5,-31
    4788:	00f757b3          	srl	a5,a4,a5
    478c:	00000693          	li	a3,0
    4790:	00b50863          	beq	a0,a1,47a0 <TPG.c.3393d56f+0x5fd>
    4794:	04000693          	li	a3,64
    4798:	40a686b3          	sub	a3,a3,a0
    479c:	00d716b3          	sll	a3,a4,a3
    47a0:	00d666b3          	or	a3,a2,a3
    47a4:	00d036b3          	snez	a3,a3
    47a8:	00d7e633          	or	a2,a5,a3
    47ac:	00000713          	li	a4,0
    47b0:	e89ff06f          	j	4638 <TPG.c.3393d56f+0x495>
    47b4:	40f40433          	sub	s0,s0,a5
    47b8:	ff8007b7          	lui	a5,0xff800
    47bc:	fff78793          	addi	a5,a5,-1 # ff7fffff <_sp+0xff7d70df>
    47c0:	00f77733          	and	a4,a4,a5
    47c4:	c49ff06f          	j	440c <TPG.c.3393d56f+0x269>
    47c8:	00078713          	mv	a4,a5
    47cc:	00050613          	mv	a2,a0
    47d0:	e69ff06f          	j	4638 <TPG.c.3393d56f+0x495>
    47d4:	00f67793          	andi	a5,a2,15
    47d8:	00400693          	li	a3,4
    47dc:	c2d78ce3          	beq	a5,a3,4414 <TPG.c.3393d56f+0x271>
    47e0:	00d60533          	add	a0,a2,a3
    47e4:	00c537b3          	sltu	a5,a0,a2
    47e8:	00e787b3          	add	a5,a5,a4
    47ec:	c31ff06f          	j	441c <TPG.c.3393d56f+0x279>
    47f0:	00068413          	mv	s0,a3
    47f4:	00000793          	li	a5,0
    47f8:	be5ff06f          	j	43dc <TPG.c.3393d56f+0x239>
    47fc:	00000493          	li	s1,0
    4800:	ff5ff06f          	j	47f4 <TPG.c.3393d56f+0x651>
    4804:	00000493          	li	s1,0
    4808:	00000793          	li	a5,0
    480c:	961ff06f          	j	416c <__adddf3+0x98>
    4810:	00068493          	mv	s1,a3
    4814:	00070793          	mv	a5,a4
    4818:	00060513          	mv	a0,a2
    481c:	c59ff06f          	j	4474 <TPG.c.3393d56f+0x2d1>

00004820 <__divdf3>:
    4820:	fd010113          	addi	sp,sp,-48
    4824:	01512a23          	sw	s5,20(sp)
    4828:	0145da93          	srli	s5,a1,0x14
    482c:	02812423          	sw	s0,40(sp)
    4830:	02912223          	sw	s1,36(sp)
    4834:	03212023          	sw	s2,32(sp)
    4838:	01312e23          	sw	s3,28(sp)
    483c:	01612823          	sw	s6,16(sp)
    4840:	01712623          	sw	s7,12(sp)
    4844:	00050b13          	mv	s6,a0
    4848:	00050413          	mv	s0,a0
    484c:	00c59493          	slli	s1,a1,0xc
    4850:	02112623          	sw	ra,44(sp)
    4854:	01412c23          	sw	s4,24(sp)
    4858:	7ffaf513          	andi	a0,s5,2047
    485c:	00060b93          	mv	s7,a2
    4860:	00068913          	mv	s2,a3
    4864:	00c4d493          	srli	s1,s1,0xc
    4868:	01f5d993          	srli	s3,a1,0x1f
    486c:	38050463          	beqz	a0,4bf4 <__divdf3+0x3d4>
    4870:	7ff00793          	li	a5,2047
    4874:	3ef50663          	beq	a0,a5,4c60 <__divdf3+0x440>
    4878:	01db5693          	srli	a3,s6,0x1d
    487c:	00349493          	slli	s1,s1,0x3
    4880:	0096e6b3          	or	a3,a3,s1
    4884:	008007b7          	lui	a5,0x800
    4888:	00f6ea33          	or	s4,a3,a5
    488c:	003b1413          	slli	s0,s6,0x3
    4890:	c0150a93          	addi	s5,a0,-1023
    4894:	00000b13          	li	s6,0
    4898:	01495713          	srli	a4,s2,0x14
    489c:	00c91493          	slli	s1,s2,0xc
    48a0:	7ff77713          	andi	a4,a4,2047
    48a4:	000b8893          	mv	a7,s7
    48a8:	00c4d493          	srli	s1,s1,0xc
    48ac:	01f95913          	srli	s2,s2,0x1f
    48b0:	3e070463          	beqz	a4,4c98 <__divdf3+0x478>
    48b4:	7ff00793          	li	a5,2047
    48b8:	44f70663          	beq	a4,a5,4d04 <__divdf3+0x4e4>
    48bc:	01dbd793          	srli	a5,s7,0x1d
    48c0:	00349493          	slli	s1,s1,0x3
    48c4:	00f4e4b3          	or	s1,s1,a5
    48c8:	008007b7          	lui	a5,0x800
    48cc:	00f4e7b3          	or	a5,s1,a5
    48d0:	003b9893          	slli	a7,s7,0x3
    48d4:	c0170713          	addi	a4,a4,-1023
    48d8:	00000693          	li	a3,0
    48dc:	40ea8533          	sub	a0,s5,a4
    48e0:	002b1713          	slli	a4,s6,0x2
    48e4:	00d76733          	or	a4,a4,a3
    48e8:	00700613          	li	a2,7
    48ec:	0129c833          	xor	a6,s3,s2
    48f0:	44e64263          	blt	a2,a4,4d34 <__divdf3+0x514>
    48f4:	00100613          	li	a2,1
    48f8:	60c70463          	beq	a4,a2,4f00 <__divdf3+0x6e0>
    48fc:	ffe70593          	addi	a1,a4,-2
    4900:	00500313          	li	t1,5
    4904:	44b37a63          	bgeu	t1,a1,4d58 <__divdf3+0x538>
    4908:	0147e663          	bltu	a5,s4,4914 <__divdf3+0xf4>
    490c:	4b146063          	bltu	s0,a7,4dac <__divdf3+0x58c>
    4910:	48fa1e63          	bne	s4,a5,4dac <__divdf3+0x58c>
    4914:	01fa1693          	slli	a3,s4,0x1f
    4918:	00145713          	srli	a4,s0,0x1
    491c:	01f41293          	slli	t0,s0,0x1f
    4920:	001a5a13          	srli	s4,s4,0x1
    4924:	00e6e433          	or	s0,a3,a4
    4928:	00879e13          	slli	t3,a5,0x8
    492c:	0188d613          	srli	a2,a7,0x18
    4930:	01c66633          	or	a2,a2,t3
    4934:	010e5e13          	srli	t3,t3,0x10
    4938:	03ca57b3          	divu	a5,s4,t3
    493c:	01061e93          	slli	t4,a2,0x10
    4940:	010ede93          	srli	t4,t4,0x10
    4944:	01045713          	srli	a4,s0,0x10
    4948:	00889593          	slli	a1,a7,0x8
    494c:	03ca76b3          	remu	a3,s4,t3
    4950:	02fe8333          	mul	t1,t4,a5
    4954:	01069693          	slli	a3,a3,0x10
    4958:	00d76733          	or	a4,a4,a3
    495c:	00677a63          	bgeu	a4,t1,4970 <__divdf3+0x150>
    4960:	00e60733          	add	a4,a2,a4
    4964:	00c76463          	bltu	a4,a2,496c <__divdf3+0x14c>
    4968:	44676863          	bltu	a4,t1,4db8 <__divdf3+0x598>
    496c:	fff78793          	addi	a5,a5,-1 # 7fffff <_sp+0x7d70df>
    4970:	40670733          	sub	a4,a4,t1
    4974:	03c75333          	divu	t1,a4,t3
    4978:	01041693          	slli	a3,s0,0x10
    497c:	0106d693          	srli	a3,a3,0x10
    4980:	03c77733          	remu	a4,a4,t3
    4984:	026e8f33          	mul	t5,t4,t1
    4988:	01071713          	slli	a4,a4,0x10
    498c:	00e6e733          	or	a4,a3,a4
    4990:	01e77a63          	bgeu	a4,t5,49a4 <__divdf3+0x184>
    4994:	00e60733          	add	a4,a2,a4
    4998:	01e77463          	bgeu	a4,t5,49a0 <__divdf3+0x180>
    499c:	42c77463          	bgeu	a4,a2,4dc4 <__divdf3+0x5a4>
    49a0:	fff30313          	addi	t1,t1,-1
    49a4:	01079793          	slli	a5,a5,0x10
    49a8:	0067e7b3          	or	a5,a5,t1
    49ac:	01079693          	slli	a3,a5,0x10
    49b0:	01059f93          	slli	t6,a1,0x10
    49b4:	0107d393          	srli	t2,a5,0x10
    49b8:	0106d693          	srli	a3,a3,0x10
    49bc:	010fdf93          	srli	t6,t6,0x10
    49c0:	41e70733          	sub	a4,a4,t5
    49c4:	0105df13          	srli	t5,a1,0x10
    49c8:	03f68433          	mul	s0,a3,t6
    49cc:	03f384b3          	mul	s1,t2,t6
    49d0:	01045313          	srli	t1,s0,0x10
    49d4:	02df06b3          	mul	a3,t5,a3
    49d8:	03e383b3          	mul	t2,t2,t5
    49dc:	009686b3          	add	a3,a3,s1
    49e0:	00d30333          	add	t1,t1,a3
    49e4:	00937663          	bgeu	t1,s1,49f0 <__divdf3+0x1d0>
    49e8:	000106b7          	lui	a3,0x10
    49ec:	00d383b3          	add	t2,t2,a3
    49f0:	01035693          	srli	a3,t1,0x10
    49f4:	01041413          	slli	s0,s0,0x10
    49f8:	01031313          	slli	t1,t1,0x10
    49fc:	01045413          	srli	s0,s0,0x10
    4a00:	007686b3          	add	a3,a3,t2
    4a04:	00830333          	add	t1,t1,s0
    4a08:	00d76663          	bltu	a4,a3,4a14 <__divdf3+0x1f4>
    4a0c:	02d71e63          	bne	a4,a3,4a48 <__divdf3+0x228>
    4a10:	0262fc63          	bgeu	t0,t1,4a48 <__divdf3+0x228>
    4a14:	00b283b3          	add	t2,t0,a1
    4a18:	0053b433          	sltu	s0,t2,t0
    4a1c:	00c40933          	add	s2,s0,a2
    4a20:	01270733          	add	a4,a4,s2
    4a24:	fff78493          	addi	s1,a5,-1
    4a28:	00038293          	mv	t0,t2
    4a2c:	00e66663          	bltu	a2,a4,4a38 <__divdf3+0x218>
    4a30:	00e61a63          	bne	a2,a4,4a44 <__divdf3+0x224>
    4a34:	00041863          	bnez	s0,4a44 <__divdf3+0x224>
    4a38:	38d76c63          	bltu	a4,a3,4dd0 <__divdf3+0x5b0>
    4a3c:	0063f463          	bgeu	t2,t1,4a44 <__divdf3+0x224>
    4a40:	38e68863          	beq	a3,a4,4dd0 <__divdf3+0x5b0>
    4a44:	00048793          	mv	a5,s1
    4a48:	40628333          	sub	t1,t0,t1
    4a4c:	40d70733          	sub	a4,a4,a3
    4a50:	0062b2b3          	sltu	t0,t0,t1
    4a54:	40570733          	sub	a4,a4,t0
    4a58:	fff00413          	li	s0,-1
    4a5c:	0ee60a63          	beq	a2,a4,4b50 <__divdf3+0x330>
    4a60:	03c75433          	divu	s0,a4,t3
    4a64:	01035693          	srli	a3,t1,0x10
    4a68:	03c77733          	remu	a4,a4,t3
    4a6c:	028e82b3          	mul	t0,t4,s0
    4a70:	01071713          	slli	a4,a4,0x10
    4a74:	00e6e6b3          	or	a3,a3,a4
    4a78:	0056fa63          	bgeu	a3,t0,4a8c <__divdf3+0x26c>
    4a7c:	00d606b3          	add	a3,a2,a3
    4a80:	0056f463          	bgeu	a3,t0,4a88 <__divdf3+0x268>
    4a84:	36c6f263          	bgeu	a3,a2,4de8 <__divdf3+0x5c8>
    4a88:	fff40413          	addi	s0,s0,-1
    4a8c:	405686b3          	sub	a3,a3,t0
    4a90:	03c6d2b3          	divu	t0,a3,t3
    4a94:	01031713          	slli	a4,t1,0x10
    4a98:	01075713          	srli	a4,a4,0x10
    4a9c:	03c6f6b3          	remu	a3,a3,t3
    4aa0:	025e8eb3          	mul	t4,t4,t0
    4aa4:	01069693          	slli	a3,a3,0x10
    4aa8:	00d76733          	or	a4,a4,a3
    4aac:	01d77a63          	bgeu	a4,t4,4ac0 <__divdf3+0x2a0>
    4ab0:	00e60733          	add	a4,a2,a4
    4ab4:	01d77463          	bgeu	a4,t4,4abc <__divdf3+0x29c>
    4ab8:	32c77e63          	bgeu	a4,a2,4df4 <__divdf3+0x5d4>
    4abc:	fff28293          	addi	t0,t0,-1
    4ac0:	01041413          	slli	s0,s0,0x10
    4ac4:	00546433          	or	s0,s0,t0
    4ac8:	01041693          	slli	a3,s0,0x10
    4acc:	0106d693          	srli	a3,a3,0x10
    4ad0:	01045e13          	srli	t3,s0,0x10
    4ad4:	41d70733          	sub	a4,a4,t4
    4ad8:	02df8eb3          	mul	t4,t6,a3
    4adc:	03cf8fb3          	mul	t6,t6,t3
    4ae0:	03cf0e33          	mul	t3,t5,t3
    4ae4:	02df0f33          	mul	t5,t5,a3
    4ae8:	010ed693          	srli	a3,t4,0x10
    4aec:	01ff0f33          	add	t5,t5,t6
    4af0:	01e686b3          	add	a3,a3,t5
    4af4:	01f6f663          	bgeu	a3,t6,4b00 <__divdf3+0x2e0>
    4af8:	00010337          	lui	t1,0x10
    4afc:	006e0e33          	add	t3,t3,t1
    4b00:	0106d313          	srli	t1,a3,0x10
    4b04:	010e9e93          	slli	t4,t4,0x10
    4b08:	01069693          	slli	a3,a3,0x10
    4b0c:	010ede93          	srli	t4,t4,0x10
    4b10:	01c30333          	add	t1,t1,t3
    4b14:	01d686b3          	add	a3,a3,t4
    4b18:	00676663          	bltu	a4,t1,4b24 <__divdf3+0x304>
    4b1c:	30671463          	bne	a4,t1,4e24 <__divdf3+0x604>
    4b20:	2e068c63          	beqz	a3,4e18 <__divdf3+0x5f8>
    4b24:	00e60e33          	add	t3,a2,a4
    4b28:	fff40e93          	addi	t4,s0,-1
    4b2c:	000e0713          	mv	a4,t3
    4b30:	00ce6863          	bltu	t3,a2,4b40 <__divdf3+0x320>
    4b34:	2c6e6663          	bltu	t3,t1,4e00 <__divdf3+0x5e0>
    4b38:	2e6e1463          	bne	t3,t1,4e20 <__divdf3+0x600>
    4b3c:	2cd5e263          	bltu	a1,a3,4e00 <__divdf3+0x5e0>
    4b40:	00058893          	mv	a7,a1
    4b44:	000e8413          	mv	s0,t4
    4b48:	2cd89e63          	bne	a7,a3,4e24 <__divdf3+0x604>
    4b4c:	2c671c63          	bne	a4,t1,4e24 <__divdf3+0x604>
    4b50:	3ff50713          	addi	a4,a0,1023
    4b54:	2ee05463          	blez	a4,4e3c <__divdf3+0x61c>
    4b58:	00747693          	andi	a3,s0,7
    4b5c:	02068063          	beqz	a3,4b7c <__divdf3+0x35c>
    4b60:	00f47693          	andi	a3,s0,15
    4b64:	00400613          	li	a2,4
    4b68:	00c68a63          	beq	a3,a2,4b7c <__divdf3+0x35c>
    4b6c:	00c406b3          	add	a3,s0,a2
    4b70:	0086b633          	sltu	a2,a3,s0
    4b74:	00c787b3          	add	a5,a5,a2
    4b78:	00068413          	mv	s0,a3
    4b7c:	00779693          	slli	a3,a5,0x7
    4b80:	0006da63          	bgez	a3,4b94 <__divdf3+0x374>
    4b84:	ff000737          	lui	a4,0xff000
    4b88:	fff70713          	addi	a4,a4,-1 # feffffff <_sp+0xfefd70df>
    4b8c:	00e7f7b3          	and	a5,a5,a4
    4b90:	40050713          	addi	a4,a0,1024
    4b94:	7fe00693          	li	a3,2046
    4b98:	36e6c463          	blt	a3,a4,4f00 <__divdf3+0x6e0>
    4b9c:	01d79613          	slli	a2,a5,0x1d
    4ba0:	00345413          	srli	s0,s0,0x3
    4ba4:	00866633          	or	a2,a2,s0
    4ba8:	0037d793          	srli	a5,a5,0x3
    4bac:	02c12083          	lw	ra,44(sp)
    4bb0:	02812403          	lw	s0,40(sp)
    4bb4:	00c79793          	slli	a5,a5,0xc
    4bb8:	01471713          	slli	a4,a4,0x14
    4bbc:	00c7d793          	srli	a5,a5,0xc
    4bc0:	00f76733          	or	a4,a4,a5
    4bc4:	01f81813          	slli	a6,a6,0x1f
    4bc8:	02412483          	lw	s1,36(sp)
    4bcc:	02012903          	lw	s2,32(sp)
    4bd0:	01c12983          	lw	s3,28(sp)
    4bd4:	01812a03          	lw	s4,24(sp)
    4bd8:	01412a83          	lw	s5,20(sp)
    4bdc:	01012b03          	lw	s6,16(sp)
    4be0:	00c12b83          	lw	s7,12(sp)
    4be4:	00060513          	mv	a0,a2
    4be8:	010765b3          	or	a1,a4,a6
    4bec:	03010113          	addi	sp,sp,48
    4bf0:	00008067          	ret
    4bf4:	0164ea33          	or	s4,s1,s6
    4bf8:	080a0063          	beqz	s4,4c78 <__divdf3+0x458>
    4bfc:	04048063          	beqz	s1,4c3c <__divdf3+0x41c>
    4c00:	00048513          	mv	a0,s1
    4c04:	0a8010ef          	jal	5cac <__clzsi2>
    4c08:	00050793          	mv	a5,a0
    4c0c:	ff550713          	addi	a4,a0,-11
    4c10:	01d00693          	li	a3,29
    4c14:	ff878613          	addi	a2,a5,-8
    4c18:	40e686b3          	sub	a3,a3,a4
    4c1c:	00c494b3          	sll	s1,s1,a2
    4c20:	00db56b3          	srl	a3,s6,a3
    4c24:	0096ea33          	or	s4,a3,s1
    4c28:	00cb14b3          	sll	s1,s6,a2
    4c2c:	c0d00513          	li	a0,-1011
    4c30:	40f50ab3          	sub	s5,a0,a5
    4c34:	00048413          	mv	s0,s1
    4c38:	c5dff06f          	j	4894 <__divdf3+0x74>
    4c3c:	000b0513          	mv	a0,s6
    4c40:	06c010ef          	jal	5cac <__clzsi2>
    4c44:	01550713          	addi	a4,a0,21
    4c48:	01c00693          	li	a3,28
    4c4c:	02050793          	addi	a5,a0,32
    4c50:	fce6d0e3          	bge	a3,a4,4c10 <__divdf3+0x3f0>
    4c54:	ff850693          	addi	a3,a0,-8
    4c58:	00db1a33          	sll	s4,s6,a3
    4c5c:	fd1ff06f          	j	4c2c <__divdf3+0x40c>
    4c60:	0164ea33          	or	s4,s1,s6
    4c64:	020a1263          	bnez	s4,4c88 <__divdf3+0x468>
    4c68:	00000413          	li	s0,0
    4c6c:	00050a93          	mv	s5,a0
    4c70:	00200b13          	li	s6,2
    4c74:	c25ff06f          	j	4898 <__divdf3+0x78>
    4c78:	00000413          	li	s0,0
    4c7c:	00000a93          	li	s5,0
    4c80:	00100b13          	li	s6,1
    4c84:	c15ff06f          	j	4898 <__divdf3+0x78>
    4c88:	00048a13          	mv	s4,s1
    4c8c:	00050a93          	mv	s5,a0
    4c90:	00300b13          	li	s6,3
    4c94:	c05ff06f          	j	4898 <__divdf3+0x78>
    4c98:	0174e7b3          	or	a5,s1,s7
    4c9c:	06078e63          	beqz	a5,4d18 <__divdf3+0x4f8>
    4ca0:	04048063          	beqz	s1,4ce0 <__divdf3+0x4c0>
    4ca4:	00048513          	mv	a0,s1
    4ca8:	004010ef          	jal	5cac <__clzsi2>
    4cac:	00050693          	mv	a3,a0
    4cb0:	ff550713          	addi	a4,a0,-11
    4cb4:	01d00793          	li	a5,29
    4cb8:	ff868613          	addi	a2,a3,-8 # fff8 <heap.cpp.6b15d6f6+0x332d>
    4cbc:	40e787b3          	sub	a5,a5,a4
    4cc0:	00c494b3          	sll	s1,s1,a2
    4cc4:	00fbd7b3          	srl	a5,s7,a5
    4cc8:	0097e7b3          	or	a5,a5,s1
    4ccc:	00cb94b3          	sll	s1,s7,a2
    4cd0:	c0d00713          	li	a4,-1011
    4cd4:	40d70733          	sub	a4,a4,a3
    4cd8:	00048893          	mv	a7,s1
    4cdc:	bfdff06f          	j	48d8 <__divdf3+0xb8>
    4ce0:	000b8513          	mv	a0,s7
    4ce4:	7c9000ef          	jal	5cac <__clzsi2>
    4ce8:	01550713          	addi	a4,a0,21
    4cec:	01c00793          	li	a5,28
    4cf0:	02050693          	addi	a3,a0,32
    4cf4:	fce7d0e3          	bge	a5,a4,4cb4 <__divdf3+0x494>
    4cf8:	ff850793          	addi	a5,a0,-8
    4cfc:	00fb97b3          	sll	a5,s7,a5
    4d00:	fd1ff06f          	j	4cd0 <__divdf3+0x4b0>
    4d04:	0174e7b3          	or	a5,s1,s7
    4d08:	02079063          	bnez	a5,4d28 <__divdf3+0x508>
    4d0c:	00000893          	li	a7,0
    4d10:	00200693          	li	a3,2
    4d14:	bc9ff06f          	j	48dc <__divdf3+0xbc>
    4d18:	00000893          	li	a7,0
    4d1c:	00000713          	li	a4,0
    4d20:	00100693          	li	a3,1
    4d24:	bb9ff06f          	j	48dc <__divdf3+0xbc>
    4d28:	00048793          	mv	a5,s1
    4d2c:	00300693          	li	a3,3
    4d30:	badff06f          	j	48dc <__divdf3+0xbc>
    4d34:	ff670713          	addi	a4,a4,-10
    4d38:	00500613          	li	a2,5
    4d3c:	1ce66263          	bltu	a2,a4,4f00 <__divdf3+0x6e0>
    4d40:	00020637          	lui	a2,0x20
    4d44:	00271713          	slli	a4,a4,0x2
    4d48:	16060613          	addi	a2,a2,352 # 20160 <jump_table.17+0xbc>
    4d4c:	00c70733          	add	a4,a4,a2
    4d50:	00072703          	lw	a4,0(a4)
    4d54:	00070067          	jr	a4
    4d58:	00e61633          	sll	a2,a2,a4
    4d5c:	05467593          	andi	a1,a2,84
    4d60:	04059063          	bnez	a1,4da0 <__divdf3+0x580>
    4d64:	08867613          	andi	a2,a2,136
    4d68:	0c061263          	bnez	a2,4e2c <__divdf3+0x60c>
    4d6c:	b8671ee3          	bne	a4,t1,4908 <__divdf3+0xe8>
    4d70:	000807b7          	lui	a5,0x80
    4d74:	7ff00713          	li	a4,2047
    4d78:	00000813          	li	a6,0
    4d7c:	e31ff06f          	j	4bac <__divdf3+0x38c>
    4d80:	00098813          	mv	a6,s3
    4d84:	000a0793          	mv	a5,s4
    4d88:	00200713          	li	a4,2
    4d8c:	16eb0a63          	beq	s6,a4,4f00 <__divdf3+0x6e0>
    4d90:	00300713          	li	a4,3
    4d94:	16eb0063          	beq	s6,a4,4ef4 <__divdf3+0x6d4>
    4d98:	00100713          	li	a4,1
    4d9c:	daeb1ae3          	bne	s6,a4,4b50 <__divdf3+0x330>
    4da0:	00000793          	li	a5,0
    4da4:	00000613          	li	a2,0
    4da8:	10c0006f          	j	4eb4 <__divdf3+0x694>
    4dac:	fff50513          	addi	a0,a0,-1
    4db0:	00000293          	li	t0,0
    4db4:	b75ff06f          	j	4928 <__divdf3+0x108>
    4db8:	ffe78793          	addi	a5,a5,-2 # 7fffe <_sp+0x570de>
    4dbc:	00c70733          	add	a4,a4,a2
    4dc0:	bb1ff06f          	j	4970 <__divdf3+0x150>
    4dc4:	ffe30313          	addi	t1,t1,-2 # fffe <heap.cpp.6b15d6f6+0x3333>
    4dc8:	00c70733          	add	a4,a4,a2
    4dcc:	bd9ff06f          	j	49a4 <__divdf3+0x184>
    4dd0:	007582b3          	add	t0,a1,t2
    4dd4:	00b2b3b3          	sltu	t2,t0,a1
    4dd8:	00c383b3          	add	t2,t2,a2
    4ddc:	ffe78793          	addi	a5,a5,-2
    4de0:	00770733          	add	a4,a4,t2
    4de4:	c65ff06f          	j	4a48 <__divdf3+0x228>
    4de8:	ffe40413          	addi	s0,s0,-2
    4dec:	00c686b3          	add	a3,a3,a2
    4df0:	c9dff06f          	j	4a8c <__divdf3+0x26c>
    4df4:	ffe28293          	addi	t0,t0,-2
    4df8:	00c70733          	add	a4,a4,a2
    4dfc:	cc5ff06f          	j	4ac0 <__divdf3+0x2a0>
    4e00:	00989893          	slli	a7,a7,0x9
    4e04:	00b8b5b3          	sltu	a1,a7,a1
    4e08:	00c585b3          	add	a1,a1,a2
    4e0c:	ffe40413          	addi	s0,s0,-2
    4e10:	00be0733          	add	a4,t3,a1
    4e14:	d35ff06f          	j	4b48 <__divdf3+0x328>
    4e18:	00000893          	li	a7,0
    4e1c:	d2dff06f          	j	4b48 <__divdf3+0x328>
    4e20:	000e8413          	mv	s0,t4
    4e24:	00146413          	ori	s0,s0,1
    4e28:	d29ff06f          	j	4b50 <__divdf3+0x330>
    4e2c:	00090813          	mv	a6,s2
    4e30:	00088413          	mv	s0,a7
    4e34:	00068b13          	mv	s6,a3
    4e38:	f51ff06f          	j	4d88 <__divdf3+0x568>
    4e3c:	08070063          	beqz	a4,4ebc <__divdf3+0x69c>
    4e40:	fc900693          	li	a3,-55
    4e44:	f4d74ee3          	blt	a4,a3,4da0 <__divdf3+0x580>
    4e48:	fe200693          	li	a3,-30
    4e4c:	06d74c63          	blt	a4,a3,4ec4 <__divdf3+0x6a4>
    4e50:	00100693          	li	a3,1
    4e54:	40e686b3          	sub	a3,a3,a4
    4e58:	41e50513          	addi	a0,a0,1054
    4e5c:	00d45733          	srl	a4,s0,a3
    4e60:	00a41433          	sll	s0,s0,a0
    4e64:	00803433          	snez	s0,s0
    4e68:	00a79533          	sll	a0,a5,a0
    4e6c:	00a46433          	or	s0,s0,a0
    4e70:	00876733          	or	a4,a4,s0
    4e74:	00d7d7b3          	srl	a5,a5,a3
    4e78:	00777693          	andi	a3,a4,7
    4e7c:	02068063          	beqz	a3,4e9c <__divdf3+0x67c>
    4e80:	00f77693          	andi	a3,a4,15
    4e84:	00400613          	li	a2,4
    4e88:	00c68a63          	beq	a3,a2,4e9c <__divdf3+0x67c>
    4e8c:	00c706b3          	add	a3,a4,a2
    4e90:	00e6b633          	sltu	a2,a3,a4
    4e94:	00c787b3          	add	a5,a5,a2
    4e98:	00068713          	mv	a4,a3
    4e9c:	00879693          	slli	a3,a5,0x8
    4ea0:	0606c863          	bltz	a3,4f10 <__divdf3+0x6f0>
    4ea4:	01d79613          	slli	a2,a5,0x1d
    4ea8:	00375713          	srli	a4,a4,0x3
    4eac:	00e66633          	or	a2,a2,a4
    4eb0:	0037d793          	srli	a5,a5,0x3
    4eb4:	00000713          	li	a4,0
    4eb8:	cf5ff06f          	j	4bac <__divdf3+0x38c>
    4ebc:	00100693          	li	a3,1
    4ec0:	f99ff06f          	j	4e58 <__divdf3+0x638>
    4ec4:	fe100593          	li	a1,-31
    4ec8:	40e586b3          	sub	a3,a1,a4
    4ecc:	00d7d6b3          	srl	a3,a5,a3
    4ed0:	00000613          	li	a2,0
    4ed4:	00b70663          	beq	a4,a1,4ee0 <__divdf3+0x6c0>
    4ed8:	43e50513          	addi	a0,a0,1086
    4edc:	00a79633          	sll	a2,a5,a0
    4ee0:	00866633          	or	a2,a2,s0
    4ee4:	00c03633          	snez	a2,a2
    4ee8:	00c6e733          	or	a4,a3,a2
    4eec:	00000793          	li	a5,0
    4ef0:	f89ff06f          	j	4e78 <__divdf3+0x658>
    4ef4:	000807b7          	lui	a5,0x80
    4ef8:	00000613          	li	a2,0
    4efc:	e79ff06f          	j	4d74 <__divdf3+0x554>
    4f00:	00000793          	li	a5,0
    4f04:	00000613          	li	a2,0
    4f08:	7ff00713          	li	a4,2047
    4f0c:	ca1ff06f          	j	4bac <__divdf3+0x38c>
    4f10:	00000793          	li	a5,0
    4f14:	00000613          	li	a2,0
    4f18:	00100713          	li	a4,1
    4f1c:	c91ff06f          	j	4bac <__divdf3+0x38c>

00004f20 <__muldf3>:
    4f20:	fd010113          	addi	sp,sp,-48
    4f24:	01412c23          	sw	s4,24(sp)
    4f28:	0145da13          	srli	s4,a1,0x14
    4f2c:	02812423          	sw	s0,40(sp)
    4f30:	02912223          	sw	s1,36(sp)
    4f34:	01312e23          	sw	s3,28(sp)
    4f38:	01512a23          	sw	s5,20(sp)
    4f3c:	01712623          	sw	s7,12(sp)
    4f40:	00c59493          	slli	s1,a1,0xc
    4f44:	02112623          	sw	ra,44(sp)
    4f48:	03212023          	sw	s2,32(sp)
    4f4c:	01612823          	sw	s6,16(sp)
    4f50:	7ffa7a13          	andi	s4,s4,2047
    4f54:	00050413          	mv	s0,a0
    4f58:	00060b93          	mv	s7,a2
    4f5c:	00068993          	mv	s3,a3
    4f60:	00c4d493          	srli	s1,s1,0xc
    4f64:	01f5da93          	srli	s5,a1,0x1f
    4f68:	0c0a0263          	beqz	s4,502c <__muldf3+0x10c>
    4f6c:	7ff00793          	li	a5,2047
    4f70:	12fa0463          	beq	s4,a5,5098 <__muldf3+0x178>
    4f74:	00349493          	slli	s1,s1,0x3
    4f78:	01d55793          	srli	a5,a0,0x1d
    4f7c:	0097e7b3          	or	a5,a5,s1
    4f80:	008004b7          	lui	s1,0x800
    4f84:	0097e4b3          	or	s1,a5,s1
    4f88:	00351913          	slli	s2,a0,0x3
    4f8c:	c01a0a13          	addi	s4,s4,-1023
    4f90:	00000b13          	li	s6,0
    4f94:	0149d713          	srli	a4,s3,0x14
    4f98:	00c99413          	slli	s0,s3,0xc
    4f9c:	7ff77713          	andi	a4,a4,2047
    4fa0:	00c45413          	srli	s0,s0,0xc
    4fa4:	01f9d993          	srli	s3,s3,0x1f
    4fa8:	12070063          	beqz	a4,50c8 <__muldf3+0x1a8>
    4fac:	7ff00793          	li	a5,2047
    4fb0:	18f70463          	beq	a4,a5,5138 <__muldf3+0x218>
    4fb4:	00341413          	slli	s0,s0,0x3
    4fb8:	01dbd793          	srli	a5,s7,0x1d
    4fbc:	0087e7b3          	or	a5,a5,s0
    4fc0:	00800437          	lui	s0,0x800
    4fc4:	0087e433          	or	s0,a5,s0
    4fc8:	c0170713          	addi	a4,a4,-1023
    4fcc:	003b9793          	slli	a5,s7,0x3
    4fd0:	00000813          	li	a6,0
    4fd4:	00ea0a33          	add	s4,s4,a4
    4fd8:	002b1713          	slli	a4,s6,0x2
    4fdc:	01076733          	or	a4,a4,a6
    4fe0:	00b00693          	li	a3,11
    4fe4:	001a0513          	addi	a0,s4,1
    4fe8:	1ae6c663          	blt	a3,a4,5194 <__muldf3+0x274>
    4fec:	00200613          	li	a2,2
    4ff0:	013ac5b3          	xor	a1,s5,s3
    4ff4:	00100693          	li	a3,1
    4ff8:	16e64863          	blt	a2,a4,5168 <__muldf3+0x248>
    4ffc:	fff70713          	addi	a4,a4,-1
    5000:	1ae6ea63          	bltu	a3,a4,51b4 <__muldf3+0x294>
    5004:	00080b13          	mv	s6,a6
    5008:	00200713          	li	a4,2
    500c:	4ceb0e63          	beq	s6,a4,54e8 <__muldf3+0x5c8>
    5010:	00300713          	li	a4,3
    5014:	18eb0663          	beq	s6,a4,51a0 <__muldf3+0x280>
    5018:	00100713          	li	a4,1
    501c:	34eb1863          	bne	s6,a4,536c <__muldf3+0x44c>
    5020:	00000413          	li	s0,0
    5024:	00000613          	li	a2,0
    5028:	4800006f          	j	54a8 <__muldf3+0x588>
    502c:	00a4e933          	or	s2,s1,a0
    5030:	06090e63          	beqz	s2,50ac <__muldf3+0x18c>
    5034:	04048263          	beqz	s1,5078 <__muldf3+0x158>
    5038:	00048513          	mv	a0,s1
    503c:	471000ef          	jal	5cac <__clzsi2>
    5040:	00050713          	mv	a4,a0
    5044:	ff550693          	addi	a3,a0,-11
    5048:	01d00793          	li	a5,29
    504c:	ff870613          	addi	a2,a4,-8
    5050:	40d787b3          	sub	a5,a5,a3
    5054:	00c494b3          	sll	s1,s1,a2
    5058:	00f457b3          	srl	a5,s0,a5
    505c:	0097e7b3          	or	a5,a5,s1
    5060:	00c414b3          	sll	s1,s0,a2
    5064:	c0d00a13          	li	s4,-1011
    5068:	00048913          	mv	s2,s1
    506c:	40ea0a33          	sub	s4,s4,a4
    5070:	00078493          	mv	s1,a5
    5074:	f1dff06f          	j	4f90 <__muldf3+0x70>
    5078:	435000ef          	jal	5cac <__clzsi2>
    507c:	01550693          	addi	a3,a0,21
    5080:	01c00793          	li	a5,28
    5084:	02050713          	addi	a4,a0,32
    5088:	fcd7d0e3          	bge	a5,a3,5048 <__muldf3+0x128>
    508c:	ff850793          	addi	a5,a0,-8
    5090:	00f417b3          	sll	a5,s0,a5
    5094:	fd1ff06f          	j	5064 <__muldf3+0x144>
    5098:	00a4e933          	or	s2,s1,a0
    509c:	02091063          	bnez	s2,50bc <__muldf3+0x19c>
    50a0:	00000493          	li	s1,0
    50a4:	00200b13          	li	s6,2
    50a8:	eedff06f          	j	4f94 <__muldf3+0x74>
    50ac:	00000493          	li	s1,0
    50b0:	00000a13          	li	s4,0
    50b4:	00100b13          	li	s6,1
    50b8:	eddff06f          	j	4f94 <__muldf3+0x74>
    50bc:	00050913          	mv	s2,a0
    50c0:	00300b13          	li	s6,3
    50c4:	ed1ff06f          	j	4f94 <__muldf3+0x74>
    50c8:	017467b3          	or	a5,s0,s7
    50cc:	08078063          	beqz	a5,514c <__muldf3+0x22c>
    50d0:	04040263          	beqz	s0,5114 <__muldf3+0x1f4>
    50d4:	00040513          	mv	a0,s0
    50d8:	3d5000ef          	jal	5cac <__clzsi2>
    50dc:	00050793          	mv	a5,a0
    50e0:	ff550713          	addi	a4,a0,-11
    50e4:	01d00693          	li	a3,29
    50e8:	ff878613          	addi	a2,a5,-8 # 7fff8 <_sp+0x570d8>
    50ec:	40e686b3          	sub	a3,a3,a4
    50f0:	00c41433          	sll	s0,s0,a2
    50f4:	00dbd6b3          	srl	a3,s7,a3
    50f8:	0086e6b3          	or	a3,a3,s0
    50fc:	00cb9433          	sll	s0,s7,a2
    5100:	c0d00713          	li	a4,-1011
    5104:	40f70733          	sub	a4,a4,a5
    5108:	00040793          	mv	a5,s0
    510c:	00068413          	mv	s0,a3
    5110:	ec1ff06f          	j	4fd0 <__muldf3+0xb0>
    5114:	000b8513          	mv	a0,s7
    5118:	395000ef          	jal	5cac <__clzsi2>
    511c:	01550713          	addi	a4,a0,21
    5120:	01c00693          	li	a3,28
    5124:	02050793          	addi	a5,a0,32
    5128:	fae6dee3          	bge	a3,a4,50e4 <__muldf3+0x1c4>
    512c:	ff850693          	addi	a3,a0,-8
    5130:	00db96b3          	sll	a3,s7,a3
    5134:	fcdff06f          	j	5100 <__muldf3+0x1e0>
    5138:	017467b3          	or	a5,s0,s7
    513c:	02079063          	bnez	a5,515c <__muldf3+0x23c>
    5140:	00000413          	li	s0,0
    5144:	00200813          	li	a6,2
    5148:	e8dff06f          	j	4fd4 <__muldf3+0xb4>
    514c:	00000413          	li	s0,0
    5150:	00000713          	li	a4,0
    5154:	00100813          	li	a6,1
    5158:	e7dff06f          	j	4fd4 <__muldf3+0xb4>
    515c:	000b8793          	mv	a5,s7
    5160:	00300813          	li	a6,3
    5164:	e71ff06f          	j	4fd4 <__muldf3+0xb4>
    5168:	00e69733          	sll	a4,a3,a4
    516c:	53077693          	andi	a3,a4,1328
    5170:	2a069663          	bnez	a3,541c <__muldf3+0x4fc>
    5174:	00001637          	lui	a2,0x1
    5178:	88860613          	addi	a2,a2,-1912 # 888 <spi_event_handler+0x198>
    517c:	00c77633          	and	a2,a4,a2
    5180:	28061a63          	bnez	a2,5414 <__muldf3+0x4f4>
    5184:	24077713          	andi	a4,a4,576
    5188:	02070663          	beqz	a4,51b4 <__muldf3+0x294>
    518c:	00080437          	lui	s0,0x80
    5190:	0180006f          	j	51a8 <__muldf3+0x288>
    5194:	00f00793          	li	a5,15
    5198:	000a8593          	mv	a1,s5
    519c:	28f71063          	bne	a4,a5,541c <__muldf3+0x4fc>
    51a0:	00080437          	lui	s0,0x80
    51a4:	00000613          	li	a2,0
    51a8:	7ff00713          	li	a4,2047
    51ac:	00000593          	li	a1,0
    51b0:	2180006f          	j	53c8 <__muldf3+0x4a8>
    51b4:	01095893          	srli	a7,s2,0x10
    51b8:	01079e13          	slli	t3,a5,0x10
    51bc:	01091913          	slli	s2,s2,0x10
    51c0:	0107d613          	srli	a2,a5,0x10
    51c4:	01095913          	srli	s2,s2,0x10
    51c8:	010e5e13          	srli	t3,t3,0x10
    51cc:	03c907b3          	mul	a5,s2,t3
    51d0:	03c88333          	mul	t1,a7,t3
    51d4:	0107d813          	srli	a6,a5,0x10
    51d8:	03260733          	mul	a4,a2,s2
    51dc:	02c886b3          	mul	a3,a7,a2
    51e0:	00670733          	add	a4,a4,t1
    51e4:	00e80833          	add	a6,a6,a4
    51e8:	00687663          	bgeu	a6,t1,51f4 <__muldf3+0x2d4>
    51ec:	00010737          	lui	a4,0x10
    51f0:	00e686b3          	add	a3,a3,a4
    51f4:	01045713          	srli	a4,s0,0x10
    51f8:	01079793          	slli	a5,a5,0x10
    51fc:	01041413          	slli	s0,s0,0x10
    5200:	0107d793          	srli	a5,a5,0x10
    5204:	01045413          	srli	s0,s0,0x10
    5208:	01085f93          	srli	t6,a6,0x10
    520c:	01081813          	slli	a6,a6,0x10
    5210:	02890f33          	mul	t5,s2,s0
    5214:	00f80833          	add	a6,a6,a5
    5218:	02e90933          	mul	s2,s2,a4
    521c:	010f5313          	srli	t1,t5,0x10
    5220:	028887b3          	mul	a5,a7,s0
    5224:	02e888b3          	mul	a7,a7,a4
    5228:	00f90933          	add	s2,s2,a5
    522c:	01230333          	add	t1,t1,s2
    5230:	00f37663          	bgeu	t1,a5,523c <__muldf3+0x31c>
    5234:	000107b7          	lui	a5,0x10
    5238:	00f888b3          	add	a7,a7,a5
    523c:	010f1f13          	slli	t5,t5,0x10
    5240:	010f5f13          	srli	t5,t5,0x10
    5244:	01031793          	slli	a5,t1,0x10
    5248:	01e787b3          	add	a5,a5,t5
    524c:	0104df13          	srli	t5,s1,0x10
    5250:	01049493          	slli	s1,s1,0x10
    5254:	0104d493          	srli	s1,s1,0x10
    5258:	029e02b3          	mul	t0,t3,s1
    525c:	01035e93          	srli	t4,t1,0x10
    5260:	011e8eb3          	add	t4,t4,a7
    5264:	00ff8fb3          	add	t6,t6,a5
    5268:	03ee0e33          	mul	t3,t3,t5
    526c:	0102d893          	srli	a7,t0,0x10
    5270:	03e603b3          	mul	t2,a2,t5
    5274:	02960633          	mul	a2,a2,s1
    5278:	01c60633          	add	a2,a2,t3
    527c:	00c888b3          	add	a7,a7,a2
    5280:	01c8f663          	bgeu	a7,t3,528c <__muldf3+0x36c>
    5284:	00010637          	lui	a2,0x10
    5288:	00c383b3          	add	t2,t2,a2
    528c:	02940633          	mul	a2,s0,s1
    5290:	01029293          	slli	t0,t0,0x10
    5294:	0108d313          	srli	t1,a7,0x10
    5298:	0102d293          	srli	t0,t0,0x10
    529c:	01089893          	slli	a7,a7,0x10
    52a0:	00730333          	add	t1,t1,t2
    52a4:	005888b3          	add	a7,a7,t0
    52a8:	03e40433          	mul	s0,s0,t5
    52ac:	01065e13          	srli	t3,a2,0x10
    52b0:	03e70f33          	mul	t5,a4,t5
    52b4:	02970733          	mul	a4,a4,s1
    52b8:	00870733          	add	a4,a4,s0
    52bc:	00ee0e33          	add	t3,t3,a4
    52c0:	008e7663          	bgeu	t3,s0,52cc <__muldf3+0x3ac>
    52c4:	00010737          	lui	a4,0x10
    52c8:	00ef0f33          	add	t5,t5,a4
    52cc:	01061613          	slli	a2,a2,0x10
    52d0:	010e1713          	slli	a4,t3,0x10
    52d4:	01065613          	srli	a2,a2,0x10
    52d8:	01f686b3          	add	a3,a3,t6
    52dc:	00c70733          	add	a4,a4,a2
    52e0:	01d70eb3          	add	t4,a4,t4
    52e4:	00f6b7b3          	sltu	a5,a3,a5
    52e8:	00fe87b3          	add	a5,t4,a5
    52ec:	011688b3          	add	a7,a3,a7
    52f0:	00678333          	add	t1,a5,t1
    52f4:	00d8b6b3          	sltu	a3,a7,a3
    52f8:	00eeb633          	sltu	a2,t4,a4
    52fc:	00d306b3          	add	a3,t1,a3
    5300:	01d7beb3          	sltu	t4,a5,t4
    5304:	00f33733          	sltu	a4,t1,a5
    5308:	01d66633          	or	a2,a2,t4
    530c:	0066b333          	sltu	t1,a3,t1
    5310:	010e5e13          	srli	t3,t3,0x10
    5314:	00989793          	slli	a5,a7,0x9
    5318:	01c60633          	add	a2,a2,t3
    531c:	00676733          	or	a4,a4,t1
    5320:	00c70733          	add	a4,a4,a2
    5324:	0107e7b3          	or	a5,a5,a6
    5328:	01e70733          	add	a4,a4,t5
    532c:	00f037b3          	snez	a5,a5
    5330:	0178d893          	srli	a7,a7,0x17
    5334:	00971713          	slli	a4,a4,0x9
    5338:	0176d413          	srli	s0,a3,0x17
    533c:	0117e7b3          	or	a5,a5,a7
    5340:	00969693          	slli	a3,a3,0x9
    5344:	00d7e7b3          	or	a5,a5,a3
    5348:	00771693          	slli	a3,a4,0x7
    534c:	00876433          	or	s0,a4,s0
    5350:	0c06dc63          	bgez	a3,5428 <__muldf3+0x508>
    5354:	0017d713          	srli	a4,a5,0x1
    5358:	0017f793          	andi	a5,a5,1
    535c:	00f76733          	or	a4,a4,a5
    5360:	01f41793          	slli	a5,s0,0x1f
    5364:	00f767b3          	or	a5,a4,a5
    5368:	00145413          	srli	s0,s0,0x1
    536c:	3ff50713          	addi	a4,a0,1023
    5370:	0ce05063          	blez	a4,5430 <__muldf3+0x510>
    5374:	0077f693          	andi	a3,a5,7
    5378:	02068063          	beqz	a3,5398 <__muldf3+0x478>
    537c:	00f7f693          	andi	a3,a5,15
    5380:	00400613          	li	a2,4
    5384:	00c68a63          	beq	a3,a2,5398 <__muldf3+0x478>
    5388:	00c786b3          	add	a3,a5,a2
    538c:	00f6b633          	sltu	a2,a3,a5
    5390:	00c40433          	add	s0,s0,a2
    5394:	00068793          	mv	a5,a3
    5398:	00741693          	slli	a3,s0,0x7
    539c:	0006da63          	bgez	a3,53b0 <__muldf3+0x490>
    53a0:	ff000737          	lui	a4,0xff000
    53a4:	fff70713          	addi	a4,a4,-1 # feffffff <_sp+0xfefd70df>
    53a8:	00e47433          	and	s0,s0,a4
    53ac:	40050713          	addi	a4,a0,1024
    53b0:	7fe00693          	li	a3,2046
    53b4:	12e6ca63          	blt	a3,a4,54e8 <__muldf3+0x5c8>
    53b8:	01d41613          	slli	a2,s0,0x1d
    53bc:	0037d793          	srli	a5,a5,0x3
    53c0:	00f66633          	or	a2,a2,a5
    53c4:	00345413          	srli	s0,s0,0x3
    53c8:	00c41413          	slli	s0,s0,0xc
    53cc:	00c45413          	srli	s0,s0,0xc
    53d0:	01471713          	slli	a4,a4,0x14
    53d4:	02c12083          	lw	ra,44(sp)
    53d8:	00876733          	or	a4,a4,s0
    53dc:	02812403          	lw	s0,40(sp)
    53e0:	01f59593          	slli	a1,a1,0x1f
    53e4:	00b767b3          	or	a5,a4,a1
    53e8:	02412483          	lw	s1,36(sp)
    53ec:	02012903          	lw	s2,32(sp)
    53f0:	01c12983          	lw	s3,28(sp)
    53f4:	01812a03          	lw	s4,24(sp)
    53f8:	01412a83          	lw	s5,20(sp)
    53fc:	01012b03          	lw	s6,16(sp)
    5400:	00c12b83          	lw	s7,12(sp)
    5404:	00060513          	mv	a0,a2
    5408:	00078593          	mv	a1,a5
    540c:	03010113          	addi	sp,sp,48
    5410:	00008067          	ret
    5414:	00098593          	mv	a1,s3
    5418:	bedff06f          	j	5004 <__muldf3+0xe4>
    541c:	00048413          	mv	s0,s1
    5420:	00090793          	mv	a5,s2
    5424:	be5ff06f          	j	5008 <__muldf3+0xe8>
    5428:	000a0513          	mv	a0,s4
    542c:	f41ff06f          	j	536c <__muldf3+0x44c>
    5430:	08070063          	beqz	a4,54b0 <__muldf3+0x590>
    5434:	fc900693          	li	a3,-55
    5438:	bed744e3          	blt	a4,a3,5020 <__muldf3+0x100>
    543c:	fe200693          	li	a3,-30
    5440:	06d74c63          	blt	a4,a3,54b8 <__muldf3+0x598>
    5444:	00100693          	li	a3,1
    5448:	40e68733          	sub	a4,a3,a4
    544c:	41e50513          	addi	a0,a0,1054
    5450:	00e7d6b3          	srl	a3,a5,a4
    5454:	00a797b3          	sll	a5,a5,a0
    5458:	00f037b3          	snez	a5,a5
    545c:	00a41533          	sll	a0,s0,a0
    5460:	00a7e7b3          	or	a5,a5,a0
    5464:	00d7e7b3          	or	a5,a5,a3
    5468:	00e45433          	srl	s0,s0,a4
    546c:	0077f713          	andi	a4,a5,7
    5470:	02070063          	beqz	a4,5490 <__muldf3+0x570>
    5474:	00f7f713          	andi	a4,a5,15
    5478:	00400693          	li	a3,4
    547c:	00d70a63          	beq	a4,a3,5490 <__muldf3+0x570>
    5480:	00d78733          	add	a4,a5,a3
    5484:	00f736b3          	sltu	a3,a4,a5
    5488:	00d40433          	add	s0,s0,a3
    548c:	00070793          	mv	a5,a4
    5490:	00841713          	slli	a4,s0,0x8
    5494:	06074263          	bltz	a4,54f8 <__muldf3+0x5d8>
    5498:	01d41613          	slli	a2,s0,0x1d
    549c:	0037d793          	srli	a5,a5,0x3
    54a0:	00f66633          	or	a2,a2,a5
    54a4:	00345413          	srli	s0,s0,0x3
    54a8:	00000713          	li	a4,0
    54ac:	f1dff06f          	j	53c8 <__muldf3+0x4a8>
    54b0:	00100713          	li	a4,1
    54b4:	f99ff06f          	j	544c <__muldf3+0x52c>
    54b8:	fe100813          	li	a6,-31
    54bc:	40e806b3          	sub	a3,a6,a4
    54c0:	00d456b3          	srl	a3,s0,a3
    54c4:	00000613          	li	a2,0
    54c8:	01070663          	beq	a4,a6,54d4 <__muldf3+0x5b4>
    54cc:	43e50513          	addi	a0,a0,1086
    54d0:	00a41633          	sll	a2,s0,a0
    54d4:	00c7e7b3          	or	a5,a5,a2
    54d8:	00f037b3          	snez	a5,a5
    54dc:	00f6e7b3          	or	a5,a3,a5
    54e0:	00000413          	li	s0,0
    54e4:	f89ff06f          	j	546c <__muldf3+0x54c>
    54e8:	00000413          	li	s0,0
    54ec:	00000613          	li	a2,0
    54f0:	7ff00713          	li	a4,2047
    54f4:	ed5ff06f          	j	53c8 <__muldf3+0x4a8>
    54f8:	00000413          	li	s0,0
    54fc:	00000613          	li	a2,0
    5500:	00100713          	li	a4,1
    5504:	ec5ff06f          	j	53c8 <__muldf3+0x4a8>

00005508 <__subdf3>:
    5508:	fe010113          	addi	sp,sp,-32
    550c:	0145d713          	srli	a4,a1,0x14
    5510:	00c59793          	slli	a5,a1,0xc
    5514:	00812c23          	sw	s0,24(sp)
    5518:	0097d793          	srli	a5,a5,0x9
    551c:	7ff77413          	andi	s0,a4,2047
    5520:	01d55713          	srli	a4,a0,0x1d
    5524:	00f767b3          	or	a5,a4,a5
    5528:	00c69713          	slli	a4,a3,0xc
    552c:	0146d893          	srli	a7,a3,0x14
    5530:	00912a23          	sw	s1,20(sp)
    5534:	00975713          	srli	a4,a4,0x9
    5538:	01f5d493          	srli	s1,a1,0x1f
    553c:	01d65593          	srli	a1,a2,0x1d
    5540:	00e5e733          	or	a4,a1,a4
    5544:	00112e23          	sw	ra,28(sp)
    5548:	01212823          	sw	s2,16(sp)
    554c:	01312623          	sw	s3,12(sp)
    5550:	7ff8f893          	andi	a7,a7,2047
    5554:	7ff00593          	li	a1,2047
    5558:	00351513          	slli	a0,a0,0x3
    555c:	01f6d693          	srli	a3,a3,0x1f
    5560:	00361613          	slli	a2,a2,0x3
    5564:	00b89663          	bne	a7,a1,5570 <__subdf3+0x68>
    5568:	00c765b3          	or	a1,a4,a2
    556c:	00059463          	bnez	a1,5574 <__subdf3+0x6c>
    5570:	0016c693          	xori	a3,a3,1
    5574:	41140833          	sub	a6,s0,a7
    5578:	7ff00313          	li	t1,2047
    557c:	30969263          	bne	a3,s1,5880 <dma.c.1367abc8+0xc3>
    5580:	17005663          	blez	a6,56ec <__subdf3+0x1e4>
    5584:	0a089063          	bnez	a7,5624 <__subdf3+0x11c>
    5588:	00c766b3          	or	a3,a4,a2
    558c:	02068463          	beqz	a3,55b4 <__subdf3+0xac>
    5590:	fff40813          	addi	a6,s0,-1 # 7ffff <_sp+0x570df>
    5594:	00081e63          	bnez	a6,55b0 <__subdf3+0xa8>
    5598:	00c50633          	add	a2,a0,a2
    559c:	00e787b3          	add	a5,a5,a4
    55a0:	00a63533          	sltu	a0,a2,a0
    55a4:	00a787b3          	add	a5,a5,a0
    55a8:	00100413          	li	s0,1
    55ac:	0c80006f          	j	5674 <__subdf3+0x16c>
    55b0:	08641063          	bne	s0,t1,5630 <__subdf3+0x128>
    55b4:	01d79693          	slli	a3,a5,0x1d
    55b8:	00355513          	srli	a0,a0,0x3
    55bc:	7ff00713          	li	a4,2047
    55c0:	00a6e6b3          	or	a3,a3,a0
    55c4:	0037d793          	srli	a5,a5,0x3
    55c8:	00e41e63          	bne	s0,a4,55e4 <__subdf3+0xdc>
    55cc:	00f6e6b3          	or	a3,a3,a5
    55d0:	00000793          	li	a5,0
    55d4:	00068863          	beqz	a3,55e4 <__subdf3+0xdc>
    55d8:	000807b7          	lui	a5,0x80
    55dc:	00000693          	li	a3,0
    55e0:	00000493          	li	s1,0
    55e4:	7ff47713          	andi	a4,s0,2047
    55e8:	00c79793          	slli	a5,a5,0xc
    55ec:	01c12083          	lw	ra,28(sp)
    55f0:	01812403          	lw	s0,24(sp)
    55f4:	00c7d793          	srli	a5,a5,0xc
    55f8:	01471713          	slli	a4,a4,0x14
    55fc:	01f49593          	slli	a1,s1,0x1f
    5600:	00f76733          	or	a4,a4,a5
    5604:	00b767b3          	or	a5,a4,a1
    5608:	01412483          	lw	s1,20(sp)
    560c:	01012903          	lw	s2,16(sp)
    5610:	00c12983          	lw	s3,12(sp)
    5614:	00068513          	mv	a0,a3
    5618:	00078593          	mv	a1,a5
    561c:	02010113          	addi	sp,sp,32
    5620:	00008067          	ret
    5624:	28640863          	beq	s0,t1,58b4 <dma.c.1367abc8+0xf7>
    5628:	008006b7          	lui	a3,0x800
    562c:	00d76733          	or	a4,a4,a3
    5630:	03800693          	li	a3,56
    5634:	0b06c663          	blt	a3,a6,56e0 <__subdf3+0x1d8>
    5638:	01f00693          	li	a3,31
    563c:	02000893          	li	a7,32
    5640:	0706c863          	blt	a3,a6,56b0 <__subdf3+0x1a8>
    5644:	410888b3          	sub	a7,a7,a6
    5648:	011716b3          	sll	a3,a4,a7
    564c:	010655b3          	srl	a1,a2,a6
    5650:	011618b3          	sll	a7,a2,a7
    5654:	00b6e6b3          	or	a3,a3,a1
    5658:	011038b3          	snez	a7,a7
