
sw/build/main.elf:     file format elf32-littleriscv


Disassembly of section .vectors:

00000000 <__vector_start>:
   0:	2b40706f          	j	72b4 <handler_exception>
   4:	22c0006f          	j	230 <__no_irq_handler>
   8:	2280006f          	j	230 <__no_irq_handler>
   c:	36c0706f          	j	7378 <handler_irq_software>
  10:	2200006f          	j	230 <__no_irq_handler>
  14:	21c0006f          	j	230 <__no_irq_handler>
  18:	2180006f          	j	230 <__no_irq_handler>
  1c:	3b00706f          	j	73cc <handler_irq_timer>
  20:	2100006f          	j	230 <__no_irq_handler>
  24:	20c0006f          	j	230 <__no_irq_handler>
  28:	2080006f          	j	230 <__no_irq_handler>
  2c:	1d40706f          	j	7200 <handler_irq_external>
  30:	2000006f          	j	230 <__no_irq_handler>
  34:	1fc0006f          	j	230 <__no_irq_handler>
  38:	1f80006f          	j	230 <__no_irq_handler>
  3c:	1f40006f          	j	230 <__no_irq_handler>
  40:	1350606f          	j	6974 <handler_irq_fast_timer_1>
  44:	1cd0606f          	j	6a10 <handler_irq_fast_timer_2>
  48:	2650606f          	j	6aac <handler_irq_fast_timer_3>
  4c:	2fd0606f          	j	6b48 <handler_irq_fast_dma_done>
  50:	6b00706f          	j	7700 <handler_irq_fast_spi>
  54:	5500706f          	j	75a4 <handler_irq_fast_spi_flash>
  58:	4c50606f          	j	6d1c <handler_irq_fast_gpio_0>
  5c:	55d0606f          	j	6db8 <handler_irq_fast_gpio_1>
  60:	5f50606f          	j	6e54 <handler_irq_fast_gpio_2>
  64:	68d0606f          	j	6ef0 <handler_irq_fast_gpio_3>
  68:	7250606f          	j	6f8c <handler_irq_fast_gpio_4>
  6c:	7bd0606f          	j	7028 <handler_irq_fast_gpio_5>
  70:	0580706f          	j	70c8 <handler_irq_fast_gpio_6>
  74:	0f00706f          	j	7164 <handler_irq_fast_gpio_7>
  78:	36d0606f          	j	6be4 <handler_irq_fast_dma_window>
  7c:	4050606f          	j	6c80 <handler_irq_fast_external_peripheral>

Disassembly of section .init:

00000180 <_start>:
 180:	00022197          	auipc	gp,0x22
 184:	28418193          	addi	gp,gp,644 # 22404 <__global_pointer$>
 188:	0002a117          	auipc	sp,0x2a
 18c:	e2810113          	addi	sp,sp,-472 # 29fb0 <_sp>
 190:	20000537          	lui	a0,0x20000
 194:	05f5e637          	lui	a2,0x5f5e
 198:	10060613          	addi	a2,a2,256 # 5f5e100 <_sp+0x5f34150>
 19c:	00c52e23          	sw	a2,28(a0) # 2000001c <_sp+0x1ffd606c>

000001a0 <_init_bss>:
 1a0:	00022517          	auipc	a0,0x22
 1a4:	bb850513          	addi	a0,a0,-1096 # 21d58 <__stdio_exit_handler>
 1a8:	00022617          	auipc	a2,0x22
 1ac:	e0460613          	addi	a2,a2,-508 # 21fac <__BSS_END__>
 1b0:	40a60633          	sub	a2,a2,a0
 1b4:	00000593          	li	a1,0
 1b8:	319070ef          	jal	7cd0 <memset>
 1bc:	00000517          	auipc	a0,0x0
 1c0:	e4450513          	addi	a0,a0,-444 # 0 <__vector_start>
 1c4:	00156513          	ori	a0,a0,1
 1c8:	30551073          	csrw	mtvec,a0
 1cc:	00008517          	auipc	a0,0x8
 1d0:	aac50513          	addi	a0,a0,-1364 # 7c78 <__libc_fini_array>
 1d4:	5c8070ef          	jal	779c <atexit>
 1d8:	20d070ef          	jal	7be4 <__libc_init_array>
 1dc:	00012503          	lw	a0,0(sp)
 1e0:	00410593          	addi	a1,sp,4
 1e4:	00000613          	li	a2,0
 1e8:	1090c0ef          	jal	caf0 <main>
 1ec:	00c0006f          	j	1f8 <exit>

000001f0 <_init>:
 1f0:	230070ef          	jal	7420 <init>

000001f4 <_fini>:
 1f4:	00008067          	ret

Disassembly of section .text:

000001f8 <exit>:
     1f8:	ff010113          	addi	sp,sp,-16
     1fc:	000087b7          	lui	a5,0x8
     200:	00812423          	sw	s0,8(sp)
     204:	00112623          	sw	ra,12(sp)
     208:	d8078793          	addi	a5,a5,-640 # 7d80 <__call_exitprocs>
     20c:	00050413          	mv	s0,a0
     210:	00078663          	beqz	a5,21c <exit+0x24>
     214:	00000593          	li	a1,0
     218:	369070ef          	jal	7d80 <__call_exitprocs>
     21c:	9541a783          	lw	a5,-1708(gp) # 21d58 <__stdio_exit_handler>
     220:	00078463          	beqz	a5,228 <exit+0x30>
     224:	000780e7          	jalr	a5
     228:	00040513          	mv	a0,s0
     22c:	204070ef          	jal	7430 <_exit>

00000230 <__no_irq_handler>:
     230:	0000006f          	j	230 <__no_irq_handler>

00000234 <fic_irq_dma_window>:
     234:	fe010113          	addi	sp,sp,-32
     238:	00112e23          	sw	ra,28(sp)
     23c:	00812c23          	sw	s0,24(sp)
     240:	02010413          	addi	s0,sp,32
     244:	fe042623          	sw	zero,-20(s0)
     248:	04c0006f          	j	294 <fic_irq_dma_window+0x60>
     24c:	97818693          	addi	a3,gp,-1672 # 21d7c <dma_subsys_per>
     250:	fec42703          	lw	a4,-20(s0)
     254:	00070793          	mv	a5,a4
     258:	00179793          	slli	a5,a5,0x1
     25c:	00e787b3          	add	a5,a5,a4
     260:	00279793          	slli	a5,a5,0x2
     264:	00f687b3          	add	a5,a3,a5
     268:	0087a783          	lw	a5,8(a5)
     26c:	0687a703          	lw	a4,104(a5)
     270:	00100793          	li	a5,1
     274:	00f71a63          	bne	a4,a5,288 <fic_irq_dma_window+0x54>
     278:	fec42783          	lw	a5,-20(s0)
     27c:	0ff7f793          	zext.b	a5,a5
     280:	00078513          	mv	a0,a5
     284:	100000ef          	jal	384 <dma_intr_handler_window_done>
     288:	fec42783          	lw	a5,-20(s0)
     28c:	00178793          	addi	a5,a5,1
     290:	fef42623          	sw	a5,-20(s0)
     294:	fec42703          	lw	a4,-20(s0)
     298:	00300793          	li	a5,3
     29c:	fae7d8e3          	bge	a5,a4,24c <fic_irq_dma_window+0x18>
     2a0:	00000013          	nop
     2a4:	01c12083          	lw	ra,28(sp)
     2a8:	01812403          	lw	s0,24(sp)
     2ac:	02010113          	addi	sp,sp,32
     2b0:	00008067          	ret

000002b4 <fic_irq_dma_done>:
     2b4:	fe010113          	addi	sp,sp,-32
     2b8:	00112e23          	sw	ra,28(sp)
     2bc:	00812c23          	sw	s0,24(sp)
     2c0:	02010413          	addi	s0,sp,32
     2c4:	fe042623          	sw	zero,-20(s0)
     2c8:	0700006f          	j	338 <fic_irq_dma_done+0x84>
     2cc:	97818693          	addi	a3,gp,-1672 # 21d7c <dma_subsys_per>
     2d0:	fec42703          	lw	a4,-20(s0)
     2d4:	00070793          	mv	a5,a4
     2d8:	00179793          	slli	a5,a5,0x1
     2dc:	00e787b3          	add	a5,a5,a4
     2e0:	00279793          	slli	a5,a5,0x2
     2e4:	00f687b3          	add	a5,a3,a5
     2e8:	0087a783          	lw	a5,8(a5)
     2ec:	0647a703          	lw	a4,100(a5)
     2f0:	00100793          	li	a5,1
     2f4:	02f71c63          	bne	a4,a5,32c <fic_irq_dma_done+0x78>
     2f8:	97818693          	addi	a3,gp,-1672 # 21d7c <dma_subsys_per>
     2fc:	fec42703          	lw	a4,-20(s0)
     300:	00070793          	mv	a5,a4
     304:	00179793          	slli	a5,a5,0x1
     308:	00e787b3          	add	a5,a5,a4
     30c:	00279793          	slli	a5,a5,0x2
     310:	00f687b3          	add	a5,a3,a5
     314:	00100713          	li	a4,1
     318:	00e78223          	sb	a4,4(a5)
     31c:	fec42783          	lw	a5,-20(s0)
     320:	0ff7f793          	zext.b	a5,a5
     324:	00078513          	mv	a0,a5
     328:	030000ef          	jal	358 <dma_intr_handler_trans_done>
     32c:	fec42783          	lw	a5,-20(s0)
     330:	00178793          	addi	a5,a5,1
     334:	fef42623          	sw	a5,-20(s0)
     338:	fec42703          	lw	a4,-20(s0)
     33c:	00300793          	li	a5,3
     340:	f8e7d6e3          	bge	a5,a4,2cc <fic_irq_dma_done+0x18>
     344:	00000013          	nop
     348:	01c12083          	lw	ra,28(sp)
     34c:	01812403          	lw	s0,24(sp)
     350:	02010113          	addi	sp,sp,32
     354:	00008067          	ret

00000358 <dma_intr_handler_trans_done>:
     358:	fe010113          	addi	sp,sp,-32
     35c:	00112e23          	sw	ra,28(sp)
     360:	00812c23          	sw	s0,24(sp)
     364:	02010413          	addi	s0,sp,32
     368:	00050793          	mv	a5,a0
     36c:	fef407a3          	sb	a5,-17(s0)
     370:	00000013          	nop
     374:	01c12083          	lw	ra,28(sp)
     378:	01812403          	lw	s0,24(sp)
     37c:	02010113          	addi	sp,sp,32
     380:	00008067          	ret

00000384 <dma_intr_handler_window_done>:
     384:	fe010113          	addi	sp,sp,-32
     388:	00112e23          	sw	ra,28(sp)
     38c:	00812c23          	sw	s0,24(sp)
     390:	02010413          	addi	s0,sp,32
     394:	00050793          	mv	a5,a0
     398:	fef407a3          	sb	a5,-17(s0)
     39c:	00000013          	nop
     3a0:	01c12083          	lw	ra,28(sp)
     3a4:	01812403          	lw	s0,24(sp)
     3a8:	02010113          	addi	sp,sp,32
     3ac:	00008067          	ret

000003b0 <fic_irq_timer_1>:
     3b0:	ff010113          	addi	sp,sp,-16
     3b4:	00112623          	sw	ra,12(sp)
     3b8:	00812423          	sw	s0,8(sp)
     3bc:	01010413          	addi	s0,sp,16
     3c0:	00000013          	nop
     3c4:	00c12083          	lw	ra,12(sp)
     3c8:	00812403          	lw	s0,8(sp)
     3cc:	01010113          	addi	sp,sp,16
     3d0:	00008067          	ret

000003d4 <fic_irq_timer_2>:
     3d4:	ff010113          	addi	sp,sp,-16
     3d8:	00112623          	sw	ra,12(sp)
     3dc:	00812423          	sw	s0,8(sp)
     3e0:	01010413          	addi	s0,sp,16
     3e4:	00000013          	nop
     3e8:	00c12083          	lw	ra,12(sp)
     3ec:	00812403          	lw	s0,8(sp)
     3f0:	01010113          	addi	sp,sp,16
     3f4:	00008067          	ret

000003f8 <fic_irq_timer_3>:
     3f8:	ff010113          	addi	sp,sp,-16
     3fc:	00112623          	sw	ra,12(sp)
     400:	00812423          	sw	s0,8(sp)
     404:	01010413          	addi	s0,sp,16
     408:	00000013          	nop
     40c:	00c12083          	lw	ra,12(sp)
     410:	00812403          	lw	s0,8(sp)
     414:	01010113          	addi	sp,sp,16
     418:	00008067          	ret

0000041c <fic_irq_ext_peripheral>:
     41c:	ff010113          	addi	sp,sp,-16
     420:	00112623          	sw	ra,12(sp)
     424:	00812423          	sw	s0,8(sp)
     428:	01010413          	addi	s0,sp,16
     42c:	00000013          	nop
     430:	00c12083          	lw	ra,12(sp)
     434:	00812403          	lw	s0,8(sp)
     438:	01010113          	addi	sp,sp,16
     43c:	00008067          	ret

00000440 <fic_irq_gpio_0>:
     440:	ff010113          	addi	sp,sp,-16
     444:	00112623          	sw	ra,12(sp)
     448:	00812423          	sw	s0,8(sp)
     44c:	01010413          	addi	s0,sp,16
     450:	00000013          	nop
     454:	00c12083          	lw	ra,12(sp)
     458:	00812403          	lw	s0,8(sp)
     45c:	01010113          	addi	sp,sp,16
     460:	00008067          	ret

00000464 <fic_irq_gpio_1>:
     464:	ff010113          	addi	sp,sp,-16
     468:	00112623          	sw	ra,12(sp)
     46c:	00812423          	sw	s0,8(sp)
     470:	01010413          	addi	s0,sp,16
     474:	00000013          	nop
     478:	00c12083          	lw	ra,12(sp)
     47c:	00812403          	lw	s0,8(sp)
     480:	01010113          	addi	sp,sp,16
     484:	00008067          	ret

00000488 <fic_irq_gpio_2>:
     488:	ff010113          	addi	sp,sp,-16
     48c:	00112623          	sw	ra,12(sp)
     490:	00812423          	sw	s0,8(sp)
     494:	01010413          	addi	s0,sp,16
     498:	00000013          	nop
     49c:	00c12083          	lw	ra,12(sp)
     4a0:	00812403          	lw	s0,8(sp)
     4a4:	01010113          	addi	sp,sp,16
     4a8:	00008067          	ret

000004ac <fic_irq_gpio_3>:
     4ac:	ff010113          	addi	sp,sp,-16
     4b0:	00112623          	sw	ra,12(sp)
     4b4:	00812423          	sw	s0,8(sp)
     4b8:	01010413          	addi	s0,sp,16
     4bc:	00000013          	nop
     4c0:	00c12083          	lw	ra,12(sp)
     4c4:	00812403          	lw	s0,8(sp)
     4c8:	01010113          	addi	sp,sp,16
     4cc:	00008067          	ret

000004d0 <fic_irq_gpio_4>:
     4d0:	ff010113          	addi	sp,sp,-16
     4d4:	00112623          	sw	ra,12(sp)
     4d8:	00812423          	sw	s0,8(sp)
     4dc:	01010413          	addi	s0,sp,16
     4e0:	00000013          	nop
     4e4:	00c12083          	lw	ra,12(sp)
     4e8:	00812403          	lw	s0,8(sp)
     4ec:	01010113          	addi	sp,sp,16
     4f0:	00008067          	ret

000004f4 <fic_irq_gpio_5>:
     4f4:	ff010113          	addi	sp,sp,-16
     4f8:	00112623          	sw	ra,12(sp)
     4fc:	00812423          	sw	s0,8(sp)
     500:	01010413          	addi	s0,sp,16
     504:	00000013          	nop
     508:	00c12083          	lw	ra,12(sp)
     50c:	00812403          	lw	s0,8(sp)
     510:	01010113          	addi	sp,sp,16
     514:	00008067          	ret

00000518 <fic_irq_gpio_6>:
     518:	ff010113          	addi	sp,sp,-16
     51c:	00112623          	sw	ra,12(sp)
     520:	00812423          	sw	s0,8(sp)
     524:	01010413          	addi	s0,sp,16
     528:	00000013          	nop
     52c:	00c12083          	lw	ra,12(sp)
     530:	00812403          	lw	s0,8(sp)
     534:	01010113          	addi	sp,sp,16
     538:	00008067          	ret

0000053c <fic_irq_gpio_7>:
     53c:	ff010113          	addi	sp,sp,-16
     540:	00112623          	sw	ra,12(sp)
     544:	00812423          	sw	s0,8(sp)
     548:	01010413          	addi	s0,sp,16
     54c:	00000013          	nop
     550:	00c12083          	lw	ra,12(sp)
     554:	00812403          	lw	s0,8(sp)
     558:	01010113          	addi	sp,sp,16
     55c:	00008067          	ret

00000560 <spi_get_events>:
     560:	ff010113          	addi	sp,sp,-16
     564:	01452783          	lw	a5,20(a0)
     568:	00f12623          	sw	a5,12(sp)
     56c:	00c12683          	lw	a3,12(sp)
     570:	0196d693          	srli	a3,a3,0x19
     574:	0016f693          	andi	a3,a3,1
     578:	0005a783          	lw	a5,0(a1)
     57c:	00c12703          	lw	a4,12(sp)
     580:	01b75713          	srli	a4,a4,0x1b
     584:	ffc7f793          	andi	a5,a5,-4
     588:	00d7e7b3          	or	a5,a5,a3
     58c:	00c12683          	lw	a3,12(sp)
     590:	0126d693          	srli	a3,a3,0x12
     594:	00277713          	andi	a4,a4,2
     598:	00f76733          	or	a4,a4,a5
     59c:	00c12783          	lw	a5,12(sp)
     5a0:	0177d793          	srli	a5,a5,0x17
     5a4:	0046f693          	andi	a3,a3,4
     5a8:	ff377713          	andi	a4,a4,-13
     5ac:	00d76733          	or	a4,a4,a3
     5b0:	00c12683          	lw	a3,12(sp)
     5b4:	01f6d693          	srli	a3,a3,0x1f
     5b8:	0087f793          	andi	a5,a5,8
     5bc:	00e7e7b3          	or	a5,a5,a4
     5c0:	00c12703          	lw	a4,12(sp)
     5c4:	01975713          	srli	a4,a4,0x19
     5c8:	00469693          	slli	a3,a3,0x4
     5cc:	fcf7f793          	andi	a5,a5,-49
     5d0:	00d7e7b3          	or	a5,a5,a3
     5d4:	02077713          	andi	a4,a4,32
     5d8:	02074713          	xori	a4,a4,32
     5dc:	00f767b3          	or	a5,a4,a5
     5e0:	00f5a023          	sw	a5,0(a1)
     5e4:	00000513          	li	a0,0
     5e8:	01010113          	addi	sp,sp,16
     5ec:	00008067          	ret

000005f0 <_write>:
     5f0:	00100793          	li	a5,1
     5f4:	08f51063          	bne	a0,a5,674 <_write+0x84>
     5f8:	200007b7          	lui	a5,0x20000
     5fc:	01c7a783          	lw	a5,28(a5) # 2000001c <_sp+0x1ffd606c>
     600:	08078263          	beqz	a5,684 <_write+0x94>
     604:	300807b7          	lui	a5,0x30080
     608:	0007a623          	sw	zero,12(a5) # 3008000c <_sp+0x3005605c>
     60c:	00300713          	li	a4,3
     610:	00e7ae23          	sw	a4,28(a5)
     614:	0207a223          	sw	zero,36(a5)
     618:	0207a623          	sw	zero,44(a5)
     61c:	0007a223          	sw	zero,4(a5)
     620:	fff00713          	li	a4,-1
     624:	00e7a023          	sw	a4,0(a5)
     628:	0a7c0737          	lui	a4,0xa7c0
     62c:	00370713          	addi	a4,a4,3 # a7c0003 <_sp+0xa796053>
     630:	00e7a623          	sw	a4,12(a5)
     634:	0007a223          	sw	zero,4(a5)
     638:	02060a63          	beqz	a2,66c <_write+0x7c>
     63c:	00c58833          	add	a6,a1,a2
     640:	00078713          	mv	a4,a5
     644:	0005c683          	lbu	a3,0(a1)
     648:	01072783          	lw	a5,16(a4)
     64c:	0017f793          	andi	a5,a5,1
     650:	fe079ce3          	bnez	a5,648 <_write+0x58>
     654:	00d72c23          	sw	a3,24(a4)
     658:	01072783          	lw	a5,16(a4)
     65c:	0087f793          	andi	a5,a5,8
     660:	fe078ce3          	beqz	a5,658 <_write+0x68>
     664:	00158593          	addi	a1,a1,1
     668:	fd059ee3          	bne	a1,a6,644 <_write+0x54>
     66c:	00060513          	mv	a0,a2
     670:	00008067          	ret
     674:	05800713          	li	a4,88
     678:	94e1ac23          	sw	a4,-1704(gp) # 21d5c <errno>
     67c:	fff00613          	li	a2,-1
     680:	fedff06f          	j	66c <_write+0x7c>
     684:	05800713          	li	a4,88
     688:	94e1ac23          	sw	a4,-1704(gp) # 21d5c <errno>
     68c:	ff1ff06f          	j	67c <_write+0x8c>

00000690 <spi_empty_rx>:
     690:	02452783          	lw	a5,36(a0)
     694:	00078863          	beqz	a5,6a4 <spi_empty_rx+0x14>
     698:	03452783          	lw	a5,52(a0)
     69c:	02852703          	lw	a4,40(a0)
     6a0:	02e7e863          	bltu	a5,a4,6d0 <spi_empty_rx+0x40>
     6a4:	00000513          	li	a0,0
     6a8:	00008067          	ret
     6ac:	0286a703          	lw	a4,40(a3)
     6b0:	02452683          	lw	a3,36(a0)
     6b4:	20d7c7b3          	sh2add	a5,a5,a3
     6b8:	00e7a023          	sw	a4,0(a5)
     6bc:	03452783          	lw	a5,52(a0)
     6c0:	00178793          	addi	a5,a5,1
     6c4:	02f52a23          	sw	a5,52(a0)
     6c8:	02852703          	lw	a4,40(a0)
     6cc:	00e7fe63          	bgeu	a5,a4,6e8 <spi_empty_rx+0x58>
     6d0:	00052683          	lw	a3,0(a0)
     6d4:	00068a63          	beqz	a3,6e8 <spi_empty_rx+0x58>
     6d8:	0146a703          	lw	a4,20(a3)
     6dc:	00875713          	srli	a4,a4,0x8
     6e0:	0ff77713          	zext.b	a4,a4
     6e4:	fc0714e3          	bnez	a4,6ac <spi_empty_rx+0x1c>
     6e8:	00100513          	li	a0,1
     6ec:	00008067          	ret

000006f0 <spi_event_handler>:
     6f0:	ff010113          	addi	sp,sp,-16
     6f4:	00112623          	sw	ra,12(sp)
     6f8:	00912423          	sw	s1,8(sp)
     6fc:	01212223          	sw	s2,4(sp)
     700:	00050493          	mv	s1,a0
     704:	00058913          	mv	s2,a1
     708:	0105f793          	andi	a5,a1,16
     70c:	02078063          	beqz	a5,72c <spi_event_handler+0x3c>
     710:	01452703          	lw	a4,20(a0)
     714:	00070863          	beqz	a4,724 <spi_event_handler+0x34>
     718:	02c52683          	lw	a3,44(a0)
     71c:	01854783          	lbu	a5,24(a0)
     720:	02f6e863          	bltu	a3,a5,750 <spi_event_handler+0x60>
     724:	02097793          	andi	a5,s2,32
     728:	0a079e63          	bnez	a5,7e4 <spi_event_handler+0xf4>
     72c:	00897793          	andi	a5,s2,8
     730:	14079063          	bnez	a5,870 <spi_event_handler+0x180>
     734:	00497913          	andi	s2,s2,4
     738:	1a091663          	bnez	s2,8e4 <spi_event_handler+0x1f4>
     73c:	00c12083          	lw	ra,12(sp)
     740:	00812483          	lw	s1,8(sp)
     744:	00412903          	lw	s2,4(sp)
     748:	01010113          	addi	sp,sp,16
     74c:	00008067          	ret
     750:	20e6c733          	sh2add	a4,a3,a4
     754:	00072703          	lw	a4,0(a4)
     758:	00871613          	slli	a2,a4,0x8
     75c:	00865593          	srli	a1,a2,0x8
     760:	01875713          	srli	a4,a4,0x18
     764:	00f77613          	andi	a2,a4,15
     768:	00168693          	addi	a3,a3,1
     76c:	02d52623          	sw	a3,44(a0)
     770:	00052503          	lw	a0,0(a0)
     774:	fa050ce3          	beqz	a0,72c <spi_event_handler+0x3c>
     778:	00265713          	srli	a4,a2,0x2
     77c:	01971713          	slli	a4,a4,0x19
     780:	00367613          	andi	a2,a2,3
     784:	01b61613          	slli	a2,a2,0x1b
     788:	00c76733          	or	a4,a4,a2
     78c:	40d787b3          	sub	a5,a5,a3
     790:	00f037b3          	snez	a5,a5
     794:	01879793          	slli	a5,a5,0x18
     798:	00f767b3          	or	a5,a4,a5
     79c:	fff58613          	addi	a2,a1,-1
     7a0:	00861613          	slli	a2,a2,0x8
     7a4:	00865613          	srli	a2,a2,0x8
     7a8:	00c7e633          	or	a2,a5,a2
     7ac:	0197d793          	srli	a5,a5,0x19
     7b0:	0037f793          	andi	a5,a5,3
     7b4:	00200713          	li	a4,2
     7b8:	14f76c63          	bltu	a4,a5,910 <spi_event_handler+0x220>
     7bc:	01452703          	lw	a4,20(a0)
     7c0:	f60756e3          	bgez	a4,72c <spi_event_handler+0x3c>
     7c4:	01b65713          	srli	a4,a2,0x1b
     7c8:	ffd70713          	addi	a4,a4,-3
     7cc:	00173713          	seqz	a4,a4
     7d0:	00f037b3          	snez	a5,a5
     7d4:	00f777b3          	and	a5,a4,a5
     7d8:	f4079ae3          	bnez	a5,72c <spi_event_handler+0x3c>
     7dc:	02c52223          	sw	a2,36(a0)
     7e0:	f4dff06f          	j	72c <spi_event_handler+0x3c>
     7e4:	0004a783          	lw	a5,0(s1)
     7e8:	02078263          	beqz	a5,80c <spi_event_handler+0x11c>
     7ec:	0387a703          	lw	a4,56(a5)
     7f0:	fc077713          	andi	a4,a4,-64
     7f4:	02e7ac23          	sw	a4,56(a5)
     7f8:	0004a783          	lw	a5,0(s1)
     7fc:	00078863          	beqz	a5,80c <spi_event_handler+0x11c>
     800:	0047a703          	lw	a4,4(a5)
     804:	ffd77713          	andi	a4,a4,-3
     808:	00e7a223          	sw	a4,4(a5)
     80c:	00048513          	mv	a0,s1
     810:	e81ff0ef          	jal	690 <spi_empty_rx>
     814:	00400793          	li	a5,4
     818:	00f4a823          	sw	a5,16(s1)
     81c:	0384a783          	lw	a5,56(s1)
     820:	00078c63          	beqz	a5,838 <spi_event_handler+0x148>
     824:	0344a683          	lw	a3,52(s1)
     828:	0244a603          	lw	a2,36(s1)
     82c:	0304a583          	lw	a1,48(s1)
     830:	01c4a503          	lw	a0,28(s1)
     834:	000780e7          	jalr	a5
     838:	0204a623          	sw	zero,44(s1)
     83c:	0204a823          	sw	zero,48(s1)
     840:	0204aa23          	sw	zero,52(s1)
     844:	0004aa23          	sw	zero,20(s1)
     848:	0004ac23          	sw	zero,24(s1)
     84c:	0004ae23          	sw	zero,28(s1)
     850:	0204a023          	sw	zero,32(s1)
     854:	0204a223          	sw	zero,36(s1)
     858:	0204a423          	sw	zero,40(s1)
     85c:	0204ac23          	sw	zero,56(s1)
     860:	0204ae23          	sw	zero,60(s1)
     864:	0404a023          	sw	zero,64(s1)
     868:	0404a223          	sw	zero,68(s1)
     86c:	ed1ff06f          	j	73c <spi_event_handler+0x4c>
     870:	01c4a783          	lw	a5,28(s1)
     874:	ec0780e3          	beqz	a5,734 <spi_event_handler+0x44>
     878:	0304a783          	lw	a5,48(s1)
     87c:	0204a703          	lw	a4,32(s1)
     880:	eae7fae3          	bgeu	a5,a4,734 <spi_event_handler+0x44>
     884:	04700613          	li	a2,71
     888:	0280006f          	j	8b0 <spi_event_handler+0x1c0>
     88c:	01c4a683          	lw	a3,28(s1)
     890:	20d7c7b3          	sh2add	a5,a5,a3
     894:	0007a783          	lw	a5,0(a5)
     898:	02f72623          	sw	a5,44(a4)
     89c:	0304a783          	lw	a5,48(s1)
     8a0:	00178793          	addi	a5,a5,1
     8a4:	02f4a823          	sw	a5,48(s1)
     8a8:	0204a703          	lw	a4,32(s1)
     8ac:	00e7fc63          	bgeu	a5,a4,8c4 <spi_event_handler+0x1d4>
     8b0:	0004a703          	lw	a4,0(s1)
     8b4:	00070863          	beqz	a4,8c4 <spi_event_handler+0x1d4>
     8b8:	01472683          	lw	a3,20(a4)
     8bc:	0ff6f693          	zext.b	a3,a3
     8c0:	fcd676e3          	bgeu	a2,a3,88c <spi_event_handler+0x19c>
     8c4:	03c4a783          	lw	a5,60(s1)
     8c8:	e60786e3          	beqz	a5,734 <spi_event_handler+0x44>
     8cc:	0344a683          	lw	a3,52(s1)
     8d0:	0244a603          	lw	a2,36(s1)
     8d4:	0304a583          	lw	a1,48(s1)
     8d8:	01c4a503          	lw	a0,28(s1)
     8dc:	000780e7          	jalr	a5
     8e0:	e55ff06f          	j	734 <spi_event_handler+0x44>
     8e4:	00048513          	mv	a0,s1
     8e8:	da9ff0ef          	jal	690 <spi_empty_rx>
     8ec:	e40508e3          	beqz	a0,73c <spi_event_handler+0x4c>
     8f0:	0404a783          	lw	a5,64(s1)
     8f4:	e40784e3          	beqz	a5,73c <spi_event_handler+0x4c>
     8f8:	0344a683          	lw	a3,52(s1)
     8fc:	0244a603          	lw	a2,36(s1)
     900:	0304a583          	lw	a1,48(s1)
     904:	01c4a503          	lw	a0,28(s1)
     908:	000780e7          	jalr	a5
     90c:	e31ff06f          	j	73c <spi_event_handler+0x4c>
     910:	01452783          	lw	a5,20(a0)
     914:	e19ff06f          	j	72c <spi_event_handler+0x3c>

00000918 <spi_error_handler>:
     918:	fe010113          	addi	sp,sp,-32
     91c:	00112e23          	sw	ra,28(sp)
     920:	00912c23          	sw	s1,24(sp)
     924:	00050493          	mv	s1,a0
     928:	00052783          	lw	a5,0(a0)
     92c:	02078263          	beqz	a5,950 <spi_error_handler+0x38>
     930:	0387a703          	lw	a4,56(a5)
     934:	fc077713          	andi	a4,a4,-64
     938:	02e7ac23          	sw	a4,56(a5)
     93c:	00052783          	lw	a5,0(a0)
     940:	00078863          	beqz	a5,950 <spi_error_handler+0x38>
     944:	0047a703          	lw	a4,4(a5)
     948:	ffd77713          	andi	a4,a4,-3
     94c:	00e7a223          	sw	a4,4(a5)
     950:	0444a783          	lw	a5,68(s1)
     954:	00078c63          	beqz	a5,96c <spi_error_handler+0x54>
     958:	0344a683          	lw	a3,52(s1)
     95c:	0244a603          	lw	a2,36(s1)
     960:	0304a583          	lw	a1,48(s1)
     964:	01c4a503          	lw	a0,28(s1)
     968:	000780e7          	jalr	a5
     96c:	0204a623          	sw	zero,44(s1)
     970:	0204a823          	sw	zero,48(s1)
     974:	0204aa23          	sw	zero,52(s1)
     978:	0004aa23          	sw	zero,20(s1)
     97c:	0004ac23          	sw	zero,24(s1)
     980:	0004ae23          	sw	zero,28(s1)
     984:	0204a023          	sw	zero,32(s1)
     988:	0204a223          	sw	zero,36(s1)
     98c:	0204a423          	sw	zero,40(s1)
     990:	0204ac23          	sw	zero,56(s1)
     994:	0204ae23          	sw	zero,60(s1)
     998:	0404a023          	sw	zero,64(s1)
     99c:	0404a223          	sw	zero,68(s1)
     9a0:	0004a683          	lw	a3,0(s1)
     9a4:	10068463          	beqz	a3,aac <spi_error_handler+0x194>
     9a8:	0106a783          	lw	a5,16(a3)
     9ac:	40000737          	lui	a4,0x40000
     9b0:	00e7e7b3          	or	a5,a5,a4
     9b4:	00f6a823          	sw	a5,16(a3)
     9b8:	0146a783          	lw	a5,20(a3)
     9bc:	00f12623          	sw	a5,12(sp)
     9c0:	00c12783          	lw	a5,12(sp)
     9c4:	00179713          	slli	a4,a5,0x1
     9c8:	fe074ce3          	bltz	a4,9c0 <spi_error_handler+0xa8>
     9cc:	00c14783          	lbu	a5,12(sp)
     9d0:	fe0798e3          	bnez	a5,9c0 <spi_error_handler+0xa8>
     9d4:	00d14783          	lbu	a5,13(sp)
     9d8:	fe0794e3          	bnez	a5,9c0 <spi_error_handler+0xa8>
     9dc:	0106a783          	lw	a5,16(a3)
     9e0:	c0000737          	lui	a4,0xc0000
     9e4:	fff70713          	addi	a4,a4,-1 # bfffffff <_sp+0xbffd604f>
     9e8:	00e7f7b3          	and	a5,a5,a4
     9ec:	00f6a823          	sw	a5,16(a3)
     9f0:	0004a783          	lw	a5,0(s1)
     9f4:	0a078c63          	beqz	a5,aac <spi_error_handler+0x194>
     9f8:	0107a703          	lw	a4,16(a5)
     9fc:	800006b7          	lui	a3,0x80000
     a00:	00d76733          	or	a4,a4,a3
     a04:	00e7a823          	sw	a4,16(a5)
     a08:	0004a783          	lw	a5,0(s1)
     a0c:	0a078063          	beqz	a5,aac <spi_error_handler+0x194>
     a10:	0107a703          	lw	a4,16(a5)
     a14:	200006b7          	lui	a3,0x20000
     a18:	00d76733          	or	a4,a4,a3
     a1c:	00e7a823          	sw	a4,16(a5)
     a20:	0004a783          	lw	a5,0(s1)
     a24:	08078463          	beqz	a5,aac <spi_error_handler+0x194>
     a28:	0307a703          	lw	a4,48(a5)
     a2c:	01f76713          	ori	a4,a4,31
     a30:	02e7a823          	sw	a4,48(a5)
     a34:	0004a783          	lw	a5,0(s1)
     a38:	06078a63          	beqz	a5,aac <spi_error_handler+0x194>
     a3c:	0047a703          	lw	a4,4(a5)
     a40:	00176713          	ori	a4,a4,1
     a44:	00e7a223          	sw	a4,4(a5)
     a48:	0004a703          	lw	a4,0(s1)
     a4c:	0044c783          	lbu	a5,4(s1)
     a50:	00173693          	seqz	a3,a4
     a54:	0497b613          	sltiu	a2,a5,73
     a58:	00163613          	seqz	a2,a2
     a5c:	00c6e6b3          	or	a3,a3,a2
     a60:	02069063          	bnez	a3,a80 <spi_error_handler+0x168>
     a64:	01072683          	lw	a3,16(a4)
     a68:	ffff0637          	lui	a2,0xffff0
     a6c:	0ff60613          	addi	a2,a2,255 # ffff00ff <_sp+0xfffc614f>
     a70:	00c6f6b3          	and	a3,a3,a2
     a74:	00879793          	slli	a5,a5,0x8
     a78:	00d7e7b3          	or	a5,a5,a3
     a7c:	00f72823          	sw	a5,16(a4)
     a80:	0004a683          	lw	a3,0(s1)
     a84:	0054c703          	lbu	a4,5(s1)
     a88:	04173793          	sltiu	a5,a4,65
     a8c:	0017b793          	seqz	a5,a5
     a90:	0016b613          	seqz	a2,a3
     a94:	00c7e7b3          	or	a5,a5,a2
     a98:	00079a63          	bnez	a5,aac <spi_error_handler+0x194>
     a9c:	0106a783          	lw	a5,16(a3) # 20000010 <_sp+0x1ffd6060>
     aa0:	f007f793          	andi	a5,a5,-256
     aa4:	00f76733          	or	a4,a4,a5
     aa8:	00e6a823          	sw	a4,16(a3)
     aac:	0004a423          	sw	zero,8(s1)
     ab0:	00800793          	li	a5,8
     ab4:	00f4a823          	sw	a5,16(s1)
     ab8:	01c12083          	lw	ra,28(sp)
     abc:	01812483          	lw	s1,24(sp)
     ac0:	02010113          	addi	sp,sp,32
     ac4:	00008067          	ret

00000ac8 <_writestr>:
     ac8:	ff010113          	addi	sp,sp,-16
     acc:	00112623          	sw	ra,12(sp)
     ad0:	00912423          	sw	s1,8(sp)
     ad4:	00050493          	mv	s1,a0
     ad8:	535070ef          	jal	880c <strlen>
     adc:	00150613          	addi	a2,a0,1
     ae0:	00048593          	mv	a1,s1
     ae4:	00100513          	li	a0,1
     ae8:	b09ff0ef          	jal	5f0 <_write>
     aec:	00c12083          	lw	ra,12(sp)
     af0:	00812483          	lw	s1,8(sp)
     af4:	01010113          	addi	sp,sp,16
     af8:	00008067          	ret

00000afc <print_exc_msg>:
     afc:	fe010113          	addi	sp,sp,-32
     b00:	00112e23          	sw	ra,28(sp)
     b04:	00912c23          	sw	s1,24(sp)
     b08:	fc1ff0ef          	jal	ac8 <_writestr>
     b0c:	343024f3          	csrr	s1,mtval
     b10:	00020537          	lui	a0,0x20
     b14:	4a050513          	addi	a0,a0,1184 # 204a0 <__clz_tab+0x1b0>
     b18:	fb1ff0ef          	jal	ac8 <_writestr>
     b1c:	0184d793          	srli	a5,s1,0x18
     b20:	00f10423          	sb	a5,8(sp)
     b24:	0104d793          	srli	a5,s1,0x10
     b28:	00f104a3          	sb	a5,9(sp)
     b2c:	0084d793          	srli	a5,s1,0x8
     b30:	00f10523          	sb	a5,10(sp)
     b34:	009105a3          	sb	s1,11(sp)
     b38:	00a00793          	li	a5,10
     b3c:	00f10623          	sb	a5,12(sp)
     b40:	000106a3          	sb	zero,13(sp)
     b44:	00810513          	addi	a0,sp,8
     b48:	f81ff0ef          	jal	ac8 <_writestr>
     b4c:	0000006f          	j	b4c <print_exc_msg+0x50>

00000b50 <inferenceTPG>:
     b50:	de010113          	addi	sp,sp,-544
     b54:	20112e23          	sw	ra,540(sp)
     b58:	20912c23          	sw	s1,536(sp)
     b5c:	21212a23          	sw	s2,532(sp)
     b60:	21312823          	sw	s3,528(sp)
     b64:	21412623          	sw	s4,524(sp)
     b68:	21512423          	sw	s5,520(sp)
     b6c:	21612223          	sw	s6,516(sp)
     b70:	21712023          	sw	s7,512(sp)
     b74:	1f812e23          	sw	s8,508(sp)
     b78:	1f912c23          	sw	s9,504(sp)
     b7c:	1fa12a23          	sw	s10,500(sp)
     b80:	00050d13          	mv	s10,a0
     b84:	00058a93          	mv	s5,a1
     b88:	00060a13          	mv	s4,a2
     b8c:	00068493          	mv	s1,a3
     b90:	00070913          	mv	s2,a4
     b94:	00078993          	mv	s3,a5
     b98:	000067b7          	lui	a5,0x6
     b9c:	24878793          	addi	a5,a5,584 # 6248 <T25_start>
     ba0:	00078067          	jr	a5

00000ba4 <T0_start>:
     ba4:	b0002773          	csrr	a4,mcycle
     ba8:	0084a783          	lw	a5,8(s1)
     bac:	0a07e7b3          	max	a5,a5,zero
     bb0:	00f12e23          	sw	a5,28(sp)
     bb4:	02012023          	sw	zero,32(sp)

00000bb8 <T0_end>:
     bb8:	b00027f3          	csrr	a5,mcycle
     bbc:	40e787b3          	sub	a5,a5,a4
     bc0:	00f9a023          	sw	a5,0(s3)
     bc4:	00020737          	lui	a4,0x20
     bc8:	01c12783          	lw	a5,28(sp)
     bcc:	02012603          	lw	a2,32(sp)
     bd0:	00f627b3          	slt	a5,a2,a5
     bd4:	0017b793          	seqz	a5,a5
     bd8:	93418693          	addi	a3,gp,-1740 # 21d38 <next.27>
     bdc:	20d7c7b3          	sh2add	a5,a5,a3
     be0:	0007a783          	lw	a5,0(a5)
     be4:	1fc70713          	addi	a4,a4,508 # 201fc <jump_table.28>
     be8:	20e7c7b3          	sh2add	a5,a5,a4
     bec:	0007a783          	lw	a5,0(a5)
     bf0:	fb1ff06f          	j	ba0 <inferenceTPG+0x50>

00000bf4 <T1_start>:
     bf4:	b0002773          	csrr	a4,mcycle
     bf8:	0044a783          	lw	a5,4(s1)
     bfc:	004aa683          	lw	a3,4(s5)
     c00:	00d787b3          	add	a5,a5,a3
     c04:	02f12223          	sw	a5,36(sp)
     c08:	0084a783          	lw	a5,8(s1)
     c0c:	0a07e7b3          	max	a5,a5,zero
     c10:	02f12423          	sw	a5,40(sp)
     c14:	02012623          	sw	zero,44(sp)

00000c18 <T1_end>:
     c18:	b00027f3          	csrr	a5,mcycle
     c1c:	40e787b3          	sub	a5,a5,a4
     c20:	00f9a223          	sw	a5,4(s3)
     c24:	02412683          	lw	a3,36(sp)
     c28:	02812703          	lw	a4,40(sp)
     c2c:	00100793          	li	a5,1
     c30:	00d75663          	bge	a4,a3,c3c <T1_end+0x24>
     c34:	00068713          	mv	a4,a3
     c38:	00000793          	li	a5,0
     c3c:	02c12683          	lw	a3,44(sp)
     c40:	00e6c463          	blt	a3,a4,c48 <T1_end+0x30>
     c44:	00200793          	li	a5,2
     c48:	00020737          	lui	a4,0x20
     c4c:	000206b7          	lui	a3,0x20
     c50:	1f068693          	addi	a3,a3,496 # 201f0 <next.26>
     c54:	20d7c7b3          	sh2add	a5,a5,a3
     c58:	0007a783          	lw	a5,0(a5)
     c5c:	1fc70713          	addi	a4,a4,508 # 201fc <jump_table.28>
     c60:	20e7c7b3          	sh2add	a5,a5,a4
     c64:	0007a783          	lw	a5,0(a5)
     c68:	f39ff06f          	j	ba0 <inferenceTPG+0x50>

00000c6c <T2_start>:
     c6c:	b00026f3          	csrr	a3,mcycle
     c70:	0084a703          	lw	a4,8(s1)
     c74:	0a0767b3          	max	a5,a4,zero
     c78:	08f12223          	sw	a5,132(sp)
     c7c:	0044a783          	lw	a5,4(s1)
     c80:	00179613          	slli	a2,a5,0x1
     c84:	08c12423          	sw	a2,136(sp)
     c88:	40e787b3          	sub	a5,a5,a4
     c8c:	08f12623          	sw	a5,140(sp)
     c90:	08012823          	sw	zero,144(sp)

00000c94 <T2_end>:
     c94:	b00027f3          	csrr	a5,mcycle
     c98:	40d787b3          	sub	a5,a5,a3
     c9c:	00f9a423          	sw	a5,8(s3)
     ca0:	08412683          	lw	a3,132(sp)
     ca4:	08812703          	lw	a4,136(sp)
     ca8:	00100793          	li	a5,1
     cac:	00d75663          	bge	a4,a3,cb8 <T2_end+0x24>
     cb0:	00068713          	mv	a4,a3
     cb4:	00000793          	li	a5,0
     cb8:	08c12683          	lw	a3,140(sp)
     cbc:	02e6dc63          	bge	a3,a4,cf4 <T2_end+0x60>
     cc0:	00070693          	mv	a3,a4
     cc4:	09012703          	lw	a4,144(sp)
     cc8:	00d74463          	blt	a4,a3,cd0 <T2_end+0x3c>
     ccc:	00300793          	li	a5,3
     cd0:	00020737          	lui	a4,0x20
     cd4:	000206b7          	lui	a3,0x20
     cd8:	1e068693          	addi	a3,a3,480 # 201e0 <next.25>
     cdc:	20d7c7b3          	sh2add	a5,a5,a3
     ce0:	0007a783          	lw	a5,0(a5)
     ce4:	1fc70713          	addi	a4,a4,508 # 201fc <jump_table.28>
     ce8:	20e7c7b3          	sh2add	a5,a5,a4
     cec:	0007a783          	lw	a5,0(a5)
     cf0:	eb1ff06f          	j	ba0 <inferenceTPG+0x50>
     cf4:	00200793          	li	a5,2
     cf8:	fcdff06f          	j	cc4 <T2_end+0x30>

00000cfc <T3_start>:
     cfc:	b00027f3          	csrr	a5,mcycle
     d00:	00078c93          	mv	s9,a5
     d04:	0044ac03          	lw	s8,4(s1)
     d08:	000107b7          	lui	a5,0x10
     d0c:	180c0c63          	beqz	s8,ea4 <T3_start+0x1a8>
     d10:	41800733          	neg	a4,s8
     d14:	0aec6733          	max	a4,s8,a4
     d18:	41f75793          	srai	a5,a4,0x1f
     d1c:	000176b7          	lui	a3,0x17
     d20:	15468693          	addi	a3,a3,340 # 17154 <heap.cpp.6b15d6f6+0x953>
     d24:	02d787b3          	mul	a5,a5,a3
     d28:	02d70b33          	mul	s6,a4,a3
     d2c:	02d73733          	mulhu	a4,a4,a3
     d30:	00e787b3          	add	a5,a5,a4
     d34:	01079793          	slli	a5,a5,0x10
     d38:	010b5b13          	srli	s6,s6,0x10
     d3c:	01678b33          	add	s6,a5,s6
     d40:	000087b7          	lui	a5,0x8
     d44:	00fb0b33          	add	s6,s6,a5
     d48:	ffff07b7          	lui	a5,0xffff0
     d4c:	00fb7b33          	and	s6,s6,a5
     d50:	400c4c63          	bltz	s8,1168 <T3_end+0x60>
     d54:	41fb5713          	srai	a4,s6,0x1f
     d58:	0000b6b7          	lui	a3,0xb
     d5c:	17268693          	addi	a3,a3,370 # b172 <__subdf3+0x62e>
     d60:	02d70733          	mul	a4,a4,a3
     d64:	02db07b3          	mul	a5,s6,a3
     d68:	02db36b3          	mulhu	a3,s6,a3
     d6c:	00d70733          	add	a4,a4,a3
     d70:	01071713          	slli	a4,a4,0x10
     d74:	0107d793          	srli	a5,a5,0x10
     d78:	00f707b3          	add	a5,a4,a5
     d7c:	40fc07b3          	sub	a5,s8,a5
     d80:	41f7d693          	srai	a3,a5,0x1f
     d84:	02f686b3          	mul	a3,a3,a5
     d88:	02f78733          	mul	a4,a5,a5
     d8c:	02f7b633          	mulhu	a2,a5,a5
     d90:	20c6a6b3          	sh1add	a3,a3,a2
     d94:	01069693          	slli	a3,a3,0x10
     d98:	01075713          	srli	a4,a4,0x10
     d9c:	00e68733          	add	a4,a3,a4
     da0:	41f75513          	srai	a0,a4,0x1f
     da4:	01e75693          	srli	a3,a4,0x1e
     da8:	20d546b3          	sh2add	a3,a0,a3
     dac:	00271613          	slli	a2,a4,0x2
     db0:	01069693          	slli	a3,a3,0x10
     db4:	01065613          	srli	a2,a2,0x10
     db8:	00c68633          	add	a2,a3,a2
     dbc:	f4a60613          	addi	a2,a2,-182
     dc0:	41f65593          	srai	a1,a2,0x1f
     dc4:	02e585b3          	mul	a1,a1,a4
     dc8:	02c506b3          	mul	a3,a0,a2
     dcc:	00d585b3          	add	a1,a1,a3
     dd0:	02e606b3          	mul	a3,a2,a4
     dd4:	02e63633          	mulhu	a2,a2,a4
     dd8:	00c58633          	add	a2,a1,a2
     ddc:	01061613          	slli	a2,a2,0x10
     de0:	0106d693          	srli	a3,a3,0x10
     de4:	00d606b3          	add	a3,a2,a3
     de8:	00003637          	lui	a2,0x3
     dec:	aab60613          	addi	a2,a2,-1365 # 2aab <T9_start+0x2f>
     df0:	00c686b3          	add	a3,a3,a2
     df4:	41f6d613          	srai	a2,a3,0x1f
     df8:	02e60633          	mul	a2,a2,a4
     dfc:	02d50533          	mul	a0,a0,a3
     e00:	00a60633          	add	a2,a2,a0
     e04:	02e685b3          	mul	a1,a3,a4
     e08:	02e6b6b3          	mulhu	a3,a3,a4
     e0c:	00d60733          	add	a4,a2,a3
     e10:	01071713          	slli	a4,a4,0x10
     e14:	0105d693          	srli	a3,a1,0x10
     e18:	00d706b3          	add	a3,a4,a3
     e1c:	00020737          	lui	a4,0x20
     e20:	00e686b3          	add	a3,a3,a4
     e24:	40f68633          	sub	a2,a3,a5
     e28:	02f68c63          	beq	a3,a5,e60 <T3_start+0x164>
     e2c:	00f7d713          	srli	a4,a5,0xf
     e30:	01179793          	slli	a5,a5,0x11
     e34:	01071713          	slli	a4,a4,0x10
     e38:	0107d793          	srli	a5,a5,0x10
     e3c:	00f707b3          	add	a5,a4,a5
     e40:	41f7d713          	srai	a4,a5,0x1f
     e44:	0107d593          	srli	a1,a5,0x10
     e48:	01071713          	slli	a4,a4,0x10
     e4c:	41f65693          	srai	a3,a2,0x1f
     e50:	01079513          	slli	a0,a5,0x10
     e54:	00e585b3          	add	a1,a1,a4
     e58:	4dc0a0ef          	jal	b334 <__divdi3>
     e5c:	00050613          	mv	a2,a0
     e60:	000107b7          	lui	a5,0x10
     e64:	00f606b3          	add	a3,a2,a5
     e68:	300b4463          	bltz	s6,1170 <T3_end+0x68>
     e6c:	410b5b13          	srai	s6,s6,0x10
     e70:	00010737          	lui	a4,0x10
     e74:	01671733          	sll	a4,a4,s6
     e78:	41f75793          	srai	a5,a4,0x1f
     e7c:	41f6d613          	srai	a2,a3,0x1f
     e80:	02d787b3          	mul	a5,a5,a3
     e84:	02e60633          	mul	a2,a2,a4
     e88:	00c787b3          	add	a5,a5,a2
     e8c:	02d70633          	mul	a2,a4,a3
     e90:	02d73733          	mulhu	a4,a4,a3
     e94:	00e787b3          	add	a5,a5,a4
     e98:	01079793          	slli	a5,a5,0x10
     e9c:	01065713          	srli	a4,a2,0x10
     ea0:	00e787b3          	add	a5,a5,a4
     ea4:	08f12a23          	sw	a5,148(sp)
     ea8:	000aa783          	lw	a5,0(s5)
     eac:	08f12c23          	sw	a5,152(sp)
     eb0:	00492683          	lw	a3,4(s2)
     eb4:	00000593          	li	a1,0
     eb8:	2406c063          	bltz	a3,10f8 <T3_start+0x3fc>
     ebc:	2c068863          	beqz	a3,118c <T3_end+0x84>
     ec0:	000207b7          	lui	a5,0x20
     ec4:	2cd7d063          	bge	a5,a3,1184 <T3_end+0x7c>
     ec8:	00000b13          	li	s6,0
     ecc:	4016d693          	srai	a3,a3,0x1
     ed0:	001b0b13          	addi	s6,s6,1
     ed4:	fed7cce3          	blt	a5,a3,ecc <T3_start+0x1d0>
     ed8:	ffff0bb7          	lui	s7,0xffff0
     edc:	01768bb3          	add	s7,a3,s7
     ee0:	41fbd793          	srai	a5,s7,0x1f
     ee4:	010bd593          	srli	a1,s7,0x10
     ee8:	01079793          	slli	a5,a5,0x10
     eec:	00010737          	lui	a4,0x10
     ef0:	00e68633          	add	a2,a3,a4
     ef4:	41f65693          	srai	a3,a2,0x1f
     ef8:	010b9513          	slli	a0,s7,0x10
     efc:	00f585b3          	add	a1,a1,a5
     f00:	4340a0ef          	jal	b334 <__divdi3>
     f04:	41f55613          	srai	a2,a0,0x1f
     f08:	02a607b3          	mul	a5,a2,a0
     f0c:	02a50733          	mul	a4,a0,a0
     f10:	02a536b3          	mulhu	a3,a0,a0
     f14:	20d7a7b3          	sh1add	a5,a5,a3
     f18:	01079793          	slli	a5,a5,0x10
     f1c:	01075713          	srli	a4,a4,0x10
     f20:	00e78733          	add	a4,a5,a4
     f24:	41f75313          	srai	t1,a4,0x1f
     f28:	02e306b3          	mul	a3,t1,a4
     f2c:	02e707b3          	mul	a5,a4,a4
     f30:	02e735b3          	mulhu	a1,a4,a4
     f34:	20b6a6b3          	sh1add	a3,a3,a1
     f38:	01069693          	slli	a3,a3,0x10
     f3c:	0107d793          	srli	a5,a5,0x10
     f40:	00f687b3          	add	a5,a3,a5
     f44:	41f7d813          	srai	a6,a5,0x1f
     f48:	010b1b13          	slli	s6,s6,0x10
     f4c:	41fb5693          	srai	a3,s6,0x1f
     f50:	0000b8b7          	lui	a7,0xb
     f54:	17288893          	addi	a7,a7,370 # b172 <__subdf3+0x62e>
     f58:	031686b3          	mul	a3,a3,a7
     f5c:	031b05b3          	mul	a1,s6,a7
     f60:	031b3b33          	mulhu	s6,s6,a7
     f64:	016686b3          	add	a3,a3,s6
     f68:	01069693          	slli	a3,a3,0x10
     f6c:	0105d593          	srli	a1,a1,0x10
     f70:	00b685b3          	add	a1,a3,a1
     f74:	00bb85b3          	add	a1,s7,a1
     f78:	000028b7          	lui	a7,0x2
     f7c:	5e288893          	addi	a7,a7,1506 # 25e2 <T7_end+0x96>
     f80:	03180e33          	mul	t3,a6,a7
     f84:	031786b3          	mul	a3,a5,a7
     f88:	0317b8b3          	mulhu	a7,a5,a7
     f8c:	011e08b3          	add	a7,t3,a7
     f90:	01089893          	slli	a7,a7,0x10
     f94:	0106d693          	srli	a3,a3,0x10
     f98:	00d886b3          	add	a3,a7,a3
     f9c:	000038b7          	lui	a7,0x3
     fa0:	e8d88893          	addi	a7,a7,-371 # 2e8d <T9_start+0x411>
     fa4:	011686b3          	add	a3,a3,a7
     fa8:	41f6de13          	srai	t3,a3,0x1f
     fac:	02fe0e33          	mul	t3,t3,a5
     fb0:	02d808b3          	mul	a7,a6,a3
     fb4:	011e0e33          	add	t3,t3,a7
     fb8:	02f688b3          	mul	a7,a3,a5
     fbc:	02f6b6b3          	mulhu	a3,a3,a5
     fc0:	00de06b3          	add	a3,t3,a3
     fc4:	01069693          	slli	a3,a3,0x10
     fc8:	0108d893          	srli	a7,a7,0x10
     fcc:	011688b3          	add	a7,a3,a7
     fd0:	000056b7          	lui	a3,0x5
     fd4:	92568693          	addi	a3,a3,-1755 # 4925 <T16_start+0x2ed>
     fd8:	00d888b3          	add	a7,a7,a3
     fdc:	41f8de13          	srai	t3,a7,0x1f
     fe0:	02fe0e33          	mul	t3,t3,a5
     fe4:	031806b3          	mul	a3,a6,a7
     fe8:	00de0e33          	add	t3,t3,a3
     fec:	02f886b3          	mul	a3,a7,a5
     ff0:	02f8b8b3          	mulhu	a7,a7,a5
     ff4:	011e08b3          	add	a7,t3,a7
     ff8:	01089893          	slli	a7,a7,0x10
     ffc:	0106d693          	srli	a3,a3,0x10
    1000:	00d886b3          	add	a3,a7,a3
    1004:	0000b8b7          	lui	a7,0xb
    1008:	aab88893          	addi	a7,a7,-1365 # aaab <__muldf3+0x54f>
    100c:	011686b3          	add	a3,a3,a7
    1010:	41f6d893          	srai	a7,a3,0x1f
    1014:	02e888b3          	mul	a7,a7,a4
    1018:	02d30333          	mul	t1,t1,a3
    101c:	00688333          	add	t1,a7,t1
    1020:	02e688b3          	mul	a7,a3,a4
    1024:	02e6b6b3          	mulhu	a3,a3,a4
    1028:	00d30733          	add	a4,t1,a3
    102c:	01071713          	slli	a4,a4,0x10
    1030:	0108d893          	srli	a7,a7,0x10
    1034:	011708b3          	add	a7,a4,a7
    1038:	00002737          	lui	a4,0x2
    103c:	73470713          	addi	a4,a4,1844 # 2734 <T8_start+0x13c>
    1040:	02e80333          	mul	t1,a6,a4
    1044:	02e786b3          	mul	a3,a5,a4
    1048:	02e7b733          	mulhu	a4,a5,a4
    104c:	00e30733          	add	a4,t1,a4
    1050:	01071713          	slli	a4,a4,0x10
    1054:	0106d693          	srli	a3,a3,0x10
    1058:	00d706b3          	add	a3,a4,a3
    105c:	00004737          	lui	a4,0x4
    1060:	8e470713          	addi	a4,a4,-1820 # 38e4 <T12_start+0x278>
    1064:	00e686b3          	add	a3,a3,a4
    1068:	41f6d313          	srai	t1,a3,0x1f
    106c:	02f30333          	mul	t1,t1,a5
    1070:	02d80733          	mul	a4,a6,a3
    1074:	00e30333          	add	t1,t1,a4
    1078:	02f68733          	mul	a4,a3,a5
    107c:	02f6b6b3          	mulhu	a3,a3,a5
    1080:	00d306b3          	add	a3,t1,a3
    1084:	01069693          	slli	a3,a3,0x10
    1088:	01075713          	srli	a4,a4,0x10
    108c:	00e68733          	add	a4,a3,a4
    1090:	000066b7          	lui	a3,0x6
    1094:	66668693          	addi	a3,a3,1638 # 6666 <T25_start+0x41e>
    1098:	00d70733          	add	a4,a4,a3
    109c:	41f75693          	srai	a3,a4,0x1f
    10a0:	02f686b3          	mul	a3,a3,a5
    10a4:	02e80833          	mul	a6,a6,a4
    10a8:	010686b3          	add	a3,a3,a6
    10ac:	02f70833          	mul	a6,a4,a5
    10b0:	02f73733          	mulhu	a4,a4,a5
    10b4:	00e687b3          	add	a5,a3,a4
    10b8:	01079793          	slli	a5,a5,0x10
    10bc:	01085713          	srli	a4,a6,0x10
    10c0:	00e78733          	add	a4,a5,a4
    10c4:	00e888b3          	add	a7,a7,a4
    10c8:	411b8bb3          	sub	s7,s7,a7
    10cc:	41fbd793          	srai	a5,s7,0x1f
    10d0:	02a787b3          	mul	a5,a5,a0
    10d4:	03760633          	mul	a2,a2,s7
    10d8:	00c787b3          	add	a5,a5,a2
    10dc:	02ab8733          	mul	a4,s7,a0
    10e0:	02abbbb3          	mulhu	s7,s7,a0
    10e4:	017787b3          	add	a5,a5,s7
    10e8:	01079793          	slli	a5,a5,0x10
    10ec:	01075713          	srli	a4,a4,0x10
    10f0:	00e78733          	add	a4,a5,a4
    10f4:	40e585b3          	sub	a1,a1,a4
    10f8:	08b12e23          	sw	a1,156(sp)
    10fc:	0084a783          	lw	a5,8(s1)
    1100:	0b87e7b3          	max	a5,a5,s8
    1104:	0af12023          	sw	a5,160(sp)

00001108 <T3_end>:
    1108:	b00027f3          	csrr	a5,mcycle
    110c:	419787b3          	sub	a5,a5,s9
    1110:	00f9a623          	sw	a5,12(s3)
    1114:	09412683          	lw	a3,148(sp)
    1118:	09812703          	lw	a4,152(sp)
    111c:	00100793          	li	a5,1
    1120:	00d75663          	bge	a4,a3,112c <T3_end+0x24>
    1124:	00068713          	mv	a4,a3
    1128:	00000793          	li	a5,0
    112c:	09c12683          	lw	a3,156(sp)
    1130:	06e6d263          	bge	a3,a4,1194 <T3_end+0x8c>
    1134:	00070693          	mv	a3,a4
    1138:	0a012703          	lw	a4,160(sp)
    113c:	00d74463          	blt	a4,a3,1144 <T3_end+0x3c>
    1140:	00300793          	li	a5,3
    1144:	00020737          	lui	a4,0x20
    1148:	000206b7          	lui	a3,0x20
    114c:	1d068693          	addi	a3,a3,464 # 201d0 <next.24>
    1150:	20d7c7b3          	sh2add	a5,a5,a3
    1154:	0007a783          	lw	a5,0(a5) # 20000 <heap.cpp.6b15d6f6+0x97ff>
    1158:	1fc70713          	addi	a4,a4,508 # 201fc <jump_table.28>
    115c:	20e7c7b3          	sh2add	a5,a5,a4
    1160:	0007a783          	lw	a5,0(a5)
    1164:	a3dff06f          	j	ba0 <inferenceTPG+0x50>
    1168:	41600b33          	neg	s6,s6
    116c:	be9ff06f          	j	d54 <T3_start+0x58>
    1170:	416007b3          	neg	a5,s6
    1174:	4107d793          	srai	a5,a5,0x10
    1178:	00010737          	lui	a4,0x10
    117c:	40f75733          	sra	a4,a4,a5
    1180:	cf9ff06f          	j	e78 <T3_start+0x17c>
    1184:	00000b13          	li	s6,0
    1188:	d51ff06f          	j	ed8 <T3_start+0x1dc>
    118c:	fff00593          	li	a1,-1
    1190:	f69ff06f          	j	10f8 <T3_start+0x3fc>
    1194:	00200793          	li	a5,2
    1198:	fa1ff06f          	j	1138 <T3_end+0x30>

0000119c <T4_start>:
    119c:	b0002b73          	csrr	s6,mcycle
    11a0:	00492c03          	lw	s8,4(s2)
    11a4:	000107b7          	lui	a5,0x10
    11a8:	180c0c63          	beqz	s8,1340 <T4_start+0x1a4>
    11ac:	41800733          	neg	a4,s8
    11b0:	0aec6733          	max	a4,s8,a4
    11b4:	41f75793          	srai	a5,a4,0x1f
    11b8:	000176b7          	lui	a3,0x17
    11bc:	15468693          	addi	a3,a3,340 # 17154 <heap.cpp.6b15d6f6+0x953>
    11c0:	02d787b3          	mul	a5,a5,a3
    11c4:	02d70bb3          	mul	s7,a4,a3
    11c8:	02d73733          	mulhu	a4,a4,a3
    11cc:	00e787b3          	add	a5,a5,a4
    11d0:	01079793          	slli	a5,a5,0x10
    11d4:	010bdb93          	srli	s7,s7,0x10
    11d8:	01778bb3          	add	s7,a5,s7
    11dc:	000087b7          	lui	a5,0x8
    11e0:	00fb8bb3          	add	s7,s7,a5
    11e4:	ffff07b7          	lui	a5,0xffff0
    11e8:	00fbfbb3          	and	s7,s7,a5
    11ec:	380c4c63          	bltz	s8,1584 <T4_end+0x60>
    11f0:	41fbd713          	srai	a4,s7,0x1f
    11f4:	0000b6b7          	lui	a3,0xb
    11f8:	17268693          	addi	a3,a3,370 # b172 <__subdf3+0x62e>
    11fc:	02d70733          	mul	a4,a4,a3
    1200:	02db87b3          	mul	a5,s7,a3
    1204:	02dbb6b3          	mulhu	a3,s7,a3
    1208:	00d70733          	add	a4,a4,a3
    120c:	01071713          	slli	a4,a4,0x10
    1210:	0107d793          	srli	a5,a5,0x10
    1214:	00f707b3          	add	a5,a4,a5
    1218:	40fc07b3          	sub	a5,s8,a5
    121c:	41f7d693          	srai	a3,a5,0x1f
    1220:	02f686b3          	mul	a3,a3,a5
    1224:	02f78733          	mul	a4,a5,a5
    1228:	02f7b633          	mulhu	a2,a5,a5
    122c:	20c6a6b3          	sh1add	a3,a3,a2
    1230:	01069693          	slli	a3,a3,0x10
    1234:	01075713          	srli	a4,a4,0x10
    1238:	00e68733          	add	a4,a3,a4
    123c:	41f75513          	srai	a0,a4,0x1f
    1240:	01e75693          	srli	a3,a4,0x1e
    1244:	20d546b3          	sh2add	a3,a0,a3
    1248:	00271613          	slli	a2,a4,0x2
    124c:	01069693          	slli	a3,a3,0x10
    1250:	01065613          	srli	a2,a2,0x10
    1254:	00c68633          	add	a2,a3,a2
    1258:	f4a60613          	addi	a2,a2,-182
    125c:	41f65593          	srai	a1,a2,0x1f
    1260:	02e585b3          	mul	a1,a1,a4
    1264:	02c506b3          	mul	a3,a0,a2
    1268:	00d585b3          	add	a1,a1,a3
    126c:	02e606b3          	mul	a3,a2,a4
    1270:	02e63633          	mulhu	a2,a2,a4
    1274:	00c58633          	add	a2,a1,a2
    1278:	01061613          	slli	a2,a2,0x10
    127c:	0106d693          	srli	a3,a3,0x10
    1280:	00d606b3          	add	a3,a2,a3
    1284:	00003637          	lui	a2,0x3
    1288:	aab60613          	addi	a2,a2,-1365 # 2aab <T9_start+0x2f>
    128c:	00c686b3          	add	a3,a3,a2
    1290:	41f6d613          	srai	a2,a3,0x1f
    1294:	02e60633          	mul	a2,a2,a4
    1298:	02d50533          	mul	a0,a0,a3
    129c:	00a60633          	add	a2,a2,a0
    12a0:	02e685b3          	mul	a1,a3,a4
    12a4:	02e6b6b3          	mulhu	a3,a3,a4
    12a8:	00d60733          	add	a4,a2,a3
    12ac:	01071713          	slli	a4,a4,0x10
    12b0:	0105d693          	srli	a3,a1,0x10
    12b4:	00d706b3          	add	a3,a4,a3
    12b8:	00020737          	lui	a4,0x20
    12bc:	00e686b3          	add	a3,a3,a4
    12c0:	40f68633          	sub	a2,a3,a5
    12c4:	02f68c63          	beq	a3,a5,12fc <T4_start+0x160>
    12c8:	00f7d713          	srli	a4,a5,0xf
    12cc:	01179793          	slli	a5,a5,0x11
    12d0:	01071713          	slli	a4,a4,0x10
    12d4:	0107d793          	srli	a5,a5,0x10
    12d8:	00f707b3          	add	a5,a4,a5
    12dc:	41f7d713          	srai	a4,a5,0x1f
    12e0:	0107d593          	srli	a1,a5,0x10
    12e4:	01071713          	slli	a4,a4,0x10
    12e8:	41f65693          	srai	a3,a2,0x1f
    12ec:	01079513          	slli	a0,a5,0x10
    12f0:	00e585b3          	add	a1,a1,a4
    12f4:	0400a0ef          	jal	b334 <__divdi3>
    12f8:	00050613          	mv	a2,a0
    12fc:	000107b7          	lui	a5,0x10
    1300:	00f606b3          	add	a3,a2,a5
    1304:	280bc463          	bltz	s7,158c <T4_end+0x68>
    1308:	410bdb93          	srai	s7,s7,0x10
    130c:	00010737          	lui	a4,0x10
    1310:	01771733          	sll	a4,a4,s7
    1314:	41f75793          	srai	a5,a4,0x1f
    1318:	41f6d613          	srai	a2,a3,0x1f
    131c:	02d787b3          	mul	a5,a5,a3
    1320:	02e60633          	mul	a2,a2,a4
    1324:	00c787b3          	add	a5,a5,a2
    1328:	02d70633          	mul	a2,a4,a3
    132c:	02d73733          	mulhu	a4,a4,a3
    1330:	00e787b3          	add	a5,a5,a4
    1334:	01079793          	slli	a5,a5,0x10
    1338:	01065713          	srli	a4,a2,0x10
    133c:	00e787b3          	add	a5,a5,a4
    1340:	0af12223          	sw	a5,164(sp)
    1344:	01092603          	lw	a2,16(s2)
    1348:	02060263          	beqz	a2,136c <T4_start+0x1d0>
    134c:	41fc5793          	srai	a5,s8,0x1f
    1350:	010c5593          	srli	a1,s8,0x10
    1354:	01079793          	slli	a5,a5,0x10
    1358:	41f65693          	srai	a3,a2,0x1f
    135c:	010c1513          	slli	a0,s8,0x10
    1360:	00f585b3          	add	a1,a1,a5
    1364:	7d1090ef          	jal	b334 <__divdi3>
    1368:	00050613          	mv	a2,a0
    136c:	0ac12423          	sw	a2,168(sp)
    1370:	0044a783          	lw	a5,4(s1)
    1374:	00010737          	lui	a4,0x10
    1378:	18078c63          	beqz	a5,1510 <T4_start+0x374>
    137c:	40f006b3          	neg	a3,a5
    1380:	0ad7e6b3          	max	a3,a5,a3
    1384:	41f6d713          	srai	a4,a3,0x1f
    1388:	00017637          	lui	a2,0x17
    138c:	15460613          	addi	a2,a2,340 # 17154 <heap.cpp.6b15d6f6+0x953>
    1390:	02c70733          	mul	a4,a4,a2
    1394:	02c68bb3          	mul	s7,a3,a2
    1398:	02c6b6b3          	mulhu	a3,a3,a2
    139c:	00d70733          	add	a4,a4,a3
    13a0:	01071713          	slli	a4,a4,0x10
    13a4:	010bdb93          	srli	s7,s7,0x10
    13a8:	01770bb3          	add	s7,a4,s7
    13ac:	00008737          	lui	a4,0x8
    13b0:	00eb8bb3          	add	s7,s7,a4
    13b4:	ffff0737          	lui	a4,0xffff0
    13b8:	00ebfbb3          	and	s7,s7,a4
    13bc:	1e07c263          	bltz	a5,15a0 <T4_end+0x7c>
    13c0:	41fbd713          	srai	a4,s7,0x1f
    13c4:	0000b6b7          	lui	a3,0xb
    13c8:	17268693          	addi	a3,a3,370 # b172 <__subdf3+0x62e>
    13cc:	02d70733          	mul	a4,a4,a3
    13d0:	02db8633          	mul	a2,s7,a3
    13d4:	02dbb6b3          	mulhu	a3,s7,a3
    13d8:	00d70733          	add	a4,a4,a3
    13dc:	01071713          	slli	a4,a4,0x10
    13e0:	01065693          	srli	a3,a2,0x10
    13e4:	00d706b3          	add	a3,a4,a3
    13e8:	40d787b3          	sub	a5,a5,a3
    13ec:	41f7d693          	srai	a3,a5,0x1f
    13f0:	02f686b3          	mul	a3,a3,a5
    13f4:	02f78733          	mul	a4,a5,a5
    13f8:	02f7b633          	mulhu	a2,a5,a5
    13fc:	20c6a6b3          	sh1add	a3,a3,a2
    1400:	01069693          	slli	a3,a3,0x10
    1404:	01075713          	srli	a4,a4,0x10
    1408:	00e68733          	add	a4,a3,a4
    140c:	41f75513          	srai	a0,a4,0x1f
    1410:	01e75693          	srli	a3,a4,0x1e
    1414:	20d546b3          	sh2add	a3,a0,a3
    1418:	00271613          	slli	a2,a4,0x2
    141c:	01069693          	slli	a3,a3,0x10
    1420:	01065613          	srli	a2,a2,0x10
    1424:	00c68633          	add	a2,a3,a2
    1428:	f4a60613          	addi	a2,a2,-182
    142c:	41f65593          	srai	a1,a2,0x1f
    1430:	02e585b3          	mul	a1,a1,a4
    1434:	02c506b3          	mul	a3,a0,a2
    1438:	00d585b3          	add	a1,a1,a3
    143c:	02e606b3          	mul	a3,a2,a4
    1440:	02e63633          	mulhu	a2,a2,a4
    1444:	00c58633          	add	a2,a1,a2
    1448:	01061613          	slli	a2,a2,0x10
    144c:	0106d693          	srli	a3,a3,0x10
    1450:	00d606b3          	add	a3,a2,a3
    1454:	00003637          	lui	a2,0x3
    1458:	aab60613          	addi	a2,a2,-1365 # 2aab <T9_start+0x2f>
    145c:	00c686b3          	add	a3,a3,a2
    1460:	41f6d613          	srai	a2,a3,0x1f
    1464:	02e60633          	mul	a2,a2,a4
    1468:	02d50533          	mul	a0,a0,a3
    146c:	00a60633          	add	a2,a2,a0
    1470:	02e685b3          	mul	a1,a3,a4
    1474:	02e6b6b3          	mulhu	a3,a3,a4
    1478:	00d60733          	add	a4,a2,a3
    147c:	01071713          	slli	a4,a4,0x10
    1480:	0105d693          	srli	a3,a1,0x10
    1484:	00d706b3          	add	a3,a4,a3
    1488:	00020737          	lui	a4,0x20
    148c:	00e686b3          	add	a3,a3,a4
    1490:	40f68633          	sub	a2,a3,a5
    1494:	02f68c63          	beq	a3,a5,14cc <T4_start+0x330>
    1498:	00f7d713          	srli	a4,a5,0xf
    149c:	01179793          	slli	a5,a5,0x11
    14a0:	01071713          	slli	a4,a4,0x10
    14a4:	0107d793          	srli	a5,a5,0x10
    14a8:	00f707b3          	add	a5,a4,a5
    14ac:	41f7d713          	srai	a4,a5,0x1f
    14b0:	0107d593          	srli	a1,a5,0x10
    14b4:	01071713          	slli	a4,a4,0x10
    14b8:	41f65693          	srai	a3,a2,0x1f
    14bc:	01079513          	slli	a0,a5,0x10
    14c0:	00e585b3          	add	a1,a1,a4
    14c4:	671090ef          	jal	b334 <__divdi3>
    14c8:	00050613          	mv	a2,a0
    14cc:	000107b7          	lui	a5,0x10
    14d0:	00f606b3          	add	a3,a2,a5
    14d4:	0c0bca63          	bltz	s7,15a8 <T4_end+0x84>
    14d8:	410bdb93          	srai	s7,s7,0x10
    14dc:	000107b7          	lui	a5,0x10
    14e0:	017797b3          	sll	a5,a5,s7
    14e4:	41f7d713          	srai	a4,a5,0x1f
    14e8:	41f6d613          	srai	a2,a3,0x1f
    14ec:	02d70733          	mul	a4,a4,a3
    14f0:	02f60633          	mul	a2,a2,a5
    14f4:	00c70733          	add	a4,a4,a2
    14f8:	02d78633          	mul	a2,a5,a3
    14fc:	02d7b7b3          	mulhu	a5,a5,a3
    1500:	00f70733          	add	a4,a4,a5
    1504:	01071713          	slli	a4,a4,0x10
    1508:	01065793          	srli	a5,a2,0x10
    150c:	00f70733          	add	a4,a4,a5
    1510:	0ae12623          	sw	a4,172(sp)
    1514:	0084a783          	lw	a5,8(s1)
    1518:	000a2703          	lw	a4,0(s4)
    151c:	0ae7e7b3          	max	a5,a5,a4
    1520:	0af12823          	sw	a5,176(sp)

00001524 <T4_end>:
    1524:	b00027f3          	csrr	a5,mcycle
    1528:	416787b3          	sub	a5,a5,s6
    152c:	00f9a823          	sw	a5,16(s3)
    1530:	0a412683          	lw	a3,164(sp)
    1534:	0a812703          	lw	a4,168(sp)
    1538:	00100793          	li	a5,1
    153c:	00d75663          	bge	a4,a3,1548 <T4_end+0x24>
    1540:	00068713          	mv	a4,a3
    1544:	00000793          	li	a5,0
    1548:	0ac12683          	lw	a3,172(sp)
    154c:	06e6d663          	bge	a3,a4,15b8 <T4_end+0x94>
    1550:	00070693          	mv	a3,a4
    1554:	0b012703          	lw	a4,176(sp)
    1558:	00d74463          	blt	a4,a3,1560 <T4_end+0x3c>
    155c:	00300793          	li	a5,3
    1560:	00020737          	lui	a4,0x20
    1564:	000206b7          	lui	a3,0x20
    1568:	1c068693          	addi	a3,a3,448 # 201c0 <next.23>
    156c:	20d7c7b3          	sh2add	a5,a5,a3
    1570:	0007a783          	lw	a5,0(a5) # 10000 <fast_intr_ctrl.c.233e5230+0x207>
    1574:	1fc70713          	addi	a4,a4,508 # 201fc <jump_table.28>
    1578:	20e7c7b3          	sh2add	a5,a5,a4
    157c:	0007a783          	lw	a5,0(a5)
    1580:	e20ff06f          	j	ba0 <inferenceTPG+0x50>
    1584:	41700bb3          	neg	s7,s7
    1588:	c69ff06f          	j	11f0 <T4_start+0x54>
    158c:	417007b3          	neg	a5,s7
    1590:	4107d793          	srai	a5,a5,0x10
    1594:	00010737          	lui	a4,0x10
    1598:	40f75733          	sra	a4,a4,a5
    159c:	d79ff06f          	j	1314 <T4_start+0x178>
    15a0:	41700bb3          	neg	s7,s7
    15a4:	e1dff06f          	j	13c0 <T4_start+0x224>
    15a8:	41700733          	neg	a4,s7
    15ac:	41075713          	srai	a4,a4,0x10
    15b0:	40e7d7b3          	sra	a5,a5,a4
    15b4:	f31ff06f          	j	14e4 <T4_start+0x348>
    15b8:	00200793          	li	a5,2
    15bc:	f99ff06f          	j	1554 <T4_end+0x30>

000015c0 <T5_start>:
    15c0:	b00027f3          	csrr	a5,mcycle
    15c4:	00078c93          	mv	s9,a5
    15c8:	00492783          	lw	a5,4(s2)
    15cc:	00010737          	lui	a4,0x10
    15d0:	18078c63          	beqz	a5,1768 <T5_start+0x1a8>
    15d4:	40f006b3          	neg	a3,a5
    15d8:	0ad7e6b3          	max	a3,a5,a3
    15dc:	41f6d713          	srai	a4,a3,0x1f
    15e0:	00017637          	lui	a2,0x17
    15e4:	15460613          	addi	a2,a2,340 # 17154 <heap.cpp.6b15d6f6+0x953>
    15e8:	02c70733          	mul	a4,a4,a2
    15ec:	02c68b33          	mul	s6,a3,a2
    15f0:	02c6b6b3          	mulhu	a3,a3,a2
    15f4:	00d70733          	add	a4,a4,a3
    15f8:	01071713          	slli	a4,a4,0x10
    15fc:	010b5b13          	srli	s6,s6,0x10
    1600:	01670b33          	add	s6,a4,s6
    1604:	00008737          	lui	a4,0x8
    1608:	00eb0b33          	add	s6,s6,a4
    160c:	ffff0737          	lui	a4,0xffff0
    1610:	00eb7b33          	and	s6,s6,a4
    1614:	4207c063          	bltz	a5,1a34 <T5_end+0x24>
    1618:	41fb5713          	srai	a4,s6,0x1f
    161c:	0000b6b7          	lui	a3,0xb
    1620:	17268693          	addi	a3,a3,370 # b172 <__subdf3+0x62e>
    1624:	02d70733          	mul	a4,a4,a3
    1628:	02db0633          	mul	a2,s6,a3
    162c:	02db36b3          	mulhu	a3,s6,a3
    1630:	00d70733          	add	a4,a4,a3
    1634:	01071713          	slli	a4,a4,0x10
    1638:	01065693          	srli	a3,a2,0x10
    163c:	00d706b3          	add	a3,a4,a3
    1640:	40d787b3          	sub	a5,a5,a3
    1644:	41f7d693          	srai	a3,a5,0x1f
    1648:	02f686b3          	mul	a3,a3,a5
    164c:	02f78733          	mul	a4,a5,a5
    1650:	02f7b633          	mulhu	a2,a5,a5
    1654:	20c6a6b3          	sh1add	a3,a3,a2
    1658:	01069693          	slli	a3,a3,0x10
    165c:	01075713          	srli	a4,a4,0x10
    1660:	00e68733          	add	a4,a3,a4
    1664:	41f75513          	srai	a0,a4,0x1f
    1668:	01e75693          	srli	a3,a4,0x1e
    166c:	20d546b3          	sh2add	a3,a0,a3
    1670:	00271613          	slli	a2,a4,0x2
    1674:	01069693          	slli	a3,a3,0x10
    1678:	01065613          	srli	a2,a2,0x10
    167c:	00c68633          	add	a2,a3,a2
    1680:	f4a60613          	addi	a2,a2,-182
    1684:	41f65593          	srai	a1,a2,0x1f
    1688:	02e585b3          	mul	a1,a1,a4
    168c:	02c506b3          	mul	a3,a0,a2
    1690:	00d585b3          	add	a1,a1,a3
    1694:	02e606b3          	mul	a3,a2,a4
    1698:	02e63633          	mulhu	a2,a2,a4
    169c:	00c58633          	add	a2,a1,a2
    16a0:	01061613          	slli	a2,a2,0x10
    16a4:	0106d693          	srli	a3,a3,0x10
    16a8:	00d606b3          	add	a3,a2,a3
    16ac:	00003637          	lui	a2,0x3
    16b0:	aab60613          	addi	a2,a2,-1365 # 2aab <T9_start+0x2f>
    16b4:	00c686b3          	add	a3,a3,a2
    16b8:	41f6d613          	srai	a2,a3,0x1f
    16bc:	02e60633          	mul	a2,a2,a4
    16c0:	02d50533          	mul	a0,a0,a3
    16c4:	00a60633          	add	a2,a2,a0
    16c8:	02e685b3          	mul	a1,a3,a4
    16cc:	02e6b6b3          	mulhu	a3,a3,a4
    16d0:	00d60733          	add	a4,a2,a3
    16d4:	01071713          	slli	a4,a4,0x10
    16d8:	0105d693          	srli	a3,a1,0x10
    16dc:	00d706b3          	add	a3,a4,a3
    16e0:	00020737          	lui	a4,0x20
    16e4:	00e686b3          	add	a3,a3,a4
    16e8:	40f68633          	sub	a2,a3,a5
    16ec:	02f68c63          	beq	a3,a5,1724 <T5_start+0x164>
    16f0:	00f7d713          	srli	a4,a5,0xf
    16f4:	01179793          	slli	a5,a5,0x11
    16f8:	01071713          	slli	a4,a4,0x10
    16fc:	0107d793          	srli	a5,a5,0x10
    1700:	00f707b3          	add	a5,a4,a5
    1704:	41f7d713          	srai	a4,a5,0x1f
    1708:	0107d593          	srli	a1,a5,0x10
    170c:	01071713          	slli	a4,a4,0x10
    1710:	41f65693          	srai	a3,a2,0x1f
    1714:	01079513          	slli	a0,a5,0x10
    1718:	00e585b3          	add	a1,a1,a4
    171c:	419090ef          	jal	b334 <__divdi3>
    1720:	00050613          	mv	a2,a0
    1724:	000107b7          	lui	a5,0x10
    1728:	00f606b3          	add	a3,a2,a5
    172c:	300b4863          	bltz	s6,1a3c <T5_end+0x2c>
    1730:	410b5b13          	srai	s6,s6,0x10
    1734:	000107b7          	lui	a5,0x10
    1738:	016797b3          	sll	a5,a5,s6
    173c:	41f7d713          	srai	a4,a5,0x1f
    1740:	41f6d613          	srai	a2,a3,0x1f
    1744:	02d70733          	mul	a4,a4,a3
    1748:	02f60633          	mul	a2,a2,a5
    174c:	00c70733          	add	a4,a4,a2
    1750:	02d78633          	mul	a2,a5,a3
    1754:	02d7b7b3          	mulhu	a5,a5,a3
    1758:	00f70733          	add	a4,a4,a5
    175c:	01071713          	slli	a4,a4,0x10
    1760:	01065793          	srli	a5,a2,0x10
    1764:	00f70733          	add	a4,a4,a5
    1768:	12e12823          	sw	a4,304(sp)
    176c:	008a2783          	lw	a5,8(s4)
    1770:	00092703          	lw	a4,0(s2)
    1774:	40e787b3          	sub	a5,a5,a4
    1778:	12f12a23          	sw	a5,308(sp)
    177c:	0044ac03          	lw	s8,4(s1)
    1780:	0084a783          	lw	a5,8(s1)
    1784:	40fc07b3          	sub	a5,s8,a5
    1788:	12f12c23          	sw	a5,312(sp)
    178c:	000aa683          	lw	a3,0(s5)
    1790:	00000593          	li	a1,0
    1794:	2406c063          	bltz	a3,19d4 <T5_start+0x414>
    1798:	2a068e63          	beqz	a3,1a54 <T5_end+0x44>
    179c:	000207b7          	lui	a5,0x20
    17a0:	2ad7d663          	bge	a5,a3,1a4c <T5_end+0x3c>
    17a4:	00000b13          	li	s6,0
    17a8:	4016d693          	srai	a3,a3,0x1
    17ac:	001b0b13          	addi	s6,s6,1
    17b0:	fed7cce3          	blt	a5,a3,17a8 <T5_start+0x1e8>
    17b4:	ffff0bb7          	lui	s7,0xffff0
    17b8:	01768bb3          	add	s7,a3,s7
    17bc:	41fbd793          	srai	a5,s7,0x1f
    17c0:	010bd593          	srli	a1,s7,0x10
    17c4:	01079793          	slli	a5,a5,0x10
    17c8:	00010737          	lui	a4,0x10
    17cc:	00e68633          	add	a2,a3,a4
    17d0:	41f65693          	srai	a3,a2,0x1f
    17d4:	010b9513          	slli	a0,s7,0x10
    17d8:	00f585b3          	add	a1,a1,a5
    17dc:	359090ef          	jal	b334 <__divdi3>
    17e0:	41f55613          	srai	a2,a0,0x1f
    17e4:	02a607b3          	mul	a5,a2,a0
    17e8:	02a50733          	mul	a4,a0,a0
    17ec:	02a536b3          	mulhu	a3,a0,a0
    17f0:	20d7a7b3          	sh1add	a5,a5,a3
    17f4:	01079793          	slli	a5,a5,0x10
    17f8:	01075713          	srli	a4,a4,0x10
    17fc:	00e78733          	add	a4,a5,a4
    1800:	41f75313          	srai	t1,a4,0x1f
    1804:	02e306b3          	mul	a3,t1,a4
    1808:	02e707b3          	mul	a5,a4,a4
    180c:	02e735b3          	mulhu	a1,a4,a4
    1810:	20b6a6b3          	sh1add	a3,a3,a1
    1814:	01069693          	slli	a3,a3,0x10
    1818:	0107d793          	srli	a5,a5,0x10
    181c:	00f687b3          	add	a5,a3,a5
    1820:	41f7d813          	srai	a6,a5,0x1f
    1824:	010b1b13          	slli	s6,s6,0x10
    1828:	41fb5693          	srai	a3,s6,0x1f
    182c:	0000b8b7          	lui	a7,0xb
    1830:	17288893          	addi	a7,a7,370 # b172 <__subdf3+0x62e>
    1834:	031686b3          	mul	a3,a3,a7
    1838:	031b05b3          	mul	a1,s6,a7
    183c:	031b3b33          	mulhu	s6,s6,a7
    1840:	016686b3          	add	a3,a3,s6
    1844:	01069693          	slli	a3,a3,0x10
    1848:	0105d593          	srli	a1,a1,0x10
    184c:	00b685b3          	add	a1,a3,a1
    1850:	00bb85b3          	add	a1,s7,a1
    1854:	000028b7          	lui	a7,0x2
    1858:	5e288893          	addi	a7,a7,1506 # 25e2 <T7_end+0x96>
    185c:	03180e33          	mul	t3,a6,a7
    1860:	031786b3          	mul	a3,a5,a7
    1864:	0317b8b3          	mulhu	a7,a5,a7
    1868:	011e08b3          	add	a7,t3,a7
    186c:	01089893          	slli	a7,a7,0x10
    1870:	0106d693          	srli	a3,a3,0x10
    1874:	00d886b3          	add	a3,a7,a3
    1878:	000038b7          	lui	a7,0x3
    187c:	e8d88893          	addi	a7,a7,-371 # 2e8d <T9_start+0x411>
    1880:	011686b3          	add	a3,a3,a7
    1884:	41f6de13          	srai	t3,a3,0x1f
    1888:	02fe0e33          	mul	t3,t3,a5
    188c:	02d808b3          	mul	a7,a6,a3
    1890:	011e0e33          	add	t3,t3,a7
    1894:	02f688b3          	mul	a7,a3,a5
    1898:	02f6b6b3          	mulhu	a3,a3,a5
    189c:	00de06b3          	add	a3,t3,a3
    18a0:	01069693          	slli	a3,a3,0x10
    18a4:	0108d893          	srli	a7,a7,0x10
    18a8:	011688b3          	add	a7,a3,a7
    18ac:	000056b7          	lui	a3,0x5
    18b0:	92568693          	addi	a3,a3,-1755 # 4925 <T16_start+0x2ed>
    18b4:	00d888b3          	add	a7,a7,a3
    18b8:	41f8de13          	srai	t3,a7,0x1f
    18bc:	02fe0e33          	mul	t3,t3,a5
    18c0:	031806b3          	mul	a3,a6,a7
    18c4:	00de0e33          	add	t3,t3,a3
    18c8:	02f886b3          	mul	a3,a7,a5
    18cc:	02f8b8b3          	mulhu	a7,a7,a5
    18d0:	011e08b3          	add	a7,t3,a7
    18d4:	01089893          	slli	a7,a7,0x10
    18d8:	0106d693          	srli	a3,a3,0x10
    18dc:	00d886b3          	add	a3,a7,a3
    18e0:	0000b8b7          	lui	a7,0xb
    18e4:	aab88893          	addi	a7,a7,-1365 # aaab <__muldf3+0x54f>
    18e8:	011686b3          	add	a3,a3,a7
    18ec:	41f6d893          	srai	a7,a3,0x1f
    18f0:	02e888b3          	mul	a7,a7,a4
    18f4:	02d30333          	mul	t1,t1,a3
    18f8:	00688333          	add	t1,a7,t1
    18fc:	02e688b3          	mul	a7,a3,a4
    1900:	02e6b6b3          	mulhu	a3,a3,a4
    1904:	00d30733          	add	a4,t1,a3
    1908:	01071713          	slli	a4,a4,0x10
    190c:	0108d893          	srli	a7,a7,0x10
    1910:	011708b3          	add	a7,a4,a7
    1914:	00002737          	lui	a4,0x2
    1918:	73470713          	addi	a4,a4,1844 # 2734 <T8_start+0x13c>
    191c:	02e80333          	mul	t1,a6,a4
    1920:	02e786b3          	mul	a3,a5,a4
    1924:	02e7b733          	mulhu	a4,a5,a4
    1928:	00e30733          	add	a4,t1,a4
    192c:	01071713          	slli	a4,a4,0x10
    1930:	0106d693          	srli	a3,a3,0x10
    1934:	00d706b3          	add	a3,a4,a3
    1938:	00004737          	lui	a4,0x4
    193c:	8e470713          	addi	a4,a4,-1820 # 38e4 <T12_start+0x278>
    1940:	00e686b3          	add	a3,a3,a4
    1944:	41f6d313          	srai	t1,a3,0x1f
    1948:	02f30333          	mul	t1,t1,a5
    194c:	02d80733          	mul	a4,a6,a3
    1950:	00e30333          	add	t1,t1,a4
    1954:	02f68733          	mul	a4,a3,a5
    1958:	02f6b6b3          	mulhu	a3,a3,a5
    195c:	00d306b3          	add	a3,t1,a3
    1960:	01069693          	slli	a3,a3,0x10
    1964:	01075713          	srli	a4,a4,0x10
    1968:	00e68733          	add	a4,a3,a4
    196c:	000066b7          	lui	a3,0x6
    1970:	66668693          	addi	a3,a3,1638 # 6666 <T25_start+0x41e>
    1974:	00d70733          	add	a4,a4,a3
    1978:	41f75693          	srai	a3,a4,0x1f
    197c:	02f686b3          	mul	a3,a3,a5
    1980:	02e80833          	mul	a6,a6,a4
    1984:	010686b3          	add	a3,a3,a6
    1988:	02f70833          	mul	a6,a4,a5
    198c:	02f73733          	mulhu	a4,a4,a5
    1990:	00e687b3          	add	a5,a3,a4
    1994:	01079793          	slli	a5,a5,0x10
    1998:	01085713          	srli	a4,a6,0x10
    199c:	00e78733          	add	a4,a5,a4
    19a0:	00e888b3          	add	a7,a7,a4
    19a4:	411b8bb3          	sub	s7,s7,a7
    19a8:	41fbd793          	srai	a5,s7,0x1f
    19ac:	02a787b3          	mul	a5,a5,a0
    19b0:	03760633          	mul	a2,a2,s7
    19b4:	00c787b3          	add	a5,a5,a2
    19b8:	02ab8733          	mul	a4,s7,a0
    19bc:	02abbbb3          	mulhu	s7,s7,a0
    19c0:	017787b3          	add	a5,a5,s7
    19c4:	01079793          	slli	a5,a5,0x10
    19c8:	01075713          	srli	a4,a4,0x10
    19cc:	00e78733          	add	a4,a5,a4
    19d0:	40e585b3          	sub	a1,a1,a4
    19d4:	12b12e23          	sw	a1,316(sp)
    19d8:	001c1793          	slli	a5,s8,0x1
    19dc:	14f12023          	sw	a5,320(sp)
    19e0:	01092603          	lw	a2,16(s2)
    19e4:	02060463          	beqz	a2,1a0c <T5_start+0x44c>
    19e8:	00c92503          	lw	a0,12(s2)
    19ec:	41f55793          	srai	a5,a0,0x1f
    19f0:	01055593          	srli	a1,a0,0x10
    19f4:	01079793          	slli	a5,a5,0x10
    19f8:	41f65693          	srai	a3,a2,0x1f
    19fc:	01051513          	slli	a0,a0,0x10
    1a00:	00f585b3          	add	a1,a1,a5
    1a04:	131090ef          	jal	b334 <__divdi3>
    1a08:	00050613          	mv	a2,a0
    1a0c:	14c12223          	sw	a2,324(sp)

00001a10 <T5_end>:
    1a10:	b00027f3          	csrr	a5,mcycle
    1a14:	419787b3          	sub	a5,a5,s9
    1a18:	00f9aa23          	sw	a5,20(s3)
    1a1c:	13012603          	lw	a2,304(sp)
    1a20:	13410713          	addi	a4,sp,308
    1a24:	00000513          	li	a0,0
    1a28:	00100793          	li	a5,1
    1a2c:	00600593          	li	a1,6
    1a30:	0380006f          	j	1a68 <T5_end+0x58>
    1a34:	41600b33          	neg	s6,s6
    1a38:	be1ff06f          	j	1618 <T5_start+0x58>
    1a3c:	41600733          	neg	a4,s6
    1a40:	41075713          	srai	a4,a4,0x10
    1a44:	40e7d7b3          	sra	a5,a5,a4
    1a48:	cf5ff06f          	j	173c <T5_start+0x17c>
    1a4c:	00000b13          	li	s6,0
    1a50:	d65ff06f          	j	17b4 <T5_start+0x1f4>
    1a54:	fff00593          	li	a1,-1
    1a58:	f7dff06f          	j	19d4 <T5_start+0x414>
    1a5c:	00178793          	addi	a5,a5,1 # 20001 <heap.cpp.6b15d6f6+0x9800>
    1a60:	00470713          	addi	a4,a4,4
    1a64:	00b78c63          	beq	a5,a1,1a7c <T5_end+0x6c>
    1a68:	00072683          	lw	a3,0(a4)
    1a6c:	fec6c8e3          	blt	a3,a2,1a5c <T5_end+0x4c>
    1a70:	00068613          	mv	a2,a3
    1a74:	00078513          	mv	a0,a5
    1a78:	fe5ff06f          	j	1a5c <T5_end+0x4c>
    1a7c:	00020737          	lui	a4,0x20
    1a80:	000207b7          	lui	a5,0x20
    1a84:	1a878793          	addi	a5,a5,424 # 201a8 <next.22>
    1a88:	20f54533          	sh2add	a0,a0,a5
    1a8c:	00052783          	lw	a5,0(a0)
    1a90:	1fc70713          	addi	a4,a4,508 # 201fc <jump_table.28>
    1a94:	20e7c7b3          	sh2add	a5,a5,a4
    1a98:	0007a783          	lw	a5,0(a5)
    1a9c:	904ff06f          	j	ba0 <inferenceTPG+0x50>

00001aa0 <T6_start>:
    1aa0:	b00027f3          	csrr	a5,mcycle
    1aa4:	00078c93          	mv	s9,a5
    1aa8:	0084a783          	lw	a5,8(s1)
    1aac:	0a07e7b3          	max	a5,a5,zero
    1ab0:	0ef12a23          	sw	a5,244(sp)
    1ab4:	01092603          	lw	a2,16(s2)
    1ab8:	02060463          	beqz	a2,1ae0 <T6_start+0x40>
    1abc:	00492503          	lw	a0,4(s2)
    1ac0:	41f55793          	srai	a5,a0,0x1f
    1ac4:	01055593          	srli	a1,a0,0x10
    1ac8:	01079793          	slli	a5,a5,0x10
    1acc:	41f65693          	srai	a3,a2,0x1f
    1ad0:	01051513          	slli	a0,a0,0x10
    1ad4:	00f585b3          	add	a1,a1,a5
    1ad8:	05d090ef          	jal	b334 <__divdi3>
    1adc:	00050613          	mv	a2,a0
    1ae0:	0ec12c23          	sw	a2,248(sp)
    1ae4:	0044ac03          	lw	s8,4(s1)
    1ae8:	000107b7          	lui	a5,0x10
    1aec:	180c0c63          	beqz	s8,1c84 <T6_start+0x1e4>
    1af0:	41800733          	neg	a4,s8
    1af4:	0aec6733          	max	a4,s8,a4
    1af8:	41f75793          	srai	a5,a4,0x1f
    1afc:	000176b7          	lui	a3,0x17
    1b00:	15468693          	addi	a3,a3,340 # 17154 <heap.cpp.6b15d6f6+0x953>
    1b04:	02d787b3          	mul	a5,a5,a3
    1b08:	02d70b33          	mul	s6,a4,a3
    1b0c:	02d73733          	mulhu	a4,a4,a3
    1b10:	00e787b3          	add	a5,a5,a4
    1b14:	01079793          	slli	a5,a5,0x10
    1b18:	010b5b13          	srli	s6,s6,0x10
    1b1c:	01678b33          	add	s6,a5,s6
    1b20:	000087b7          	lui	a5,0x8
    1b24:	00fb0b33          	add	s6,s6,a5
    1b28:	ffff07b7          	lui	a5,0xffff0
    1b2c:	00fb7b33          	and	s6,s6,a5
    1b30:	3c0c4863          	bltz	s8,1f00 <T6_end+0x24>
    1b34:	41fb5713          	srai	a4,s6,0x1f
    1b38:	0000b6b7          	lui	a3,0xb
    1b3c:	17268693          	addi	a3,a3,370 # b172 <__subdf3+0x62e>
    1b40:	02d70733          	mul	a4,a4,a3
    1b44:	02db07b3          	mul	a5,s6,a3
    1b48:	02db36b3          	mulhu	a3,s6,a3
    1b4c:	00d70733          	add	a4,a4,a3
    1b50:	01071713          	slli	a4,a4,0x10
    1b54:	0107d793          	srli	a5,a5,0x10
    1b58:	00f707b3          	add	a5,a4,a5
    1b5c:	40fc07b3          	sub	a5,s8,a5
    1b60:	41f7d693          	srai	a3,a5,0x1f
    1b64:	02f686b3          	mul	a3,a3,a5
    1b68:	02f78733          	mul	a4,a5,a5
    1b6c:	02f7b633          	mulhu	a2,a5,a5
    1b70:	20c6a6b3          	sh1add	a3,a3,a2
    1b74:	01069693          	slli	a3,a3,0x10
    1b78:	01075713          	srli	a4,a4,0x10
    1b7c:	00e68733          	add	a4,a3,a4
    1b80:	41f75513          	srai	a0,a4,0x1f
    1b84:	01e75693          	srli	a3,a4,0x1e
    1b88:	20d546b3          	sh2add	a3,a0,a3
    1b8c:	00271613          	slli	a2,a4,0x2
    1b90:	01069693          	slli	a3,a3,0x10
    1b94:	01065613          	srli	a2,a2,0x10
    1b98:	00c68633          	add	a2,a3,a2
    1b9c:	f4a60613          	addi	a2,a2,-182
    1ba0:	41f65593          	srai	a1,a2,0x1f
    1ba4:	02e585b3          	mul	a1,a1,a4
    1ba8:	02c506b3          	mul	a3,a0,a2
    1bac:	00d585b3          	add	a1,a1,a3
    1bb0:	02e606b3          	mul	a3,a2,a4
    1bb4:	02e63633          	mulhu	a2,a2,a4
    1bb8:	00c58633          	add	a2,a1,a2
    1bbc:	01061613          	slli	a2,a2,0x10
    1bc0:	0106d693          	srli	a3,a3,0x10
    1bc4:	00d606b3          	add	a3,a2,a3
    1bc8:	00003637          	lui	a2,0x3
    1bcc:	aab60613          	addi	a2,a2,-1365 # 2aab <T9_start+0x2f>
    1bd0:	00c686b3          	add	a3,a3,a2
    1bd4:	41f6d613          	srai	a2,a3,0x1f
    1bd8:	02e60633          	mul	a2,a2,a4
    1bdc:	02d50533          	mul	a0,a0,a3
    1be0:	00a60633          	add	a2,a2,a0
    1be4:	02e685b3          	mul	a1,a3,a4
    1be8:	02e6b6b3          	mulhu	a3,a3,a4
    1bec:	00d60733          	add	a4,a2,a3
    1bf0:	01071713          	slli	a4,a4,0x10
    1bf4:	0105d693          	srli	a3,a1,0x10
    1bf8:	00d706b3          	add	a3,a4,a3
    1bfc:	00020737          	lui	a4,0x20
    1c00:	00e686b3          	add	a3,a3,a4
    1c04:	40f68633          	sub	a2,a3,a5
    1c08:	02f68c63          	beq	a3,a5,1c40 <T6_start+0x1a0>
    1c0c:	00f7d713          	srli	a4,a5,0xf
    1c10:	01179793          	slli	a5,a5,0x11
    1c14:	01071713          	slli	a4,a4,0x10
    1c18:	0107d793          	srli	a5,a5,0x10
    1c1c:	00f707b3          	add	a5,a4,a5
    1c20:	41f7d713          	srai	a4,a5,0x1f
    1c24:	0107d593          	srli	a1,a5,0x10
    1c28:	01071713          	slli	a4,a4,0x10
    1c2c:	41f65693          	srai	a3,a2,0x1f
    1c30:	01079513          	slli	a0,a5,0x10
    1c34:	00e585b3          	add	a1,a1,a4
    1c38:	6fc090ef          	jal	b334 <__divdi3>
    1c3c:	00050613          	mv	a2,a0
    1c40:	000107b7          	lui	a5,0x10
    1c44:	00f606b3          	add	a3,a2,a5
    1c48:	2c0b4063          	bltz	s6,1f08 <T6_end+0x2c>
    1c4c:	410b5b13          	srai	s6,s6,0x10
    1c50:	00010737          	lui	a4,0x10
    1c54:	01671733          	sll	a4,a4,s6
    1c58:	41f75793          	srai	a5,a4,0x1f
    1c5c:	41f6d613          	srai	a2,a3,0x1f
    1c60:	02d787b3          	mul	a5,a5,a3
    1c64:	02e60633          	mul	a2,a2,a4
    1c68:	00c787b3          	add	a5,a5,a2
    1c6c:	02d70633          	mul	a2,a4,a3
    1c70:	02d73733          	mulhu	a4,a4,a3
    1c74:	00e787b3          	add	a5,a5,a4
    1c78:	01079793          	slli	a5,a5,0x10
    1c7c:	01065713          	srli	a4,a2,0x10
    1c80:	00e787b3          	add	a5,a5,a4
    1c84:	0ef12e23          	sw	a5,252(sp)
    1c88:	000aa683          	lw	a3,0(s5)
    1c8c:	00000593          	li	a1,0
    1c90:	2406c063          	bltz	a3,1ed0 <T6_start+0x430>
    1c94:	28068863          	beqz	a3,1f24 <T6_end+0x48>
    1c98:	000207b7          	lui	a5,0x20
    1c9c:	28d7d063          	bge	a5,a3,1f1c <T6_end+0x40>
    1ca0:	00000b13          	li	s6,0
    1ca4:	4016d693          	srai	a3,a3,0x1
    1ca8:	001b0b13          	addi	s6,s6,1
    1cac:	fed7cce3          	blt	a5,a3,1ca4 <T6_start+0x204>
    1cb0:	ffff0bb7          	lui	s7,0xffff0
    1cb4:	01768bb3          	add	s7,a3,s7
    1cb8:	41fbd793          	srai	a5,s7,0x1f
    1cbc:	010bd593          	srli	a1,s7,0x10
    1cc0:	01079793          	slli	a5,a5,0x10
    1cc4:	00010737          	lui	a4,0x10
    1cc8:	00e68633          	add	a2,a3,a4
    1ccc:	41f65693          	srai	a3,a2,0x1f
    1cd0:	010b9513          	slli	a0,s7,0x10
    1cd4:	00f585b3          	add	a1,a1,a5
    1cd8:	65c090ef          	jal	b334 <__divdi3>
    1cdc:	41f55613          	srai	a2,a0,0x1f
    1ce0:	02a607b3          	mul	a5,a2,a0
    1ce4:	02a50733          	mul	a4,a0,a0
    1ce8:	02a536b3          	mulhu	a3,a0,a0
    1cec:	20d7a7b3          	sh1add	a5,a5,a3
    1cf0:	01079793          	slli	a5,a5,0x10
    1cf4:	01075713          	srli	a4,a4,0x10
    1cf8:	00e78733          	add	a4,a5,a4
    1cfc:	41f75313          	srai	t1,a4,0x1f
    1d00:	02e306b3          	mul	a3,t1,a4
    1d04:	02e707b3          	mul	a5,a4,a4
    1d08:	02e735b3          	mulhu	a1,a4,a4
    1d0c:	20b6a6b3          	sh1add	a3,a3,a1
    1d10:	01069693          	slli	a3,a3,0x10
    1d14:	0107d793          	srli	a5,a5,0x10
    1d18:	00f687b3          	add	a5,a3,a5
    1d1c:	41f7d813          	srai	a6,a5,0x1f
    1d20:	010b1b13          	slli	s6,s6,0x10
    1d24:	41fb5693          	srai	a3,s6,0x1f
    1d28:	0000b8b7          	lui	a7,0xb
    1d2c:	17288893          	addi	a7,a7,370 # b172 <__subdf3+0x62e>
    1d30:	031686b3          	mul	a3,a3,a7
    1d34:	031b05b3          	mul	a1,s6,a7
    1d38:	031b3b33          	mulhu	s6,s6,a7
    1d3c:	016686b3          	add	a3,a3,s6
    1d40:	01069693          	slli	a3,a3,0x10
    1d44:	0105d593          	srli	a1,a1,0x10
    1d48:	00b685b3          	add	a1,a3,a1
    1d4c:	00bb85b3          	add	a1,s7,a1
    1d50:	000028b7          	lui	a7,0x2
    1d54:	5e288893          	addi	a7,a7,1506 # 25e2 <T7_end+0x96>
    1d58:	03180e33          	mul	t3,a6,a7
    1d5c:	031786b3          	mul	a3,a5,a7
    1d60:	0317b8b3          	mulhu	a7,a5,a7
    1d64:	011e08b3          	add	a7,t3,a7
    1d68:	01089893          	slli	a7,a7,0x10
    1d6c:	0106d693          	srli	a3,a3,0x10
    1d70:	00d886b3          	add	a3,a7,a3
    1d74:	000038b7          	lui	a7,0x3
    1d78:	e8d88893          	addi	a7,a7,-371 # 2e8d <T9_start+0x411>
    1d7c:	011686b3          	add	a3,a3,a7
    1d80:	41f6de13          	srai	t3,a3,0x1f
    1d84:	02fe0e33          	mul	t3,t3,a5
    1d88:	02d808b3          	mul	a7,a6,a3
    1d8c:	011e0e33          	add	t3,t3,a7
    1d90:	02f688b3          	mul	a7,a3,a5
    1d94:	02f6b6b3          	mulhu	a3,a3,a5
    1d98:	00de06b3          	add	a3,t3,a3
    1d9c:	01069693          	slli	a3,a3,0x10
    1da0:	0108d893          	srli	a7,a7,0x10
    1da4:	011688b3          	add	a7,a3,a7
    1da8:	000056b7          	lui	a3,0x5
    1dac:	92568693          	addi	a3,a3,-1755 # 4925 <T16_start+0x2ed>
    1db0:	00d888b3          	add	a7,a7,a3
    1db4:	41f8de13          	srai	t3,a7,0x1f
    1db8:	02fe0e33          	mul	t3,t3,a5
    1dbc:	031806b3          	mul	a3,a6,a7
    1dc0:	00de0e33          	add	t3,t3,a3
    1dc4:	02f886b3          	mul	a3,a7,a5
    1dc8:	02f8b8b3          	mulhu	a7,a7,a5
    1dcc:	011e08b3          	add	a7,t3,a7
    1dd0:	01089893          	slli	a7,a7,0x10
    1dd4:	0106d693          	srli	a3,a3,0x10
    1dd8:	00d886b3          	add	a3,a7,a3
    1ddc:	0000b8b7          	lui	a7,0xb
    1de0:	aab88893          	addi	a7,a7,-1365 # aaab <__muldf3+0x54f>
    1de4:	011686b3          	add	a3,a3,a7
    1de8:	41f6d893          	srai	a7,a3,0x1f
    1dec:	02e888b3          	mul	a7,a7,a4
    1df0:	02d30333          	mul	t1,t1,a3
    1df4:	00688333          	add	t1,a7,t1
    1df8:	02e688b3          	mul	a7,a3,a4
    1dfc:	02e6b6b3          	mulhu	a3,a3,a4
    1e00:	00d30733          	add	a4,t1,a3
    1e04:	01071713          	slli	a4,a4,0x10
    1e08:	0108d893          	srli	a7,a7,0x10
    1e0c:	011708b3          	add	a7,a4,a7
    1e10:	00002737          	lui	a4,0x2
    1e14:	73470713          	addi	a4,a4,1844 # 2734 <T8_start+0x13c>
    1e18:	02e80333          	mul	t1,a6,a4
    1e1c:	02e786b3          	mul	a3,a5,a4
    1e20:	02e7b733          	mulhu	a4,a5,a4
    1e24:	00e30733          	add	a4,t1,a4
    1e28:	01071713          	slli	a4,a4,0x10
    1e2c:	0106d693          	srli	a3,a3,0x10
    1e30:	00d706b3          	add	a3,a4,a3
    1e34:	00004737          	lui	a4,0x4
    1e38:	8e470713          	addi	a4,a4,-1820 # 38e4 <T12_start+0x278>
    1e3c:	00e686b3          	add	a3,a3,a4
    1e40:	41f6d313          	srai	t1,a3,0x1f
    1e44:	02f30333          	mul	t1,t1,a5
    1e48:	02d80733          	mul	a4,a6,a3
    1e4c:	00e30333          	add	t1,t1,a4
    1e50:	02f68733          	mul	a4,a3,a5
    1e54:	02f6b6b3          	mulhu	a3,a3,a5
    1e58:	00d306b3          	add	a3,t1,a3
    1e5c:	01069693          	slli	a3,a3,0x10
    1e60:	01075713          	srli	a4,a4,0x10
    1e64:	00e68733          	add	a4,a3,a4
    1e68:	000066b7          	lui	a3,0x6
    1e6c:	66668693          	addi	a3,a3,1638 # 6666 <T25_start+0x41e>
    1e70:	00d70733          	add	a4,a4,a3
    1e74:	41f75693          	srai	a3,a4,0x1f
    1e78:	02f686b3          	mul	a3,a3,a5
    1e7c:	02e80833          	mul	a6,a6,a4
    1e80:	010686b3          	add	a3,a3,a6
    1e84:	02f70833          	mul	a6,a4,a5
    1e88:	02f73733          	mulhu	a4,a4,a5
    1e8c:	00e687b3          	add	a5,a3,a4
    1e90:	01079793          	slli	a5,a5,0x10
    1e94:	01085713          	srli	a4,a6,0x10
    1e98:	00e78733          	add	a4,a5,a4
    1e9c:	00e888b3          	add	a7,a7,a4
    1ea0:	411b8bb3          	sub	s7,s7,a7
    1ea4:	41fbd793          	srai	a5,s7,0x1f
    1ea8:	02a787b3          	mul	a5,a5,a0
    1eac:	03760633          	mul	a2,a2,s7
    1eb0:	00c787b3          	add	a5,a5,a2
    1eb4:	02ab8733          	mul	a4,s7,a0
    1eb8:	02abbbb3          	mulhu	s7,s7,a0
    1ebc:	017787b3          	add	a5,a5,s7
    1ec0:	01079793          	slli	a5,a5,0x10
    1ec4:	01075713          	srli	a4,a4,0x10
    1ec8:	00e78733          	add	a4,a5,a4
    1ecc:	40e585b3          	sub	a1,a1,a4
    1ed0:	10b12023          	sw	a1,256(sp)
    1ed4:	001c1793          	slli	a5,s8,0x1
    1ed8:	10f12223          	sw	a5,260(sp)

00001edc <T6_end>:
    1edc:	b00027f3          	csrr	a5,mcycle
    1ee0:	419787b3          	sub	a5,a5,s9
    1ee4:	00f9ac23          	sw	a5,24(s3)
    1ee8:	0f412603          	lw	a2,244(sp)
    1eec:	0f410713          	addi	a4,sp,244
    1ef0:	00000513          	li	a0,0
    1ef4:	00100793          	li	a5,1
    1ef8:	00500593          	li	a1,5
    1efc:	03c0006f          	j	1f38 <T6_end+0x5c>
    1f00:	41600b33          	neg	s6,s6
    1f04:	c31ff06f          	j	1b34 <T6_start+0x94>
    1f08:	416007b3          	neg	a5,s6
    1f0c:	4107d793          	srai	a5,a5,0x10
    1f10:	00010737          	lui	a4,0x10
    1f14:	40f75733          	sra	a4,a4,a5
    1f18:	d41ff06f          	j	1c58 <T6_start+0x1b8>
    1f1c:	00000b13          	li	s6,0
    1f20:	d91ff06f          	j	1cb0 <T6_start+0x210>
    1f24:	fff00593          	li	a1,-1
    1f28:	fa9ff06f          	j	1ed0 <T6_start+0x430>
    1f2c:	00178793          	addi	a5,a5,1 # 20001 <heap.cpp.6b15d6f6+0x9800>
    1f30:	00470713          	addi	a4,a4,4 # 10004 <fast_intr_ctrl.c.233e5230+0x20b>
    1f34:	00b78c63          	beq	a5,a1,1f4c <T6_end+0x70>
    1f38:	00472683          	lw	a3,4(a4)
    1f3c:	fec6c8e3          	blt	a3,a2,1f2c <T6_end+0x50>
    1f40:	00068613          	mv	a2,a3
    1f44:	00078513          	mv	a0,a5
    1f48:	fe5ff06f          	j	1f2c <T6_end+0x50>
    1f4c:	00020737          	lui	a4,0x20
    1f50:	000207b7          	lui	a5,0x20
    1f54:	19478793          	addi	a5,a5,404 # 20194 <next.21>
    1f58:	20f54533          	sh2add	a0,a0,a5
    1f5c:	00052783          	lw	a5,0(a0)
    1f60:	1fc70713          	addi	a4,a4,508 # 201fc <jump_table.28>
    1f64:	20e7c7b3          	sh2add	a5,a5,a4
    1f68:	0007a783          	lw	a5,0(a5)
    1f6c:	c35fe06f          	j	ba0 <inferenceTPG+0x50>

00001f70 <T7_start>:
    1f70:	b00027f3          	csrr	a5,mcycle
    1f74:	00078c93          	mv	s9,a5
    1f78:	00492c03          	lw	s8,4(s2)
    1f7c:	000107b7          	lui	a5,0x10
    1f80:	180c0c63          	beqz	s8,2118 <T7_start+0x1a8>
    1f84:	41800733          	neg	a4,s8
    1f88:	0aec6733          	max	a4,s8,a4
    1f8c:	41f75793          	srai	a5,a4,0x1f
    1f90:	000176b7          	lui	a3,0x17
    1f94:	15468693          	addi	a3,a3,340 # 17154 <heap.cpp.6b15d6f6+0x953>
    1f98:	02d787b3          	mul	a5,a5,a3
    1f9c:	02d70b33          	mul	s6,a4,a3
    1fa0:	02d73733          	mulhu	a4,a4,a3
    1fa4:	00e787b3          	add	a5,a5,a4
    1fa8:	01079793          	slli	a5,a5,0x10
    1fac:	010b5b13          	srli	s6,s6,0x10
    1fb0:	01678b33          	add	s6,a5,s6
    1fb4:	000087b7          	lui	a5,0x8
    1fb8:	00fb0b33          	add	s6,s6,a5
    1fbc:	ffff07b7          	lui	a5,0xffff0
    1fc0:	00fb7b33          	and	s6,s6,a5
    1fc4:	5a0c4663          	bltz	s8,2570 <T7_end+0x24>
    1fc8:	41fb5713          	srai	a4,s6,0x1f
    1fcc:	0000b6b7          	lui	a3,0xb
    1fd0:	17268693          	addi	a3,a3,370 # b172 <__subdf3+0x62e>
    1fd4:	02d70733          	mul	a4,a4,a3
    1fd8:	02db07b3          	mul	a5,s6,a3
    1fdc:	02db36b3          	mulhu	a3,s6,a3
    1fe0:	00d70733          	add	a4,a4,a3
    1fe4:	01071713          	slli	a4,a4,0x10
    1fe8:	0107d793          	srli	a5,a5,0x10
    1fec:	00f707b3          	add	a5,a4,a5
    1ff0:	40fc07b3          	sub	a5,s8,a5
    1ff4:	41f7d693          	srai	a3,a5,0x1f
    1ff8:	02f686b3          	mul	a3,a3,a5
    1ffc:	02f78733          	mul	a4,a5,a5
    2000:	02f7b633          	mulhu	a2,a5,a5
    2004:	20c6a6b3          	sh1add	a3,a3,a2
    2008:	01069693          	slli	a3,a3,0x10
    200c:	01075713          	srli	a4,a4,0x10
    2010:	00e68733          	add	a4,a3,a4
    2014:	41f75513          	srai	a0,a4,0x1f
    2018:	01e75693          	srli	a3,a4,0x1e
    201c:	20d546b3          	sh2add	a3,a0,a3
    2020:	00271613          	slli	a2,a4,0x2
    2024:	01069693          	slli	a3,a3,0x10
    2028:	01065613          	srli	a2,a2,0x10
    202c:	00c68633          	add	a2,a3,a2
    2030:	f4a60613          	addi	a2,a2,-182
    2034:	41f65593          	srai	a1,a2,0x1f
    2038:	02e585b3          	mul	a1,a1,a4
    203c:	02c506b3          	mul	a3,a0,a2
    2040:	00d585b3          	add	a1,a1,a3
    2044:	02e606b3          	mul	a3,a2,a4
    2048:	02e63633          	mulhu	a2,a2,a4
    204c:	00c58633          	add	a2,a1,a2
    2050:	01061613          	slli	a2,a2,0x10
    2054:	0106d693          	srli	a3,a3,0x10
    2058:	00d606b3          	add	a3,a2,a3
    205c:	00003637          	lui	a2,0x3
    2060:	aab60613          	addi	a2,a2,-1365 # 2aab <T9_start+0x2f>
    2064:	00c686b3          	add	a3,a3,a2
    2068:	41f6d613          	srai	a2,a3,0x1f
    206c:	02e60633          	mul	a2,a2,a4
    2070:	02d50533          	mul	a0,a0,a3
    2074:	00a60633          	add	a2,a2,a0
    2078:	02e685b3          	mul	a1,a3,a4
    207c:	02e6b6b3          	mulhu	a3,a3,a4
    2080:	00d60733          	add	a4,a2,a3
    2084:	01071713          	slli	a4,a4,0x10
    2088:	0105d693          	srli	a3,a1,0x10
    208c:	00d706b3          	add	a3,a4,a3
    2090:	00020737          	lui	a4,0x20
    2094:	00e686b3          	add	a3,a3,a4
    2098:	40f68633          	sub	a2,a3,a5
    209c:	02f68c63          	beq	a3,a5,20d4 <T7_start+0x164>
    20a0:	00f7d713          	srli	a4,a5,0xf
    20a4:	01179793          	slli	a5,a5,0x11
    20a8:	01071713          	slli	a4,a4,0x10
    20ac:	0107d793          	srli	a5,a5,0x10
    20b0:	00f707b3          	add	a5,a4,a5
    20b4:	41f7d713          	srai	a4,a5,0x1f
    20b8:	0107d593          	srli	a1,a5,0x10
    20bc:	01071713          	slli	a4,a4,0x10
    20c0:	41f65693          	srai	a3,a2,0x1f
    20c4:	01079513          	slli	a0,a5,0x10
    20c8:	00e585b3          	add	a1,a1,a4
    20cc:	268090ef          	jal	b334 <__divdi3>
    20d0:	00050613          	mv	a2,a0
    20d4:	000107b7          	lui	a5,0x10
    20d8:	00f606b3          	add	a3,a2,a5
    20dc:	480b4e63          	bltz	s6,2578 <T7_end+0x2c>
    20e0:	410b5b13          	srai	s6,s6,0x10
    20e4:	00010737          	lui	a4,0x10
    20e8:	01671733          	sll	a4,a4,s6
    20ec:	41f75793          	srai	a5,a4,0x1f
    20f0:	41f6d613          	srai	a2,a3,0x1f
    20f4:	02d787b3          	mul	a5,a5,a3
    20f8:	02e60633          	mul	a2,a2,a4
    20fc:	00c787b3          	add	a5,a5,a2
    2100:	02d70633          	mul	a2,a4,a3
    2104:	02d73733          	mulhu	a4,a4,a3
    2108:	00e787b3          	add	a5,a5,a4
    210c:	01079793          	slli	a5,a5,0x10
    2110:	01065713          	srli	a4,a2,0x10
    2114:	00e787b3          	add	a5,a5,a4
    2118:	14f12423          	sw	a5,328(sp)
    211c:	000aa683          	lw	a3,0(s5)
    2120:	00000593          	li	a1,0
    2124:	2406c063          	bltz	a3,2364 <T7_start+0x3f4>
    2128:	46068663          	beqz	a3,2594 <T7_end+0x48>
    212c:	000207b7          	lui	a5,0x20
    2130:	44d7de63          	bge	a5,a3,258c <T7_end+0x40>
    2134:	00000b13          	li	s6,0
    2138:	4016d693          	srai	a3,a3,0x1
    213c:	001b0b13          	addi	s6,s6,1
    2140:	fed7cce3          	blt	a5,a3,2138 <T7_start+0x1c8>
    2144:	ffff0bb7          	lui	s7,0xffff0
    2148:	01768bb3          	add	s7,a3,s7
    214c:	41fbd793          	srai	a5,s7,0x1f
    2150:	010bd593          	srli	a1,s7,0x10
    2154:	01079793          	slli	a5,a5,0x10
    2158:	00010737          	lui	a4,0x10
    215c:	00e68633          	add	a2,a3,a4
    2160:	41f65693          	srai	a3,a2,0x1f
    2164:	010b9513          	slli	a0,s7,0x10
    2168:	00f585b3          	add	a1,a1,a5
    216c:	1c8090ef          	jal	b334 <__divdi3>
    2170:	41f55613          	srai	a2,a0,0x1f
    2174:	02a607b3          	mul	a5,a2,a0
    2178:	02a50733          	mul	a4,a0,a0
    217c:	02a536b3          	mulhu	a3,a0,a0
    2180:	20d7a7b3          	sh1add	a5,a5,a3
    2184:	01079793          	slli	a5,a5,0x10
    2188:	01075713          	srli	a4,a4,0x10
    218c:	00e78733          	add	a4,a5,a4
    2190:	41f75313          	srai	t1,a4,0x1f
    2194:	02e306b3          	mul	a3,t1,a4
    2198:	02e707b3          	mul	a5,a4,a4
    219c:	02e735b3          	mulhu	a1,a4,a4
    21a0:	20b6a6b3          	sh1add	a3,a3,a1
    21a4:	01069693          	slli	a3,a3,0x10
    21a8:	0107d793          	srli	a5,a5,0x10
    21ac:	00f687b3          	add	a5,a3,a5
    21b0:	41f7d813          	srai	a6,a5,0x1f
    21b4:	010b1b13          	slli	s6,s6,0x10
    21b8:	41fb5693          	srai	a3,s6,0x1f
    21bc:	0000b8b7          	lui	a7,0xb
    21c0:	17288893          	addi	a7,a7,370 # b172 <__subdf3+0x62e>
    21c4:	031686b3          	mul	a3,a3,a7
    21c8:	031b05b3          	mul	a1,s6,a7
    21cc:	031b3b33          	mulhu	s6,s6,a7
    21d0:	016686b3          	add	a3,a3,s6
    21d4:	01069693          	slli	a3,a3,0x10
    21d8:	0105d593          	srli	a1,a1,0x10
    21dc:	00b685b3          	add	a1,a3,a1
    21e0:	00bb85b3          	add	a1,s7,a1
    21e4:	000028b7          	lui	a7,0x2
    21e8:	5e288893          	addi	a7,a7,1506 # 25e2 <T7_end+0x96>
    21ec:	03180e33          	mul	t3,a6,a7
    21f0:	031786b3          	mul	a3,a5,a7
    21f4:	0317b8b3          	mulhu	a7,a5,a7
    21f8:	011e08b3          	add	a7,t3,a7
    21fc:	01089893          	slli	a7,a7,0x10
    2200:	0106d693          	srli	a3,a3,0x10
    2204:	00d886b3          	add	a3,a7,a3
    2208:	000038b7          	lui	a7,0x3
    220c:	e8d88893          	addi	a7,a7,-371 # 2e8d <T9_start+0x411>
    2210:	011686b3          	add	a3,a3,a7
    2214:	41f6de13          	srai	t3,a3,0x1f
    2218:	02fe0e33          	mul	t3,t3,a5
    221c:	02d808b3          	mul	a7,a6,a3
    2220:	011e0e33          	add	t3,t3,a7
    2224:	02f688b3          	mul	a7,a3,a5
    2228:	02f6b6b3          	mulhu	a3,a3,a5
    222c:	00de06b3          	add	a3,t3,a3
    2230:	01069693          	slli	a3,a3,0x10
    2234:	0108d893          	srli	a7,a7,0x10
    2238:	011688b3          	add	a7,a3,a7
    223c:	000056b7          	lui	a3,0x5
    2240:	92568693          	addi	a3,a3,-1755 # 4925 <T16_start+0x2ed>
    2244:	00d888b3          	add	a7,a7,a3
    2248:	41f8de13          	srai	t3,a7,0x1f
    224c:	02fe0e33          	mul	t3,t3,a5
    2250:	031806b3          	mul	a3,a6,a7
    2254:	00de0e33          	add	t3,t3,a3
    2258:	02f886b3          	mul	a3,a7,a5
    225c:	02f8b8b3          	mulhu	a7,a7,a5
    2260:	011e08b3          	add	a7,t3,a7
    2264:	01089893          	slli	a7,a7,0x10
    2268:	0106d693          	srli	a3,a3,0x10
    226c:	00d886b3          	add	a3,a7,a3
    2270:	0000b8b7          	lui	a7,0xb
    2274:	aab88893          	addi	a7,a7,-1365 # aaab <__muldf3+0x54f>
    2278:	011686b3          	add	a3,a3,a7
    227c:	41f6d893          	srai	a7,a3,0x1f
    2280:	02e888b3          	mul	a7,a7,a4
    2284:	02d30333          	mul	t1,t1,a3
    2288:	00688333          	add	t1,a7,t1
    228c:	02e688b3          	mul	a7,a3,a4
    2290:	02e6b6b3          	mulhu	a3,a3,a4
    2294:	00d30733          	add	a4,t1,a3
    2298:	01071713          	slli	a4,a4,0x10
    229c:	0108d893          	srli	a7,a7,0x10
    22a0:	011708b3          	add	a7,a4,a7
    22a4:	00002737          	lui	a4,0x2
    22a8:	73470713          	addi	a4,a4,1844 # 2734 <T8_start+0x13c>
    22ac:	02e80333          	mul	t1,a6,a4
    22b0:	02e786b3          	mul	a3,a5,a4
    22b4:	02e7b733          	mulhu	a4,a5,a4
    22b8:	00e30733          	add	a4,t1,a4
    22bc:	01071713          	slli	a4,a4,0x10
    22c0:	0106d693          	srli	a3,a3,0x10
    22c4:	00d706b3          	add	a3,a4,a3
    22c8:	00004737          	lui	a4,0x4
    22cc:	8e470713          	addi	a4,a4,-1820 # 38e4 <T12_start+0x278>
    22d0:	00e686b3          	add	a3,a3,a4
    22d4:	41f6d313          	srai	t1,a3,0x1f
    22d8:	02f30333          	mul	t1,t1,a5
    22dc:	02d80733          	mul	a4,a6,a3
    22e0:	00e30333          	add	t1,t1,a4
    22e4:	02f68733          	mul	a4,a3,a5
    22e8:	02f6b6b3          	mulhu	a3,a3,a5
    22ec:	00d306b3          	add	a3,t1,a3
    22f0:	01069693          	slli	a3,a3,0x10
    22f4:	01075713          	srli	a4,a4,0x10
    22f8:	00e68733          	add	a4,a3,a4
    22fc:	000066b7          	lui	a3,0x6
    2300:	66668693          	addi	a3,a3,1638 # 6666 <T25_start+0x41e>
    2304:	00d70733          	add	a4,a4,a3
    2308:	41f75693          	srai	a3,a4,0x1f
    230c:	02f686b3          	mul	a3,a3,a5
    2310:	02e80833          	mul	a6,a6,a4
    2314:	010686b3          	add	a3,a3,a6
    2318:	02f70833          	mul	a6,a4,a5
    231c:	02f73733          	mulhu	a4,a4,a5
    2320:	00e687b3          	add	a5,a3,a4
    2324:	01079793          	slli	a5,a5,0x10
    2328:	01085713          	srli	a4,a6,0x10
    232c:	00e78733          	add	a4,a5,a4
    2330:	00e888b3          	add	a7,a7,a4
    2334:	411b8bb3          	sub	s7,s7,a7
    2338:	41fbd793          	srai	a5,s7,0x1f
    233c:	02a787b3          	mul	a5,a5,a0
    2340:	03760633          	mul	a2,a2,s7
    2344:	00c787b3          	add	a5,a5,a2
    2348:	02ab8733          	mul	a4,s7,a0
    234c:	02abbbb3          	mulhu	s7,s7,a0
    2350:	017787b3          	add	a5,a5,s7
    2354:	01079793          	slli	a5,a5,0x10
    2358:	01075713          	srli	a4,a4,0x10
    235c:	00e78733          	add	a4,a5,a4
    2360:	40e585b3          	sub	a1,a1,a4
    2364:	14b12623          	sw	a1,332(sp)
    2368:	01092603          	lw	a2,16(s2)
    236c:	02060263          	beqz	a2,2390 <T7_start+0x420>
    2370:	41fc5793          	srai	a5,s8,0x1f
    2374:	010c5593          	srli	a1,s8,0x10
    2378:	01079793          	slli	a5,a5,0x10
    237c:	41f65693          	srai	a3,a2,0x1f
    2380:	010c1513          	slli	a0,s8,0x10
    2384:	00f585b3          	add	a1,a1,a5
    2388:	7ad080ef          	jal	b334 <__divdi3>
    238c:	00050613          	mv	a2,a0
    2390:	14c12823          	sw	a2,336(sp)
    2394:	0044a783          	lw	a5,4(s1)
    2398:	00179713          	slli	a4,a5,0x1
    239c:	14e12a23          	sw	a4,340(sp)
    23a0:	00010737          	lui	a4,0x10
    23a4:	18078c63          	beqz	a5,253c <T7_start+0x5cc>
    23a8:	40f006b3          	neg	a3,a5
    23ac:	0ad7e6b3          	max	a3,a5,a3
    23b0:	41f6d713          	srai	a4,a3,0x1f
    23b4:	00017637          	lui	a2,0x17
    23b8:	15460613          	addi	a2,a2,340 # 17154 <heap.cpp.6b15d6f6+0x953>
    23bc:	02c70733          	mul	a4,a4,a2
    23c0:	02c68b33          	mul	s6,a3,a2
    23c4:	02c6b6b3          	mulhu	a3,a3,a2
    23c8:	00d70733          	add	a4,a4,a3
    23cc:	01071713          	slli	a4,a4,0x10
    23d0:	010b5b13          	srli	s6,s6,0x10
    23d4:	01670b33          	add	s6,a4,s6
    23d8:	00008737          	lui	a4,0x8
    23dc:	00eb0b33          	add	s6,s6,a4
    23e0:	ffff0737          	lui	a4,0xffff0
    23e4:	00eb7b33          	and	s6,s6,a4
    23e8:	1a07ca63          	bltz	a5,259c <T7_end+0x50>
    23ec:	41fb5713          	srai	a4,s6,0x1f
    23f0:	0000b6b7          	lui	a3,0xb
    23f4:	17268693          	addi	a3,a3,370 # b172 <__subdf3+0x62e>
    23f8:	02d70733          	mul	a4,a4,a3
    23fc:	02db0633          	mul	a2,s6,a3
    2400:	02db36b3          	mulhu	a3,s6,a3
    2404:	00d70733          	add	a4,a4,a3
    2408:	01071713          	slli	a4,a4,0x10
    240c:	01065693          	srli	a3,a2,0x10
    2410:	00d706b3          	add	a3,a4,a3
    2414:	40d787b3          	sub	a5,a5,a3
    2418:	41f7d693          	srai	a3,a5,0x1f
    241c:	02f686b3          	mul	a3,a3,a5
    2420:	02f78733          	mul	a4,a5,a5
    2424:	02f7b633          	mulhu	a2,a5,a5
    2428:	20c6a6b3          	sh1add	a3,a3,a2
    242c:	01069693          	slli	a3,a3,0x10
    2430:	01075713          	srli	a4,a4,0x10
    2434:	00e68733          	add	a4,a3,a4
    2438:	41f75513          	srai	a0,a4,0x1f
    243c:	01e75693          	srli	a3,a4,0x1e
    2440:	20d546b3          	sh2add	a3,a0,a3
    2444:	00271613          	slli	a2,a4,0x2
    2448:	01069693          	slli	a3,a3,0x10
    244c:	01065613          	srli	a2,a2,0x10
    2450:	00c68633          	add	a2,a3,a2
    2454:	f4a60613          	addi	a2,a2,-182
    2458:	41f65593          	srai	a1,a2,0x1f
    245c:	02e585b3          	mul	a1,a1,a4
    2460:	02c506b3          	mul	a3,a0,a2
    2464:	00d585b3          	add	a1,a1,a3
    2468:	02e606b3          	mul	a3,a2,a4
    246c:	02e63633          	mulhu	a2,a2,a4
    2470:	00c58633          	add	a2,a1,a2
    2474:	01061613          	slli	a2,a2,0x10
    2478:	0106d693          	srli	a3,a3,0x10
    247c:	00d606b3          	add	a3,a2,a3
    2480:	00003637          	lui	a2,0x3
    2484:	aab60613          	addi	a2,a2,-1365 # 2aab <T9_start+0x2f>
    2488:	00c686b3          	add	a3,a3,a2
    248c:	41f6d613          	srai	a2,a3,0x1f
    2490:	02e60633          	mul	a2,a2,a4
    2494:	02d50533          	mul	a0,a0,a3
    2498:	00a60633          	add	a2,a2,a0
    249c:	02e685b3          	mul	a1,a3,a4
    24a0:	02e6b6b3          	mulhu	a3,a3,a4
    24a4:	00d60733          	add	a4,a2,a3
    24a8:	01071713          	slli	a4,a4,0x10
    24ac:	0105d693          	srli	a3,a1,0x10
    24b0:	00d706b3          	add	a3,a4,a3
    24b4:	00020737          	lui	a4,0x20
    24b8:	00e686b3          	add	a3,a3,a4
    24bc:	40f68633          	sub	a2,a3,a5
    24c0:	02f68c63          	beq	a3,a5,24f8 <T7_start+0x588>
    24c4:	00f7d713          	srli	a4,a5,0xf
    24c8:	01179793          	slli	a5,a5,0x11
    24cc:	01071713          	slli	a4,a4,0x10
    24d0:	0107d793          	srli	a5,a5,0x10
    24d4:	00f707b3          	add	a5,a4,a5
    24d8:	41f7d713          	srai	a4,a5,0x1f
    24dc:	0107d593          	srli	a1,a5,0x10
    24e0:	01071713          	slli	a4,a4,0x10
    24e4:	41f65693          	srai	a3,a2,0x1f
    24e8:	01079513          	slli	a0,a5,0x10
    24ec:	00e585b3          	add	a1,a1,a4
    24f0:	645080ef          	jal	b334 <__divdi3>
    24f4:	00050613          	mv	a2,a0
    24f8:	000107b7          	lui	a5,0x10
    24fc:	00f606b3          	add	a3,a2,a5
    2500:	0a0b4263          	bltz	s6,25a4 <T7_end+0x58>
    2504:	410b5b13          	srai	s6,s6,0x10
    2508:	000107b7          	lui	a5,0x10
    250c:	016797b3          	sll	a5,a5,s6
    2510:	41f7d713          	srai	a4,a5,0x1f
    2514:	41f6d613          	srai	a2,a3,0x1f
    2518:	02d70733          	mul	a4,a4,a3
    251c:	02f60633          	mul	a2,a2,a5
    2520:	00c70733          	add	a4,a4,a2
    2524:	02d78633          	mul	a2,a5,a3
    2528:	02d7b7b3          	mulhu	a5,a5,a3
    252c:	00f70733          	add	a4,a4,a5
    2530:	01071713          	slli	a4,a4,0x10
    2534:	01065793          	srli	a5,a2,0x10
    2538:	00f70733          	add	a4,a4,a5
    253c:	14e12c23          	sw	a4,344(sp)
    2540:	0084a783          	lw	a5,8(s1)
    2544:	0a07e7b3          	max	a5,a5,zero
    2548:	14f12e23          	sw	a5,348(sp)

0000254c <T7_end>:
    254c:	b00027f3          	csrr	a5,mcycle
    2550:	419787b3          	sub	a5,a5,s9
    2554:	00f9ae23          	sw	a5,28(s3)
    2558:	14812603          	lw	a2,328(sp)
    255c:	14c10713          	addi	a4,sp,332
    2560:	00000513          	li	a0,0
    2564:	00100793          	li	a5,1
    2568:	00600593          	li	a1,6
    256c:	0540006f          	j	25c0 <T7_end+0x74>
    2570:	41600b33          	neg	s6,s6
    2574:	a55ff06f          	j	1fc8 <T7_start+0x58>
    2578:	416007b3          	neg	a5,s6
    257c:	4107d793          	srai	a5,a5,0x10
    2580:	00010737          	lui	a4,0x10
    2584:	40f75733          	sra	a4,a4,a5
    2588:	b65ff06f          	j	20ec <T7_start+0x17c>
    258c:	00000b13          	li	s6,0
    2590:	bb5ff06f          	j	2144 <T7_start+0x1d4>
    2594:	fff00593          	li	a1,-1
    2598:	dcdff06f          	j	2364 <T7_start+0x3f4>
    259c:	41600b33          	neg	s6,s6
    25a0:	e4dff06f          	j	23ec <T7_start+0x47c>
    25a4:	41600733          	neg	a4,s6
    25a8:	41075713          	srai	a4,a4,0x10
    25ac:	40e7d7b3          	sra	a5,a5,a4
    25b0:	f61ff06f          	j	2510 <T7_start+0x5a0>
    25b4:	00178793          	addi	a5,a5,1 # 10001 <fast_intr_ctrl.c.233e5230+0x208>
    25b8:	00470713          	addi	a4,a4,4 # 10004 <fast_intr_ctrl.c.233e5230+0x20b>
    25bc:	00b78c63          	beq	a5,a1,25d4 <T7_end+0x88>
    25c0:	00072683          	lw	a3,0(a4)
    25c4:	fec6c8e3          	blt	a3,a2,25b4 <T7_end+0x68>
    25c8:	00068613          	mv	a2,a3
    25cc:	00078513          	mv	a0,a5
    25d0:	fe5ff06f          	j	25b4 <T7_end+0x68>
    25d4:	00020737          	lui	a4,0x20
    25d8:	000207b7          	lui	a5,0x20
    25dc:	17c78793          	addi	a5,a5,380 # 2017c <next.20>
    25e0:	20f54533          	sh2add	a0,a0,a5
    25e4:	00052783          	lw	a5,0(a0)
    25e8:	1fc70713          	addi	a4,a4,508 # 201fc <jump_table.28>
    25ec:	20e7c7b3          	sh2add	a5,a5,a4
    25f0:	0007a783          	lw	a5,0(a5)
    25f4:	dacfe06f          	j	ba0 <inferenceTPG+0x50>

000025f8 <T8_start>:
    25f8:	b0002bf3          	csrr	s7,mcycle
    25fc:	000aa683          	lw	a3,0(s5)
    2600:	00000593          	li	a1,0
    2604:	2406c063          	bltz	a3,2844 <T8_start+0x24c>
    2608:	44068863          	beqz	a3,2a58 <T8_end+0x5c>
    260c:	000207b7          	lui	a5,0x20
    2610:	44d7d063          	bge	a5,a3,2a50 <T8_end+0x54>
    2614:	00000c13          	li	s8,0
    2618:	4016d693          	srai	a3,a3,0x1
    261c:	001c0c13          	addi	s8,s8,1
    2620:	fed7cce3          	blt	a5,a3,2618 <T8_start+0x20>
    2624:	ffff0b37          	lui	s6,0xffff0
    2628:	01668b33          	add	s6,a3,s6
    262c:	41fb5793          	srai	a5,s6,0x1f
    2630:	010b5593          	srli	a1,s6,0x10
    2634:	01079793          	slli	a5,a5,0x10
    2638:	00010737          	lui	a4,0x10
    263c:	00e68633          	add	a2,a3,a4
    2640:	41f65693          	srai	a3,a2,0x1f
    2644:	010b1513          	slli	a0,s6,0x10
    2648:	00f585b3          	add	a1,a1,a5
    264c:	4e9080ef          	jal	b334 <__divdi3>
    2650:	41f55613          	srai	a2,a0,0x1f
    2654:	02a607b3          	mul	a5,a2,a0
    2658:	02a506b3          	mul	a3,a0,a0
    265c:	02a53733          	mulhu	a4,a0,a0
    2660:	20e7a7b3          	sh1add	a5,a5,a4
    2664:	01079793          	slli	a5,a5,0x10
    2668:	0106d693          	srli	a3,a3,0x10
    266c:	00d786b3          	add	a3,a5,a3
    2670:	41f6d313          	srai	t1,a3,0x1f
    2674:	02d307b3          	mul	a5,t1,a3
    2678:	02d68733          	mul	a4,a3,a3
    267c:	02d6b5b3          	mulhu	a1,a3,a3
    2680:	20b7a7b3          	sh1add	a5,a5,a1
    2684:	01079793          	slli	a5,a5,0x10
    2688:	01075713          	srli	a4,a4,0x10
    268c:	00e78733          	add	a4,a5,a4
    2690:	41f75813          	srai	a6,a4,0x1f
    2694:	010c1793          	slli	a5,s8,0x10
    2698:	41f7d893          	srai	a7,a5,0x1f
    269c:	0000be37          	lui	t3,0xb
    26a0:	172e0e13          	addi	t3,t3,370 # b172 <__subdf3+0x62e>
    26a4:	03c888b3          	mul	a7,a7,t3
    26a8:	03c785b3          	mul	a1,a5,t3
    26ac:	03c7b7b3          	mulhu	a5,a5,t3
    26b0:	00f887b3          	add	a5,a7,a5
    26b4:	01079793          	slli	a5,a5,0x10
    26b8:	0105d593          	srli	a1,a1,0x10
    26bc:	00b785b3          	add	a1,a5,a1
    26c0:	00bb05b3          	add	a1,s6,a1
    26c4:	000028b7          	lui	a7,0x2
    26c8:	5e288893          	addi	a7,a7,1506 # 25e2 <T7_end+0x96>
    26cc:	03180e33          	mul	t3,a6,a7
    26d0:	031707b3          	mul	a5,a4,a7
    26d4:	031738b3          	mulhu	a7,a4,a7
    26d8:	011e08b3          	add	a7,t3,a7
    26dc:	01089893          	slli	a7,a7,0x10
    26e0:	0107d793          	srli	a5,a5,0x10
    26e4:	00f887b3          	add	a5,a7,a5
    26e8:	000038b7          	lui	a7,0x3
    26ec:	e8d88893          	addi	a7,a7,-371 # 2e8d <T9_start+0x411>
    26f0:	011787b3          	add	a5,a5,a7
    26f4:	41f7de13          	srai	t3,a5,0x1f
    26f8:	02ee0e33          	mul	t3,t3,a4
    26fc:	02f808b3          	mul	a7,a6,a5
    2700:	011e0e33          	add	t3,t3,a7
    2704:	02e788b3          	mul	a7,a5,a4
    2708:	02e7b7b3          	mulhu	a5,a5,a4
    270c:	00fe07b3          	add	a5,t3,a5
    2710:	01079793          	slli	a5,a5,0x10
    2714:	0108d893          	srli	a7,a7,0x10
    2718:	011788b3          	add	a7,a5,a7
    271c:	000057b7          	lui	a5,0x5
    2720:	92578793          	addi	a5,a5,-1755 # 4925 <T16_start+0x2ed>
    2724:	00f888b3          	add	a7,a7,a5
    2728:	41f8de13          	srai	t3,a7,0x1f
    272c:	02ee0e33          	mul	t3,t3,a4
    2730:	031807b3          	mul	a5,a6,a7
    2734:	00fe0e33          	add	t3,t3,a5
    2738:	02e887b3          	mul	a5,a7,a4
    273c:	02e8b8b3          	mulhu	a7,a7,a4
    2740:	011e08b3          	add	a7,t3,a7
    2744:	01089893          	slli	a7,a7,0x10
    2748:	0107d793          	srli	a5,a5,0x10
    274c:	00f887b3          	add	a5,a7,a5
    2750:	0000b8b7          	lui	a7,0xb
    2754:	aab88893          	addi	a7,a7,-1365 # aaab <__muldf3+0x54f>
    2758:	011787b3          	add	a5,a5,a7
    275c:	41f7d893          	srai	a7,a5,0x1f
    2760:	02d888b3          	mul	a7,a7,a3
    2764:	02f30333          	mul	t1,t1,a5
    2768:	00688333          	add	t1,a7,t1
    276c:	02d788b3          	mul	a7,a5,a3
    2770:	02d7b7b3          	mulhu	a5,a5,a3
    2774:	00f307b3          	add	a5,t1,a5
    2778:	01079793          	slli	a5,a5,0x10
    277c:	0108d893          	srli	a7,a7,0x10
    2780:	011788b3          	add	a7,a5,a7
    2784:	000027b7          	lui	a5,0x2
    2788:	73478793          	addi	a5,a5,1844 # 2734 <T8_start+0x13c>
    278c:	02f80333          	mul	t1,a6,a5
    2790:	02f706b3          	mul	a3,a4,a5
    2794:	02f737b3          	mulhu	a5,a4,a5
    2798:	00f307b3          	add	a5,t1,a5
    279c:	01079793          	slli	a5,a5,0x10
    27a0:	0106d693          	srli	a3,a3,0x10
    27a4:	00d786b3          	add	a3,a5,a3
    27a8:	000047b7          	lui	a5,0x4
    27ac:	8e478793          	addi	a5,a5,-1820 # 38e4 <T12_start+0x278>
    27b0:	00f686b3          	add	a3,a3,a5
    27b4:	41f6d313          	srai	t1,a3,0x1f
    27b8:	02e30333          	mul	t1,t1,a4
    27bc:	02d807b3          	mul	a5,a6,a3
    27c0:	00f30333          	add	t1,t1,a5
    27c4:	02e687b3          	mul	a5,a3,a4
    27c8:	02e6b6b3          	mulhu	a3,a3,a4
    27cc:	00d306b3          	add	a3,t1,a3
    27d0:	01069693          	slli	a3,a3,0x10
    27d4:	0107d793          	srli	a5,a5,0x10
    27d8:	00f687b3          	add	a5,a3,a5
    27dc:	000066b7          	lui	a3,0x6
    27e0:	66668693          	addi	a3,a3,1638 # 6666 <T25_start+0x41e>
    27e4:	00d787b3          	add	a5,a5,a3
    27e8:	41f7d693          	srai	a3,a5,0x1f
    27ec:	02e686b3          	mul	a3,a3,a4
    27f0:	02f80833          	mul	a6,a6,a5
    27f4:	010686b3          	add	a3,a3,a6
    27f8:	02e78833          	mul	a6,a5,a4
    27fc:	02e7b7b3          	mulhu	a5,a5,a4
    2800:	00f687b3          	add	a5,a3,a5
    2804:	01079793          	slli	a5,a5,0x10
    2808:	01085713          	srli	a4,a6,0x10
    280c:	00e78733          	add	a4,a5,a4
    2810:	00e888b3          	add	a7,a7,a4
    2814:	411b0b33          	sub	s6,s6,a7
    2818:	41fb5793          	srai	a5,s6,0x1f
    281c:	02a787b3          	mul	a5,a5,a0
    2820:	03660633          	mul	a2,a2,s6
    2824:	00c787b3          	add	a5,a5,a2
    2828:	02ab0733          	mul	a4,s6,a0
    282c:	02ab3b33          	mulhu	s6,s6,a0
    2830:	016787b3          	add	a5,a5,s6
    2834:	01079793          	slli	a5,a5,0x10
    2838:	01075713          	srli	a4,a4,0x10
    283c:	00e78733          	add	a4,a5,a4
    2840:	40e585b3          	sub	a1,a1,a4
    2844:	02b12823          	sw	a1,48(sp)
    2848:	000a2783          	lw	a5,0(s4)
    284c:	0084a703          	lw	a4,8(s1)
    2850:	0ae7e7b3          	max	a5,a5,a4
    2854:	02f12a23          	sw	a5,52(sp)
    2858:	00492783          	lw	a5,4(s2)
    285c:	000106b7          	lui	a3,0x10
    2860:	18078c63          	beqz	a5,29f8 <T8_start+0x400>
    2864:	40f00633          	neg	a2,a5
    2868:	0ac7e633          	max	a2,a5,a2
    286c:	41f65693          	srai	a3,a2,0x1f
    2870:	00017737          	lui	a4,0x17
    2874:	15470713          	addi	a4,a4,340 # 17154 <heap.cpp.6b15d6f6+0x953>
    2878:	02e686b3          	mul	a3,a3,a4
    287c:	02e60b33          	mul	s6,a2,a4
    2880:	02e63633          	mulhu	a2,a2,a4
    2884:	00c686b3          	add	a3,a3,a2
    2888:	01069693          	slli	a3,a3,0x10
    288c:	010b5b13          	srli	s6,s6,0x10
    2890:	01668b33          	add	s6,a3,s6
    2894:	00008737          	lui	a4,0x8
    2898:	00eb0b33          	add	s6,s6,a4
    289c:	ffff0737          	lui	a4,0xffff0
    28a0:	00eb7b33          	and	s6,s6,a4
    28a4:	1a07ce63          	bltz	a5,2a60 <T8_end+0x64>
    28a8:	41fb5693          	srai	a3,s6,0x1f
    28ac:	0000b637          	lui	a2,0xb
    28b0:	17260613          	addi	a2,a2,370 # b172 <__subdf3+0x62e>
    28b4:	02c686b3          	mul	a3,a3,a2
    28b8:	02cb0733          	mul	a4,s6,a2
    28bc:	02cb3633          	mulhu	a2,s6,a2
    28c0:	00c686b3          	add	a3,a3,a2
    28c4:	01069693          	slli	a3,a3,0x10
    28c8:	01075713          	srli	a4,a4,0x10
    28cc:	00e68733          	add	a4,a3,a4
    28d0:	40e78733          	sub	a4,a5,a4
    28d4:	41f75693          	srai	a3,a4,0x1f
    28d8:	02e686b3          	mul	a3,a3,a4
    28dc:	02e707b3          	mul	a5,a4,a4
    28e0:	02e73633          	mulhu	a2,a4,a4
    28e4:	20c6a6b3          	sh1add	a3,a3,a2
    28e8:	01069693          	slli	a3,a3,0x10
    28ec:	0107d793          	srli	a5,a5,0x10
    28f0:	00f687b3          	add	a5,a3,a5
    28f4:	41f7d513          	srai	a0,a5,0x1f
    28f8:	01e7d693          	srli	a3,a5,0x1e
    28fc:	20d546b3          	sh2add	a3,a0,a3
    2900:	00279613          	slli	a2,a5,0x2
    2904:	01069693          	slli	a3,a3,0x10
    2908:	01065613          	srli	a2,a2,0x10
    290c:	00c68633          	add	a2,a3,a2
    2910:	f4a60613          	addi	a2,a2,-182
    2914:	41f65593          	srai	a1,a2,0x1f
    2918:	02f585b3          	mul	a1,a1,a5
    291c:	02c506b3          	mul	a3,a0,a2
    2920:	00d585b3          	add	a1,a1,a3
    2924:	02f606b3          	mul	a3,a2,a5
    2928:	02f63633          	mulhu	a2,a2,a5
    292c:	00c58633          	add	a2,a1,a2
    2930:	01061613          	slli	a2,a2,0x10
    2934:	0106d693          	srli	a3,a3,0x10
    2938:	00d606b3          	add	a3,a2,a3
    293c:	00003637          	lui	a2,0x3
    2940:	aab60613          	addi	a2,a2,-1365 # 2aab <T9_start+0x2f>
    2944:	00c686b3          	add	a3,a3,a2
    2948:	41f6d613          	srai	a2,a3,0x1f
    294c:	02f60633          	mul	a2,a2,a5
    2950:	02d50533          	mul	a0,a0,a3
    2954:	00a60633          	add	a2,a2,a0
    2958:	02f685b3          	mul	a1,a3,a5
    295c:	02f6b6b3          	mulhu	a3,a3,a5
    2960:	00d607b3          	add	a5,a2,a3
    2964:	01079793          	slli	a5,a5,0x10
    2968:	0105d693          	srli	a3,a1,0x10
    296c:	00d786b3          	add	a3,a5,a3
    2970:	000207b7          	lui	a5,0x20
    2974:	00f686b3          	add	a3,a3,a5
    2978:	40e68633          	sub	a2,a3,a4
    297c:	02e68c63          	beq	a3,a4,29b4 <T8_start+0x3bc>
    2980:	00f75693          	srli	a3,a4,0xf
    2984:	01171793          	slli	a5,a4,0x11
    2988:	01069713          	slli	a4,a3,0x10
    298c:	0107d793          	srli	a5,a5,0x10
    2990:	00f707b3          	add	a5,a4,a5
    2994:	41f7d713          	srai	a4,a5,0x1f
    2998:	0107d593          	srli	a1,a5,0x10
    299c:	01071713          	slli	a4,a4,0x10
    29a0:	41f65693          	srai	a3,a2,0x1f
    29a4:	01079513          	slli	a0,a5,0x10
    29a8:	00e585b3          	add	a1,a1,a4
    29ac:	189080ef          	jal	b334 <__divdi3>
    29b0:	00050613          	mv	a2,a0
    29b4:	000107b7          	lui	a5,0x10
    29b8:	00f60633          	add	a2,a2,a5
    29bc:	0a0b4663          	bltz	s6,2a68 <T8_end+0x6c>
    29c0:	410b5b13          	srai	s6,s6,0x10
    29c4:	000107b7          	lui	a5,0x10
    29c8:	016797b3          	sll	a5,a5,s6
    29cc:	41f7d693          	srai	a3,a5,0x1f
    29d0:	41f65713          	srai	a4,a2,0x1f
    29d4:	02c686b3          	mul	a3,a3,a2
    29d8:	02f70733          	mul	a4,a4,a5
    29dc:	00e686b3          	add	a3,a3,a4
    29e0:	02c78733          	mul	a4,a5,a2
    29e4:	02c7b7b3          	mulhu	a5,a5,a2
    29e8:	00f686b3          	add	a3,a3,a5
    29ec:	01069693          	slli	a3,a3,0x10
    29f0:	01075793          	srli	a5,a4,0x10
    29f4:	00f686b3          	add	a3,a3,a5
    29f8:	02d12c23          	sw	a3,56(sp)

000029fc <T8_end>:
    29fc:	b00027f3          	csrr	a5,mcycle
    2a00:	417787b3          	sub	a5,a5,s7
    2a04:	02f9a023          	sw	a5,32(s3)
    2a08:	03012683          	lw	a3,48(sp)
    2a0c:	03412703          	lw	a4,52(sp)
    2a10:	00100793          	li	a5,1
    2a14:	00d75663          	bge	a4,a3,2a20 <T8_end+0x24>
    2a18:	00068713          	mv	a4,a3
    2a1c:	00000793          	li	a5,0
    2a20:	03812683          	lw	a3,56(sp)
    2a24:	00e6c463          	blt	a3,a4,2a2c <T8_end+0x30>
    2a28:	00200793          	li	a5,2
    2a2c:	00020737          	lui	a4,0x20
    2a30:	000206b7          	lui	a3,0x20
    2a34:	17068693          	addi	a3,a3,368 # 20170 <next.19>
    2a38:	20d7c7b3          	sh2add	a5,a5,a3
    2a3c:	0007a783          	lw	a5,0(a5) # 10000 <fast_intr_ctrl.c.233e5230+0x207>
    2a40:	1fc70713          	addi	a4,a4,508 # 201fc <jump_table.28>
    2a44:	20e7c7b3          	sh2add	a5,a5,a4
    2a48:	0007a783          	lw	a5,0(a5)
    2a4c:	954fe06f          	j	ba0 <inferenceTPG+0x50>
    2a50:	00000c13          	li	s8,0
    2a54:	bd1ff06f          	j	2624 <T8_start+0x2c>
    2a58:	fff00593          	li	a1,-1
    2a5c:	de9ff06f          	j	2844 <T8_start+0x24c>
    2a60:	41600b33          	neg	s6,s6
    2a64:	e45ff06f          	j	28a8 <T8_start+0x2b0>
    2a68:	41600733          	neg	a4,s6
    2a6c:	41075713          	srai	a4,a4,0x10
    2a70:	40e7d7b3          	sra	a5,a5,a4
    2a74:	f59ff06f          	j	29cc <T8_start+0x3d4>
    2a78:	1fb12823          	sw	s11,496(sp)

00002a7c <T9_start>:
    2a7c:	b00027f3          	csrr	a5,mcycle
    2a80:	00078d93          	mv	s11,a5
    2a84:	0044ac03          	lw	s8,4(s1)
    2a88:	000a2783          	lw	a5,0(s4)
    2a8c:	00078c93          	mv	s9,a5
    2a90:	018787b3          	add	a5,a5,s8
    2a94:	1af12823          	sw	a5,432(sp)
    2a98:	000aa683          	lw	a3,0(s5)
    2a9c:	00000593          	li	a1,0
    2aa0:	2406c063          	bltz	a3,2ce0 <T9_start+0x264>
    2aa4:	4a068863          	beqz	a3,2f54 <T9_end+0x2c>
    2aa8:	000207b7          	lui	a5,0x20
    2aac:	4ad7d063          	bge	a5,a3,2f4c <T9_end+0x24>
    2ab0:	00000b13          	li	s6,0
    2ab4:	4016d693          	srai	a3,a3,0x1
    2ab8:	001b0b13          	addi	s6,s6,1 # ffff0001 <_sp+0xfffc6051>
    2abc:	fed7cce3          	blt	a5,a3,2ab4 <T9_start+0x38>
    2ac0:	ffff0bb7          	lui	s7,0xffff0
    2ac4:	01768bb3          	add	s7,a3,s7
    2ac8:	41fbd793          	srai	a5,s7,0x1f
    2acc:	010bd593          	srli	a1,s7,0x10
    2ad0:	01079793          	slli	a5,a5,0x10
    2ad4:	00010737          	lui	a4,0x10
    2ad8:	00e68633          	add	a2,a3,a4
    2adc:	41f65693          	srai	a3,a2,0x1f
    2ae0:	010b9513          	slli	a0,s7,0x10
    2ae4:	00f585b3          	add	a1,a1,a5
    2ae8:	04d080ef          	jal	b334 <__divdi3>
    2aec:	41f55613          	srai	a2,a0,0x1f
    2af0:	02a607b3          	mul	a5,a2,a0
    2af4:	02a50733          	mul	a4,a0,a0
    2af8:	02a536b3          	mulhu	a3,a0,a0
    2afc:	20d7a7b3          	sh1add	a5,a5,a3
    2b00:	01079793          	slli	a5,a5,0x10
    2b04:	01075713          	srli	a4,a4,0x10
    2b08:	00e78733          	add	a4,a5,a4
    2b0c:	41f75313          	srai	t1,a4,0x1f
    2b10:	02e306b3          	mul	a3,t1,a4
    2b14:	02e707b3          	mul	a5,a4,a4
    2b18:	02e735b3          	mulhu	a1,a4,a4
    2b1c:	20b6a6b3          	sh1add	a3,a3,a1
    2b20:	01069693          	slli	a3,a3,0x10
    2b24:	0107d793          	srli	a5,a5,0x10
    2b28:	00f687b3          	add	a5,a3,a5
    2b2c:	41f7d813          	srai	a6,a5,0x1f
    2b30:	010b1b13          	slli	s6,s6,0x10
    2b34:	41fb5693          	srai	a3,s6,0x1f
    2b38:	0000b8b7          	lui	a7,0xb
    2b3c:	17288893          	addi	a7,a7,370 # b172 <__subdf3+0x62e>
    2b40:	031686b3          	mul	a3,a3,a7
    2b44:	031b05b3          	mul	a1,s6,a7
    2b48:	031b3b33          	mulhu	s6,s6,a7
    2b4c:	016686b3          	add	a3,a3,s6
    2b50:	01069693          	slli	a3,a3,0x10
    2b54:	0105d593          	srli	a1,a1,0x10
    2b58:	00b685b3          	add	a1,a3,a1
    2b5c:	00bb85b3          	add	a1,s7,a1
    2b60:	000028b7          	lui	a7,0x2
    2b64:	5e288893          	addi	a7,a7,1506 # 25e2 <T7_end+0x96>
    2b68:	03180e33          	mul	t3,a6,a7
    2b6c:	031786b3          	mul	a3,a5,a7
    2b70:	0317b8b3          	mulhu	a7,a5,a7
    2b74:	011e08b3          	add	a7,t3,a7
    2b78:	01089893          	slli	a7,a7,0x10
    2b7c:	0106d693          	srli	a3,a3,0x10
    2b80:	00d886b3          	add	a3,a7,a3
    2b84:	000038b7          	lui	a7,0x3
    2b88:	e8d88893          	addi	a7,a7,-371 # 2e8d <T9_start+0x411>
    2b8c:	011686b3          	add	a3,a3,a7
    2b90:	41f6de13          	srai	t3,a3,0x1f
    2b94:	02fe0e33          	mul	t3,t3,a5
    2b98:	02d808b3          	mul	a7,a6,a3
    2b9c:	011e0e33          	add	t3,t3,a7
    2ba0:	02f688b3          	mul	a7,a3,a5
    2ba4:	02f6b6b3          	mulhu	a3,a3,a5
    2ba8:	00de06b3          	add	a3,t3,a3
    2bac:	01069693          	slli	a3,a3,0x10
    2bb0:	0108d893          	srli	a7,a7,0x10
    2bb4:	011688b3          	add	a7,a3,a7
    2bb8:	000056b7          	lui	a3,0x5
    2bbc:	92568693          	addi	a3,a3,-1755 # 4925 <T16_start+0x2ed>
    2bc0:	00d888b3          	add	a7,a7,a3
    2bc4:	41f8de13          	srai	t3,a7,0x1f
    2bc8:	02fe0e33          	mul	t3,t3,a5
    2bcc:	031806b3          	mul	a3,a6,a7
    2bd0:	00de0e33          	add	t3,t3,a3
    2bd4:	02f886b3          	mul	a3,a7,a5
    2bd8:	02f8b8b3          	mulhu	a7,a7,a5
    2bdc:	011e08b3          	add	a7,t3,a7
    2be0:	01089893          	slli	a7,a7,0x10
    2be4:	0106d693          	srli	a3,a3,0x10
    2be8:	00d886b3          	add	a3,a7,a3
    2bec:	0000b8b7          	lui	a7,0xb
    2bf0:	aab88893          	addi	a7,a7,-1365 # aaab <__muldf3+0x54f>
    2bf4:	011686b3          	add	a3,a3,a7
    2bf8:	41f6d893          	srai	a7,a3,0x1f
    2bfc:	02e888b3          	mul	a7,a7,a4
    2c00:	02d30333          	mul	t1,t1,a3
    2c04:	00688333          	add	t1,a7,t1
    2c08:	02e688b3          	mul	a7,a3,a4
    2c0c:	02e6b6b3          	mulhu	a3,a3,a4
    2c10:	00d30733          	add	a4,t1,a3
    2c14:	01071713          	slli	a4,a4,0x10
    2c18:	0108d893          	srli	a7,a7,0x10
    2c1c:	011708b3          	add	a7,a4,a7
    2c20:	00002737          	lui	a4,0x2
    2c24:	73470713          	addi	a4,a4,1844 # 2734 <T8_start+0x13c>
    2c28:	02e80333          	mul	t1,a6,a4
    2c2c:	02e786b3          	mul	a3,a5,a4
    2c30:	02e7b733          	mulhu	a4,a5,a4
    2c34:	00e30733          	add	a4,t1,a4
    2c38:	01071713          	slli	a4,a4,0x10
    2c3c:	0106d693          	srli	a3,a3,0x10
    2c40:	00d706b3          	add	a3,a4,a3
    2c44:	00004737          	lui	a4,0x4
    2c48:	8e470713          	addi	a4,a4,-1820 # 38e4 <T12_start+0x278>
    2c4c:	00e686b3          	add	a3,a3,a4
    2c50:	41f6d313          	srai	t1,a3,0x1f
    2c54:	02f30333          	mul	t1,t1,a5
    2c58:	02d80733          	mul	a4,a6,a3
    2c5c:	00e30333          	add	t1,t1,a4
    2c60:	02f68733          	mul	a4,a3,a5
    2c64:	02f6b6b3          	mulhu	a3,a3,a5
    2c68:	00d306b3          	add	a3,t1,a3
    2c6c:	01069693          	slli	a3,a3,0x10
    2c70:	01075713          	srli	a4,a4,0x10
    2c74:	00e68733          	add	a4,a3,a4
    2c78:	000066b7          	lui	a3,0x6
    2c7c:	66668693          	addi	a3,a3,1638 # 6666 <T25_start+0x41e>
    2c80:	00d70733          	add	a4,a4,a3
    2c84:	41f75693          	srai	a3,a4,0x1f
    2c88:	02f686b3          	mul	a3,a3,a5
    2c8c:	02e80833          	mul	a6,a6,a4
    2c90:	010686b3          	add	a3,a3,a6
    2c94:	02f70833          	mul	a6,a4,a5
    2c98:	02f73733          	mulhu	a4,a4,a5
    2c9c:	00e687b3          	add	a5,a3,a4
    2ca0:	01079793          	slli	a5,a5,0x10
    2ca4:	01085713          	srli	a4,a6,0x10
    2ca8:	00e78733          	add	a4,a5,a4
    2cac:	00e888b3          	add	a7,a7,a4
    2cb0:	411b8bb3          	sub	s7,s7,a7
    2cb4:	41fbd793          	srai	a5,s7,0x1f
    2cb8:	02a787b3          	mul	a5,a5,a0
    2cbc:	03760633          	mul	a2,a2,s7
    2cc0:	00c787b3          	add	a5,a5,a2
    2cc4:	02ab8733          	mul	a4,s7,a0
    2cc8:	02abbbb3          	mulhu	s7,s7,a0
    2ccc:	017787b3          	add	a5,a5,s7
    2cd0:	01079793          	slli	a5,a5,0x10
    2cd4:	01075713          	srli	a4,a4,0x10
    2cd8:	00e78733          	add	a4,a5,a4
    2cdc:	40e585b3          	sub	a1,a1,a4
    2ce0:	1ab12a23          	sw	a1,436(sp)
    2ce4:	00492b83          	lw	s7,4(s2)
    2ce8:	01092603          	lw	a2,16(s2)
    2cec:	02060263          	beqz	a2,2d10 <T9_start+0x294>
    2cf0:	41fbd793          	srai	a5,s7,0x1f
    2cf4:	010bd593          	srli	a1,s7,0x10
    2cf8:	01079793          	slli	a5,a5,0x10
    2cfc:	41f65693          	srai	a3,a2,0x1f
    2d00:	010b9513          	slli	a0,s7,0x10
    2d04:	00f585b3          	add	a1,a1,a5
    2d08:	62c080ef          	jal	b334 <__divdi3>
    2d0c:	00050613          	mv	a2,a0
    2d10:	1ac12c23          	sw	a2,440(sp)
    2d14:	0084ab03          	lw	s6,8(s1)
    2d18:	0b9b67b3          	max	a5,s6,s9
    2d1c:	1af12e23          	sw	a5,444(sp)
    2d20:	416c07b3          	sub	a5,s8,s6
    2d24:	1cf12023          	sw	a5,448(sp)
    2d28:	020c0663          	beqz	s8,2d54 <T9_start+0x2d8>
    2d2c:	0004a503          	lw	a0,0(s1)
    2d30:	41f55793          	srai	a5,a0,0x1f
    2d34:	01055593          	srli	a1,a0,0x10
    2d38:	01079793          	slli	a5,a5,0x10
    2d3c:	000c0613          	mv	a2,s8
    2d40:	41fc5693          	srai	a3,s8,0x1f
    2d44:	01051513          	slli	a0,a0,0x10
    2d48:	00f585b3          	add	a1,a1,a5
    2d4c:	5e8080ef          	jal	b334 <__divdi3>
    2d50:	00050c13          	mv	s8,a0
    2d54:	1d812223          	sw	s8,452(sp)
    2d58:	000107b7          	lui	a5,0x10
    2d5c:	180b8c63          	beqz	s7,2ef4 <T9_start+0x478>
    2d60:	417006b3          	neg	a3,s7
    2d64:	0adbe6b3          	max	a3,s7,a3
    2d68:	41f6d713          	srai	a4,a3,0x1f
    2d6c:	00017637          	lui	a2,0x17
    2d70:	15460613          	addi	a2,a2,340 # 17154 <heap.cpp.6b15d6f6+0x953>
    2d74:	02c70733          	mul	a4,a4,a2
    2d78:	02c687b3          	mul	a5,a3,a2
    2d7c:	02c6b6b3          	mulhu	a3,a3,a2
    2d80:	00d70733          	add	a4,a4,a3
    2d84:	01071713          	slli	a4,a4,0x10
    2d88:	0107d793          	srli	a5,a5,0x10
    2d8c:	00f707b3          	add	a5,a4,a5
    2d90:	00008737          	lui	a4,0x8
    2d94:	00e787b3          	add	a5,a5,a4
    2d98:	ffff0737          	lui	a4,0xffff0
    2d9c:	00e7fc33          	and	s8,a5,a4
    2da0:	1a0bce63          	bltz	s7,2f5c <T9_end+0x34>
    2da4:	41fc5713          	srai	a4,s8,0x1f
    2da8:	0000b6b7          	lui	a3,0xb
    2dac:	17268693          	addi	a3,a3,370 # b172 <__subdf3+0x62e>
    2db0:	02d70733          	mul	a4,a4,a3
    2db4:	02dc07b3          	mul	a5,s8,a3
    2db8:	02dc36b3          	mulhu	a3,s8,a3
    2dbc:	00d70733          	add	a4,a4,a3
    2dc0:	01071713          	slli	a4,a4,0x10
    2dc4:	0107d793          	srli	a5,a5,0x10
    2dc8:	00f707b3          	add	a5,a4,a5
    2dcc:	40fb87b3          	sub	a5,s7,a5
    2dd0:	41f7d693          	srai	a3,a5,0x1f
    2dd4:	02f686b3          	mul	a3,a3,a5
    2dd8:	02f78733          	mul	a4,a5,a5
    2ddc:	02f7b633          	mulhu	a2,a5,a5
    2de0:	20c6a6b3          	sh1add	a3,a3,a2
    2de4:	01069693          	slli	a3,a3,0x10
    2de8:	01075713          	srli	a4,a4,0x10
    2dec:	00e68733          	add	a4,a3,a4
    2df0:	41f75513          	srai	a0,a4,0x1f
    2df4:	01e75693          	srli	a3,a4,0x1e
    2df8:	20d546b3          	sh2add	a3,a0,a3
    2dfc:	00271613          	slli	a2,a4,0x2
    2e00:	01069693          	slli	a3,a3,0x10
    2e04:	01065613          	srli	a2,a2,0x10
    2e08:	00c68633          	add	a2,a3,a2
    2e0c:	f4a60613          	addi	a2,a2,-182
    2e10:	41f65593          	srai	a1,a2,0x1f
    2e14:	02e585b3          	mul	a1,a1,a4
    2e18:	02c506b3          	mul	a3,a0,a2
    2e1c:	00d585b3          	add	a1,a1,a3
    2e20:	02e606b3          	mul	a3,a2,a4
    2e24:	02e63633          	mulhu	a2,a2,a4
    2e28:	00c58633          	add	a2,a1,a2
    2e2c:	01061613          	slli	a2,a2,0x10
    2e30:	0106d693          	srli	a3,a3,0x10
    2e34:	00d606b3          	add	a3,a2,a3
    2e38:	00003637          	lui	a2,0x3
    2e3c:	aab60613          	addi	a2,a2,-1365 # 2aab <T9_start+0x2f>
    2e40:	00c686b3          	add	a3,a3,a2
    2e44:	41f6d613          	srai	a2,a3,0x1f
    2e48:	02e60633          	mul	a2,a2,a4
    2e4c:	02d50533          	mul	a0,a0,a3
    2e50:	00a60633          	add	a2,a2,a0
    2e54:	02e685b3          	mul	a1,a3,a4
    2e58:	02e6b6b3          	mulhu	a3,a3,a4
    2e5c:	00d60733          	add	a4,a2,a3
    2e60:	01071713          	slli	a4,a4,0x10
    2e64:	0105d693          	srli	a3,a1,0x10
    2e68:	00d706b3          	add	a3,a4,a3
    2e6c:	00020737          	lui	a4,0x20
    2e70:	00e686b3          	add	a3,a3,a4
    2e74:	40f68633          	sub	a2,a3,a5
    2e78:	02f68c63          	beq	a3,a5,2eb0 <T9_start+0x434>
    2e7c:	00f7d713          	srli	a4,a5,0xf
    2e80:	01179793          	slli	a5,a5,0x11
    2e84:	01071713          	slli	a4,a4,0x10
    2e88:	0107d793          	srli	a5,a5,0x10
    2e8c:	00f707b3          	add	a5,a4,a5
    2e90:	41f7d713          	srai	a4,a5,0x1f
    2e94:	0107d593          	srli	a1,a5,0x10
    2e98:	01071713          	slli	a4,a4,0x10
    2e9c:	41f65693          	srai	a3,a2,0x1f
    2ea0:	01079513          	slli	a0,a5,0x10
    2ea4:	00e585b3          	add	a1,a1,a4
    2ea8:	48c080ef          	jal	b334 <__divdi3>
    2eac:	00050613          	mv	a2,a0
    2eb0:	000107b7          	lui	a5,0x10
    2eb4:	00f606b3          	add	a3,a2,a5
    2eb8:	0a0c4663          	bltz	s8,2f64 <T9_end+0x3c>
    2ebc:	410c5793          	srai	a5,s8,0x10
    2ec0:	00010737          	lui	a4,0x10
    2ec4:	00f71733          	sll	a4,a4,a5
    2ec8:	41f75793          	srai	a5,a4,0x1f
    2ecc:	41f6d613          	srai	a2,a3,0x1f
    2ed0:	02d787b3          	mul	a5,a5,a3
    2ed4:	02e60633          	mul	a2,a2,a4
    2ed8:	00c787b3          	add	a5,a5,a2
    2edc:	02d70633          	mul	a2,a4,a3
    2ee0:	02d73733          	mulhu	a4,a4,a3
    2ee4:	00e787b3          	add	a5,a5,a4
    2ee8:	01079793          	slli	a5,a5,0x10
    2eec:	01065713          	srli	a4,a2,0x10
    2ef0:	00e787b3          	add	a5,a5,a4
    2ef4:	1cf12423          	sw	a5,456(sp)
    2ef8:	020b0663          	beqz	s6,2f24 <T9_start+0x4a8>
    2efc:	00092503          	lw	a0,0(s2)
    2f00:	41f55793          	srai	a5,a0,0x1f
    2f04:	01055593          	srli	a1,a0,0x10
    2f08:	01079793          	slli	a5,a5,0x10
    2f0c:	000b0613          	mv	a2,s6
    2f10:	41fb5693          	srai	a3,s6,0x1f
    2f14:	01051513          	slli	a0,a0,0x10
    2f18:	00f585b3          	add	a1,a1,a5
    2f1c:	418080ef          	jal	b334 <__divdi3>
    2f20:	00050b13          	mv	s6,a0
    2f24:	1d612623          	sw	s6,460(sp)

00002f28 <T9_end>:
    2f28:	b00027f3          	csrr	a5,mcycle
    2f2c:	41b787b3          	sub	a5,a5,s11
    2f30:	02f9a223          	sw	a5,36(s3)
    2f34:	1b012603          	lw	a2,432(sp)
    2f38:	1b010713          	addi	a4,sp,432
    2f3c:	00000513          	li	a0,0
    2f40:	00100793          	li	a5,1
    2f44:	00800593          	li	a1,8
    2f48:	03c0006f          	j	2f84 <T9_end+0x5c>
    2f4c:	00000b13          	li	s6,0
    2f50:	b71ff06f          	j	2ac0 <T9_start+0x44>
    2f54:	fff00593          	li	a1,-1
    2f58:	d89ff06f          	j	2ce0 <T9_start+0x264>
    2f5c:	41800c33          	neg	s8,s8
    2f60:	e45ff06f          	j	2da4 <T9_start+0x328>
    2f64:	418007b3          	neg	a5,s8
    2f68:	4107d793          	srai	a5,a5,0x10
    2f6c:	00010737          	lui	a4,0x10
    2f70:	40f75733          	sra	a4,a4,a5
    2f74:	f55ff06f          	j	2ec8 <T9_start+0x44c>
    2f78:	00178793          	addi	a5,a5,1 # 10001 <fast_intr_ctrl.c.233e5230+0x208>
    2f7c:	00470713          	addi	a4,a4,4 # 10004 <fast_intr_ctrl.c.233e5230+0x20b>
    2f80:	00b78c63          	beq	a5,a1,2f98 <T9_end+0x70>
    2f84:	00472683          	lw	a3,4(a4)
    2f88:	fec6c8e3          	blt	a3,a2,2f78 <T9_end+0x50>
    2f8c:	00068613          	mv	a2,a3
    2f90:	00078513          	mv	a0,a5
    2f94:	fe5ff06f          	j	2f78 <T9_end+0x50>
    2f98:	00020737          	lui	a4,0x20
    2f9c:	000207b7          	lui	a5,0x20
    2fa0:	15078793          	addi	a5,a5,336 # 20150 <next.18>
    2fa4:	20f54533          	sh2add	a0,a0,a5
    2fa8:	00052783          	lw	a5,0(a0)
    2fac:	1fc70713          	addi	a4,a4,508 # 201fc <jump_table.28>
    2fb0:	20e7c7b3          	sh2add	a5,a5,a4
    2fb4:	0007a783          	lw	a5,0(a5)
    2fb8:	1f012d83          	lw	s11,496(sp)
    2fbc:	be5fd06f          	j	ba0 <inferenceTPG+0x50>

00002fc0 <T10_start>:
    2fc0:	b0002bf3          	csrr	s7,mcycle
    2fc4:	01092683          	lw	a3,16(s2)
    2fc8:	00000593          	li	a1,0
    2fcc:	2406c063          	bltz	a3,320c <T10_start+0x24c>
    2fd0:	44068463          	beqz	a3,3418 <T10_end+0x5c>
    2fd4:	000207b7          	lui	a5,0x20
    2fd8:	42d7dc63          	bge	a5,a3,3410 <T10_end+0x54>
    2fdc:	00000c13          	li	s8,0
    2fe0:	4016d693          	srai	a3,a3,0x1
    2fe4:	001c0c13          	addi	s8,s8,1
    2fe8:	fed7cce3          	blt	a5,a3,2fe0 <T10_start+0x20>
    2fec:	ffff0b37          	lui	s6,0xffff0
    2ff0:	01668b33          	add	s6,a3,s6
    2ff4:	41fb5793          	srai	a5,s6,0x1f
    2ff8:	010b5593          	srli	a1,s6,0x10
    2ffc:	01079793          	slli	a5,a5,0x10
    3000:	00010737          	lui	a4,0x10
    3004:	00e68633          	add	a2,a3,a4
    3008:	41f65693          	srai	a3,a2,0x1f
    300c:	010b1513          	slli	a0,s6,0x10
    3010:	00f585b3          	add	a1,a1,a5
    3014:	320080ef          	jal	b334 <__divdi3>
    3018:	41f55613          	srai	a2,a0,0x1f
    301c:	02a607b3          	mul	a5,a2,a0
    3020:	02a506b3          	mul	a3,a0,a0
    3024:	02a53733          	mulhu	a4,a0,a0
    3028:	20e7a7b3          	sh1add	a5,a5,a4
    302c:	01079793          	slli	a5,a5,0x10
    3030:	0106d693          	srli	a3,a3,0x10
    3034:	00d786b3          	add	a3,a5,a3
    3038:	41f6d313          	srai	t1,a3,0x1f
    303c:	02d307b3          	mul	a5,t1,a3
    3040:	02d68733          	mul	a4,a3,a3
    3044:	02d6b5b3          	mulhu	a1,a3,a3
    3048:	20b7a7b3          	sh1add	a5,a5,a1
    304c:	01079793          	slli	a5,a5,0x10
    3050:	01075713          	srli	a4,a4,0x10
    3054:	00e78733          	add	a4,a5,a4
    3058:	41f75813          	srai	a6,a4,0x1f
    305c:	010c1793          	slli	a5,s8,0x10
    3060:	41f7d893          	srai	a7,a5,0x1f
    3064:	0000be37          	lui	t3,0xb
    3068:	172e0e13          	addi	t3,t3,370 # b172 <__subdf3+0x62e>
    306c:	03c888b3          	mul	a7,a7,t3
    3070:	03c785b3          	mul	a1,a5,t3
    3074:	03c7b7b3          	mulhu	a5,a5,t3
    3078:	00f887b3          	add	a5,a7,a5
    307c:	01079793          	slli	a5,a5,0x10
    3080:	0105d593          	srli	a1,a1,0x10
    3084:	00b785b3          	add	a1,a5,a1
    3088:	00bb05b3          	add	a1,s6,a1
    308c:	000028b7          	lui	a7,0x2
    3090:	5e288893          	addi	a7,a7,1506 # 25e2 <T7_end+0x96>
    3094:	03180e33          	mul	t3,a6,a7
    3098:	031707b3          	mul	a5,a4,a7
    309c:	031738b3          	mulhu	a7,a4,a7
    30a0:	011e08b3          	add	a7,t3,a7
    30a4:	01089893          	slli	a7,a7,0x10
    30a8:	0107d793          	srli	a5,a5,0x10
    30ac:	00f887b3          	add	a5,a7,a5
    30b0:	000038b7          	lui	a7,0x3
    30b4:	e8d88893          	addi	a7,a7,-371 # 2e8d <T9_start+0x411>
    30b8:	011787b3          	add	a5,a5,a7
    30bc:	41f7de13          	srai	t3,a5,0x1f
    30c0:	02ee0e33          	mul	t3,t3,a4
    30c4:	02f808b3          	mul	a7,a6,a5
    30c8:	011e0e33          	add	t3,t3,a7
    30cc:	02e788b3          	mul	a7,a5,a4
    30d0:	02e7b7b3          	mulhu	a5,a5,a4
    30d4:	00fe07b3          	add	a5,t3,a5
    30d8:	01079793          	slli	a5,a5,0x10
    30dc:	0108d893          	srli	a7,a7,0x10
    30e0:	011788b3          	add	a7,a5,a7
    30e4:	000057b7          	lui	a5,0x5
    30e8:	92578793          	addi	a5,a5,-1755 # 4925 <T16_start+0x2ed>
    30ec:	00f888b3          	add	a7,a7,a5
    30f0:	41f8de13          	srai	t3,a7,0x1f
    30f4:	02ee0e33          	mul	t3,t3,a4
    30f8:	031807b3          	mul	a5,a6,a7
    30fc:	00fe0e33          	add	t3,t3,a5
    3100:	02e887b3          	mul	a5,a7,a4
    3104:	02e8b8b3          	mulhu	a7,a7,a4
    3108:	011e08b3          	add	a7,t3,a7
    310c:	01089893          	slli	a7,a7,0x10
    3110:	0107d793          	srli	a5,a5,0x10
    3114:	00f887b3          	add	a5,a7,a5
    3118:	0000b8b7          	lui	a7,0xb
    311c:	aab88893          	addi	a7,a7,-1365 # aaab <__muldf3+0x54f>
    3120:	011787b3          	add	a5,a5,a7
    3124:	41f7d893          	srai	a7,a5,0x1f
    3128:	02d888b3          	mul	a7,a7,a3
    312c:	02f30333          	mul	t1,t1,a5
    3130:	00688333          	add	t1,a7,t1
    3134:	02d788b3          	mul	a7,a5,a3
    3138:	02d7b7b3          	mulhu	a5,a5,a3
    313c:	00f307b3          	add	a5,t1,a5
    3140:	01079793          	slli	a5,a5,0x10
    3144:	0108d893          	srli	a7,a7,0x10
    3148:	011788b3          	add	a7,a5,a7
    314c:	000027b7          	lui	a5,0x2
    3150:	73478793          	addi	a5,a5,1844 # 2734 <T8_start+0x13c>
    3154:	02f80333          	mul	t1,a6,a5
    3158:	02f706b3          	mul	a3,a4,a5
    315c:	02f737b3          	mulhu	a5,a4,a5
    3160:	00f307b3          	add	a5,t1,a5
    3164:	01079793          	slli	a5,a5,0x10
    3168:	0106d693          	srli	a3,a3,0x10
    316c:	00d786b3          	add	a3,a5,a3
    3170:	000047b7          	lui	a5,0x4
    3174:	8e478793          	addi	a5,a5,-1820 # 38e4 <T12_start+0x278>
    3178:	00f686b3          	add	a3,a3,a5
    317c:	41f6d313          	srai	t1,a3,0x1f
    3180:	02e30333          	mul	t1,t1,a4
    3184:	02d807b3          	mul	a5,a6,a3
    3188:	00f30333          	add	t1,t1,a5
    318c:	02e687b3          	mul	a5,a3,a4
    3190:	02e6b6b3          	mulhu	a3,a3,a4
    3194:	00d306b3          	add	a3,t1,a3
    3198:	01069693          	slli	a3,a3,0x10
    319c:	0107d793          	srli	a5,a5,0x10
    31a0:	00f687b3          	add	a5,a3,a5
    31a4:	000066b7          	lui	a3,0x6
    31a8:	66668693          	addi	a3,a3,1638 # 6666 <T25_start+0x41e>
    31ac:	00d787b3          	add	a5,a5,a3
    31b0:	41f7d693          	srai	a3,a5,0x1f
    31b4:	02e686b3          	mul	a3,a3,a4
    31b8:	02f80833          	mul	a6,a6,a5
    31bc:	010686b3          	add	a3,a3,a6
    31c0:	02e78833          	mul	a6,a5,a4
    31c4:	02e7b7b3          	mulhu	a5,a5,a4
    31c8:	00f687b3          	add	a5,a3,a5
    31cc:	01079793          	slli	a5,a5,0x10
    31d0:	01085713          	srli	a4,a6,0x10
    31d4:	00e78733          	add	a4,a5,a4
    31d8:	00e888b3          	add	a7,a7,a4
    31dc:	411b0b33          	sub	s6,s6,a7
    31e0:	41fb5793          	srai	a5,s6,0x1f
    31e4:	02a787b3          	mul	a5,a5,a0
    31e8:	03660633          	mul	a2,a2,s6
    31ec:	00c787b3          	add	a5,a5,a2
    31f0:	02ab0733          	mul	a4,s6,a0
    31f4:	02ab3b33          	mulhu	s6,s6,a0
    31f8:	016787b3          	add	a5,a5,s6
    31fc:	01079793          	slli	a5,a5,0x10
    3200:	01075713          	srli	a4,a4,0x10
    3204:	00e78733          	add	a4,a5,a4
    3208:	40e585b3          	sub	a1,a1,a4
    320c:	02b12e23          	sw	a1,60(sp)
    3210:	0044a783          	lw	a5,4(s1)
    3214:	00179713          	slli	a4,a5,0x1
    3218:	04e12023          	sw	a4,64(sp)
    321c:	00010737          	lui	a4,0x10
    3220:	18078c63          	beqz	a5,33b8 <T10_start+0x3f8>
    3224:	40f006b3          	neg	a3,a5
    3228:	0ad7e6b3          	max	a3,a5,a3
    322c:	41f6d713          	srai	a4,a3,0x1f
    3230:	00017637          	lui	a2,0x17
    3234:	15460613          	addi	a2,a2,340 # 17154 <heap.cpp.6b15d6f6+0x953>
    3238:	02c70733          	mul	a4,a4,a2
    323c:	02c68b33          	mul	s6,a3,a2
    3240:	02c6b6b3          	mulhu	a3,a3,a2
    3244:	00d70733          	add	a4,a4,a3
    3248:	01071713          	slli	a4,a4,0x10
    324c:	010b5b13          	srli	s6,s6,0x10
    3250:	01670b33          	add	s6,a4,s6
    3254:	00008737          	lui	a4,0x8
    3258:	00eb0b33          	add	s6,s6,a4
    325c:	ffff0737          	lui	a4,0xffff0
    3260:	00eb7b33          	and	s6,s6,a4
    3264:	1a07ce63          	bltz	a5,3420 <T10_end+0x64>
    3268:	41fb5713          	srai	a4,s6,0x1f
    326c:	0000b6b7          	lui	a3,0xb
    3270:	17268693          	addi	a3,a3,370 # b172 <__subdf3+0x62e>
    3274:	02d70733          	mul	a4,a4,a3
    3278:	02db0633          	mul	a2,s6,a3
    327c:	02db36b3          	mulhu	a3,s6,a3
    3280:	00d70733          	add	a4,a4,a3
    3284:	01071713          	slli	a4,a4,0x10
    3288:	01065693          	srli	a3,a2,0x10
    328c:	00d706b3          	add	a3,a4,a3
    3290:	40d787b3          	sub	a5,a5,a3
    3294:	41f7d693          	srai	a3,a5,0x1f
    3298:	02f686b3          	mul	a3,a3,a5
    329c:	02f78733          	mul	a4,a5,a5
    32a0:	02f7b633          	mulhu	a2,a5,a5
    32a4:	20c6a6b3          	sh1add	a3,a3,a2
    32a8:	01069693          	slli	a3,a3,0x10
    32ac:	01075713          	srli	a4,a4,0x10
    32b0:	00e68733          	add	a4,a3,a4
    32b4:	41f75513          	srai	a0,a4,0x1f
    32b8:	01e75693          	srli	a3,a4,0x1e
    32bc:	20d546b3          	sh2add	a3,a0,a3
    32c0:	00271613          	slli	a2,a4,0x2
    32c4:	01069693          	slli	a3,a3,0x10
    32c8:	01065613          	srli	a2,a2,0x10
    32cc:	00c68633          	add	a2,a3,a2
    32d0:	f4a60613          	addi	a2,a2,-182
    32d4:	41f65593          	srai	a1,a2,0x1f
    32d8:	02e585b3          	mul	a1,a1,a4
    32dc:	02c506b3          	mul	a3,a0,a2
    32e0:	00d585b3          	add	a1,a1,a3
    32e4:	02e606b3          	mul	a3,a2,a4
    32e8:	02e63633          	mulhu	a2,a2,a4
    32ec:	00c58633          	add	a2,a1,a2
    32f0:	01061613          	slli	a2,a2,0x10
    32f4:	0106d693          	srli	a3,a3,0x10
    32f8:	00d606b3          	add	a3,a2,a3
    32fc:	00003637          	lui	a2,0x3
    3300:	aab60613          	addi	a2,a2,-1365 # 2aab <T9_start+0x2f>
    3304:	00c686b3          	add	a3,a3,a2
    3308:	41f6d613          	srai	a2,a3,0x1f
    330c:	02e60633          	mul	a2,a2,a4
    3310:	02d50533          	mul	a0,a0,a3
    3314:	00a60633          	add	a2,a2,a0
    3318:	02e685b3          	mul	a1,a3,a4
    331c:	02e6b6b3          	mulhu	a3,a3,a4
    3320:	00d60733          	add	a4,a2,a3
    3324:	01071713          	slli	a4,a4,0x10
    3328:	0105d693          	srli	a3,a1,0x10
    332c:	00d706b3          	add	a3,a4,a3
    3330:	00020737          	lui	a4,0x20
    3334:	00e686b3          	add	a3,a3,a4
    3338:	40f68633          	sub	a2,a3,a5
    333c:	02f68c63          	beq	a3,a5,3374 <T10_start+0x3b4>
    3340:	00f7d713          	srli	a4,a5,0xf
    3344:	01179793          	slli	a5,a5,0x11
    3348:	01071713          	slli	a4,a4,0x10
    334c:	0107d793          	srli	a5,a5,0x10
    3350:	00f707b3          	add	a5,a4,a5
    3354:	41f7d713          	srai	a4,a5,0x1f
    3358:	0107d593          	srli	a1,a5,0x10
    335c:	01071713          	slli	a4,a4,0x10
    3360:	41f65693          	srai	a3,a2,0x1f
    3364:	01079513          	slli	a0,a5,0x10
    3368:	00e585b3          	add	a1,a1,a4
    336c:	7c9070ef          	jal	b334 <__divdi3>
    3370:	00050613          	mv	a2,a0
    3374:	000107b7          	lui	a5,0x10
    3378:	00f606b3          	add	a3,a2,a5
    337c:	0a0b4663          	bltz	s6,3428 <T10_end+0x6c>
    3380:	410b5b13          	srai	s6,s6,0x10
    3384:	000107b7          	lui	a5,0x10
    3388:	016797b3          	sll	a5,a5,s6
    338c:	41f7d713          	srai	a4,a5,0x1f
    3390:	41f6d613          	srai	a2,a3,0x1f
    3394:	02d70733          	mul	a4,a4,a3
    3398:	02f60633          	mul	a2,a2,a5
    339c:	00c70733          	add	a4,a4,a2
    33a0:	02d78633          	mul	a2,a5,a3
    33a4:	02d7b7b3          	mulhu	a5,a5,a3
    33a8:	00f70733          	add	a4,a4,a5
    33ac:	01071713          	slli	a4,a4,0x10
    33b0:	01065793          	srli	a5,a2,0x10
    33b4:	00f70733          	add	a4,a4,a5
    33b8:	04e12223          	sw	a4,68(sp)

000033bc <T10_end>:
    33bc:	b00027f3          	csrr	a5,mcycle
    33c0:	417787b3          	sub	a5,a5,s7
    33c4:	02f9a423          	sw	a5,40(s3)
    33c8:	03c12683          	lw	a3,60(sp)
    33cc:	04012703          	lw	a4,64(sp)
    33d0:	00100793          	li	a5,1
    33d4:	00d75663          	bge	a4,a3,33e0 <T10_end+0x24>
    33d8:	00068713          	mv	a4,a3
    33dc:	00000793          	li	a5,0
    33e0:	04412683          	lw	a3,68(sp)
    33e4:	00e6c463          	blt	a3,a4,33ec <T10_end+0x30>
    33e8:	00200793          	li	a5,2
    33ec:	00020737          	lui	a4,0x20
    33f0:	000206b7          	lui	a3,0x20
    33f4:	14468693          	addi	a3,a3,324 # 20144 <next.17>
    33f8:	20d7c7b3          	sh2add	a5,a5,a3
    33fc:	0007a783          	lw	a5,0(a5) # 10000 <fast_intr_ctrl.c.233e5230+0x207>
    3400:	1fc70713          	addi	a4,a4,508 # 201fc <jump_table.28>
    3404:	20e7c7b3          	sh2add	a5,a5,a4
    3408:	0007a783          	lw	a5,0(a5)
    340c:	f94fd06f          	j	ba0 <inferenceTPG+0x50>
    3410:	00000c13          	li	s8,0
    3414:	bd9ff06f          	j	2fec <T10_start+0x2c>
    3418:	fff00593          	li	a1,-1
    341c:	df1ff06f          	j	320c <T10_start+0x24c>
    3420:	41600b33          	neg	s6,s6
    3424:	e45ff06f          	j	3268 <T10_start+0x2a8>
    3428:	41600733          	neg	a4,s6
    342c:	41075713          	srai	a4,a4,0x10
    3430:	40e7d7b3          	sra	a5,a5,a4
    3434:	f59ff06f          	j	338c <T10_start+0x3cc>

00003438 <T11_start>:
    3438:	b0002bf3          	csrr	s7,mcycle
    343c:	004aa783          	lw	a5,4(s5)
    3440:	000aa703          	lw	a4,0(s5)
    3444:	0ae7e7b3          	max	a5,a5,a4
    3448:	04f12423          	sw	a5,72(sp)
    344c:	0044a783          	lw	a5,4(s1)
    3450:	000106b7          	lui	a3,0x10
    3454:	18078c63          	beqz	a5,35ec <T11_start+0x1b4>
    3458:	40f00633          	neg	a2,a5
    345c:	0ac7e633          	max	a2,a5,a2
    3460:	41f65693          	srai	a3,a2,0x1f
    3464:	00017737          	lui	a4,0x17
    3468:	15470713          	addi	a4,a4,340 # 17154 <heap.cpp.6b15d6f6+0x953>
    346c:	02e686b3          	mul	a3,a3,a4
    3470:	02e60b33          	mul	s6,a2,a4
    3474:	02e63633          	mulhu	a2,a2,a4
    3478:	00c686b3          	add	a3,a3,a2
    347c:	01069693          	slli	a3,a3,0x10
    3480:	010b5b13          	srli	s6,s6,0x10
    3484:	01668b33          	add	s6,a3,s6
    3488:	00008737          	lui	a4,0x8
    348c:	00eb0b33          	add	s6,s6,a4
    3490:	ffff0737          	lui	a4,0xffff0
    3494:	00eb7b33          	and	s6,s6,a4
    3498:	1a07ce63          	bltz	a5,3654 <T11_end+0x54>
    349c:	41fb5693          	srai	a3,s6,0x1f
    34a0:	0000b637          	lui	a2,0xb
    34a4:	17260613          	addi	a2,a2,370 # b172 <__subdf3+0x62e>
    34a8:	02c686b3          	mul	a3,a3,a2
    34ac:	02cb0733          	mul	a4,s6,a2
    34b0:	02cb3633          	mulhu	a2,s6,a2
    34b4:	00c686b3          	add	a3,a3,a2
    34b8:	01069693          	slli	a3,a3,0x10
    34bc:	01075713          	srli	a4,a4,0x10
    34c0:	00e68733          	add	a4,a3,a4
    34c4:	40e78733          	sub	a4,a5,a4
    34c8:	41f75693          	srai	a3,a4,0x1f
    34cc:	02e686b3          	mul	a3,a3,a4
    34d0:	02e707b3          	mul	a5,a4,a4
    34d4:	02e73633          	mulhu	a2,a4,a4
    34d8:	20c6a6b3          	sh1add	a3,a3,a2
    34dc:	01069693          	slli	a3,a3,0x10
    34e0:	0107d793          	srli	a5,a5,0x10
    34e4:	00f687b3          	add	a5,a3,a5
    34e8:	41f7d513          	srai	a0,a5,0x1f
    34ec:	01e7d693          	srli	a3,a5,0x1e
    34f0:	20d546b3          	sh2add	a3,a0,a3
    34f4:	00279613          	slli	a2,a5,0x2
    34f8:	01069693          	slli	a3,a3,0x10
    34fc:	01065613          	srli	a2,a2,0x10
    3500:	00c68633          	add	a2,a3,a2
    3504:	f4a60613          	addi	a2,a2,-182
    3508:	41f65593          	srai	a1,a2,0x1f
    350c:	02f585b3          	mul	a1,a1,a5
    3510:	02c506b3          	mul	a3,a0,a2
    3514:	00d585b3          	add	a1,a1,a3
    3518:	02f606b3          	mul	a3,a2,a5
    351c:	02f63633          	mulhu	a2,a2,a5
    3520:	00c58633          	add	a2,a1,a2
    3524:	01061613          	slli	a2,a2,0x10
    3528:	0106d693          	srli	a3,a3,0x10
    352c:	00d606b3          	add	a3,a2,a3
    3530:	00003637          	lui	a2,0x3
    3534:	aab60613          	addi	a2,a2,-1365 # 2aab <T9_start+0x2f>
    3538:	00c686b3          	add	a3,a3,a2
    353c:	41f6d613          	srai	a2,a3,0x1f
    3540:	02f60633          	mul	a2,a2,a5
    3544:	02d50533          	mul	a0,a0,a3
    3548:	00a60633          	add	a2,a2,a0
    354c:	02f685b3          	mul	a1,a3,a5
    3550:	02f6b6b3          	mulhu	a3,a3,a5
    3554:	00d607b3          	add	a5,a2,a3
    3558:	01079793          	slli	a5,a5,0x10
    355c:	0105d693          	srli	a3,a1,0x10
    3560:	00d786b3          	add	a3,a5,a3
    3564:	000207b7          	lui	a5,0x20
    3568:	00f686b3          	add	a3,a3,a5
    356c:	40e68633          	sub	a2,a3,a4
    3570:	02e68c63          	beq	a3,a4,35a8 <T11_start+0x170>
    3574:	00f75693          	srli	a3,a4,0xf
    3578:	01171793          	slli	a5,a4,0x11
    357c:	01069713          	slli	a4,a3,0x10
    3580:	0107d793          	srli	a5,a5,0x10
    3584:	00f707b3          	add	a5,a4,a5
    3588:	41f7d713          	srai	a4,a5,0x1f
    358c:	0107d593          	srli	a1,a5,0x10
    3590:	01071713          	slli	a4,a4,0x10
    3594:	41f65693          	srai	a3,a2,0x1f
    3598:	01079513          	slli	a0,a5,0x10
    359c:	00e585b3          	add	a1,a1,a4
    35a0:	595070ef          	jal	b334 <__divdi3>
    35a4:	00050613          	mv	a2,a0
    35a8:	000107b7          	lui	a5,0x10
    35ac:	00f60633          	add	a2,a2,a5
    35b0:	0a0b4663          	bltz	s6,365c <T11_end+0x5c>
    35b4:	410b5b13          	srai	s6,s6,0x10
    35b8:	000107b7          	lui	a5,0x10
    35bc:	016797b3          	sll	a5,a5,s6
    35c0:	41f7d693          	srai	a3,a5,0x1f
    35c4:	41f65713          	srai	a4,a2,0x1f
    35c8:	02c686b3          	mul	a3,a3,a2
    35cc:	02f70733          	mul	a4,a4,a5
    35d0:	00e686b3          	add	a3,a3,a4
    35d4:	02c78733          	mul	a4,a5,a2
    35d8:	02c7b7b3          	mulhu	a5,a5,a2
    35dc:	00f686b3          	add	a3,a3,a5
    35e0:	01069693          	slli	a3,a3,0x10
    35e4:	01075793          	srli	a5,a4,0x10
    35e8:	00f686b3          	add	a3,a3,a5
    35ec:	04d12623          	sw	a3,76(sp)
    35f0:	000a2783          	lw	a5,0(s4)
    35f4:	0084a703          	lw	a4,8(s1)
    35f8:	0ae7e7b3          	max	a5,a5,a4
    35fc:	04f12823          	sw	a5,80(sp)

00003600 <T11_end>:
    3600:	b00027f3          	csrr	a5,mcycle
    3604:	417787b3          	sub	a5,a5,s7
    3608:	02f9a623          	sw	a5,44(s3)
    360c:	04812683          	lw	a3,72(sp)
    3610:	04c12703          	lw	a4,76(sp)
    3614:	00100793          	li	a5,1
    3618:	00d75663          	bge	a4,a3,3624 <T11_end+0x24>
    361c:	00068713          	mv	a4,a3
    3620:	00000793          	li	a5,0
    3624:	05012683          	lw	a3,80(sp)
    3628:	00e6c463          	blt	a3,a4,3630 <T11_end+0x30>
    362c:	00200793          	li	a5,2
    3630:	00020737          	lui	a4,0x20
    3634:	000206b7          	lui	a3,0x20
    3638:	13868693          	addi	a3,a3,312 # 20138 <next.16>
    363c:	20d7c7b3          	sh2add	a5,a5,a3
    3640:	0007a783          	lw	a5,0(a5) # 10000 <fast_intr_ctrl.c.233e5230+0x207>
    3644:	1fc70713          	addi	a4,a4,508 # 201fc <jump_table.28>
    3648:	20e7c7b3          	sh2add	a5,a5,a4
    364c:	0007a783          	lw	a5,0(a5)
    3650:	d50fd06f          	j	ba0 <inferenceTPG+0x50>
    3654:	41600b33          	neg	s6,s6
    3658:	e45ff06f          	j	349c <T11_start+0x64>
    365c:	41600733          	neg	a4,s6
    3660:	41075713          	srai	a4,a4,0x10
    3664:	40e7d7b3          	sra	a5,a5,a4
    3668:	f59ff06f          	j	35c0 <T11_start+0x188>

0000366c <T12_start>:
    366c:	b0002b73          	csrr	s6,mcycle
    3670:	00492783          	lw	a5,4(s2)
    3674:	000106b7          	lui	a3,0x10
    3678:	18078c63          	beqz	a5,3810 <T12_start+0x1a4>
    367c:	40f00633          	neg	a2,a5
    3680:	0ac7e633          	max	a2,a5,a2
    3684:	41f65693          	srai	a3,a2,0x1f
    3688:	00017737          	lui	a4,0x17
    368c:	15470713          	addi	a4,a4,340 # 17154 <heap.cpp.6b15d6f6+0x953>
    3690:	02e686b3          	mul	a3,a3,a4
    3694:	02e60bb3          	mul	s7,a2,a4
    3698:	02e63633          	mulhu	a2,a2,a4
    369c:	00c686b3          	add	a3,a3,a2
    36a0:	01069693          	slli	a3,a3,0x10
    36a4:	010bdb93          	srli	s7,s7,0x10
    36a8:	01768bb3          	add	s7,a3,s7
    36ac:	00008737          	lui	a4,0x8
    36b0:	00eb8bb3          	add	s7,s7,a4
    36b4:	ffff0737          	lui	a4,0xffff0
    36b8:	00ebfbb3          	and	s7,s7,a4
    36bc:	3407c463          	bltz	a5,3a04 <T12_end+0x24>
    36c0:	41fbd693          	srai	a3,s7,0x1f
    36c4:	0000b637          	lui	a2,0xb
    36c8:	17260613          	addi	a2,a2,370 # b172 <__subdf3+0x62e>
    36cc:	02c686b3          	mul	a3,a3,a2
    36d0:	02cb8733          	mul	a4,s7,a2
    36d4:	02cbb633          	mulhu	a2,s7,a2
    36d8:	00c686b3          	add	a3,a3,a2
    36dc:	01069693          	slli	a3,a3,0x10
    36e0:	01075713          	srli	a4,a4,0x10
    36e4:	00e68733          	add	a4,a3,a4
    36e8:	40e78733          	sub	a4,a5,a4
    36ec:	41f75693          	srai	a3,a4,0x1f
    36f0:	02e686b3          	mul	a3,a3,a4
    36f4:	02e707b3          	mul	a5,a4,a4
    36f8:	02e73633          	mulhu	a2,a4,a4
    36fc:	20c6a6b3          	sh1add	a3,a3,a2
    3700:	01069693          	slli	a3,a3,0x10
    3704:	0107d793          	srli	a5,a5,0x10
    3708:	00f687b3          	add	a5,a3,a5
    370c:	41f7d513          	srai	a0,a5,0x1f
    3710:	01e7d693          	srli	a3,a5,0x1e
    3714:	20d546b3          	sh2add	a3,a0,a3
    3718:	00279613          	slli	a2,a5,0x2
    371c:	01069693          	slli	a3,a3,0x10
    3720:	01065613          	srli	a2,a2,0x10
    3724:	00c68633          	add	a2,a3,a2
    3728:	f4a60613          	addi	a2,a2,-182
    372c:	41f65593          	srai	a1,a2,0x1f
    3730:	02f585b3          	mul	a1,a1,a5
    3734:	02c506b3          	mul	a3,a0,a2
    3738:	00d585b3          	add	a1,a1,a3
    373c:	02f606b3          	mul	a3,a2,a5
    3740:	02f63633          	mulhu	a2,a2,a5
    3744:	00c58633          	add	a2,a1,a2
    3748:	01061613          	slli	a2,a2,0x10
    374c:	0106d693          	srli	a3,a3,0x10
    3750:	00d606b3          	add	a3,a2,a3
    3754:	00003637          	lui	a2,0x3
    3758:	aab60613          	addi	a2,a2,-1365 # 2aab <T9_start+0x2f>
    375c:	00c686b3          	add	a3,a3,a2
    3760:	41f6d613          	srai	a2,a3,0x1f
    3764:	02f60633          	mul	a2,a2,a5
    3768:	02d50533          	mul	a0,a0,a3
    376c:	00a60633          	add	a2,a2,a0
    3770:	02f685b3          	mul	a1,a3,a5
    3774:	02f6b6b3          	mulhu	a3,a3,a5
    3778:	00d607b3          	add	a5,a2,a3
    377c:	01079793          	slli	a5,a5,0x10
    3780:	0105d693          	srli	a3,a1,0x10
    3784:	00d786b3          	add	a3,a5,a3
    3788:	000207b7          	lui	a5,0x20
    378c:	00f686b3          	add	a3,a3,a5
    3790:	40e68633          	sub	a2,a3,a4
    3794:	02e68c63          	beq	a3,a4,37cc <T12_start+0x160>
    3798:	00f75693          	srli	a3,a4,0xf
    379c:	01171793          	slli	a5,a4,0x11
    37a0:	01069713          	slli	a4,a3,0x10
    37a4:	0107d793          	srli	a5,a5,0x10
    37a8:	00f707b3          	add	a5,a4,a5
    37ac:	41f7d713          	srai	a4,a5,0x1f
    37b0:	0107d593          	srli	a1,a5,0x10
    37b4:	01071713          	slli	a4,a4,0x10
    37b8:	41f65693          	srai	a3,a2,0x1f
    37bc:	01079513          	slli	a0,a5,0x10
    37c0:	00e585b3          	add	a1,a1,a4
    37c4:	371070ef          	jal	b334 <__divdi3>
    37c8:	00050613          	mv	a2,a0
    37cc:	000107b7          	lui	a5,0x10
    37d0:	00f60633          	add	a2,a2,a5
    37d4:	220bcc63          	bltz	s7,3a0c <T12_end+0x2c>
    37d8:	410bdb93          	srai	s7,s7,0x10
    37dc:	000107b7          	lui	a5,0x10
    37e0:	017797b3          	sll	a5,a5,s7
    37e4:	41f7d693          	srai	a3,a5,0x1f
    37e8:	41f65713          	srai	a4,a2,0x1f
    37ec:	02c686b3          	mul	a3,a3,a2
    37f0:	02f70733          	mul	a4,a4,a5
    37f4:	00e686b3          	add	a3,a3,a4
    37f8:	02c78733          	mul	a4,a5,a2
    37fc:	02c7b7b3          	mulhu	a5,a5,a2
    3800:	00f686b3          	add	a3,a3,a5
    3804:	01069693          	slli	a3,a3,0x10
    3808:	01075793          	srli	a5,a4,0x10
    380c:	00f686b3          	add	a3,a3,a5
    3810:	10d12423          	sw	a3,264(sp)
    3814:	008a2783          	lw	a5,8(s4)
    3818:	00092703          	lw	a4,0(s2)
    381c:	40e787b3          	sub	a5,a5,a4
    3820:	10f12623          	sw	a5,268(sp)
    3824:	0044a783          	lw	a5,4(s1)
    3828:	000106b7          	lui	a3,0x10
    382c:	18078c63          	beqz	a5,39c4 <T12_start+0x358>
    3830:	40f00633          	neg	a2,a5
    3834:	0ac7e633          	max	a2,a5,a2
    3838:	41f65693          	srai	a3,a2,0x1f
    383c:	00017737          	lui	a4,0x17
    3840:	15470713          	addi	a4,a4,340 # 17154 <heap.cpp.6b15d6f6+0x953>
    3844:	02e686b3          	mul	a3,a3,a4
    3848:	02e60bb3          	mul	s7,a2,a4
    384c:	02e63633          	mulhu	a2,a2,a4
    3850:	00c686b3          	add	a3,a3,a2
    3854:	01069693          	slli	a3,a3,0x10
    3858:	010bdb93          	srli	s7,s7,0x10
    385c:	01768bb3          	add	s7,a3,s7
    3860:	00008737          	lui	a4,0x8
    3864:	00eb8bb3          	add	s7,s7,a4
    3868:	ffff0737          	lui	a4,0xffff0
    386c:	00ebfbb3          	and	s7,s7,a4
    3870:	1a07c663          	bltz	a5,3a1c <T12_end+0x3c>
    3874:	41fbd693          	srai	a3,s7,0x1f
    3878:	0000b637          	lui	a2,0xb
    387c:	17260613          	addi	a2,a2,370 # b172 <__subdf3+0x62e>
    3880:	02c686b3          	mul	a3,a3,a2
    3884:	02cb8733          	mul	a4,s7,a2
    3888:	02cbb633          	mulhu	a2,s7,a2
    388c:	00c686b3          	add	a3,a3,a2
    3890:	01069693          	slli	a3,a3,0x10
    3894:	01075713          	srli	a4,a4,0x10
    3898:	00e68733          	add	a4,a3,a4
    389c:	40e78733          	sub	a4,a5,a4
    38a0:	41f75693          	srai	a3,a4,0x1f
    38a4:	02e686b3          	mul	a3,a3,a4
    38a8:	02e707b3          	mul	a5,a4,a4
    38ac:	02e73633          	mulhu	a2,a4,a4
    38b0:	20c6a6b3          	sh1add	a3,a3,a2
    38b4:	01069693          	slli	a3,a3,0x10
    38b8:	0107d793          	srli	a5,a5,0x10
    38bc:	00f687b3          	add	a5,a3,a5
    38c0:	41f7d513          	srai	a0,a5,0x1f
    38c4:	01e7d693          	srli	a3,a5,0x1e
    38c8:	20d546b3          	sh2add	a3,a0,a3
    38cc:	00279613          	slli	a2,a5,0x2
    38d0:	01069693          	slli	a3,a3,0x10
    38d4:	01065613          	srli	a2,a2,0x10
    38d8:	00c68633          	add	a2,a3,a2
    38dc:	f4a60613          	addi	a2,a2,-182
    38e0:	41f65593          	srai	a1,a2,0x1f
    38e4:	02f585b3          	mul	a1,a1,a5
    38e8:	02c506b3          	mul	a3,a0,a2
    38ec:	00d585b3          	add	a1,a1,a3
    38f0:	02f606b3          	mul	a3,a2,a5
    38f4:	02f63633          	mulhu	a2,a2,a5
    38f8:	00c58633          	add	a2,a1,a2
    38fc:	01061613          	slli	a2,a2,0x10
    3900:	0106d693          	srli	a3,a3,0x10
    3904:	00d606b3          	add	a3,a2,a3
    3908:	00003637          	lui	a2,0x3
    390c:	aab60613          	addi	a2,a2,-1365 # 2aab <T9_start+0x2f>
    3910:	00c686b3          	add	a3,a3,a2
    3914:	41f6d613          	srai	a2,a3,0x1f
    3918:	02f60633          	mul	a2,a2,a5
    391c:	02d50533          	mul	a0,a0,a3
    3920:	00a60633          	add	a2,a2,a0
    3924:	02f685b3          	mul	a1,a3,a5
    3928:	02f6b6b3          	mulhu	a3,a3,a5
    392c:	00d607b3          	add	a5,a2,a3
    3930:	01079793          	slli	a5,a5,0x10
    3934:	0105d693          	srli	a3,a1,0x10
    3938:	00d786b3          	add	a3,a5,a3
    393c:	000207b7          	lui	a5,0x20
    3940:	00f686b3          	add	a3,a3,a5
    3944:	40e68633          	sub	a2,a3,a4
    3948:	02e68c63          	beq	a3,a4,3980 <T12_start+0x314>
    394c:	00f75693          	srli	a3,a4,0xf
    3950:	01171793          	slli	a5,a4,0x11
    3954:	01069713          	slli	a4,a3,0x10
    3958:	0107d793          	srli	a5,a5,0x10
    395c:	00f707b3          	add	a5,a4,a5
    3960:	41f7d713          	srai	a4,a5,0x1f
    3964:	0107d593          	srli	a1,a5,0x10
    3968:	01071713          	slli	a4,a4,0x10
    396c:	41f65693          	srai	a3,a2,0x1f
    3970:	01079513          	slli	a0,a5,0x10
    3974:	00e585b3          	add	a1,a1,a4
    3978:	1bd070ef          	jal	b334 <__divdi3>
    397c:	00050613          	mv	a2,a0
    3980:	000107b7          	lui	a5,0x10
    3984:	00f60633          	add	a2,a2,a5
    3988:	080bce63          	bltz	s7,3a24 <T12_end+0x44>
    398c:	410bdb93          	srai	s7,s7,0x10
    3990:	000107b7          	lui	a5,0x10
    3994:	017797b3          	sll	a5,a5,s7
    3998:	41f7d693          	srai	a3,a5,0x1f
    399c:	41f65713          	srai	a4,a2,0x1f
    39a0:	02c686b3          	mul	a3,a3,a2
    39a4:	02f70733          	mul	a4,a4,a5
    39a8:	00e686b3          	add	a3,a3,a4
    39ac:	02c78733          	mul	a4,a5,a2
    39b0:	02c7b7b3          	mulhu	a5,a5,a2
    39b4:	00f686b3          	add	a3,a3,a5
    39b8:	01069693          	slli	a3,a3,0x10
    39bc:	01075793          	srli	a5,a4,0x10
    39c0:	00f686b3          	add	a3,a3,a5
    39c4:	10d12823          	sw	a3,272(sp)
    39c8:	0084a783          	lw	a5,8(s1)
    39cc:	000a2703          	lw	a4,0(s4)
    39d0:	0ae7e7b3          	max	a5,a5,a4
    39d4:	10f12a23          	sw	a5,276(sp)
    39d8:	000aa783          	lw	a5,0(s5)
    39dc:	10f12c23          	sw	a5,280(sp)

000039e0 <T12_end>:
    39e0:	b00027f3          	csrr	a5,mcycle
    39e4:	416787b3          	sub	a5,a5,s6
    39e8:	02f9a823          	sw	a5,48(s3)
    39ec:	10812603          	lw	a2,264(sp)
    39f0:	10810713          	addi	a4,sp,264
    39f4:	00000513          	li	a0,0
    39f8:	00100793          	li	a5,1
    39fc:	00500593          	li	a1,5
    3a00:	0400006f          	j	3a40 <T12_end+0x60>
    3a04:	41700bb3          	neg	s7,s7
    3a08:	cb9ff06f          	j	36c0 <T12_start+0x54>
    3a0c:	41700733          	neg	a4,s7
    3a10:	41075713          	srai	a4,a4,0x10
    3a14:	40e7d7b3          	sra	a5,a5,a4
    3a18:	dcdff06f          	j	37e4 <T12_start+0x178>
    3a1c:	41700bb3          	neg	s7,s7
    3a20:	e55ff06f          	j	3874 <T12_start+0x208>
    3a24:	41700733          	neg	a4,s7
    3a28:	41075713          	srai	a4,a4,0x10
    3a2c:	40e7d7b3          	sra	a5,a5,a4
    3a30:	f69ff06f          	j	3998 <T12_start+0x32c>
    3a34:	00178793          	addi	a5,a5,1 # 10001 <fast_intr_ctrl.c.233e5230+0x208>
    3a38:	00470713          	addi	a4,a4,4 # ffff0004 <_sp+0xfffc6054>
    3a3c:	00b78c63          	beq	a5,a1,3a54 <T12_end+0x74>
    3a40:	00472683          	lw	a3,4(a4)
    3a44:	fec6c8e3          	blt	a3,a2,3a34 <T12_end+0x54>
    3a48:	00068613          	mv	a2,a3
    3a4c:	00078513          	mv	a0,a5
    3a50:	fe5ff06f          	j	3a34 <T12_end+0x54>
    3a54:	00020737          	lui	a4,0x20
    3a58:	000207b7          	lui	a5,0x20
    3a5c:	12478793          	addi	a5,a5,292 # 20124 <next.15>
    3a60:	20f54533          	sh2add	a0,a0,a5
    3a64:	00052783          	lw	a5,0(a0)
    3a68:	1fc70713          	addi	a4,a4,508 # 201fc <jump_table.28>
    3a6c:	20e7c7b3          	sh2add	a5,a5,a4
    3a70:	0007a783          	lw	a5,0(a5)
    3a74:	92cfd06f          	j	ba0 <inferenceTPG+0x50>
    3a78:	1fb12823          	sw	s11,496(sp)

00003a7c <T13_start>:
    3a7c:	b00027f3          	csrr	a5,mcycle
    3a80:	00078c93          	mv	s9,a5
    3a84:	00492b03          	lw	s6,4(s2)
    3a88:	01092703          	lw	a4,16(s2)
    3a8c:	41f75793          	srai	a5,a4,0x1f
    3a90:	41fb5693          	srai	a3,s6,0x1f
    3a94:	036787b3          	mul	a5,a5,s6
    3a98:	02e686b3          	mul	a3,a3,a4
    3a9c:	00d787b3          	add	a5,a5,a3
    3aa0:	036706b3          	mul	a3,a4,s6
    3aa4:	03673733          	mulhu	a4,a4,s6
    3aa8:	00e787b3          	add	a5,a5,a4
    3aac:	01079793          	slli	a5,a5,0x10
    3ab0:	0106d713          	srli	a4,a3,0x10
    3ab4:	00e78733          	add	a4,a5,a4
    3ab8:	16e12023          	sw	a4,352(sp)
    3abc:	000b1463          	bnez	s6,3ac4 <T13_start+0x48>
    3ac0:	5f10206f          	j	68b0 <T25_end+0x120>
    3ac4:	41600733          	neg	a4,s6
    3ac8:	0aeb6733          	max	a4,s6,a4
    3acc:	41f75793          	srai	a5,a4,0x1f
    3ad0:	000176b7          	lui	a3,0x17
    3ad4:	15468693          	addi	a3,a3,340 # 17154 <heap.cpp.6b15d6f6+0x953>
    3ad8:	02d787b3          	mul	a5,a5,a3
    3adc:	02d70bb3          	mul	s7,a4,a3
    3ae0:	02d73733          	mulhu	a4,a4,a3
    3ae4:	00e787b3          	add	a5,a5,a4
    3ae8:	01079793          	slli	a5,a5,0x10
    3aec:	010bdb93          	srli	s7,s7,0x10
    3af0:	01778bb3          	add	s7,a5,s7
    3af4:	000087b7          	lui	a5,0x8
    3af8:	00fb8bb3          	add	s7,s7,a5
    3afc:	ffff07b7          	lui	a5,0xffff0
    3b00:	00fbfbb3          	and	s7,s7,a5
    3b04:	3e0b4863          	bltz	s6,3ef4 <T13_end+0x24>
    3b08:	41fbd713          	srai	a4,s7,0x1f
    3b0c:	0000b6b7          	lui	a3,0xb
    3b10:	17268693          	addi	a3,a3,370 # b172 <__subdf3+0x62e>
    3b14:	02d70733          	mul	a4,a4,a3
    3b18:	02db87b3          	mul	a5,s7,a3
    3b1c:	02dbb6b3          	mulhu	a3,s7,a3
    3b20:	00d70733          	add	a4,a4,a3
    3b24:	01071713          	slli	a4,a4,0x10
    3b28:	0107d793          	srli	a5,a5,0x10
    3b2c:	00f707b3          	add	a5,a4,a5
    3b30:	40fb07b3          	sub	a5,s6,a5
    3b34:	41f7d693          	srai	a3,a5,0x1f
    3b38:	02f686b3          	mul	a3,a3,a5
    3b3c:	02f78733          	mul	a4,a5,a5
    3b40:	02f7b633          	mulhu	a2,a5,a5
    3b44:	20c6a6b3          	sh1add	a3,a3,a2
    3b48:	01069693          	slli	a3,a3,0x10
    3b4c:	01075713          	srli	a4,a4,0x10
    3b50:	00e68733          	add	a4,a3,a4
    3b54:	41f75513          	srai	a0,a4,0x1f
    3b58:	01e75693          	srli	a3,a4,0x1e
    3b5c:	20d546b3          	sh2add	a3,a0,a3
    3b60:	00271613          	slli	a2,a4,0x2
    3b64:	01069693          	slli	a3,a3,0x10
    3b68:	01065613          	srli	a2,a2,0x10
    3b6c:	00c68633          	add	a2,a3,a2
    3b70:	f4a60613          	addi	a2,a2,-182
    3b74:	41f65593          	srai	a1,a2,0x1f
    3b78:	02e585b3          	mul	a1,a1,a4
    3b7c:	02c506b3          	mul	a3,a0,a2
    3b80:	00d585b3          	add	a1,a1,a3
    3b84:	02e606b3          	mul	a3,a2,a4
    3b88:	02e63633          	mulhu	a2,a2,a4
    3b8c:	00c58633          	add	a2,a1,a2
    3b90:	01061613          	slli	a2,a2,0x10
    3b94:	0106d693          	srli	a3,a3,0x10
    3b98:	00d606b3          	add	a3,a2,a3
    3b9c:	00003637          	lui	a2,0x3
    3ba0:	aab60613          	addi	a2,a2,-1365 # 2aab <T9_start+0x2f>
    3ba4:	00c686b3          	add	a3,a3,a2
    3ba8:	41f6d613          	srai	a2,a3,0x1f
    3bac:	02e60633          	mul	a2,a2,a4
    3bb0:	02d50533          	mul	a0,a0,a3
    3bb4:	00a60633          	add	a2,a2,a0
    3bb8:	02e685b3          	mul	a1,a3,a4
    3bbc:	02e6b6b3          	mulhu	a3,a3,a4
    3bc0:	00d60733          	add	a4,a2,a3
    3bc4:	01071713          	slli	a4,a4,0x10
    3bc8:	0105d693          	srli	a3,a1,0x10
    3bcc:	00d706b3          	add	a3,a4,a3
    3bd0:	00020737          	lui	a4,0x20
    3bd4:	00e686b3          	add	a3,a3,a4
    3bd8:	40f68633          	sub	a2,a3,a5
    3bdc:	02f68c63          	beq	a3,a5,3c14 <T13_start+0x198>
    3be0:	00f7d713          	srli	a4,a5,0xf
    3be4:	01179793          	slli	a5,a5,0x11
    3be8:	01071713          	slli	a4,a4,0x10
    3bec:	0107d793          	srli	a5,a5,0x10
    3bf0:	00f707b3          	add	a5,a4,a5
    3bf4:	41f7d713          	srai	a4,a5,0x1f
    3bf8:	0107d593          	srli	a1,a5,0x10
    3bfc:	01071713          	slli	a4,a4,0x10
    3c00:	41f65693          	srai	a3,a2,0x1f
    3c04:	01079513          	slli	a0,a5,0x10
    3c08:	00e585b3          	add	a1,a1,a4
    3c0c:	728070ef          	jal	b334 <__divdi3>
    3c10:	00050613          	mv	a2,a0
    3c14:	000107b7          	lui	a5,0x10
    3c18:	00f606b3          	add	a3,a2,a5
    3c1c:	2e0bc063          	bltz	s7,3efc <T13_end+0x2c>
    3c20:	410bdb93          	srai	s7,s7,0x10
    3c24:	00010737          	lui	a4,0x10
    3c28:	01771733          	sll	a4,a4,s7
    3c2c:	41f75793          	srai	a5,a4,0x1f
    3c30:	41f6d613          	srai	a2,a3,0x1f
    3c34:	02d787b3          	mul	a5,a5,a3
    3c38:	02e60633          	mul	a2,a2,a4
    3c3c:	00c787b3          	add	a5,a5,a2
    3c40:	02d70633          	mul	a2,a4,a3
    3c44:	02d73733          	mulhu	a4,a4,a3
    3c48:	00e787b3          	add	a5,a5,a4
    3c4c:	01079793          	slli	a5,a5,0x10
    3c50:	01065713          	srli	a4,a2,0x10
    3c54:	00e78733          	add	a4,a5,a4
    3c58:	16e12223          	sw	a4,356(sp)
    3c5c:	0044a683          	lw	a3,4(s1)
    3c60:	00169793          	slli	a5,a3,0x1
    3c64:	16f12423          	sw	a5,360(sp)
    3c68:	0084a703          	lw	a4,8(s1)
    3c6c:	000aa783          	lw	a5,0(s5)
    3c70:	00f707b3          	add	a5,a4,a5
    3c74:	0ad7e7b3          	max	a5,a5,a3
    3c78:	16f12623          	sw	a5,364(sp)
    3c7c:	0004a783          	lw	a5,0(s1)
    3c80:	00f707b3          	add	a5,a4,a5
    3c84:	00078d93          	mv	s11,a5
    3c88:	00000593          	li	a1,0
    3c8c:	220b4e63          	bltz	s6,3ec8 <T13_start+0x44c>
    3c90:	000207b7          	lui	a5,0x20
    3c94:	2767de63          	bge	a5,s6,3f10 <T13_end+0x40>
    3c98:	00000b93          	li	s7,0
    3c9c:	401b5b13          	srai	s6,s6,0x1
    3ca0:	001b8b93          	addi	s7,s7,1 # ffff0001 <_sp+0xfffc6051>
    3ca4:	ff67cce3          	blt	a5,s6,3c9c <T13_start+0x220>
    3ca8:	ffff07b7          	lui	a5,0xffff0
    3cac:	00fb0c33          	add	s8,s6,a5
    3cb0:	41fc5793          	srai	a5,s8,0x1f
    3cb4:	010c5593          	srli	a1,s8,0x10
    3cb8:	01079793          	slli	a5,a5,0x10
    3cbc:	00010737          	lui	a4,0x10
    3cc0:	00eb0633          	add	a2,s6,a4
    3cc4:	41f65693          	srai	a3,a2,0x1f
    3cc8:	010c1513          	slli	a0,s8,0x10
    3ccc:	00f585b3          	add	a1,a1,a5
    3cd0:	664070ef          	jal	b334 <__divdi3>
    3cd4:	41f55613          	srai	a2,a0,0x1f
    3cd8:	02a607b3          	mul	a5,a2,a0
    3cdc:	02a50733          	mul	a4,a0,a0
    3ce0:	02a536b3          	mulhu	a3,a0,a0
    3ce4:	20d7a7b3          	sh1add	a5,a5,a3
    3ce8:	01079793          	slli	a5,a5,0x10
    3cec:	01075713          	srli	a4,a4,0x10
    3cf0:	00e78733          	add	a4,a5,a4
    3cf4:	41f75313          	srai	t1,a4,0x1f
    3cf8:	02e306b3          	mul	a3,t1,a4
    3cfc:	02e707b3          	mul	a5,a4,a4
    3d00:	02e735b3          	mulhu	a1,a4,a4
    3d04:	20b6a6b3          	sh1add	a3,a3,a1
    3d08:	01069693          	slli	a3,a3,0x10
    3d0c:	0107d793          	srli	a5,a5,0x10
    3d10:	00f687b3          	add	a5,a3,a5
    3d14:	41f7d813          	srai	a6,a5,0x1f
    3d18:	010b9b93          	slli	s7,s7,0x10
    3d1c:	41fbd693          	srai	a3,s7,0x1f
    3d20:	0000b8b7          	lui	a7,0xb
    3d24:	17288893          	addi	a7,a7,370 # b172 <__subdf3+0x62e>
    3d28:	031686b3          	mul	a3,a3,a7
    3d2c:	031b85b3          	mul	a1,s7,a7
    3d30:	031bbbb3          	mulhu	s7,s7,a7
    3d34:	017686b3          	add	a3,a3,s7
    3d38:	01069693          	slli	a3,a3,0x10
    3d3c:	0105d593          	srli	a1,a1,0x10
    3d40:	00b685b3          	add	a1,a3,a1
    3d44:	00bc05b3          	add	a1,s8,a1
    3d48:	000028b7          	lui	a7,0x2
    3d4c:	5e288893          	addi	a7,a7,1506 # 25e2 <T7_end+0x96>
    3d50:	03180e33          	mul	t3,a6,a7
    3d54:	031786b3          	mul	a3,a5,a7
    3d58:	0317b8b3          	mulhu	a7,a5,a7
    3d5c:	011e08b3          	add	a7,t3,a7
    3d60:	01089893          	slli	a7,a7,0x10
    3d64:	0106d693          	srli	a3,a3,0x10
    3d68:	00d886b3          	add	a3,a7,a3
    3d6c:	000038b7          	lui	a7,0x3
    3d70:	e8d88893          	addi	a7,a7,-371 # 2e8d <T9_start+0x411>
    3d74:	011686b3          	add	a3,a3,a7
    3d78:	41f6de13          	srai	t3,a3,0x1f
    3d7c:	02fe0e33          	mul	t3,t3,a5
    3d80:	02d808b3          	mul	a7,a6,a3
    3d84:	011e0e33          	add	t3,t3,a7
    3d88:	02f688b3          	mul	a7,a3,a5
    3d8c:	02f6b6b3          	mulhu	a3,a3,a5
    3d90:	00de06b3          	add	a3,t3,a3
    3d94:	01069693          	slli	a3,a3,0x10
    3d98:	0108d893          	srli	a7,a7,0x10
    3d9c:	011688b3          	add	a7,a3,a7
    3da0:	000056b7          	lui	a3,0x5
    3da4:	92568693          	addi	a3,a3,-1755 # 4925 <T16_start+0x2ed>
    3da8:	00d888b3          	add	a7,a7,a3
    3dac:	41f8de13          	srai	t3,a7,0x1f
    3db0:	02fe0e33          	mul	t3,t3,a5
    3db4:	031806b3          	mul	a3,a6,a7
    3db8:	00de0e33          	add	t3,t3,a3
    3dbc:	02f886b3          	mul	a3,a7,a5
    3dc0:	02f8b8b3          	mulhu	a7,a7,a5
    3dc4:	011e08b3          	add	a7,t3,a7
    3dc8:	01089893          	slli	a7,a7,0x10
    3dcc:	0106d693          	srli	a3,a3,0x10
    3dd0:	00d886b3          	add	a3,a7,a3
    3dd4:	0000b8b7          	lui	a7,0xb
    3dd8:	aab88893          	addi	a7,a7,-1365 # aaab <__muldf3+0x54f>
    3ddc:	011686b3          	add	a3,a3,a7
    3de0:	41f6d893          	srai	a7,a3,0x1f
    3de4:	02e888b3          	mul	a7,a7,a4
    3de8:	02d30333          	mul	t1,t1,a3
    3dec:	00688333          	add	t1,a7,t1
    3df0:	02e688b3          	mul	a7,a3,a4
    3df4:	02e6b6b3          	mulhu	a3,a3,a4
    3df8:	00d30733          	add	a4,t1,a3
    3dfc:	01071713          	slli	a4,a4,0x10
    3e00:	0108d893          	srli	a7,a7,0x10
    3e04:	011708b3          	add	a7,a4,a7
    3e08:	00002737          	lui	a4,0x2
    3e0c:	73470713          	addi	a4,a4,1844 # 2734 <T8_start+0x13c>
    3e10:	02e80333          	mul	t1,a6,a4
    3e14:	02e786b3          	mul	a3,a5,a4
    3e18:	02e7b733          	mulhu	a4,a5,a4
    3e1c:	00e30733          	add	a4,t1,a4
    3e20:	01071713          	slli	a4,a4,0x10
    3e24:	0106d693          	srli	a3,a3,0x10
    3e28:	00d706b3          	add	a3,a4,a3
    3e2c:	00004737          	lui	a4,0x4
    3e30:	8e470713          	addi	a4,a4,-1820 # 38e4 <T12_start+0x278>
    3e34:	00e686b3          	add	a3,a3,a4
    3e38:	41f6d313          	srai	t1,a3,0x1f
    3e3c:	02f30333          	mul	t1,t1,a5
    3e40:	02d80733          	mul	a4,a6,a3
    3e44:	00e30333          	add	t1,t1,a4
    3e48:	02f68733          	mul	a4,a3,a5
    3e4c:	02f6b6b3          	mulhu	a3,a3,a5
    3e50:	00d306b3          	add	a3,t1,a3
    3e54:	01069693          	slli	a3,a3,0x10
    3e58:	01075713          	srli	a4,a4,0x10
    3e5c:	00e68733          	add	a4,a3,a4
    3e60:	000066b7          	lui	a3,0x6
    3e64:	66668693          	addi	a3,a3,1638 # 6666 <T25_start+0x41e>
    3e68:	00d70733          	add	a4,a4,a3
    3e6c:	41f75693          	srai	a3,a4,0x1f
    3e70:	02f686b3          	mul	a3,a3,a5
    3e74:	02e80833          	mul	a6,a6,a4
    3e78:	010686b3          	add	a3,a3,a6
    3e7c:	02f70833          	mul	a6,a4,a5
    3e80:	02f73733          	mulhu	a4,a4,a5
    3e84:	00e687b3          	add	a5,a3,a4
    3e88:	01079793          	slli	a5,a5,0x10
    3e8c:	01085713          	srli	a4,a6,0x10
    3e90:	00e78733          	add	a4,a5,a4
    3e94:	00e888b3          	add	a7,a7,a4
    3e98:	411c07b3          	sub	a5,s8,a7
    3e9c:	41f7d713          	srai	a4,a5,0x1f
    3ea0:	02a70733          	mul	a4,a4,a0
    3ea4:	02f60633          	mul	a2,a2,a5
    3ea8:	00c70733          	add	a4,a4,a2
    3eac:	02a786b3          	mul	a3,a5,a0
    3eb0:	02a7b7b3          	mulhu	a5,a5,a0
    3eb4:	00f707b3          	add	a5,a4,a5
    3eb8:	01079793          	slli	a5,a5,0x10
    3ebc:	0106d713          	srli	a4,a3,0x10
    3ec0:	00e78733          	add	a4,a5,a4
    3ec4:	40e585b3          	sub	a1,a1,a4
    3ec8:	17b12823          	sw	s11,368(sp)
    3ecc:	16b12a23          	sw	a1,372(sp)

00003ed0 <T13_end>:
    3ed0:	b00027f3          	csrr	a5,mcycle
    3ed4:	419787b3          	sub	a5,a5,s9
    3ed8:	02f9aa23          	sw	a5,52(s3)
    3edc:	16012603          	lw	a2,352(sp)
    3ee0:	16410713          	addi	a4,sp,356
    3ee4:	00000513          	li	a0,0
    3ee8:	00100793          	li	a5,1
    3eec:	00600593          	li	a1,6
    3ef0:	0340006f          	j	3f24 <T13_end+0x54>
    3ef4:	41700bb3          	neg	s7,s7
    3ef8:	c11ff06f          	j	3b08 <T13_start+0x8c>
    3efc:	417007b3          	neg	a5,s7
    3f00:	4107d793          	srai	a5,a5,0x10
    3f04:	00010737          	lui	a4,0x10
    3f08:	40f75733          	sra	a4,a4,a5
    3f0c:	d21ff06f          	j	3c2c <T13_start+0x1b0>
    3f10:	00000b93          	li	s7,0
    3f14:	d95ff06f          	j	3ca8 <T13_start+0x22c>
    3f18:	00178793          	addi	a5,a5,1 # ffff0001 <_sp+0xfffc6051>
    3f1c:	00470713          	addi	a4,a4,4 # 10004 <fast_intr_ctrl.c.233e5230+0x20b>
    3f20:	00b78c63          	beq	a5,a1,3f38 <T13_end+0x68>
    3f24:	00072683          	lw	a3,0(a4)
    3f28:	fec6c8e3          	blt	a3,a2,3f18 <T13_end+0x48>
    3f2c:	00068613          	mv	a2,a3
    3f30:	00078513          	mv	a0,a5
    3f34:	fe5ff06f          	j	3f18 <T13_end+0x48>
    3f38:	00020737          	lui	a4,0x20
    3f3c:	000207b7          	lui	a5,0x20
    3f40:	10c78793          	addi	a5,a5,268 # 2010c <next.14>
    3f44:	20f54533          	sh2add	a0,a0,a5
    3f48:	00052783          	lw	a5,0(a0)
    3f4c:	1fc70713          	addi	a4,a4,508 # 201fc <jump_table.28>
    3f50:	20e7c7b3          	sh2add	a5,a5,a4
    3f54:	0007a783          	lw	a5,0(a5)
    3f58:	1f012d83          	lw	s11,496(sp)
    3f5c:	c45fc06f          	j	ba0 <inferenceTPG+0x50>

00003f60 <T14_start>:
    3f60:	b0002bf3          	csrr	s7,mcycle
    3f64:	00092783          	lw	a5,0(s2)
    3f68:	0084a703          	lw	a4,8(s1)
    3f6c:	00e787b3          	add	a5,a5,a4
    3f70:	04f12a23          	sw	a5,84(sp)
    3f74:	0044a703          	lw	a4,4(s1)
    3f78:	41f75793          	srai	a5,a4,0x1f
    3f7c:	000aa683          	lw	a3,0(s5)
    3f80:	41f6d613          	srai	a2,a3,0x1f
    3f84:	02d787b3          	mul	a5,a5,a3
    3f88:	02e60633          	mul	a2,a2,a4
    3f8c:	00c787b3          	add	a5,a5,a2
    3f90:	02d70633          	mul	a2,a4,a3
    3f94:	02d73733          	mulhu	a4,a4,a3
    3f98:	00e787b3          	add	a5,a5,a4
    3f9c:	01079793          	slli	a5,a5,0x10
    3fa0:	01065713          	srli	a4,a2,0x10
    3fa4:	00e787b3          	add	a5,a5,a4
    3fa8:	00010737          	lui	a4,0x10
    3fac:	18078c63          	beqz	a5,4144 <__heap_size+0x144>
    3fb0:	40f006b3          	neg	a3,a5
    3fb4:	0ad7e6b3          	max	a3,a5,a3
    3fb8:	41f6d713          	srai	a4,a3,0x1f
    3fbc:	00017637          	lui	a2,0x17
    3fc0:	15460613          	addi	a2,a2,340 # 17154 <heap.cpp.6b15d6f6+0x953>
    3fc4:	02c70733          	mul	a4,a4,a2
    3fc8:	02c68b33          	mul	s6,a3,a2
    3fcc:	02c6b6b3          	mulhu	a3,a3,a2
    3fd0:	00d70733          	add	a4,a4,a3
    3fd4:	01071713          	slli	a4,a4,0x10
    3fd8:	010b5b13          	srli	s6,s6,0x10
    3fdc:	01670b33          	add	s6,a4,s6
    3fe0:	00008737          	lui	a4,0x8
    3fe4:	00eb0b33          	add	s6,s6,a4
    3fe8:	ffff0737          	lui	a4,0xffff0
    3fec:	00eb7b33          	and	s6,s6,a4
    3ff0:	1a07ca63          	bltz	a5,41a4 <T14_end+0x54>
    3ff4:	41fb5713          	srai	a4,s6,0x1f
    3ff8:	0000b6b7          	lui	a3,0xb
    3ffc:	17268693          	addi	a3,a3,370 # b172 <__subdf3+0x62e>
    4000:	02d70733          	mul	a4,a4,a3
    4004:	02db0633          	mul	a2,s6,a3
    4008:	02db36b3          	mulhu	a3,s6,a3
    400c:	00d70733          	add	a4,a4,a3
    4010:	01071713          	slli	a4,a4,0x10
    4014:	01065693          	srli	a3,a2,0x10
    4018:	00d706b3          	add	a3,a4,a3
    401c:	40d787b3          	sub	a5,a5,a3
    4020:	41f7d693          	srai	a3,a5,0x1f
    4024:	02f686b3          	mul	a3,a3,a5
    4028:	02f78733          	mul	a4,a5,a5
    402c:	02f7b633          	mulhu	a2,a5,a5
    4030:	20c6a6b3          	sh1add	a3,a3,a2
    4034:	01069693          	slli	a3,a3,0x10
    4038:	01075713          	srli	a4,a4,0x10
    403c:	00e68733          	add	a4,a3,a4
    4040:	41f75513          	srai	a0,a4,0x1f
    4044:	01e75693          	srli	a3,a4,0x1e
    4048:	20d546b3          	sh2add	a3,a0,a3
    404c:	00271613          	slli	a2,a4,0x2
    4050:	01069693          	slli	a3,a3,0x10
    4054:	01065613          	srli	a2,a2,0x10
    4058:	00c68633          	add	a2,a3,a2
    405c:	f4a60613          	addi	a2,a2,-182
    4060:	41f65593          	srai	a1,a2,0x1f
    4064:	02e585b3          	mul	a1,a1,a4
    4068:	02c506b3          	mul	a3,a0,a2
    406c:	00d585b3          	add	a1,a1,a3
    4070:	02e606b3          	mul	a3,a2,a4
    4074:	02e63633          	mulhu	a2,a2,a4
    4078:	00c58633          	add	a2,a1,a2
    407c:	01061613          	slli	a2,a2,0x10
    4080:	0106d693          	srli	a3,a3,0x10
    4084:	00d606b3          	add	a3,a2,a3
    4088:	00003637          	lui	a2,0x3
    408c:	aab60613          	addi	a2,a2,-1365 # 2aab <T9_start+0x2f>
    4090:	00c686b3          	add	a3,a3,a2
    4094:	41f6d613          	srai	a2,a3,0x1f
    4098:	02e60633          	mul	a2,a2,a4
    409c:	02d50533          	mul	a0,a0,a3
    40a0:	00a60633          	add	a2,a2,a0
    40a4:	02e685b3          	mul	a1,a3,a4
    40a8:	02e6b6b3          	mulhu	a3,a3,a4
    40ac:	00d60733          	add	a4,a2,a3
    40b0:	01071713          	slli	a4,a4,0x10
    40b4:	0105d693          	srli	a3,a1,0x10
    40b8:	00d706b3          	add	a3,a4,a3
    40bc:	00020737          	lui	a4,0x20
    40c0:	00e686b3          	add	a3,a3,a4
    40c4:	40f68633          	sub	a2,a3,a5
    40c8:	02f68c63          	beq	a3,a5,4100 <__heap_size+0x100>
    40cc:	00f7d713          	srli	a4,a5,0xf
    40d0:	01179793          	slli	a5,a5,0x11
    40d4:	01071713          	slli	a4,a4,0x10
    40d8:	0107d793          	srli	a5,a5,0x10
    40dc:	00f707b3          	add	a5,a4,a5
    40e0:	41f7d713          	srai	a4,a5,0x1f
    40e4:	0107d593          	srli	a1,a5,0x10
    40e8:	01071713          	slli	a4,a4,0x10
    40ec:	41f65693          	srai	a3,a2,0x1f
    40f0:	01079513          	slli	a0,a5,0x10
    40f4:	00e585b3          	add	a1,a1,a4
    40f8:	23c070ef          	jal	b334 <__divdi3>
    40fc:	00050613          	mv	a2,a0
    4100:	000107b7          	lui	a5,0x10
    4104:	00f606b3          	add	a3,a2,a5
    4108:	0a0b4263          	bltz	s6,41ac <T14_end+0x5c>
    410c:	410b5b13          	srai	s6,s6,0x10
    4110:	000107b7          	lui	a5,0x10
    4114:	016797b3          	sll	a5,a5,s6
    4118:	41f7d713          	srai	a4,a5,0x1f
    411c:	41f6d613          	srai	a2,a3,0x1f
    4120:	02d70733          	mul	a4,a4,a3
    4124:	02f60633          	mul	a2,a2,a5
    4128:	00c70733          	add	a4,a4,a2
    412c:	02d78633          	mul	a2,a5,a3
    4130:	02d7b7b3          	mulhu	a5,a5,a3
    4134:	00f70733          	add	a4,a4,a5
    4138:	01071713          	slli	a4,a4,0x10
    413c:	01065793          	srli	a5,a2,0x10
    4140:	00f70733          	add	a4,a4,a5
    4144:	04e12c23          	sw	a4,88(sp)
    4148:	00492783          	lw	a5,4(s2)
    414c:	04f12e23          	sw	a5,92(sp)

00004150 <T14_end>:
    4150:	b00027f3          	csrr	a5,mcycle
    4154:	417787b3          	sub	a5,a5,s7
    4158:	02f9ac23          	sw	a5,56(s3)
    415c:	05412683          	lw	a3,84(sp)
    4160:	05812703          	lw	a4,88(sp)
    4164:	00100793          	li	a5,1
    4168:	00d75663          	bge	a4,a3,4174 <T14_end+0x24>
    416c:	00068713          	mv	a4,a3
    4170:	00000793          	li	a5,0
    4174:	05c12683          	lw	a3,92(sp)
    4178:	00e6c463          	blt	a3,a4,4180 <T14_end+0x30>
    417c:	00200793          	li	a5,2
    4180:	00020737          	lui	a4,0x20
    4184:	000206b7          	lui	a3,0x20
    4188:	10068693          	addi	a3,a3,256 # 20100 <next.13>
    418c:	20d7c7b3          	sh2add	a5,a5,a3
    4190:	0007a783          	lw	a5,0(a5) # 10000 <fast_intr_ctrl.c.233e5230+0x207>
    4194:	1fc70713          	addi	a4,a4,508 # 201fc <jump_table.28>
    4198:	20e7c7b3          	sh2add	a5,a5,a4
    419c:	0007a783          	lw	a5,0(a5)
    41a0:	a01fc06f          	j	ba0 <inferenceTPG+0x50>
    41a4:	41600b33          	neg	s6,s6
    41a8:	e4dff06f          	j	3ff4 <T14_start+0x94>
    41ac:	41600733          	neg	a4,s6
    41b0:	41075713          	srai	a4,a4,0x10
    41b4:	40e7d7b3          	sra	a5,a5,a4
    41b8:	f61ff06f          	j	4118 <__heap_size+0x118>

000041bc <T15_start>:
    41bc:	b0002bf3          	csrr	s7,mcycle
    41c0:	0044a783          	lw	a5,4(s1)
    41c4:	000a2703          	lw	a4,0(s4)
    41c8:	0af76733          	max	a4,a4,a5
    41cc:	06e12023          	sw	a4,96(sp)
    41d0:	00010737          	lui	a4,0x10
    41d4:	18078c63          	beqz	a5,436c <T15_start+0x1b0>
    41d8:	40f006b3          	neg	a3,a5
    41dc:	0ad7e6b3          	max	a3,a5,a3
    41e0:	41f6d713          	srai	a4,a3,0x1f
    41e4:	00017637          	lui	a2,0x17
    41e8:	15460613          	addi	a2,a2,340 # 17154 <heap.cpp.6b15d6f6+0x953>
    41ec:	02c70733          	mul	a4,a4,a2
    41f0:	02c68b33          	mul	s6,a3,a2
    41f4:	02c6b6b3          	mulhu	a3,a3,a2
    41f8:	00d70733          	add	a4,a4,a3
    41fc:	01071713          	slli	a4,a4,0x10
    4200:	010b5b13          	srli	s6,s6,0x10
    4204:	01670b33          	add	s6,a4,s6
    4208:	00008737          	lui	a4,0x8
    420c:	00eb0b33          	add	s6,s6,a4
    4210:	ffff0737          	lui	a4,0xffff0
    4214:	00eb7b33          	and	s6,s6,a4
    4218:	3e07cc63          	bltz	a5,4610 <T15_end+0x54>
    421c:	41fb5713          	srai	a4,s6,0x1f
    4220:	0000b6b7          	lui	a3,0xb
    4224:	17268693          	addi	a3,a3,370 # b172 <__subdf3+0x62e>
    4228:	02d70733          	mul	a4,a4,a3
    422c:	02db0633          	mul	a2,s6,a3
    4230:	02db36b3          	mulhu	a3,s6,a3
    4234:	00d70733          	add	a4,a4,a3
    4238:	01071713          	slli	a4,a4,0x10
    423c:	01065693          	srli	a3,a2,0x10
    4240:	00d706b3          	add	a3,a4,a3
    4244:	40d787b3          	sub	a5,a5,a3
    4248:	41f7d693          	srai	a3,a5,0x1f
    424c:	02f686b3          	mul	a3,a3,a5
    4250:	02f78733          	mul	a4,a5,a5
    4254:	02f7b633          	mulhu	a2,a5,a5
    4258:	20c6a6b3          	sh1add	a3,a3,a2
    425c:	01069693          	slli	a3,a3,0x10
    4260:	01075713          	srli	a4,a4,0x10
    4264:	00e68733          	add	a4,a3,a4
    4268:	41f75513          	srai	a0,a4,0x1f
    426c:	01e75693          	srli	a3,a4,0x1e
    4270:	20d546b3          	sh2add	a3,a0,a3
    4274:	00271613          	slli	a2,a4,0x2
    4278:	01069693          	slli	a3,a3,0x10
    427c:	01065613          	srli	a2,a2,0x10
    4280:	00c68633          	add	a2,a3,a2
    4284:	f4a60613          	addi	a2,a2,-182
    4288:	41f65593          	srai	a1,a2,0x1f
    428c:	02e585b3          	mul	a1,a1,a4
    4290:	02c506b3          	mul	a3,a0,a2
    4294:	00d585b3          	add	a1,a1,a3
    4298:	02e606b3          	mul	a3,a2,a4
    429c:	02e63633          	mulhu	a2,a2,a4
    42a0:	00c58633          	add	a2,a1,a2
    42a4:	01061613          	slli	a2,a2,0x10
    42a8:	0106d693          	srli	a3,a3,0x10
    42ac:	00d606b3          	add	a3,a2,a3
    42b0:	00003637          	lui	a2,0x3
    42b4:	aab60613          	addi	a2,a2,-1365 # 2aab <T9_start+0x2f>
    42b8:	00c686b3          	add	a3,a3,a2
    42bc:	41f6d613          	srai	a2,a3,0x1f
    42c0:	02e60633          	mul	a2,a2,a4
    42c4:	02d50533          	mul	a0,a0,a3
    42c8:	00a60633          	add	a2,a2,a0
    42cc:	02e685b3          	mul	a1,a3,a4
    42d0:	02e6b6b3          	mulhu	a3,a3,a4
    42d4:	00d60733          	add	a4,a2,a3
    42d8:	01071713          	slli	a4,a4,0x10
    42dc:	0105d693          	srli	a3,a1,0x10
    42e0:	00d706b3          	add	a3,a4,a3
    42e4:	00020737          	lui	a4,0x20
    42e8:	00e686b3          	add	a3,a3,a4
    42ec:	40f68633          	sub	a2,a3,a5
    42f0:	02f68c63          	beq	a3,a5,4328 <T15_start+0x16c>
    42f4:	00f7d713          	srli	a4,a5,0xf
    42f8:	01179793          	slli	a5,a5,0x11
    42fc:	01071713          	slli	a4,a4,0x10
    4300:	0107d793          	srli	a5,a5,0x10
    4304:	00f707b3          	add	a5,a4,a5
    4308:	41f7d713          	srai	a4,a5,0x1f
    430c:	0107d593          	srli	a1,a5,0x10
    4310:	01071713          	slli	a4,a4,0x10
    4314:	41f65693          	srai	a3,a2,0x1f
    4318:	01079513          	slli	a0,a5,0x10
    431c:	00e585b3          	add	a1,a1,a4
    4320:	014070ef          	jal	b334 <__divdi3>
    4324:	00050613          	mv	a2,a0
    4328:	000107b7          	lui	a5,0x10
    432c:	00f606b3          	add	a3,a2,a5
    4330:	2e0b4463          	bltz	s6,4618 <T15_end+0x5c>
    4334:	410b5b13          	srai	s6,s6,0x10
    4338:	000107b7          	lui	a5,0x10
    433c:	016797b3          	sll	a5,a5,s6
    4340:	41f7d713          	srai	a4,a5,0x1f
    4344:	41f6d613          	srai	a2,a3,0x1f
    4348:	02d70733          	mul	a4,a4,a3
    434c:	02f60633          	mul	a2,a2,a5
    4350:	00c70733          	add	a4,a4,a2
    4354:	02d78633          	mul	a2,a5,a3
    4358:	02d7b7b3          	mulhu	a5,a5,a3
    435c:	00f70733          	add	a4,a4,a5
    4360:	01071713          	slli	a4,a4,0x10
    4364:	01065793          	srli	a5,a2,0x10
    4368:	00f70733          	add	a4,a4,a5
    436c:	06e12223          	sw	a4,100(sp)
    4370:	00492683          	lw	a3,4(s2)
    4374:	00000593          	li	a1,0
    4378:	2406c063          	bltz	a3,45b8 <T15_start+0x3fc>
    437c:	2a068a63          	beqz	a3,4630 <T15_end+0x74>
    4380:	000207b7          	lui	a5,0x20
    4384:	2ad7d263          	bge	a5,a3,4628 <T15_end+0x6c>
    4388:	00000c13          	li	s8,0
    438c:	4016d693          	srai	a3,a3,0x1
    4390:	001c0c13          	addi	s8,s8,1
    4394:	fed7cce3          	blt	a5,a3,438c <T15_start+0x1d0>
    4398:	ffff0b37          	lui	s6,0xffff0
    439c:	01668b33          	add	s6,a3,s6
    43a0:	41fb5793          	srai	a5,s6,0x1f
    43a4:	010b5593          	srli	a1,s6,0x10
    43a8:	01079793          	slli	a5,a5,0x10
    43ac:	00010737          	lui	a4,0x10
    43b0:	00e68633          	add	a2,a3,a4
    43b4:	41f65693          	srai	a3,a2,0x1f
    43b8:	010b1513          	slli	a0,s6,0x10
    43bc:	00f585b3          	add	a1,a1,a5
    43c0:	775060ef          	jal	b334 <__divdi3>
    43c4:	41f55613          	srai	a2,a0,0x1f
    43c8:	02a607b3          	mul	a5,a2,a0
    43cc:	02a506b3          	mul	a3,a0,a0
    43d0:	02a53733          	mulhu	a4,a0,a0
    43d4:	20e7a7b3          	sh1add	a5,a5,a4
    43d8:	01079793          	slli	a5,a5,0x10
    43dc:	0106d693          	srli	a3,a3,0x10
    43e0:	00d786b3          	add	a3,a5,a3
    43e4:	41f6d313          	srai	t1,a3,0x1f
    43e8:	02d307b3          	mul	a5,t1,a3
    43ec:	02d68733          	mul	a4,a3,a3
    43f0:	02d6b5b3          	mulhu	a1,a3,a3
    43f4:	20b7a7b3          	sh1add	a5,a5,a1
    43f8:	01079793          	slli	a5,a5,0x10
    43fc:	01075713          	srli	a4,a4,0x10
    4400:	00e78733          	add	a4,a5,a4
    4404:	41f75813          	srai	a6,a4,0x1f
    4408:	010c1793          	slli	a5,s8,0x10
    440c:	41f7d893          	srai	a7,a5,0x1f
    4410:	0000be37          	lui	t3,0xb
    4414:	172e0e13          	addi	t3,t3,370 # b172 <__subdf3+0x62e>
    4418:	03c888b3          	mul	a7,a7,t3
    441c:	03c785b3          	mul	a1,a5,t3
    4420:	03c7b7b3          	mulhu	a5,a5,t3
    4424:	00f887b3          	add	a5,a7,a5
    4428:	01079793          	slli	a5,a5,0x10
    442c:	0105d593          	srli	a1,a1,0x10
    4430:	00b785b3          	add	a1,a5,a1
    4434:	00bb05b3          	add	a1,s6,a1
    4438:	000028b7          	lui	a7,0x2
    443c:	5e288893          	addi	a7,a7,1506 # 25e2 <T7_end+0x96>
    4440:	03180e33          	mul	t3,a6,a7
    4444:	031707b3          	mul	a5,a4,a7
    4448:	031738b3          	mulhu	a7,a4,a7
    444c:	011e08b3          	add	a7,t3,a7
    4450:	01089893          	slli	a7,a7,0x10
    4454:	0107d793          	srli	a5,a5,0x10
    4458:	00f887b3          	add	a5,a7,a5
    445c:	000038b7          	lui	a7,0x3
    4460:	e8d88893          	addi	a7,a7,-371 # 2e8d <T9_start+0x411>
    4464:	011787b3          	add	a5,a5,a7
    4468:	41f7de13          	srai	t3,a5,0x1f
    446c:	02ee0e33          	mul	t3,t3,a4
    4470:	02f808b3          	mul	a7,a6,a5
    4474:	011e0e33          	add	t3,t3,a7
    4478:	02e788b3          	mul	a7,a5,a4
    447c:	02e7b7b3          	mulhu	a5,a5,a4
    4480:	00fe07b3          	add	a5,t3,a5
    4484:	01079793          	slli	a5,a5,0x10
    4488:	0108d893          	srli	a7,a7,0x10
    448c:	011788b3          	add	a7,a5,a7
    4490:	000057b7          	lui	a5,0x5
    4494:	92578793          	addi	a5,a5,-1755 # 4925 <T16_start+0x2ed>
    4498:	00f888b3          	add	a7,a7,a5
    449c:	41f8de13          	srai	t3,a7,0x1f
    44a0:	02ee0e33          	mul	t3,t3,a4
    44a4:	031807b3          	mul	a5,a6,a7
    44a8:	00fe0e33          	add	t3,t3,a5
    44ac:	02e887b3          	mul	a5,a7,a4
    44b0:	02e8b8b3          	mulhu	a7,a7,a4
    44b4:	011e08b3          	add	a7,t3,a7
    44b8:	01089893          	slli	a7,a7,0x10
    44bc:	0107d793          	srli	a5,a5,0x10
    44c0:	00f887b3          	add	a5,a7,a5
    44c4:	0000b8b7          	lui	a7,0xb
    44c8:	aab88893          	addi	a7,a7,-1365 # aaab <__muldf3+0x54f>
    44cc:	011787b3          	add	a5,a5,a7
    44d0:	41f7d893          	srai	a7,a5,0x1f
    44d4:	02d888b3          	mul	a7,a7,a3
    44d8:	02f30333          	mul	t1,t1,a5
    44dc:	00688333          	add	t1,a7,t1
    44e0:	02d788b3          	mul	a7,a5,a3
    44e4:	02d7b7b3          	mulhu	a5,a5,a3
    44e8:	00f307b3          	add	a5,t1,a5
    44ec:	01079793          	slli	a5,a5,0x10
    44f0:	0108d893          	srli	a7,a7,0x10
    44f4:	011788b3          	add	a7,a5,a7
    44f8:	000027b7          	lui	a5,0x2
    44fc:	73478793          	addi	a5,a5,1844 # 2734 <T8_start+0x13c>
    4500:	02f80333          	mul	t1,a6,a5
    4504:	02f706b3          	mul	a3,a4,a5
    4508:	02f737b3          	mulhu	a5,a4,a5
    450c:	00f307b3          	add	a5,t1,a5
    4510:	01079793          	slli	a5,a5,0x10
    4514:	0106d693          	srli	a3,a3,0x10
    4518:	00d786b3          	add	a3,a5,a3
    451c:	000047b7          	lui	a5,0x4
    4520:	8e478793          	addi	a5,a5,-1820 # 38e4 <T12_start+0x278>
    4524:	00f686b3          	add	a3,a3,a5
    4528:	41f6d313          	srai	t1,a3,0x1f
    452c:	02e30333          	mul	t1,t1,a4
    4530:	02d807b3          	mul	a5,a6,a3
    4534:	00f30333          	add	t1,t1,a5
    4538:	02e687b3          	mul	a5,a3,a4
    453c:	02e6b6b3          	mulhu	a3,a3,a4
    4540:	00d306b3          	add	a3,t1,a3
    4544:	01069693          	slli	a3,a3,0x10
    4548:	0107d793          	srli	a5,a5,0x10
    454c:	00f687b3          	add	a5,a3,a5
    4550:	000066b7          	lui	a3,0x6
    4554:	66668693          	addi	a3,a3,1638 # 6666 <T25_start+0x41e>
    4558:	00d787b3          	add	a5,a5,a3
    455c:	41f7d693          	srai	a3,a5,0x1f
    4560:	02e686b3          	mul	a3,a3,a4
    4564:	02f80833          	mul	a6,a6,a5
    4568:	010686b3          	add	a3,a3,a6
    456c:	02e78833          	mul	a6,a5,a4
    4570:	02e7b7b3          	mulhu	a5,a5,a4
    4574:	00f687b3          	add	a5,a3,a5
    4578:	01079793          	slli	a5,a5,0x10
    457c:	01085713          	srli	a4,a6,0x10
    4580:	00e78733          	add	a4,a5,a4
    4584:	00e888b3          	add	a7,a7,a4
    4588:	411b0b33          	sub	s6,s6,a7
    458c:	41fb5793          	srai	a5,s6,0x1f
    4590:	02a787b3          	mul	a5,a5,a0
    4594:	03660633          	mul	a2,a2,s6
    4598:	00c787b3          	add	a5,a5,a2
    459c:	02ab0733          	mul	a4,s6,a0
    45a0:	02ab3b33          	mulhu	s6,s6,a0
    45a4:	016787b3          	add	a5,a5,s6
    45a8:	01079793          	slli	a5,a5,0x10
    45ac:	01075713          	srli	a4,a4,0x10
    45b0:	00e78733          	add	a4,a5,a4
    45b4:	40e585b3          	sub	a1,a1,a4
    45b8:	06b12423          	sw	a1,104(sp)

000045bc <T15_end>:
    45bc:	b00027f3          	csrr	a5,mcycle
    45c0:	417787b3          	sub	a5,a5,s7
    45c4:	02f9ae23          	sw	a5,60(s3)
    45c8:	06012683          	lw	a3,96(sp)
    45cc:	06412703          	lw	a4,100(sp)
    45d0:	00100793          	li	a5,1
    45d4:	00d75663          	bge	a4,a3,45e0 <T15_end+0x24>
    45d8:	00068713          	mv	a4,a3
    45dc:	00000793          	li	a5,0
    45e0:	06812683          	lw	a3,104(sp)
    45e4:	00e6c463          	blt	a3,a4,45ec <T15_end+0x30>
    45e8:	00200793          	li	a5,2
    45ec:	00020737          	lui	a4,0x20
    45f0:	000206b7          	lui	a3,0x20
    45f4:	0f468693          	addi	a3,a3,244 # 200f4 <next.12>
    45f8:	20d7c7b3          	sh2add	a5,a5,a3
    45fc:	0007a783          	lw	a5,0(a5)
    4600:	1fc70713          	addi	a4,a4,508 # 201fc <jump_table.28>
    4604:	20e7c7b3          	sh2add	a5,a5,a4
    4608:	0007a783          	lw	a5,0(a5)
    460c:	d94fc06f          	j	ba0 <inferenceTPG+0x50>
    4610:	41600b33          	neg	s6,s6
    4614:	c09ff06f          	j	421c <T15_start+0x60>
    4618:	41600733          	neg	a4,s6
    461c:	41075713          	srai	a4,a4,0x10
    4620:	40e7d7b3          	sra	a5,a5,a4
    4624:	d1dff06f          	j	4340 <T15_start+0x184>
    4628:	00000c13          	li	s8,0
    462c:	d6dff06f          	j	4398 <T15_start+0x1dc>
    4630:	fff00593          	li	a1,-1
    4634:	f85ff06f          	j	45b8 <T15_start+0x3fc>

00004638 <T16_start>:
    4638:	b0002b73          	csrr	s6,mcycle
    463c:	0084ab83          	lw	s7,8(s1)
    4640:	000107b7          	lui	a5,0x10
    4644:	180b8c63          	beqz	s7,47dc <T16_start+0x1a4>
    4648:	41700733          	neg	a4,s7
    464c:	0aebe733          	max	a4,s7,a4
    4650:	41f75793          	srai	a5,a4,0x1f
    4654:	000176b7          	lui	a3,0x17
    4658:	15468693          	addi	a3,a3,340 # 17154 <heap.cpp.6b15d6f6+0x953>
    465c:	02d787b3          	mul	a5,a5,a3
    4660:	02d70c33          	mul	s8,a4,a3
    4664:	02d73733          	mulhu	a4,a4,a3
    4668:	00e787b3          	add	a5,a5,a4
    466c:	01079793          	slli	a5,a5,0x10
    4670:	010c5c13          	srli	s8,s8,0x10
    4674:	01878c33          	add	s8,a5,s8
    4678:	000087b7          	lui	a5,0x8
    467c:	00fc0c33          	add	s8,s8,a5
    4680:	ffff07b7          	lui	a5,0xffff0
    4684:	00fc7c33          	and	s8,s8,a5
    4688:	360bce63          	bltz	s7,4a04 <T16_end+0x24>
    468c:	41fc5713          	srai	a4,s8,0x1f
    4690:	0000b6b7          	lui	a3,0xb
    4694:	17268693          	addi	a3,a3,370 # b172 <__subdf3+0x62e>
    4698:	02d70733          	mul	a4,a4,a3
    469c:	02dc07b3          	mul	a5,s8,a3
    46a0:	02dc36b3          	mulhu	a3,s8,a3
    46a4:	00d70733          	add	a4,a4,a3
    46a8:	01071713          	slli	a4,a4,0x10
    46ac:	0107d793          	srli	a5,a5,0x10
    46b0:	00f707b3          	add	a5,a4,a5
    46b4:	40fb87b3          	sub	a5,s7,a5
    46b8:	41f7d693          	srai	a3,a5,0x1f
    46bc:	02f686b3          	mul	a3,a3,a5
    46c0:	02f78733          	mul	a4,a5,a5
    46c4:	02f7b633          	mulhu	a2,a5,a5
    46c8:	20c6a6b3          	sh1add	a3,a3,a2
    46cc:	01069693          	slli	a3,a3,0x10
    46d0:	01075713          	srli	a4,a4,0x10
    46d4:	00e68733          	add	a4,a3,a4
    46d8:	41f75513          	srai	a0,a4,0x1f
    46dc:	01e75693          	srli	a3,a4,0x1e
    46e0:	20d546b3          	sh2add	a3,a0,a3
    46e4:	00271613          	slli	a2,a4,0x2
    46e8:	01069693          	slli	a3,a3,0x10
    46ec:	01065613          	srli	a2,a2,0x10
    46f0:	00c68633          	add	a2,a3,a2
    46f4:	f4a60613          	addi	a2,a2,-182
    46f8:	41f65593          	srai	a1,a2,0x1f
    46fc:	02e585b3          	mul	a1,a1,a4
    4700:	02c506b3          	mul	a3,a0,a2
    4704:	00d585b3          	add	a1,a1,a3
    4708:	02e606b3          	mul	a3,a2,a4
    470c:	02e63633          	mulhu	a2,a2,a4
    4710:	00c58633          	add	a2,a1,a2
    4714:	01061613          	slli	a2,a2,0x10
    4718:	0106d693          	srli	a3,a3,0x10
    471c:	00d606b3          	add	a3,a2,a3
    4720:	00003637          	lui	a2,0x3
    4724:	aab60613          	addi	a2,a2,-1365 # 2aab <T9_start+0x2f>
    4728:	00c686b3          	add	a3,a3,a2
    472c:	41f6d613          	srai	a2,a3,0x1f
    4730:	02e60633          	mul	a2,a2,a4
    4734:	02d50533          	mul	a0,a0,a3
    4738:	00a60633          	add	a2,a2,a0
    473c:	02e685b3          	mul	a1,a3,a4
    4740:	02e6b6b3          	mulhu	a3,a3,a4
    4744:	00d60733          	add	a4,a2,a3
    4748:	01071713          	slli	a4,a4,0x10
    474c:	0105d693          	srli	a3,a1,0x10
    4750:	00d706b3          	add	a3,a4,a3
    4754:	00020737          	lui	a4,0x20
    4758:	00e686b3          	add	a3,a3,a4
    475c:	40f68633          	sub	a2,a3,a5
    4760:	02f68c63          	beq	a3,a5,4798 <T16_start+0x160>
    4764:	00f7d713          	srli	a4,a5,0xf
    4768:	01179793          	slli	a5,a5,0x11
    476c:	01071713          	slli	a4,a4,0x10
    4770:	0107d793          	srli	a5,a5,0x10
    4774:	00f707b3          	add	a5,a4,a5
    4778:	41f7d713          	srai	a4,a5,0x1f
    477c:	0107d593          	srli	a1,a5,0x10
    4780:	01071713          	slli	a4,a4,0x10
    4784:	41f65693          	srai	a3,a2,0x1f
    4788:	01079513          	slli	a0,a5,0x10
    478c:	00e585b3          	add	a1,a1,a4
    4790:	3a5060ef          	jal	b334 <__divdi3>
    4794:	00050613          	mv	a2,a0
    4798:	000107b7          	lui	a5,0x10
    479c:	00f606b3          	add	a3,a2,a5
    47a0:	260c4663          	bltz	s8,4a0c <T16_end+0x2c>
    47a4:	410c5c13          	srai	s8,s8,0x10
    47a8:	00010737          	lui	a4,0x10
    47ac:	01871733          	sll	a4,a4,s8
    47b0:	41f75793          	srai	a5,a4,0x1f
    47b4:	41f6d613          	srai	a2,a3,0x1f
    47b8:	02d787b3          	mul	a5,a5,a3
    47bc:	02e60633          	mul	a2,a2,a4
    47c0:	00c787b3          	add	a5,a5,a2
    47c4:	02d70633          	mul	a2,a4,a3
    47c8:	02d73733          	mulhu	a4,a4,a3
    47cc:	00e787b3          	add	a5,a5,a4
    47d0:	01079793          	slli	a5,a5,0x10
    47d4:	01065713          	srli	a4,a2,0x10
    47d8:	00e787b3          	add	a5,a5,a4
    47dc:	16f12c23          	sw	a5,376(sp)
    47e0:	00492783          	lw	a5,4(s2)
    47e4:	01092683          	lw	a3,16(s2)
    47e8:	41f6d713          	srai	a4,a3,0x1f
    47ec:	41f7d613          	srai	a2,a5,0x1f
    47f0:	02f70733          	mul	a4,a4,a5
    47f4:	02d60633          	mul	a2,a2,a3
    47f8:	00c70733          	add	a4,a4,a2
    47fc:	02f68633          	mul	a2,a3,a5
    4800:	02f6b6b3          	mulhu	a3,a3,a5
    4804:	00d70733          	add	a4,a4,a3
    4808:	01071713          	slli	a4,a4,0x10
    480c:	01065693          	srli	a3,a2,0x10
    4810:	00d706b3          	add	a3,a4,a3
    4814:	16d12e23          	sw	a3,380(sp)
    4818:	0044a703          	lw	a4,4(s1)
    481c:	00171693          	slli	a3,a4,0x1
    4820:	18d12023          	sw	a3,384(sp)
    4824:	000106b7          	lui	a3,0x10
    4828:	18d12223          	sw	a3,388(sp)
    482c:	0004a683          	lw	a3,0(s1)
    4830:	017686b3          	add	a3,a3,s7
    4834:	18d12423          	sw	a3,392(sp)
    4838:	41770733          	sub	a4,a4,s7
    483c:	18e12623          	sw	a4,396(sp)
    4840:	00010737          	lui	a4,0x10
    4844:	18078c63          	beqz	a5,49dc <T16_start+0x3a4>
    4848:	40f006b3          	neg	a3,a5
    484c:	0ad7e6b3          	max	a3,a5,a3
    4850:	41f6d713          	srai	a4,a3,0x1f
    4854:	00017637          	lui	a2,0x17
    4858:	15460613          	addi	a2,a2,340 # 17154 <heap.cpp.6b15d6f6+0x953>
    485c:	02c70733          	mul	a4,a4,a2
    4860:	02c68bb3          	mul	s7,a3,a2
    4864:	02c6b6b3          	mulhu	a3,a3,a2
    4868:	00d70733          	add	a4,a4,a3
    486c:	01071713          	slli	a4,a4,0x10
    4870:	010bdb93          	srli	s7,s7,0x10
    4874:	01770bb3          	add	s7,a4,s7
    4878:	00008737          	lui	a4,0x8
    487c:	00eb8bb3          	add	s7,s7,a4
    4880:	ffff0737          	lui	a4,0xffff0
    4884:	00ebfbb3          	and	s7,s7,a4
    4888:	1807cc63          	bltz	a5,4a20 <T16_end+0x40>
    488c:	41fbd713          	srai	a4,s7,0x1f
    4890:	0000b6b7          	lui	a3,0xb
    4894:	17268693          	addi	a3,a3,370 # b172 <__subdf3+0x62e>
    4898:	02d70733          	mul	a4,a4,a3
    489c:	02db8633          	mul	a2,s7,a3
    48a0:	02dbb6b3          	mulhu	a3,s7,a3
    48a4:	00d70733          	add	a4,a4,a3
    48a8:	01071713          	slli	a4,a4,0x10
    48ac:	01065693          	srli	a3,a2,0x10
    48b0:	00d706b3          	add	a3,a4,a3
    48b4:	40d787b3          	sub	a5,a5,a3
    48b8:	41f7d693          	srai	a3,a5,0x1f
    48bc:	02f686b3          	mul	a3,a3,a5
    48c0:	02f78733          	mul	a4,a5,a5
    48c4:	02f7b633          	mulhu	a2,a5,a5
    48c8:	20c6a6b3          	sh1add	a3,a3,a2
    48cc:	01069693          	slli	a3,a3,0x10
    48d0:	01075713          	srli	a4,a4,0x10
    48d4:	00e68733          	add	a4,a3,a4
    48d8:	41f75513          	srai	a0,a4,0x1f
    48dc:	01e75693          	srli	a3,a4,0x1e
    48e0:	20d546b3          	sh2add	a3,a0,a3
    48e4:	00271613          	slli	a2,a4,0x2
    48e8:	01069693          	slli	a3,a3,0x10
    48ec:	01065613          	srli	a2,a2,0x10
    48f0:	00c68633          	add	a2,a3,a2
    48f4:	f4a60613          	addi	a2,a2,-182
    48f8:	41f65593          	srai	a1,a2,0x1f
    48fc:	02e585b3          	mul	a1,a1,a4
    4900:	02c506b3          	mul	a3,a0,a2
    4904:	00d585b3          	add	a1,a1,a3
    4908:	02e606b3          	mul	a3,a2,a4
    490c:	02e63633          	mulhu	a2,a2,a4
    4910:	00c58633          	add	a2,a1,a2
    4914:	01061613          	slli	a2,a2,0x10
    4918:	0106d693          	srli	a3,a3,0x10
    491c:	00d606b3          	add	a3,a2,a3
    4920:	00003637          	lui	a2,0x3
    4924:	aab60613          	addi	a2,a2,-1365 # 2aab <T9_start+0x2f>
    4928:	00c686b3          	add	a3,a3,a2
    492c:	41f6d613          	srai	a2,a3,0x1f
    4930:	02e60633          	mul	a2,a2,a4
    4934:	02d50533          	mul	a0,a0,a3
    4938:	00a60633          	add	a2,a2,a0
    493c:	02e685b3          	mul	a1,a3,a4
    4940:	02e6b6b3          	mulhu	a3,a3,a4
    4944:	00d60733          	add	a4,a2,a3
    4948:	01071713          	slli	a4,a4,0x10
    494c:	0105d693          	srli	a3,a1,0x10
    4950:	00d706b3          	add	a3,a4,a3
    4954:	00020737          	lui	a4,0x20
    4958:	00e686b3          	add	a3,a3,a4
    495c:	40f68633          	sub	a2,a3,a5
    4960:	02f68c63          	beq	a3,a5,4998 <T16_start+0x360>
    4964:	00f7d713          	srli	a4,a5,0xf
    4968:	01179793          	slli	a5,a5,0x11
    496c:	01071713          	slli	a4,a4,0x10
    4970:	0107d793          	srli	a5,a5,0x10
    4974:	00f707b3          	add	a5,a4,a5
    4978:	41f7d713          	srai	a4,a5,0x1f
    497c:	0107d593          	srli	a1,a5,0x10
    4980:	01071713          	slli	a4,a4,0x10
    4984:	41f65693          	srai	a3,a2,0x1f
    4988:	01079513          	slli	a0,a5,0x10
    498c:	00e585b3          	add	a1,a1,a4
    4990:	1a5060ef          	jal	b334 <__divdi3>
    4994:	00050613          	mv	a2,a0
    4998:	000107b7          	lui	a5,0x10
    499c:	00f606b3          	add	a3,a2,a5
    49a0:	080bc463          	bltz	s7,4a28 <T16_end+0x48>
    49a4:	410bdb93          	srai	s7,s7,0x10
    49a8:	000107b7          	lui	a5,0x10
    49ac:	017797b3          	sll	a5,a5,s7
    49b0:	41f7d713          	srai	a4,a5,0x1f
    49b4:	41f6d613          	srai	a2,a3,0x1f
    49b8:	02d70733          	mul	a4,a4,a3
    49bc:	02f60633          	mul	a2,a2,a5
    49c0:	00c70733          	add	a4,a4,a2
    49c4:	02d78633          	mul	a2,a5,a3
    49c8:	02d7b7b3          	mulhu	a5,a5,a3
    49cc:	00f70733          	add	a4,a4,a5
    49d0:	01071713          	slli	a4,a4,0x10
    49d4:	01065793          	srli	a5,a2,0x10
    49d8:	00f70733          	add	a4,a4,a5
    49dc:	18e12823          	sw	a4,400(sp)

000049e0 <T16_end>:
    49e0:	b00027f3          	csrr	a5,mcycle
    49e4:	416787b3          	sub	a5,a5,s6
    49e8:	04f9a023          	sw	a5,64(s3)
    49ec:	17812603          	lw	a2,376(sp)
    49f0:	17810713          	addi	a4,sp,376
    49f4:	00000513          	li	a0,0
    49f8:	00100793          	li	a5,1
    49fc:	00700593          	li	a1,7
    4a00:	0440006f          	j	4a44 <T16_end+0x64>
    4a04:	41800c33          	neg	s8,s8
    4a08:	c85ff06f          	j	468c <T16_start+0x54>
    4a0c:	418007b3          	neg	a5,s8
    4a10:	4107d793          	srai	a5,a5,0x10
    4a14:	00010737          	lui	a4,0x10
    4a18:	40f75733          	sra	a4,a4,a5
    4a1c:	d95ff06f          	j	47b0 <T16_start+0x178>
    4a20:	41700bb3          	neg	s7,s7
    4a24:	e69ff06f          	j	488c <T16_start+0x254>
    4a28:	41700733          	neg	a4,s7
    4a2c:	41075713          	srai	a4,a4,0x10
    4a30:	40e7d7b3          	sra	a5,a5,a4
    4a34:	f7dff06f          	j	49b0 <T16_start+0x378>
    4a38:	00178793          	addi	a5,a5,1 # 10001 <fast_intr_ctrl.c.233e5230+0x208>
    4a3c:	00470713          	addi	a4,a4,4 # 10004 <fast_intr_ctrl.c.233e5230+0x20b>
    4a40:	00b78c63          	beq	a5,a1,4a58 <T16_end+0x78>
    4a44:	00472683          	lw	a3,4(a4)
    4a48:	fec6c8e3          	blt	a3,a2,4a38 <T16_end+0x58>
    4a4c:	00068613          	mv	a2,a3
    4a50:	00078513          	mv	a0,a5
    4a54:	fe5ff06f          	j	4a38 <T16_end+0x58>
    4a58:	00020737          	lui	a4,0x20
    4a5c:	000207b7          	lui	a5,0x20
    4a60:	0d878793          	addi	a5,a5,216 # 200d8 <next.11>
    4a64:	20f54533          	sh2add	a0,a0,a5
    4a68:	00052783          	lw	a5,0(a0)
    4a6c:	1fc70713          	addi	a4,a4,508 # 201fc <jump_table.28>
    4a70:	20e7c7b3          	sh2add	a5,a5,a4
    4a74:	0007a783          	lw	a5,0(a5)
    4a78:	928fc06f          	j	ba0 <inferenceTPG+0x50>
    4a7c:	1fb12823          	sw	s11,496(sp)

00004a80 <T17_start>:
    4a80:	b00027f3          	csrr	a5,mcycle
    4a84:	00f12623          	sw	a5,12(sp)
    4a88:	000aa783          	lw	a5,0(s5)
    4a8c:	0004a703          	lw	a4,0(s1)
    4a90:	00e12423          	sw	a4,8(sp)
    4a94:	0ae7e733          	max	a4,a5,a4
    4a98:	1ce12823          	sw	a4,464(sp)
    4a9c:	0084ac03          	lw	s8,8(s1)
    4aa0:	0044a703          	lw	a4,4(s1)
    4aa4:	00e12223          	sw	a4,4(sp)
    4aa8:	00fc07b3          	add	a5,s8,a5
    4aac:	0ae7e7b3          	max	a5,a5,a4
    4ab0:	1cf12a23          	sw	a5,468(sp)
    4ab4:	00492b83          	lw	s7,4(s2)
    4ab8:	000bd463          	bgez	s7,4ac0 <T17_start+0x40>
    4abc:	6550106f          	j	6910 <T25_end+0x180>
    4ac0:	000b9463          	bnez	s7,4ac8 <T17_start+0x48>
    4ac4:	6290106f          	j	68ec <T25_end+0x15c>
    4ac8:	000207b7          	lui	a5,0x20
    4acc:	4377dc63          	bge	a5,s7,4f04 <T17_end+0x28>
    4ad0:	000b8693          	mv	a3,s7
    4ad4:	00000b13          	li	s6,0
    4ad8:	4016d693          	srai	a3,a3,0x1
    4adc:	001b0b13          	addi	s6,s6,1 # ffff0001 <_sp+0xfffc6051>
    4ae0:	fed7cce3          	blt	a5,a3,4ad8 <T17_start+0x58>
    4ae4:	ffff0cb7          	lui	s9,0xffff0
    4ae8:	019687b3          	add	a5,a3,s9
    4aec:	00078d93          	mv	s11,a5
    4af0:	41f7d793          	srai	a5,a5,0x1f
    4af4:	010dd593          	srli	a1,s11,0x10
    4af8:	01079793          	slli	a5,a5,0x10
    4afc:	00010737          	lui	a4,0x10
    4b00:	00e68633          	add	a2,a3,a4
    4b04:	41f65693          	srai	a3,a2,0x1f
    4b08:	010d9513          	slli	a0,s11,0x10
    4b0c:	00f585b3          	add	a1,a1,a5
    4b10:	025060ef          	jal	b334 <__divdi3>
    4b14:	41f55613          	srai	a2,a0,0x1f
    4b18:	02a607b3          	mul	a5,a2,a0
    4b1c:	02a50733          	mul	a4,a0,a0
    4b20:	02a536b3          	mulhu	a3,a0,a0
    4b24:	20d7a7b3          	sh1add	a5,a5,a3
    4b28:	01079793          	slli	a5,a5,0x10
    4b2c:	01075713          	srli	a4,a4,0x10
    4b30:	00e78733          	add	a4,a5,a4
    4b34:	41f75313          	srai	t1,a4,0x1f
    4b38:	02e306b3          	mul	a3,t1,a4
    4b3c:	02e707b3          	mul	a5,a4,a4
    4b40:	02e735b3          	mulhu	a1,a4,a4
    4b44:	20b6a6b3          	sh1add	a3,a3,a1
    4b48:	01069693          	slli	a3,a3,0x10
    4b4c:	0107d793          	srli	a5,a5,0x10
    4b50:	00f687b3          	add	a5,a3,a5
    4b54:	41f7d813          	srai	a6,a5,0x1f
    4b58:	010b1b13          	slli	s6,s6,0x10
    4b5c:	41fb5693          	srai	a3,s6,0x1f
    4b60:	0000b8b7          	lui	a7,0xb
    4b64:	17288893          	addi	a7,a7,370 # b172 <__subdf3+0x62e>
    4b68:	031686b3          	mul	a3,a3,a7
    4b6c:	031b05b3          	mul	a1,s6,a7
    4b70:	031b3b33          	mulhu	s6,s6,a7
    4b74:	016686b3          	add	a3,a3,s6
    4b78:	01069693          	slli	a3,a3,0x10
    4b7c:	0105d593          	srli	a1,a1,0x10
    4b80:	00b685b3          	add	a1,a3,a1
    4b84:	00bd85b3          	add	a1,s11,a1
    4b88:	000028b7          	lui	a7,0x2
    4b8c:	5e288893          	addi	a7,a7,1506 # 25e2 <T7_end+0x96>
    4b90:	03180e33          	mul	t3,a6,a7
    4b94:	031786b3          	mul	a3,a5,a7
    4b98:	0317b8b3          	mulhu	a7,a5,a7
    4b9c:	011e08b3          	add	a7,t3,a7
    4ba0:	01089893          	slli	a7,a7,0x10
    4ba4:	0106d693          	srli	a3,a3,0x10
    4ba8:	00d886b3          	add	a3,a7,a3
    4bac:	000038b7          	lui	a7,0x3
    4bb0:	e8d88893          	addi	a7,a7,-371 # 2e8d <T9_start+0x411>
    4bb4:	011686b3          	add	a3,a3,a7
    4bb8:	41f6de13          	srai	t3,a3,0x1f
    4bbc:	02fe0e33          	mul	t3,t3,a5
    4bc0:	02d808b3          	mul	a7,a6,a3
    4bc4:	011e0e33          	add	t3,t3,a7
    4bc8:	02f688b3          	mul	a7,a3,a5
    4bcc:	02f6b6b3          	mulhu	a3,a3,a5
    4bd0:	00de06b3          	add	a3,t3,a3
    4bd4:	01069693          	slli	a3,a3,0x10
    4bd8:	0108d893          	srli	a7,a7,0x10
    4bdc:	011688b3          	add	a7,a3,a7
    4be0:	000056b7          	lui	a3,0x5
    4be4:	92568693          	addi	a3,a3,-1755 # 4925 <T16_start+0x2ed>
    4be8:	00d888b3          	add	a7,a7,a3
    4bec:	41f8de13          	srai	t3,a7,0x1f
    4bf0:	02fe0e33          	mul	t3,t3,a5
    4bf4:	031806b3          	mul	a3,a6,a7
    4bf8:	00de0e33          	add	t3,t3,a3
    4bfc:	02f886b3          	mul	a3,a7,a5
    4c00:	02f8b8b3          	mulhu	a7,a7,a5
    4c04:	011e08b3          	add	a7,t3,a7
    4c08:	01089893          	slli	a7,a7,0x10
    4c0c:	0106d693          	srli	a3,a3,0x10
    4c10:	00d886b3          	add	a3,a7,a3
    4c14:	0000b8b7          	lui	a7,0xb
    4c18:	aab88893          	addi	a7,a7,-1365 # aaab <__muldf3+0x54f>
    4c1c:	011686b3          	add	a3,a3,a7
    4c20:	41f6d893          	srai	a7,a3,0x1f
    4c24:	02e888b3          	mul	a7,a7,a4
    4c28:	02d30333          	mul	t1,t1,a3
    4c2c:	00688333          	add	t1,a7,t1
    4c30:	02e688b3          	mul	a7,a3,a4
    4c34:	02e6b6b3          	mulhu	a3,a3,a4
    4c38:	00d30733          	add	a4,t1,a3
    4c3c:	01071713          	slli	a4,a4,0x10
    4c40:	0108d893          	srli	a7,a7,0x10
    4c44:	011708b3          	add	a7,a4,a7
    4c48:	00002737          	lui	a4,0x2
    4c4c:	73470713          	addi	a4,a4,1844 # 2734 <T8_start+0x13c>
    4c50:	02e80333          	mul	t1,a6,a4
    4c54:	02e786b3          	mul	a3,a5,a4
    4c58:	02e7b733          	mulhu	a4,a5,a4
    4c5c:	00e30733          	add	a4,t1,a4
    4c60:	01071713          	slli	a4,a4,0x10
    4c64:	0106d693          	srli	a3,a3,0x10
    4c68:	00d706b3          	add	a3,a4,a3
    4c6c:	00004737          	lui	a4,0x4
    4c70:	8e470713          	addi	a4,a4,-1820 # 38e4 <T12_start+0x278>
    4c74:	00e686b3          	add	a3,a3,a4
    4c78:	41f6d313          	srai	t1,a3,0x1f
    4c7c:	02f30333          	mul	t1,t1,a5
    4c80:	02d80733          	mul	a4,a6,a3
    4c84:	00e30333          	add	t1,t1,a4
    4c88:	02f68733          	mul	a4,a3,a5
    4c8c:	02f6b6b3          	mulhu	a3,a3,a5
    4c90:	00d306b3          	add	a3,t1,a3
    4c94:	01069693          	slli	a3,a3,0x10
    4c98:	01075713          	srli	a4,a4,0x10
    4c9c:	00e68733          	add	a4,a3,a4
    4ca0:	000066b7          	lui	a3,0x6
    4ca4:	66668693          	addi	a3,a3,1638 # 6666 <T25_start+0x41e>
    4ca8:	00d70733          	add	a4,a4,a3
    4cac:	41f75693          	srai	a3,a4,0x1f
    4cb0:	02f686b3          	mul	a3,a3,a5
    4cb4:	02e80833          	mul	a6,a6,a4
    4cb8:	010686b3          	add	a3,a3,a6
    4cbc:	02f70833          	mul	a6,a4,a5
    4cc0:	02f73733          	mulhu	a4,a4,a5
    4cc4:	00e687b3          	add	a5,a3,a4
    4cc8:	01079793          	slli	a5,a5,0x10
    4ccc:	01085713          	srli	a4,a6,0x10
    4cd0:	00e78733          	add	a4,a5,a4
    4cd4:	00e888b3          	add	a7,a7,a4
    4cd8:	411d87b3          	sub	a5,s11,a7
    4cdc:	41f7d713          	srai	a4,a5,0x1f
    4ce0:	02a70733          	mul	a4,a4,a0
    4ce4:	02f60633          	mul	a2,a2,a5
    4ce8:	00c70733          	add	a4,a4,a2
    4cec:	02a786b3          	mul	a3,a5,a0
    4cf0:	02a7b7b3          	mulhu	a5,a5,a0
    4cf4:	00f707b3          	add	a5,a4,a5
    4cf8:	01079793          	slli	a5,a5,0x10
    4cfc:	0106d713          	srli	a4,a3,0x10
    4d00:	00e78733          	add	a4,a5,a4
    4d04:	40e587b3          	sub	a5,a1,a4
    4d08:	00078d93          	mv	s11,a5
    4d0c:	00812783          	lw	a5,8(sp)
    4d10:	00fc0b33          	add	s6,s8,a5
    4d14:	00412783          	lw	a5,4(sp)
    4d18:	418787b3          	sub	a5,a5,s8
    4d1c:	00f12423          	sw	a5,8(sp)
    4d20:	417006b3          	neg	a3,s7
    4d24:	0adbe6b3          	max	a3,s7,a3
    4d28:	41f6d713          	srai	a4,a3,0x1f
    4d2c:	00017637          	lui	a2,0x17
    4d30:	15460613          	addi	a2,a2,340 # 17154 <heap.cpp.6b15d6f6+0x953>
    4d34:	02c70733          	mul	a4,a4,a2
    4d38:	02c687b3          	mul	a5,a3,a2
    4d3c:	02c6b6b3          	mulhu	a3,a3,a2
    4d40:	00d70733          	add	a4,a4,a3
    4d44:	01071713          	slli	a4,a4,0x10
    4d48:	0107d793          	srli	a5,a5,0x10
    4d4c:	00f707b3          	add	a5,a4,a5
    4d50:	00008737          	lui	a4,0x8
    4d54:	00e787b3          	add	a5,a5,a4
    4d58:	0197f7b3          	and	a5,a5,s9
    4d5c:	00078c93          	mv	s9,a5
    4d60:	41fcd713          	srai	a4,s9,0x1f
    4d64:	0000b6b7          	lui	a3,0xb
    4d68:	17268693          	addi	a3,a3,370 # b172 <__subdf3+0x62e>
    4d6c:	02d70733          	mul	a4,a4,a3
    4d70:	02dc87b3          	mul	a5,s9,a3
    4d74:	02dcb6b3          	mulhu	a3,s9,a3
    4d78:	00d70733          	add	a4,a4,a3
    4d7c:	01071713          	slli	a4,a4,0x10
    4d80:	0107d793          	srli	a5,a5,0x10
    4d84:	00f707b3          	add	a5,a4,a5
    4d88:	40fb87b3          	sub	a5,s7,a5
    4d8c:	41f7d713          	srai	a4,a5,0x1f
    4d90:	02f70733          	mul	a4,a4,a5
    4d94:	02f78633          	mul	a2,a5,a5
    4d98:	02f7b6b3          	mulhu	a3,a5,a5
    4d9c:	20d72733          	sh1add	a4,a4,a3
    4da0:	01071713          	slli	a4,a4,0x10
    4da4:	01065613          	srli	a2,a2,0x10
    4da8:	00c70633          	add	a2,a4,a2
    4dac:	41f65513          	srai	a0,a2,0x1f
    4db0:	01e65713          	srli	a4,a2,0x1e
    4db4:	20e54733          	sh2add	a4,a0,a4
    4db8:	00261693          	slli	a3,a2,0x2
    4dbc:	01071713          	slli	a4,a4,0x10
    4dc0:	0106d693          	srli	a3,a3,0x10
    4dc4:	00d706b3          	add	a3,a4,a3
    4dc8:	f4a68693          	addi	a3,a3,-182
    4dcc:	41f6d593          	srai	a1,a3,0x1f
    4dd0:	02c585b3          	mul	a1,a1,a2
    4dd4:	02d50733          	mul	a4,a0,a3
    4dd8:	00e585b3          	add	a1,a1,a4
    4ddc:	02c68733          	mul	a4,a3,a2
    4de0:	02c6b6b3          	mulhu	a3,a3,a2
    4de4:	00d586b3          	add	a3,a1,a3
    4de8:	01069693          	slli	a3,a3,0x10
    4dec:	01075713          	srli	a4,a4,0x10
    4df0:	00e68733          	add	a4,a3,a4
    4df4:	000036b7          	lui	a3,0x3
    4df8:	aab68693          	addi	a3,a3,-1365 # 2aab <T9_start+0x2f>
    4dfc:	00d70733          	add	a4,a4,a3
    4e00:	41f75693          	srai	a3,a4,0x1f
    4e04:	02c686b3          	mul	a3,a3,a2
    4e08:	02e50533          	mul	a0,a0,a4
    4e0c:	00a686b3          	add	a3,a3,a0
    4e10:	02c705b3          	mul	a1,a4,a2
    4e14:	02c73733          	mulhu	a4,a4,a2
    4e18:	00e68733          	add	a4,a3,a4
    4e1c:	01071713          	slli	a4,a4,0x10
    4e20:	0105d693          	srli	a3,a1,0x10
    4e24:	00d706b3          	add	a3,a4,a3
    4e28:	00020737          	lui	a4,0x20
    4e2c:	00e686b3          	add	a3,a3,a4
    4e30:	40f68633          	sub	a2,a3,a5
    4e34:	02f68c63          	beq	a3,a5,4e6c <T17_start+0x3ec>
    4e38:	00f7d713          	srli	a4,a5,0xf
    4e3c:	01179793          	slli	a5,a5,0x11
    4e40:	01071713          	slli	a4,a4,0x10
    4e44:	0107d793          	srli	a5,a5,0x10
    4e48:	00f707b3          	add	a5,a4,a5
    4e4c:	41f7d713          	srai	a4,a5,0x1f
    4e50:	0107d593          	srli	a1,a5,0x10
    4e54:	01071713          	slli	a4,a4,0x10
    4e58:	41f65693          	srai	a3,a2,0x1f
    4e5c:	01079513          	slli	a0,a5,0x10
    4e60:	00e585b3          	add	a1,a1,a4
    4e64:	4d0060ef          	jal	b334 <__divdi3>
    4e68:	00050613          	mv	a2,a0
    4e6c:	000107b7          	lui	a5,0x10
    4e70:	00f606b3          	add	a3,a2,a5
    4e74:	080cce63          	bltz	s9,4f10 <T17_end+0x34>
    4e78:	410cd793          	srai	a5,s9,0x10
    4e7c:	00010737          	lui	a4,0x10
    4e80:	00f71733          	sll	a4,a4,a5
    4e84:	41f75793          	srai	a5,a4,0x1f
    4e88:	41f6d613          	srai	a2,a3,0x1f
    4e8c:	02d787b3          	mul	a5,a5,a3
    4e90:	02e60633          	mul	a2,a2,a4
    4e94:	00c787b3          	add	a5,a5,a2
    4e98:	02d70633          	mul	a2,a4,a3
    4e9c:	02d73733          	mulhu	a4,a4,a3
    4ea0:	00e787b3          	add	a5,a5,a4
    4ea4:	01079793          	slli	a5,a5,0x10
    4ea8:	01065713          	srli	a4,a2,0x10
    4eac:	00e787b3          	add	a5,a5,a4
    4eb0:	1db12c23          	sw	s11,472(sp)
    4eb4:	1d612e23          	sw	s6,476(sp)
    4eb8:	00812703          	lw	a4,8(sp)
    4ebc:	1ee12023          	sw	a4,480(sp)
    4ec0:	1ef12223          	sw	a5,484(sp)
    4ec4:	000a2783          	lw	a5,0(s4)
    4ec8:	00412703          	lw	a4,4(sp)
    4ecc:	0ae7e7b3          	max	a5,a5,a4
    4ed0:	1ef12423          	sw	a5,488(sp)
    4ed4:	0a0c67b3          	max	a5,s8,zero
    4ed8:	1ef12623          	sw	a5,492(sp)

00004edc <T17_end>:
    4edc:	b00027f3          	csrr	a5,mcycle
    4ee0:	00c12703          	lw	a4,12(sp)
    4ee4:	40e787b3          	sub	a5,a5,a4
    4ee8:	04f9a223          	sw	a5,68(s3)
    4eec:	1d012603          	lw	a2,464(sp)
    4ef0:	1d010713          	addi	a4,sp,464
    4ef4:	00000513          	li	a0,0
    4ef8:	00100793          	li	a5,1
    4efc:	00800593          	li	a1,8
    4f00:	0300006f          	j	4f30 <T17_end+0x54>
    4f04:	000b8693          	mv	a3,s7
    4f08:	00000b13          	li	s6,0
    4f0c:	bd9ff06f          	j	4ae4 <T17_start+0x64>
    4f10:	419007b3          	neg	a5,s9
    4f14:	4107d793          	srai	a5,a5,0x10
    4f18:	00010737          	lui	a4,0x10
    4f1c:	40f75733          	sra	a4,a4,a5
    4f20:	f65ff06f          	j	4e84 <T17_start+0x404>
    4f24:	00178793          	addi	a5,a5,1 # 10001 <fast_intr_ctrl.c.233e5230+0x208>
    4f28:	00470713          	addi	a4,a4,4 # 10004 <fast_intr_ctrl.c.233e5230+0x20b>
    4f2c:	00b78c63          	beq	a5,a1,4f44 <T17_end+0x68>
    4f30:	00472683          	lw	a3,4(a4)
    4f34:	fec6c8e3          	blt	a3,a2,4f24 <T17_end+0x48>
    4f38:	00068613          	mv	a2,a3
    4f3c:	00078513          	mv	a0,a5
    4f40:	fe5ff06f          	j	4f24 <T17_end+0x48>
    4f44:	00020737          	lui	a4,0x20
    4f48:	000207b7          	lui	a5,0x20
    4f4c:	0b878793          	addi	a5,a5,184 # 200b8 <next.10>
    4f50:	20f54533          	sh2add	a0,a0,a5
    4f54:	00052783          	lw	a5,0(a0)
    4f58:	1fc70713          	addi	a4,a4,508 # 201fc <jump_table.28>
    4f5c:	20e7c7b3          	sh2add	a5,a5,a4
    4f60:	0007a783          	lw	a5,0(a5)
    4f64:	1f012d83          	lw	s11,496(sp)
    4f68:	c39fb06f          	j	ba0 <inferenceTPG+0x50>

00004f6c <T18_start>:
    4f6c:	b0002bf3          	csrr	s7,mcycle
    4f70:	00492b03          	lw	s6,4(s2)
    4f74:	008a2783          	lw	a5,8(s4)
    4f78:	016787b3          	add	a5,a5,s6
    4f7c:	06f12623          	sw	a5,108(sp)
    4f80:	0044a783          	lw	a5,4(s1)
    4f84:	00010737          	lui	a4,0x10
    4f88:	18078c63          	beqz	a5,5120 <T18_start+0x1b4>
    4f8c:	40f006b3          	neg	a3,a5
    4f90:	0ad7e6b3          	max	a3,a5,a3
    4f94:	41f6d713          	srai	a4,a3,0x1f
    4f98:	00017637          	lui	a2,0x17
    4f9c:	15460613          	addi	a2,a2,340 # 17154 <heap.cpp.6b15d6f6+0x953>
    4fa0:	02c70733          	mul	a4,a4,a2
    4fa4:	02c68c33          	mul	s8,a3,a2
    4fa8:	02c6b6b3          	mulhu	a3,a3,a2
    4fac:	00d70733          	add	a4,a4,a3
    4fb0:	01071713          	slli	a4,a4,0x10
    4fb4:	010c5c13          	srli	s8,s8,0x10
    4fb8:	01870c33          	add	s8,a4,s8
    4fbc:	00008737          	lui	a4,0x8
    4fc0:	00ec0c33          	add	s8,s8,a4
    4fc4:	ffff0737          	lui	a4,0xffff0
    4fc8:	00ec7c33          	and	s8,s8,a4
    4fcc:	1a07cc63          	bltz	a5,5184 <T18_end+0x54>
    4fd0:	41fc5713          	srai	a4,s8,0x1f
    4fd4:	0000b6b7          	lui	a3,0xb
    4fd8:	17268693          	addi	a3,a3,370 # b172 <__subdf3+0x62e>
    4fdc:	02d70733          	mul	a4,a4,a3
    4fe0:	02dc0633          	mul	a2,s8,a3
    4fe4:	02dc36b3          	mulhu	a3,s8,a3
    4fe8:	00d70733          	add	a4,a4,a3
    4fec:	01071713          	slli	a4,a4,0x10
    4ff0:	01065693          	srli	a3,a2,0x10
    4ff4:	00d706b3          	add	a3,a4,a3
    4ff8:	40d787b3          	sub	a5,a5,a3
    4ffc:	41f7d693          	srai	a3,a5,0x1f
    5000:	02f686b3          	mul	a3,a3,a5
    5004:	02f78733          	mul	a4,a5,a5
    5008:	02f7b633          	mulhu	a2,a5,a5
    500c:	20c6a6b3          	sh1add	a3,a3,a2
    5010:	01069693          	slli	a3,a3,0x10
    5014:	01075713          	srli	a4,a4,0x10
    5018:	00e68733          	add	a4,a3,a4
    501c:	41f75513          	srai	a0,a4,0x1f
    5020:	01e75693          	srli	a3,a4,0x1e
    5024:	20d546b3          	sh2add	a3,a0,a3
    5028:	00271613          	slli	a2,a4,0x2
    502c:	01069693          	slli	a3,a3,0x10
    5030:	01065613          	srli	a2,a2,0x10
    5034:	00c68633          	add	a2,a3,a2
    5038:	f4a60613          	addi	a2,a2,-182
    503c:	41f65593          	srai	a1,a2,0x1f
    5040:	02e585b3          	mul	a1,a1,a4
    5044:	02c506b3          	mul	a3,a0,a2
    5048:	00d585b3          	add	a1,a1,a3
    504c:	02e606b3          	mul	a3,a2,a4
    5050:	02e63633          	mulhu	a2,a2,a4
    5054:	00c58633          	add	a2,a1,a2
    5058:	01061613          	slli	a2,a2,0x10
    505c:	0106d693          	srli	a3,a3,0x10
    5060:	00d606b3          	add	a3,a2,a3
    5064:	00003637          	lui	a2,0x3
    5068:	aab60613          	addi	a2,a2,-1365 # 2aab <T9_start+0x2f>
    506c:	00c686b3          	add	a3,a3,a2
    5070:	41f6d613          	srai	a2,a3,0x1f
    5074:	02e60633          	mul	a2,a2,a4
    5078:	02d50533          	mul	a0,a0,a3
    507c:	00a60633          	add	a2,a2,a0
    5080:	02e685b3          	mul	a1,a3,a4
    5084:	02e6b6b3          	mulhu	a3,a3,a4
    5088:	00d60733          	add	a4,a2,a3
    508c:	01071713          	slli	a4,a4,0x10
    5090:	0105d693          	srli	a3,a1,0x10
    5094:	00d706b3          	add	a3,a4,a3
    5098:	00020737          	lui	a4,0x20
    509c:	00e686b3          	add	a3,a3,a4
    50a0:	40f68633          	sub	a2,a3,a5
    50a4:	02f68c63          	beq	a3,a5,50dc <T18_start+0x170>
    50a8:	00f7d713          	srli	a4,a5,0xf
    50ac:	01179793          	slli	a5,a5,0x11
    50b0:	01071713          	slli	a4,a4,0x10
    50b4:	0107d793          	srli	a5,a5,0x10
    50b8:	00f707b3          	add	a5,a4,a5
    50bc:	41f7d713          	srai	a4,a5,0x1f
    50c0:	0107d593          	srli	a1,a5,0x10
    50c4:	01071713          	slli	a4,a4,0x10
    50c8:	41f65693          	srai	a3,a2,0x1f
    50cc:	01079513          	slli	a0,a5,0x10
    50d0:	00e585b3          	add	a1,a1,a4
    50d4:	260060ef          	jal	b334 <__divdi3>
    50d8:	00050613          	mv	a2,a0
    50dc:	000107b7          	lui	a5,0x10
    50e0:	00f606b3          	add	a3,a2,a5
    50e4:	0a0c4463          	bltz	s8,518c <T18_end+0x5c>
    50e8:	410c5c13          	srai	s8,s8,0x10
    50ec:	000107b7          	lui	a5,0x10
    50f0:	018797b3          	sll	a5,a5,s8
    50f4:	41f7d713          	srai	a4,a5,0x1f
    50f8:	41f6d613          	srai	a2,a3,0x1f
    50fc:	02d70733          	mul	a4,a4,a3
    5100:	02f60633          	mul	a2,a2,a5
    5104:	00c70733          	add	a4,a4,a2
    5108:	02d78633          	mul	a2,a5,a3
    510c:	02d7b7b3          	mulhu	a5,a5,a3
    5110:	00f70733          	add	a4,a4,a5
    5114:	01071713          	slli	a4,a4,0x10
    5118:	01065793          	srli	a5,a2,0x10
    511c:	00f70733          	add	a4,a4,a5
    5120:	06e12823          	sw	a4,112(sp)
    5124:	000aa783          	lw	a5,0(s5)
    5128:	016787b3          	add	a5,a5,s6
    512c:	06f12a23          	sw	a5,116(sp)

00005130 <T18_end>:
    5130:	b00027f3          	csrr	a5,mcycle
    5134:	417787b3          	sub	a5,a5,s7
    5138:	04f9a423          	sw	a5,72(s3)
    513c:	06c12683          	lw	a3,108(sp)
    5140:	07012703          	lw	a4,112(sp)
    5144:	00100793          	li	a5,1
    5148:	00d75663          	bge	a4,a3,5154 <T18_end+0x24>
    514c:	00068713          	mv	a4,a3
    5150:	00000793          	li	a5,0
    5154:	07412683          	lw	a3,116(sp)
    5158:	00e6c463          	blt	a3,a4,5160 <T18_end+0x30>
    515c:	00200793          	li	a5,2
    5160:	00020737          	lui	a4,0x20
    5164:	000206b7          	lui	a3,0x20
    5168:	0ac68693          	addi	a3,a3,172 # 200ac <next.9>
    516c:	20d7c7b3          	sh2add	a5,a5,a3
    5170:	0007a783          	lw	a5,0(a5) # 10000 <fast_intr_ctrl.c.233e5230+0x207>
    5174:	1fc70713          	addi	a4,a4,508 # 201fc <jump_table.28>
    5178:	20e7c7b3          	sh2add	a5,a5,a4
    517c:	0007a783          	lw	a5,0(a5)
    5180:	a21fb06f          	j	ba0 <inferenceTPG+0x50>
    5184:	41800c33          	neg	s8,s8
    5188:	e49ff06f          	j	4fd0 <T18_start+0x64>
    518c:	41800733          	neg	a4,s8
    5190:	41075713          	srai	a4,a4,0x10
    5194:	40e7d7b3          	sra	a5,a5,a4
    5198:	f5dff06f          	j	50f4 <T18_start+0x188>

0000519c <T19_start>:
    519c:	b00026f3          	csrr	a3,mcycle
    51a0:	00092703          	lw	a4,0(s2)
    51a4:	0004a783          	lw	a5,0(s1)
    51a8:	40f707b3          	sub	a5,a4,a5
    51ac:	06f12c23          	sw	a5,120(sp)
    51b0:	0084a783          	lw	a5,8(s1)
    51b4:	0ae7e7b3          	max	a5,a5,a4
    51b8:	06f12e23          	sw	a5,124(sp)
    51bc:	008a2783          	lw	a5,8(s4)
    51c0:	00492703          	lw	a4,4(s2)
    51c4:	00e787b3          	add	a5,a5,a4
    51c8:	08f12023          	sw	a5,128(sp)

000051cc <T19_end>:
    51cc:	b00027f3          	csrr	a5,mcycle
    51d0:	40d787b3          	sub	a5,a5,a3
    51d4:	04f9a623          	sw	a5,76(s3)
    51d8:	07812683          	lw	a3,120(sp)
    51dc:	07c12703          	lw	a4,124(sp)
    51e0:	00100793          	li	a5,1
    51e4:	00d75663          	bge	a4,a3,51f0 <T19_end+0x24>
    51e8:	00068713          	mv	a4,a3
    51ec:	00000793          	li	a5,0
    51f0:	08012683          	lw	a3,128(sp)
    51f4:	00e6c463          	blt	a3,a4,51fc <T19_end+0x30>
    51f8:	00200793          	li	a5,2
    51fc:	00020737          	lui	a4,0x20
    5200:	000206b7          	lui	a3,0x20
    5204:	0a068693          	addi	a3,a3,160 # 200a0 <next.8>
    5208:	20d7c7b3          	sh2add	a5,a5,a3
    520c:	0007a783          	lw	a5,0(a5)
    5210:	1fc70713          	addi	a4,a4,508 # 201fc <jump_table.28>
    5214:	20e7c7b3          	sh2add	a5,a5,a4
    5218:	0007a783          	lw	a5,0(a5)
    521c:	985fb06f          	j	ba0 <inferenceTPG+0x50>

00005220 <T20_start>:
    5220:	b0002bf3          	csrr	s7,mcycle
    5224:	0084ab03          	lw	s6,8(s1)
    5228:	000107b7          	lui	a5,0x10
    522c:	180b0c63          	beqz	s6,53c4 <T20_start+0x1a4>
    5230:	41600733          	neg	a4,s6
    5234:	0aeb6733          	max	a4,s6,a4
    5238:	41f75793          	srai	a5,a4,0x1f
    523c:	000176b7          	lui	a3,0x17
    5240:	15468693          	addi	a3,a3,340 # 17154 <heap.cpp.6b15d6f6+0x953>
    5244:	02d787b3          	mul	a5,a5,a3
    5248:	02d70c33          	mul	s8,a4,a3
    524c:	02d73733          	mulhu	a4,a4,a3
    5250:	00e787b3          	add	a5,a5,a4
    5254:	01079793          	slli	a5,a5,0x10
    5258:	010c5c13          	srli	s8,s8,0x10
    525c:	01878c33          	add	s8,a5,s8
    5260:	000087b7          	lui	a5,0x8
    5264:	00fc0c33          	add	s8,s8,a5
    5268:	ffff07b7          	lui	a5,0xffff0
    526c:	00fc7c33          	and	s8,s8,a5
    5270:	500b4263          	bltz	s6,5774 <T20_end+0x24>
    5274:	41fc5713          	srai	a4,s8,0x1f
    5278:	0000b6b7          	lui	a3,0xb
    527c:	17268693          	addi	a3,a3,370 # b172 <__subdf3+0x62e>
    5280:	02d70733          	mul	a4,a4,a3
    5284:	02dc07b3          	mul	a5,s8,a3
    5288:	02dc36b3          	mulhu	a3,s8,a3
    528c:	00d70733          	add	a4,a4,a3
    5290:	01071713          	slli	a4,a4,0x10
    5294:	0107d793          	srli	a5,a5,0x10
    5298:	00f707b3          	add	a5,a4,a5
    529c:	40fb07b3          	sub	a5,s6,a5
    52a0:	41f7d693          	srai	a3,a5,0x1f
    52a4:	02f686b3          	mul	a3,a3,a5
    52a8:	02f78733          	mul	a4,a5,a5
    52ac:	02f7b633          	mulhu	a2,a5,a5
    52b0:	20c6a6b3          	sh1add	a3,a3,a2
    52b4:	01069693          	slli	a3,a3,0x10
    52b8:	01075713          	srli	a4,a4,0x10
    52bc:	00e68733          	add	a4,a3,a4
    52c0:	41f75513          	srai	a0,a4,0x1f
    52c4:	01e75693          	srli	a3,a4,0x1e
    52c8:	20d546b3          	sh2add	a3,a0,a3
    52cc:	00271613          	slli	a2,a4,0x2
    52d0:	01069693          	slli	a3,a3,0x10
    52d4:	01065613          	srli	a2,a2,0x10
    52d8:	00c68633          	add	a2,a3,a2
    52dc:	f4a60613          	addi	a2,a2,-182
    52e0:	41f65593          	srai	a1,a2,0x1f
    52e4:	02e585b3          	mul	a1,a1,a4
    52e8:	02c506b3          	mul	a3,a0,a2
    52ec:	00d585b3          	add	a1,a1,a3
    52f0:	02e606b3          	mul	a3,a2,a4
    52f4:	02e63633          	mulhu	a2,a2,a4
    52f8:	00c58633          	add	a2,a1,a2
    52fc:	01061613          	slli	a2,a2,0x10
    5300:	0106d693          	srli	a3,a3,0x10
    5304:	00d606b3          	add	a3,a2,a3
    5308:	00003637          	lui	a2,0x3
    530c:	aab60613          	addi	a2,a2,-1365 # 2aab <T9_start+0x2f>
    5310:	00c686b3          	add	a3,a3,a2
    5314:	41f6d613          	srai	a2,a3,0x1f
    5318:	02e60633          	mul	a2,a2,a4
    531c:	02d50533          	mul	a0,a0,a3
    5320:	00a60633          	add	a2,a2,a0
    5324:	02e685b3          	mul	a1,a3,a4
    5328:	02e6b6b3          	mulhu	a3,a3,a4
    532c:	00d60733          	add	a4,a2,a3
    5330:	01071713          	slli	a4,a4,0x10
    5334:	0105d693          	srli	a3,a1,0x10
    5338:	00d706b3          	add	a3,a4,a3
    533c:	00020737          	lui	a4,0x20
    5340:	00e686b3          	add	a3,a3,a4
    5344:	40f68633          	sub	a2,a3,a5
    5348:	02f68c63          	beq	a3,a5,5380 <T20_start+0x160>
    534c:	00f7d713          	srli	a4,a5,0xf
    5350:	01179793          	slli	a5,a5,0x11
    5354:	01071713          	slli	a4,a4,0x10
    5358:	0107d793          	srli	a5,a5,0x10
    535c:	00f707b3          	add	a5,a4,a5
    5360:	41f7d713          	srai	a4,a5,0x1f
    5364:	0107d593          	srli	a1,a5,0x10
    5368:	01071713          	slli	a4,a4,0x10
    536c:	41f65693          	srai	a3,a2,0x1f
    5370:	01079513          	slli	a0,a5,0x10
    5374:	00e585b3          	add	a1,a1,a4
    5378:	7bd050ef          	jal	b334 <__divdi3>
    537c:	00050613          	mv	a2,a0
    5380:	000107b7          	lui	a5,0x10
    5384:	00f606b3          	add	a3,a2,a5
    5388:	3e0c4a63          	bltz	s8,577c <T20_end+0x2c>
    538c:	410c5c13          	srai	s8,s8,0x10
    5390:	00010737          	lui	a4,0x10
    5394:	01871733          	sll	a4,a4,s8
    5398:	41f75793          	srai	a5,a4,0x1f
    539c:	41f6d613          	srai	a2,a3,0x1f
    53a0:	02d787b3          	mul	a5,a5,a3
    53a4:	02e60633          	mul	a2,a2,a4
    53a8:	00c787b3          	add	a5,a5,a2
    53ac:	02d70633          	mul	a2,a4,a3
    53b0:	02d73733          	mulhu	a4,a4,a3
    53b4:	00e787b3          	add	a5,a5,a4
    53b8:	01079793          	slli	a5,a5,0x10
    53bc:	01065713          	srli	a4,a2,0x10
    53c0:	00e787b3          	add	a5,a5,a4
    53c4:	10f12e23          	sw	a5,284(sp)
    53c8:	000aa703          	lw	a4,0(s5)
    53cc:	41f75793          	srai	a5,a4,0x1f
    53d0:	41fb5693          	srai	a3,s6,0x1f
    53d4:	036787b3          	mul	a5,a5,s6
    53d8:	02e686b3          	mul	a3,a3,a4
    53dc:	00d787b3          	add	a5,a5,a3
    53e0:	036706b3          	mul	a3,a4,s6
    53e4:	03673733          	mulhu	a4,a4,s6
    53e8:	00e787b3          	add	a5,a5,a4
    53ec:	01079793          	slli	a5,a5,0x10
    53f0:	0106d713          	srli	a4,a3,0x10
    53f4:	00e78733          	add	a4,a5,a4
    53f8:	12e12023          	sw	a4,288(sp)
    53fc:	00492b03          	lw	s6,4(s2)
    5400:	000107b7          	lui	a5,0x10
    5404:	180b0c63          	beqz	s6,559c <T20_start+0x37c>
    5408:	41600733          	neg	a4,s6
    540c:	0aeb6733          	max	a4,s6,a4
    5410:	41f75793          	srai	a5,a4,0x1f
    5414:	000176b7          	lui	a3,0x17
    5418:	15468693          	addi	a3,a3,340 # 17154 <heap.cpp.6b15d6f6+0x953>
    541c:	02d787b3          	mul	a5,a5,a3
    5420:	02d70c33          	mul	s8,a4,a3
    5424:	02d73733          	mulhu	a4,a4,a3
    5428:	00e787b3          	add	a5,a5,a4
    542c:	01079793          	slli	a5,a5,0x10
    5430:	010c5c13          	srli	s8,s8,0x10
    5434:	01878c33          	add	s8,a5,s8
    5438:	000087b7          	lui	a5,0x8
    543c:	00fc0c33          	add	s8,s8,a5
    5440:	ffff07b7          	lui	a5,0xffff0
    5444:	00fc7c33          	and	s8,s8,a5
    5448:	340b4463          	bltz	s6,5790 <T20_end+0x40>
    544c:	41fc5713          	srai	a4,s8,0x1f
    5450:	0000b6b7          	lui	a3,0xb
    5454:	17268693          	addi	a3,a3,370 # b172 <__subdf3+0x62e>
    5458:	02d70733          	mul	a4,a4,a3
    545c:	02dc07b3          	mul	a5,s8,a3
    5460:	02dc36b3          	mulhu	a3,s8,a3
    5464:	00d70733          	add	a4,a4,a3
    5468:	01071713          	slli	a4,a4,0x10
    546c:	0107d793          	srli	a5,a5,0x10
    5470:	00f707b3          	add	a5,a4,a5
    5474:	40fb07b3          	sub	a5,s6,a5
    5478:	41f7d693          	srai	a3,a5,0x1f
    547c:	02f686b3          	mul	a3,a3,a5
    5480:	02f78733          	mul	a4,a5,a5
    5484:	02f7b633          	mulhu	a2,a5,a5
    5488:	20c6a6b3          	sh1add	a3,a3,a2
    548c:	01069693          	slli	a3,a3,0x10
    5490:	01075713          	srli	a4,a4,0x10
    5494:	00e68733          	add	a4,a3,a4
    5498:	41f75513          	srai	a0,a4,0x1f
    549c:	01e75693          	srli	a3,a4,0x1e
    54a0:	20d546b3          	sh2add	a3,a0,a3
    54a4:	00271613          	slli	a2,a4,0x2
    54a8:	01069693          	slli	a3,a3,0x10
    54ac:	01065613          	srli	a2,a2,0x10
    54b0:	00c68633          	add	a2,a3,a2
    54b4:	f4a60613          	addi	a2,a2,-182
    54b8:	41f65593          	srai	a1,a2,0x1f
    54bc:	02e585b3          	mul	a1,a1,a4
    54c0:	02c506b3          	mul	a3,a0,a2
    54c4:	00d585b3          	add	a1,a1,a3
    54c8:	02e606b3          	mul	a3,a2,a4
    54cc:	02e63633          	mulhu	a2,a2,a4
    54d0:	00c58633          	add	a2,a1,a2
    54d4:	01061613          	slli	a2,a2,0x10
    54d8:	0106d693          	srli	a3,a3,0x10
    54dc:	00d606b3          	add	a3,a2,a3
    54e0:	00003637          	lui	a2,0x3
    54e4:	aab60613          	addi	a2,a2,-1365 # 2aab <T9_start+0x2f>
    54e8:	00c686b3          	add	a3,a3,a2
    54ec:	41f6d613          	srai	a2,a3,0x1f
    54f0:	02e60633          	mul	a2,a2,a4
    54f4:	02d50533          	mul	a0,a0,a3
    54f8:	00a60633          	add	a2,a2,a0
    54fc:	02e685b3          	mul	a1,a3,a4
    5500:	02e6b6b3          	mulhu	a3,a3,a4
    5504:	00d60733          	add	a4,a2,a3
    5508:	01071713          	slli	a4,a4,0x10
    550c:	0105d693          	srli	a3,a1,0x10
    5510:	00d706b3          	add	a3,a4,a3
    5514:	00020737          	lui	a4,0x20
    5518:	00e686b3          	add	a3,a3,a4
    551c:	40f68633          	sub	a2,a3,a5
    5520:	02f68c63          	beq	a3,a5,5558 <T20_start+0x338>
    5524:	00f7d713          	srli	a4,a5,0xf
    5528:	01179793          	slli	a5,a5,0x11
    552c:	01071713          	slli	a4,a4,0x10
    5530:	0107d793          	srli	a5,a5,0x10
    5534:	00f707b3          	add	a5,a4,a5
    5538:	41f7d713          	srai	a4,a5,0x1f
    553c:	0107d593          	srli	a1,a5,0x10
    5540:	01071713          	slli	a4,a4,0x10
    5544:	41f65693          	srai	a3,a2,0x1f
    5548:	01079513          	slli	a0,a5,0x10
    554c:	00e585b3          	add	a1,a1,a4
    5550:	5e5050ef          	jal	b334 <__divdi3>
    5554:	00050613          	mv	a2,a0
    5558:	000107b7          	lui	a5,0x10
    555c:	00f606b3          	add	a3,a2,a5
    5560:	220c4c63          	bltz	s8,5798 <T20_end+0x48>
    5564:	410c5c13          	srai	s8,s8,0x10
    5568:	00010737          	lui	a4,0x10
    556c:	01871733          	sll	a4,a4,s8
    5570:	41f75793          	srai	a5,a4,0x1f
    5574:	41f6d613          	srai	a2,a3,0x1f
    5578:	02d787b3          	mul	a5,a5,a3
    557c:	02e60633          	mul	a2,a2,a4
    5580:	00c787b3          	add	a5,a5,a2
    5584:	02d70633          	mul	a2,a4,a3
    5588:	02d73733          	mulhu	a4,a4,a3
    558c:	00e787b3          	add	a5,a5,a4
    5590:	01079793          	slli	a5,a5,0x10
    5594:	01065713          	srli	a4,a2,0x10
    5598:	00e787b3          	add	a5,a5,a4
    559c:	12f12223          	sw	a5,292(sp)
    55a0:	0044a783          	lw	a5,4(s1)
    55a4:	00010737          	lui	a4,0x10
    55a8:	18078c63          	beqz	a5,5740 <T20_start+0x520>
    55ac:	40f006b3          	neg	a3,a5
    55b0:	0ad7e6b3          	max	a3,a5,a3
    55b4:	41f6d713          	srai	a4,a3,0x1f
    55b8:	00017637          	lui	a2,0x17
    55bc:	15460613          	addi	a2,a2,340 # 17154 <heap.cpp.6b15d6f6+0x953>
    55c0:	02c70733          	mul	a4,a4,a2
    55c4:	02c68c33          	mul	s8,a3,a2
    55c8:	02c6b6b3          	mulhu	a3,a3,a2
    55cc:	00d70733          	add	a4,a4,a3
    55d0:	01071713          	slli	a4,a4,0x10
    55d4:	010c5c13          	srli	s8,s8,0x10
    55d8:	01870c33          	add	s8,a4,s8
    55dc:	00008737          	lui	a4,0x8
    55e0:	00ec0c33          	add	s8,s8,a4
    55e4:	ffff0737          	lui	a4,0xffff0
    55e8:	00ec7c33          	and	s8,s8,a4
    55ec:	1c07c063          	bltz	a5,57ac <T20_end+0x5c>
    55f0:	41fc5713          	srai	a4,s8,0x1f
    55f4:	0000b6b7          	lui	a3,0xb
    55f8:	17268693          	addi	a3,a3,370 # b172 <__subdf3+0x62e>
    55fc:	02d70733          	mul	a4,a4,a3
    5600:	02dc0633          	mul	a2,s8,a3
    5604:	02dc36b3          	mulhu	a3,s8,a3
    5608:	00d70733          	add	a4,a4,a3
    560c:	01071713          	slli	a4,a4,0x10
    5610:	01065693          	srli	a3,a2,0x10
    5614:	00d706b3          	add	a3,a4,a3
    5618:	40d787b3          	sub	a5,a5,a3
    561c:	41f7d693          	srai	a3,a5,0x1f
    5620:	02f686b3          	mul	a3,a3,a5
    5624:	02f78733          	mul	a4,a5,a5
    5628:	02f7b633          	mulhu	a2,a5,a5
    562c:	20c6a6b3          	sh1add	a3,a3,a2
    5630:	01069693          	slli	a3,a3,0x10
    5634:	01075713          	srli	a4,a4,0x10
    5638:	00e68733          	add	a4,a3,a4
    563c:	41f75513          	srai	a0,a4,0x1f
    5640:	01e75693          	srli	a3,a4,0x1e
    5644:	20d546b3          	sh2add	a3,a0,a3
    5648:	00271613          	slli	a2,a4,0x2
    564c:	01069693          	slli	a3,a3,0x10
    5650:	01065613          	srli	a2,a2,0x10
    5654:	00c68633          	add	a2,a3,a2
    5658:	f4a60613          	addi	a2,a2,-182
    565c:	41f65593          	srai	a1,a2,0x1f
    5660:	02e585b3          	mul	a1,a1,a4
    5664:	02c506b3          	mul	a3,a0,a2
    5668:	00d585b3          	add	a1,a1,a3
    566c:	02e606b3          	mul	a3,a2,a4
    5670:	02e63633          	mulhu	a2,a2,a4
    5674:	00c58633          	add	a2,a1,a2
    5678:	01061613          	slli	a2,a2,0x10
    567c:	0106d693          	srli	a3,a3,0x10
    5680:	00d606b3          	add	a3,a2,a3
    5684:	00003637          	lui	a2,0x3
    5688:	aab60613          	addi	a2,a2,-1365 # 2aab <T9_start+0x2f>
    568c:	00c686b3          	add	a3,a3,a2
    5690:	41f6d613          	srai	a2,a3,0x1f
    5694:	02e60633          	mul	a2,a2,a4
    5698:	02d50533          	mul	a0,a0,a3
    569c:	00a60633          	add	a2,a2,a0
    56a0:	02e685b3          	mul	a1,a3,a4
    56a4:	02e6b6b3          	mulhu	a3,a3,a4
    56a8:	00d60733          	add	a4,a2,a3
    56ac:	01071713          	slli	a4,a4,0x10
    56b0:	0105d693          	srli	a3,a1,0x10
    56b4:	00d706b3          	add	a3,a4,a3
    56b8:	00020737          	lui	a4,0x20
    56bc:	00e686b3          	add	a3,a3,a4
    56c0:	40f68633          	sub	a2,a3,a5
    56c4:	02f68c63          	beq	a3,a5,56fc <T20_start+0x4dc>
    56c8:	00f7d713          	srli	a4,a5,0xf
    56cc:	01179793          	slli	a5,a5,0x11
    56d0:	01071713          	slli	a4,a4,0x10
    56d4:	0107d793          	srli	a5,a5,0x10
    56d8:	00f707b3          	add	a5,a4,a5
    56dc:	41f7d713          	srai	a4,a5,0x1f
    56e0:	0107d593          	srli	a1,a5,0x10
    56e4:	01071713          	slli	a4,a4,0x10
    56e8:	41f65693          	srai	a3,a2,0x1f
    56ec:	01079513          	slli	a0,a5,0x10
    56f0:	00e585b3          	add	a1,a1,a4
    56f4:	441050ef          	jal	b334 <__divdi3>
    56f8:	00050613          	mv	a2,a0
    56fc:	000107b7          	lui	a5,0x10
    5700:	00f606b3          	add	a3,a2,a5
    5704:	0a0c4863          	bltz	s8,57b4 <T20_end+0x64>
    5708:	410c5c13          	srai	s8,s8,0x10
    570c:	000107b7          	lui	a5,0x10
    5710:	018797b3          	sll	a5,a5,s8
    5714:	41f7d713          	srai	a4,a5,0x1f
    5718:	41f6d613          	srai	a2,a3,0x1f
    571c:	02d70733          	mul	a4,a4,a3
    5720:	02f60633          	mul	a2,a2,a5
    5724:	00c70733          	add	a4,a4,a2
    5728:	02d78633          	mul	a2,a5,a3
    572c:	02d7b7b3          	mulhu	a5,a5,a3
    5730:	00f70733          	add	a4,a4,a5
    5734:	01071713          	slli	a4,a4,0x10
    5738:	01065793          	srli	a5,a2,0x10
    573c:	00f70733          	add	a4,a4,a5
    5740:	12e12423          	sw	a4,296(sp)
    5744:	008a2783          	lw	a5,8(s4)
    5748:	016787b3          	add	a5,a5,s6
    574c:	12f12623          	sw	a5,300(sp)

00005750 <T20_end>:
    5750:	b00027f3          	csrr	a5,mcycle
    5754:	417787b3          	sub	a5,a5,s7
    5758:	04f9a823          	sw	a5,80(s3)
    575c:	11c12603          	lw	a2,284(sp)
    5760:	11c10713          	addi	a4,sp,284
    5764:	00000513          	li	a0,0
    5768:	00100793          	li	a5,1
    576c:	00500593          	li	a1,5
