
sw/build/main.elf:     file format elf32-littleriscv


Disassembly of section .vectors:

00000000 <__vector_start>:
   0:	2b40706f          	j	72b4 <handler_exception>
   4:	22c0006f          	j	230 <__no_irq_handler>
   8:	2280006f          	j	230 <__no_irq_handler>
   c:	36c0706f          	j	7378 <handler_irq_software>
  10:	2200006f          	j	230 <__no_irq_handler>
  14:	21c0006f          	j	230 <__no_irq_handler>
  18:	2180006f          	j	230 <__no_irq_handler>
  1c:	3b00706f          	j	73cc <handler_irq_timer>
  20:	2100006f          	j	230 <__no_irq_handler>
  24:	20c0006f          	j	230 <__no_irq_handler>
  28:	2080006f          	j	230 <__no_irq_handler>
  2c:	1d40706f          	j	7200 <handler_irq_external>
  30:	2000006f          	j	230 <__no_irq_handler>
  34:	1fc0006f          	j	230 <__no_irq_handler>
  38:	1f80006f          	j	230 <__no_irq_handler>
  3c:	1f40006f          	j	230 <__no_irq_handler>
  40:	1350606f          	j	6974 <handler_irq_fast_timer_1>
  44:	1cd0606f          	j	6a10 <handler_irq_fast_timer_2>
  48:	2650606f          	j	6aac <handler_irq_fast_timer_3>
  4c:	2fd0606f          	j	6b48 <handler_irq_fast_dma_done>
  50:	6b00706f          	j	7700 <handler_irq_fast_spi>
  54:	5500706f          	j	75a4 <handler_irq_fast_spi_flash>
  58:	4c50606f          	j	6d1c <handler_irq_fast_gpio_0>
  5c:	55d0606f          	j	6db8 <handler_irq_fast_gpio_1>
  60:	5f50606f          	j	6e54 <handler_irq_fast_gpio_2>
  64:	68d0606f          	j	6ef0 <handler_irq_fast_gpio_3>
  68:	7250606f          	j	6f8c <handler_irq_fast_gpio_4>
  6c:	7bd0606f          	j	7028 <handler_irq_fast_gpio_5>
  70:	0580706f          	j	70c8 <handler_irq_fast_gpio_6>
  74:	0f00706f          	j	7164 <handler_irq_fast_gpio_7>
  78:	36d0606f          	j	6be4 <handler_irq_fast_dma_window>
  7c:	4050606f          	j	6c80 <handler_irq_fast_external_peripheral>

Disassembly of section .init:

00000180 <_start>:
 180:	00022197          	auipc	gp,0x22
 184:	28418193          	addi	gp,gp,644 # 22404 <__global_pointer$>
 188:	0002a117          	auipc	sp,0x2a
 18c:	e2810113          	addi	sp,sp,-472 # 29fb0 <_sp>
 190:	20000537          	lui	a0,0x20000
 194:	05f5e637          	lui	a2,0x5f5e
 198:	10060613          	addi	a2,a2,256 # 5f5e100 <_sp+0x5f34150>
 19c:	00c52e23          	sw	a2,28(a0) # 2000001c <_sp+0x1ffd606c>

000001a0 <_init_bss>:
 1a0:	00022517          	auipc	a0,0x22
 1a4:	bb850513          	addi	a0,a0,-1096 # 21d58 <__stdio_exit_handler>
 1a8:	00022617          	auipc	a2,0x22
 1ac:	e0460613          	addi	a2,a2,-508 # 21fac <__BSS_END__>
 1b0:	40a60633          	sub	a2,a2,a0
 1b4:	00000593          	li	a1,0
 1b8:	319070ef          	jal	7cd0 <memset>
 1bc:	00000517          	auipc	a0,0x0
 1c0:	e4450513          	addi	a0,a0,-444 # 0 <__vector_start>
 1c4:	00156513          	ori	a0,a0,1
 1c8:	30551073          	csrw	mtvec,a0
 1cc:	00008517          	auipc	a0,0x8
 1d0:	aac50513          	addi	a0,a0,-1364 # 7c78 <__libc_fini_array>
 1d4:	5c8070ef          	jal	779c <atexit>
 1d8:	20d070ef          	jal	7be4 <__libc_init_array>
 1dc:	00012503          	lw	a0,0(sp)
 1e0:	00410593          	addi	a1,sp,4
 1e4:	00000613          	li	a2,0
 1e8:	1090c0ef          	jal	caf0 <main>
 1ec:	00c0006f          	j	1f8 <exit>

000001f0 <_init>:
 1f0:	230070ef          	jal	7420 <init>

000001f4 <_fini>:
 1f4:	00008067          	ret

Disassembly of section .text:

000001f8 <exit>:
     1f8:	ff010113          	addi	sp,sp,-16
     1fc:	000087b7          	lui	a5,0x8
     200:	00812423          	sw	s0,8(sp)
     204:	00112623          	sw	ra,12(sp)
     208:	d8078793          	addi	a5,a5,-640 # 7d80 <__call_exitprocs>
     20c:	00050413          	mv	s0,a0
     210:	00078663          	beqz	a5,21c <exit+0x24>
     214:	00000593          	li	a1,0
     218:	369070ef          	jal	7d80 <__call_exitprocs>
     21c:	9541a783          	lw	a5,-1708(gp) # 21d58 <__stdio_exit_handler>
     220:	00078463          	beqz	a5,228 <exit+0x30>
     224:	000780e7          	jalr	a5
     228:	00040513          	mv	a0,s0
     22c:	204070ef          	jal	7430 <_exit>

00000230 <__no_irq_handler>:
     230:	0000006f          	j	230 <__no_irq_handler>

00000234 <fic_irq_dma_window>:
     234:	fe010113          	addi	sp,sp,-32
     238:	00112e23          	sw	ra,28(sp)
     23c:	00812c23          	sw	s0,24(sp)
     240:	02010413          	addi	s0,sp,32
     244:	fe042623          	sw	zero,-20(s0)
     248:	04c0006f          	j	294 <fic_irq_dma_window+0x60>
     24c:	97818693          	addi	a3,gp,-1672 # 21d7c <dma_subsys_per>
     250:	fec42703          	lw	a4,-20(s0)
     254:	00070793          	mv	a5,a4
     258:	00179793          	slli	a5,a5,0x1
     25c:	00e787b3          	add	a5,a5,a4
     260:	00279793          	slli	a5,a5,0x2
     264:	00f687b3          	add	a5,a3,a5
     268:	0087a783          	lw	a5,8(a5)
     26c:	0687a703          	lw	a4,104(a5)
     270:	00100793          	li	a5,1
     274:	00f71a63          	bne	a4,a5,288 <fic_irq_dma_window+0x54>
     278:	fec42783          	lw	a5,-20(s0)
     27c:	0ff7f793          	zext.b	a5,a5
     280:	00078513          	mv	a0,a5
     284:	100000ef          	jal	384 <dma_intr_handler_window_done>
     288:	fec42783          	lw	a5,-20(s0)
     28c:	00178793          	addi	a5,a5,1
     290:	fef42623          	sw	a5,-20(s0)
     294:	fec42703          	lw	a4,-20(s0)
     298:	00300793          	li	a5,3
     29c:	fae7d8e3          	bge	a5,a4,24c <fic_irq_dma_window+0x18>
     2a0:	00000013          	nop
     2a4:	01c12083          	lw	ra,28(sp)
     2a8:	01812403          	lw	s0,24(sp)
     2ac:	02010113          	addi	sp,sp,32
     2b0:	00008067          	ret

000002b4 <fic_irq_dma_done>:
     2b4:	fe010113          	addi	sp,sp,-32
     2b8:	00112e23          	sw	ra,28(sp)
     2bc:	00812c23          	sw	s0,24(sp)
     2c0:	02010413          	addi	s0,sp,32
     2c4:	fe042623          	sw	zero,-20(s0)
     2c8:	0700006f          	j	338 <fic_irq_dma_done+0x84>
     2cc:	97818693          	addi	a3,gp,-1672 # 21d7c <dma_subsys_per>
     2d0:	fec42703          	lw	a4,-20(s0)
     2d4:	00070793          	mv	a5,a4
     2d8:	00179793          	slli	a5,a5,0x1
     2dc:	00e787b3          	add	a5,a5,a4
     2e0:	00279793          	slli	a5,a5,0x2
     2e4:	00f687b3          	add	a5,a3,a5
     2e8:	0087a783          	lw	a5,8(a5)
     2ec:	0647a703          	lw	a4,100(a5)
     2f0:	00100793          	li	a5,1
     2f4:	02f71c63          	bne	a4,a5,32c <fic_irq_dma_done+0x78>
     2f8:	97818693          	addi	a3,gp,-1672 # 21d7c <dma_subsys_per>
     2fc:	fec42703          	lw	a4,-20(s0)
     300:	00070793          	mv	a5,a4
     304:	00179793          	slli	a5,a5,0x1
     308:	00e787b3          	add	a5,a5,a4
     30c:	00279793          	slli	a5,a5,0x2
     310:	00f687b3          	add	a5,a3,a5
     314:	00100713          	li	a4,1
     318:	00e78223          	sb	a4,4(a5)
     31c:	fec42783          	lw	a5,-20(s0)
     320:	0ff7f793          	zext.b	a5,a5
     324:	00078513          	mv	a0,a5
     328:	030000ef          	jal	358 <dma_intr_handler_trans_done>
     32c:	fec42783          	lw	a5,-20(s0)
     330:	00178793          	addi	a5,a5,1
     334:	fef42623          	sw	a5,-20(s0)
     338:	fec42703          	lw	a4,-20(s0)
     33c:	00300793          	li	a5,3
     340:	f8e7d6e3          	bge	a5,a4,2cc <fic_irq_dma_done+0x18>
     344:	00000013          	nop
     348:	01c12083          	lw	ra,28(sp)
     34c:	01812403          	lw	s0,24(sp)
     350:	02010113          	addi	sp,sp,32
     354:	00008067          	ret

00000358 <dma_intr_handler_trans_done>:
     358:	fe010113          	addi	sp,sp,-32
     35c:	00112e23          	sw	ra,28(sp)
     360:	00812c23          	sw	s0,24(sp)
     364:	02010413          	addi	s0,sp,32
     368:	00050793          	mv	a5,a0
     36c:	fef407a3          	sb	a5,-17(s0)
     370:	00000013          	nop
     374:	01c12083          	lw	ra,28(sp)
     378:	01812403          	lw	s0,24(sp)
     37c:	02010113          	addi	sp,sp,32
     380:	00008067          	ret

00000384 <dma_intr_handler_window_done>:
     384:	fe010113          	addi	sp,sp,-32
     388:	00112e23          	sw	ra,28(sp)
     38c:	00812c23          	sw	s0,24(sp)
     390:	02010413          	addi	s0,sp,32
     394:	00050793          	mv	a5,a0
     398:	fef407a3          	sb	a5,-17(s0)
     39c:	00000013          	nop
     3a0:	01c12083          	lw	ra,28(sp)
     3a4:	01812403          	lw	s0,24(sp)
     3a8:	02010113          	addi	sp,sp,32
     3ac:	00008067          	ret

000003b0 <fic_irq_timer_1>:
     3b0:	ff010113          	addi	sp,sp,-16
     3b4:	00112623          	sw	ra,12(sp)
     3b8:	00812423          	sw	s0,8(sp)
     3bc:	01010413          	addi	s0,sp,16
     3c0:	00000013          	nop
     3c4:	00c12083          	lw	ra,12(sp)
     3c8:	00812403          	lw	s0,8(sp)
     3cc:	01010113          	addi	sp,sp,16
     3d0:	00008067          	ret

000003d4 <fic_irq_timer_2>:
     3d4:	ff010113          	addi	sp,sp,-16
     3d8:	00112623          	sw	ra,12(sp)
     3dc:	00812423          	sw	s0,8(sp)
     3e0:	01010413          	addi	s0,sp,16
     3e4:	00000013          	nop
     3e8:	00c12083          	lw	ra,12(sp)
     3ec:	00812403          	lw	s0,8(sp)
     3f0:	01010113          	addi	sp,sp,16
     3f4:	00008067          	ret

000003f8 <fic_irq_timer_3>:
     3f8:	ff010113          	addi	sp,sp,-16
     3fc:	00112623          	sw	ra,12(sp)
     400:	00812423          	sw	s0,8(sp)
     404:	01010413          	addi	s0,sp,16
     408:	00000013          	nop
     40c:	00c12083          	lw	ra,12(sp)
     410:	00812403          	lw	s0,8(sp)
     414:	01010113          	addi	sp,sp,16
     418:	00008067          	ret

0000041c <fic_irq_ext_peripheral>:
     41c:	ff010113          	addi	sp,sp,-16
     420:	00112623          	sw	ra,12(sp)
     424:	00812423          	sw	s0,8(sp)
     428:	01010413          	addi	s0,sp,16
     42c:	00000013          	nop
     430:	00c12083          	lw	ra,12(sp)
     434:	00812403          	lw	s0,8(sp)
     438:	01010113          	addi	sp,sp,16
     43c:	00008067          	ret

00000440 <fic_irq_gpio_0>:
     440:	ff010113          	addi	sp,sp,-16
     444:	00112623          	sw	ra,12(sp)
     448:	00812423          	sw	s0,8(sp)
     44c:	01010413          	addi	s0,sp,16
     450:	00000013          	nop
     454:	00c12083          	lw	ra,12(sp)
     458:	00812403          	lw	s0,8(sp)
     45c:	01010113          	addi	sp,sp,16
     460:	00008067          	ret

00000464 <fic_irq_gpio_1>:
     464:	ff010113          	addi	sp,sp,-16
     468:	00112623          	sw	ra,12(sp)
     46c:	00812423          	sw	s0,8(sp)
     470:	01010413          	addi	s0,sp,16
     474:	00000013          	nop
     478:	00c12083          	lw	ra,12(sp)
     47c:	00812403          	lw	s0,8(sp)
     480:	01010113          	addi	sp,sp,16
     484:	00008067          	ret

00000488 <fic_irq_gpio_2>:
     488:	ff010113          	addi	sp,sp,-16
     48c:	00112623          	sw	ra,12(sp)
     490:	00812423          	sw	s0,8(sp)
     494:	01010413          	addi	s0,sp,16
     498:	00000013          	nop
     49c:	00c12083          	lw	ra,12(sp)
     4a0:	00812403          	lw	s0,8(sp)
     4a4:	01010113          	addi	sp,sp,16
     4a8:	00008067          	ret

000004ac <fic_irq_gpio_3>:
     4ac:	ff010113          	addi	sp,sp,-16
     4b0:	00112623          	sw	ra,12(sp)
     4b4:	00812423          	sw	s0,8(sp)
     4b8:	01010413          	addi	s0,sp,16
     4bc:	00000013          	nop
     4c0:	00c12083          	lw	ra,12(sp)
     4c4:	00812403          	lw	s0,8(sp)
     4c8:	01010113          	addi	sp,sp,16
     4cc:	00008067          	ret

000004d0 <fic_irq_gpio_4>:
     4d0:	ff010113          	addi	sp,sp,-16
     4d4:	00112623          	sw	ra,12(sp)
     4d8:	00812423          	sw	s0,8(sp)
     4dc:	01010413          	addi	s0,sp,16
     4e0:	00000013          	nop
     4e4:	00c12083          	lw	ra,12(sp)
     4e8:	00812403          	lw	s0,8(sp)
     4ec:	01010113          	addi	sp,sp,16
     4f0:	00008067          	ret

000004f4 <fic_irq_gpio_5>:
     4f4:	ff010113          	addi	sp,sp,-16
     4f8:	00112623          	sw	ra,12(sp)
     4fc:	00812423          	sw	s0,8(sp)
     500:	01010413          	addi	s0,sp,16
     504:	00000013          	nop
     508:	00c12083          	lw	ra,12(sp)
     50c:	00812403          	lw	s0,8(sp)
     510:	01010113          	addi	sp,sp,16
     514:	00008067          	ret

00000518 <fic_irq_gpio_6>:
     518:	ff010113          	addi	sp,sp,-16
     51c:	00112623          	sw	ra,12(sp)
     520:	00812423          	sw	s0,8(sp)
     524:	01010413          	addi	s0,sp,16
     528:	00000013          	nop
     52c:	00c12083          	lw	ra,12(sp)
     530:	00812403          	lw	s0,8(sp)
     534:	01010113          	addi	sp,sp,16
     538:	00008067          	ret

0000053c <fic_irq_gpio_7>:
     53c:	ff010113          	addi	sp,sp,-16
     540:	00112623          	sw	ra,12(sp)
     544:	00812423          	sw	s0,8(sp)
     548:	01010413          	addi	s0,sp,16
     54c:	00000013          	nop
     550:	00c12083          	lw	ra,12(sp)
     554:	00812403          	lw	s0,8(sp)
     558:	01010113          	addi	sp,sp,16
     55c:	00008067          	ret

00000560 <spi_get_events>:
     560:	ff010113          	addi	sp,sp,-16
     564:	01452783          	lw	a5,20(a0)
     568:	00f12623          	sw	a5,12(sp)
     56c:	00c12683          	lw	a3,12(sp)
     570:	0196d693          	srli	a3,a3,0x19
     574:	0016f693          	andi	a3,a3,1
     578:	0005a783          	lw	a5,0(a1)
     57c:	00c12703          	lw	a4,12(sp)
     580:	01b75713          	srli	a4,a4,0x1b
     584:	ffc7f793          	andi	a5,a5,-4
     588:	00d7e7b3          	or	a5,a5,a3
     58c:	00c12683          	lw	a3,12(sp)
     590:	0126d693          	srli	a3,a3,0x12
     594:	00277713          	andi	a4,a4,2
     598:	00f76733          	or	a4,a4,a5
     59c:	00c12783          	lw	a5,12(sp)
     5a0:	0177d793          	srli	a5,a5,0x17
     5a4:	0046f693          	andi	a3,a3,4
     5a8:	ff377713          	andi	a4,a4,-13
     5ac:	00d76733          	or	a4,a4,a3
     5b0:	00c12683          	lw	a3,12(sp)
     5b4:	01f6d693          	srli	a3,a3,0x1f
     5b8:	0087f793          	andi	a5,a5,8
     5bc:	00e7e7b3          	or	a5,a5,a4
     5c0:	00c12703          	lw	a4,12(sp)
     5c4:	01975713          	srli	a4,a4,0x19
     5c8:	00469693          	slli	a3,a3,0x4
     5cc:	fcf7f793          	andi	a5,a5,-49
     5d0:	00d7e7b3          	or	a5,a5,a3
     5d4:	02077713          	andi	a4,a4,32
     5d8:	02074713          	xori	a4,a4,32
     5dc:	00f767b3          	or	a5,a4,a5
     5e0:	00f5a023          	sw	a5,0(a1)
     5e4:	00000513          	li	a0,0
     5e8:	01010113          	addi	sp,sp,16
     5ec:	00008067          	ret

000005f0 <_write>:
     5f0:	00100793          	li	a5,1
     5f4:	08f51063          	bne	a0,a5,674 <_write+0x84>
     5f8:	200007b7          	lui	a5,0x20000
     5fc:	01c7a783          	lw	a5,28(a5) # 2000001c <_sp+0x1ffd606c>
     600:	08078263          	beqz	a5,684 <_write+0x94>
     604:	300807b7          	lui	a5,0x30080
     608:	0007a623          	sw	zero,12(a5) # 3008000c <_sp+0x3005605c>
     60c:	00300713          	li	a4,3
     610:	00e7ae23          	sw	a4,28(a5)
     614:	0207a223          	sw	zero,36(a5)
     618:	0207a623          	sw	zero,44(a5)
     61c:	0007a223          	sw	zero,4(a5)
     620:	fff00713          	li	a4,-1
     624:	00e7a023          	sw	a4,0(a5)
     628:	0a7c0737          	lui	a4,0xa7c0
     62c:	00370713          	addi	a4,a4,3 # a7c0003 <_sp+0xa796053>
     630:	00e7a623          	sw	a4,12(a5)
     634:	0007a223          	sw	zero,4(a5)
     638:	02060a63          	beqz	a2,66c <_write+0x7c>
     63c:	00c58833          	add	a6,a1,a2
     640:	00078713          	mv	a4,a5
     644:	0005c683          	lbu	a3,0(a1)
     648:	01072783          	lw	a5,16(a4)
     64c:	0017f793          	andi	a5,a5,1
     650:	fe079ce3          	bnez	a5,648 <_write+0x58>
     654:	00d72c23          	sw	a3,24(a4)
     658:	01072783          	lw	a5,16(a4)
     65c:	0087f793          	andi	a5,a5,8
     660:	fe078ce3          	beqz	a5,658 <_write+0x68>
     664:	00158593          	addi	a1,a1,1
     668:	fd059ee3          	bne	a1,a6,644 <_write+0x54>
     66c:	00060513          	mv	a0,a2
     670:	00008067          	ret
     674:	05800713          	li	a4,88
     678:	94e1ac23          	sw	a4,-1704(gp) # 21d5c <errno>
     67c:	fff00613          	li	a2,-1
     680:	fedff06f          	j	66c <_write+0x7c>
     684:	05800713          	li	a4,88
     688:	94e1ac23          	sw	a4,-1704(gp) # 21d5c <errno>
     68c:	ff1ff06f          	j	67c <_write+0x8c>

00000690 <spi_empty_rx>:
     690:	02452783          	lw	a5,36(a0)
     694:	00078863          	beqz	a5,6a4 <spi_empty_rx+0x14>
     698:	03452783          	lw	a5,52(a0)
     69c:	02852703          	lw	a4,40(a0)
     6a0:	02e7e863          	bltu	a5,a4,6d0 <spi_empty_rx+0x40>
     6a4:	00000513          	li	a0,0
     6a8:	00008067          	ret
     6ac:	0286a703          	lw	a4,40(a3)
     6b0:	02452683          	lw	a3,36(a0)
     6b4:	20d7c7b3          	sh2add	a5,a5,a3
     6b8:	00e7a023          	sw	a4,0(a5)
     6bc:	03452783          	lw	a5,52(a0)
     6c0:	00178793          	addi	a5,a5,1
     6c4:	02f52a23          	sw	a5,52(a0)
     6c8:	02852703          	lw	a4,40(a0)
     6cc:	00e7fe63          	bgeu	a5,a4,6e8 <spi_empty_rx+0x58>
     6d0:	00052683          	lw	a3,0(a0)
     6d4:	00068a63          	beqz	a3,6e8 <spi_empty_rx+0x58>
     6d8:	0146a703          	lw	a4,20(a3)
     6dc:	00875713          	srli	a4,a4,0x8
     6e0:	0ff77713          	zext.b	a4,a4
     6e4:	fc0714e3          	bnez	a4,6ac <spi_empty_rx+0x1c>
     6e8:	00100513          	li	a0,1
     6ec:	00008067          	ret

000006f0 <spi_event_handler>:
     6f0:	ff010113          	addi	sp,sp,-16
     6f4:	00112623          	sw	ra,12(sp)
     6f8:	00912423          	sw	s1,8(sp)
     6fc:	01212223          	sw	s2,4(sp)
     700:	00050493          	mv	s1,a0
     704:	00058913          	mv	s2,a1
     708:	0105f793          	andi	a5,a1,16
     70c:	02078063          	beqz	a5,72c <spi_event_handler+0x3c>
     710:	01452703          	lw	a4,20(a0)
     714:	00070863          	beqz	a4,724 <spi_event_handler+0x34>
     718:	02c52683          	lw	a3,44(a0)
     71c:	01854783          	lbu	a5,24(a0)
     720:	02f6e863          	bltu	a3,a5,750 <spi_event_handler+0x60>
     724:	02097793          	andi	a5,s2,32
     728:	0a079e63          	bnez	a5,7e4 <spi_event_handler+0xf4>
     72c:	00897793          	andi	a5,s2,8
     730:	14079063          	bnez	a5,870 <spi_event_handler+0x180>
     734:	00497913          	andi	s2,s2,4
     738:	1a091663          	bnez	s2,8e4 <spi_event_handler+0x1f4>
     73c:	00c12083          	lw	ra,12(sp)
     740:	00812483          	lw	s1,8(sp)
     744:	00412903          	lw	s2,4(sp)
     748:	01010113          	addi	sp,sp,16
     74c:	00008067          	ret
     750:	20e6c733          	sh2add	a4,a3,a4
     754:	00072703          	lw	a4,0(a4)
     758:	00871613          	slli	a2,a4,0x8
     75c:	00865593          	srli	a1,a2,0x8
     760:	01875713          	srli	a4,a4,0x18
     764:	00f77613          	andi	a2,a4,15
     768:	00168693          	addi	a3,a3,1
     76c:	02d52623          	sw	a3,44(a0)
     770:	00052503          	lw	a0,0(a0)
     774:	fa050ce3          	beqz	a0,72c <spi_event_handler+0x3c>
     778:	00265713          	srli	a4,a2,0x2
     77c:	01971713          	slli	a4,a4,0x19
     780:	00367613          	andi	a2,a2,3
     784:	01b61613          	slli	a2,a2,0x1b
     788:	00c76733          	or	a4,a4,a2
     78c:	40d787b3          	sub	a5,a5,a3
     790:	00f037b3          	snez	a5,a5
     794:	01879793          	slli	a5,a5,0x18
     798:	00f767b3          	or	a5,a4,a5
     79c:	fff58613          	addi	a2,a1,-1
     7a0:	00861613          	slli	a2,a2,0x8
     7a4:	00865613          	srli	a2,a2,0x8
     7a8:	00c7e633          	or	a2,a5,a2
     7ac:	0197d793          	srli	a5,a5,0x19
     7b0:	0037f793          	andi	a5,a5,3
     7b4:	00200713          	li	a4,2
     7b8:	14f76c63          	bltu	a4,a5,910 <spi_event_handler+0x220>
     7bc:	01452703          	lw	a4,20(a0)
     7c0:	f60756e3          	bgez	a4,72c <spi_event_handler+0x3c>
     7c4:	01b65713          	srli	a4,a2,0x1b
     7c8:	ffd70713          	addi	a4,a4,-3
     7cc:	00173713          	seqz	a4,a4
     7d0:	00f037b3          	snez	a5,a5
     7d4:	00f777b3          	and	a5,a4,a5
     7d8:	f4079ae3          	bnez	a5,72c <spi_event_handler+0x3c>
     7dc:	02c52223          	sw	a2,36(a0)
     7e0:	f4dff06f          	j	72c <spi_event_handler+0x3c>
     7e4:	0004a783          	lw	a5,0(s1)
     7e8:	02078263          	beqz	a5,80c <spi_event_handler+0x11c>
     7ec:	0387a703          	lw	a4,56(a5)
     7f0:	fc077713          	andi	a4,a4,-64
     7f4:	02e7ac23          	sw	a4,56(a5)
     7f8:	0004a783          	lw	a5,0(s1)
     7fc:	00078863          	beqz	a5,80c <spi_event_handler+0x11c>
     800:	0047a703          	lw	a4,4(a5)
     804:	ffd77713          	andi	a4,a4,-3
     808:	00e7a223          	sw	a4,4(a5)
     80c:	00048513          	mv	a0,s1
     810:	e81ff0ef          	jal	690 <spi_empty_rx>
     814:	00400793          	li	a5,4
     818:	00f4a823          	sw	a5,16(s1)
     81c:	0384a783          	lw	a5,56(s1)
     820:	00078c63          	beqz	a5,838 <spi_event_handler+0x148>
     824:	0344a683          	lw	a3,52(s1)
     828:	0244a603          	lw	a2,36(s1)
     82c:	0304a583          	lw	a1,48(s1)
     830:	01c4a503          	lw	a0,28(s1)
     834:	000780e7          	jalr	a5
     838:	0204a623          	sw	zero,44(s1)
     83c:	0204a823          	sw	zero,48(s1)
     840:	0204aa23          	sw	zero,52(s1)
     844:	0004aa23          	sw	zero,20(s1)
     848:	0004ac23          	sw	zero,24(s1)
     84c:	0004ae23          	sw	zero,28(s1)
     850:	0204a023          	sw	zero,32(s1)
     854:	0204a223          	sw	zero,36(s1)
     858:	0204a423          	sw	zero,40(s1)
     85c:	0204ac23          	sw	zero,56(s1)
     860:	0204ae23          	sw	zero,60(s1)
     864:	0404a023          	sw	zero,64(s1)
     868:	0404a223          	sw	zero,68(s1)
     86c:	ed1ff06f          	j	73c <spi_event_handler+0x4c>
     870:	01c4a783          	lw	a5,28(s1)
     874:	ec0780e3          	beqz	a5,734 <spi_event_handler+0x44>
     878:	0304a783          	lw	a5,48(s1)
     87c:	0204a703          	lw	a4,32(s1)
     880:	eae7fae3          	bgeu	a5,a4,734 <spi_event_handler+0x44>
     884:	04700613          	li	a2,71
     888:	0280006f          	j	8b0 <spi_event_handler+0x1c0>
     88c:	01c4a683          	lw	a3,28(s1)
     890:	20d7c7b3          	sh2add	a5,a5,a3
     894:	0007a783          	lw	a5,0(a5)
     898:	02f72623          	sw	a5,44(a4)
     89c:	0304a783          	lw	a5,48(s1)
     8a0:	00178793          	addi	a5,a5,1
     8a4:	02f4a823          	sw	a5,48(s1)
     8a8:	0204a703          	lw	a4,32(s1)
     8ac:	00e7fc63          	bgeu	a5,a4,8c4 <spi_event_handler+0x1d4>
     8b0:	0004a703          	lw	a4,0(s1)
     8b4:	00070863          	beqz	a4,8c4 <spi_event_handler+0x1d4>
     8b8:	01472683          	lw	a3,20(a4)
     8bc:	0ff6f693          	zext.b	a3,a3
     8c0:	fcd676e3          	bgeu	a2,a3,88c <spi_event_handler+0x19c>
     8c4:	03c4a783          	lw	a5,60(s1)
     8c8:	e60786e3          	beqz	a5,734 <spi_event_handler+0x44>
     8cc:	0344a683          	lw	a3,52(s1)
     8d0:	0244a603          	lw	a2,36(s1)
     8d4:	0304a583          	lw	a1,48(s1)
     8d8:	01c4a503          	lw	a0,28(s1)
     8dc:	000780e7          	jalr	a5
     8e0:	e55ff06f          	j	734 <spi_event_handler+0x44>
     8e4:	00048513          	mv	a0,s1
     8e8:	da9ff0ef          	jal	690 <spi_empty_rx>
     8ec:	e40508e3          	beqz	a0,73c <spi_event_handler+0x4c>
     8f0:	0404a783          	lw	a5,64(s1)
     8f4:	e40784e3          	beqz	a5,73c <spi_event_handler+0x4c>
     8f8:	0344a683          	lw	a3,52(s1)
     8fc:	0244a603          	lw	a2,36(s1)
     900:	0304a583          	lw	a1,48(s1)
     904:	01c4a503          	lw	a0,28(s1)
     908:	000780e7          	jalr	a5
     90c:	e31ff06f          	j	73c <spi_event_handler+0x4c>
     910:	01452783          	lw	a5,20(a0)
     914:	e19ff06f          	j	72c <spi_event_handler+0x3c>

00000918 <spi_error_handler>:
     918:	fe010113          	addi	sp,sp,-32
     91c:	00112e23          	sw	ra,28(sp)
     920:	00912c23          	sw	s1,24(sp)
     924:	00050493          	mv	s1,a0
     928:	00052783          	lw	a5,0(a0)
     92c:	02078263          	beqz	a5,950 <spi_error_handler+0x38>
     930:	0387a703          	lw	a4,56(a5)
     934:	fc077713          	andi	a4,a4,-64
     938:	02e7ac23          	sw	a4,56(a5)
     93c:	00052783          	lw	a5,0(a0)
     940:	00078863          	beqz	a5,950 <spi_error_handler+0x38>
     944:	0047a703          	lw	a4,4(a5)
     948:	ffd77713          	andi	a4,a4,-3
     94c:	00e7a223          	sw	a4,4(a5)
     950:	0444a783          	lw	a5,68(s1)
     954:	00078c63          	beqz	a5,96c <spi_error_handler+0x54>
     958:	0344a683          	lw	a3,52(s1)
     95c:	0244a603          	lw	a2,36(s1)
     960:	0304a583          	lw	a1,48(s1)
     964:	01c4a503          	lw	a0,28(s1)
     968:	000780e7          	jalr	a5
     96c:	0204a623          	sw	zero,44(s1)
     970:	0204a823          	sw	zero,48(s1)
     974:	0204aa23          	sw	zero,52(s1)
     978:	0004aa23          	sw	zero,20(s1)
     97c:	0004ac23          	sw	zero,24(s1)
     980:	0004ae23          	sw	zero,28(s1)
     984:	0204a023          	sw	zero,32(s1)
     988:	0204a223          	sw	zero,36(s1)
     98c:	0204a423          	sw	zero,40(s1)
     990:	0204ac23          	sw	zero,56(s1)
     994:	0204ae23          	sw	zero,60(s1)
     998:	0404a023          	sw	zero,64(s1)
     99c:	0404a223          	sw	zero,68(s1)
     9a0:	0004a683          	lw	a3,0(s1)
     9a4:	10068463          	beqz	a3,aac <spi_error_handler+0x194>
     9a8:	0106a783          	lw	a5,16(a3)
     9ac:	40000737          	lui	a4,0x40000
     9b0:	00e7e7b3          	or	a5,a5,a4
     9b4:	00f6a823          	sw	a5,16(a3)
     9b8:	0146a783          	lw	a5,20(a3)
     9bc:	00f12623          	sw	a5,12(sp)
     9c0:	00c12783          	lw	a5,12(sp)
     9c4:	00179713          	slli	a4,a5,0x1
     9c8:	fe074ce3          	bltz	a4,9c0 <spi_error_handler+0xa8>
     9cc:	00c14783          	lbu	a5,12(sp)
     9d0:	fe0798e3          	bnez	a5,9c0 <spi_error_handler+0xa8>
     9d4:	00d14783          	lbu	a5,13(sp)
     9d8:	fe0794e3          	bnez	a5,9c0 <spi_error_handler+0xa8>
     9dc:	0106a783          	lw	a5,16(a3)
     9e0:	c0000737          	lui	a4,0xc0000
     9e4:	fff70713          	addi	a4,a4,-1 # bfffffff <_sp+0xbffd604f>
     9e8:	00e7f7b3          	and	a5,a5,a4
     9ec:	00f6a823          	sw	a5,16(a3)
     9f0:	0004a783          	lw	a5,0(s1)
     9f4:	0a078c63          	beqz	a5,aac <spi_error_handler+0x194>
     9f8:	0107a703          	lw	a4,16(a5)
     9fc:	800006b7          	lui	a3,0x80000
     a00:	00d76733          	or	a4,a4,a3
     a04:	00e7a823          	sw	a4,16(a5)
     a08:	0004a783          	lw	a5,0(s1)
     a0c:	0a078063          	beqz	a5,aac <spi_error_handler+0x194>
     a10:	0107a703          	lw	a4,16(a5)
     a14:	200006b7          	lui	a3,0x20000
     a18:	00d76733          	or	a4,a4,a3
     a1c:	00e7a823          	sw	a4,16(a5)
     a20:	0004a783          	lw	a5,0(s1)
     a24:	08078463          	beqz	a5,aac <spi_error_handler+0x194>
     a28:	0307a703          	lw	a4,48(a5)
     a2c:	01f76713          	ori	a4,a4,31
     a30:	02e7a823          	sw	a4,48(a5)
     a34:	0004a783          	lw	a5,0(s1)
     a38:	06078a63          	beqz	a5,aac <spi_error_handler+0x194>
     a3c:	0047a703          	lw	a4,4(a5)
     a40:	00176713          	ori	a4,a4,1
     a44:	00e7a223          	sw	a4,4(a5)
     a48:	0004a703          	lw	a4,0(s1)
     a4c:	0044c783          	lbu	a5,4(s1)
     a50:	00173693          	seqz	a3,a4
     a54:	0497b613          	sltiu	a2,a5,73
     a58:	00163613          	seqz	a2,a2
     a5c:	00c6e6b3          	or	a3,a3,a2
     a60:	02069063          	bnez	a3,a80 <spi_error_handler+0x168>
     a64:	01072683          	lw	a3,16(a4)
     a68:	ffff0637          	lui	a2,0xffff0
     a6c:	0ff60613          	addi	a2,a2,255 # ffff00ff <_sp+0xfffc614f>
     a70:	00c6f6b3          	and	a3,a3,a2
     a74:	00879793          	slli	a5,a5,0x8
     a78:	00d7e7b3          	or	a5,a5,a3
     a7c:	00f72823          	sw	a5,16(a4)
     a80:	0004a683          	lw	a3,0(s1)
     a84:	0054c703          	lbu	a4,5(s1)
     a88:	04173793          	sltiu	a5,a4,65
     a8c:	0017b793          	seqz	a5,a5
     a90:	0016b613          	seqz	a2,a3
     a94:	00c7e7b3          	or	a5,a5,a2
     a98:	00079a63          	bnez	a5,aac <spi_error_handler+0x194>
     a9c:	0106a783          	lw	a5,16(a3) # 20000010 <_sp+0x1ffd6060>
     aa0:	f007f793          	andi	a5,a5,-256
     aa4:	00f76733          	or	a4,a4,a5
     aa8:	00e6a823          	sw	a4,16(a3)
     aac:	0004a423          	sw	zero,8(s1)
     ab0:	00800793          	li	a5,8
     ab4:	00f4a823          	sw	a5,16(s1)
     ab8:	01c12083          	lw	ra,28(sp)
     abc:	01812483          	lw	s1,24(sp)
     ac0:	02010113          	addi	sp,sp,32
     ac4:	00008067          	ret

00000ac8 <_writestr>:
     ac8:	ff010113          	addi	sp,sp,-16
     acc:	00112623          	sw	ra,12(sp)
     ad0:	00912423          	sw	s1,8(sp)
     ad4:	00050493          	mv	s1,a0
     ad8:	535070ef          	jal	880c <strlen>
     adc:	00150613          	addi	a2,a0,1
     ae0:	00048593          	mv	a1,s1
     ae4:	00100513          	li	a0,1
     ae8:	b09ff0ef          	jal	5f0 <_write>
     aec:	00c12083          	lw	ra,12(sp)
     af0:	00812483          	lw	s1,8(sp)
     af4:	01010113          	addi	sp,sp,16
     af8:	00008067          	ret

00000afc <print_exc_msg>:
     afc:	fe010113          	addi	sp,sp,-32
     b00:	00112e23          	sw	ra,28(sp)
     b04:	00912c23          	sw	s1,24(sp)
     b08:	fc1ff0ef          	jal	ac8 <_writestr>
     b0c:	343024f3          	csrr	s1,mtval
     b10:	00020537          	lui	a0,0x20
     b14:	4a050513          	addi	a0,a0,1184 # 204a0 <__clz_tab+0x1b0>
     b18:	fb1ff0ef          	jal	ac8 <_writestr>
     b1c:	0184d793          	srli	a5,s1,0x18
     b20:	00f10423          	sb	a5,8(sp)
     b24:	0104d793          	srli	a5,s1,0x10
     b28:	00f104a3          	sb	a5,9(sp)
     b2c:	0084d793          	srli	a5,s1,0x8
     b30:	00f10523          	sb	a5,10(sp)
     b34:	009105a3          	sb	s1,11(sp)
     b38:	00a00793          	li	a5,10
     b3c:	00f10623          	sb	a5,12(sp)
     b40:	000106a3          	sb	zero,13(sp)
     b44:	00810513          	addi	a0,sp,8
     b48:	f81ff0ef          	jal	ac8 <_writestr>
     b4c:	0000006f          	j	b4c <print_exc_msg+0x50>

00000b50 <inferenceTPG>:
     b50:	de010113          	addi	sp,sp,-544
     b54:	20112e23          	sw	ra,540(sp)
     b58:	20912c23          	sw	s1,536(sp)
     b5c:	21212a23          	sw	s2,532(sp)
     b60:	21312823          	sw	s3,528(sp)
     b64:	21412623          	sw	s4,524(sp)
     b68:	21512423          	sw	s5,520(sp)
     b6c:	21612223          	sw	s6,516(sp)
     b70:	21712023          	sw	s7,512(sp)
     b74:	1f812e23          	sw	s8,508(sp)
     b78:	1f912c23          	sw	s9,504(sp)
     b7c:	1fa12a23          	sw	s10,500(sp)
     b80:	00050d13          	mv	s10,a0
     b84:	00058a93          	mv	s5,a1
     b88:	00060a13          	mv	s4,a2
     b8c:	00068493          	mv	s1,a3
     b90:	00070913          	mv	s2,a4
     b94:	00078993          	mv	s3,a5
     b98:	000067b7          	lui	a5,0x6
     b9c:	24878793          	addi	a5,a5,584 # 6248 <T25_start>
     ba0:	00078067          	jr	a5

00000ba4 <T0_start>:
     ba4:	b0002773          	csrr	a4,mcycle
     ba8:	0084a783          	lw	a5,8(s1)
     bac:	0a07e7b3          	max	a5,a5,zero
     bb0:	00f12e23          	sw	a5,28(sp)
     bb4:	02012023          	sw	zero,32(sp)

00000bb8 <T0_end>:
     bb8:	b00027f3          	csrr	a5,mcycle
     bbc:	40e787b3          	sub	a5,a5,a4
     bc0:	00f9a023          	sw	a5,0(s3)
     bc4:	00020737          	lui	a4,0x20
     bc8:	01c12783          	lw	a5,28(sp)
     bcc:	02012603          	lw	a2,32(sp)
     bd0:	00f627b3          	slt	a5,a2,a5
     bd4:	0017b793          	seqz	a5,a5
     bd8:	93418693          	addi	a3,gp,-1740 # 21d38 <next.27>
     bdc:	20d7c7b3          	sh2add	a5,a5,a3
     be0:	0007a783          	lw	a5,0(a5)
     be4:	1fc70713          	addi	a4,a4,508 # 201fc <jump_table.28>
     be8:	20e7c7b3          	sh2add	a5,a5,a4
     bec:	0007a783          	lw	a5,0(a5)
     bf0:	fb1ff06f          	j	ba0 <inferenceTPG+0x50>

00000bf4 <T1_start>:
     bf4:	b0002773          	csrr	a4,mcycle
     bf8:	0044a783          	lw	a5,4(s1)
     bfc:	004aa683          	lw	a3,4(s5)
     c00:	00d787b3          	add	a5,a5,a3
     c04:	02f12223          	sw	a5,36(sp)
     c08:	0084a783          	lw	a5,8(s1)
     c0c:	0a07e7b3          	max	a5,a5,zero
     c10:	02f12423          	sw	a5,40(sp)
     c14:	02012623          	sw	zero,44(sp)

00000c18 <T1_end>:
     c18:	b00027f3          	csrr	a5,mcycle
     c1c:	40e787b3          	sub	a5,a5,a4
     c20:	00f9a223          	sw	a5,4(s3)
     c24:	02412683          	lw	a3,36(sp)
     c28:	02812703          	lw	a4,40(sp)
     c2c:	00100793          	li	a5,1
     c30:	00d75663          	bge	a4,a3,c3c <T1_end+0x24>
     c34:	00068713          	mv	a4,a3
     c38:	00000793          	li	a5,0
     c3c:	02c12683          	lw	a3,44(sp)
     c40:	00e6c463          	blt	a3,a4,c48 <T1_end+0x30>
     c44:	00200793          	li	a5,2
     c48:	00020737          	lui	a4,0x20
     c4c:	000206b7          	lui	a3,0x20
     c50:	1f068693          	addi	a3,a3,496 # 201f0 <next.26>
     c54:	20d7c7b3          	sh2add	a5,a5,a3
     c58:	0007a783          	lw	a5,0(a5)
     c5c:	1fc70713          	addi	a4,a4,508 # 201fc <jump_table.28>
     c60:	20e7c7b3          	sh2add	a5,a5,a4
     c64:	0007a783          	lw	a5,0(a5)
     c68:	f39ff06f          	j	ba0 <inferenceTPG+0x50>

00000c6c <T2_start>:
     c6c:	b00026f3          	csrr	a3,mcycle
     c70:	0084a703          	lw	a4,8(s1)
     c74:	0a0767b3          	max	a5,a4,zero
     c78:	08f12223          	sw	a5,132(sp)
     c7c:	0044a783          	lw	a5,4(s1)
     c80:	00179613          	slli	a2,a5,0x1
     c84:	08c12423          	sw	a2,136(sp)
     c88:	40e787b3          	sub	a5,a5,a4
     c8c:	08f12623          	sw	a5,140(sp)
     c90:	08012823          	sw	zero,144(sp)

00000c94 <T2_end>:
     c94:	b00027f3          	csrr	a5,mcycle
     c98:	40d787b3          	sub	a5,a5,a3
     c9c:	00f9a423          	sw	a5,8(s3)
     ca0:	08412683          	lw	a3,132(sp)
     ca4:	08812703          	lw	a4,136(sp)
     ca8:	00100793          	li	a5,1
     cac:	00d75663          	bge	a4,a3,cb8 <T2_end+0x24>
     cb0:	00068713          	mv	a4,a3
     cb4:	00000793          	li	a5,0
     cb8:	08c12683          	lw	a3,140(sp)
     cbc:	02e6dc63          	bge	a3,a4,cf4 <T2_end+0x60>
     cc0:	00070693          	mv	a3,a4
     cc4:	09012703          	lw	a4,144(sp)
     cc8:	00d74463          	blt	a4,a3,cd0 <T2_end+0x3c>
     ccc:	00300793          	li	a5,3
     cd0:	00020737          	lui	a4,0x20
     cd4:	000206b7          	lui	a3,0x20
     cd8:	1e068693          	addi	a3,a3,480 # 201e0 <next.25>
     cdc:	20d7c7b3          	sh2add	a5,a5,a3
     ce0:	0007a783          	lw	a5,0(a5)
     ce4:	1fc70713          	addi	a4,a4,508 # 201fc <jump_table.28>
     ce8:	20e7c7b3          	sh2add	a5,a5,a4
     cec:	0007a783          	lw	a5,0(a5)
     cf0:	eb1ff06f          	j	ba0 <inferenceTPG+0x50>
     cf4:	00200793          	li	a5,2
     cf8:	fcdff06f          	j	cc4 <T2_end+0x30>

00000cfc <T3_start>:
     cfc:	b00027f3          	csrr	a5,mcycle
     d00:	00078c93          	mv	s9,a5
     d04:	0044ac03          	lw	s8,4(s1)
     d08:	000107b7          	lui	a5,0x10
     d0c:	180c0c63          	beqz	s8,ea4 <T3_start+0x1a8>
     d10:	41800733          	neg	a4,s8
     d14:	0aec6733          	max	a4,s8,a4
     d18:	41f75793          	srai	a5,a4,0x1f
     d1c:	000176b7          	lui	a3,0x17
     d20:	15468693          	addi	a3,a3,340 # 17154 <heap.cpp.6b15d6f6+0x953>
     d24:	02d787b3          	mul	a5,a5,a3
     d28:	02d70b33          	mul	s6,a4,a3
     d2c:	02d73733          	mulhu	a4,a4,a3
     d30:	00e787b3          	add	a5,a5,a4
     d34:	01079793          	slli	a5,a5,0x10
     d38:	010b5b13          	srli	s6,s6,0x10
     d3c:	01678b33          	add	s6,a5,s6
     d40:	000087b7          	lui	a5,0x8
     d44:	00fb0b33          	add	s6,s6,a5
     d48:	ffff07b7          	lui	a5,0xffff0
     d4c:	00fb7b33          	and	s6,s6,a5
     d50:	400c4c63          	bltz	s8,1168 <T3_end+0x60>
     d54:	41fb5713          	srai	a4,s6,0x1f
     d58:	0000b6b7          	lui	a3,0xb
     d5c:	17268693          	addi	a3,a3,370 # b172 <__subdf3+0x62e>
     d60:	02d70733          	mul	a4,a4,a3
     d64:	02db07b3          	mul	a5,s6,a3
     d68:	02db36b3          	mulhu	a3,s6,a3
     d6c:	00d70733          	add	a4,a4,a3
     d70:	01071713          	slli	a4,a4,0x10
     d74:	0107d793          	srli	a5,a5,0x10
     d78:	00f707b3          	add	a5,a4,a5
     d7c:	40fc07b3          	sub	a5,s8,a5
     d80:	41f7d693          	srai	a3,a5,0x1f
     d84:	02f686b3          	mul	a3,a3,a5
     d88:	02f78733          	mul	a4,a5,a5
     d8c:	02f7b633          	mulhu	a2,a5,a5
     d90:	20c6a6b3          	sh1add	a3,a3,a2
     d94:	01069693          	slli	a3,a3,0x10
     d98:	01075713          	srli	a4,a4,0x10
     d9c:	00e68733          	add	a4,a3,a4
     da0:	41f75513          	srai	a0,a4,0x1f
     da4:	01e75693          	srli	a3,a4,0x1e
     da8:	20d546b3          	sh2add	a3,a0,a3
     dac:	00271613          	slli	a2,a4,0x2
     db0:	01069693          	slli	a3,a3,0x10
     db4:	01065613          	srli	a2,a2,0x10
     db8:	00c68633          	add	a2,a3,a2
     dbc:	f4a60613          	addi	a2,a2,-182
     dc0:	41f65593          	srai	a1,a2,0x1f
     dc4:	02e585b3          	mul	a1,a1,a4
     dc8:	02c506b3          	mul	a3,a0,a2
     dcc:	00d585b3          	add	a1,a1,a3
     dd0:	02e606b3          	mul	a3,a2,a4
     dd4:	02e63633          	mulhu	a2,a2,a4
     dd8:	00c58633          	add	a2,a1,a2
     ddc:	01061613          	slli	a2,a2,0x10
     de0:	0106d693          	srli	a3,a3,0x10
     de4:	00d606b3          	add	a3,a2,a3
     de8:	00003637          	lui	a2,0x3
     dec:	aab60613          	addi	a2,a2,-1365 # 2aab <T9_start+0x2f>
     df0:	00c686b3          	add	a3,a3,a2
     df4:	41f6d613          	srai	a2,a3,0x1f
     df8:	02e60633          	mul	a2,a2,a4
     dfc:	02d50533          	mul	a0,a0,a3
     e00:	00a60633          	add	a2,a2,a0
     e04:	02e685b3          	mul	a1,a3,a4
     e08:	02e6b6b3          	mulhu	a3,a3,a4
     e0c:	00d60733          	add	a4,a2,a3
     e10:	01071713          	slli	a4,a4,0x10
     e14:	0105d693          	srli	a3,a1,0x10
     e18:	00d706b3          	add	a3,a4,a3
     e1c:	00020737          	lui	a4,0x20
     e20:	00e686b3          	add	a3,a3,a4
     e24:	40f68633          	sub	a2,a3,a5
     e28:	02f68c63          	beq	a3,a5,e60 <T3_start+0x164>
     e2c:	00f7d713          	srli	a4,a5,0xf
     e30:	01179793          	slli	a5,a5,0x11
     e34:	01071713          	slli	a4,a4,0x10
     e38:	0107d793          	srli	a5,a5,0x10
     e3c:	00f707b3          	add	a5,a4,a5
     e40:	41f7d713          	srai	a4,a5,0x1f
     e44:	0107d593          	srli	a1,a5,0x10
     e48:	01071713          	slli	a4,a4,0x10
     e4c:	41f65693          	srai	a3,a2,0x1f
     e50:	01079513          	slli	a0,a5,0x10
     e54:	00e585b3          	add	a1,a1,a4
     e58:	4dc0a0ef          	jal	b334 <__divdi3>
     e5c:	00050613          	mv	a2,a0
     e60:	000107b7          	lui	a5,0x10
     e64:	00f606b3          	add	a3,a2,a5
     e68:	300b4463          	bltz	s6,1170 <T3_end+0x68>
     e6c:	410b5b13          	srai	s6,s6,0x10
     e70:	00010737          	lui	a4,0x10
     e74:	01671733          	sll	a4,a4,s6
     e78:	41f75793          	srai	a5,a4,0x1f
     e7c:	41f6d613          	srai	a2,a3,0x1f
     e80:	02d787b3          	mul	a5,a5,a3
     e84:	02e60633          	mul	a2,a2,a4
     e88:	00c787b3          	add	a5,a5,a2
     e8c:	02d70633          	mul	a2,a4,a3
     e90:	02d73733          	mulhu	a4,a4,a3
     e94:	00e787b3          	add	a5,a5,a4
     e98:	01079793          	slli	a5,a5,0x10
     e9c:	01065713          	srli	a4,a2,0x10
     ea0:	00e787b3          	add	a5,a5,a4
     ea4:	08f12a23          	sw	a5,148(sp)
     ea8:	000aa783          	lw	a5,0(s5)
     eac:	08f12c23          	sw	a5,152(sp)
     eb0:	00492683          	lw	a3,4(s2)
     eb4:	00000593          	li	a1,0
     eb8:	2406c063          	bltz	a3,10f8 <T3_start+0x3fc>
     ebc:	2c068863          	beqz	a3,118c <T3_end+0x84>
     ec0:	000207b7          	lui	a5,0x20
     ec4:	2cd7d063          	bge	a5,a3,1184 <T3_end+0x7c>
     ec8:	00000b13          	li	s6,0
     ecc:	4016d693          	srai	a3,a3,0x1
     ed0:	001b0b13          	addi	s6,s6,1
     ed4:	fed7cce3          	blt	a5,a3,ecc <T3_start+0x1d0>
     ed8:	ffff0bb7          	lui	s7,0xffff0
     edc:	01768bb3          	add	s7,a3,s7
     ee0:	41fbd793          	srai	a5,s7,0x1f
     ee4:	010bd593          	srli	a1,s7,0x10
     ee8:	01079793          	slli	a5,a5,0x10
     eec:	00010737          	lui	a4,0x10
     ef0:	00e68633          	add	a2,a3,a4
     ef4:	41f65693          	srai	a3,a2,0x1f
     ef8:	010b9513          	slli	a0,s7,0x10
     efc:	00f585b3          	add	a1,a1,a5
     f00:	4340a0ef          	jal	b334 <__divdi3>
     f04:	41f55613          	srai	a2,a0,0x1f
     f08:	02a607b3          	mul	a5,a2,a0
     f0c:	02a50733          	mul	a4,a0,a0
     f10:	02a536b3          	mulhu	a3,a0,a0
     f14:	20d7a7b3          	sh1add	a5,a5,a3
     f18:	01079793          	slli	a5,a5,0x10
     f1c:	01075713          	srli	a4,a4,0x10
     f20:	00e78733          	add	a4,a5,a4
     f24:	41f75313          	srai	t1,a4,0x1f
     f28:	02e306b3          	mul	a3,t1,a4
     f2c:	02e707b3          	mul	a5,a4,a4
     f30:	02e735b3          	mulhu	a1,a4,a4
     f34:	20b6a6b3          	sh1add	a3,a3,a1
     f38:	01069693          	slli	a3,a3,0x10
     f3c:	0107d793          	srli	a5,a5,0x10
     f40:	00f687b3          	add	a5,a3,a5
     f44:	41f7d813          	srai	a6,a5,0x1f
     f48:	010b1b13          	slli	s6,s6,0x10
     f4c:	41fb5693          	srai	a3,s6,0x1f
     f50:	0000b8b7          	lui	a7,0xb
     f54:	17288893          	addi	a7,a7,370 # b172 <__subdf3+0x62e>
     f58:	031686b3          	mul	a3,a3,a7
     f5c:	031b05b3          	mul	a1,s6,a7
     f60:	031b3b33          	mulhu	s6,s6,a7
     f64:	016686b3          	add	a3,a3,s6
     f68:	01069693          	slli	a3,a3,0x10
     f6c:	0105d593          	srli	a1,a1,0x10
     f70:	00b685b3          	add	a1,a3,a1
     f74:	00bb85b3          	add	a1,s7,a1
     f78:	000028b7          	lui	a7,0x2
     f7c:	5e288893          	addi	a7,a7,1506 # 25e2 <T7_end+0x96>
     f80:	03180e33          	mul	t3,a6,a7
     f84:	031786b3          	mul	a3,a5,a7
     f88:	0317b8b3          	mulhu	a7,a5,a7
     f8c:	011e08b3          	add	a7,t3,a7
     f90:	01089893          	slli	a7,a7,0x10
     f94:	0106d693          	srli	a3,a3,0x10
     f98:	00d886b3          	add	a3,a7,a3
     f9c:	000038b7          	lui	a7,0x3
     fa0:	e8d88893          	addi	a7,a7,-371 # 2e8d <T9_start+0x411>
     fa4:	011686b3          	add	a3,a3,a7
     fa8:	41f6de13          	srai	t3,a3,0x1f
     fac:	02fe0e33          	mul	t3,t3,a5
     fb0:	02d808b3          	mul	a7,a6,a3
     fb4:	011e0e33          	add	t3,t3,a7
     fb8:	02f688b3          	mul	a7,a3,a5
     fbc:	02f6b6b3          	mulhu	a3,a3,a5
     fc0:	00de06b3          	add	a3,t3,a3
     fc4:	01069693          	slli	a3,a3,0x10
     fc8:	0108d893          	srli	a7,a7,0x10
     fcc:	011688b3          	add	a7,a3,a7
     fd0:	000056b7          	lui	a3,0x5
     fd4:	92568693          	addi	a3,a3,-1755 # 4925 <T16_start+0x2ed>
     fd8:	00d888b3          	add	a7,a7,a3
     fdc:	41f8de13          	srai	t3,a7,0x1f
     fe0:	02fe0e33          	mul	t3,t3,a5
     fe4:	031806b3          	mul	a3,a6,a7
     fe8:	00de0e33          	add	t3,t3,a3
     fec:	02f886b3          	mul	a3,a7,a5
     ff0:	02f8b8b3          	mulhu	a7,a7,a5
     ff4:	011e08b3          	add	a7,t3,a7
     ff8:	01089893          	slli	a7,a7,0x10
     ffc:	0106d693          	srli	a3,a3,0x10
    1000:	00d886b3          	add	a3,a7,a3
    1004:	0000b8b7          	lui	a7,0xb
    1008:	aab88893          	addi	a7,a7,-1365 # aaab <__muldf3+0x54f>
    100c:	011686b3          	add	a3,a3,a7
    1010:	41f6d893          	srai	a7,a3,0x1f
    1014:	02e888b3          	mul	a7,a7,a4
    1018:	02d30333          	mul	t1,t1,a3
    101c:	00688333          	add	t1,a7,t1
    1020:	02e688b3          	mul	a7,a3,a4
    1024:	02e6b6b3          	mulhu	a3,a3,a4
    1028:	00d30733          	add	a4,t1,a3
    102c:	01071713          	slli	a4,a4,0x10
    1030:	0108d893          	srli	a7,a7,0x10
    1034:	011708b3          	add	a7,a4,a7
    1038:	00002737          	lui	a4,0x2
    103c:	73470713          	addi	a4,a4,1844 # 2734 <T8_start+0x13c>
    1040:	02e80333          	mul	t1,a6,a4
    1044:	02e786b3          	mul	a3,a5,a4
    1048:	02e7b733          	mulhu	a4,a5,a4
    104c:	00e30733          	add	a4,t1,a4
    1050:	01071713          	slli	a4,a4,0x10
    1054:	0106d693          	srli	a3,a3,0x10
    1058:	00d706b3          	add	a3,a4,a3
    105c:	00004737          	lui	a4,0x4
    1060:	8e470713          	addi	a4,a4,-1820 # 38e4 <T12_start+0x278>
    1064:	00e686b3          	add	a3,a3,a4
    1068:	41f6d313          	srai	t1,a3,0x1f
    106c:	02f30333          	mul	t1,t1,a5
    1070:	02d80733          	mul	a4,a6,a3
    1074:	00e30333          	add	t1,t1,a4
    1078:	02f68733          	mul	a4,a3,a5
    107c:	02f6b6b3          	mulhu	a3,a3,a5
    1080:	00d306b3          	add	a3,t1,a3
    1084:	01069693          	slli	a3,a3,0x10
    1088:	01075713          	srli	a4,a4,0x10
    108c:	00e68733          	add	a4,a3,a4
    1090:	000066b7          	lui	a3,0x6
    1094:	66668693          	addi	a3,a3,1638 # 6666 <T25_start+0x41e>
    1098:	00d70733          	add	a4,a4,a3
    109c:	41f75693          	srai	a3,a4,0x1f
    10a0:	02f686b3          	mul	a3,a3,a5
    10a4:	02e80833          	mul	a6,a6,a4
    10a8:	010686b3          	add	a3,a3,a6
    10ac:	02f70833          	mul	a6,a4,a5
    10b0:	02f73733          	mulhu	a4,a4,a5
    10b4:	00e687b3          	add	a5,a3,a4
    10b8:	01079793          	slli	a5,a5,0x10
    10bc:	01085713          	srli	a4,a6,0x10
    10c0:	00e78733          	add	a4,a5,a4
    10c4:	00e888b3          	add	a7,a7,a4
    10c8:	411b8bb3          	sub	s7,s7,a7
    10cc:	41fbd793          	srai	a5,s7,0x1f
    10d0:	02a787b3          	mul	a5,a5,a0
    10d4:	03760633          	mul	a2,a2,s7
    10d8:	00c787b3          	add	a5,a5,a2
    10dc:	02ab8733          	mul	a4,s7,a0
    10e0:	02abbbb3          	mulhu	s7,s7,a0
    10e4:	017787b3          	add	a5,a5,s7
    10e8:	01079793          	slli	a5,a5,0x10
    10ec:	01075713          	srli	a4,a4,0x10
    10f0:	00e78733          	add	a4,a5,a4
    10f4:	40e585b3          	sub	a1,a1,a4
    10f8:	08b12e23          	sw	a1,156(sp)
    10fc:	0084a783          	lw	a5,8(s1)
    1100:	0b87e7b3          	max	a5,a5,s8
    1104:	0af12023          	sw	a5,160(sp)

00001108 <T3_end>:
    1108:	b00027f3          	csrr	a5,mcycle
    110c:	419787b3          	sub	a5,a5,s9
    1110:	00f9a623          	sw	a5,12(s3)
    1114:	09412683          	lw	a3,148(sp)
    1118:	09812703          	lw	a4,152(sp)
    111c:	00100793          	li	a5,1
    1120:	00d75663          	bge	a4,a3,112c <T3_end+0x24>
    1124:	00068713          	mv	a4,a3
    1128:	00000793          	li	a5,0
    112c:	09c12683          	lw	a3,156(sp)
    1130:	06e6d263          	bge	a3,a4,1194 <T3_end+0x8c>
    1134:	00070693          	mv	a3,a4
    1138:	0a012703          	lw	a4,160(sp)
    113c:	00d74463          	blt	a4,a3,1144 <T3_end+0x3c>
    1140:	00300793          	li	a5,3
    1144:	00020737          	lui	a4,0x20
    1148:	000206b7          	lui	a3,0x20
    114c:	1d068693          	addi	a3,a3,464 # 201d0 <next.24>
    1150:	20d7c7b3          	sh2add	a5,a5,a3
    1154:	0007a783          	lw	a5,0(a5) # 20000 <heap.cpp.6b15d6f6+0x97ff>
    1158:	1fc70713          	addi	a4,a4,508 # 201fc <jump_table.28>
    115c:	20e7c7b3          	sh2add	a5,a5,a4
    1160:	0007a783          	lw	a5,0(a5)
    1164:	a3dff06f          	j	ba0 <inferenceTPG+0x50>
    1168:	41600b33          	neg	s6,s6
    116c:	be9ff06f          	j	d54 <T3_start+0x58>
    1170:	416007b3          	neg	a5,s6
    1174:	4107d793          	srai	a5,a5,0x10
    1178:	00010737          	lui	a4,0x10
    117c:	40f75733          	sra	a4,a4,a5
    1180:	cf9ff06f          	j	e78 <T3_start+0x17c>
    1184:	00000b13          	li	s6,0
    1188:	d51ff06f          	j	ed8 <T3_start+0x1dc>
    118c:	fff00593          	li	a1,-1
    1190:	f69ff06f          	j	10f8 <T3_start+0x3fc>
    1194:	00200793          	li	a5,2
    1198:	fa1ff06f          	j	1138 <T3_end+0x30>

0000119c <T4_start>:
    119c:	b0002b73          	csrr	s6,mcycle
    11a0:	00492c03          	lw	s8,4(s2)
    11a4:	000107b7          	lui	a5,0x10
    11a8:	180c0c63          	beqz	s8,1340 <T4_start+0x1a4>
    11ac:	41800733          	neg	a4,s8
    11b0:	0aec6733          	max	a4,s8,a4
    11b4:	41f75793          	srai	a5,a4,0x1f
    11b8:	000176b7          	lui	a3,0x17
    11bc:	15468693          	addi	a3,a3,340 # 17154 <heap.cpp.6b15d6f6+0x953>
    11c0:	02d787b3          	mul	a5,a5,a3
    11c4:	02d70bb3          	mul	s7,a4,a3
    11c8:	02d73733          	mulhu	a4,a4,a3
    11cc:	00e787b3          	add	a5,a5,a4
    11d0:	01079793          	slli	a5,a5,0x10
    11d4:	010bdb93          	srli	s7,s7,0x10
    11d8:	01778bb3          	add	s7,a5,s7
    11dc:	000087b7          	lui	a5,0x8
    11e0:	00fb8bb3          	add	s7,s7,a5
    11e4:	ffff07b7          	lui	a5,0xffff0
    11e8:	00fbfbb3          	and	s7,s7,a5
    11ec:	380c4c63          	bltz	s8,1584 <T4_end+0x60>
    11f0:	41fbd713          	srai	a4,s7,0x1f
    11f4:	0000b6b7          	lui	a3,0xb
    11f8:	17268693          	addi	a3,a3,370 # b172 <__subdf3+0x62e>
    11fc:	02d70733          	mul	a4,a4,a3
    1200:	02db87b3          	mul	a5,s7,a3
    1204:	02dbb6b3          	mulhu	a3,s7,a3
    1208:	00d70733          	add	a4,a4,a3
    120c:	01071713          	slli	a4,a4,0x10
    1210:	0107d793          	srli	a5,a5,0x10
    1214:	00f707b3          	add	a5,a4,a5
    1218:	40fc07b3          	sub	a5,s8,a5
    121c:	41f7d693          	srai	a3,a5,0x1f
    1220:	02f686b3          	mul	a3,a3,a5
    1224:	02f78733          	mul	a4,a5,a5
    1228:	02f7b633          	mulhu	a2,a5,a5
    122c:	20c6a6b3          	sh1add	a3,a3,a2
    1230:	01069693          	slli	a3,a3,0x10
    1234:	01075713          	srli	a4,a4,0x10
    1238:	00e68733          	add	a4,a3,a4
    123c:	41f75513          	srai	a0,a4,0x1f
    1240:	01e75693          	srli	a3,a4,0x1e
    1244:	20d546b3          	sh2add	a3,a0,a3
    1248:	00271613          	slli	a2,a4,0x2
    124c:	01069693          	slli	a3,a3,0x10
    1250:	01065613          	srli	a2,a2,0x10
    1254:	00c68633          	add	a2,a3,a2
    1258:	f4a60613          	addi	a2,a2,-182
    125c:	41f65593          	srai	a1,a2,0x1f
    1260:	02e585b3          	mul	a1,a1,a4
    1264:	02c506b3          	mul	a3,a0,a2
    1268:	00d585b3          	add	a1,a1,a3
    126c:	02e606b3          	mul	a3,a2,a4
    1270:	02e63633          	mulhu	a2,a2,a4
    1274:	00c58633          	add	a2,a1,a2
    1278:	01061613          	slli	a2,a2,0x10
    127c:	0106d693          	srli	a3,a3,0x10
    1280:	00d606b3          	add	a3,a2,a3
    1284:	00003637          	lui	a2,0x3
    1288:	aab60613          	addi	a2,a2,-1365 # 2aab <T9_start+0x2f>
    128c:	00c686b3          	add	a3,a3,a2
    1290:	41f6d613          	srai	a2,a3,0x1f
    1294:	02e60633          	mul	a2,a2,a4
    1298:	02d50533          	mul	a0,a0,a3
    129c:	00a60633          	add	a2,a2,a0
    12a0:	02e685b3          	mul	a1,a3,a4
    12a4:	02e6b6b3          	mulhu	a3,a3,a4
    12a8:	00d60733          	add	a4,a2,a3
    12ac:	01071713          	slli	a4,a4,0x10
    12b0:	0105d693          	srli	a3,a1,0x10
    12b4:	00d706b3          	add	a3,a4,a3
    12b8:	00020737          	lui	a4,0x20
    12bc:	00e686b3          	add	a3,a3,a4
    12c0:	40f68633          	sub	a2,a3,a5
    12c4:	02f68c63          	beq	a3,a5,12fc <T4_start+0x160>
    12c8:	00f7d713          	srli	a4,a5,0xf
    12cc:	01179793          	slli	a5,a5,0x11
    12d0:	01071713          	slli	a4,a4,0x10
    12d4:	0107d793          	srli	a5,a5,0x10
    12d8:	00f707b3          	add	a5,a4,a5
    12dc:	41f7d713          	srai	a4,a5,0x1f
    12e0:	0107d593          	srli	a1,a5,0x10
    12e4:	01071713          	slli	a4,a4,0x10
    12e8:	41f65693          	srai	a3,a2,0x1f
    12ec:	01079513          	slli	a0,a5,0x10
    12f0:	00e585b3          	add	a1,a1,a4
    12f4:	0400a0ef          	jal	b334 <__divdi3>
    12f8:	00050613          	mv	a2,a0
    12fc:	000107b7          	lui	a5,0x10
    1300:	00f606b3          	add	a3,a2,a5
    1304:	280bc463          	bltz	s7,158c <T4_end+0x68>
    1308:	410bdb93          	srai	s7,s7,0x10
    130c:	00010737          	lui	a4,0x10
    1310:	01771733          	sll	a4,a4,s7
    1314:	41f75793          	srai	a5,a4,0x1f
    1318:	41f6d613          	srai	a2,a3,0x1f
    131c:	02d787b3          	mul	a5,a5,a3
    1320:	02e60633          	mul	a2,a2,a4
    1324:	00c787b3          	add	a5,a5,a2
    1328:	02d70633          	mul	a2,a4,a3
    132c:	02d73733          	mulhu	a4,a4,a3
    1330:	00e787b3          	add	a5,a5,a4
    1334:	01079793          	slli	a5,a5,0x10
    1338:	01065713          	srli	a4,a2,0x10
    133c:	00e787b3          	add	a5,a5,a4
    1340:	0af12223          	sw	a5,164(sp)
    1344:	01092603          	lw	a2,16(s2)
    1348:	02060263          	beqz	a2,136c <T4_start+0x1d0>
    134c:	41fc5793          	srai	a5,s8,0x1f
    1350:	010c5593          	srli	a1,s8,0x10
    1354:	01079793          	slli	a5,a5,0x10
    1358:	41f65693          	srai	a3,a2,0x1f
    135c:	010c1513          	slli	a0,s8,0x10
    1360:	00f585b3          	add	a1,a1,a5
    1364:	7d1090ef          	jal	b334 <__divdi3>
    1368:	00050613          	mv	a2,a0
    136c:	0ac12423          	sw	a2,168(sp)
    1370:	0044a783          	lw	a5,4(s1)
    1374:	00010737          	lui	a4,0x10
    1378:	18078c63          	beqz	a5,1510 <T4_start+0x374>
    137c:	40f006b3          	neg	a3,a5
    1380:	0ad7e6b3          	max	a3,a5,a3
    1384:	41f6d713          	srai	a4,a3,0x1f
    1388:	00017637          	lui	a2,0x17
    138c:	15460613          	addi	a2,a2,340 # 17154 <heap.cpp.6b15d6f6+0x953>
    1390:	02c70733          	mul	a4,a4,a2
    1394:	02c68bb3          	mul	s7,a3,a2
    1398:	02c6b6b3          	mulhu	a3,a3,a2
    139c:	00d70733          	add	a4,a4,a3
    13a0:	01071713          	slli	a4,a4,0x10
    13a4:	010bdb93          	srli	s7,s7,0x10
    13a8:	01770bb3          	add	s7,a4,s7
    13ac:	00008737          	lui	a4,0x8
    13b0:	00eb8bb3          	add	s7,s7,a4
    13b4:	ffff0737          	lui	a4,0xffff0
    13b8:	00ebfbb3          	and	s7,s7,a4
    13bc:	1e07c263          	bltz	a5,15a0 <T4_end+0x7c>
    13c0:	41fbd713          	srai	a4,s7,0x1f
    13c4:	0000b6b7          	lui	a3,0xb
    13c8:	17268693          	addi	a3,a3,370 # b172 <__subdf3+0x62e>
    13cc:	02d70733          	mul	a4,a4,a3
    13d0:	02db8633          	mul	a2,s7,a3
    13d4:	02dbb6b3          	mulhu	a3,s7,a3
    13d8:	00d70733          	add	a4,a4,a3
    13dc:	01071713          	slli	a4,a4,0x10
    13e0:	01065693          	srli	a3,a2,0x10
    13e4:	00d706b3          	add	a3,a4,a3
    13e8:	40d787b3          	sub	a5,a5,a3
    13ec:	41f7d693          	srai	a3,a5,0x1f
    13f0:	02f686b3          	mul	a3,a3,a5
    13f4:	02f78733          	mul	a4,a5,a5
    13f8:	02f7b633          	mulhu	a2,a5,a5
    13fc:	20c6a6b3          	sh1add	a3,a3,a2
    1400:	01069693          	slli	a3,a3,0x10
    1404:	01075713          	srli	a4,a4,0x10
    1408:	00e68733          	add	a4,a3,a4
    140c:	41f75513          	srai	a0,a4,0x1f
    1410:	01e75693          	srli	a3,a4,0x1e
    1414:	20d546b3          	sh2add	a3,a0,a3
    1418:	00271613          	slli	a2,a4,0x2
    141c:	01069693          	slli	a3,a3,0x10
    1420:	01065613          	srli	a2,a2,0x10
    1424:	00c68633          	add	a2,a3,a2
    1428:	f4a60613          	addi	a2,a2,-182
    142c:	41f65593          	srai	a1,a2,0x1f
    1430:	02e585b3          	mul	a1,a1,a4
    1434:	02c506b3          	mul	a3,a0,a2
    1438:	00d585b3          	add	a1,a1,a3
    143c:	02e606b3          	mul	a3,a2,a4
    1440:	02e63633          	mulhu	a2,a2,a4
    1444:	00c58633          	add	a2,a1,a2
    1448:	01061613          	slli	a2,a2,0x10
    144c:	0106d693          	srli	a3,a3,0x10
    1450:	00d606b3          	add	a3,a2,a3
    1454:	00003637          	lui	a2,0x3
    1458:	aab60613          	addi	a2,a2,-1365 # 2aab <T9_start+0x2f>
    145c:	00c686b3          	add	a3,a3,a2
    1460:	41f6d613          	srai	a2,a3,0x1f
    1464:	02e60633          	mul	a2,a2,a4
    1468:	02d50533          	mul	a0,a0,a3
    146c:	00a60633          	add	a2,a2,a0
    1470:	02e685b3          	mul	a1,a3,a4
    1474:	02e6b6b3          	mulhu	a3,a3,a4
    1478:	00d60733          	add	a4,a2,a3
    147c:	01071713          	slli	a4,a4,0x10
    1480:	0105d693          	srli	a3,a1,0x10
    1484:	00d706b3          	add	a3,a4,a3
    1488:	00020737          	lui	a4,0x20
    148c:	00e686b3          	add	a3,a3,a4
    1490:	40f68633          	sub	a2,a3,a5
    1494:	02f68c63          	beq	a3,a5,14cc <T4_start+0x330>
    1498:	00f7d713          	srli	a4,a5,0xf
    149c:	01179793          	slli	a5,a5,0x11
    14a0:	01071713          	slli	a4,a4,0x10
    14a4:	0107d793          	srli	a5,a5,0x10
    14a8:	00f707b3          	add	a5,a4,a5
    14ac:	41f7d713          	srai	a4,a5,0x1f
    14b0:	0107d593          	srli	a1,a5,0x10
    14b4:	01071713          	slli	a4,a4,0x10
    14b8:	41f65693          	srai	a3,a2,0x1f
    14bc:	01079513          	slli	a0,a5,0x10
    14c0:	00e585b3          	add	a1,a1,a4
    14c4:	671090ef          	jal	b334 <__divdi3>
    14c8:	00050613          	mv	a2,a0
    14cc:	000107b7          	lui	a5,0x10
    14d0:	00f606b3          	add	a3,a2,a5
    14d4:	0c0bca63          	bltz	s7,15a8 <T4_end+0x84>
    14d8:	410bdb93          	srai	s7,s7,0x10
    14dc:	000107b7          	lui	a5,0x10
    14e0:	017797b3          	sll	a5,a5,s7
    14e4:	41f7d713          	srai	a4,a5,0x1f
    14e8:	41f6d613          	srai	a2,a3,0x1f
    14ec:	02d70733          	mul	a4,a4,a3
    14f0:	02f60633          	mul	a2,a2,a5
    14f4:	00c70733          	add	a4,a4,a2
    14f8:	02d78633          	mul	a2,a5,a3
    14fc:	02d7b7b3          	mulhu	a5,a5,a3
    1500:	00f70733          	add	a4,a4,a5
    1504:	01071713          	slli	a4,a4,0x10
    1508:	01065793          	srli	a5,a2,0x10
    150c:	00f70733          	add	a4,a4,a5
    1510:	0ae12623          	sw	a4,172(sp)
    1514:	0084a783          	lw	a5,8(s1)
    1518:	000a2703          	lw	a4,0(s4)
    151c:	0ae7e7b3          	max	a5,a5,a4
    1520:	0af12823          	sw	a5,176(sp)

00001524 <T4_end>:
    1524:	b00027f3          	csrr	a5,mcycle
    1528:	416787b3          	sub	a5,a5,s6
    152c:	00f9a823          	sw	a5,16(s3)
    1530:	0a412683          	lw	a3,164(sp)
    1534:	0a812703          	lw	a4,168(sp)
    1538:	00100793          	li	a5,1
    153c:	00d75663          	bge	a4,a3,1548 <T4_end+0x24>
    1540:	00068713          	mv	a4,a3
    1544:	00000793          	li	a5,0
    1548:	0ac12683          	lw	a3,172(sp)
    154c:	06e6d663          	bge	a3,a4,15b8 <T4_end+0x94>
    1550:	00070693          	mv	a3,a4
    1554:	0b012703          	lw	a4,176(sp)
    1558:	00d74463          	blt	a4,a3,1560 <T4_end+0x3c>
    155c:	00300793          	li	a5,3
    1560:	00020737          	lui	a4,0x20
    1564:	000206b7          	lui	a3,0x20
    1568:	1c068693          	addi	a3,a3,448 # 201c0 <next.23>
    156c:	20d7c7b3          	sh2add	a5,a5,a3
    1570:	0007a783          	lw	a5,0(a5) # 10000 <fast_intr_ctrl.c.233e5230+0x207>
    1574:	1fc70713          	addi	a4,a4,508 # 201fc <jump_table.28>
    1578:	20e7c7b3          	sh2add	a5,a5,a4
    157c:	0007a783          	lw	a5,0(a5)
    1580:	e20ff06f          	j	ba0 <inferenceTPG+0x50>
    1584:	41700bb3          	neg	s7,s7
    1588:	c69ff06f          	j	11f0 <T4_start+0x54>
    158c:	417007b3          	neg	a5,s7
    1590:	4107d793          	srai	a5,a5,0x10
    1594:	00010737          	lui	a4,0x10
    1598:	40f75733          	sra	a4,a4,a5
    159c:	d79ff06f          	j	1314 <T4_start+0x178>
    15a0:	41700bb3          	neg	s7,s7
    15a4:	e1dff06f          	j	13c0 <T4_start+0x224>
    15a8:	41700733          	neg	a4,s7
    15ac:	41075713          	srai	a4,a4,0x10
    15b0:	40e7d7b3          	sra	a5,a5,a4
    15b4:	f31ff06f          	j	14e4 <T4_start+0x348>
    15b8:	00200793          	li	a5,2
    15bc:	f99ff06f          	j	1554 <T4_end+0x30>

000015c0 <T5_start>:
    15c0:	b00027f3          	csrr	a5,mcycle
    15c4:	00078c93          	mv	s9,a5
    15c8:	00492783          	lw	a5,4(s2)
    15cc:	00010737          	lui	a4,0x10
    15d0:	18078c63          	beqz	a5,1768 <T5_start+0x1a8>
    15d4:	40f006b3          	neg	a3,a5
    15d8:	0ad7e6b3          	max	a3,a5,a3
    15dc:	41f6d713          	srai	a4,a3,0x1f
    15e0:	00017637          	lui	a2,0x17
    15e4:	15460613          	addi	a2,a2,340 # 17154 <heap.cpp.6b15d6f6+0x953>
    15e8:	02c70733          	mul	a4,a4,a2
    15ec:	02c68b33          	mul	s6,a3,a2
    15f0:	02c6b6b3          	mulhu	a3,a3,a2
    15f4:	00d70733          	add	a4,a4,a3
    15f8:	01071713          	slli	a4,a4,0x10
    15fc:	010b5b13          	srli	s6,s6,0x10
    1600:	01670b33          	add	s6,a4,s6
    1604:	00008737          	lui	a4,0x8
    1608:	00eb0b33          	add	s6,s6,a4
    160c:	ffff0737          	lui	a4,0xffff0
    1610:	00eb7b33          	and	s6,s6,a4
    1614:	4207c063          	bltz	a5,1a34 <T5_end+0x24>
    1618:	41fb5713          	srai	a4,s6,0x1f
    161c:	0000b6b7          	lui	a3,0xb
    1620:	17268693          	addi	a3,a3,370 # b172 <__subdf3+0x62e>
    1624:	02d70733          	mul	a4,a4,a3
    1628:	02db0633          	mul	a2,s6,a3
    162c:	02db36b3          	mulhu	a3,s6,a3
    1630:	00d70733          	add	a4,a4,a3
    1634:	01071713          	slli	a4,a4,0x10
    1638:	01065693          	srli	a3,a2,0x10
    163c:	00d706b3          	add	a3,a4,a3
    1640:	40d787b3          	sub	a5,a5,a3
    1644:	41f7d693          	srai	a3,a5,0x1f
    1648:	02f686b3          	mul	a3,a3,a5
    164c:	02f78733          	mul	a4,a5,a5
    1650:	02f7b633          	mulhu	a2,a5,a5
    1654:	20c6a6b3          	sh1add	a3,a3,a2
    1658:	01069693          	slli	a3,a3,0x10
    165c:	01075713          	srli	a4,a4,0x10
    1660:	00e68733          	add	a4,a3,a4
    1664:	41f75513          	srai	a0,a4,0x1f
    1668:	01e75693          	srli	a3,a4,0x1e
    166c:	20d546b3          	sh2add	a3,a0,a3
    1670:	00271613          	slli	a2,a4,0x2
    1674:	01069693          	slli	a3,a3,0x10
    1678:	01065613          	srli	a2,a2,0x10
    167c:	00c68633          	add	a2,a3,a2
    1680:	f4a60613          	addi	a2,a2,-182
    1684:	41f65593          	srai	a1,a2,0x1f
    1688:	02e585b3          	mul	a1,a1,a4
    168c:	02c506b3          	mul	a3,a0,a2
    1690:	00d585b3          	add	a1,a1,a3
    1694:	02e606b3          	mul	a3,a2,a4
    1698:	02e63633          	mulhu	a2,a2,a4
    169c:	00c58633          	add	a2,a1,a2
    16a0:	01061613          	slli	a2,a2,0x10
    16a4:	0106d693          	srli	a3,a3,0x10
    16a8:	00d606b3          	add	a3,a2,a3
    16ac:	00003637          	lui	a2,0x3
    16b0:	aab60613          	addi	a2,a2,-1365 # 2aab <T9_start+0x2f>
    16b4:	00c686b3          	add	a3,a3,a2
    16b8:	41f6d613          	srai	a2,a3,0x1f
    16bc:	02e60633          	mul	a2,a2,a4
    16c0:	02d50533          	mul	a0,a0,a3
    16c4:	00a60633          	add	a2,a2,a0
    16c8:	02e685b3          	mul	a1,a3,a4
    16cc:	02e6b6b3          	mulhu	a3,a3,a4
    16d0:	00d60733          	add	a4,a2,a3
    16d4:	01071713          	slli	a4,a4,0x10
    16d8:	0105d693          	srli	a3,a1,0x10
    16dc:	00d706b3          	add	a3,a4,a3
    16e0:	00020737          	lui	a4,0x20
    16e4:	00e686b3          	add	a3,a3,a4
    16e8:	40f68633          	sub	a2,a3,a5
    16ec:	02f68c63          	beq	a3,a5,1724 <T5_start+0x164>
    16f0:	00f7d713          	srli	a4,a5,0xf
    16f4:	01179793          	slli	a5,a5,0x11
    16f8:	01071713          	slli	a4,a4,0x10
    16fc:	0107d793          	srli	a5,a5,0x10
    1700:	00f707b3          	add	a5,a4,a5
    1704:	41f7d713          	srai	a4,a5,0x1f
    1708:	0107d593          	srli	a1,a5,0x10
    170c:	01071713          	slli	a4,a4,0x10
    1710:	41f65693          	srai	a3,a2,0x1f
    1714:	01079513          	slli	a0,a5,0x10
    1718:	00e585b3          	add	a1,a1,a4
    171c:	419090ef          	jal	b334 <__divdi3>
    1720:	00050613          	mv	a2,a0
    1724:	000107b7          	lui	a5,0x10
    1728:	00f606b3          	add	a3,a2,a5
    172c:	300b4863          	bltz	s6,1a3c <T5_end+0x2c>
    1730:	410b5b13          	srai	s6,s6,0x10
    1734:	000107b7          	lui	a5,0x10
    1738:	016797b3          	sll	a5,a5,s6
    173c:	41f7d713          	srai	a4,a5,0x1f
    1740:	41f6d613          	srai	a2,a3,0x1f
    1744:	02d70733          	mul	a4,a4,a3
    1748:	02f60633          	mul	a2,a2,a5
    174c:	00c70733          	add	a4,a4,a2
    1750:	02d78633          	mul	a2,a5,a3
    1754:	02d7b7b3          	mulhu	a5,a5,a3
    1758:	00f70733          	add	a4,a4,a5
    175c:	01071713          	slli	a4,a4,0x10
    1760:	01065793          	srli	a5,a2,0x10
    1764:	00f70733          	add	a4,a4,a5
    1768:	12e12823          	sw	a4,304(sp)
    176c:	008a2783          	lw	a5,8(s4)
    1770:	00092703          	lw	a4,0(s2)
    1774:	40e787b3          	sub	a5,a5,a4
    1778:	12f12a23          	sw	a5,308(sp)
    177c:	0044ac03          	lw	s8,4(s1)
    1780:	0084a783          	lw	a5,8(s1)
    1784:	40fc07b3          	sub	a5,s8,a5
    1788:	12f12c23          	sw	a5,312(sp)
    178c:	000aa683          	lw	a3,0(s5)
    1790:	00000593          	li	a1,0
    1794:	2406c063          	bltz	a3,19d4 <T5_start+0x414>
    1798:	2a068e63          	beqz	a3,1a54 <T5_end+0x44>
    179c:	000207b7          	lui	a5,0x20
    17a0:	2ad7d663          	bge	a5,a3,1a4c <T5_end+0x3c>
    17a4:	00000b13          	li	s6,0
    17a8:	4016d693          	srai	a3,a3,0x1
    17ac:	001b0b13          	addi	s6,s6,1
    17b0:	fed7cce3          	blt	a5,a3,17a8 <T5_start+0x1e8>
    17b4:	ffff0bb7          	lui	s7,0xffff0
    17b8:	01768bb3          	add	s7,a3,s7
    17bc:	41fbd793          	srai	a5,s7,0x1f
    17c0:	010bd593          	srli	a1,s7,0x10
    17c4:	01079793          	slli	a5,a5,0x10
    17c8:	00010737          	lui	a4,0x10
    17cc:	00e68633          	add	a2,a3,a4
    17d0:	41f65693          	srai	a3,a2,0x1f
    17d4:	010b9513          	slli	a0,s7,0x10
    17d8:	00f585b3          	add	a1,a1,a5
    17dc:	359090ef          	jal	b334 <__divdi3>
    17e0:	41f55613          	srai	a2,a0,0x1f
    17e4:	02a607b3          	mul	a5,a2,a0
    17e8:	02a50733          	mul	a4,a0,a0
    17ec:	02a536b3          	mulhu	a3,a0,a0
    17f0:	20d7a7b3          	sh1add	a5,a5,a3
    17f4:	01079793          	slli	a5,a5,0x10
    17f8:	01075713          	srli	a4,a4,0x10
    17fc:	00e78733          	add	a4,a5,a4
    1800:	41f75313          	srai	t1,a4,0x1f
    1804:	02e306b3          	mul	a3,t1,a4
    1808:	02e707b3          	mul	a5,a4,a4
    180c:	02e735b3          	mulhu	a1,a4,a4
    1810:	20b6a6b3          	sh1add	a3,a3,a1
    1814:	01069693          	slli	a3,a3,0x10
    1818:	0107d793          	srli	a5,a5,0x10
    181c:	00f687b3          	add	a5,a3,a5
    1820:	41f7d813          	srai	a6,a5,0x1f
    1824:	010b1b13          	slli	s6,s6,0x10
    1828:	41fb5693          	srai	a3,s6,0x1f
    182c:	0000b8b7          	lui	a7,0xb
    1830:	17288893          	addi	a7,a7,370 # b172 <__subdf3+0x62e>
    1834:	031686b3          	mul	a3,a3,a7
    1838:	031b05b3          	mul	a1,s6,a7
    183c:	031b3b33          	mulhu	s6,s6,a7
    1840:	016686b3          	add	a3,a3,s6
    1844:	01069693          	slli	a3,a3,0x10
    1848:	0105d593          	srli	a1,a1,0x10
    184c:	00b685b3          	add	a1,a3,a1
    1850:	00bb85b3          	add	a1,s7,a1
    1854:	000028b7          	lui	a7,0x2
    1858:	5e288893          	addi	a7,a7,1506 # 25e2 <T7_end+0x96>
    185c:	03180e33          	mul	t3,a6,a7
    1860:	031786b3          	mul	a3,a5,a7
    1864:	0317b8b3          	mulhu	a7,a5,a7
    1868:	011e08b3          	add	a7,t3,a7
    186c:	01089893          	slli	a7,a7,0x10
    1870:	0106d693          	srli	a3,a3,0x10
    1874:	00d886b3          	add	a3,a7,a3
    1878:	000038b7          	lui	a7,0x3
    187c:	e8d88893          	addi	a7,a7,-371 # 2e8d <T9_start+0x411>
    1880:	011686b3          	add	a3,a3,a7
    1884:	41f6de13          	srai	t3,a3,0x1f
    1888:	02fe0e33          	mul	t3,t3,a5
    188c:	02d808b3          	mul	a7,a6,a3
    1890:	011e0e33          	add	t3,t3,a7
    1894:	02f688b3          	mul	a7,a3,a5
    1898:	02f6b6b3          	mulhu	a3,a3,a5
    189c:	00de06b3          	add	a3,t3,a3
    18a0:	01069693          	slli	a3,a3,0x10
    18a4:	0108d893          	srli	a7,a7,0x10
    18a8:	011688b3          	add	a7,a3,a7
    18ac:	000056b7          	lui	a3,0x5
    18b0:	92568693          	addi	a3,a3,-1755 # 4925 <T16_start+0x2ed>
    18b4:	00d888b3          	add	a7,a7,a3
    18b8:	41f8de13          	srai	t3,a7,0x1f
    18bc:	02fe0e33          	mul	t3,t3,a5
    18c0:	031806b3          	mul	a3,a6,a7
    18c4:	00de0e33          	add	t3,t3,a3
    18c8:	02f886b3          	mul	a3,a7,a5
    18cc:	02f8b8b3          	mulhu	a7,a7,a5
    18d0:	011e08b3          	add	a7,t3,a7
    18d4:	01089893          	slli	a7,a7,0x10
    18d8:	0106d693          	srli	a3,a3,0x10
    18dc:	00d886b3          	add	a3,a7,a3
    18e0:	0000b8b7          	lui	a7,0xb
    18e4:	aab88893          	addi	a7,a7,-1365 # aaab <__muldf3+0x54f>
    18e8:	011686b3          	add	a3,a3,a7
    18ec:	41f6d893          	srai	a7,a3,0x1f
    18f0:	02e888b3          	mul	a7,a7,a4
    18f4:	02d30333          	mul	t1,t1,a3
    18f8:	00688333          	add	t1,a7,t1
    18fc:	02e688b3          	mul	a7,a3,a4
    1900:	02e6b6b3          	mulhu	a3,a3,a4
    1904:	00d30733          	add	a4,t1,a3
    1908:	01071713          	slli	a4,a4,0x10
    190c:	0108d893          	srli	a7,a7,0x10
    1910:	011708b3          	add	a7,a4,a7
    1914:	00002737          	lui	a4,0x2
    1918:	73470713          	addi	a4,a4,1844 # 2734 <T8_start+0x13c>
    191c:	02e80333          	mul	t1,a6,a4
    1920:	02e786b3          	mul	a3,a5,a4
    1924:	02e7b733          	mulhu	a4,a5,a4
    1928:	00e30733          	add	a4,t1,a4
    192c:	01071713          	slli	a4,a4,0x10
    1930:	0106d693          	srli	a3,a3,0x10
    1934:	00d706b3          	add	a3,a4,a3
    1938:	00004737          	lui	a4,0x4
    193c:	8e470713          	addi	a4,a4,-1820 # 38e4 <T12_start+0x278>
    1940:	00e686b3          	add	a3,a3,a4
    1944:	41f6d313          	srai	t1,a3,0x1f
    1948:	02f30333          	mul	t1,t1,a5
    194c:	02d80733          	mul	a4,a6,a3
    1950:	00e30333          	add	t1,t1,a4
    1954:	02f68733          	mul	a4,a3,a5
    1958:	02f6b6b3          	mulhu	a3,a3,a5
    195c:	00d306b3          	add	a3,t1,a3
    1960:	01069693          	slli	a3,a3,0x10
    1964:	01075713          	srli	a4,a4,0x10
    1968:	00e68733          	add	a4,a3,a4
    196c:	000066b7          	lui	a3,0x6
    1970:	66668693          	addi	a3,a3,1638 # 6666 <T25_start+0x41e>
    1974:	00d70733          	add	a4,a4,a3
    1978:	41f75693          	srai	a3,a4,0x1f
    197c:	02f686b3          	mul	a3,a3,a5
    1980:	02e80833          	mul	a6,a6,a4
    1984:	010686b3          	add	a3,a3,a6
    1988:	02f70833          	mul	a6,a4,a5
    198c:	02f73733          	mulhu	a4,a4,a5
    1990:	00e687b3          	add	a5,a3,a4
    1994:	01079793          	slli	a5,a5,0x10
    1998:	01085713          	srli	a4,a6,0x10
    199c:	00e78733          	add	a4,a5,a4
    19a0:	00e888b3          	add	a7,a7,a4
    19a4:	411b8bb3          	sub	s7,s7,a7
    19a8:	41fbd793          	srai	a5,s7,0x1f
    19ac:	02a787b3          	mul	a5,a5,a0
    19b0:	03760633          	mul	a2,a2,s7
    19b4:	00c787b3          	add	a5,a5,a2
    19b8:	02ab8733          	mul	a4,s7,a0
    19bc:	02abbbb3          	mulhu	s7,s7,a0
    19c0:	017787b3          	add	a5,a5,s7
    19c4:	01079793          	slli	a5,a5,0x10
    19c8:	01075713          	srli	a4,a4,0x10
    19cc:	00e78733          	add	a4,a5,a4
    19d0:	40e585b3          	sub	a1,a1,a4
    19d4:	12b12e23          	sw	a1,316(sp)
    19d8:	001c1793          	slli	a5,s8,0x1
    19dc:	14f12023          	sw	a5,320(sp)
    19e0:	01092603          	lw	a2,16(s2)
    19e4:	02060463          	beqz	a2,1a0c <T5_start+0x44c>
    19e8:	00c92503          	lw	a0,12(s2)
    19ec:	41f55793          	srai	a5,a0,0x1f
    19f0:	01055593          	srli	a1,a0,0x10
    19f4:	01079793          	slli	a5,a5,0x10
    19f8:	41f65693          	srai	a3,a2,0x1f
    19fc:	01051513          	slli	a0,a0,0x10
    1a00:	00f585b3          	add	a1,a1,a5
    1a04:	131090ef          	jal	b334 <__divdi3>
    1a08:	00050613          	mv	a2,a0
    1a0c:	14c12223          	sw	a2,324(sp)

00001a10 <T5_end>:
    1a10:	b00027f3          	csrr	a5,mcycle
    1a14:	419787b3          	sub	a5,a5,s9
    1a18:	00f9aa23          	sw	a5,20(s3)
    1a1c:	13012603          	lw	a2,304(sp)
    1a20:	13410713          	addi	a4,sp,308
    1a24:	00000513          	li	a0,0
    1a28:	00100793          	li	a5,1
    1a2c:	00600593          	li	a1,6
    1a30:	0380006f          	j	1a68 <T5_end+0x58>
    1a34:	41600b33          	neg	s6,s6
    1a38:	be1ff06f          	j	1618 <T5_start+0x58>
    1a3c:	41600733          	neg	a4,s6
    1a40:	41075713          	srai	a4,a4,0x10
    1a44:	40e7d7b3          	sra	a5,a5,a4
    1a48:	cf5ff06f          	j	173c <T5_start+0x17c>
    1a4c:	00000b13          	li	s6,0
    1a50:	d65ff06f          	j	17b4 <T5_start+0x1f4>
    1a54:	fff00593          	li	a1,-1
    1a58:	f7dff06f          	j	19d4 <T5_start+0x414>
    1a5c:	00178793          	addi	a5,a5,1 # 20001 <heap.cpp.6b15d6f6+0x9800>
    1a60:	00470713          	addi	a4,a4,4
    1a64:	00b78c63          	beq	a5,a1,1a7c <T5_end+0x6c>
    1a68:	00072683          	lw	a3,0(a4)
    1a6c:	fec6c8e3          	blt	a3,a2,1a5c <T5_end+0x4c>
    1a70:	00068613          	mv	a2,a3
    1a74:	00078513          	mv	a0,a5
    1a78:	fe5ff06f          	j	1a5c <T5_end+0x4c>
    1a7c:	00020737          	lui	a4,0x20
    1a80:	000207b7          	lui	a5,0x20
    1a84:	1a878793          	addi	a5,a5,424 # 201a8 <next.22>
    1a88:	20f54533          	sh2add	a0,a0,a5
    1a8c:	00052783          	lw	a5,0(a0)
    1a90:	1fc70713          	addi	a4,a4,508 # 201fc <jump_table.28>
    1a94:	20e7c7b3          	sh2add	a5,a5,a4
    1a98:	0007a783          	lw	a5,0(a5)
    1a9c:	904ff06f          	j	ba0 <inferenceTPG+0x50>

00001aa0 <T6_start>:
    1aa0:	b00027f3          	csrr	a5,mcycle
    1aa4:	00078c93          	mv	s9,a5
    1aa8:	0084a783          	lw	a5,8(s1)
    1aac:	0a07e7b3          	max	a5,a5,zero
    1ab0:	0ef12a23          	sw	a5,244(sp)
    1ab4:	01092603          	lw	a2,16(s2)
    1ab8:	02060463          	beqz	a2,1ae0 <T6_start+0x40>
    1abc:	00492503          	lw	a0,4(s2)
    1ac0:	41f55793          	srai	a5,a0,0x1f
    1ac4:	01055593          	srli	a1,a0,0x10
    1ac8:	01079793          	slli	a5,a5,0x10
    1acc:	41f65693          	srai	a3,a2,0x1f
    1ad0:	01051513          	slli	a0,a0,0x10
    1ad4:	00f585b3          	add	a1,a1,a5
    1ad8:	05d090ef          	jal	b334 <__divdi3>
    1adc:	00050613          	mv	a2,a0
    1ae0:	0ec12c23          	sw	a2,248(sp)
    1ae4:	0044ac03          	lw	s8,4(s1)
    1ae8:	000107b7          	lui	a5,0x10
    1aec:	180c0c63          	beqz	s8,1c84 <T6_start+0x1e4>
    1af0:	41800733          	neg	a4,s8
    1af4:	0aec6733          	max	a4,s8,a4
    1af8:	41f75793          	srai	a5,a4,0x1f
    1afc:	000176b7          	lui	a3,0x17
    1b00:	15468693          	addi	a3,a3,340 # 17154 <heap.cpp.6b15d6f6+0x953>
    1b04:	02d787b3          	mul	a5,a5,a3
    1b08:	02d70b33          	mul	s6,a4,a3
    1b0c:	02d73733          	mulhu	a4,a4,a3
    1b10:	00e787b3          	add	a5,a5,a4
    1b14:	01079793          	slli	a5,a5,0x10
    1b18:	010b5b13          	srli	s6,s6,0x10
    1b1c:	01678b33          	add	s6,a5,s6
    1b20:	000087b7          	lui	a5,0x8
    1b24:	00fb0b33          	add	s6,s6,a5
    1b28:	ffff07b7          	lui	a5,0xffff0
    1b2c:	00fb7b33          	and	s6,s6,a5
    1b30:	3c0c4863          	bltz	s8,1f00 <T6_end+0x24>
    1b34:	41fb5713          	srai	a4,s6,0x1f
    1b38:	0000b6b7          	lui	a3,0xb
    1b3c:	17268693          	addi	a3,a3,370 # b172 <__subdf3+0x62e>
    1b40:	02d70733          	mul	a4,a4,a3
    1b44:	02db07b3          	mul	a5,s6,a3
    1b48:	02db36b3          	mulhu	a3,s6,a3
    1b4c:	00d70733          	add	a4,a4,a3
    1b50:	01071713          	slli	a4,a4,0x10
    1b54:	0107d793          	srli	a5,a5,0x10
    1b58:	00f707b3          	add	a5,a4,a5
    1b5c:	40fc07b3          	sub	a5,s8,a5
    1b60:	41f7d693          	srai	a3,a5,0x1f
    1b64:	02f686b3          	mul	a3,a3,a5
    1b68:	02f78733          	mul	a4,a5,a5
    1b6c:	02f7b633          	mulhu	a2,a5,a5
    1b70:	20c6a6b3          	sh1add	a3,a3,a2
    1b74:	01069693          	slli	a3,a3,0x10
    1b78:	01075713          	srli	a4,a4,0x10
    1b7c:	00e68733          	add	a4,a3,a4
    1b80:	41f75513          	srai	a0,a4,0x1f
    1b84:	01e75693          	srli	a3,a4,0x1e
    1b88:	20d546b3          	sh2add	a3,a0,a3
    1b8c:	00271613          	slli	a2,a4,0x2
    1b90:	01069693          	slli	a3,a3,0x10
    1b94:	01065613          	srli	a2,a2,0x10
    1b98:	00c68633          	add	a2,a3,a2
    1b9c:	f4a60613          	addi	a2,a2,-182
    1ba0:	41f65593          	srai	a1,a2,0x1f
    1ba4:	02e585b3          	mul	a1,a1,a4
    1ba8:	02c506b3          	mul	a3,a0,a2
    1bac:	00d585b3          	add	a1,a1,a3
    1bb0:	02e606b3          	mul	a3,a2,a4
    1bb4:	02e63633          	mulhu	a2,a2,a4
    1bb8:	00c58633          	add	a2,a1,a2
    1bbc:	01061613          	slli	a2,a2,0x10
    1bc0:	0106d693          	srli	a3,a3,0x10
    1bc4:	00d606b3          	add	a3,a2,a3
    1bc8:	00003637          	lui	a2,0x3
    1bcc:	aab60613          	addi	a2,a2,-1365 # 2aab <T9_start+0x2f>
    1bd0:	00c686b3          	add	a3,a3,a2
    1bd4:	41f6d613          	srai	a2,a3,0x1f
    1bd8:	02e60633          	mul	a2,a2,a4
    1bdc:	02d50533          	mul	a0,a0,a3
    1be0:	00a60633          	add	a2,a2,a0
    1be4:	02e685b3          	mul	a1,a3,a4
    1be8:	02e6b6b3          	mulhu	a3,a3,a4
    1bec:	00d60733          	add	a4,a2,a3
    1bf0:	01071713          	slli	a4,a4,0x10
    1bf4:	0105d693          	srli	a3,a1,0x10
    1bf8:	00d706b3          	add	a3,a4,a3
    1bfc:	00020737          	lui	a4,0x20
    1c00:	00e686b3          	add	a3,a3,a4
    1c04:	40f68633          	sub	a2,a3,a5
    1c08:	02f68c63          	beq	a3,a5,1c40 <T6_start+0x1a0>
    1c0c:	00f7d713          	srli	a4,a5,0xf
    1c10:	01179793          	slli	a5,a5,0x11
    1c14:	01071713          	slli	a4,a4,0x10
    1c18:	0107d793          	srli	a5,a5,0x10
    1c1c:	00f707b3          	add	a5,a4,a5
    1c20:	41f7d713          	srai	a4,a5,0x1f
    1c24:	0107d593          	srli	a1,a5,0x10
    1c28:	01071713          	slli	a4,a4,0x10
    1c2c:	41f65693          	srai	a3,a2,0x1f
    1c30:	01079513          	slli	a0,a5,0x10
    1c34:	00e585b3          	add	a1,a1,a4
    1c38:	6fc090ef          	jal	b334 <__divdi3>
    1c3c:	00050613          	mv	a2,a0
    1c40:	000107b7          	lui	a5,0x10
    1c44:	00f606b3          	add	a3,a2,a5
    1c48:	2c0b4063          	bltz	s6,1f08 <T6_end+0x2c>
    1c4c:	410b5b13          	srai	s6,s6,0x10
    1c50:	00010737          	lui	a4,0x10
    1c54:	01671733          	sll	a4,a4,s6
    1c58:	41f75793          	srai	a5,a4,0x1f
    1c5c:	41f6d613          	srai	a2,a3,0x1f
    1c60:	02d787b3          	mul	a5,a5,a3
    1c64:	02e60633          	mul	a2,a2,a4
    1c68:	00c787b3          	add	a5,a5,a2
    1c6c:	02d70633          	mul	a2,a4,a3
    1c70:	02d73733          	mulhu	a4,a4,a3
    1c74:	00e787b3          	add	a5,a5,a4
    1c78:	01079793          	slli	a5,a5,0x10
    1c7c:	01065713          	srli	a4,a2,0x10
    1c80:	00e787b3          	add	a5,a5,a4
    1c84:	0ef12e23          	sw	a5,252(sp)
    1c88:	000aa683          	lw	a3,0(s5)
    1c8c:	00000593          	li	a1,0
    1c90:	2406c063          	bltz	a3,1ed0 <T6_start+0x430>
    1c94:	28068863          	beqz	a3,1f24 <T6_end+0x48>
    1c98:	000207b7          	lui	a5,0x20
    1c9c:	28d7d063          	bge	a5,a3,1f1c <T6_end+0x40>
    1ca0:	00000b13          	li	s6,0
    1ca4:	4016d693          	srai	a3,a3,0x1
    1ca8:	001b0b13          	addi	s6,s6,1
    1cac:	fed7cce3          	blt	a5,a3,1ca4 <T6_start+0x204>
    1cb0:	ffff0bb7          	lui	s7,0xffff0
    1cb4:	01768bb3          	add	s7,a3,s7
    1cb8:	41fbd793          	srai	a5,s7,0x1f
    1cbc:	010bd593          	srli	a1,s7,0x10
    1cc0:	01079793          	slli	a5,a5,0x10
    1cc4:	00010737          	lui	a4,0x10
    1cc8:	00e68633          	add	a2,a3,a4
    1ccc:	41f65693          	srai	a3,a2,0x1f
    1cd0:	010b9513          	slli	a0,s7,0x10
    1cd4:	00f585b3          	add	a1,a1,a5
    1cd8:	65c090ef          	jal	b334 <__divdi3>
    1cdc:	41f55613          	srai	a2,a0,0x1f
    1ce0:	02a607b3          	mul	a5,a2,a0
    1ce4:	02a50733          	mul	a4,a0,a0
    1ce8:	02a536b3          	mulhu	a3,a0,a0
    1cec:	20d7a7b3          	sh1add	a5,a5,a3
    1cf0:	01079793          	slli	a5,a5,0x10
    1cf4:	01075713          	srli	a4,a4,0x10
    1cf8:	00e78733          	add	a4,a5,a4
    1cfc:	41f75313          	srai	t1,a4,0x1f
    1d00:	02e306b3          	mul	a3,t1,a4
    1d04:	02e707b3          	mul	a5,a4,a4
    1d08:	02e735b3          	mulhu	a1,a4,a4
    1d0c:	20b6a6b3          	sh1add	a3,a3,a1
    1d10:	01069693          	slli	a3,a3,0x10
    1d14:	0107d793          	srli	a5,a5,0x10
    1d18:	00f687b3          	add	a5,a3,a5
    1d1c:	41f7d813          	srai	a6,a5,0x1f
    1d20:	010b1b13          	slli	s6,s6,0x10
    1d24:	41fb5693          	srai	a3,s6,0x1f
    1d28:	0000b8b7          	lui	a7,0xb
    1d2c:	17288893          	addi	a7,a7,370 # b172 <__subdf3+0x62e>
    1d30:	031686b3          	mul	a3,a3,a7
    1d34:	031b05b3          	mul	a1,s6,a7
    1d38:	031b3b33          	mulhu	s6,s6,a7
    1d3c:	016686b3          	add	a3,a3,s6
    1d40:	01069693          	slli	a3,a3,0x10
    1d44:	0105d593          	srli	a1,a1,0x10
    1d48:	00b685b3          	add	a1,a3,a1
    1d4c:	00bb85b3          	add	a1,s7,a1
    1d50:	000028b7          	lui	a7,0x2
    1d54:	5e288893          	addi	a7,a7,1506 # 25e2 <T7_end+0x96>
    1d58:	03180e33          	mul	t3,a6,a7
    1d5c:	031786b3          	mul	a3,a5,a7
    1d60:	0317b8b3          	mulhu	a7,a5,a7
    1d64:	011e08b3          	add	a7,t3,a7
    1d68:	01089893          	slli	a7,a7,0x10
    1d6c:	0106d693          	srli	a3,a3,0x10
    1d70:	00d886b3          	add	a3,a7,a3
    1d74:	000038b7          	lui	a7,0x3
    1d78:	e8d88893          	addi	a7,a7,-371 # 2e8d <T9_start+0x411>
    1d7c:	011686b3          	add	a3,a3,a7
    1d80:	41f6de13          	srai	t3,a3,0x1f
    1d84:	02fe0e33          	mul	t3,t3,a5
    1d88:	02d808b3          	mul	a7,a6,a3
    1d8c:	011e0e33          	add	t3,t3,a7
    1d90:	02f688b3          	mul	a7,a3,a5
    1d94:	02f6b6b3          	mulhu	a3,a3,a5
    1d98:	00de06b3          	add	a3,t3,a3
    1d9c:	01069693          	slli	a3,a3,0x10
    1da0:	0108d893          	srli	a7,a7,0x10
    1da4:	011688b3          	add	a7,a3,a7
    1da8:	000056b7          	lui	a3,0x5
    1dac:	92568693          	addi	a3,a3,-1755 # 4925 <T16_start+0x2ed>
    1db0:	00d888b3          	add	a7,a7,a3
    1db4:	41f8de13          	srai	t3,a7,0x1f
    1db8:	02fe0e33          	mul	t3,t3,a5
    1dbc:	031806b3          	mul	a3,a6,a7
    1dc0:	00de0e33          	add	t3,t3,a3
    1dc4:	02f886b3          	mul	a3,a7,a5
    1dc8:	02f8b8b3          	mulhu	a7,a7,a5
    1dcc:	011e08b3          	add	a7,t3,a7
    1dd0:	01089893          	slli	a7,a7,0x10
    1dd4:	0106d693          	srli	a3,a3,0x10
    1dd8:	00d886b3          	add	a3,a7,a3
    1ddc:	0000b8b7          	lui	a7,0xb
    1de0:	aab88893          	addi	a7,a7,-1365 # aaab <__muldf3+0x54f>
    1de4:	011686b3          	add	a3,a3,a7
    1de8:	41f6d893          	srai	a7,a3,0x1f
    1dec:	02e888b3          	mul	a7,a7,a4
    1df0:	02d30333          	mul	t1,t1,a3
    1df4:	00688333          	add	t1,a7,t1
    1df8:	02e688b3          	mul	a7,a3,a4
    1dfc:	02e6b6b3          	mulhu	a3,a3,a4
    1e00:	00d30733          	add	a4,t1,a3
    1e04:	01071713          	slli	a4,a4,0x10
    1e08:	0108d893          	srli	a7,a7,0x10
    1e0c:	011708b3          	add	a7,a4,a7
    1e10:	00002737          	lui	a4,0x2
    1e14:	73470713          	addi	a4,a4,1844 # 2734 <T8_start+0x13c>
    1e18:	02e80333          	mul	t1,a6,a4
    1e1c:	02e786b3          	mul	a3,a5,a4
    1e20:	02e7b733          	mulhu	a4,a5,a4
    1e24:	00e30733          	add	a4,t1,a4
    1e28:	01071713          	slli	a4,a4,0x10
    1e2c:	0106d693          	srli	a3,a3,0x10
    1e30:	00d706b3          	add	a3,a4,a3
    1e34:	00004737          	lui	a4,0x4
    1e38:	8e470713          	addi	a4,a4,-1820 # 38e4 <T12_start+0x278>
    1e3c:	00e686b3          	add	a3,a3,a4
    1e40:	41f6d313          	srai	t1,a3,0x1f
    1e44:	02f30333          	mul	t1,t1,a5
    1e48:	02d80733          	mul	a4,a6,a3
    1e4c:	00e30333          	add	t1,t1,a4
    1e50:	02f68733          	mul	a4,a3,a5
    1e54:	02f6b6b3          	mulhu	a3,a3,a5
    1e58:	00d306b3          	add	a3,t1,a3
    1e5c:	01069693          	slli	a3,a3,0x10
    1e60:	01075713          	srli	a4,a4,0x10
    1e64:	00e68733          	add	a4,a3,a4
    1e68:	000066b7          	lui	a3,0x6
    1e6c:	66668693          	addi	a3,a3,1638 # 6666 <T25_start+0x41e>
    1e70:	00d70733          	add	a4,a4,a3
    1e74:	41f75693          	srai	a3,a4,0x1f
    1e78:	02f686b3          	mul	a3,a3,a5
    1e7c:	02e80833          	mul	a6,a6,a4
    1e80:	010686b3          	add	a3,a3,a6
    1e84:	02f70833          	mul	a6,a4,a5
    1e88:	02f73733          	mulhu	a4,a4,a5
    1e8c:	00e687b3          	add	a5,a3,a4
    1e90:	01079793          	slli	a5,a5,0x10
    1e94:	01085713          	srli	a4,a6,0x10
    1e98:	00e78733          	add	a4,a5,a4
    1e9c:	00e888b3          	add	a7,a7,a4
    1ea0:	411b8bb3          	sub	s7,s7,a7
    1ea4:	41fbd793          	srai	a5,s7,0x1f
    1ea8:	02a787b3          	mul	a5,a5,a0
    1eac:	03760633          	mul	a2,a2,s7
    1eb0:	00c787b3          	add	a5,a5,a2
    1eb4:	02ab8733          	mul	a4,s7,a0
    1eb8:	02abbbb3          	mulhu	s7,s7,a0
    1ebc:	017787b3          	add	a5,a5,s7
    1ec0:	01079793          	slli	a5,a5,0x10
    1ec4:	01075713          	srli	a4,a4,0x10
    1ec8:	00e78733          	add	a4,a5,a4
    1ecc:	40e585b3          	sub	a1,a1,a4
    1ed0:	10b12023          	sw	a1,256(sp)
    1ed4:	001c1793          	slli	a5,s8,0x1
    1ed8:	10f12223          	sw	a5,260(sp)

00001edc <T6_end>:
    1edc:	b00027f3          	csrr	a5,mcycle
    1ee0:	419787b3          	sub	a5,a5,s9
    1ee4:	00f9ac23          	sw	a5,24(s3)
    1ee8:	0f412603          	lw	a2,244(sp)
    1eec:	0f410713          	addi	a4,sp,244
    1ef0:	00000513          	li	a0,0
    1ef4:	00100793          	li	a5,1
    1ef8:	00500593          	li	a1,5
    1efc:	03c0006f          	j	1f38 <T6_end+0x5c>
    1f00:	41600b33          	neg	s6,s6
    1f04:	c31ff06f          	j	1b34 <T6_start+0x94>
    1f08:	416007b3          	neg	a5,s6
    1f0c:	4107d793          	srai	a5,a5,0x10
    1f10:	00010737          	lui	a4,0x10
    1f14:	40f75733          	sra	a4,a4,a5
    1f18:	d41ff06f          	j	1c58 <T6_start+0x1b8>
    1f1c:	00000b13          	li	s6,0
    1f20:	d91ff06f          	j	1cb0 <T6_start+0x210>
    1f24:	fff00593          	li	a1,-1
    1f28:	fa9ff06f          	j	1ed0 <T6_start+0x430>
    1f2c:	00178793          	addi	a5,a5,1 # 20001 <heap.cpp.6b15d6f6+0x9800>
    1f30:	00470713          	addi	a4,a4,4 # 10004 <fast_intr_ctrl.c.233e5230+0x20b>
    1f34:	00b78c63          	beq	a5,a1,1f4c <T6_end+0x70>
    1f38:	00472683          	lw	a3,4(a4)
    1f3c:	fec6c8e3          	blt	a3,a2,1f2c <T6_end+0x50>
    1f40:	00068613          	mv	a2,a3
    1f44:	00078513          	mv	a0,a5
    1f48:	fe5ff06f          	j	1f2c <T6_end+0x50>
    1f4c:	00020737          	lui	a4,0x20
    1f50:	000207b7          	lui	a5,0x20
    1f54:	19478793          	addi	a5,a5,404 # 20194 <next.21>
    1f58:	20f54533          	sh2add	a0,a0,a5
    1f5c:	00052783          	lw	a5,0(a0)
    1f60:	1fc70713          	addi	a4,a4,508 # 201fc <jump_table.28>
    1f64:	20e7c7b3          	sh2add	a5,a5,a4
    1f68:	0007a783          	lw	a5,0(a5)
    1f6c:	c35fe06f          	j	ba0 <inferenceTPG+0x50>

00001f70 <T7_start>:
    1f70:	b00027f3          	csrr	a5,mcycle
    1f74:	00078c93          	mv	s9,a5
    1f78:	00492c03          	lw	s8,4(s2)
    1f7c:	000107b7          	lui	a5,0x10
    1f80:	180c0c63          	beqz	s8,2118 <T7_start+0x1a8>
    1f84:	41800733          	neg	a4,s8
    1f88:	0aec6733          	max	a4,s8,a4
    1f8c:	41f75793          	srai	a5,a4,0x1f
    1f90:	000176b7          	lui	a3,0x17
    1f94:	15468693          	addi	a3,a3,340 # 17154 <heap.cpp.6b15d6f6+0x953>
    1f98:	02d787b3          	mul	a5,a5,a3
    1f9c:	02d70b33          	mul	s6,a4,a3
    1fa0:	02d73733          	mulhu	a4,a4,a3
    1fa4:	00e787b3          	add	a5,a5,a4
    1fa8:	01079793          	slli	a5,a5,0x10
    1fac:	010b5b13          	srli	s6,s6,0x10
    1fb0:	01678b33          	add	s6,a5,s6
    1fb4:	000087b7          	lui	a5,0x8
    1fb8:	00fb0b33          	add	s6,s6,a5
    1fbc:	ffff07b7          	lui	a5,0xffff0
    1fc0:	00fb7b33          	and	s6,s6,a5
    1fc4:	5a0c4663          	bltz	s8,2570 <T7_end+0x24>
    1fc8:	41fb5713          	srai	a4,s6,0x1f
    1fcc:	0000b6b7          	lui	a3,0xb
    1fd0:	17268693          	addi	a3,a3,370 # b172 <__subdf3+0x62e>
    1fd4:	02d70733          	mul	a4,a4,a3
    1fd8:	02db07b3          	mul	a5,s6,a3
    1fdc:	02db36b3          	mulhu	a3,s6,a3
    1fe0:	00d70733          	add	a4,a4,a3
    1fe4:	01071713          	slli	a4,a4,0x10
    1fe8:	0107d793          	srli	a5,a5,0x10
    1fec:	00f707b3          	add	a5,a4,a5
    1ff0:	40fc07b3          	sub	a5,s8,a5
    1ff4:	41f7d693          	srai	a3,a5,0x1f
    1ff8:	02f686b3          	mul	a3,a3,a5
    1ffc:	02f78733          	mul	a4,a5,a5
    2000:	02f7b633          	mulhu	a2,a5,a5
    2004:	20c6a6b3          	sh1add	a3,a3,a2
    2008:	01069693          	slli	a3,a3,0x10
    200c:	01075713          	srli	a4,a4,0x10
    2010:	00e68733          	add	a4,a3,a4
    2014:	41f75513          	srai	a0,a4,0x1f
    2018:	01e75693          	srli	a3,a4,0x1e
    201c:	20d546b3          	sh2add	a3,a0,a3
    2020:	00271613          	slli	a2,a4,0x2
    2024:	01069693          	slli	a3,a3,0x10
    2028:	01065613          	srli	a2,a2,0x10
    202c:	00c68633          	add	a2,a3,a2
    2030:	f4a60613          	addi	a2,a2,-182
    2034:	41f65593          	srai	a1,a2,0x1f
    2038:	02e585b3          	mul	a1,a1,a4
    203c:	02c506b3          	mul	a3,a0,a2
    2040:	00d585b3          	add	a1,a1,a3
    2044:	02e606b3          	mul	a3,a2,a4
    2048:	02e63633          	mulhu	a2,a2,a4
    204c:	00c58633          	add	a2,a1,a2
    2050:	01061613          	slli	a2,a2,0x10
    2054:	0106d693          	srli	a3,a3,0x10
    2058:	00d606b3          	add	a3,a2,a3
    205c:	00003637          	lui	a2,0x3
    2060:	aab60613          	addi	a2,a2,-1365 # 2aab <T9_start+0x2f>
    2064:	00c686b3          	add	a3,a3,a2
    2068:	41f6d613          	srai	a2,a3,0x1f
    206c:	02e60633          	mul	a2,a2,a4
    2070:	02d50533          	mul	a0,a0,a3
    2074:	00a60633          	add	a2,a2,a0
    2078:	02e685b3          	mul	a1,a3,a4
    207c:	02e6b6b3          	mulhu	a3,a3,a4
    2080:	00d60733          	add	a4,a2,a3
    2084:	01071713          	slli	a4,a4,0x10
    2088:	0105d693          	srli	a3,a1,0x10
    208c:	00d706b3          	add	a3,a4,a3
    2090:	00020737          	lui	a4,0x20
    2094:	00e686b3          	add	a3,a3,a4
    2098:	40f68633          	sub	a2,a3,a5
    209c:	02f68c63          	beq	a3,a5,20d4 <T7_start+0x164>
    20a0:	00f7d713          	srli	a4,a5,0xf
    20a4:	01179793          	slli	a5,a5,0x11
    20a8:	01071713          	slli	a4,a4,0x10
    20ac:	0107d793          	srli	a5,a5,0x10
    20b0:	00f707b3          	add	a5,a4,a5
    20b4:	41f7d713          	srai	a4,a5,0x1f
    20b8:	0107d593          	srli	a1,a5,0x10
    20bc:	01071713          	slli	a4,a4,0x10
    20c0:	41f65693          	srai	a3,a2,0x1f
    20c4:	01079513          	slli	a0,a5,0x10
    20c8:	00e585b3          	add	a1,a1,a4
    20cc:	268090ef          	jal	b334 <__divdi3>
    20d0:	00050613          	mv	a2,a0
    20d4:	000107b7          	lui	a5,0x10
    20d8:	00f606b3          	add	a3,a2,a5
    20dc:	480b4e63          	bltz	s6,2578 <T7_end+0x2c>
    20e0:	410b5b13          	srai	s6,s6,0x10
    20e4:	00010737          	lui	a4,0x10
    20e8:	01671733          	sll	a4,a4,s6
    20ec:	41f75793          	srai	a5,a4,0x1f
    20f0:	41f6d613          	srai	a2,a3,0x1f
    20f4:	02d787b3          	mul	a5,a5,a3
    20f8:	02e60633          	mul	a2,a2,a4
    20fc:	00c787b3          	add	a5,a5,a2
    2100:	02d70633          	mul	a2,a4,a3
    2104:	02d73733          	mulhu	a4,a4,a3
    2108:	00e787b3          	add	a5,a5,a4
    210c:	01079793          	slli	a5,a5,0x10
    2110:	01065713          	srli	a4,a2,0x10
    2114:	00e787b3          	add	a5,a5,a4
    2118:	14f12423          	sw	a5,328(sp)
    211c:	000aa683          	lw	a3,0(s5)
    2120:	00000593          	li	a1,0
    2124:	2406c063          	bltz	a3,2364 <T7_start+0x3f4>
    2128:	46068663          	beqz	a3,2594 <T7_end+0x48>
    212c:	000207b7          	lui	a5,0x20
    2130:	44d7de63          	bge	a5,a3,258c <T7_end+0x40>
    2134:	00000b13          	li	s6,0
    2138:	4016d693          	srai	a3,a3,0x1
    213c:	001b0b13          	addi	s6,s6,1
    2140:	fed7cce3          	blt	a5,a3,2138 <T7_start+0x1c8>
    2144:	ffff0bb7          	lui	s7,0xffff0
    2148:	01768bb3          	add	s7,a3,s7
    214c:	41fbd793          	srai	a5,s7,0x1f
    2150:	010bd593          	srli	a1,s7,0x10
    2154:	01079793          	slli	a5,a5,0x10
    2158:	00010737          	lui	a4,0x10
    215c:	00e68633          	add	a2,a3,a4
    2160:	41f65693          	srai	a3,a2,0x1f
    2164:	010b9513          	slli	a0,s7,0x10
    2168:	00f585b3          	add	a1,a1,a5
    216c:	1c8090ef          	jal	b334 <__divdi3>
    2170:	41f55613          	srai	a2,a0,0x1f
    2174:	02a607b3          	mul	a5,a2,a0
    2178:	02a50733          	mul	a4,a0,a0
    217c:	02a536b3          	mulhu	a3,a0,a0
    2180:	20d7a7b3          	sh1add	a5,a5,a3
    2184:	01079793          	slli	a5,a5,0x10
    2188:	01075713          	srli	a4,a4,0x10
    218c:	00e78733          	add	a4,a5,a4
    2190:	41f75313          	srai	t1,a4,0x1f
    2194:	02e306b3          	mul	a3,t1,a4
    2198:	02e707b3          	mul	a5,a4,a4
    219c:	02e735b3          	mulhu	a1,a4,a4
    21a0:	20b6a6b3          	sh1add	a3,a3,a1
    21a4:	01069693          	slli	a3,a3,0x10
    21a8:	0107d793          	srli	a5,a5,0x10
    21ac:	00f687b3          	add	a5,a3,a5
    21b0:	41f7d813          	srai	a6,a5,0x1f
    21b4:	010b1b13          	slli	s6,s6,0x10
    21b8:	41fb5693          	srai	a3,s6,0x1f
    21bc:	0000b8b7          	lui	a7,0xb
    21c0:	17288893          	addi	a7,a7,370 # b172 <__subdf3+0x62e>
    21c4:	031686b3          	mul	a3,a3,a7
    21c8:	031b05b3          	mul	a1,s6,a7
    21cc:	031b3b33          	mulhu	s6,s6,a7
    21d0:	016686b3          	add	a3,a3,s6
    21d4:	01069693          	slli	a3,a3,0x10
    21d8:	0105d593          	srli	a1,a1,0x10
    21dc:	00b685b3          	add	a1,a3,a1
    21e0:	00bb85b3          	add	a1,s7,a1
    21e4:	000028b7          	lui	a7,0x2
    21e8:	5e288893          	addi	a7,a7,1506 # 25e2 <T7_end+0x96>
    21ec:	03180e33          	mul	t3,a6,a7
    21f0:	031786b3          	mul	a3,a5,a7
    21f4:	0317b8b3          	mulhu	a7,a5,a7
    21f8:	011e08b3          	add	a7,t3,a7
    21fc:	01089893          	slli	a7,a7,0x10
    2200:	0106d693          	srli	a3,a3,0x10
    2204:	00d886b3          	add	a3,a7,a3
    2208:	000038b7          	lui	a7,0x3
    220c:	e8d88893          	addi	a7,a7,-371 # 2e8d <T9_start+0x411>
    2210:	011686b3          	add	a3,a3,a7
    2214:	41f6de13          	srai	t3,a3,0x1f
    2218:	02fe0e33          	mul	t3,t3,a5
    221c:	02d808b3          	mul	a7,a6,a3
    2220:	011e0e33          	add	t3,t3,a7
    2224:	02f688b3          	mul	a7,a3,a5
    2228:	02f6b6b3          	mulhu	a3,a3,a5
    222c:	00de06b3          	add	a3,t3,a3
    2230:	01069693          	slli	a3,a3,0x10
    2234:	0108d893          	srli	a7,a7,0x10
    2238:	011688b3          	add	a7,a3,a7
    223c:	000056b7          	lui	a3,0x5
    2240:	92568693          	addi	a3,a3,-1755 # 4925 <T16_start+0x2ed>
    2244:	00d888b3          	add	a7,a7,a3
    2248:	41f8de13          	srai	t3,a7,0x1f
    224c:	02fe0e33          	mul	t3,t3,a5
    2250:	031806b3          	mul	a3,a6,a7
    2254:	00de0e33          	add	t3,t3,a3
    2258:	02f886b3          	mul	a3,a7,a5
    225c:	02f8b8b3          	mulhu	a7,a7,a5
    2260:	011e08b3          	add	a7,t3,a7
    2264:	01089893          	slli	a7,a7,0x10
    2268:	0106d693          	srli	a3,a3,0x10
    226c:	00d886b3          	add	a3,a7,a3
    2270:	0000b8b7          	lui	a7,0xb
    2274:	aab88893          	addi	a7,a7,-1365 # aaab <__muldf3+0x54f>
    2278:	011686b3          	add	a3,a3,a7
    227c:	41f6d893          	srai	a7,a3,0x1f
    2280:	02e888b3          	mul	a7,a7,a4
    2284:	02d30333          	mul	t1,t1,a3
    2288:	00688333          	add	t1,a7,t1
    228c:	02e688b3          	mul	a7,a3,a4
    2290:	02e6b6b3          	mulhu	a3,a3,a4
    2294:	00d30733          	add	a4,t1,a3
    2298:	01071713          	slli	a4,a4,0x10
    229c:	0108d893          	srli	a7,a7,0x10
    22a0:	011708b3          	add	a7,a4,a7
    22a4:	00002737          	lui	a4,0x2
    22a8:	73470713          	addi	a4,a4,1844 # 2734 <T8_start+0x13c>
    22ac:	02e80333          	mul	t1,a6,a4
    22b0:	02e786b3          	mul	a3,a5,a4
    22b4:	02e7b733          	mulhu	a4,a5,a4
    22b8:	00e30733          	add	a4,t1,a4
    22bc:	01071713          	slli	a4,a4,0x10
    22c0:	0106d693          	srli	a3,a3,0x10
    22c4:	00d706b3          	add	a3,a4,a3
    22c8:	00004737          	lui	a4,0x4
    22cc:	8e470713          	addi	a4,a4,-1820 # 38e4 <T12_start+0x278>
    22d0:	00e686b3          	add	a3,a3,a4
    22d4:	41f6d313          	srai	t1,a3,0x1f
    22d8:	02f30333          	mul	t1,t1,a5
    22dc:	02d80733          	mul	a4,a6,a3
    22e0:	00e30333          	add	t1,t1,a4
    22e4:	02f68733          	mul	a4,a3,a5
    22e8:	02f6b6b3          	mulhu	a3,a3,a5
    22ec:	00d306b3          	add	a3,t1,a3
    22f0:	01069693          	slli	a3,a3,0x10
    22f4:	01075713          	srli	a4,a4,0x10
    22f8:	00e68733          	add	a4,a3,a4
    22fc:	000066b7          	lui	a3,0x6
    2300:	66668693          	addi	a3,a3,1638 # 6666 <T25_start+0x41e>
    2304:	00d70733          	add	a4,a4,a3
    2308:	41f75693          	srai	a3,a4,0x1f
    230c:	02f686b3          	mul	a3,a3,a5
    2310:	02e80833          	mul	a6,a6,a4
    2314:	010686b3          	add	a3,a3,a6
    2318:	02f70833          	mul	a6,a4,a5
    231c:	02f73733          	mulhu	a4,a4,a5
    2320:	00e687b3          	add	a5,a3,a4
    2324:	01079793          	slli	a5,a5,0x10
    2328:	01085713          	srli	a4,a6,0x10
    232c:	00e78733          	add	a4,a5,a4
    2330:	00e888b3          	add	a7,a7,a4
    2334:	411b8bb3          	sub	s7,s7,a7
    2338:	41fbd793          	srai	a5,s7,0x1f
    233c:	02a787b3          	mul	a5,a5,a0
    2340:	03760633          	mul	a2,a2,s7
    2344:	00c787b3          	add	a5,a5,a2
    2348:	02ab8733          	mul	a4,s7,a0
    234c:	02abbbb3          	mulhu	s7,s7,a0
    2350:	017787b3          	add	a5,a5,s7
    2354:	01079793          	slli	a5,a5,0x10
    2358:	01075713          	srli	a4,a4,0x10
    235c:	00e78733          	add	a4,a5,a4
    2360:	40e585b3          	sub	a1,a1,a4
    2364:	14b12623          	sw	a1,332(sp)
    2368:	01092603          	lw	a2,16(s2)
    236c:	02060263          	beqz	a2,2390 <T7_start+0x420>
    2370:	41fc5793          	srai	a5,s8,0x1f
    2374:	010c5593          	srli	a1,s8,0x10
    2378:	01079793          	slli	a5,a5,0x10
    237c:	41f65693          	srai	a3,a2,0x1f
    2380:	010c1513          	slli	a0,s8,0x10
    2384:	00f585b3          	add	a1,a1,a5
    2388:	7ad080ef          	jal	b334 <__divdi3>
    238c:	00050613          	mv	a2,a0
    2390:	14c12823          	sw	a2,336(sp)
    2394:	0044a783          	lw	a5,4(s1)
    2398:	00179713          	slli	a4,a5,0x1
    239c:	14e12a23          	sw	a4,340(sp)
    23a0:	00010737          	lui	a4,0x10
    23a4:	18078c63          	beqz	a5,253c <T7_start+0x5cc>
    23a8:	40f006b3          	neg	a3,a5
    23ac:	0ad7e6b3          	max	a3,a5,a3
    23b0:	41f6d713          	srai	a4,a3,0x1f
    23b4:	00017637          	lui	a2,0x17
    23b8:	15460613          	addi	a2,a2,340 # 17154 <heap.cpp.6b15d6f6+0x953>
    23bc:	02c70733          	mul	a4,a4,a2
    23c0:	02c68b33          	mul	s6,a3,a2
    23c4:	02c6b6b3          	mulhu	a3,a3,a2
    23c8:	00d70733          	add	a4,a4,a3
    23cc:	01071713          	slli	a4,a4,0x10
    23d0:	010b5b13          	srli	s6,s6,0x10
    23d4:	01670b33          	add	s6,a4,s6
    23d8:	00008737          	lui	a4,0x8
    23dc:	00eb0b33          	add	s6,s6,a4
    23e0:	ffff0737          	lui	a4,0xffff0
    23e4:	00eb7b33          	and	s6,s6,a4
    23e8:	1a07ca63          	bltz	a5,259c <T7_end+0x50>
    23ec:	41fb5713          	srai	a4,s6,0x1f
    23f0:	0000b6b7          	lui	a3,0xb
    23f4:	17268693          	addi	a3,a3,370 # b172 <__subdf3+0x62e>
    23f8:	02d70733          	mul	a4,a4,a3
    23fc:	02db0633          	mul	a2,s6,a3
    2400:	02db36b3          	mulhu	a3,s6,a3
    2404:	00d70733          	add	a4,a4,a3
    2408:	01071713          	slli	a4,a4,0x10
    240c:	01065693          	srli	a3,a2,0x10
    2410:	00d706b3          	add	a3,a4,a3
    2414:	40d787b3          	sub	a5,a5,a3
    2418:	41f7d693          	srai	a3,a5,0x1f
    241c:	02f686b3          	mul	a3,a3,a5
    2420:	02f78733          	mul	a4,a5,a5
    2424:	02f7b633          	mulhu	a2,a5,a5
    2428:	20c6a6b3          	sh1add	a3,a3,a2
    242c:	01069693          	slli	a3,a3,0x10
    2430:	01075713          	srli	a4,a4,0x10
    2434:	00e68733          	add	a4,a3,a4
    2438:	41f75513          	srai	a0,a4,0x1f
    243c:	01e75693          	srli	a3,a4,0x1e
    2440:	20d546b3          	sh2add	a3,a0,a3
    2444:	00271613          	slli	a2,a4,0x2
    2448:	01069693          	slli	a3,a3,0x10
    244c:	01065613          	srli	a2,a2,0x10
    2450:	00c68633          	add	a2,a3,a2
    2454:	f4a60613          	addi	a2,a2,-182
    2458:	41f65593          	srai	a1,a2,0x1f
    245c:	02e585b3          	mul	a1,a1,a4
    2460:	02c506b3          	mul	a3,a0,a2
    2464:	00d585b3          	add	a1,a1,a3
    2468:	02e606b3          	mul	a3,a2,a4
    246c:	02e63633          	mulhu	a2,a2,a4
    2470:	00c58633          	add	a2,a1,a2
    2474:	01061613          	slli	a2,a2,0x10
    2478:	0106d693          	srli	a3,a3,0x10
    247c:	00d606b3          	add	a3,a2,a3
    2480:	00003637          	lui	a2,0x3
    2484:	aab60613          	addi	a2,a2,-1365 # 2aab <T9_start+0x2f>
    2488:	00c686b3          	add	a3,a3,a2
    248c:	41f6d613          	srai	a2,a3,0x1f
    2490:	02e60633          	mul	a2,a2,a4
    2494:	02d50533          	mul	a0,a0,a3
    2498:	00a60633          	add	a2,a2,a0
    249c:	02e685b3          	mul	a1,a3,a4
    24a0:	02e6b6b3          	mulhu	a3,a3,a4
    24a4:	00d60733          	add	a4,a2,a3
    24a8:	01071713          	slli	a4,a4,0x10
    24ac:	0105d693          	srli	a3,a1,0x10
    24b0:	00d706b3          	add	a3,a4,a3
    24b4:	00020737          	lui	a4,0x20
    24b8:	00e686b3          	add	a3,a3,a4
    24bc:	40f68633          	sub	a2,a3,a5
    24c0:	02f68c63          	beq	a3,a5,24f8 <T7_start+0x588>
    24c4:	00f7d713          	srli	a4,a5,0xf
    24c8:	01179793          	slli	a5,a5,0x11
    24cc:	01071713          	slli	a4,a4,0x10
    24d0:	0107d793          	srli	a5,a5,0x10
    24d4:	00f707b3          	add	a5,a4,a5
    24d8:	41f7d713          	srai	a4,a5,0x1f
    24dc:	0107d593          	srli	a1,a5,0x10
    24e0:	01071713          	slli	a4,a4,0x10
    24e4:	41f65693          	srai	a3,a2,0x1f
    24e8:	01079513          	slli	a0,a5,0x10
    24ec:	00e585b3          	add	a1,a1,a4
    24f0:	645080ef          	jal	b334 <__divdi3>
    24f4:	00050613          	mv	a2,a0
    24f8:	000107b7          	lui	a5,0x10
    24fc:	00f606b3          	add	a3,a2,a5
    2500:	0a0b4263          	bltz	s6,25a4 <T7_end+0x58>
    2504:	410b5b13          	srai	s6,s6,0x10
    2508:	000107b7          	lui	a5,0x10
    250c:	016797b3          	sll	a5,a5,s6
    2510:	41f7d713          	srai	a4,a5,0x1f
    2514:	41f6d613          	srai	a2,a3,0x1f
    2518:	02d70733          	mul	a4,a4,a3
    251c:	02f60633          	mul	a2,a2,a5
    2520:	00c70733          	add	a4,a4,a2
    2524:	02d78633          	mul	a2,a5,a3
    2528:	02d7b7b3          	mulhu	a5,a5,a3
    252c:	00f70733          	add	a4,a4,a5
    2530:	01071713          	slli	a4,a4,0x10
    2534:	01065793          	srli	a5,a2,0x10
    2538:	00f70733          	add	a4,a4,a5
    253c:	14e12c23          	sw	a4,344(sp)
    2540:	0084a783          	lw	a5,8(s1)
    2544:	0a07e7b3          	max	a5,a5,zero
    2548:	14f12e23          	sw	a5,348(sp)

0000254c <T7_end>:
    254c:	b00027f3          	csrr	a5,mcycle
    2550:	419787b3          	sub	a5,a5,s9
    2554:	00f9ae23          	sw	a5,28(s3)
    2558:	14812603          	lw	a2,328(sp)
    255c:	14c10713          	addi	a4,sp,332
    2560:	00000513          	li	a0,0
    2564:	00100793          	li	a5,1
    2568:	00600593          	li	a1,6
    256c:	0540006f          	j	25c0 <T7_end+0x74>
    2570:	41600b33          	neg	s6,s6
    2574:	a55ff06f          	j	1fc8 <T7_start+0x58>
    2578:	416007b3          	neg	a5,s6
    257c:	4107d793          	srai	a5,a5,0x10
    2580:	00010737          	lui	a4,0x10
    2584:	40f75733          	sra	a4,a4,a5
    2588:	b65ff06f          	j	20ec <T7_start+0x17c>
    258c:	00000b13          	li	s6,0
    2590:	bb5ff06f          	j	2144 <T7_start+0x1d4>
    2594:	fff00593          	li	a1,-1
    2598:	dcdff06f          	j	2364 <T7_start+0x3f4>
    259c:	41600b33          	neg	s6,s6
    25a0:	e4dff06f          	j	23ec <T7_start+0x47c>
    25a4:	41600733          	neg	a4,s6
    25a8:	41075713          	srai	a4,a4,0x10
    25ac:	40e7d7b3          	sra	a5,a5,a4
    25b0:	f61ff06f          	j	2510 <T7_start+0x5a0>
    25b4:	00178793          	addi	a5,a5,1 # 10001 <fast_intr_ctrl.c.233e5230+0x208>
    25b8:	00470713          	addi	a4,a4,4 # 10004 <fast_intr_ctrl.c.233e5230+0x20b>
    25bc:	00b78c63          	beq	a5,a1,25d4 <T7_end+0x88>
    25c0:	00072683          	lw	a3,0(a4)
    25c4:	fec6c8e3          	blt	a3,a2,25b4 <T7_end+0x68>
    25c8:	00068613          	mv	a2,a3
    25cc:	00078513          	mv	a0,a5
    25d0:	fe5ff06f          	j	25b4 <T7_end+0x68>
    25d4:	00020737          	lui	a4,0x20
    25d8:	000207b7          	lui	a5,0x20
    25dc:	17c78793          	addi	a5,a5,380 # 2017c <next.20>
    25e0:	20f54533          	sh2add	a0,a0,a5
    25e4:	00052783          	lw	a5,0(a0)
    25e8:	1fc70713          	addi	a4,a4,508 # 201fc <jump_table.28>
    25ec:	20e7c7b3          	sh2add	a5,a5,a4
    25f0:	0007a783          	lw	a5,0(a5)
    25f4:	dacfe06f          	j	ba0 <inferenceTPG+0x50>

000025f8 <T8_start>:
    25f8:	b0002bf3          	csrr	s7,mcycle
    25fc:	000aa683          	lw	a3,0(s5)
    2600:	00000593          	li	a1,0
    2604:	2406c063          	bltz	a3,2844 <T8_start+0x24c>
    2608:	44068863          	beqz	a3,2a58 <T8_end+0x5c>
    260c:	000207b7          	lui	a5,0x20
    2610:	44d7d063          	bge	a5,a3,2a50 <T8_end+0x54>
    2614:	00000c13          	li	s8,0
    2618:	4016d693          	srai	a3,a3,0x1
    261c:	001c0c13          	addi	s8,s8,1
    2620:	fed7cce3          	blt	a5,a3,2618 <T8_start+0x20>
    2624:	ffff0b37          	lui	s6,0xffff0
    2628:	01668b33          	add	s6,a3,s6
    262c:	41fb5793          	srai	a5,s6,0x1f
    2630:	010b5593          	srli	a1,s6,0x10
    2634:	01079793          	slli	a5,a5,0x10
    2638:	00010737          	lui	a4,0x10
    263c:	00e68633          	add	a2,a3,a4
    2640:	41f65693          	srai	a3,a2,0x1f
    2644:	010b1513          	slli	a0,s6,0x10
    2648:	00f585b3          	add	a1,a1,a5
    264c:	4e9080ef          	jal	b334 <__divdi3>
    2650:	41f55613          	srai	a2,a0,0x1f
    2654:	02a607b3          	mul	a5,a2,a0
    2658:	02a506b3          	mul	a3,a0,a0
    265c:	02a53733          	mulhu	a4,a0,a0
    2660:	20e7a7b3          	sh1add	a5,a5,a4
    2664:	01079793          	slli	a5,a5,0x10
    2668:	0106d693          	srli	a3,a3,0x10
    266c:	00d786b3          	add	a3,a5,a3
    2670:	41f6d313          	srai	t1,a3,0x1f
    2674:	02d307b3          	mul	a5,t1,a3
    2678:	02d68733          	mul	a4,a3,a3
    267c:	02d6b5b3          	mulhu	a1,a3,a3
    2680:	20b7a7b3          	sh1add	a5,a5,a1
    2684:	01079793          	slli	a5,a5,0x10
    2688:	01075713          	srli	a4,a4,0x10
    268c:	00e78733          	add	a4,a5,a4
    2690:	41f75813          	srai	a6,a4,0x1f
    2694:	010c1793          	slli	a5,s8,0x10
    2698:	41f7d893          	srai	a7,a5,0x1f
    269c:	0000be37          	lui	t3,0xb
    26a0:	172e0e13          	addi	t3,t3,370 # b172 <__subdf3+0x62e>
    26a4:	03c888b3          	mul	a7,a7,t3
    26a8:	03c785b3          	mul	a1,a5,t3
    26ac:	03c7b7b3          	mulhu	a5,a5,t3
    26b0:	00f887b3          	add	a5,a7,a5
    26b4:	01079793          	slli	a5,a5,0x10
    26b8:	0105d593          	srli	a1,a1,0x10
    26bc:	00b785b3          	add	a1,a5,a1
    26c0:	00bb05b3          	add	a1,s6,a1
    26c4:	000028b7          	lui	a7,0x2
    26c8:	5e288893          	addi	a7,a7,1506 # 25e2 <T7_end+0x96>
    26cc:	03180e33          	mul	t3,a6,a7
    26d0:	031707b3          	mul	a5,a4,a7
    26d4:	031738b3          	mulhu	a7,a4,a7
    26d8:	011e08b3          	add	a7,t3,a7
    26dc:	01089893          	slli	a7,a7,0x10
    26e0:	0107d793          	srli	a5,a5,0x10
    26e4:	00f887b3          	add	a5,a7,a5
    26e8:	000038b7          	lui	a7,0x3
    26ec:	e8d88893          	addi	a7,a7,-371 # 2e8d <T9_start+0x411>
    26f0:	011787b3          	add	a5,a5,a7
    26f4:	41f7de13          	srai	t3,a5,0x1f
    26f8:	02ee0e33          	mul	t3,t3,a4
    26fc:	02f808b3          	mul	a7,a6,a5
    2700:	011e0e33          	add	t3,t3,a7
    2704:	02e788b3          	mul	a7,a5,a4
    2708:	02e7b7b3          	mulhu	a5,a5,a4
    270c:	00fe07b3          	add	a5,t3,a5
    2710:	01079793          	slli	a5,a5,0x10
    2714:	0108d893          	srli	a7,a7,0x10
    2718:	011788b3          	add	a7,a5,a7
    271c:	000057b7          	lui	a5,0x5
    2720:	92578793          	addi	a5,a5,-1755 # 4925 <T16_start+0x2ed>
    2724:	00f888b3          	add	a7,a7,a5
    2728:	41f8de13          	srai	t3,a7,0x1f
    272c:	02ee0e33          	mul	t3,t3,a4
    2730:	031807b3          	mul	a5,a6,a7
    2734:	00fe0e33          	add	t3,t3,a5
    2738:	02e887b3          	mul	a5,a7,a4
    273c:	02e8b8b3          	mulhu	a7,a7,a4
    2740:	011e08b3          	add	a7,t3,a7
    2744:	01089893          	slli	a7,a7,0x10
    2748:	0107d793          	srli	a5,a5,0x10
    274c:	00f887b3          	add	a5,a7,a5
    2750:	0000b8b7          	lui	a7,0xb
    2754:	aab88893          	addi	a7,a7,-1365 # aaab <__muldf3+0x54f>
    2758:	011787b3          	add	a5,a5,a7
    275c:	41f7d893          	srai	a7,a5,0x1f
    2760:	02d888b3          	mul	a7,a7,a3
    2764:	02f30333          	mul	t1,t1,a5
    2768:	00688333          	add	t1,a7,t1
    276c:	02d788b3          	mul	a7,a5,a3
    2770:	02d7b7b3          	mulhu	a5,a5,a3
    2774:	00f307b3          	add	a5,t1,a5
    2778:	01079793          	slli	a5,a5,0x10
    277c:	0108d893          	srli	a7,a7,0x10
    2780:	011788b3          	add	a7,a5,a7
    2784:	000027b7          	lui	a5,0x2
    2788:	73478793          	addi	a5,a5,1844 # 2734 <T8_start+0x13c>
    278c:	02f80333          	mul	t1,a6,a5
    2790:	02f706b3          	mul	a3,a4,a5
    2794:	02f737b3          	mulhu	a5,a4,a5
    2798:	00f307b3          	add	a5,t1,a5
    279c:	01079793          	slli	a5,a5,0x10
    27a0:	0106d693          	srli	a3,a3,0x10
    27a4:	00d786b3          	add	a3,a5,a3
    27a8:	000047b7          	lui	a5,0x4
    27ac:	8e478793          	addi	a5,a5,-1820 # 38e4 <T12_start+0x278>
    27b0:	00f686b3          	add	a3,a3,a5
    27b4:	41f6d313          	srai	t1,a3,0x1f
    27b8:	02e30333          	mul	t1,t1,a4
    27bc:	02d807b3          	mul	a5,a6,a3
    27c0:	00f30333          	add	t1,t1,a5
    27c4:	02e687b3          	mul	a5,a3,a4
    27c8:	02e6b6b3          	mulhu	a3,a3,a4
    27cc:	00d306b3          	add	a3,t1,a3
    27d0:	01069693          	slli	a3,a3,0x10
    27d4:	0107d793          	srli	a5,a5,0x10
    27d8:	00f687b3          	add	a5,a3,a5
    27dc:	000066b7          	lui	a3,0x6
    27e0:	66668693          	addi	a3,a3,1638 # 6666 <T25_start+0x41e>
    27e4:	00d787b3          	add	a5,a5,a3
    27e8:	41f7d693          	srai	a3,a5,0x1f
    27ec:	02e686b3          	mul	a3,a3,a4
    27f0:	02f80833          	mul	a6,a6,a5
    27f4:	010686b3          	add	a3,a3,a6
    27f8:	02e78833          	mul	a6,a5,a4
    27fc:	02e7b7b3          	mulhu	a5,a5,a4
    2800:	00f687b3          	add	a5,a3,a5
    2804:	01079793          	slli	a5,a5,0x10
    2808:	01085713          	srli	a4,a6,0x10
    280c:	00e78733          	add	a4,a5,a4
    2810:	00e888b3          	add	a7,a7,a4
    2814:	411b0b33          	sub	s6,s6,a7
    2818:	41fb5793          	srai	a5,s6,0x1f
    281c:	02a787b3          	mul	a5,a5,a0
    2820:	03660633          	mul	a2,a2,s6
    2824:	00c787b3          	add	a5,a5,a2
    2828:	02ab0733          	mul	a4,s6,a0
    282c:	02ab3b33          	mulhu	s6,s6,a0
    2830:	016787b3          	add	a5,a5,s6
    2834:	01079793          	slli	a5,a5,0x10
    2838:	01075713          	srli	a4,a4,0x10
    283c:	00e78733          	add	a4,a5,a4
    2840:	40e585b3          	sub	a1,a1,a4
    2844:	02b12823          	sw	a1,48(sp)
    2848:	000a2783          	lw	a5,0(s4)
    284c:	0084a703          	lw	a4,8(s1)
    2850:	0ae7e7b3          	max	a5,a5,a4
    2854:	02f12a23          	sw	a5,52(sp)
    2858:	00492783          	lw	a5,4(s2)
    285c:	000106b7          	lui	a3,0x10
    2860:	18078c63          	beqz	a5,29f8 <T8_start+0x400>
    2864:	40f00633          	neg	a2,a5
    2868:	0ac7e633          	max	a2,a5,a2
    286c:	41f65693          	srai	a3,a2,0x1f
    2870:	00017737          	lui	a4,0x17
    2874:	15470713          	addi	a4,a4,340 # 17154 <heap.cpp.6b15d6f6+0x953>
    2878:	02e686b3          	mul	a3,a3,a4
    287c:	02e60b33          	mul	s6,a2,a4
    2880:	02e63633          	mulhu	a2,a2,a4
    2884:	00c686b3          	add	a3,a3,a2
    2888:	01069693          	slli	a3,a3,0x10
    288c:	010b5b13          	srli	s6,s6,0x10
    2890:	01668b33          	add	s6,a3,s6
    2894:	00008737          	lui	a4,0x8
    2898:	00eb0b33          	add	s6,s6,a4
    289c:	ffff0737          	lui	a4,0xffff0
    28a0:	00eb7b33          	and	s6,s6,a4
    28a4:	1a07ce63          	bltz	a5,2a60 <T8_end+0x64>
    28a8:	41fb5693          	srai	a3,s6,0x1f
    28ac:	0000b637          	lui	a2,0xb
    28b0:	17260613          	addi	a2,a2,370 # b172 <__subdf3+0x62e>
    28b4:	02c686b3          	mul	a3,a3,a2
    28b8:	02cb0733          	mul	a4,s6,a2
    28bc:	02cb3633          	mulhu	a2,s6,a2
    28c0:	00c686b3          	add	a3,a3,a2
    28c4:	01069693          	slli	a3,a3,0x10
    28c8:	01075713          	srli	a4,a4,0x10
    28cc:	00e68733          	add	a4,a3,a4
    28d0:	40e78733          	sub	a4,a5,a4
    28d4:	41f75693          	srai	a3,a4,0x1f
    28d8:	02e686b3          	mul	a3,a3,a4
    28dc:	02e707b3          	mul	a5,a4,a4
    28e0:	02e73633          	mulhu	a2,a4,a4
    28e4:	20c6a6b3          	sh1add	a3,a3,a2
    28e8:	01069693          	slli	a3,a3,0x10
    28ec:	0107d793          	srli	a5,a5,0x10
    28f0:	00f687b3          	add	a5,a3,a5
    28f4:	41f7d513          	srai	a0,a5,0x1f
    28f8:	01e7d693          	srli	a3,a5,0x1e
    28fc:	20d546b3          	sh2add	a3,a0,a3
    2900:	00279613          	slli	a2,a5,0x2
    2904:	01069693          	slli	a3,a3,0x10
    2908:	01065613          	srli	a2,a2,0x10
    290c:	00c68633          	add	a2,a3,a2
    2910:	f4a60613          	addi	a2,a2,-182
    2914:	41f65593          	srai	a1,a2,0x1f
    2918:	02f585b3          	mul	a1,a1,a5
    291c:	02c506b3          	mul	a3,a0,a2
    2920:	00d585b3          	add	a1,a1,a3
    2924:	02f606b3          	mul	a3,a2,a5
    2928:	02f63633          	mulhu	a2,a2,a5
    292c:	00c58633          	add	a2,a1,a2
    2930:	01061613          	slli	a2,a2,0x10
    2934:	0106d693          	srli	a3,a3,0x10
    2938:	00d606b3          	add	a3,a2,a3
    293c:	00003637          	lui	a2,0x3
    2940:	aab60613          	addi	a2,a2,-1365 # 2aab <T9_start+0x2f>
    2944:	00c686b3          	add	a3,a3,a2
    2948:	41f6d613          	srai	a2,a3,0x1f
    294c:	02f60633          	mul	a2,a2,a5
    2950:	02d50533          	mul	a0,a0,a3
    2954:	00a60633          	add	a2,a2,a0
    2958:	02f685b3          	mul	a1,a3,a5
    295c:	02f6b6b3          	mulhu	a3,a3,a5
    2960:	00d607b3          	add	a5,a2,a3
    2964:	01079793          	slli	a5,a5,0x10
    2968:	0105d693          	srli	a3,a1,0x10
    296c:	00d786b3          	add	a3,a5,a3
    2970:	000207b7          	lui	a5,0x20
    2974:	00f686b3          	add	a3,a3,a5
    2978:	40e68633          	sub	a2,a3,a4
    297c:	02e68c63          	beq	a3,a4,29b4 <T8_start+0x3bc>
    2980:	00f75693          	srli	a3,a4,0xf
    2984:	01171793          	slli	a5,a4,0x11
    2988:	01069713          	slli	a4,a3,0x10
    298c:	0107d793          	srli	a5,a5,0x10
    2990:	00f707b3          	add	a5,a4,a5
    2994:	41f7d713          	srai	a4,a5,0x1f
    2998:	0107d593          	srli	a1,a5,0x10
    299c:	01071713          	slli	a4,a4,0x10
    29a0:	41f65693          	srai	a3,a2,0x1f
    29a4:	01079513          	slli	a0,a5,0x10
    29a8:	00e585b3          	add	a1,a1,a4
    29ac:	189080ef          	jal	b334 <__divdi3>
    29b0:	00050613          	mv	a2,a0
    29b4:	000107b7          	lui	a5,0x10
    29b8:	00f60633          	add	a2,a2,a5
    29bc:	0a0b4663          	bltz	s6,2a68 <T8_end+0x6c>
    29c0:	410b5b13          	srai	s6,s6,0x10
    29c4:	000107b7          	lui	a5,0x10
    29c8:	016797b3          	sll	a5,a5,s6
    29cc:	41f7d693          	srai	a3,a5,0x1f
    29d0:	41f65713          	srai	a4,a2,0x1f
    29d4:	02c686b3          	mul	a3,a3,a2
    29d8:	02f70733          	mul	a4,a4,a5
    29dc:	00e686b3          	add	a3,a3,a4
    29e0:	02c78733          	mul	a4,a5,a2
    29e4:	02c7b7b3          	mulhu	a5,a5,a2
    29e8:	00f686b3          	add	a3,a3,a5
    29ec:	01069693          	slli	a3,a3,0x10
    29f0:	01075793          	srli	a5,a4,0x10
    29f4:	00f686b3          	add	a3,a3,a5
    29f8:	02d12c23          	sw	a3,56(sp)

000029fc <T8_end>:
    29fc:	b00027f3          	csrr	a5,mcycle
    2a00:	417787b3          	sub	a5,a5,s7
    2a04:	02f9a023          	sw	a5,32(s3)
    2a08:	03012683          	lw	a3,48(sp)
    2a0c:	03412703          	lw	a4,52(sp)
    2a10:	00100793          	li	a5,1
    2a14:	00d75663          	bge	a4,a3,2a20 <T8_end+0x24>
    2a18:	00068713          	mv	a4,a3
    2a1c:	00000793          	li	a5,0
    2a20:	03812683          	lw	a3,56(sp)
    2a24:	00e6c463          	blt	a3,a4,2a2c <T8_end+0x30>
    2a28:	00200793          	li	a5,2
    2a2c:	00020737          	lui	a4,0x20
    2a30:	000206b7          	lui	a3,0x20
    2a34:	17068693          	addi	a3,a3,368 # 20170 <next.19>
    2a38:	20d7c7b3          	sh2add	a5,a5,a3
    2a3c:	0007a783          	lw	a5,0(a5) # 10000 <fast_intr_ctrl.c.233e5230+0x207>
    2a40:	1fc70713          	addi	a4,a4,508 # 201fc <jump_table.28>
    2a44:	20e7c7b3          	sh2add	a5,a5,a4
    2a48:	0007a783          	lw	a5,0(a5)
    2a4c:	954fe06f          	j	ba0 <inferenceTPG+0x50>
    2a50:	00000c13          	li	s8,0
    2a54:	bd1ff06f          	j	2624 <T8_start+0x2c>
    2a58:	fff00593          	li	a1,-1
    2a5c:	de9ff06f          	j	2844 <T8_start+0x24c>
    2a60:	41600b33          	neg	s6,s6
    2a64:	e45ff06f          	j	28a8 <T8_start+0x2b0>
    2a68:	41600733          	neg	a4,s6
    2a6c:	41075713          	srai	a4,a4,0x10
    2a70:	40e7d7b3          	sra	a5,a5,a4
    2a74:	f59ff06f          	j	29cc <T8_start+0x3d4>
    2a78:	1fb12823          	sw	s11,496(sp)

00002a7c <T9_start>:
    2a7c:	b00027f3          	csrr	a5,mcycle
    2a80:	00078d93          	mv	s11,a5
    2a84:	0044ac03          	lw	s8,4(s1)
    2a88:	000a2783          	lw	a5,0(s4)
    2a8c:	00078c93          	mv	s9,a5
    2a90:	018787b3          	add	a5,a5,s8
    2a94:	1af12823          	sw	a5,432(sp)
    2a98:	000aa683          	lw	a3,0(s5)
    2a9c:	00000593          	li	a1,0
    2aa0:	2406c063          	bltz	a3,2ce0 <T9_start+0x264>
    2aa4:	4a068863          	beqz	a3,2f54 <T9_end+0x2c>
    2aa8:	000207b7          	lui	a5,0x20
    2aac:	4ad7d063          	bge	a5,a3,2f4c <T9_end+0x24>
    2ab0:	00000b13          	li	s6,0
    2ab4:	4016d693          	srai	a3,a3,0x1
    2ab8:	001b0b13          	addi	s6,s6,1 # ffff0001 <_sp+0xfffc6051>
    2abc:	fed7cce3          	blt	a5,a3,2ab4 <T9_start+0x38>
    2ac0:	ffff0bb7          	lui	s7,0xffff0
    2ac4:	01768bb3          	add	s7,a3,s7
    2ac8:	41fbd793          	srai	a5,s7,0x1f
    2acc:	010bd593          	srli	a1,s7,0x10
    2ad0:	01079793          	slli	a5,a5,0x10
    2ad4:	00010737          	lui	a4,0x10
    2ad8:	00e68633          	add	a2,a3,a4
    2adc:	41f65693          	srai	a3,a2,0x1f
    2ae0:	010b9513          	slli	a0,s7,0x10
    2ae4:	00f585b3          	add	a1,a1,a5
    2ae8:	04d080ef          	jal	b334 <__divdi3>
    2aec:	41f55613          	srai	a2,a0,0x1f
    2af0:	02a607b3          	mul	a5,a2,a0
    2af4:	02a50733          	mul	a4,a0,a0
    2af8:	02a536b3          	mulhu	a3,a0,a0
    2afc:	20d7a7b3          	sh1add	a5,a5,a3
    2b00:	01079793          	slli	a5,a5,0x10
    2b04:	01075713          	srli	a4,a4,0x10
    2b08:	00e78733          	add	a4,a5,a4
    2b0c:	41f75313          	srai	t1,a4,0x1f
    2b10:	02e306b3          	mul	a3,t1,a4
    2b14:	02e707b3          	mul	a5,a4,a4
    2b18:	02e735b3          	mulhu	a1,a4,a4
    2b1c:	20b6a6b3          	sh1add	a3,a3,a1
    2b20:	01069693          	slli	a3,a3,0x10
    2b24:	0107d793          	srli	a5,a5,0x10
    2b28:	00f687b3          	add	a5,a3,a5
    2b2c:	41f7d813          	srai	a6,a5,0x1f
    2b30:	010b1b13          	slli	s6,s6,0x10
    2b34:	41fb5693          	srai	a3,s6,0x1f
    2b38:	0000b8b7          	lui	a7,0xb
    2b3c:	17288893          	addi	a7,a7,370 # b172 <__subdf3+0x62e>
    2b40:	031686b3          	mul	a3,a3,a7
    2b44:	031b05b3          	mul	a1,s6,a7
    2b48:	031b3b33          	mulhu	s6,s6,a7
    2b4c:	016686b3          	add	a3,a3,s6
    2b50:	01069693          	slli	a3,a3,0x10
    2b54:	0105d593          	srli	a1,a1,0x10
    2b58:	00b685b3          	add	a1,a3,a1
    2b5c:	00bb85b3          	add	a1,s7,a1
    2b60:	000028b7          	lui	a7,0x2
    2b64:	5e288893          	addi	a7,a7,1506 # 25e2 <T7_end+0x96>
    2b68:	03180e33          	mul	t3,a6,a7
    2b6c:	031786b3          	mul	a3,a5,a7
    2b70:	0317b8b3          	mulhu	a7,a5,a7
    2b74:	011e08b3          	add	a7,t3,a7
    2b78:	01089893          	slli	a7,a7,0x10
    2b7c:	0106d693          	srli	a3,a3,0x10
    2b80:	00d886b3          	add	a3,a7,a3
    2b84:	000038b7          	lui	a7,0x3
    2b88:	e8d88893          	addi	a7,a7,-371 # 2e8d <T9_start+0x411>
    2b8c:	011686b3          	add	a3,a3,a7
    2b90:	41f6de13          	srai	t3,a3,0x1f
    2b94:	02fe0e33          	mul	t3,t3,a5
    2b98:	02d808b3          	mul	a7,a6,a3
    2b9c:	011e0e33          	add	t3,t3,a7
    2ba0:	02f688b3          	mul	a7,a3,a5
    2ba4:	02f6b6b3          	mulhu	a3,a3,a5
    2ba8:	00de06b3          	add	a3,t3,a3
    2bac:	01069693          	slli	a3,a3,0x10
    2bb0:	0108d893          	srli	a7,a7,0x10
    2bb4:	011688b3          	add	a7,a3,a7
    2bb8:	000056b7          	lui	a3,0x5
    2bbc:	92568693          	addi	a3,a3,-1755 # 4925 <T16_start+0x2ed>
    2bc0:	00d888b3          	add	a7,a7,a3
    2bc4:	41f8de13          	srai	t3,a7,0x1f
    2bc8:	02fe0e33          	mul	t3,t3,a5
    2bcc:	031806b3          	mul	a3,a6,a7
    2bd0:	00de0e33          	add	t3,t3,a3
    2bd4:	02f886b3          	mul	a3,a7,a5
    2bd8:	02f8b8b3          	mulhu	a7,a7,a5
    2bdc:	011e08b3          	add	a7,t3,a7
    2be0:	01089893          	slli	a7,a7,0x10
    2be4:	0106d693          	srli	a3,a3,0x10
    2be8:	00d886b3          	add	a3,a7,a3
    2bec:	0000b8b7          	lui	a7,0xb
    2bf0:	aab88893          	addi	a7,a7,-1365 # aaab <__muldf3+0x54f>
    2bf4:	011686b3          	add	a3,a3,a7
    2bf8:	41f6d893          	srai	a7,a3,0x1f
    2bfc:	02e888b3          	mul	a7,a7,a4
    2c00:	02d30333          	mul	t1,t1,a3
    2c04:	00688333          	add	t1,a7,t1
    2c08:	02e688b3          	mul	a7,a3,a4
    2c0c:	02e6b6b3          	mulhu	a3,a3,a4
    2c10:	00d30733          	add	a4,t1,a3
    2c14:	01071713          	slli	a4,a4,0x10
    2c18:	0108d893          	srli	a7,a7,0x10
    2c1c:	011708b3          	add	a7,a4,a7
    2c20:	00002737          	lui	a4,0x2
    2c24:	73470713          	addi	a4,a4,1844 # 2734 <T8_start+0x13c>
    2c28:	02e80333          	mul	t1,a6,a4
    2c2c:	02e786b3          	mul	a3,a5,a4
    2c30:	02e7b733          	mulhu	a4,a5,a4
    2c34:	00e30733          	add	a4,t1,a4
    2c38:	01071713          	slli	a4,a4,0x10
    2c3c:	0106d693          	srli	a3,a3,0x10
    2c40:	00d706b3          	add	a3,a4,a3
    2c44:	00004737          	lui	a4,0x4
    2c48:	8e470713          	addi	a4,a4,-1820 # 38e4 <T12_start+0x278>
    2c4c:	00e686b3          	add	a3,a3,a4
    2c50:	41f6d313          	srai	t1,a3,0x1f
    2c54:	02f30333          	mul	t1,t1,a5
    2c58:	02d80733          	mul	a4,a6,a3
    2c5c:	00e30333          	add	t1,t1,a4
    2c60:	02f68733          	mul	a4,a3,a5
    2c64:	02f6b6b3          	mulhu	a3,a3,a5
    2c68:	00d306b3          	add	a3,t1,a3
    2c6c:	01069693          	slli	a3,a3,0x10
    2c70:	01075713          	srli	a4,a4,0x10
    2c74:	00e68733          	add	a4,a3,a4
    2c78:	000066b7          	lui	a3,0x6
    2c7c:	66668693          	addi	a3,a3,1638 # 6666 <T25_start+0x41e>
    2c80:	00d70733          	add	a4,a4,a3
    2c84:	41f75693          	srai	a3,a4,0x1f
    2c88:	02f686b3          	mul	a3,a3,a5
    2c8c:	02e80833          	mul	a6,a6,a4
    2c90:	010686b3          	add	a3,a3,a6
    2c94:	02f70833          	mul	a6,a4,a5
    2c98:	02f73733          	mulhu	a4,a4,a5
    2c9c:	00e687b3          	add	a5,a3,a4
    2ca0:	01079793          	slli	a5,a5,0x10
    2ca4:	01085713          	srli	a4,a6,0x10
    2ca8:	00e78733          	add	a4,a5,a4
    2cac:	00e888b3          	add	a7,a7,a4
    2cb0:	411b8bb3          	sub	s7,s7,a7
    2cb4:	41fbd793          	srai	a5,s7,0x1f
    2cb8:	02a787b3          	mul	a5,a5,a0
    2cbc:	03760633          	mul	a2,a2,s7
    2cc0:	00c787b3          	add	a5,a5,a2
    2cc4:	02ab8733          	mul	a4,s7,a0
    2cc8:	02abbbb3          	mulhu	s7,s7,a0
    2ccc:	017787b3          	add	a5,a5,s7
    2cd0:	01079793          	slli	a5,a5,0x10
    2cd4:	01075713          	srli	a4,a4,0x10
    2cd8:	00e78733          	add	a4,a5,a4
    2cdc:	40e585b3          	sub	a1,a1,a4
    2ce0:	1ab12a23          	sw	a1,436(sp)
    2ce4:	00492b83          	lw	s7,4(s2)
    2ce8:	01092603          	lw	a2,16(s2)
    2cec:	02060263          	beqz	a2,2d10 <T9_start+0x294>
    2cf0:	41fbd793          	srai	a5,s7,0x1f
    2cf4:	010bd593          	srli	a1,s7,0x10
    2cf8:	01079793          	slli	a5,a5,0x10
    2cfc:	41f65693          	srai	a3,a2,0x1f
    2d00:	010b9513          	slli	a0,s7,0x10
    2d04:	00f585b3          	add	a1,a1,a5
    2d08:	62c080ef          	jal	b334 <__divdi3>
    2d0c:	00050613          	mv	a2,a0
    2d10:	1ac12c23          	sw	a2,440(sp)
    2d14:	0084ab03          	lw	s6,8(s1)
    2d18:	0b9b67b3          	max	a5,s6,s9
    2d1c:	1af12e23          	sw	a5,444(sp)
    2d20:	416c07b3          	sub	a5,s8,s6
    2d24:	1cf12023          	sw	a5,448(sp)
    2d28:	020c0663          	beqz	s8,2d54 <T9_start+0x2d8>
    2d2c:	0004a503          	lw	a0,0(s1)
    2d30:	41f55793          	srai	a5,a0,0x1f
    2d34:	01055593          	srli	a1,a0,0x10
    2d38:	01079793          	slli	a5,a5,0x10
    2d3c:	000c0613          	mv	a2,s8
    2d40:	41fc5693          	srai	a3,s8,0x1f
    2d44:	01051513          	slli	a0,a0,0x10
    2d48:	00f585b3          	add	a1,a1,a5
    2d4c:	5e8080ef          	jal	b334 <__divdi3>
    2d50:	00050c13          	mv	s8,a0
    2d54:	1d812223          	sw	s8,452(sp)
    2d58:	000107b7          	lui	a5,0x10
    2d5c:	180b8c63          	beqz	s7,2ef4 <T9_start+0x478>
    2d60:	417006b3          	neg	a3,s7
    2d64:	0adbe6b3          	max	a3,s7,a3
    2d68:	41f6d713          	srai	a4,a3,0x1f
    2d6c:	00017637          	lui	a2,0x17
    2d70:	15460613          	addi	a2,a2,340 # 17154 <heap.cpp.6b15d6f6+0x953>
    2d74:	02c70733          	mul	a4,a4,a2
    2d78:	02c687b3          	mul	a5,a3,a2
    2d7c:	02c6b6b3          	mulhu	a3,a3,a2
    2d80:	00d70733          	add	a4,a4,a3
    2d84:	01071713          	slli	a4,a4,0x10
    2d88:	0107d793          	srli	a5,a5,0x10
    2d8c:	00f707b3          	add	a5,a4,a5
    2d90:	00008737          	lui	a4,0x8
    2d94:	00e787b3          	add	a5,a5,a4
    2d98:	ffff0737          	lui	a4,0xffff0
    2d9c:	00e7fc33          	and	s8,a5,a4
    2da0:	1a0bce63          	bltz	s7,2f5c <T9_end+0x34>
    2da4:	41fc5713          	srai	a4,s8,0x1f
    2da8:	0000b6b7          	lui	a3,0xb
    2dac:	17268693          	addi	a3,a3,370 # b172 <__subdf3+0x62e>
    2db0:	02d70733          	mul	a4,a4,a3
    2db4:	02dc07b3          	mul	a5,s8,a3
    2db8:	02dc36b3          	mulhu	a3,s8,a3
    2dbc:	00d70733          	add	a4,a4,a3
    2dc0:	01071713          	slli	a4,a4,0x10
    2dc4:	0107d793          	srli	a5,a5,0x10
    2dc8:	00f707b3          	add	a5,a4,a5
    2dcc:	40fb87b3          	sub	a5,s7,a5
    2dd0:	41f7d693          	srai	a3,a5,0x1f
    2dd4:	02f686b3          	mul	a3,a3,a5
    2dd8:	02f78733          	mul	a4,a5,a5
    2ddc:	02f7b633          	mulhu	a2,a5,a5
    2de0:	20c6a6b3          	sh1add	a3,a3,a2
    2de4:	01069693          	slli	a3,a3,0x10
    2de8:	01075713          	srli	a4,a4,0x10
    2dec:	00e68733          	add	a4,a3,a4
    2df0:	41f75513          	srai	a0,a4,0x1f
    2df4:	01e75693          	srli	a3,a4,0x1e
    2df8:	20d546b3          	sh2add	a3,a0,a3
    2dfc:	00271613          	slli	a2,a4,0x2
    2e00:	01069693          	slli	a3,a3,0x10
    2e04:	01065613          	srli	a2,a2,0x10
    2e08:	00c68633          	add	a2,a3,a2
    2e0c:	f4a60613          	addi	a2,a2,-182
    2e10:	41f65593          	srai	a1,a2,0x1f
    2e14:	02e585b3          	mul	a1,a1,a4
    2e18:	02c506b3          	mul	a3,a0,a2
    2e1c:	00d585b3          	add	a1,a1,a3
    2e20:	02e606b3          	mul	a3,a2,a4
    2e24:	02e63633          	mulhu	a2,a2,a4
    2e28:	00c58633          	add	a2,a1,a2
    2e2c:	01061613          	slli	a2,a2,0x10
    2e30:	0106d693          	srli	a3,a3,0x10
    2e34:	00d606b3          	add	a3,a2,a3
    2e38:	00003637          	lui	a2,0x3
    2e3c:	aab60613          	addi	a2,a2,-1365 # 2aab <T9_start+0x2f>
    2e40:	00c686b3          	add	a3,a3,a2
    2e44:	41f6d613          	srai	a2,a3,0x1f
    2e48:	02e60633          	mul	a2,a2,a4
    2e4c:	02d50533          	mul	a0,a0,a3
    2e50:	00a60633          	add	a2,a2,a0
    2e54:	02e685b3          	mul	a1,a3,a4
    2e58:	02e6b6b3          	mulhu	a3,a3,a4
    2e5c:	00d60733          	add	a4,a2,a3
    2e60:	01071713          	slli	a4,a4,0x10
    2e64:	0105d693          	srli	a3,a1,0x10
    2e68:	00d706b3          	add	a3,a4,a3
    2e6c:	00020737          	lui	a4,0x20
    2e70:	00e686b3          	add	a3,a3,a4
    2e74:	40f68633          	sub	a2,a3,a5
    2e78:	02f68c63          	beq	a3,a5,2eb0 <T9_start+0x434>
    2e7c:	00f7d713          	srli	a4,a5,0xf
    2e80:	01179793          	slli	a5,a5,0x11
    2e84:	01071713          	slli	a4,a4,0x10
    2e88:	0107d793          	srli	a5,a5,0x10
    2e8c:	00f707b3          	add	a5,a4,a5
    2e90:	41f7d713          	srai	a4,a5,0x1f
    2e94:	0107d593          	srli	a1,a5,0x10
    2e98:	01071713          	slli	a4,a4,0x10
    2e9c:	41f65693          	srai	a3,a2,0x1f
    2ea0:	01079513          	slli	a0,a5,0x10
    2ea4:	00e585b3          	add	a1,a1,a4
    2ea8:	48c080ef          	jal	b334 <__divdi3>
    2eac:	00050613          	mv	a2,a0
    2eb0:	000107b7          	lui	a5,0x10
    2eb4:	00f606b3          	add	a3,a2,a5
    2eb8:	0a0c4663          	bltz	s8,2f64 <T9_end+0x3c>
    2ebc:	410c5793          	srai	a5,s8,0x10
    2ec0:	00010737          	lui	a4,0x10
    2ec4:	00f71733          	sll	a4,a4,a5
    2ec8:	41f75793          	srai	a5,a4,0x1f
    2ecc:	41f6d613          	srai	a2,a3,0x1f
    2ed0:	02d787b3          	mul	a5,a5,a3
    2ed4:	02e60633          	mul	a2,a2,a4
    2ed8:	00c787b3          	add	a5,a5,a2
    2edc:	02d70633          	mul	a2,a4,a3
    2ee0:	02d73733          	mulhu	a4,a4,a3
    2ee4:	00e787b3          	add	a5,a5,a4
    2ee8:	01079793          	slli	a5,a5,0x10
    2eec:	01065713          	srli	a4,a2,0x10
    2ef0:	00e787b3          	add	a5,a5,a4
    2ef4:	1cf12423          	sw	a5,456(sp)
    2ef8:	020b0663          	beqz	s6,2f24 <T9_start+0x4a8>
    2efc:	00092503          	lw	a0,0(s2)
    2f00:	41f55793          	srai	a5,a0,0x1f
    2f04:	01055593          	srli	a1,a0,0x10
    2f08:	01079793          	slli	a5,a5,0x10
    2f0c:	000b0613          	mv	a2,s6
    2f10:	41fb5693          	srai	a3,s6,0x1f
    2f14:	01051513          	slli	a0,a0,0x10
    2f18:	00f585b3          	add	a1,a1,a5
    2f1c:	418080ef          	jal	b334 <__divdi3>
    2f20:	00050b13          	mv	s6,a0
    2f24:	1d612623          	sw	s6,460(sp)

00002f28 <T9_end>:
    2f28:	b00027f3          	csrr	a5,mcycle
    2f2c:	41b787b3          	sub	a5,a5,s11
    2f30:	02f9a223          	sw	a5,36(s3)
    2f34:	1b012603          	lw	a2,432(sp)
    2f38:	1b010713          	addi	a4,sp,432
    2f3c:	00000513          	li	a0,0
    2f40:	00100793          	li	a5,1
    2f44:	00800593          	li	a1,8
    2f48:	03c0006f          	j	2f84 <T9_end+0x5c>
    2f4c:	00000b13          	li	s6,0
    2f50:	b71ff06f          	j	2ac0 <T9_start+0x44>
    2f54:	fff00593          	li	a1,-1
    2f58:	d89ff06f          	j	2ce0 <T9_start+0x264>
    2f5c:	41800c33          	neg	s8,s8
    2f60:	e45ff06f          	j	2da4 <T9_start+0x328>
    2f64:	418007b3          	neg	a5,s8
    2f68:	4107d793          	srai	a5,a5,0x10
    2f6c:	00010737          	lui	a4,0x10
    2f70:	40f75733          	sra	a4,a4,a5
    2f74:	f55ff06f          	j	2ec8 <T9_start+0x44c>
    2f78:	00178793          	addi	a5,a5,1 # 10001 <fast_intr_ctrl.c.233e5230+0x208>
    2f7c:	00470713          	addi	a4,a4,4 # 10004 <fast_intr_ctrl.c.233e5230+0x20b>
    2f80:	00b78c63          	beq	a5,a1,2f98 <T9_end+0x70>
    2f84:	00472683          	lw	a3,4(a4)
    2f88:	fec6c8e3          	blt	a3,a2,2f78 <T9_end+0x50>
    2f8c:	00068613          	mv	a2,a3
    2f90:	00078513          	mv	a0,a5
    2f94:	fe5ff06f          	j	2f78 <T9_end+0x50>
    2f98:	00020737          	lui	a4,0x20
    2f9c:	000207b7          	lui	a5,0x20
    2fa0:	15078793          	addi	a5,a5,336 # 20150 <next.18>
    2fa4:	20f54533          	sh2add	a0,a0,a5
    2fa8:	00052783          	lw	a5,0(a0)
    2fac:	1fc70713          	addi	a4,a4,508 # 201fc <jump_table.28>
    2fb0:	20e7c7b3          	sh2add	a5,a5,a4
    2fb4:	0007a783          	lw	a5,0(a5)
    2fb8:	1f012d83          	lw	s11,496(sp)
    2fbc:	be5fd06f          	j	ba0 <inferenceTPG+0x50>

00002fc0 <T10_start>:
    2fc0:	b0002bf3          	csrr	s7,mcycle
    2fc4:	01092683          	lw	a3,16(s2)
    2fc8:	00000593          	li	a1,0
    2fcc:	2406c063          	bltz	a3,320c <T10_start+0x24c>
    2fd0:	44068463          	beqz	a3,3418 <T10_end+0x5c>
    2fd4:	000207b7          	lui	a5,0x20
    2fd8:	42d7dc63          	bge	a5,a3,3410 <T10_end+0x54>
    2fdc:	00000c13          	li	s8,0
    2fe0:	4016d693          	srai	a3,a3,0x1
    2fe4:	001c0c13          	addi	s8,s8,1
    2fe8:	fed7cce3          	blt	a5,a3,2fe0 <T10_start+0x20>
    2fec:	ffff0b37          	lui	s6,0xffff0
    2ff0:	01668b33          	add	s6,a3,s6
    2ff4:	41fb5793          	srai	a5,s6,0x1f
    2ff8:	010b5593          	srli	a1,s6,0x10
    2ffc:	01079793          	slli	a5,a5,0x10
    3000:	00010737          	lui	a4,0x10
    3004:	00e68633          	add	a2,a3,a4
    3008:	41f65693          	srai	a3,a2,0x1f
    300c:	010b1513          	slli	a0,s6,0x10
    3010:	00f585b3          	add	a1,a1,a5
    3014:	320080ef          	jal	b334 <__divdi3>
    3018:	41f55613          	srai	a2,a0,0x1f
    301c:	02a607b3          	mul	a5,a2,a0
    3020:	02a506b3          	mul	a3,a0,a0
    3024:	02a53733          	mulhu	a4,a0,a0
    3028:	20e7a7b3          	sh1add	a5,a5,a4
    302c:	01079793          	slli	a5,a5,0x10
    3030:	0106d693          	srli	a3,a3,0x10
    3034:	00d786b3          	add	a3,a5,a3
    3038:	41f6d313          	srai	t1,a3,0x1f
    303c:	02d307b3          	mul	a5,t1,a3
    3040:	02d68733          	mul	a4,a3,a3
    3044:	02d6b5b3          	mulhu	a1,a3,a3
    3048:	20b7a7b3          	sh1add	a5,a5,a1
    304c:	01079793          	slli	a5,a5,0x10
    3050:	01075713          	srli	a4,a4,0x10
    3054:	00e78733          	add	a4,a5,a4
    3058:	41f75813          	srai	a6,a4,0x1f
    305c:	010c1793          	slli	a5,s8,0x10
    3060:	41f7d893          	srai	a7,a5,0x1f
    3064:	0000be37          	lui	t3,0xb
    3068:	172e0e13          	addi	t3,t3,370 # b172 <__subdf3+0x62e>
    306c:	03c888b3          	mul	a7,a7,t3
    3070:	03c785b3          	mul	a1,a5,t3
    3074:	03c7b7b3          	mulhu	a5,a5,t3
    3078:	00f887b3          	add	a5,a7,a5
    307c:	01079793          	slli	a5,a5,0x10
    3080:	0105d593          	srli	a1,a1,0x10
    3084:	00b785b3          	add	a1,a5,a1
    3088:	00bb05b3          	add	a1,s6,a1
    308c:	000028b7          	lui	a7,0x2
    3090:	5e288893          	addi	a7,a7,1506 # 25e2 <T7_end+0x96>
    3094:	03180e33          	mul	t3,a6,a7
    3098:	031707b3          	mul	a5,a4,a7
    309c:	031738b3          	mulhu	a7,a4,a7
    30a0:	011e08b3          	add	a7,t3,a7
    30a4:	01089893          	slli	a7,a7,0x10
    30a8:	0107d793          	srli	a5,a5,0x10
    30ac:	00f887b3          	add	a5,a7,a5
    30b0:	000038b7          	lui	a7,0x3
    30b4:	e8d88893          	addi	a7,a7,-371 # 2e8d <T9_start+0x411>
    30b8:	011787b3          	add	a5,a5,a7
    30bc:	41f7de13          	srai	t3,a5,0x1f
    30c0:	02ee0e33          	mul	t3,t3,a4
    30c4:	02f808b3          	mul	a7,a6,a5
    30c8:	011e0e33          	add	t3,t3,a7
    30cc:	02e788b3          	mul	a7,a5,a4
    30d0:	02e7b7b3          	mulhu	a5,a5,a4
    30d4:	00fe07b3          	add	a5,t3,a5
    30d8:	01079793          	slli	a5,a5,0x10
    30dc:	0108d893          	srli	a7,a7,0x10
    30e0:	011788b3          	add	a7,a5,a7
    30e4:	000057b7          	lui	a5,0x5
    30e8:	92578793          	addi	a5,a5,-1755 # 4925 <T16_start+0x2ed>
    30ec:	00f888b3          	add	a7,a7,a5
    30f0:	41f8de13          	srai	t3,a7,0x1f
    30f4:	02ee0e33          	mul	t3,t3,a4
    30f8:	031807b3          	mul	a5,a6,a7
    30fc:	00fe0e33          	add	t3,t3,a5
    3100:	02e887b3          	mul	a5,a7,a4
    3104:	02e8b8b3          	mulhu	a7,a7,a4
    3108:	011e08b3          	add	a7,t3,a7
    310c:	01089893          	slli	a7,a7,0x10
    3110:	0107d793          	srli	a5,a5,0x10
    3114:	00f887b3          	add	a5,a7,a5
    3118:	0000b8b7          	lui	a7,0xb
    311c:	aab88893          	addi	a7,a7,-1365 # aaab <__muldf3+0x54f>
    3120:	011787b3          	add	a5,a5,a7
    3124:	41f7d893          	srai	a7,a5,0x1f
    3128:	02d888b3          	mul	a7,a7,a3
    312c:	02f30333          	mul	t1,t1,a5
    3130:	00688333          	add	t1,a7,t1
    3134:	02d788b3          	mul	a7,a5,a3
    3138:	02d7b7b3          	mulhu	a5,a5,a3
    313c:	00f307b3          	add	a5,t1,a5
    3140:	01079793          	slli	a5,a5,0x10
    3144:	0108d893          	srli	a7,a7,0x10
    3148:	011788b3          	add	a7,a5,a7
    314c:	000027b7          	lui	a5,0x2
    3150:	73478793          	addi	a5,a5,1844 # 2734 <T8_start+0x13c>
    3154:	02f80333          	mul	t1,a6,a5
    3158:	02f706b3          	mul	a3,a4,a5
    315c:	02f737b3          	mulhu	a5,a4,a5
    3160:	00f307b3          	add	a5,t1,a5
    3164:	01079793          	slli	a5,a5,0x10
    3168:	0106d693          	srli	a3,a3,0x10
    316c:	00d786b3          	add	a3,a5,a3
    3170:	000047b7          	lui	a5,0x4
    3174:	8e478793          	addi	a5,a5,-1820 # 38e4 <T12_start+0x278>
    3178:	00f686b3          	add	a3,a3,a5
    317c:	41f6d313          	srai	t1,a3,0x1f
    3180:	02e30333          	mul	t1,t1,a4
    3184:	02d807b3          	mul	a5,a6,a3
    3188:	00f30333          	add	t1,t1,a5
    318c:	02e687b3          	mul	a5,a3,a4
    3190:	02e6b6b3          	mulhu	a3,a3,a4
    3194:	00d306b3          	add	a3,t1,a3
    3198:	01069693          	slli	a3,a3,0x10
    319c:	0107d793          	srli	a5,a5,0x10
    31a0:	00f687b3          	add	a5,a3,a5
    31a4:	000066b7          	lui	a3,0x6
    31a8:	66668693          	addi	a3,a3,1638 # 6666 <T25_start+0x41e>
    31ac:	00d787b3          	add	a5,a5,a3
    31b0:	41f7d693          	srai	a3,a5,0x1f
    31b4:	02e686b3          	mul	a3,a3,a4
    31b8:	02f80833          	mul	a6,a6,a5
    31bc:	010686b3          	add	a3,a3,a6
    31c0:	02e78833          	mul	a6,a5,a4
    31c4:	02e7b7b3          	mulhu	a5,a5,a4
    31c8:	00f687b3          	add	a5,a3,a5
    31cc:	01079793          	slli	a5,a5,0x10
    31d0:	01085713          	srli	a4,a6,0x10
    31d4:	00e78733          	add	a4,a5,a4
    31d8:	00e888b3          	add	a7,a7,a4
    31dc:	411b0b33          	sub	s6,s6,a7
    31e0:	41fb5793          	srai	a5,s6,0x1f
    31e4:	02a787b3          	mul	a5,a5,a0
    31e8:	03660633          	mul	a2,a2,s6
    31ec:	00c787b3          	add	a5,a5,a2
    31f0:	02ab0733          	mul	a4,s6,a0
    31f4:	02ab3b33          	mulhu	s6,s6,a0
    31f8:	016787b3          	add	a5,a5,s6
    31fc:	01079793          	slli	a5,a5,0x10
    3200:	01075713          	srli	a4,a4,0x10
    3204:	00e78733          	add	a4,a5,a4
    3208:	40e585b3          	sub	a1,a1,a4
    320c:	02b12e23          	sw	a1,60(sp)
    3210:	0044a783          	lw	a5,4(s1)
    3214:	00179713          	slli	a4,a5,0x1
    3218:	04e12023          	sw	a4,64(sp)
    321c:	00010737          	lui	a4,0x10
    3220:	18078c63          	beqz	a5,33b8 <T10_start+0x3f8>
    3224:	40f006b3          	neg	a3,a5
    3228:	0ad7e6b3          	max	a3,a5,a3
    322c:	41f6d713          	srai	a4,a3,0x1f
    3230:	00017637          	lui	a2,0x17
    3234:	15460613          	addi	a2,a2,340 # 17154 <heap.cpp.6b15d6f6+0x953>
    3238:	02c70733          	mul	a4,a4,a2
    323c:	02c68b33          	mul	s6,a3,a2
    3240:	02c6b6b3          	mulhu	a3,a3,a2
    3244:	00d70733          	add	a4,a4,a3
    3248:	01071713          	slli	a4,a4,0x10
    324c:	010b5b13          	srli	s6,s6,0x10
    3250:	01670b33          	add	s6,a4,s6
    3254:	00008737          	lui	a4,0x8
    3258:	00eb0b33          	add	s6,s6,a4
    325c:	ffff0737          	lui	a4,0xffff0
    3260:	00eb7b33          	and	s6,s6,a4
    3264:	1a07ce63          	bltz	a5,3420 <T10_end+0x64>
    3268:	41fb5713          	srai	a4,s6,0x1f
    326c:	0000b6b7          	lui	a3,0xb
    3270:	17268693          	addi	a3,a3,370 # b172 <__subdf3+0x62e>
    3274:	02d70733          	mul	a4,a4,a3
    3278:	02db0633          	mul	a2,s6,a3
    327c:	02db36b3          	mulhu	a3,s6,a3
    3280:	00d70733          	add	a4,a4,a3
    3284:	01071713          	slli	a4,a4,0x10
    3288:	01065693          	srli	a3,a2,0x10
    328c:	00d706b3          	add	a3,a4,a3
    3290:	40d787b3          	sub	a5,a5,a3
    3294:	41f7d693          	srai	a3,a5,0x1f
    3298:	02f686b3          	mul	a3,a3,a5
    329c:	02f78733          	mul	a4,a5,a5
    32a0:	02f7b633          	mulhu	a2,a5,a5
    32a4:	20c6a6b3          	sh1add	a3,a3,a2
    32a8:	01069693          	slli	a3,a3,0x10
    32ac:	01075713          	srli	a4,a4,0x10
    32b0:	00e68733          	add	a4,a3,a4
    32b4:	41f75513          	srai	a0,a4,0x1f
    32b8:	01e75693          	srli	a3,a4,0x1e
    32bc:	20d546b3          	sh2add	a3,a0,a3
    32c0:	00271613          	slli	a2,a4,0x2
    32c4:	01069693          	slli	a3,a3,0x10
    32c8:	01065613          	srli	a2,a2,0x10
    32cc:	00c68633          	add	a2,a3,a2
    32d0:	f4a60613          	addi	a2,a2,-182
    32d4:	41f65593          	srai	a1,a2,0x1f
    32d8:	02e585b3          	mul	a1,a1,a4
    32dc:	02c506b3          	mul	a3,a0,a2
    32e0:	00d585b3          	add	a1,a1,a3
    32e4:	02e606b3          	mul	a3,a2,a4
    32e8:	02e63633          	mulhu	a2,a2,a4
    32ec:	00c58633          	add	a2,a1,a2
    32f0:	01061613          	slli	a2,a2,0x10
    32f4:	0106d693          	srli	a3,a3,0x10
    32f8:	00d606b3          	add	a3,a2,a3
    32fc:	00003637          	lui	a2,0x3
    3300:	aab60613          	addi	a2,a2,-1365 # 2aab <T9_start+0x2f>
    3304:	00c686b3          	add	a3,a3,a2
    3308:	41f6d613          	srai	a2,a3,0x1f
    330c:	02e60633          	mul	a2,a2,a4
    3310:	02d50533          	mul	a0,a0,a3
    3314:	00a60633          	add	a2,a2,a0
    3318:	02e685b3          	mul	a1,a3,a4
    331c:	02e6b6b3          	mulhu	a3,a3,a4
    3320:	00d60733          	add	a4,a2,a3
    3324:	01071713          	slli	a4,a4,0x10
    3328:	0105d693          	srli	a3,a1,0x10
    332c:	00d706b3          	add	a3,a4,a3
    3330:	00020737          	lui	a4,0x20
    3334:	00e686b3          	add	a3,a3,a4
    3338:	40f68633          	sub	a2,a3,a5
    333c:	02f68c63          	beq	a3,a5,3374 <T10_start+0x3b4>
    3340:	00f7d713          	srli	a4,a5,0xf
    3344:	01179793          	slli	a5,a5,0x11
    3348:	01071713          	slli	a4,a4,0x10
    334c:	0107d793          	srli	a5,a5,0x10
    3350:	00f707b3          	add	a5,a4,a5
    3354:	41f7d713          	srai	a4,a5,0x1f
    3358:	0107d593          	srli	a1,a5,0x10
    335c:	01071713          	slli	a4,a4,0x10
    3360:	41f65693          	srai	a3,a2,0x1f
    3364:	01079513          	slli	a0,a5,0x10
    3368:	00e585b3          	add	a1,a1,a4
    336c:	7c9070ef          	jal	b334 <__divdi3>
    3370:	00050613          	mv	a2,a0
    3374:	000107b7          	lui	a5,0x10
    3378:	00f606b3          	add	a3,a2,a5
    337c:	0a0b4663          	bltz	s6,3428 <T10_end+0x6c>
    3380:	410b5b13          	srai	s6,s6,0x10
    3384:	000107b7          	lui	a5,0x10
    3388:	016797b3          	sll	a5,a5,s6
    338c:	41f7d713          	srai	a4,a5,0x1f
    3390:	41f6d613          	srai	a2,a3,0x1f
    3394:	02d70733          	mul	a4,a4,a3
    3398:	02f60633          	mul	a2,a2,a5
    339c:	00c70733          	add	a4,a4,a2
    33a0:	02d78633          	mul	a2,a5,a3
    33a4:	02d7b7b3          	mulhu	a5,a5,a3
    33a8:	00f70733          	add	a4,a4,a5
    33ac:	01071713          	slli	a4,a4,0x10
    33b0:	01065793          	srli	a5,a2,0x10
    33b4:	00f70733          	add	a4,a4,a5
    33b8:	04e12223          	sw	a4,68(sp)

000033bc <T10_end>:
    33bc:	b00027f3          	csrr	a5,mcycle
    33c0:	417787b3          	sub	a5,a5,s7
    33c4:	02f9a423          	sw	a5,40(s3)
    33c8:	03c12683          	lw	a3,60(sp)
    33cc:	04012703          	lw	a4,64(sp)
    33d0:	00100793          	li	a5,1
    33d4:	00d75663          	bge	a4,a3,33e0 <T10_end+0x24>
    33d8:	00068713          	mv	a4,a3
    33dc:	00000793          	li	a5,0
    33e0:	04412683          	lw	a3,68(sp)
    33e4:	00e6c463          	blt	a3,a4,33ec <T10_end+0x30>
    33e8:	00200793          	li	a5,2
    33ec:	00020737          	lui	a4,0x20
    33f0:	000206b7          	lui	a3,0x20
    33f4:	14468693          	addi	a3,a3,324 # 20144 <next.17>
    33f8:	20d7c7b3          	sh2add	a5,a5,a3
    33fc:	0007a783          	lw	a5,0(a5) # 10000 <fast_intr_ctrl.c.233e5230+0x207>
    3400:	1fc70713          	addi	a4,a4,508 # 201fc <jump_table.28>
    3404:	20e7c7b3          	sh2add	a5,a5,a4
    3408:	0007a783          	lw	a5,0(a5)
    340c:	f94fd06f          	j	ba0 <inferenceTPG+0x50>
    3410:	00000c13          	li	s8,0
    3414:	bd9ff06f          	j	2fec <T10_start+0x2c>
    3418:	fff00593          	li	a1,-1
    341c:	df1ff06f          	j	320c <T10_start+0x24c>
    3420:	41600b33          	neg	s6,s6
    3424:	e45ff06f          	j	3268 <T10_start+0x2a8>
    3428:	41600733          	neg	a4,s6
    342c:	41075713          	srai	a4,a4,0x10
    3430:	40e7d7b3          	sra	a5,a5,a4
    3434:	f59ff06f          	j	338c <T10_start+0x3cc>

00003438 <T11_start>:
    3438:	b0002bf3          	csrr	s7,mcycle
    343c:	004aa783          	lw	a5,4(s5)
    3440:	000aa703          	lw	a4,0(s5)
    3444:	0ae7e7b3          	max	a5,a5,a4
    3448:	04f12423          	sw	a5,72(sp)
    344c:	0044a783          	lw	a5,4(s1)
    3450:	000106b7          	lui	a3,0x10
    3454:	18078c63          	beqz	a5,35ec <T11_start+0x1b4>
    3458:	40f00633          	neg	a2,a5
    345c:	0ac7e633          	max	a2,a5,a2
    3460:	41f65693          	srai	a3,a2,0x1f
    3464:	00017737          	lui	a4,0x17
    3468:	15470713          	addi	a4,a4,340 # 17154 <heap.cpp.6b15d6f6+0x953>
    346c:	02e686b3          	mul	a3,a3,a4
    3470:	02e60b33          	mul	s6,a2,a4
    3474:	02e63633          	mulhu	a2,a2,a4
    3478:	00c686b3          	add	a3,a3,a2
    347c:	01069693          	slli	a3,a3,0x10
    3480:	010b5b13          	srli	s6,s6,0x10
    3484:	01668b33          	add	s6,a3,s6
    3488:	00008737          	lui	a4,0x8
    348c:	00eb0b33          	add	s6,s6,a4
    3490:	ffff0737          	lui	a4,0xffff0
    3494:	00eb7b33          	and	s6,s6,a4
    3498:	1a07ce63          	bltz	a5,3654 <T11_end+0x54>
    349c:	41fb5693          	srai	a3,s6,0x1f
    34a0:	0000b637          	lui	a2,0xb
    34a4:	17260613          	addi	a2,a2,370 # b172 <__subdf3+0x62e>
    34a8:	02c686b3          	mul	a3,a3,a2
    34ac:	02cb0733          	mul	a4,s6,a2
    34b0:	02cb3633          	mulhu	a2,s6,a2
    34b4:	00c686b3          	add	a3,a3,a2
    34b8:	01069693          	slli	a3,a3,0x10
    34bc:	01075713          	srli	a4,a4,0x10
    34c0:	00e68733          	add	a4,a3,a4
    34c4:	40e78733          	sub	a4,a5,a4
    34c8:	41f75693          	srai	a3,a4,0x1f
    34cc:	02e686b3          	mul	a3,a3,a4
    34d0:	02e707b3          	mul	a5,a4,a4
    34d4:	02e73633          	mulhu	a2,a4,a4
    34d8:	20c6a6b3          	sh1add	a3,a3,a2
    34dc:	01069693          	slli	a3,a3,0x10
    34e0:	0107d793          	srli	a5,a5,0x10
    34e4:	00f687b3          	add	a5,a3,a5
    34e8:	41f7d513          	srai	a0,a5,0x1f
    34ec:	01e7d693          	srli	a3,a5,0x1e
    34f0:	20d546b3          	sh2add	a3,a0,a3
    34f4:	00279613          	slli	a2,a5,0x2
    34f8:	01069693          	slli	a3,a3,0x10
    34fc:	01065613          	srli	a2,a2,0x10
    3500:	00c68633          	add	a2,a3,a2
    3504:	f4a60613          	addi	a2,a2,-182
    3508:	41f65593          	srai	a1,a2,0x1f
    350c:	02f585b3          	mul	a1,a1,a5
    3510:	02c506b3          	mul	a3,a0,a2
    3514:	00d585b3          	add	a1,a1,a3
    3518:	02f606b3          	mul	a3,a2,a5
    351c:	02f63633          	mulhu	a2,a2,a5
    3520:	00c58633          	add	a2,a1,a2
    3524:	01061613          	slli	a2,a2,0x10
    3528:	0106d693          	srli	a3,a3,0x10
    352c:	00d606b3          	add	a3,a2,a3
    3530:	00003637          	lui	a2,0x3
    3534:	aab60613          	addi	a2,a2,-1365 # 2aab <T9_start+0x2f>
    3538:	00c686b3          	add	a3,a3,a2
    353c:	41f6d613          	srai	a2,a3,0x1f
    3540:	02f60633          	mul	a2,a2,a5
    3544:	02d50533          	mul	a0,a0,a3
    3548:	00a60633          	add	a2,a2,a0
    354c:	02f685b3          	mul	a1,a3,a5
    3550:	02f6b6b3          	mulhu	a3,a3,a5
    3554:	00d607b3          	add	a5,a2,a3
    3558:	01079793          	slli	a5,a5,0x10
    355c:	0105d693          	srli	a3,a1,0x10
    3560:	00d786b3          	add	a3,a5,a3
    3564:	000207b7          	lui	a5,0x20
    3568:	00f686b3          	add	a3,a3,a5
    356c:	40e68633          	sub	a2,a3,a4
    3570:	02e68c63          	beq	a3,a4,35a8 <T11_start+0x170>
    3574:	00f75693          	srli	a3,a4,0xf
    3578:	01171793          	slli	a5,a4,0x11
    357c:	01069713          	slli	a4,a3,0x10
    3580:	0107d793          	srli	a5,a5,0x10
    3584:	00f707b3          	add	a5,a4,a5
    3588:	41f7d713          	srai	a4,a5,0x1f
    358c:	0107d593          	srli	a1,a5,0x10
    3590:	01071713          	slli	a4,a4,0x10
    3594:	41f65693          	srai	a3,a2,0x1f
    3598:	01079513          	slli	a0,a5,0x10
    359c:	00e585b3          	add	a1,a1,a4
    35a0:	595070ef          	jal	b334 <__divdi3>
    35a4:	00050613          	mv	a2,a0
    35a8:	000107b7          	lui	a5,0x10
    35ac:	00f60633          	add	a2,a2,a5
    35b0:	0a0b4663          	bltz	s6,365c <T11_end+0x5c>
    35b4:	410b5b13          	srai	s6,s6,0x10
    35b8:	000107b7          	lui	a5,0x10
    35bc:	016797b3          	sll	a5,a5,s6
    35c0:	41f7d693          	srai	a3,a5,0x1f
    35c4:	41f65713          	srai	a4,a2,0x1f
    35c8:	02c686b3          	mul	a3,a3,a2
    35cc:	02f70733          	mul	a4,a4,a5
    35d0:	00e686b3          	add	a3,a3,a4
    35d4:	02c78733          	mul	a4,a5,a2
    35d8:	02c7b7b3          	mulhu	a5,a5,a2
    35dc:	00f686b3          	add	a3,a3,a5
    35e0:	01069693          	slli	a3,a3,0x10
    35e4:	01075793          	srli	a5,a4,0x10
    35e8:	00f686b3          	add	a3,a3,a5
    35ec:	04d12623          	sw	a3,76(sp)
    35f0:	000a2783          	lw	a5,0(s4)
    35f4:	0084a703          	lw	a4,8(s1)
    35f8:	0ae7e7b3          	max	a5,a5,a4
    35fc:	04f12823          	sw	a5,80(sp)

00003600 <T11_end>:
    3600:	b00027f3          	csrr	a5,mcycle
    3604:	417787b3          	sub	a5,a5,s7
    3608:	02f9a623          	sw	a5,44(s3)
    360c:	04812683          	lw	a3,72(sp)
    3610:	04c12703          	lw	a4,76(sp)
    3614:	00100793          	li	a5,1
    3618:	00d75663          	bge	a4,a3,3624 <T11_end+0x24>
    361c:	00068713          	mv	a4,a3
    3620:	00000793          	li	a5,0
    3624:	05012683          	lw	a3,80(sp)
    3628:	00e6c463          	blt	a3,a4,3630 <T11_end+0x30>
    362c:	00200793          	li	a5,2
    3630:	00020737          	lui	a4,0x20
    3634:	000206b7          	lui	a3,0x20
    3638:	13868693          	addi	a3,a3,312 # 20138 <next.16>
    363c:	20d7c7b3          	sh2add	a5,a5,a3
    3640:	0007a783          	lw	a5,0(a5) # 10000 <fast_intr_ctrl.c.233e5230+0x207>
    3644:	1fc70713          	addi	a4,a4,508 # 201fc <jump_table.28>
    3648:	20e7c7b3          	sh2add	a5,a5,a4
    364c:	0007a783          	lw	a5,0(a5)
    3650:	d50fd06f          	j	ba0 <inferenceTPG+0x50>
    3654:	41600b33          	neg	s6,s6
    3658:	e45ff06f          	j	349c <T11_start+0x64>
    365c:	41600733          	neg	a4,s6
    3660:	41075713          	srai	a4,a4,0x10
    3664:	40e7d7b3          	sra	a5,a5,a4
    3668:	f59ff06f          	j	35c0 <T11_start+0x188>

0000366c <T12_start>:
    366c:	b0002b73          	csrr	s6,mcycle
    3670:	00492783          	lw	a5,4(s2)
    3674:	000106b7          	lui	a3,0x10
    3678:	18078c63          	beqz	a5,3810 <T12_start+0x1a4>
    367c:	40f00633          	neg	a2,a5
    3680:	0ac7e633          	max	a2,a5,a2
    3684:	41f65693          	srai	a3,a2,0x1f
    3688:	00017737          	lui	a4,0x17
    368c:	15470713          	addi	a4,a4,340 # 17154 <heap.cpp.6b15d6f6+0x953>
    3690:	02e686b3          	mul	a3,a3,a4
    3694:	02e60bb3          	mul	s7,a2,a4
    3698:	02e63633          	mulhu	a2,a2,a4
    369c:	00c686b3          	add	a3,a3,a2
    36a0:	01069693          	slli	a3,a3,0x10
    36a4:	010bdb93          	srli	s7,s7,0x10
    36a8:	01768bb3          	add	s7,a3,s7
    36ac:	00008737          	lui	a4,0x8
    36b0:	00eb8bb3          	add	s7,s7,a4
    36b4:	ffff0737          	lui	a4,0xffff0
    36b8:	00ebfbb3          	and	s7,s7,a4
    36bc:	3407c463          	bltz	a5,3a04 <T12_end+0x24>
    36c0:	41fbd693          	srai	a3,s7,0x1f
    36c4:	0000b637          	lui	a2,0xb
    36c8:	17260613          	addi	a2,a2,370 # b172 <__subdf3+0x62e>
    36cc:	02c686b3          	mul	a3,a3,a2
    36d0:	02cb8733          	mul	a4,s7,a2
    36d4:	02cbb633          	mulhu	a2,s7,a2
    36d8:	00c686b3          	add	a3,a3,a2
    36dc:	01069693          	slli	a3,a3,0x10
    36e0:	01075713          	srli	a4,a4,0x10
    36e4:	00e68733          	add	a4,a3,a4
    36e8:	40e78733          	sub	a4,a5,a4
    36ec:	41f75693          	srai	a3,a4,0x1f
    36f0:	02e686b3          	mul	a3,a3,a4
    36f4:	02e707b3          	mul	a5,a4,a4
    36f8:	02e73633          	mulhu	a2,a4,a4
    36fc:	20c6a6b3          	sh1add	a3,a3,a2
    3700:	01069693          	slli	a3,a3,0x10
    3704:	0107d793          	srli	a5,a5,0x10
    3708:	00f687b3          	add	a5,a3,a5
    370c:	41f7d513          	srai	a0,a5,0x1f
    3710:	01e7d693          	srli	a3,a5,0x1e
    3714:	20d546b3          	sh2add	a3,a0,a3
    3718:	00279613          	slli	a2,a5,0x2
    371c:	01069693          	slli	a3,a3,0x10
    3720:	01065613          	srli	a2,a2,0x10
    3724:	00c68633          	add	a2,a3,a2
    3728:	f4a60613          	addi	a2,a2,-182
    372c:	41f65593          	srai	a1,a2,0x1f
    3730:	02f585b3          	mul	a1,a1,a5
    3734:	02c506b3          	mul	a3,a0,a2
    3738:	00d585b3          	add	a1,a1,a3
    373c:	02f606b3          	mul	a3,a2,a5
    3740:	02f63633          	mulhu	a2,a2,a5
    3744:	00c58633          	add	a2,a1,a2
    3748:	01061613          	slli	a2,a2,0x10
    374c:	0106d693          	srli	a3,a3,0x10
    3750:	00d606b3          	add	a3,a2,a3
    3754:	00003637          	lui	a2,0x3
    3758:	aab60613          	addi	a2,a2,-1365 # 2aab <T9_start+0x2f>
    375c:	00c686b3          	add	a3,a3,a2
    3760:	41f6d613          	srai	a2,a3,0x1f
    3764:	02f60633          	mul	a2,a2,a5
    3768:	02d50533          	mul	a0,a0,a3
    376c:	00a60633          	add	a2,a2,a0
    3770:	02f685b3          	mul	a1,a3,a5
    3774:	02f6b6b3          	mulhu	a3,a3,a5
    3778:	00d607b3          	add	a5,a2,a3
    377c:	01079793          	slli	a5,a5,0x10
    3780:	0105d693          	srli	a3,a1,0x10
    3784:	00d786b3          	add	a3,a5,a3
    3788:	000207b7          	lui	a5,0x20
    378c:	00f686b3          	add	a3,a3,a5
    3790:	40e68633          	sub	a2,a3,a4
    3794:	02e68c63          	beq	a3,a4,37cc <T12_start+0x160>
    3798:	00f75693          	srli	a3,a4,0xf
    379c:	01171793          	slli	a5,a4,0x11
    37a0:	01069713          	slli	a4,a3,0x10
    37a4:	0107d793          	srli	a5,a5,0x10
    37a8:	00f707b3          	add	a5,a4,a5
    37ac:	41f7d713          	srai	a4,a5,0x1f
    37b0:	0107d593          	srli	a1,a5,0x10
    37b4:	01071713          	slli	a4,a4,0x10
    37b8:	41f65693          	srai	a3,a2,0x1f
    37bc:	01079513          	slli	a0,a5,0x10
    37c0:	00e585b3          	add	a1,a1,a4
    37c4:	371070ef          	jal	b334 <__divdi3>
    37c8:	00050613          	mv	a2,a0
    37cc:	000107b7          	lui	a5,0x10
    37d0:	00f60633          	add	a2,a2,a5
    37d4:	220bcc63          	bltz	s7,3a0c <T12_end+0x2c>
    37d8:	410bdb93          	srai	s7,s7,0x10
    37dc:	000107b7          	lui	a5,0x10
    37e0:	017797b3          	sll	a5,a5,s7
    37e4:	41f7d693          	srai	a3,a5,0x1f
    37e8:	41f65713          	srai	a4,a2,0x1f
    37ec:	02c686b3          	mul	a3,a3,a2
    37f0:	02f70733          	mul	a4,a4,a5
    37f4:	00e686b3          	add	a3,a3,a4
    37f8:	02c78733          	mul	a4,a5,a2
    37fc:	02c7b7b3          	mulhu	a5,a5,a2
    3800:	00f686b3          	add	a3,a3,a5
    3804:	01069693          	slli	a3,a3,0x10
    3808:	01075793          	srli	a5,a4,0x10
    380c:	00f686b3          	add	a3,a3,a5
    3810:	10d12423          	sw	a3,264(sp)
    3814:	008a2783          	lw	a5,8(s4)
    3818:	00092703          	lw	a4,0(s2)
    381c:	40e787b3          	sub	a5,a5,a4
    3820:	10f12623          	sw	a5,268(sp)
    3824:	0044a783          	lw	a5,4(s1)
    3828:	000106b7          	lui	a3,0x10
    382c:	18078c63          	beqz	a5,39c4 <T12_start+0x358>
    3830:	40f00633          	neg	a2,a5
    3834:	0ac7e633          	max	a2,a5,a2
    3838:	41f65693          	srai	a3,a2,0x1f
    383c:	00017737          	lui	a4,0x17
    3840:	15470713          	addi	a4,a4,340 # 17154 <heap.cpp.6b15d6f6+0x953>
    3844:	02e686b3          	mul	a3,a3,a4
    3848:	02e60bb3          	mul	s7,a2,a4
    384c:	02e63633          	mulhu	a2,a2,a4
    3850:	00c686b3          	add	a3,a3,a2
    3854:	01069693          	slli	a3,a3,0x10
    3858:	010bdb93          	srli	s7,s7,0x10
    385c:	01768bb3          	add	s7,a3,s7
    3860:	00008737          	lui	a4,0x8
    3864:	00eb8bb3          	add	s7,s7,a4
    3868:	ffff0737          	lui	a4,0xffff0
    386c:	00ebfbb3          	and	s7,s7,a4
    3870:	1a07c663          	bltz	a5,3a1c <T12_end+0x3c>
    3874:	41fbd693          	srai	a3,s7,0x1f
    3878:	0000b637          	lui	a2,0xb
    387c:	17260613          	addi	a2,a2,370 # b172 <__subdf3+0x62e>
    3880:	02c686b3          	mul	a3,a3,a2
    3884:	02cb8733          	mul	a4,s7,a2
    3888:	02cbb633          	mulhu	a2,s7,a2
    388c:	00c686b3          	add	a3,a3,a2
    3890:	01069693          	slli	a3,a3,0x10
    3894:	01075713          	srli	a4,a4,0x10
    3898:	00e68733          	add	a4,a3,a4
    389c:	40e78733          	sub	a4,a5,a4
    38a0:	41f75693          	srai	a3,a4,0x1f
    38a4:	02e686b3          	mul	a3,a3,a4
    38a8:	02e707b3          	mul	a5,a4,a4
    38ac:	02e73633          	mulhu	a2,a4,a4
    38b0:	20c6a6b3          	sh1add	a3,a3,a2
    38b4:	01069693          	slli	a3,a3,0x10
    38b8:	0107d793          	srli	a5,a5,0x10
    38bc:	00f687b3          	add	a5,a3,a5
    38c0:	41f7d513          	srai	a0,a5,0x1f
    38c4:	01e7d693          	srli	a3,a5,0x1e
    38c8:	20d546b3          	sh2add	a3,a0,a3
    38cc:	00279613          	slli	a2,a5,0x2
    38d0:	01069693          	slli	a3,a3,0x10
    38d4:	01065613          	srli	a2,a2,0x10
    38d8:	00c68633          	add	a2,a3,a2
    38dc:	f4a60613          	addi	a2,a2,-182
    38e0:	41f65593          	srai	a1,a2,0x1f
    38e4:	02f585b3          	mul	a1,a1,a5
    38e8:	02c506b3          	mul	a3,a0,a2
    38ec:	00d585b3          	add	a1,a1,a3
    38f0:	02f606b3          	mul	a3,a2,a5
    38f4:	02f63633          	mulhu	a2,a2,a5
    38f8:	00c58633          	add	a2,a1,a2
    38fc:	01061613          	slli	a2,a2,0x10
    3900:	0106d693          	srli	a3,a3,0x10
    3904:	00d606b3          	add	a3,a2,a3
    3908:	00003637          	lui	a2,0x3
    390c:	aab60613          	addi	a2,a2,-1365 # 2aab <T9_start+0x2f>
    3910:	00c686b3          	add	a3,a3,a2
    3914:	41f6d613          	srai	a2,a3,0x1f
    3918:	02f60633          	mul	a2,a2,a5
    391c:	02d50533          	mul	a0,a0,a3
    3920:	00a60633          	add	a2,a2,a0
    3924:	02f685b3          	mul	a1,a3,a5
    3928:	02f6b6b3          	mulhu	a3,a3,a5
    392c:	00d607b3          	add	a5,a2,a3
    3930:	01079793          	slli	a5,a5,0x10
    3934:	0105d693          	srli	a3,a1,0x10
    3938:	00d786b3          	add	a3,a5,a3
    393c:	000207b7          	lui	a5,0x20
    3940:	00f686b3          	add	a3,a3,a5
    3944:	40e68633          	sub	a2,a3,a4
    3948:	02e68c63          	beq	a3,a4,3980 <T12_start+0x314>
    394c:	00f75693          	srli	a3,a4,0xf
    3950:	01171793          	slli	a5,a4,0x11
    3954:	01069713          	slli	a4,a3,0x10
    3958:	0107d793          	srli	a5,a5,0x10
    395c:	00f707b3          	add	a5,a4,a5
    3960:	41f7d713          	srai	a4,a5,0x1f
    3964:	0107d593          	srli	a1,a5,0x10
    3968:	01071713          	slli	a4,a4,0x10
    396c:	41f65693          	srai	a3,a2,0x1f
    3970:	01079513          	slli	a0,a5,0x10
    3974:	00e585b3          	add	a1,a1,a4
    3978:	1bd070ef          	jal	b334 <__divdi3>
    397c:	00050613          	mv	a2,a0
    3980:	000107b7          	lui	a5,0x10
    3984:	00f60633          	add	a2,a2,a5
    3988:	080bce63          	bltz	s7,3a24 <T12_end+0x44>
    398c:	410bdb93          	srai	s7,s7,0x10
    3990:	000107b7          	lui	a5,0x10
    3994:	017797b3          	sll	a5,a5,s7
    3998:	41f7d693          	srai	a3,a5,0x1f
    399c:	41f65713          	srai	a4,a2,0x1f
    39a0:	02c686b3          	mul	a3,a3,a2
    39a4:	02f70733          	mul	a4,a4,a5
    39a8:	00e686b3          	add	a3,a3,a4
    39ac:	02c78733          	mul	a4,a5,a2
    39b0:	02c7b7b3          	mulhu	a5,a5,a2
    39b4:	00f686b3          	add	a3,a3,a5
    39b8:	01069693          	slli	a3,a3,0x10
    39bc:	01075793          	srli	a5,a4,0x10
    39c0:	00f686b3          	add	a3,a3,a5
    39c4:	10d12823          	sw	a3,272(sp)
    39c8:	0084a783          	lw	a5,8(s1)
    39cc:	000a2703          	lw	a4,0(s4)
    39d0:	0ae7e7b3          	max	a5,a5,a4
    39d4:	10f12a23          	sw	a5,276(sp)
    39d8:	000aa783          	lw	a5,0(s5)
    39dc:	10f12c23          	sw	a5,280(sp)

000039e0 <T12_end>:
    39e0:	b00027f3          	csrr	a5,mcycle
    39e4:	416787b3          	sub	a5,a5,s6
    39e8:	02f9a823          	sw	a5,48(s3)
    39ec:	10812603          	lw	a2,264(sp)
    39f0:	10810713          	addi	a4,sp,264
    39f4:	00000513          	li	a0,0
    39f8:	00100793          	li	a5,1
    39fc:	00500593          	li	a1,5
    3a00:	0400006f          	j	3a40 <T12_end+0x60>
    3a04:	41700bb3          	neg	s7,s7
    3a08:	cb9ff06f          	j	36c0 <T12_start+0x54>
    3a0c:	41700733          	neg	a4,s7
    3a10:	41075713          	srai	a4,a4,0x10
    3a14:	40e7d7b3          	sra	a5,a5,a4
    3a18:	dcdff06f          	j	37e4 <T12_start+0x178>
    3a1c:	41700bb3          	neg	s7,s7
    3a20:	e55ff06f          	j	3874 <T12_start+0x208>
    3a24:	41700733          	neg	a4,s7
    3a28:	41075713          	srai	a4,a4,0x10
    3a2c:	40e7d7b3          	sra	a5,a5,a4
    3a30:	f69ff06f          	j	3998 <T12_start+0x32c>
    3a34:	00178793          	addi	a5,a5,1 # 10001 <fast_intr_ctrl.c.233e5230+0x208>
    3a38:	00470713          	addi	a4,a4,4 # ffff0004 <_sp+0xfffc6054>
    3a3c:	00b78c63          	beq	a5,a1,3a54 <T12_end+0x74>
    3a40:	00472683          	lw	a3,4(a4)
    3a44:	fec6c8e3          	blt	a3,a2,3a34 <T12_end+0x54>
    3a48:	00068613          	mv	a2,a3
    3a4c:	00078513          	mv	a0,a5
    3a50:	fe5ff06f          	j	3a34 <T12_end+0x54>
    3a54:	00020737          	lui	a4,0x20
    3a58:	000207b7          	lui	a5,0x20
    3a5c:	12478793          	addi	a5,a5,292 # 20124 <next.15>
    3a60:	20f54533          	sh2add	a0,a0,a5
    3a64:	00052783          	lw	a5,0(a0)
    3a68:	1fc70713          	addi	a4,a4,508 # 201fc <jump_table.28>
    3a6c:	20e7c7b3          	sh2add	a5,a5,a4
    3a70:	0007a783          	lw	a5,0(a5)
    3a74:	92cfd06f          	j	ba0 <inferenceTPG+0x50>
    3a78:	1fb12823          	sw	s11,496(sp)

00003a7c <T13_start>:
    3a7c:	b00027f3          	csrr	a5,mcycle
    3a80:	00078c93          	mv	s9,a5
    3a84:	00492b03          	lw	s6,4(s2)
    3a88:	01092703          	lw	a4,16(s2)
    3a8c:	41f75793          	srai	a5,a4,0x1f
    3a90:	41fb5693          	srai	a3,s6,0x1f
    3a94:	036787b3          	mul	a5,a5,s6
    3a98:	02e686b3          	mul	a3,a3,a4
    3a9c:	00d787b3          	add	a5,a5,a3
    3aa0:	036706b3          	mul	a3,a4,s6
    3aa4:	03673733          	mulhu	a4,a4,s6
    3aa8:	00e787b3          	add	a5,a5,a4
    3aac:	01079793          	slli	a5,a5,0x10
    3ab0:	0106d713          	srli	a4,a3,0x10
    3ab4:	00e78733          	add	a4,a5,a4
    3ab8:	16e12023          	sw	a4,352(sp)
    3abc:	000b1463          	bnez	s6,3ac4 <T13_start+0x48>
    3ac0:	5f10206f          	j	68b0 <T25_end+0x120>
    3ac4:	41600733          	neg	a4,s6
    3ac8:	0aeb6733          	max	a4,s6,a4
    3acc:	41f75793          	srai	a5,a4,0x1f
    3ad0:	000176b7          	lui	a3,0x17
    3ad4:	15468693          	addi	a3,a3,340 # 17154 <heap.cpp.6b15d6f6+0x953>
    3ad8:	02d787b3          	mul	a5,a5,a3
    3adc:	02d70bb3          	mul	s7,a4,a3
    3ae0:	02d73733          	mulhu	a4,a4,a3
    3ae4:	00e787b3          	add	a5,a5,a4
    3ae8:	01079793          	slli	a5,a5,0x10
    3aec:	010bdb93          	srli	s7,s7,0x10
    3af0:	01778bb3          	add	s7,a5,s7
    3af4:	000087b7          	lui	a5,0x8
    3af8:	00fb8bb3          	add	s7,s7,a5
    3afc:	ffff07b7          	lui	a5,0xffff0
    3b00:	00fbfbb3          	and	s7,s7,a5
    3b04:	3e0b4863          	bltz	s6,3ef4 <T13_end+0x24>
    3b08:	41fbd713          	srai	a4,s7,0x1f
    3b0c:	0000b6b7          	lui	a3,0xb
    3b10:	17268693          	addi	a3,a3,370 # b172 <__subdf3+0x62e>
    3b14:	02d70733          	mul	a4,a4,a3
    3b18:	02db87b3          	mul	a5,s7,a3
    3b1c:	02dbb6b3          	mulhu	a3,s7,a3
    3b20:	00d70733          	add	a4,a4,a3
    3b24:	01071713          	slli	a4,a4,0x10
    3b28:	0107d793          	srli	a5,a5,0x10
    3b2c:	00f707b3          	add	a5,a4,a5
    3b30:	40fb07b3          	sub	a5,s6,a5
    3b34:	41f7d693          	srai	a3,a5,0x1f
    3b38:	02f686b3          	mul	a3,a3,a5
    3b3c:	02f78733          	mul	a4,a5,a5
    3b40:	02f7b633          	mulhu	a2,a5,a5
    3b44:	20c6a6b3          	sh1add	a3,a3,a2
    3b48:	01069693          	slli	a3,a3,0x10
    3b4c:	01075713          	srli	a4,a4,0x10
    3b50:	00e68733          	add	a4,a3,a4
    3b54:	41f75513          	srai	a0,a4,0x1f
    3b58:	01e75693          	srli	a3,a4,0x1e
    3b5c:	20d546b3          	sh2add	a3,a0,a3
    3b60:	00271613          	slli	a2,a4,0x2
    3b64:	01069693          	slli	a3,a3,0x10
    3b68:	01065613          	srli	a2,a2,0x10
    3b6c:	00c68633          	add	a2,a3,a2
    3b70:	f4a60613          	addi	a2,a2,-182
    3b74:	41f65593          	srai	a1,a2,0x1f
    3b78:	02e585b3          	mul	a1,a1,a4
    3b7c:	02c506b3          	mul	a3,a0,a2
    3b80:	00d585b3          	add	a1,a1,a3
    3b84:	02e606b3          	mul	a3,a2,a4
    3b88:	02e63633          	mulhu	a2,a2,a4
    3b8c:	00c58633          	add	a2,a1,a2
    3b90:	01061613          	slli	a2,a2,0x10
    3b94:	0106d693          	srli	a3,a3,0x10
    3b98:	00d606b3          	add	a3,a2,a3
    3b9c:	00003637          	lui	a2,0x3
    3ba0:	aab60613          	addi	a2,a2,-1365 # 2aab <T9_start+0x2f>
    3ba4:	00c686b3          	add	a3,a3,a2
    3ba8:	41f6d613          	srai	a2,a3,0x1f
    3bac:	02e60633          	mul	a2,a2,a4
    3bb0:	02d50533          	mul	a0,a0,a3
    3bb4:	00a60633          	add	a2,a2,a0
    3bb8:	02e685b3          	mul	a1,a3,a4
    3bbc:	02e6b6b3          	mulhu	a3,a3,a4
    3bc0:	00d60733          	add	a4,a2,a3
    3bc4:	01071713          	slli	a4,a4,0x10
    3bc8:	0105d693          	srli	a3,a1,0x10
    3bcc:	00d706b3          	add	a3,a4,a3
    3bd0:	00020737          	lui	a4,0x20
    3bd4:	00e686b3          	add	a3,a3,a4
    3bd8:	40f68633          	sub	a2,a3,a5
    3bdc:	02f68c63          	beq	a3,a5,3c14 <T13_start+0x198>
    3be0:	00f7d713          	srli	a4,a5,0xf
    3be4:	01179793          	slli	a5,a5,0x11
    3be8:	01071713          	slli	a4,a4,0x10
    3bec:	0107d793          	srli	a5,a5,0x10
    3bf0:	00f707b3          	add	a5,a4,a5
    3bf4:	41f7d713          	srai	a4,a5,0x1f
    3bf8:	0107d593          	srli	a1,a5,0x10
    3bfc:	01071713          	slli	a4,a4,0x10
    3c00:	41f65693          	srai	a3,a2,0x1f
    3c04:	01079513          	slli	a0,a5,0x10
    3c08:	00e585b3          	add	a1,a1,a4
    3c0c:	728070ef          	jal	b334 <__divdi3>
    3c10:	00050613          	mv	a2,a0
    3c14:	000107b7          	lui	a5,0x10
    3c18:	00f606b3          	add	a3,a2,a5
    3c1c:	2e0bc063          	bltz	s7,3efc <T13_end+0x2c>
    3c20:	410bdb93          	srai	s7,s7,0x10
    3c24:	00010737          	lui	a4,0x10
    3c28:	01771733          	sll	a4,a4,s7
    3c2c:	41f75793          	srai	a5,a4,0x1f
    3c30:	41f6d613          	srai	a2,a3,0x1f
    3c34:	02d787b3          	mul	a5,a5,a3
    3c38:	02e60633          	mul	a2,a2,a4
    3c3c:	00c787b3          	add	a5,a5,a2
    3c40:	02d70633          	mul	a2,a4,a3
    3c44:	02d73733          	mulhu	a4,a4,a3
    3c48:	00e787b3          	add	a5,a5,a4
    3c4c:	01079793          	slli	a5,a5,0x10
    3c50:	01065713          	srli	a4,a2,0x10
    3c54:	00e78733          	add	a4,a5,a4
    3c58:	16e12223          	sw	a4,356(sp)
    3c5c:	0044a683          	lw	a3,4(s1)
    3c60:	00169793          	slli	a5,a3,0x1
    3c64:	16f12423          	sw	a5,360(sp)
    3c68:	0084a703          	lw	a4,8(s1)
    3c6c:	000aa783          	lw	a5,0(s5)
    3c70:	00f707b3          	add	a5,a4,a5
    3c74:	0ad7e7b3          	max	a5,a5,a3
    3c78:	16f12623          	sw	a5,364(sp)
    3c7c:	0004a783          	lw	a5,0(s1)
    3c80:	00f707b3          	add	a5,a4,a5
    3c84:	00078d93          	mv	s11,a5
    3c88:	00000593          	li	a1,0
    3c8c:	220b4e63          	bltz	s6,3ec8 <T13_start+0x44c>
    3c90:	000207b7          	lui	a5,0x20
    3c94:	2767de63          	bge	a5,s6,3f10 <T13_end+0x40>
    3c98:	00000b93          	li	s7,0
    3c9c:	401b5b13          	srai	s6,s6,0x1
    3ca0:	001b8b93          	addi	s7,s7,1 # ffff0001 <_sp+0xfffc6051>
    3ca4:	ff67cce3          	blt	a5,s6,3c9c <T13_start+0x220>
    3ca8:	ffff07b7          	lui	a5,0xffff0
    3cac:	00fb0c33          	add	s8,s6,a5
    3cb0:	41fc5793          	srai	a5,s8,0x1f
    3cb4:	010c5593          	srli	a1,s8,0x10
    3cb8:	01079793          	slli	a5,a5,0x10
    3cbc:	00010737          	lui	a4,0x10
    3cc0:	00eb0633          	add	a2,s6,a4
    3cc4:	41f65693          	srai	a3,a2,0x1f
    3cc8:	010c1513          	slli	a0,s8,0x10
    3ccc:	00f585b3          	add	a1,a1,a5
    3cd0:	664070ef          	jal	b334 <__divdi3>
    3cd4:	41f55613          	srai	a2,a0,0x1f
    3cd8:	02a607b3          	mul	a5,a2,a0
    3cdc:	02a50733          	mul	a4,a0,a0
    3ce0:	02a536b3          	mulhu	a3,a0,a0
    3ce4:	20d7a7b3          	sh1add	a5,a5,a3
    3ce8:	01079793          	slli	a5,a5,0x10
    3cec:	01075713          	srli	a4,a4,0x10
    3cf0:	00e78733          	add	a4,a5,a4
    3cf4:	41f75313          	srai	t1,a4,0x1f
    3cf8:	02e306b3          	mul	a3,t1,a4
    3cfc:	02e707b3          	mul	a5,a4,a4
    3d00:	02e735b3          	mulhu	a1,a4,a4
    3d04:	20b6a6b3          	sh1add	a3,a3,a1
    3d08:	01069693          	slli	a3,a3,0x10
    3d0c:	0107d793          	srli	a5,a5,0x10
    3d10:	00f687b3          	add	a5,a3,a5
    3d14:	41f7d813          	srai	a6,a5,0x1f
    3d18:	010b9b93          	slli	s7,s7,0x10
    3d1c:	41fbd693          	srai	a3,s7,0x1f
    3d20:	0000b8b7          	lui	a7,0xb
    3d24:	17288893          	addi	a7,a7,370 # b172 <__subdf3+0x62e>
    3d28:	031686b3          	mul	a3,a3,a7
    3d2c:	031b85b3          	mul	a1,s7,a7
    3d30:	031bbbb3          	mulhu	s7,s7,a7
    3d34:	017686b3          	add	a3,a3,s7
    3d38:	01069693          	slli	a3,a3,0x10
    3d3c:	0105d593          	srli	a1,a1,0x10
    3d40:	00b685b3          	add	a1,a3,a1
    3d44:	00bc05b3          	add	a1,s8,a1
    3d48:	000028b7          	lui	a7,0x2
    3d4c:	5e288893          	addi	a7,a7,1506 # 25e2 <T7_end+0x96>
    3d50:	03180e33          	mul	t3,a6,a7
    3d54:	031786b3          	mul	a3,a5,a7
    3d58:	0317b8b3          	mulhu	a7,a5,a7
    3d5c:	011e08b3          	add	a7,t3,a7
    3d60:	01089893          	slli	a7,a7,0x10
    3d64:	0106d693          	srli	a3,a3,0x10
    3d68:	00d886b3          	add	a3,a7,a3
    3d6c:	000038b7          	lui	a7,0x3
    3d70:	e8d88893          	addi	a7,a7,-371 # 2e8d <T9_start+0x411>
    3d74:	011686b3          	add	a3,a3,a7
    3d78:	41f6de13          	srai	t3,a3,0x1f
    3d7c:	02fe0e33          	mul	t3,t3,a5
    3d80:	02d808b3          	mul	a7,a6,a3
    3d84:	011e0e33          	add	t3,t3,a7
    3d88:	02f688b3          	mul	a7,a3,a5
    3d8c:	02f6b6b3          	mulhu	a3,a3,a5
    3d90:	00de06b3          	add	a3,t3,a3
    3d94:	01069693          	slli	a3,a3,0x10
    3d98:	0108d893          	srli	a7,a7,0x10
    3d9c:	011688b3          	add	a7,a3,a7
    3da0:	000056b7          	lui	a3,0x5
    3da4:	92568693          	addi	a3,a3,-1755 # 4925 <T16_start+0x2ed>
    3da8:	00d888b3          	add	a7,a7,a3
    3dac:	41f8de13          	srai	t3,a7,0x1f
    3db0:	02fe0e33          	mul	t3,t3,a5
    3db4:	031806b3          	mul	a3,a6,a7
    3db8:	00de0e33          	add	t3,t3,a3
    3dbc:	02f886b3          	mul	a3,a7,a5
    3dc0:	02f8b8b3          	mulhu	a7,a7,a5
    3dc4:	011e08b3          	add	a7,t3,a7
    3dc8:	01089893          	slli	a7,a7,0x10
    3dcc:	0106d693          	srli	a3,a3,0x10
    3dd0:	00d886b3          	add	a3,a7,a3
    3dd4:	0000b8b7          	lui	a7,0xb
    3dd8:	aab88893          	addi	a7,a7,-1365 # aaab <__muldf3+0x54f>
    3ddc:	011686b3          	add	a3,a3,a7
    3de0:	41f6d893          	srai	a7,a3,0x1f
    3de4:	02e888b3          	mul	a7,a7,a4
    3de8:	02d30333          	mul	t1,t1,a3
    3dec:	00688333          	add	t1,a7,t1
    3df0:	02e688b3          	mul	a7,a3,a4
    3df4:	02e6b6b3          	mulhu	a3,a3,a4
    3df8:	00d30733          	add	a4,t1,a3
    3dfc:	01071713          	slli	a4,a4,0x10
    3e00:	0108d893          	srli	a7,a7,0x10
    3e04:	011708b3          	add	a7,a4,a7
    3e08:	00002737          	lui	a4,0x2
    3e0c:	73470713          	addi	a4,a4,1844 # 2734 <T8_start+0x13c>
    3e10:	02e80333          	mul	t1,a6,a4
    3e14:	02e786b3          	mul	a3,a5,a4
    3e18:	02e7b733          	mulhu	a4,a5,a4
    3e1c:	00e30733          	add	a4,t1,a4
    3e20:	01071713          	slli	a4,a4,0x10
    3e24:	0106d693          	srli	a3,a3,0x10
    3e28:	00d706b3          	add	a3,a4,a3
    3e2c:	00004737          	lui	a4,0x4
    3e30:	8e470713          	addi	a4,a4,-1820 # 38e4 <T12_start+0x278>
    3e34:	00e686b3          	add	a3,a3,a4
    3e38:	41f6d313          	srai	t1,a3,0x1f
    3e3c:	02f30333          	mul	t1,t1,a5
    3e40:	02d80733          	mul	a4,a6,a3
    3e44:	00e30333          	add	t1,t1,a4
    3e48:	02f68733          	mul	a4,a3,a5
    3e4c:	02f6b6b3          	mulhu	a3,a3,a5
    3e50:	00d306b3          	add	a3,t1,a3
    3e54:	01069693          	slli	a3,a3,0x10
    3e58:	01075713          	srli	a4,a4,0x10
    3e5c:	00e68733          	add	a4,a3,a4
    3e60:	000066b7          	lui	a3,0x6
    3e64:	66668693          	addi	a3,a3,1638 # 6666 <T25_start+0x41e>
    3e68:	00d70733          	add	a4,a4,a3
    3e6c:	41f75693          	srai	a3,a4,0x1f
    3e70:	02f686b3          	mul	a3,a3,a5
    3e74:	02e80833          	mul	a6,a6,a4
    3e78:	010686b3          	add	a3,a3,a6
    3e7c:	02f70833          	mul	a6,a4,a5
    3e80:	02f73733          	mulhu	a4,a4,a5
    3e84:	00e687b3          	add	a5,a3,a4
    3e88:	01079793          	slli	a5,a5,0x10
    3e8c:	01085713          	srli	a4,a6,0x10
    3e90:	00e78733          	add	a4,a5,a4
    3e94:	00e888b3          	add	a7,a7,a4
    3e98:	411c07b3          	sub	a5,s8,a7
    3e9c:	41f7d713          	srai	a4,a5,0x1f
    3ea0:	02a70733          	mul	a4,a4,a0
    3ea4:	02f60633          	mul	a2,a2,a5
    3ea8:	00c70733          	add	a4,a4,a2
    3eac:	02a786b3          	mul	a3,a5,a0
    3eb0:	02a7b7b3          	mulhu	a5,a5,a0
    3eb4:	00f707b3          	add	a5,a4,a5
    3eb8:	01079793          	slli	a5,a5,0x10
    3ebc:	0106d713          	srli	a4,a3,0x10
    3ec0:	00e78733          	add	a4,a5,a4
    3ec4:	40e585b3          	sub	a1,a1,a4
    3ec8:	17b12823          	sw	s11,368(sp)
    3ecc:	16b12a23          	sw	a1,372(sp)

00003ed0 <T13_end>:
    3ed0:	b00027f3          	csrr	a5,mcycle
    3ed4:	419787b3          	sub	a5,a5,s9
    3ed8:	02f9aa23          	sw	a5,52(s3)
    3edc:	16012603          	lw	a2,352(sp)
    3ee0:	16410713          	addi	a4,sp,356
    3ee4:	00000513          	li	a0,0
    3ee8:	00100793          	li	a5,1
    3eec:	00600593          	li	a1,6
    3ef0:	0340006f          	j	3f24 <T13_end+0x54>
    3ef4:	41700bb3          	neg	s7,s7
    3ef8:	c11ff06f          	j	3b08 <T13_start+0x8c>
    3efc:	417007b3          	neg	a5,s7
    3f00:	4107d793          	srai	a5,a5,0x10
    3f04:	00010737          	lui	a4,0x10
    3f08:	40f75733          	sra	a4,a4,a5
    3f0c:	d21ff06f          	j	3c2c <T13_start+0x1b0>
    3f10:	00000b93          	li	s7,0
    3f14:	d95ff06f          	j	3ca8 <T13_start+0x22c>
    3f18:	00178793          	addi	a5,a5,1 # ffff0001 <_sp+0xfffc6051>
    3f1c:	00470713          	addi	a4,a4,4 # 10004 <fast_intr_ctrl.c.233e5230+0x20b>
    3f20:	00b78c63          	beq	a5,a1,3f38 <T13_end+0x68>
    3f24:	00072683          	lw	a3,0(a4)
    3f28:	fec6c8e3          	blt	a3,a2,3f18 <T13_end+0x48>
    3f2c:	00068613          	mv	a2,a3
    3f30:	00078513          	mv	a0,a5
    3f34:	fe5ff06f          	j	3f18 <T13_end+0x48>
    3f38:	00020737          	lui	a4,0x20
    3f3c:	000207b7          	lui	a5,0x20
    3f40:	10c78793          	addi	a5,a5,268 # 2010c <next.14>
    3f44:	20f54533          	sh2add	a0,a0,a5
    3f48:	00052783          	lw	a5,0(a0)
    3f4c:	1fc70713          	addi	a4,a4,508 # 201fc <jump_table.28>
    3f50:	20e7c7b3          	sh2add	a5,a5,a4
    3f54:	0007a783          	lw	a5,0(a5)
    3f58:	1f012d83          	lw	s11,496(sp)
    3f5c:	c45fc06f          	j	ba0 <inferenceTPG+0x50>

00003f60 <T14_start>:
    3f60:	b0002bf3          	csrr	s7,mcycle
    3f64:	00092783          	lw	a5,0(s2)
    3f68:	0084a703          	lw	a4,8(s1)
    3f6c:	00e787b3          	add	a5,a5,a4
    3f70:	04f12a23          	sw	a5,84(sp)
    3f74:	0044a703          	lw	a4,4(s1)
    3f78:	41f75793          	srai	a5,a4,0x1f
    3f7c:	000aa683          	lw	a3,0(s5)
    3f80:	41f6d613          	srai	a2,a3,0x1f
    3f84:	02d787b3          	mul	a5,a5,a3
    3f88:	02e60633          	mul	a2,a2,a4
    3f8c:	00c787b3          	add	a5,a5,a2
    3f90:	02d70633          	mul	a2,a4,a3
    3f94:	02d73733          	mulhu	a4,a4,a3
    3f98:	00e787b3          	add	a5,a5,a4
    3f9c:	01079793          	slli	a5,a5,0x10
    3fa0:	01065713          	srli	a4,a2,0x10
    3fa4:	00e787b3          	add	a5,a5,a4
    3fa8:	00010737          	lui	a4,0x10
    3fac:	18078c63          	beqz	a5,4144 <__heap_size+0x144>
    3fb0:	40f006b3          	neg	a3,a5
    3fb4:	0ad7e6b3          	max	a3,a5,a3
    3fb8:	41f6d713          	srai	a4,a3,0x1f
    3fbc:	00017637          	lui	a2,0x17
    3fc0:	15460613          	addi	a2,a2,340 # 17154 <heap.cpp.6b15d6f6+0x953>
    3fc4:	02c70733          	mul	a4,a4,a2
    3fc8:	02c68b33          	mul	s6,a3,a2
    3fcc:	02c6b6b3          	mulhu	a3,a3,a2
    3fd0:	00d70733          	add	a4,a4,a3
    3fd4:	01071713          	slli	a4,a4,0x10
    3fd8:	010b5b13          	srli	s6,s6,0x10
    3fdc:	01670b33          	add	s6,a4,s6
    3fe0:	00008737          	lui	a4,0x8
    3fe4:	00eb0b33          	add	s6,s6,a4
    3fe8:	ffff0737          	lui	a4,0xffff0
    3fec:	00eb7b33          	and	s6,s6,a4
    3ff0:	1a07ca63          	bltz	a5,41a4 <T14_end+0x54>
    3ff4:	41fb5713          	srai	a4,s6,0x1f
    3ff8:	0000b6b7          	lui	a3,0xb
    3ffc:	17268693          	addi	a3,a3,370 # b172 <__subdf3+0x62e>
    4000:	02d70733          	mul	a4,a4,a3
    4004:	02db0633          	mul	a2,s6,a3
    4008:	02db36b3          	mulhu	a3,s6,a3
    400c:	00d70733          	add	a4,a4,a3
    4010:	01071713          	slli	a4,a4,0x10
    4014:	01065693          	srli	a3,a2,0x10
    4018:	00d706b3          	add	a3,a4,a3
    401c:	40d787b3          	sub	a5,a5,a3
    4020:	41f7d693          	srai	a3,a5,0x1f
    4024:	02f686b3          	mul	a3,a3,a5
    4028:	02f78733          	mul	a4,a5,a5
    402c:	02f7b633          	mulhu	a2,a5,a5
    4030:	20c6a6b3          	sh1add	a3,a3,a2
    4034:	01069693          	slli	a3,a3,0x10
    4038:	01075713          	srli	a4,a4,0x10
    403c:	00e68733          	add	a4,a3,a4
    4040:	41f75513          	srai	a0,a4,0x1f
    4044:	01e75693          	srli	a3,a4,0x1e
    4048:	20d546b3          	sh2add	a3,a0,a3
    404c:	00271613          	slli	a2,a4,0x2
    4050:	01069693          	slli	a3,a3,0x10
    4054:	01065613          	srli	a2,a2,0x10
    4058:	00c68633          	add	a2,a3,a2
    405c:	f4a60613          	addi	a2,a2,-182
    4060:	41f65593          	srai	a1,a2,0x1f
    4064:	02e585b3          	mul	a1,a1,a4
    4068:	02c506b3          	mul	a3,a0,a2
    406c:	00d585b3          	add	a1,a1,a3
    4070:	02e606b3          	mul	a3,a2,a4
    4074:	02e63633          	mulhu	a2,a2,a4
    4078:	00c58633          	add	a2,a1,a2
    407c:	01061613          	slli	a2,a2,0x10
    4080:	0106d693          	srli	a3,a3,0x10
    4084:	00d606b3          	add	a3,a2,a3
    4088:	00003637          	lui	a2,0x3
    408c:	aab60613          	addi	a2,a2,-1365 # 2aab <T9_start+0x2f>
    4090:	00c686b3          	add	a3,a3,a2
    4094:	41f6d613          	srai	a2,a3,0x1f
    4098:	02e60633          	mul	a2,a2,a4
    409c:	02d50533          	mul	a0,a0,a3
    40a0:	00a60633          	add	a2,a2,a0
    40a4:	02e685b3          	mul	a1,a3,a4
    40a8:	02e6b6b3          	mulhu	a3,a3,a4
    40ac:	00d60733          	add	a4,a2,a3
    40b0:	01071713          	slli	a4,a4,0x10
    40b4:	0105d693          	srli	a3,a1,0x10
    40b8:	00d706b3          	add	a3,a4,a3
    40bc:	00020737          	lui	a4,0x20
    40c0:	00e686b3          	add	a3,a3,a4
    40c4:	40f68633          	sub	a2,a3,a5
    40c8:	02f68c63          	beq	a3,a5,4100 <__heap_size+0x100>
    40cc:	00f7d713          	srli	a4,a5,0xf
    40d0:	01179793          	slli	a5,a5,0x11
    40d4:	01071713          	slli	a4,a4,0x10
    40d8:	0107d793          	srli	a5,a5,0x10
    40dc:	00f707b3          	add	a5,a4,a5
    40e0:	41f7d713          	srai	a4,a5,0x1f
    40e4:	0107d593          	srli	a1,a5,0x10
    40e8:	01071713          	slli	a4,a4,0x10
    40ec:	41f65693          	srai	a3,a2,0x1f
    40f0:	01079513          	slli	a0,a5,0x10
    40f4:	00e585b3          	add	a1,a1,a4
    40f8:	23c070ef          	jal	b334 <__divdi3>
    40fc:	00050613          	mv	a2,a0
    4100:	000107b7          	lui	a5,0x10
    4104:	00f606b3          	add	a3,a2,a5
    4108:	0a0b4263          	bltz	s6,41ac <T14_end+0x5c>
    410c:	410b5b13          	srai	s6,s6,0x10
    4110:	000107b7          	lui	a5,0x10
    4114:	016797b3          	sll	a5,a5,s6
    4118:	41f7d713          	srai	a4,a5,0x1f
    411c:	41f6d613          	srai	a2,a3,0x1f
    4120:	02d70733          	mul	a4,a4,a3
    4124:	02f60633          	mul	a2,a2,a5
    4128:	00c70733          	add	a4,a4,a2
    412c:	02d78633          	mul	a2,a5,a3
    4130:	02d7b7b3          	mulhu	a5,a5,a3
    4134:	00f70733          	add	a4,a4,a5
    4138:	01071713          	slli	a4,a4,0x10
    413c:	01065793          	srli	a5,a2,0x10
    4140:	00f70733          	add	a4,a4,a5
    4144:	04e12c23          	sw	a4,88(sp)
    4148:	00492783          	lw	a5,4(s2)
    414c:	04f12e23          	sw	a5,92(sp)

00004150 <T14_end>:
    4150:	b00027f3          	csrr	a5,mcycle
    4154:	417787b3          	sub	a5,a5,s7
    4158:	02f9ac23          	sw	a5,56(s3)
    415c:	05412683          	lw	a3,84(sp)
    4160:	05812703          	lw	a4,88(sp)
    4164:	00100793          	li	a5,1
    4168:	00d75663          	bge	a4,a3,4174 <T14_end+0x24>
    416c:	00068713          	mv	a4,a3
    4170:	00000793          	li	a5,0
    4174:	05c12683          	lw	a3,92(sp)
    4178:	00e6c463          	blt	a3,a4,4180 <T14_end+0x30>
    417c:	00200793          	li	a5,2
    4180:	00020737          	lui	a4,0x20
    4184:	000206b7          	lui	a3,0x20
    4188:	10068693          	addi	a3,a3,256 # 20100 <next.13>
    418c:	20d7c7b3          	sh2add	a5,a5,a3
    4190:	0007a783          	lw	a5,0(a5) # 10000 <fast_intr_ctrl.c.233e5230+0x207>
    4194:	1fc70713          	addi	a4,a4,508 # 201fc <jump_table.28>
    4198:	20e7c7b3          	sh2add	a5,a5,a4
    419c:	0007a783          	lw	a5,0(a5)
    41a0:	a01fc06f          	j	ba0 <inferenceTPG+0x50>
    41a4:	41600b33          	neg	s6,s6
    41a8:	e4dff06f          	j	3ff4 <T14_start+0x94>
    41ac:	41600733          	neg	a4,s6
    41b0:	41075713          	srai	a4,a4,0x10
    41b4:	40e7d7b3          	sra	a5,a5,a4
    41b8:	f61ff06f          	j	4118 <__heap_size+0x118>

000041bc <T15_start>:
    41bc:	b0002bf3          	csrr	s7,mcycle
    41c0:	0044a783          	lw	a5,4(s1)
    41c4:	000a2703          	lw	a4,0(s4)
    41c8:	0af76733          	max	a4,a4,a5
    41cc:	06e12023          	sw	a4,96(sp)
    41d0:	00010737          	lui	a4,0x10
    41d4:	18078c63          	beqz	a5,436c <T15_start+0x1b0>
    41d8:	40f006b3          	neg	a3,a5
    41dc:	0ad7e6b3          	max	a3,a5,a3
    41e0:	41f6d713          	srai	a4,a3,0x1f
    41e4:	00017637          	lui	a2,0x17
    41e8:	15460613          	addi	a2,a2,340 # 17154 <heap.cpp.6b15d6f6+0x953>
    41ec:	02c70733          	mul	a4,a4,a2
    41f0:	02c68b33          	mul	s6,a3,a2
    41f4:	02c6b6b3          	mulhu	a3,a3,a2
    41f8:	00d70733          	add	a4,a4,a3
    41fc:	01071713          	slli	a4,a4,0x10
    4200:	010b5b13          	srli	s6,s6,0x10
    4204:	01670b33          	add	s6,a4,s6
    4208:	00008737          	lui	a4,0x8
    420c:	00eb0b33          	add	s6,s6,a4
    4210:	ffff0737          	lui	a4,0xffff0
    4214:	00eb7b33          	and	s6,s6,a4
    4218:	3e07cc63          	bltz	a5,4610 <T15_end+0x54>
    421c:	41fb5713          	srai	a4,s6,0x1f
    4220:	0000b6b7          	lui	a3,0xb
    4224:	17268693          	addi	a3,a3,370 # b172 <__subdf3+0x62e>
    4228:	02d70733          	mul	a4,a4,a3
    422c:	02db0633          	mul	a2,s6,a3
    4230:	02db36b3          	mulhu	a3,s6,a3
    4234:	00d70733          	add	a4,a4,a3
    4238:	01071713          	slli	a4,a4,0x10
    423c:	01065693          	srli	a3,a2,0x10
    4240:	00d706b3          	add	a3,a4,a3
    4244:	40d787b3          	sub	a5,a5,a3
    4248:	41f7d693          	srai	a3,a5,0x1f
    424c:	02f686b3          	mul	a3,a3,a5
    4250:	02f78733          	mul	a4,a5,a5
    4254:	02f7b633          	mulhu	a2,a5,a5
    4258:	20c6a6b3          	sh1add	a3,a3,a2
    425c:	01069693          	slli	a3,a3,0x10
    4260:	01075713          	srli	a4,a4,0x10
    4264:	00e68733          	add	a4,a3,a4
    4268:	41f75513          	srai	a0,a4,0x1f
    426c:	01e75693          	srli	a3,a4,0x1e
    4270:	20d546b3          	sh2add	a3,a0,a3
    4274:	00271613          	slli	a2,a4,0x2
    4278:	01069693          	slli	a3,a3,0x10
    427c:	01065613          	srli	a2,a2,0x10
    4280:	00c68633          	add	a2,a3,a2
    4284:	f4a60613          	addi	a2,a2,-182
    4288:	41f65593          	srai	a1,a2,0x1f
    428c:	02e585b3          	mul	a1,a1,a4
    4290:	02c506b3          	mul	a3,a0,a2
    4294:	00d585b3          	add	a1,a1,a3
    4298:	02e606b3          	mul	a3,a2,a4
    429c:	02e63633          	mulhu	a2,a2,a4
    42a0:	00c58633          	add	a2,a1,a2
    42a4:	01061613          	slli	a2,a2,0x10
    42a8:	0106d693          	srli	a3,a3,0x10
    42ac:	00d606b3          	add	a3,a2,a3
    42b0:	00003637          	lui	a2,0x3
    42b4:	aab60613          	addi	a2,a2,-1365 # 2aab <T9_start+0x2f>
    42b8:	00c686b3          	add	a3,a3,a2
    42bc:	41f6d613          	srai	a2,a3,0x1f
    42c0:	02e60633          	mul	a2,a2,a4
    42c4:	02d50533          	mul	a0,a0,a3
    42c8:	00a60633          	add	a2,a2,a0
    42cc:	02e685b3          	mul	a1,a3,a4
    42d0:	02e6b6b3          	mulhu	a3,a3,a4
    42d4:	00d60733          	add	a4,a2,a3
    42d8:	01071713          	slli	a4,a4,0x10
    42dc:	0105d693          	srli	a3,a1,0x10
    42e0:	00d706b3          	add	a3,a4,a3
    42e4:	00020737          	lui	a4,0x20
    42e8:	00e686b3          	add	a3,a3,a4
    42ec:	40f68633          	sub	a2,a3,a5
    42f0:	02f68c63          	beq	a3,a5,4328 <T15_start+0x16c>
    42f4:	00f7d713          	srli	a4,a5,0xf
    42f8:	01179793          	slli	a5,a5,0x11
    42fc:	01071713          	slli	a4,a4,0x10
    4300:	0107d793          	srli	a5,a5,0x10
    4304:	00f707b3          	add	a5,a4,a5
    4308:	41f7d713          	srai	a4,a5,0x1f
    430c:	0107d593          	srli	a1,a5,0x10
    4310:	01071713          	slli	a4,a4,0x10
    4314:	41f65693          	srai	a3,a2,0x1f
    4318:	01079513          	slli	a0,a5,0x10
    431c:	00e585b3          	add	a1,a1,a4
    4320:	014070ef          	jal	b334 <__divdi3>
    4324:	00050613          	mv	a2,a0
    4328:	000107b7          	lui	a5,0x10
    432c:	00f606b3          	add	a3,a2,a5
    4330:	2e0b4463          	bltz	s6,4618 <T15_end+0x5c>
    4334:	410b5b13          	srai	s6,s6,0x10
    4338:	000107b7          	lui	a5,0x10
    433c:	016797b3          	sll	a5,a5,s6
    4340:	41f7d713          	srai	a4,a5,0x1f
    4344:	41f6d613          	srai	a2,a3,0x1f
    4348:	02d70733          	mul	a4,a4,a3
    434c:	02f60633          	mul	a2,a2,a5
    4350:	00c70733          	add	a4,a4,a2
    4354:	02d78633          	mul	a2,a5,a3
    4358:	02d7b7b3          	mulhu	a5,a5,a3
    435c:	00f70733          	add	a4,a4,a5
    4360:	01071713          	slli	a4,a4,0x10
    4364:	01065793          	srli	a5,a2,0x10
    4368:	00f70733          	add	a4,a4,a5
    436c:	06e12223          	sw	a4,100(sp)
    4370:	00492683          	lw	a3,4(s2)
    4374:	00000593          	li	a1,0
    4378:	2406c063          	bltz	a3,45b8 <T15_start+0x3fc>
    437c:	2a068a63          	beqz	a3,4630 <T15_end+0x74>
    4380:	000207b7          	lui	a5,0x20
    4384:	2ad7d263          	bge	a5,a3,4628 <T15_end+0x6c>
    4388:	00000c13          	li	s8,0
    438c:	4016d693          	srai	a3,a3,0x1
    4390:	001c0c13          	addi	s8,s8,1
    4394:	fed7cce3          	blt	a5,a3,438c <T15_start+0x1d0>
    4398:	ffff0b37          	lui	s6,0xffff0
    439c:	01668b33          	add	s6,a3,s6
    43a0:	41fb5793          	srai	a5,s6,0x1f
    43a4:	010b5593          	srli	a1,s6,0x10
    43a8:	01079793          	slli	a5,a5,0x10
    43ac:	00010737          	lui	a4,0x10
    43b0:	00e68633          	add	a2,a3,a4
    43b4:	41f65693          	srai	a3,a2,0x1f
    43b8:	010b1513          	slli	a0,s6,0x10
    43bc:	00f585b3          	add	a1,a1,a5
    43c0:	775060ef          	jal	b334 <__divdi3>
    43c4:	41f55613          	srai	a2,a0,0x1f
    43c8:	02a607b3          	mul	a5,a2,a0
    43cc:	02a506b3          	mul	a3,a0,a0
    43d0:	02a53733          	mulhu	a4,a0,a0
    43d4:	20e7a7b3          	sh1add	a5,a5,a4
    43d8:	01079793          	slli	a5,a5,0x10
    43dc:	0106d693          	srli	a3,a3,0x10
    43e0:	00d786b3          	add	a3,a5,a3
    43e4:	41f6d313          	srai	t1,a3,0x1f
    43e8:	02d307b3          	mul	a5,t1,a3
    43ec:	02d68733          	mul	a4,a3,a3
    43f0:	02d6b5b3          	mulhu	a1,a3,a3
    43f4:	20b7a7b3          	sh1add	a5,a5,a1
    43f8:	01079793          	slli	a5,a5,0x10
    43fc:	01075713          	srli	a4,a4,0x10
    4400:	00e78733          	add	a4,a5,a4
    4404:	41f75813          	srai	a6,a4,0x1f
    4408:	010c1793          	slli	a5,s8,0x10
    440c:	41f7d893          	srai	a7,a5,0x1f
    4410:	0000be37          	lui	t3,0xb
    4414:	172e0e13          	addi	t3,t3,370 # b172 <__subdf3+0x62e>
    4418:	03c888b3          	mul	a7,a7,t3
    441c:	03c785b3          	mul	a1,a5,t3
    4420:	03c7b7b3          	mulhu	a5,a5,t3
    4424:	00f887b3          	add	a5,a7,a5
    4428:	01079793          	slli	a5,a5,0x10
    442c:	0105d593          	srli	a1,a1,0x10
    4430:	00b785b3          	add	a1,a5,a1
    4434:	00bb05b3          	add	a1,s6,a1
    4438:	000028b7          	lui	a7,0x2
    443c:	5e288893          	addi	a7,a7,1506 # 25e2 <T7_end+0x96>
    4440:	03180e33          	mul	t3,a6,a7
    4444:	031707b3          	mul	a5,a4,a7
    4448:	031738b3          	mulhu	a7,a4,a7
    444c:	011e08b3          	add	a7,t3,a7
    4450:	01089893          	slli	a7,a7,0x10
    4454:	0107d793          	srli	a5,a5,0x10
    4458:	00f887b3          	add	a5,a7,a5
    445c:	000038b7          	lui	a7,0x3
    4460:	e8d88893          	addi	a7,a7,-371 # 2e8d <T9_start+0x411>
    4464:	011787b3          	add	a5,a5,a7
    4468:	41f7de13          	srai	t3,a5,0x1f
    446c:	02ee0e33          	mul	t3,t3,a4
    4470:	02f808b3          	mul	a7,a6,a5
    4474:	011e0e33          	add	t3,t3,a7
    4478:	02e788b3          	mul	a7,a5,a4
    447c:	02e7b7b3          	mulhu	a5,a5,a4
    4480:	00fe07b3          	add	a5,t3,a5
    4484:	01079793          	slli	a5,a5,0x10
    4488:	0108d893          	srli	a7,a7,0x10
    448c:	011788b3          	add	a7,a5,a7
    4490:	000057b7          	lui	a5,0x5
    4494:	92578793          	addi	a5,a5,-1755 # 4925 <T16_start+0x2ed>
    4498:	00f888b3          	add	a7,a7,a5
    449c:	41f8de13          	srai	t3,a7,0x1f
    44a0:	02ee0e33          	mul	t3,t3,a4
    44a4:	031807b3          	mul	a5,a6,a7
    44a8:	00fe0e33          	add	t3,t3,a5
    44ac:	02e887b3          	mul	a5,a7,a4
    44b0:	02e8b8b3          	mulhu	a7,a7,a4
    44b4:	011e08b3          	add	a7,t3,a7
    44b8:	01089893          	slli	a7,a7,0x10
    44bc:	0107d793          	srli	a5,a5,0x10
    44c0:	00f887b3          	add	a5,a7,a5
    44c4:	0000b8b7          	lui	a7,0xb
    44c8:	aab88893          	addi	a7,a7,-1365 # aaab <__muldf3+0x54f>
    44cc:	011787b3          	add	a5,a5,a7
    44d0:	41f7d893          	srai	a7,a5,0x1f
    44d4:	02d888b3          	mul	a7,a7,a3
    44d8:	02f30333          	mul	t1,t1,a5
    44dc:	00688333          	add	t1,a7,t1
    44e0:	02d788b3          	mul	a7,a5,a3
    44e4:	02d7b7b3          	mulhu	a5,a5,a3
    44e8:	00f307b3          	add	a5,t1,a5
    44ec:	01079793          	slli	a5,a5,0x10
    44f0:	0108d893          	srli	a7,a7,0x10
    44f4:	011788b3          	add	a7,a5,a7
    44f8:	000027b7          	lui	a5,0x2
    44fc:	73478793          	addi	a5,a5,1844 # 2734 <T8_start+0x13c>
    4500:	02f80333          	mul	t1,a6,a5
    4504:	02f706b3          	mul	a3,a4,a5
    4508:	02f737b3          	mulhu	a5,a4,a5
    450c:	00f307b3          	add	a5,t1,a5
    4510:	01079793          	slli	a5,a5,0x10
    4514:	0106d693          	srli	a3,a3,0x10
    4518:	00d786b3          	add	a3,a5,a3
    451c:	000047b7          	lui	a5,0x4
    4520:	8e478793          	addi	a5,a5,-1820 # 38e4 <T12_start+0x278>
    4524:	00f686b3          	add	a3,a3,a5
    4528:	41f6d313          	srai	t1,a3,0x1f
    452c:	02e30333          	mul	t1,t1,a4
    4530:	02d807b3          	mul	a5,a6,a3
    4534:	00f30333          	add	t1,t1,a5
    4538:	02e687b3          	mul	a5,a3,a4
    453c:	02e6b6b3          	mulhu	a3,a3,a4
    4540:	00d306b3          	add	a3,t1,a3
    4544:	01069693          	slli	a3,a3,0x10
    4548:	0107d793          	srli	a5,a5,0x10
    454c:	00f687b3          	add	a5,a3,a5
    4550:	000066b7          	lui	a3,0x6
    4554:	66668693          	addi	a3,a3,1638 # 6666 <T25_start+0x41e>
    4558:	00d787b3          	add	a5,a5,a3
    455c:	41f7d693          	srai	a3,a5,0x1f
    4560:	02e686b3          	mul	a3,a3,a4
    4564:	02f80833          	mul	a6,a6,a5
    4568:	010686b3          	add	a3,a3,a6
    456c:	02e78833          	mul	a6,a5,a4
    4570:	02e7b7b3          	mulhu	a5,a5,a4
    4574:	00f687b3          	add	a5,a3,a5
    4578:	01079793          	slli	a5,a5,0x10
    457c:	01085713          	srli	a4,a6,0x10
    4580:	00e78733          	add	a4,a5,a4
    4584:	00e888b3          	add	a7,a7,a4
    4588:	411b0b33          	sub	s6,s6,a7
    458c:	41fb5793          	srai	a5,s6,0x1f
    4590:	02a787b3          	mul	a5,a5,a0
    4594:	03660633          	mul	a2,a2,s6
    4598:	00c787b3          	add	a5,a5,a2
    459c:	02ab0733          	mul	a4,s6,a0
    45a0:	02ab3b33          	mulhu	s6,s6,a0
    45a4:	016787b3          	add	a5,a5,s6
    45a8:	01079793          	slli	a5,a5,0x10
    45ac:	01075713          	srli	a4,a4,0x10
    45b0:	00e78733          	add	a4,a5,a4
    45b4:	40e585b3          	sub	a1,a1,a4
    45b8:	06b12423          	sw	a1,104(sp)

000045bc <T15_end>:
    45bc:	b00027f3          	csrr	a5,mcycle
    45c0:	417787b3          	sub	a5,a5,s7
    45c4:	02f9ae23          	sw	a5,60(s3)
    45c8:	06012683          	lw	a3,96(sp)
    45cc:	06412703          	lw	a4,100(sp)
    45d0:	00100793          	li	a5,1
    45d4:	00d75663          	bge	a4,a3,45e0 <T15_end+0x24>
    45d8:	00068713          	mv	a4,a3
    45dc:	00000793          	li	a5,0
    45e0:	06812683          	lw	a3,104(sp)
    45e4:	00e6c463          	blt	a3,a4,45ec <T15_end+0x30>
    45e8:	00200793          	li	a5,2
    45ec:	00020737          	lui	a4,0x20
    45f0:	000206b7          	lui	a3,0x20
    45f4:	0f468693          	addi	a3,a3,244 # 200f4 <next.12>
    45f8:	20d7c7b3          	sh2add	a5,a5,a3
    45fc:	0007a783          	lw	a5,0(a5)
    4600:	1fc70713          	addi	a4,a4,508 # 201fc <jump_table.28>
    4604:	20e7c7b3          	sh2add	a5,a5,a4
    4608:	0007a783          	lw	a5,0(a5)
    460c:	d94fc06f          	j	ba0 <inferenceTPG+0x50>
    4610:	41600b33          	neg	s6,s6
    4614:	c09ff06f          	j	421c <T15_start+0x60>
    4618:	41600733          	neg	a4,s6
    461c:	41075713          	srai	a4,a4,0x10
    4620:	40e7d7b3          	sra	a5,a5,a4
    4624:	d1dff06f          	j	4340 <T15_start+0x184>
    4628:	00000c13          	li	s8,0
    462c:	d6dff06f          	j	4398 <T15_start+0x1dc>
    4630:	fff00593          	li	a1,-1
    4634:	f85ff06f          	j	45b8 <T15_start+0x3fc>

00004638 <T16_start>:
    4638:	b0002b73          	csrr	s6,mcycle
    463c:	0084ab83          	lw	s7,8(s1)
    4640:	000107b7          	lui	a5,0x10
    4644:	180b8c63          	beqz	s7,47dc <T16_start+0x1a4>
    4648:	41700733          	neg	a4,s7
    464c:	0aebe733          	max	a4,s7,a4
    4650:	41f75793          	srai	a5,a4,0x1f
    4654:	000176b7          	lui	a3,0x17
    4658:	15468693          	addi	a3,a3,340 # 17154 <heap.cpp.6b15d6f6+0x953>
    465c:	02d787b3          	mul	a5,a5,a3
    4660:	02d70c33          	mul	s8,a4,a3
    4664:	02d73733          	mulhu	a4,a4,a3
    4668:	00e787b3          	add	a5,a5,a4
    466c:	01079793          	slli	a5,a5,0x10
    4670:	010c5c13          	srli	s8,s8,0x10
    4674:	01878c33          	add	s8,a5,s8
    4678:	000087b7          	lui	a5,0x8
    467c:	00fc0c33          	add	s8,s8,a5
    4680:	ffff07b7          	lui	a5,0xffff0
    4684:	00fc7c33          	and	s8,s8,a5
    4688:	360bce63          	bltz	s7,4a04 <T16_end+0x24>
    468c:	41fc5713          	srai	a4,s8,0x1f
    4690:	0000b6b7          	lui	a3,0xb
    4694:	17268693          	addi	a3,a3,370 # b172 <__subdf3+0x62e>
    4698:	02d70733          	mul	a4,a4,a3
    469c:	02dc07b3          	mul	a5,s8,a3
    46a0:	02dc36b3          	mulhu	a3,s8,a3
    46a4:	00d70733          	add	a4,a4,a3
    46a8:	01071713          	slli	a4,a4,0x10
    46ac:	0107d793          	srli	a5,a5,0x10
    46b0:	00f707b3          	add	a5,a4,a5
    46b4:	40fb87b3          	sub	a5,s7,a5
    46b8:	41f7d693          	srai	a3,a5,0x1f
    46bc:	02f686b3          	mul	a3,a3,a5
    46c0:	02f78733          	mul	a4,a5,a5
    46c4:	02f7b633          	mulhu	a2,a5,a5
    46c8:	20c6a6b3          	sh1add	a3,a3,a2
    46cc:	01069693          	slli	a3,a3,0x10
    46d0:	01075713          	srli	a4,a4,0x10
    46d4:	00e68733          	add	a4,a3,a4
    46d8:	41f75513          	srai	a0,a4,0x1f
    46dc:	01e75693          	srli	a3,a4,0x1e
    46e0:	20d546b3          	sh2add	a3,a0,a3
    46e4:	00271613          	slli	a2,a4,0x2
    46e8:	01069693          	slli	a3,a3,0x10
    46ec:	01065613          	srli	a2,a2,0x10
    46f0:	00c68633          	add	a2,a3,a2
    46f4:	f4a60613          	addi	a2,a2,-182
    46f8:	41f65593          	srai	a1,a2,0x1f
    46fc:	02e585b3          	mul	a1,a1,a4
    4700:	02c506b3          	mul	a3,a0,a2
    4704:	00d585b3          	add	a1,a1,a3
    4708:	02e606b3          	mul	a3,a2,a4
    470c:	02e63633          	mulhu	a2,a2,a4
    4710:	00c58633          	add	a2,a1,a2
    4714:	01061613          	slli	a2,a2,0x10
    4718:	0106d693          	srli	a3,a3,0x10
    471c:	00d606b3          	add	a3,a2,a3
    4720:	00003637          	lui	a2,0x3
    4724:	aab60613          	addi	a2,a2,-1365 # 2aab <T9_start+0x2f>
    4728:	00c686b3          	add	a3,a3,a2
    472c:	41f6d613          	srai	a2,a3,0x1f
    4730:	02e60633          	mul	a2,a2,a4
    4734:	02d50533          	mul	a0,a0,a3
    4738:	00a60633          	add	a2,a2,a0
    473c:	02e685b3          	mul	a1,a3,a4
    4740:	02e6b6b3          	mulhu	a3,a3,a4
    4744:	00d60733          	add	a4,a2,a3
    4748:	01071713          	slli	a4,a4,0x10
    474c:	0105d693          	srli	a3,a1,0x10
    4750:	00d706b3          	add	a3,a4,a3
    4754:	00020737          	lui	a4,0x20
    4758:	00e686b3          	add	a3,a3,a4
    475c:	40f68633          	sub	a2,a3,a5
    4760:	02f68c63          	beq	a3,a5,4798 <T16_start+0x160>
    4764:	00f7d713          	srli	a4,a5,0xf
    4768:	01179793          	slli	a5,a5,0x11
    476c:	01071713          	slli	a4,a4,0x10
    4770:	0107d793          	srli	a5,a5,0x10
    4774:	00f707b3          	add	a5,a4,a5
    4778:	41f7d713          	srai	a4,a5,0x1f
    477c:	0107d593          	srli	a1,a5,0x10
    4780:	01071713          	slli	a4,a4,0x10
    4784:	41f65693          	srai	a3,a2,0x1f
    4788:	01079513          	slli	a0,a5,0x10
    478c:	00e585b3          	add	a1,a1,a4
    4790:	3a5060ef          	jal	b334 <__divdi3>
    4794:	00050613          	mv	a2,a0
    4798:	000107b7          	lui	a5,0x10
    479c:	00f606b3          	add	a3,a2,a5
    47a0:	260c4663          	bltz	s8,4a0c <T16_end+0x2c>
    47a4:	410c5c13          	srai	s8,s8,0x10
    47a8:	00010737          	lui	a4,0x10
    47ac:	01871733          	sll	a4,a4,s8
    47b0:	41f75793          	srai	a5,a4,0x1f
    47b4:	41f6d613          	srai	a2,a3,0x1f
    47b8:	02d787b3          	mul	a5,a5,a3
    47bc:	02e60633          	mul	a2,a2,a4
    47c0:	00c787b3          	add	a5,a5,a2
    47c4:	02d70633          	mul	a2,a4,a3
    47c8:	02d73733          	mulhu	a4,a4,a3
    47cc:	00e787b3          	add	a5,a5,a4
    47d0:	01079793          	slli	a5,a5,0x10
    47d4:	01065713          	srli	a4,a2,0x10
    47d8:	00e787b3          	add	a5,a5,a4
    47dc:	16f12c23          	sw	a5,376(sp)
    47e0:	00492783          	lw	a5,4(s2)
    47e4:	01092683          	lw	a3,16(s2)
    47e8:	41f6d713          	srai	a4,a3,0x1f
    47ec:	41f7d613          	srai	a2,a5,0x1f
    47f0:	02f70733          	mul	a4,a4,a5
    47f4:	02d60633          	mul	a2,a2,a3
    47f8:	00c70733          	add	a4,a4,a2
    47fc:	02f68633          	mul	a2,a3,a5
    4800:	02f6b6b3          	mulhu	a3,a3,a5
    4804:	00d70733          	add	a4,a4,a3
    4808:	01071713          	slli	a4,a4,0x10
    480c:	01065693          	srli	a3,a2,0x10
    4810:	00d706b3          	add	a3,a4,a3
    4814:	16d12e23          	sw	a3,380(sp)
    4818:	0044a703          	lw	a4,4(s1)
    481c:	00171693          	slli	a3,a4,0x1
    4820:	18d12023          	sw	a3,384(sp)
    4824:	000106b7          	lui	a3,0x10
    4828:	18d12223          	sw	a3,388(sp)
    482c:	0004a683          	lw	a3,0(s1)
    4830:	017686b3          	add	a3,a3,s7
    4834:	18d12423          	sw	a3,392(sp)
    4838:	41770733          	sub	a4,a4,s7
    483c:	18e12623          	sw	a4,396(sp)
    4840:	00010737          	lui	a4,0x10
    4844:	18078c63          	beqz	a5,49dc <T16_start+0x3a4>
    4848:	40f006b3          	neg	a3,a5
    484c:	0ad7e6b3          	max	a3,a5,a3
    4850:	41f6d713          	srai	a4,a3,0x1f
    4854:	00017637          	lui	a2,0x17
    4858:	15460613          	addi	a2,a2,340 # 17154 <heap.cpp.6b15d6f6+0x953>
    485c:	02c70733          	mul	a4,a4,a2
    4860:	02c68bb3          	mul	s7,a3,a2
    4864:	02c6b6b3          	mulhu	a3,a3,a2
    4868:	00d70733          	add	a4,a4,a3
    486c:	01071713          	slli	a4,a4,0x10
    4870:	010bdb93          	srli	s7,s7,0x10
    4874:	01770bb3          	add	s7,a4,s7
    4878:	00008737          	lui	a4,0x8
    487c:	00eb8bb3          	add	s7,s7,a4
    4880:	ffff0737          	lui	a4,0xffff0
    4884:	00ebfbb3          	and	s7,s7,a4
    4888:	1807cc63          	bltz	a5,4a20 <T16_end+0x40>
    488c:	41fbd713          	srai	a4,s7,0x1f
    4890:	0000b6b7          	lui	a3,0xb
    4894:	17268693          	addi	a3,a3,370 # b172 <__subdf3+0x62e>
    4898:	02d70733          	mul	a4,a4,a3
    489c:	02db8633          	mul	a2,s7,a3
    48a0:	02dbb6b3          	mulhu	a3,s7,a3
    48a4:	00d70733          	add	a4,a4,a3
    48a8:	01071713          	slli	a4,a4,0x10
    48ac:	01065693          	srli	a3,a2,0x10
    48b0:	00d706b3          	add	a3,a4,a3
    48b4:	40d787b3          	sub	a5,a5,a3
    48b8:	41f7d693          	srai	a3,a5,0x1f
    48bc:	02f686b3          	mul	a3,a3,a5
    48c0:	02f78733          	mul	a4,a5,a5
    48c4:	02f7b633          	mulhu	a2,a5,a5
    48c8:	20c6a6b3          	sh1add	a3,a3,a2
    48cc:	01069693          	slli	a3,a3,0x10
    48d0:	01075713          	srli	a4,a4,0x10
    48d4:	00e68733          	add	a4,a3,a4
    48d8:	41f75513          	srai	a0,a4,0x1f
    48dc:	01e75693          	srli	a3,a4,0x1e
    48e0:	20d546b3          	sh2add	a3,a0,a3
    48e4:	00271613          	slli	a2,a4,0x2
    48e8:	01069693          	slli	a3,a3,0x10
    48ec:	01065613          	srli	a2,a2,0x10
    48f0:	00c68633          	add	a2,a3,a2
    48f4:	f4a60613          	addi	a2,a2,-182
    48f8:	41f65593          	srai	a1,a2,0x1f
    48fc:	02e585b3          	mul	a1,a1,a4
    4900:	02c506b3          	mul	a3,a0,a2
    4904:	00d585b3          	add	a1,a1,a3
    4908:	02e606b3          	mul	a3,a2,a4
    490c:	02e63633          	mulhu	a2,a2,a4
    4910:	00c58633          	add	a2,a1,a2
    4914:	01061613          	slli	a2,a2,0x10
    4918:	0106d693          	srli	a3,a3,0x10
    491c:	00d606b3          	add	a3,a2,a3
    4920:	00003637          	lui	a2,0x3
    4924:	aab60613          	addi	a2,a2,-1365 # 2aab <T9_start+0x2f>
    4928:	00c686b3          	add	a3,a3,a2
    492c:	41f6d613          	srai	a2,a3,0x1f
    4930:	02e60633          	mul	a2,a2,a4
    4934:	02d50533          	mul	a0,a0,a3
    4938:	00a60633          	add	a2,a2,a0
    493c:	02e685b3          	mul	a1,a3,a4
    4940:	02e6b6b3          	mulhu	a3,a3,a4
    4944:	00d60733          	add	a4,a2,a3
    4948:	01071713          	slli	a4,a4,0x10
    494c:	0105d693          	srli	a3,a1,0x10
    4950:	00d706b3          	add	a3,a4,a3
    4954:	00020737          	lui	a4,0x20
    4958:	00e686b3          	add	a3,a3,a4
    495c:	40f68633          	sub	a2,a3,a5
    4960:	02f68c63          	beq	a3,a5,4998 <T16_start+0x360>
    4964:	00f7d713          	srli	a4,a5,0xf
    4968:	01179793          	slli	a5,a5,0x11
    496c:	01071713          	slli	a4,a4,0x10
    4970:	0107d793          	srli	a5,a5,0x10
    4974:	00f707b3          	add	a5,a4,a5
    4978:	41f7d713          	srai	a4,a5,0x1f
    497c:	0107d593          	srli	a1,a5,0x10
    4980:	01071713          	slli	a4,a4,0x10
    4984:	41f65693          	srai	a3,a2,0x1f
    4988:	01079513          	slli	a0,a5,0x10
    498c:	00e585b3          	add	a1,a1,a4
    4990:	1a5060ef          	jal	b334 <__divdi3>
    4994:	00050613          	mv	a2,a0
    4998:	000107b7          	lui	a5,0x10
    499c:	00f606b3          	add	a3,a2,a5
    49a0:	080bc463          	bltz	s7,4a28 <T16_end+0x48>
    49a4:	410bdb93          	srai	s7,s7,0x10
    49a8:	000107b7          	lui	a5,0x10
    49ac:	017797b3          	sll	a5,a5,s7
    49b0:	41f7d713          	srai	a4,a5,0x1f
    49b4:	41f6d613          	srai	a2,a3,0x1f
    49b8:	02d70733          	mul	a4,a4,a3
    49bc:	02f60633          	mul	a2,a2,a5
    49c0:	00c70733          	add	a4,a4,a2
    49c4:	02d78633          	mul	a2,a5,a3
    49c8:	02d7b7b3          	mulhu	a5,a5,a3
    49cc:	00f70733          	add	a4,a4,a5
    49d0:	01071713          	slli	a4,a4,0x10
    49d4:	01065793          	srli	a5,a2,0x10
    49d8:	00f70733          	add	a4,a4,a5
    49dc:	18e12823          	sw	a4,400(sp)

000049e0 <T16_end>:
    49e0:	b00027f3          	csrr	a5,mcycle
    49e4:	416787b3          	sub	a5,a5,s6
    49e8:	04f9a023          	sw	a5,64(s3)
    49ec:	17812603          	lw	a2,376(sp)
    49f0:	17810713          	addi	a4,sp,376
    49f4:	00000513          	li	a0,0
    49f8:	00100793          	li	a5,1
    49fc:	00700593          	li	a1,7
    4a00:	0440006f          	j	4a44 <T16_end+0x64>
    4a04:	41800c33          	neg	s8,s8
    4a08:	c85ff06f          	j	468c <T16_start+0x54>
    4a0c:	418007b3          	neg	a5,s8
    4a10:	4107d793          	srai	a5,a5,0x10
    4a14:	00010737          	lui	a4,0x10
    4a18:	40f75733          	sra	a4,a4,a5
    4a1c:	d95ff06f          	j	47b0 <T16_start+0x178>
    4a20:	41700bb3          	neg	s7,s7
    4a24:	e69ff06f          	j	488c <T16_start+0x254>
    4a28:	41700733          	neg	a4,s7
    4a2c:	41075713          	srai	a4,a4,0x10
    4a30:	40e7d7b3          	sra	a5,a5,a4
    4a34:	f7dff06f          	j	49b0 <T16_start+0x378>
    4a38:	00178793          	addi	a5,a5,1 # 10001 <fast_intr_ctrl.c.233e5230+0x208>
    4a3c:	00470713          	addi	a4,a4,4 # 10004 <fast_intr_ctrl.c.233e5230+0x20b>
    4a40:	00b78c63          	beq	a5,a1,4a58 <T16_end+0x78>
    4a44:	00472683          	lw	a3,4(a4)
    4a48:	fec6c8e3          	blt	a3,a2,4a38 <T16_end+0x58>
    4a4c:	00068613          	mv	a2,a3
    4a50:	00078513          	mv	a0,a5
    4a54:	fe5ff06f          	j	4a38 <T16_end+0x58>
    4a58:	00020737          	lui	a4,0x20
    4a5c:	000207b7          	lui	a5,0x20
    4a60:	0d878793          	addi	a5,a5,216 # 200d8 <next.11>
    4a64:	20f54533          	sh2add	a0,a0,a5
    4a68:	00052783          	lw	a5,0(a0)
    4a6c:	1fc70713          	addi	a4,a4,508 # 201fc <jump_table.28>
    4a70:	20e7c7b3          	sh2add	a5,a5,a4
    4a74:	0007a783          	lw	a5,0(a5)
    4a78:	928fc06f          	j	ba0 <inferenceTPG+0x50>
    4a7c:	1fb12823          	sw	s11,496(sp)

00004a80 <T17_start>:
    4a80:	b00027f3          	csrr	a5,mcycle
    4a84:	00f12623          	sw	a5,12(sp)
    4a88:	000aa783          	lw	a5,0(s5)
    4a8c:	0004a703          	lw	a4,0(s1)
    4a90:	00e12423          	sw	a4,8(sp)
    4a94:	0ae7e733          	max	a4,a5,a4
    4a98:	1ce12823          	sw	a4,464(sp)
    4a9c:	0084ac03          	lw	s8,8(s1)
    4aa0:	0044a703          	lw	a4,4(s1)
    4aa4:	00e12223          	sw	a4,4(sp)
    4aa8:	00fc07b3          	add	a5,s8,a5
    4aac:	0ae7e7b3          	max	a5,a5,a4
    4ab0:	1cf12a23          	sw	a5,468(sp)
    4ab4:	00492b83          	lw	s7,4(s2)
    4ab8:	000bd463          	bgez	s7,4ac0 <T17_start+0x40>
    4abc:	6550106f          	j	6910 <T25_end+0x180>
    4ac0:	000b9463          	bnez	s7,4ac8 <T17_start+0x48>
    4ac4:	6290106f          	j	68ec <T25_end+0x15c>
    4ac8:	000207b7          	lui	a5,0x20
    4acc:	4377dc63          	bge	a5,s7,4f04 <T17_end+0x28>
    4ad0:	000b8693          	mv	a3,s7
    4ad4:	00000b13          	li	s6,0
    4ad8:	4016d693          	srai	a3,a3,0x1
    4adc:	001b0b13          	addi	s6,s6,1 # ffff0001 <_sp+0xfffc6051>
    4ae0:	fed7cce3          	blt	a5,a3,4ad8 <T17_start+0x58>
    4ae4:	ffff0cb7          	lui	s9,0xffff0
    4ae8:	019687b3          	add	a5,a3,s9
    4aec:	00078d93          	mv	s11,a5
    4af0:	41f7d793          	srai	a5,a5,0x1f
    4af4:	010dd593          	srli	a1,s11,0x10
    4af8:	01079793          	slli	a5,a5,0x10
    4afc:	00010737          	lui	a4,0x10
    4b00:	00e68633          	add	a2,a3,a4
    4b04:	41f65693          	srai	a3,a2,0x1f
    4b08:	010d9513          	slli	a0,s11,0x10
    4b0c:	00f585b3          	add	a1,a1,a5
    4b10:	025060ef          	jal	b334 <__divdi3>
    4b14:	41f55613          	srai	a2,a0,0x1f
    4b18:	02a607b3          	mul	a5,a2,a0
    4b1c:	02a50733          	mul	a4,a0,a0
    4b20:	02a536b3          	mulhu	a3,a0,a0
    4b24:	20d7a7b3          	sh1add	a5,a5,a3
    4b28:	01079793          	slli	a5,a5,0x10
    4b2c:	01075713          	srli	a4,a4,0x10
    4b30:	00e78733          	add	a4,a5,a4
    4b34:	41f75313          	srai	t1,a4,0x1f
    4b38:	02e306b3          	mul	a3,t1,a4
    4b3c:	02e707b3          	mul	a5,a4,a4
    4b40:	02e735b3          	mulhu	a1,a4,a4
    4b44:	20b6a6b3          	sh1add	a3,a3,a1
    4b48:	01069693          	slli	a3,a3,0x10
    4b4c:	0107d793          	srli	a5,a5,0x10
    4b50:	00f687b3          	add	a5,a3,a5
    4b54:	41f7d813          	srai	a6,a5,0x1f
    4b58:	010b1b13          	slli	s6,s6,0x10
    4b5c:	41fb5693          	srai	a3,s6,0x1f
    4b60:	0000b8b7          	lui	a7,0xb
    4b64:	17288893          	addi	a7,a7,370 # b172 <__subdf3+0x62e>
    4b68:	031686b3          	mul	a3,a3,a7
    4b6c:	031b05b3          	mul	a1,s6,a7
    4b70:	031b3b33          	mulhu	s6,s6,a7
    4b74:	016686b3          	add	a3,a3,s6
    4b78:	01069693          	slli	a3,a3,0x10
    4b7c:	0105d593          	srli	a1,a1,0x10
    4b80:	00b685b3          	add	a1,a3,a1
    4b84:	00bd85b3          	add	a1,s11,a1
    4b88:	000028b7          	lui	a7,0x2
    4b8c:	5e288893          	addi	a7,a7,1506 # 25e2 <T7_end+0x96>
    4b90:	03180e33          	mul	t3,a6,a7
    4b94:	031786b3          	mul	a3,a5,a7
    4b98:	0317b8b3          	mulhu	a7,a5,a7
    4b9c:	011e08b3          	add	a7,t3,a7
    4ba0:	01089893          	slli	a7,a7,0x10
    4ba4:	0106d693          	srli	a3,a3,0x10
    4ba8:	00d886b3          	add	a3,a7,a3
    4bac:	000038b7          	lui	a7,0x3
    4bb0:	e8d88893          	addi	a7,a7,-371 # 2e8d <T9_start+0x411>
    4bb4:	011686b3          	add	a3,a3,a7
    4bb8:	41f6de13          	srai	t3,a3,0x1f
    4bbc:	02fe0e33          	mul	t3,t3,a5
    4bc0:	02d808b3          	mul	a7,a6,a3
    4bc4:	011e0e33          	add	t3,t3,a7
    4bc8:	02f688b3          	mul	a7,a3,a5
    4bcc:	02f6b6b3          	mulhu	a3,a3,a5
    4bd0:	00de06b3          	add	a3,t3,a3
    4bd4:	01069693          	slli	a3,a3,0x10
    4bd8:	0108d893          	srli	a7,a7,0x10
    4bdc:	011688b3          	add	a7,a3,a7
    4be0:	000056b7          	lui	a3,0x5
    4be4:	92568693          	addi	a3,a3,-1755 # 4925 <T16_start+0x2ed>
    4be8:	00d888b3          	add	a7,a7,a3
    4bec:	41f8de13          	srai	t3,a7,0x1f
    4bf0:	02fe0e33          	mul	t3,t3,a5
    4bf4:	031806b3          	mul	a3,a6,a7
    4bf8:	00de0e33          	add	t3,t3,a3
    4bfc:	02f886b3          	mul	a3,a7,a5
    4c00:	02f8b8b3          	mulhu	a7,a7,a5
    4c04:	011e08b3          	add	a7,t3,a7
    4c08:	01089893          	slli	a7,a7,0x10
    4c0c:	0106d693          	srli	a3,a3,0x10
    4c10:	00d886b3          	add	a3,a7,a3
    4c14:	0000b8b7          	lui	a7,0xb
    4c18:	aab88893          	addi	a7,a7,-1365 # aaab <__muldf3+0x54f>
    4c1c:	011686b3          	add	a3,a3,a7
    4c20:	41f6d893          	srai	a7,a3,0x1f
    4c24:	02e888b3          	mul	a7,a7,a4
    4c28:	02d30333          	mul	t1,t1,a3
    4c2c:	00688333          	add	t1,a7,t1
    4c30:	02e688b3          	mul	a7,a3,a4
    4c34:	02e6b6b3          	mulhu	a3,a3,a4
    4c38:	00d30733          	add	a4,t1,a3
    4c3c:	01071713          	slli	a4,a4,0x10
    4c40:	0108d893          	srli	a7,a7,0x10
    4c44:	011708b3          	add	a7,a4,a7
    4c48:	00002737          	lui	a4,0x2
    4c4c:	73470713          	addi	a4,a4,1844 # 2734 <T8_start+0x13c>
    4c50:	02e80333          	mul	t1,a6,a4
    4c54:	02e786b3          	mul	a3,a5,a4
    4c58:	02e7b733          	mulhu	a4,a5,a4
    4c5c:	00e30733          	add	a4,t1,a4
    4c60:	01071713          	slli	a4,a4,0x10
    4c64:	0106d693          	srli	a3,a3,0x10
    4c68:	00d706b3          	add	a3,a4,a3
    4c6c:	00004737          	lui	a4,0x4
    4c70:	8e470713          	addi	a4,a4,-1820 # 38e4 <T12_start+0x278>
    4c74:	00e686b3          	add	a3,a3,a4
    4c78:	41f6d313          	srai	t1,a3,0x1f
    4c7c:	02f30333          	mul	t1,t1,a5
    4c80:	02d80733          	mul	a4,a6,a3
    4c84:	00e30333          	add	t1,t1,a4
    4c88:	02f68733          	mul	a4,a3,a5
    4c8c:	02f6b6b3          	mulhu	a3,a3,a5
    4c90:	00d306b3          	add	a3,t1,a3
    4c94:	01069693          	slli	a3,a3,0x10
    4c98:	01075713          	srli	a4,a4,0x10
    4c9c:	00e68733          	add	a4,a3,a4
    4ca0:	000066b7          	lui	a3,0x6
    4ca4:	66668693          	addi	a3,a3,1638 # 6666 <T25_start+0x41e>
    4ca8:	00d70733          	add	a4,a4,a3
    4cac:	41f75693          	srai	a3,a4,0x1f
    4cb0:	02f686b3          	mul	a3,a3,a5
    4cb4:	02e80833          	mul	a6,a6,a4
    4cb8:	010686b3          	add	a3,a3,a6
    4cbc:	02f70833          	mul	a6,a4,a5
    4cc0:	02f73733          	mulhu	a4,a4,a5
    4cc4:	00e687b3          	add	a5,a3,a4
    4cc8:	01079793          	slli	a5,a5,0x10
    4ccc:	01085713          	srli	a4,a6,0x10
    4cd0:	00e78733          	add	a4,a5,a4
    4cd4:	00e888b3          	add	a7,a7,a4
    4cd8:	411d87b3          	sub	a5,s11,a7
    4cdc:	41f7d713          	srai	a4,a5,0x1f
    4ce0:	02a70733          	mul	a4,a4,a0
    4ce4:	02f60633          	mul	a2,a2,a5
    4ce8:	00c70733          	add	a4,a4,a2
    4cec:	02a786b3          	mul	a3,a5,a0
    4cf0:	02a7b7b3          	mulhu	a5,a5,a0
    4cf4:	00f707b3          	add	a5,a4,a5
    4cf8:	01079793          	slli	a5,a5,0x10
    4cfc:	0106d713          	srli	a4,a3,0x10
    4d00:	00e78733          	add	a4,a5,a4
    4d04:	40e587b3          	sub	a5,a1,a4
    4d08:	00078d93          	mv	s11,a5
    4d0c:	00812783          	lw	a5,8(sp)
    4d10:	00fc0b33          	add	s6,s8,a5
    4d14:	00412783          	lw	a5,4(sp)
    4d18:	418787b3          	sub	a5,a5,s8
    4d1c:	00f12423          	sw	a5,8(sp)
    4d20:	417006b3          	neg	a3,s7
    4d24:	0adbe6b3          	max	a3,s7,a3
    4d28:	41f6d713          	srai	a4,a3,0x1f
    4d2c:	00017637          	lui	a2,0x17
    4d30:	15460613          	addi	a2,a2,340 # 17154 <heap.cpp.6b15d6f6+0x953>
    4d34:	02c70733          	mul	a4,a4,a2
    4d38:	02c687b3          	mul	a5,a3,a2
    4d3c:	02c6b6b3          	mulhu	a3,a3,a2
    4d40:	00d70733          	add	a4,a4,a3
    4d44:	01071713          	slli	a4,a4,0x10
    4d48:	0107d793          	srli	a5,a5,0x10
    4d4c:	00f707b3          	add	a5,a4,a5
    4d50:	00008737          	lui	a4,0x8
    4d54:	00e787b3          	add	a5,a5,a4
    4d58:	0197f7b3          	and	a5,a5,s9
    4d5c:	00078c93          	mv	s9,a5
    4d60:	41fcd713          	srai	a4,s9,0x1f
    4d64:	0000b6b7          	lui	a3,0xb
    4d68:	17268693          	addi	a3,a3,370 # b172 <__subdf3+0x62e>
    4d6c:	02d70733          	mul	a4,a4,a3
    4d70:	02dc87b3          	mul	a5,s9,a3
    4d74:	02dcb6b3          	mulhu	a3,s9,a3
    4d78:	00d70733          	add	a4,a4,a3
    4d7c:	01071713          	slli	a4,a4,0x10
    4d80:	0107d793          	srli	a5,a5,0x10
    4d84:	00f707b3          	add	a5,a4,a5
    4d88:	40fb87b3          	sub	a5,s7,a5
    4d8c:	41f7d713          	srai	a4,a5,0x1f
    4d90:	02f70733          	mul	a4,a4,a5
    4d94:	02f78633          	mul	a2,a5,a5
    4d98:	02f7b6b3          	mulhu	a3,a5,a5
    4d9c:	20d72733          	sh1add	a4,a4,a3
    4da0:	01071713          	slli	a4,a4,0x10
    4da4:	01065613          	srli	a2,a2,0x10
    4da8:	00c70633          	add	a2,a4,a2
    4dac:	41f65513          	srai	a0,a2,0x1f
    4db0:	01e65713          	srli	a4,a2,0x1e
    4db4:	20e54733          	sh2add	a4,a0,a4
    4db8:	00261693          	slli	a3,a2,0x2
    4dbc:	01071713          	slli	a4,a4,0x10
    4dc0:	0106d693          	srli	a3,a3,0x10
    4dc4:	00d706b3          	add	a3,a4,a3
    4dc8:	f4a68693          	addi	a3,a3,-182
    4dcc:	41f6d593          	srai	a1,a3,0x1f
    4dd0:	02c585b3          	mul	a1,a1,a2
    4dd4:	02d50733          	mul	a4,a0,a3
    4dd8:	00e585b3          	add	a1,a1,a4
    4ddc:	02c68733          	mul	a4,a3,a2
    4de0:	02c6b6b3          	mulhu	a3,a3,a2
    4de4:	00d586b3          	add	a3,a1,a3
    4de8:	01069693          	slli	a3,a3,0x10
    4dec:	01075713          	srli	a4,a4,0x10
    4df0:	00e68733          	add	a4,a3,a4
    4df4:	000036b7          	lui	a3,0x3
    4df8:	aab68693          	addi	a3,a3,-1365 # 2aab <T9_start+0x2f>
    4dfc:	00d70733          	add	a4,a4,a3
    4e00:	41f75693          	srai	a3,a4,0x1f
    4e04:	02c686b3          	mul	a3,a3,a2
    4e08:	02e50533          	mul	a0,a0,a4
    4e0c:	00a686b3          	add	a3,a3,a0
    4e10:	02c705b3          	mul	a1,a4,a2
    4e14:	02c73733          	mulhu	a4,a4,a2
    4e18:	00e68733          	add	a4,a3,a4
    4e1c:	01071713          	slli	a4,a4,0x10
    4e20:	0105d693          	srli	a3,a1,0x10
    4e24:	00d706b3          	add	a3,a4,a3
    4e28:	00020737          	lui	a4,0x20
    4e2c:	00e686b3          	add	a3,a3,a4
    4e30:	40f68633          	sub	a2,a3,a5
    4e34:	02f68c63          	beq	a3,a5,4e6c <T17_start+0x3ec>
    4e38:	00f7d713          	srli	a4,a5,0xf
    4e3c:	01179793          	slli	a5,a5,0x11
    4e40:	01071713          	slli	a4,a4,0x10
    4e44:	0107d793          	srli	a5,a5,0x10
    4e48:	00f707b3          	add	a5,a4,a5
    4e4c:	41f7d713          	srai	a4,a5,0x1f
    4e50:	0107d593          	srli	a1,a5,0x10
    4e54:	01071713          	slli	a4,a4,0x10
    4e58:	41f65693          	srai	a3,a2,0x1f
    4e5c:	01079513          	slli	a0,a5,0x10
    4e60:	00e585b3          	add	a1,a1,a4
    4e64:	4d0060ef          	jal	b334 <__divdi3>
    4e68:	00050613          	mv	a2,a0
    4e6c:	000107b7          	lui	a5,0x10
    4e70:	00f606b3          	add	a3,a2,a5
    4e74:	080cce63          	bltz	s9,4f10 <T17_end+0x34>
    4e78:	410cd793          	srai	a5,s9,0x10
    4e7c:	00010737          	lui	a4,0x10
    4e80:	00f71733          	sll	a4,a4,a5
    4e84:	41f75793          	srai	a5,a4,0x1f
    4e88:	41f6d613          	srai	a2,a3,0x1f
    4e8c:	02d787b3          	mul	a5,a5,a3
    4e90:	02e60633          	mul	a2,a2,a4
    4e94:	00c787b3          	add	a5,a5,a2
    4e98:	02d70633          	mul	a2,a4,a3
    4e9c:	02d73733          	mulhu	a4,a4,a3
    4ea0:	00e787b3          	add	a5,a5,a4
    4ea4:	01079793          	slli	a5,a5,0x10
    4ea8:	01065713          	srli	a4,a2,0x10
    4eac:	00e787b3          	add	a5,a5,a4
    4eb0:	1db12c23          	sw	s11,472(sp)
    4eb4:	1d612e23          	sw	s6,476(sp)
    4eb8:	00812703          	lw	a4,8(sp)
    4ebc:	1ee12023          	sw	a4,480(sp)
    4ec0:	1ef12223          	sw	a5,484(sp)
    4ec4:	000a2783          	lw	a5,0(s4)
    4ec8:	00412703          	lw	a4,4(sp)
    4ecc:	0ae7e7b3          	max	a5,a5,a4
    4ed0:	1ef12423          	sw	a5,488(sp)
    4ed4:	0a0c67b3          	max	a5,s8,zero
    4ed8:	1ef12623          	sw	a5,492(sp)

00004edc <T17_end>:
    4edc:	b00027f3          	csrr	a5,mcycle
    4ee0:	00c12703          	lw	a4,12(sp)
    4ee4:	40e787b3          	sub	a5,a5,a4
    4ee8:	04f9a223          	sw	a5,68(s3)
    4eec:	1d012603          	lw	a2,464(sp)
    4ef0:	1d010713          	addi	a4,sp,464
    4ef4:	00000513          	li	a0,0
    4ef8:	00100793          	li	a5,1
    4efc:	00800593          	li	a1,8
    4f00:	0300006f          	j	4f30 <T17_end+0x54>
    4f04:	000b8693          	mv	a3,s7
    4f08:	00000b13          	li	s6,0
    4f0c:	bd9ff06f          	j	4ae4 <T17_start+0x64>
    4f10:	419007b3          	neg	a5,s9
    4f14:	4107d793          	srai	a5,a5,0x10
    4f18:	00010737          	lui	a4,0x10
    4f1c:	40f75733          	sra	a4,a4,a5
    4f20:	f65ff06f          	j	4e84 <T17_start+0x404>
    4f24:	00178793          	addi	a5,a5,1 # 10001 <fast_intr_ctrl.c.233e5230+0x208>
    4f28:	00470713          	addi	a4,a4,4 # 10004 <fast_intr_ctrl.c.233e5230+0x20b>
    4f2c:	00b78c63          	beq	a5,a1,4f44 <T17_end+0x68>
    4f30:	00472683          	lw	a3,4(a4)
    4f34:	fec6c8e3          	blt	a3,a2,4f24 <T17_end+0x48>
    4f38:	00068613          	mv	a2,a3
    4f3c:	00078513          	mv	a0,a5
    4f40:	fe5ff06f          	j	4f24 <T17_end+0x48>
    4f44:	00020737          	lui	a4,0x20
    4f48:	000207b7          	lui	a5,0x20
    4f4c:	0b878793          	addi	a5,a5,184 # 200b8 <next.10>
    4f50:	20f54533          	sh2add	a0,a0,a5
    4f54:	00052783          	lw	a5,0(a0)
    4f58:	1fc70713          	addi	a4,a4,508 # 201fc <jump_table.28>
    4f5c:	20e7c7b3          	sh2add	a5,a5,a4
    4f60:	0007a783          	lw	a5,0(a5)
    4f64:	1f012d83          	lw	s11,496(sp)
    4f68:	c39fb06f          	j	ba0 <inferenceTPG+0x50>

00004f6c <T18_start>:
    4f6c:	b0002bf3          	csrr	s7,mcycle
    4f70:	00492b03          	lw	s6,4(s2)
    4f74:	008a2783          	lw	a5,8(s4)
    4f78:	016787b3          	add	a5,a5,s6
    4f7c:	06f12623          	sw	a5,108(sp)
    4f80:	0044a783          	lw	a5,4(s1)
    4f84:	00010737          	lui	a4,0x10
    4f88:	18078c63          	beqz	a5,5120 <T18_start+0x1b4>
    4f8c:	40f006b3          	neg	a3,a5
    4f90:	0ad7e6b3          	max	a3,a5,a3
    4f94:	41f6d713          	srai	a4,a3,0x1f
    4f98:	00017637          	lui	a2,0x17
    4f9c:	15460613          	addi	a2,a2,340 # 17154 <heap.cpp.6b15d6f6+0x953>
    4fa0:	02c70733          	mul	a4,a4,a2
    4fa4:	02c68c33          	mul	s8,a3,a2
    4fa8:	02c6b6b3          	mulhu	a3,a3,a2
    4fac:	00d70733          	add	a4,a4,a3
    4fb0:	01071713          	slli	a4,a4,0x10
    4fb4:	010c5c13          	srli	s8,s8,0x10
    4fb8:	01870c33          	add	s8,a4,s8
    4fbc:	00008737          	lui	a4,0x8
    4fc0:	00ec0c33          	add	s8,s8,a4
    4fc4:	ffff0737          	lui	a4,0xffff0
    4fc8:	00ec7c33          	and	s8,s8,a4
    4fcc:	1a07cc63          	bltz	a5,5184 <T18_end+0x54>
    4fd0:	41fc5713          	srai	a4,s8,0x1f
    4fd4:	0000b6b7          	lui	a3,0xb
    4fd8:	17268693          	addi	a3,a3,370 # b172 <__subdf3+0x62e>
    4fdc:	02d70733          	mul	a4,a4,a3
    4fe0:	02dc0633          	mul	a2,s8,a3
    4fe4:	02dc36b3          	mulhu	a3,s8,a3
    4fe8:	00d70733          	add	a4,a4,a3
    4fec:	01071713          	slli	a4,a4,0x10
    4ff0:	01065693          	srli	a3,a2,0x10
    4ff4:	00d706b3          	add	a3,a4,a3
    4ff8:	40d787b3          	sub	a5,a5,a3
    4ffc:	41f7d693          	srai	a3,a5,0x1f
    5000:	02f686b3          	mul	a3,a3,a5
    5004:	02f78733          	mul	a4,a5,a5
    5008:	02f7b633          	mulhu	a2,a5,a5
    500c:	20c6a6b3          	sh1add	a3,a3,a2
    5010:	01069693          	slli	a3,a3,0x10
    5014:	01075713          	srli	a4,a4,0x10
    5018:	00e68733          	add	a4,a3,a4
    501c:	41f75513          	srai	a0,a4,0x1f
    5020:	01e75693          	srli	a3,a4,0x1e
    5024:	20d546b3          	sh2add	a3,a0,a3
    5028:	00271613          	slli	a2,a4,0x2
    502c:	01069693          	slli	a3,a3,0x10
    5030:	01065613          	srli	a2,a2,0x10
    5034:	00c68633          	add	a2,a3,a2
    5038:	f4a60613          	addi	a2,a2,-182
    503c:	41f65593          	srai	a1,a2,0x1f
    5040:	02e585b3          	mul	a1,a1,a4
    5044:	02c506b3          	mul	a3,a0,a2
    5048:	00d585b3          	add	a1,a1,a3
    504c:	02e606b3          	mul	a3,a2,a4
    5050:	02e63633          	mulhu	a2,a2,a4
    5054:	00c58633          	add	a2,a1,a2
    5058:	01061613          	slli	a2,a2,0x10
    505c:	0106d693          	srli	a3,a3,0x10
    5060:	00d606b3          	add	a3,a2,a3
    5064:	00003637          	lui	a2,0x3
    5068:	aab60613          	addi	a2,a2,-1365 # 2aab <T9_start+0x2f>
    506c:	00c686b3          	add	a3,a3,a2
    5070:	41f6d613          	srai	a2,a3,0x1f
    5074:	02e60633          	mul	a2,a2,a4
    5078:	02d50533          	mul	a0,a0,a3
    507c:	00a60633          	add	a2,a2,a0
    5080:	02e685b3          	mul	a1,a3,a4
    5084:	02e6b6b3          	mulhu	a3,a3,a4
    5088:	00d60733          	add	a4,a2,a3
    508c:	01071713          	slli	a4,a4,0x10
    5090:	0105d693          	srli	a3,a1,0x10
    5094:	00d706b3          	add	a3,a4,a3
    5098:	00020737          	lui	a4,0x20
    509c:	00e686b3          	add	a3,a3,a4
    50a0:	40f68633          	sub	a2,a3,a5
    50a4:	02f68c63          	beq	a3,a5,50dc <T18_start+0x170>
    50a8:	00f7d713          	srli	a4,a5,0xf
    50ac:	01179793          	slli	a5,a5,0x11
    50b0:	01071713          	slli	a4,a4,0x10
    50b4:	0107d793          	srli	a5,a5,0x10
    50b8:	00f707b3          	add	a5,a4,a5
    50bc:	41f7d713          	srai	a4,a5,0x1f
    50c0:	0107d593          	srli	a1,a5,0x10
    50c4:	01071713          	slli	a4,a4,0x10
    50c8:	41f65693          	srai	a3,a2,0x1f
    50cc:	01079513          	slli	a0,a5,0x10
    50d0:	00e585b3          	add	a1,a1,a4
    50d4:	260060ef          	jal	b334 <__divdi3>
    50d8:	00050613          	mv	a2,a0
    50dc:	000107b7          	lui	a5,0x10
    50e0:	00f606b3          	add	a3,a2,a5
    50e4:	0a0c4463          	bltz	s8,518c <T18_end+0x5c>
    50e8:	410c5c13          	srai	s8,s8,0x10
    50ec:	000107b7          	lui	a5,0x10
    50f0:	018797b3          	sll	a5,a5,s8
    50f4:	41f7d713          	srai	a4,a5,0x1f
    50f8:	41f6d613          	srai	a2,a3,0x1f
    50fc:	02d70733          	mul	a4,a4,a3
    5100:	02f60633          	mul	a2,a2,a5
    5104:	00c70733          	add	a4,a4,a2
    5108:	02d78633          	mul	a2,a5,a3
    510c:	02d7b7b3          	mulhu	a5,a5,a3
    5110:	00f70733          	add	a4,a4,a5
    5114:	01071713          	slli	a4,a4,0x10
    5118:	01065793          	srli	a5,a2,0x10
    511c:	00f70733          	add	a4,a4,a5
    5120:	06e12823          	sw	a4,112(sp)
    5124:	000aa783          	lw	a5,0(s5)
    5128:	016787b3          	add	a5,a5,s6
    512c:	06f12a23          	sw	a5,116(sp)

00005130 <T18_end>:
    5130:	b00027f3          	csrr	a5,mcycle
    5134:	417787b3          	sub	a5,a5,s7
    5138:	04f9a423          	sw	a5,72(s3)
    513c:	06c12683          	lw	a3,108(sp)
    5140:	07012703          	lw	a4,112(sp)
    5144:	00100793          	li	a5,1
    5148:	00d75663          	bge	a4,a3,5154 <T18_end+0x24>
    514c:	00068713          	mv	a4,a3
    5150:	00000793          	li	a5,0
    5154:	07412683          	lw	a3,116(sp)
    5158:	00e6c463          	blt	a3,a4,5160 <T18_end+0x30>
    515c:	00200793          	li	a5,2
    5160:	00020737          	lui	a4,0x20
    5164:	000206b7          	lui	a3,0x20
    5168:	0ac68693          	addi	a3,a3,172 # 200ac <next.9>
    516c:	20d7c7b3          	sh2add	a5,a5,a3
    5170:	0007a783          	lw	a5,0(a5) # 10000 <fast_intr_ctrl.c.233e5230+0x207>
    5174:	1fc70713          	addi	a4,a4,508 # 201fc <jump_table.28>
    5178:	20e7c7b3          	sh2add	a5,a5,a4
    517c:	0007a783          	lw	a5,0(a5)
    5180:	a21fb06f          	j	ba0 <inferenceTPG+0x50>
    5184:	41800c33          	neg	s8,s8
    5188:	e49ff06f          	j	4fd0 <T18_start+0x64>
    518c:	41800733          	neg	a4,s8
    5190:	41075713          	srai	a4,a4,0x10
    5194:	40e7d7b3          	sra	a5,a5,a4
    5198:	f5dff06f          	j	50f4 <T18_start+0x188>

0000519c <T19_start>:
    519c:	b00026f3          	csrr	a3,mcycle
    51a0:	00092703          	lw	a4,0(s2)
    51a4:	0004a783          	lw	a5,0(s1)
    51a8:	40f707b3          	sub	a5,a4,a5
    51ac:	06f12c23          	sw	a5,120(sp)
    51b0:	0084a783          	lw	a5,8(s1)
    51b4:	0ae7e7b3          	max	a5,a5,a4
    51b8:	06f12e23          	sw	a5,124(sp)
    51bc:	008a2783          	lw	a5,8(s4)
    51c0:	00492703          	lw	a4,4(s2)
    51c4:	00e787b3          	add	a5,a5,a4
    51c8:	08f12023          	sw	a5,128(sp)

000051cc <T19_end>:
    51cc:	b00027f3          	csrr	a5,mcycle
    51d0:	40d787b3          	sub	a5,a5,a3
    51d4:	04f9a623          	sw	a5,76(s3)
    51d8:	07812683          	lw	a3,120(sp)
    51dc:	07c12703          	lw	a4,124(sp)
    51e0:	00100793          	li	a5,1
    51e4:	00d75663          	bge	a4,a3,51f0 <T19_end+0x24>
    51e8:	00068713          	mv	a4,a3
    51ec:	00000793          	li	a5,0
    51f0:	08012683          	lw	a3,128(sp)
    51f4:	00e6c463          	blt	a3,a4,51fc <T19_end+0x30>
    51f8:	00200793          	li	a5,2
    51fc:	00020737          	lui	a4,0x20
    5200:	000206b7          	lui	a3,0x20
    5204:	0a068693          	addi	a3,a3,160 # 200a0 <next.8>
    5208:	20d7c7b3          	sh2add	a5,a5,a3
    520c:	0007a783          	lw	a5,0(a5)
    5210:	1fc70713          	addi	a4,a4,508 # 201fc <jump_table.28>
    5214:	20e7c7b3          	sh2add	a5,a5,a4
    5218:	0007a783          	lw	a5,0(a5)
    521c:	985fb06f          	j	ba0 <inferenceTPG+0x50>

00005220 <T20_start>:
    5220:	b0002bf3          	csrr	s7,mcycle
    5224:	0084ab03          	lw	s6,8(s1)
    5228:	000107b7          	lui	a5,0x10
    522c:	180b0c63          	beqz	s6,53c4 <T20_start+0x1a4>
    5230:	41600733          	neg	a4,s6
    5234:	0aeb6733          	max	a4,s6,a4
    5238:	41f75793          	srai	a5,a4,0x1f
    523c:	000176b7          	lui	a3,0x17
    5240:	15468693          	addi	a3,a3,340 # 17154 <heap.cpp.6b15d6f6+0x953>
    5244:	02d787b3          	mul	a5,a5,a3
    5248:	02d70c33          	mul	s8,a4,a3
    524c:	02d73733          	mulhu	a4,a4,a3
    5250:	00e787b3          	add	a5,a5,a4
    5254:	01079793          	slli	a5,a5,0x10
    5258:	010c5c13          	srli	s8,s8,0x10
    525c:	01878c33          	add	s8,a5,s8
    5260:	000087b7          	lui	a5,0x8
    5264:	00fc0c33          	add	s8,s8,a5
    5268:	ffff07b7          	lui	a5,0xffff0
    526c:	00fc7c33          	and	s8,s8,a5
    5270:	500b4263          	bltz	s6,5774 <T20_end+0x24>
    5274:	41fc5713          	srai	a4,s8,0x1f
    5278:	0000b6b7          	lui	a3,0xb
    527c:	17268693          	addi	a3,a3,370 # b172 <__subdf3+0x62e>
    5280:	02d70733          	mul	a4,a4,a3
    5284:	02dc07b3          	mul	a5,s8,a3
    5288:	02dc36b3          	mulhu	a3,s8,a3
    528c:	00d70733          	add	a4,a4,a3
    5290:	01071713          	slli	a4,a4,0x10
    5294:	0107d793          	srli	a5,a5,0x10
    5298:	00f707b3          	add	a5,a4,a5
    529c:	40fb07b3          	sub	a5,s6,a5
    52a0:	41f7d693          	srai	a3,a5,0x1f
    52a4:	02f686b3          	mul	a3,a3,a5
    52a8:	02f78733          	mul	a4,a5,a5
    52ac:	02f7b633          	mulhu	a2,a5,a5
    52b0:	20c6a6b3          	sh1add	a3,a3,a2
    52b4:	01069693          	slli	a3,a3,0x10
    52b8:	01075713          	srli	a4,a4,0x10
    52bc:	00e68733          	add	a4,a3,a4
    52c0:	41f75513          	srai	a0,a4,0x1f
    52c4:	01e75693          	srli	a3,a4,0x1e
    52c8:	20d546b3          	sh2add	a3,a0,a3
    52cc:	00271613          	slli	a2,a4,0x2
    52d0:	01069693          	slli	a3,a3,0x10
    52d4:	01065613          	srli	a2,a2,0x10
    52d8:	00c68633          	add	a2,a3,a2
    52dc:	f4a60613          	addi	a2,a2,-182
    52e0:	41f65593          	srai	a1,a2,0x1f
    52e4:	02e585b3          	mul	a1,a1,a4
    52e8:	02c506b3          	mul	a3,a0,a2
    52ec:	00d585b3          	add	a1,a1,a3
    52f0:	02e606b3          	mul	a3,a2,a4
    52f4:	02e63633          	mulhu	a2,a2,a4
    52f8:	00c58633          	add	a2,a1,a2
    52fc:	01061613          	slli	a2,a2,0x10
    5300:	0106d693          	srli	a3,a3,0x10
    5304:	00d606b3          	add	a3,a2,a3
    5308:	00003637          	lui	a2,0x3
    530c:	aab60613          	addi	a2,a2,-1365 # 2aab <T9_start+0x2f>
    5310:	00c686b3          	add	a3,a3,a2
    5314:	41f6d613          	srai	a2,a3,0x1f
    5318:	02e60633          	mul	a2,a2,a4
    531c:	02d50533          	mul	a0,a0,a3
    5320:	00a60633          	add	a2,a2,a0
    5324:	02e685b3          	mul	a1,a3,a4
    5328:	02e6b6b3          	mulhu	a3,a3,a4
    532c:	00d60733          	add	a4,a2,a3
    5330:	01071713          	slli	a4,a4,0x10
    5334:	0105d693          	srli	a3,a1,0x10
    5338:	00d706b3          	add	a3,a4,a3
    533c:	00020737          	lui	a4,0x20
    5340:	00e686b3          	add	a3,a3,a4
    5344:	40f68633          	sub	a2,a3,a5
    5348:	02f68c63          	beq	a3,a5,5380 <T20_start+0x160>
    534c:	00f7d713          	srli	a4,a5,0xf
    5350:	01179793          	slli	a5,a5,0x11
    5354:	01071713          	slli	a4,a4,0x10
    5358:	0107d793          	srli	a5,a5,0x10
    535c:	00f707b3          	add	a5,a4,a5
    5360:	41f7d713          	srai	a4,a5,0x1f
    5364:	0107d593          	srli	a1,a5,0x10
    5368:	01071713          	slli	a4,a4,0x10
    536c:	41f65693          	srai	a3,a2,0x1f
    5370:	01079513          	slli	a0,a5,0x10
    5374:	00e585b3          	add	a1,a1,a4
    5378:	7bd050ef          	jal	b334 <__divdi3>
    537c:	00050613          	mv	a2,a0
    5380:	000107b7          	lui	a5,0x10
    5384:	00f606b3          	add	a3,a2,a5
    5388:	3e0c4a63          	bltz	s8,577c <T20_end+0x2c>
    538c:	410c5c13          	srai	s8,s8,0x10
    5390:	00010737          	lui	a4,0x10
    5394:	01871733          	sll	a4,a4,s8
    5398:	41f75793          	srai	a5,a4,0x1f
    539c:	41f6d613          	srai	a2,a3,0x1f
    53a0:	02d787b3          	mul	a5,a5,a3
    53a4:	02e60633          	mul	a2,a2,a4
    53a8:	00c787b3          	add	a5,a5,a2
    53ac:	02d70633          	mul	a2,a4,a3
    53b0:	02d73733          	mulhu	a4,a4,a3
    53b4:	00e787b3          	add	a5,a5,a4
    53b8:	01079793          	slli	a5,a5,0x10
    53bc:	01065713          	srli	a4,a2,0x10
    53c0:	00e787b3          	add	a5,a5,a4
    53c4:	10f12e23          	sw	a5,284(sp)
    53c8:	000aa703          	lw	a4,0(s5)
    53cc:	41f75793          	srai	a5,a4,0x1f
    53d0:	41fb5693          	srai	a3,s6,0x1f
    53d4:	036787b3          	mul	a5,a5,s6
    53d8:	02e686b3          	mul	a3,a3,a4
    53dc:	00d787b3          	add	a5,a5,a3
    53e0:	036706b3          	mul	a3,a4,s6
    53e4:	03673733          	mulhu	a4,a4,s6
    53e8:	00e787b3          	add	a5,a5,a4
    53ec:	01079793          	slli	a5,a5,0x10
    53f0:	0106d713          	srli	a4,a3,0x10
    53f4:	00e78733          	add	a4,a5,a4
    53f8:	12e12023          	sw	a4,288(sp)
    53fc:	00492b03          	lw	s6,4(s2)
    5400:	000107b7          	lui	a5,0x10
    5404:	180b0c63          	beqz	s6,559c <T20_start+0x37c>
    5408:	41600733          	neg	a4,s6
    540c:	0aeb6733          	max	a4,s6,a4
    5410:	41f75793          	srai	a5,a4,0x1f
    5414:	000176b7          	lui	a3,0x17
    5418:	15468693          	addi	a3,a3,340 # 17154 <heap.cpp.6b15d6f6+0x953>
    541c:	02d787b3          	mul	a5,a5,a3
    5420:	02d70c33          	mul	s8,a4,a3
    5424:	02d73733          	mulhu	a4,a4,a3
    5428:	00e787b3          	add	a5,a5,a4
    542c:	01079793          	slli	a5,a5,0x10
    5430:	010c5c13          	srli	s8,s8,0x10
    5434:	01878c33          	add	s8,a5,s8
    5438:	000087b7          	lui	a5,0x8
    543c:	00fc0c33          	add	s8,s8,a5
    5440:	ffff07b7          	lui	a5,0xffff0
    5444:	00fc7c33          	and	s8,s8,a5
    5448:	340b4463          	bltz	s6,5790 <T20_end+0x40>
    544c:	41fc5713          	srai	a4,s8,0x1f
    5450:	0000b6b7          	lui	a3,0xb
    5454:	17268693          	addi	a3,a3,370 # b172 <__subdf3+0x62e>
    5458:	02d70733          	mul	a4,a4,a3
    545c:	02dc07b3          	mul	a5,s8,a3
    5460:	02dc36b3          	mulhu	a3,s8,a3
    5464:	00d70733          	add	a4,a4,a3
    5468:	01071713          	slli	a4,a4,0x10
    546c:	0107d793          	srli	a5,a5,0x10
    5470:	00f707b3          	add	a5,a4,a5
    5474:	40fb07b3          	sub	a5,s6,a5
    5478:	41f7d693          	srai	a3,a5,0x1f
    547c:	02f686b3          	mul	a3,a3,a5
    5480:	02f78733          	mul	a4,a5,a5
    5484:	02f7b633          	mulhu	a2,a5,a5
    5488:	20c6a6b3          	sh1add	a3,a3,a2
    548c:	01069693          	slli	a3,a3,0x10
    5490:	01075713          	srli	a4,a4,0x10
    5494:	00e68733          	add	a4,a3,a4
    5498:	41f75513          	srai	a0,a4,0x1f
    549c:	01e75693          	srli	a3,a4,0x1e
    54a0:	20d546b3          	sh2add	a3,a0,a3
    54a4:	00271613          	slli	a2,a4,0x2
    54a8:	01069693          	slli	a3,a3,0x10
    54ac:	01065613          	srli	a2,a2,0x10
    54b0:	00c68633          	add	a2,a3,a2
    54b4:	f4a60613          	addi	a2,a2,-182
    54b8:	41f65593          	srai	a1,a2,0x1f
    54bc:	02e585b3          	mul	a1,a1,a4
    54c0:	02c506b3          	mul	a3,a0,a2
    54c4:	00d585b3          	add	a1,a1,a3
    54c8:	02e606b3          	mul	a3,a2,a4
    54cc:	02e63633          	mulhu	a2,a2,a4
    54d0:	00c58633          	add	a2,a1,a2
    54d4:	01061613          	slli	a2,a2,0x10
    54d8:	0106d693          	srli	a3,a3,0x10
    54dc:	00d606b3          	add	a3,a2,a3
    54e0:	00003637          	lui	a2,0x3
    54e4:	aab60613          	addi	a2,a2,-1365 # 2aab <T9_start+0x2f>
    54e8:	00c686b3          	add	a3,a3,a2
    54ec:	41f6d613          	srai	a2,a3,0x1f
    54f0:	02e60633          	mul	a2,a2,a4
    54f4:	02d50533          	mul	a0,a0,a3
    54f8:	00a60633          	add	a2,a2,a0
    54fc:	02e685b3          	mul	a1,a3,a4
    5500:	02e6b6b3          	mulhu	a3,a3,a4
    5504:	00d60733          	add	a4,a2,a3
    5508:	01071713          	slli	a4,a4,0x10
    550c:	0105d693          	srli	a3,a1,0x10
    5510:	00d706b3          	add	a3,a4,a3
    5514:	00020737          	lui	a4,0x20
    5518:	00e686b3          	add	a3,a3,a4
    551c:	40f68633          	sub	a2,a3,a5
    5520:	02f68c63          	beq	a3,a5,5558 <T20_start+0x338>
    5524:	00f7d713          	srli	a4,a5,0xf
    5528:	01179793          	slli	a5,a5,0x11
    552c:	01071713          	slli	a4,a4,0x10
    5530:	0107d793          	srli	a5,a5,0x10
    5534:	00f707b3          	add	a5,a4,a5
    5538:	41f7d713          	srai	a4,a5,0x1f
    553c:	0107d593          	srli	a1,a5,0x10
    5540:	01071713          	slli	a4,a4,0x10
    5544:	41f65693          	srai	a3,a2,0x1f
    5548:	01079513          	slli	a0,a5,0x10
    554c:	00e585b3          	add	a1,a1,a4
    5550:	5e5050ef          	jal	b334 <__divdi3>
    5554:	00050613          	mv	a2,a0
    5558:	000107b7          	lui	a5,0x10
    555c:	00f606b3          	add	a3,a2,a5
    5560:	220c4c63          	bltz	s8,5798 <T20_end+0x48>
    5564:	410c5c13          	srai	s8,s8,0x10
    5568:	00010737          	lui	a4,0x10
    556c:	01871733          	sll	a4,a4,s8
    5570:	41f75793          	srai	a5,a4,0x1f
    5574:	41f6d613          	srai	a2,a3,0x1f
    5578:	02d787b3          	mul	a5,a5,a3
    557c:	02e60633          	mul	a2,a2,a4
    5580:	00c787b3          	add	a5,a5,a2
    5584:	02d70633          	mul	a2,a4,a3
    5588:	02d73733          	mulhu	a4,a4,a3
    558c:	00e787b3          	add	a5,a5,a4
    5590:	01079793          	slli	a5,a5,0x10
    5594:	01065713          	srli	a4,a2,0x10
    5598:	00e787b3          	add	a5,a5,a4
    559c:	12f12223          	sw	a5,292(sp)
    55a0:	0044a783          	lw	a5,4(s1)
    55a4:	00010737          	lui	a4,0x10
    55a8:	18078c63          	beqz	a5,5740 <T20_start+0x520>
    55ac:	40f006b3          	neg	a3,a5
    55b0:	0ad7e6b3          	max	a3,a5,a3
    55b4:	41f6d713          	srai	a4,a3,0x1f
    55b8:	00017637          	lui	a2,0x17
    55bc:	15460613          	addi	a2,a2,340 # 17154 <heap.cpp.6b15d6f6+0x953>
    55c0:	02c70733          	mul	a4,a4,a2
    55c4:	02c68c33          	mul	s8,a3,a2
    55c8:	02c6b6b3          	mulhu	a3,a3,a2
    55cc:	00d70733          	add	a4,a4,a3
    55d0:	01071713          	slli	a4,a4,0x10
    55d4:	010c5c13          	srli	s8,s8,0x10
    55d8:	01870c33          	add	s8,a4,s8
    55dc:	00008737          	lui	a4,0x8
    55e0:	00ec0c33          	add	s8,s8,a4
    55e4:	ffff0737          	lui	a4,0xffff0
    55e8:	00ec7c33          	and	s8,s8,a4
    55ec:	1c07c063          	bltz	a5,57ac <T20_end+0x5c>
    55f0:	41fc5713          	srai	a4,s8,0x1f
    55f4:	0000b6b7          	lui	a3,0xb
    55f8:	17268693          	addi	a3,a3,370 # b172 <__subdf3+0x62e>
    55fc:	02d70733          	mul	a4,a4,a3
    5600:	02dc0633          	mul	a2,s8,a3
    5604:	02dc36b3          	mulhu	a3,s8,a3
    5608:	00d70733          	add	a4,a4,a3
    560c:	01071713          	slli	a4,a4,0x10
    5610:	01065693          	srli	a3,a2,0x10
    5614:	00d706b3          	add	a3,a4,a3
    5618:	40d787b3          	sub	a5,a5,a3
    561c:	41f7d693          	srai	a3,a5,0x1f
    5620:	02f686b3          	mul	a3,a3,a5
    5624:	02f78733          	mul	a4,a5,a5
    5628:	02f7b633          	mulhu	a2,a5,a5
    562c:	20c6a6b3          	sh1add	a3,a3,a2
    5630:	01069693          	slli	a3,a3,0x10
    5634:	01075713          	srli	a4,a4,0x10
    5638:	00e68733          	add	a4,a3,a4
    563c:	41f75513          	srai	a0,a4,0x1f
    5640:	01e75693          	srli	a3,a4,0x1e
    5644:	20d546b3          	sh2add	a3,a0,a3
    5648:	00271613          	slli	a2,a4,0x2
    564c:	01069693          	slli	a3,a3,0x10
    5650:	01065613          	srli	a2,a2,0x10
    5654:	00c68633          	add	a2,a3,a2
    5658:	f4a60613          	addi	a2,a2,-182
    565c:	41f65593          	srai	a1,a2,0x1f
    5660:	02e585b3          	mul	a1,a1,a4
    5664:	02c506b3          	mul	a3,a0,a2
    5668:	00d585b3          	add	a1,a1,a3
    566c:	02e606b3          	mul	a3,a2,a4
    5670:	02e63633          	mulhu	a2,a2,a4
    5674:	00c58633          	add	a2,a1,a2
    5678:	01061613          	slli	a2,a2,0x10
    567c:	0106d693          	srli	a3,a3,0x10
    5680:	00d606b3          	add	a3,a2,a3
    5684:	00003637          	lui	a2,0x3
    5688:	aab60613          	addi	a2,a2,-1365 # 2aab <T9_start+0x2f>
    568c:	00c686b3          	add	a3,a3,a2
    5690:	41f6d613          	srai	a2,a3,0x1f
    5694:	02e60633          	mul	a2,a2,a4
    5698:	02d50533          	mul	a0,a0,a3
    569c:	00a60633          	add	a2,a2,a0
    56a0:	02e685b3          	mul	a1,a3,a4
    56a4:	02e6b6b3          	mulhu	a3,a3,a4
    56a8:	00d60733          	add	a4,a2,a3
    56ac:	01071713          	slli	a4,a4,0x10
    56b0:	0105d693          	srli	a3,a1,0x10
    56b4:	00d706b3          	add	a3,a4,a3
    56b8:	00020737          	lui	a4,0x20
    56bc:	00e686b3          	add	a3,a3,a4
    56c0:	40f68633          	sub	a2,a3,a5
    56c4:	02f68c63          	beq	a3,a5,56fc <T20_start+0x4dc>
    56c8:	00f7d713          	srli	a4,a5,0xf
    56cc:	01179793          	slli	a5,a5,0x11
    56d0:	01071713          	slli	a4,a4,0x10
    56d4:	0107d793          	srli	a5,a5,0x10
    56d8:	00f707b3          	add	a5,a4,a5
    56dc:	41f7d713          	srai	a4,a5,0x1f
    56e0:	0107d593          	srli	a1,a5,0x10
    56e4:	01071713          	slli	a4,a4,0x10
    56e8:	41f65693          	srai	a3,a2,0x1f
    56ec:	01079513          	slli	a0,a5,0x10
    56f0:	00e585b3          	add	a1,a1,a4
    56f4:	441050ef          	jal	b334 <__divdi3>
    56f8:	00050613          	mv	a2,a0
    56fc:	000107b7          	lui	a5,0x10
    5700:	00f606b3          	add	a3,a2,a5
    5704:	0a0c4863          	bltz	s8,57b4 <T20_end+0x64>
    5708:	410c5c13          	srai	s8,s8,0x10
    570c:	000107b7          	lui	a5,0x10
    5710:	018797b3          	sll	a5,a5,s8
    5714:	41f7d713          	srai	a4,a5,0x1f
    5718:	41f6d613          	srai	a2,a3,0x1f
    571c:	02d70733          	mul	a4,a4,a3
    5720:	02f60633          	mul	a2,a2,a5
    5724:	00c70733          	add	a4,a4,a2
    5728:	02d78633          	mul	a2,a5,a3
    572c:	02d7b7b3          	mulhu	a5,a5,a3
    5730:	00f70733          	add	a4,a4,a5
    5734:	01071713          	slli	a4,a4,0x10
    5738:	01065793          	srli	a5,a2,0x10
    573c:	00f70733          	add	a4,a4,a5
    5740:	12e12423          	sw	a4,296(sp)
    5744:	008a2783          	lw	a5,8(s4)
    5748:	016787b3          	add	a5,a5,s6
    574c:	12f12623          	sw	a5,300(sp)

00005750 <T20_end>:
    5750:	b00027f3          	csrr	a5,mcycle
    5754:	417787b3          	sub	a5,a5,s7
    5758:	04f9a823          	sw	a5,80(s3)
    575c:	11c12603          	lw	a2,284(sp)
    5760:	11c10713          	addi	a4,sp,284
    5764:	00000513          	li	a0,0
    5768:	00100793          	li	a5,1
    576c:	00500593          	li	a1,5
    5770:	0600006f          	j	57d0 <T20_end+0x80>
    5774:	41800c33          	neg	s8,s8
    5778:	afdff06f          	j	5274 <T20_start+0x54>
    577c:	418007b3          	neg	a5,s8
    5780:	4107d793          	srai	a5,a5,0x10
    5784:	00010737          	lui	a4,0x10
    5788:	40f75733          	sra	a4,a4,a5
    578c:	c0dff06f          	j	5398 <T20_start+0x178>
    5790:	41800c33          	neg	s8,s8
    5794:	cb9ff06f          	j	544c <T20_start+0x22c>
    5798:	418007b3          	neg	a5,s8
    579c:	4107d793          	srai	a5,a5,0x10
    57a0:	00010737          	lui	a4,0x10
    57a4:	40f75733          	sra	a4,a4,a5
    57a8:	dc9ff06f          	j	5570 <T20_start+0x350>
    57ac:	41800c33          	neg	s8,s8
    57b0:	e41ff06f          	j	55f0 <T20_start+0x3d0>
    57b4:	41800733          	neg	a4,s8
    57b8:	41075713          	srai	a4,a4,0x10
    57bc:	40e7d7b3          	sra	a5,a5,a4
    57c0:	f55ff06f          	j	5714 <T20_start+0x4f4>
    57c4:	00178793          	addi	a5,a5,1 # 10001 <fast_intr_ctrl.c.233e5230+0x208>
    57c8:	00470713          	addi	a4,a4,4 # 10004 <fast_intr_ctrl.c.233e5230+0x20b>
    57cc:	00b78c63          	beq	a5,a1,57e4 <T20_end+0x94>
    57d0:	00472683          	lw	a3,4(a4)
    57d4:	fec6c8e3          	blt	a3,a2,57c4 <T20_end+0x74>
    57d8:	00068613          	mv	a2,a3
    57dc:	00078513          	mv	a0,a5
    57e0:	fe5ff06f          	j	57c4 <T20_end+0x74>
    57e4:	00020737          	lui	a4,0x20
    57e8:	000207b7          	lui	a5,0x20
    57ec:	08c78793          	addi	a5,a5,140 # 2008c <next.7>
    57f0:	20f54533          	sh2add	a0,a0,a5
    57f4:	00052783          	lw	a5,0(a0)
    57f8:	1fc70713          	addi	a4,a4,508 # 201fc <jump_table.28>
    57fc:	20e7c7b3          	sh2add	a5,a5,a4
    5800:	0007a783          	lw	a5,0(a5)
    5804:	b9cfb06f          	j	ba0 <inferenceTPG+0x50>

00005808 <T21_start>:
    5808:	b0002b73          	csrr	s6,mcycle
    580c:	00492703          	lw	a4,4(s2)
    5810:	008a2783          	lw	a5,8(s4)
    5814:	00e787b3          	add	a5,a5,a4
    5818:	0af12a23          	sw	a5,180(sp)
    581c:	00c92683          	lw	a3,12(s2)
    5820:	41f6d793          	srai	a5,a3,0x1f
    5824:	41f75613          	srai	a2,a4,0x1f
    5828:	02e787b3          	mul	a5,a5,a4
    582c:	02d60633          	mul	a2,a2,a3
    5830:	00c787b3          	add	a5,a5,a2
    5834:	02e68633          	mul	a2,a3,a4
    5838:	02e6b6b3          	mulhu	a3,a3,a4
    583c:	00d787b3          	add	a5,a5,a3
    5840:	01079793          	slli	a5,a5,0x10
    5844:	01065693          	srli	a3,a2,0x10
    5848:	00d786b3          	add	a3,a5,a3
    584c:	0ad12c23          	sw	a3,184(sp)
    5850:	0044a783          	lw	a5,4(s1)
    5854:	40f70733          	sub	a4,a4,a5
    5858:	0ae12e23          	sw	a4,188(sp)
    585c:	00010737          	lui	a4,0x10
    5860:	18078c63          	beqz	a5,59f8 <T21_start+0x1f0>
    5864:	40f006b3          	neg	a3,a5
    5868:	0ad7e6b3          	max	a3,a5,a3
    586c:	41f6d713          	srai	a4,a3,0x1f
    5870:	00017637          	lui	a2,0x17
    5874:	15460613          	addi	a2,a2,340 # 17154 <heap.cpp.6b15d6f6+0x953>
    5878:	02c70733          	mul	a4,a4,a2
    587c:	02c68bb3          	mul	s7,a3,a2
    5880:	02c6b6b3          	mulhu	a3,a3,a2
    5884:	00d70733          	add	a4,a4,a3
    5888:	01071713          	slli	a4,a4,0x10
    588c:	010bdb93          	srli	s7,s7,0x10
    5890:	01770bb3          	add	s7,a4,s7
    5894:	00008737          	lui	a4,0x8
    5898:	00eb8bb3          	add	s7,s7,a4
    589c:	ffff0737          	lui	a4,0xffff0
    58a0:	00ebfbb3          	and	s7,s7,a4
    58a4:	1a07cc63          	bltz	a5,5a5c <T21_end+0x60>
    58a8:	41fbd713          	srai	a4,s7,0x1f
    58ac:	0000b6b7          	lui	a3,0xb
    58b0:	17268693          	addi	a3,a3,370 # b172 <__subdf3+0x62e>
    58b4:	02d70733          	mul	a4,a4,a3
    58b8:	02db8633          	mul	a2,s7,a3
    58bc:	02dbb6b3          	mulhu	a3,s7,a3
    58c0:	00d70733          	add	a4,a4,a3
    58c4:	01071713          	slli	a4,a4,0x10
    58c8:	01065693          	srli	a3,a2,0x10
    58cc:	00d706b3          	add	a3,a4,a3
    58d0:	40d787b3          	sub	a5,a5,a3
    58d4:	41f7d693          	srai	a3,a5,0x1f
    58d8:	02f686b3          	mul	a3,a3,a5
    58dc:	02f78733          	mul	a4,a5,a5
    58e0:	02f7b633          	mulhu	a2,a5,a5
    58e4:	20c6a6b3          	sh1add	a3,a3,a2
    58e8:	01069693          	slli	a3,a3,0x10
    58ec:	01075713          	srli	a4,a4,0x10
    58f0:	00e68733          	add	a4,a3,a4
    58f4:	41f75513          	srai	a0,a4,0x1f
    58f8:	01e75693          	srli	a3,a4,0x1e
    58fc:	20d546b3          	sh2add	a3,a0,a3
    5900:	00271613          	slli	a2,a4,0x2
    5904:	01069693          	slli	a3,a3,0x10
    5908:	01065613          	srli	a2,a2,0x10
    590c:	00c68633          	add	a2,a3,a2
    5910:	f4a60613          	addi	a2,a2,-182
    5914:	41f65593          	srai	a1,a2,0x1f
    5918:	02e585b3          	mul	a1,a1,a4
    591c:	02c506b3          	mul	a3,a0,a2
    5920:	00d585b3          	add	a1,a1,a3
    5924:	02e606b3          	mul	a3,a2,a4
    5928:	02e63633          	mulhu	a2,a2,a4
    592c:	00c58633          	add	a2,a1,a2
    5930:	01061613          	slli	a2,a2,0x10
    5934:	0106d693          	srli	a3,a3,0x10
    5938:	00d606b3          	add	a3,a2,a3
    593c:	00003637          	lui	a2,0x3
    5940:	aab60613          	addi	a2,a2,-1365 # 2aab <T9_start+0x2f>
    5944:	00c686b3          	add	a3,a3,a2
    5948:	41f6d613          	srai	a2,a3,0x1f
    594c:	02e60633          	mul	a2,a2,a4
    5950:	02d50533          	mul	a0,a0,a3
    5954:	00a60633          	add	a2,a2,a0
    5958:	02e685b3          	mul	a1,a3,a4
    595c:	02e6b6b3          	mulhu	a3,a3,a4
    5960:	00d60733          	add	a4,a2,a3
    5964:	01071713          	slli	a4,a4,0x10
    5968:	0105d693          	srli	a3,a1,0x10
    596c:	00d706b3          	add	a3,a4,a3
    5970:	00020737          	lui	a4,0x20
    5974:	00e686b3          	add	a3,a3,a4
    5978:	40f68633          	sub	a2,a3,a5
    597c:	02f68c63          	beq	a3,a5,59b4 <T21_start+0x1ac>
    5980:	00f7d713          	srli	a4,a5,0xf
    5984:	01179793          	slli	a5,a5,0x11
    5988:	01071713          	slli	a4,a4,0x10
    598c:	0107d793          	srli	a5,a5,0x10
    5990:	00f707b3          	add	a5,a4,a5
    5994:	41f7d713          	srai	a4,a5,0x1f
    5998:	0107d593          	srli	a1,a5,0x10
    599c:	01071713          	slli	a4,a4,0x10
    59a0:	41f65693          	srai	a3,a2,0x1f
    59a4:	01079513          	slli	a0,a5,0x10
    59a8:	00e585b3          	add	a1,a1,a4
    59ac:	189050ef          	jal	b334 <__divdi3>
    59b0:	00050613          	mv	a2,a0
    59b4:	000107b7          	lui	a5,0x10
    59b8:	00f606b3          	add	a3,a2,a5
    59bc:	0a0bc463          	bltz	s7,5a64 <T21_end+0x68>
    59c0:	410bdb93          	srai	s7,s7,0x10
    59c4:	000107b7          	lui	a5,0x10
    59c8:	017797b3          	sll	a5,a5,s7
    59cc:	41f7d713          	srai	a4,a5,0x1f
    59d0:	41f6d613          	srai	a2,a3,0x1f
    59d4:	02d70733          	mul	a4,a4,a3
    59d8:	02f60633          	mul	a2,a2,a5
    59dc:	00c70733          	add	a4,a4,a2
    59e0:	02d78633          	mul	a2,a5,a3
    59e4:	02d7b7b3          	mulhu	a5,a5,a3
    59e8:	00f70733          	add	a4,a4,a5
    59ec:	01071713          	slli	a4,a4,0x10
    59f0:	01065793          	srli	a5,a2,0x10
    59f4:	00f70733          	add	a4,a4,a5
    59f8:	0ce12023          	sw	a4,192(sp)

000059fc <T21_end>:
    59fc:	b00027f3          	csrr	a5,mcycle
    5a00:	416787b3          	sub	a5,a5,s6
    5a04:	04f9aa23          	sw	a5,84(s3)
    5a08:	0b412683          	lw	a3,180(sp)
    5a0c:	0b812703          	lw	a4,184(sp)
    5a10:	00100793          	li	a5,1
    5a14:	00d75663          	bge	a4,a3,5a20 <T21_end+0x24>
    5a18:	00068713          	mv	a4,a3
    5a1c:	00000793          	li	a5,0
    5a20:	0bc12683          	lw	a3,188(sp)
    5a24:	04e6d863          	bge	a3,a4,5a74 <T21_end+0x78>
    5a28:	00070693          	mv	a3,a4
    5a2c:	0c012703          	lw	a4,192(sp)
    5a30:	00d74463          	blt	a4,a3,5a38 <T21_end+0x3c>
    5a34:	00300793          	li	a5,3
    5a38:	00020737          	lui	a4,0x20
    5a3c:	000206b7          	lui	a3,0x20
    5a40:	07c68693          	addi	a3,a3,124 # 2007c <next.6>
    5a44:	20d7c7b3          	sh2add	a5,a5,a3
    5a48:	0007a783          	lw	a5,0(a5) # 10000 <fast_intr_ctrl.c.233e5230+0x207>
    5a4c:	1fc70713          	addi	a4,a4,508 # 201fc <jump_table.28>
    5a50:	20e7c7b3          	sh2add	a5,a5,a4
    5a54:	0007a783          	lw	a5,0(a5)
    5a58:	948fb06f          	j	ba0 <inferenceTPG+0x50>
    5a5c:	41700bb3          	neg	s7,s7
    5a60:	e49ff06f          	j	58a8 <T21_start+0xa0>
    5a64:	41700733          	neg	a4,s7
    5a68:	41075713          	srai	a4,a4,0x10
    5a6c:	40e7d7b3          	sra	a5,a5,a4
    5a70:	f5dff06f          	j	59cc <T21_start+0x1c4>
    5a74:	00200793          	li	a5,2
    5a78:	fb5ff06f          	j	5a2c <T21_end+0x30>

00005a7c <T22_start>:
    5a7c:	b00027f3          	csrr	a5,mcycle
    5a80:	00078c93          	mv	s9,a5
    5a84:	0084a683          	lw	a3,8(s1)
    5a88:	000aa783          	lw	a5,0(s5)
    5a8c:	41f7d713          	srai	a4,a5,0x1f
    5a90:	41f6d613          	srai	a2,a3,0x1f
    5a94:	02d70733          	mul	a4,a4,a3
    5a98:	02f60633          	mul	a2,a2,a5
    5a9c:	00c70733          	add	a4,a4,a2
    5aa0:	02d78633          	mul	a2,a5,a3
    5aa4:	02d7b7b3          	mulhu	a5,a5,a3
    5aa8:	00f70733          	add	a4,a4,a5
    5aac:	01071713          	slli	a4,a4,0x10
    5ab0:	01065793          	srli	a5,a2,0x10
    5ab4:	00f707b3          	add	a5,a4,a5
    5ab8:	0cf12223          	sw	a5,196(sp)
    5abc:	008a2b03          	lw	s6,8(s4)
    5ac0:	00492b83          	lw	s7,4(s2)
    5ac4:	017b07b3          	add	a5,s6,s7
    5ac8:	0cf12423          	sw	a5,200(sp)
    5acc:	000107b7          	lui	a5,0x10
    5ad0:	18068c63          	beqz	a3,5c68 <T22_start+0x1ec>
    5ad4:	40d00633          	neg	a2,a3
    5ad8:	0ac6e633          	max	a2,a3,a2
    5adc:	41f65713          	srai	a4,a2,0x1f
    5ae0:	000175b7          	lui	a1,0x17
    5ae4:	15458593          	addi	a1,a1,340 # 17154 <heap.cpp.6b15d6f6+0x953>
    5ae8:	02b70733          	mul	a4,a4,a1
    5aec:	02b607b3          	mul	a5,a2,a1
    5af0:	02b63633          	mulhu	a2,a2,a1
    5af4:	00c70733          	add	a4,a4,a2
    5af8:	01071713          	slli	a4,a4,0x10
    5afc:	0107d793          	srli	a5,a5,0x10
    5b00:	00f707b3          	add	a5,a4,a5
    5b04:	00008737          	lui	a4,0x8
    5b08:	00e787b3          	add	a5,a5,a4
    5b0c:	ffff0737          	lui	a4,0xffff0
    5b10:	00e7fc33          	and	s8,a5,a4
    5b14:	1e06c863          	bltz	a3,5d04 <T22_end+0x60>
    5b18:	41fc5793          	srai	a5,s8,0x1f
    5b1c:	0000b737          	lui	a4,0xb
    5b20:	17270713          	addi	a4,a4,370 # b172 <__subdf3+0x62e>
    5b24:	02e787b3          	mul	a5,a5,a4
    5b28:	02ec0633          	mul	a2,s8,a4
    5b2c:	02ec3733          	mulhu	a4,s8,a4
    5b30:	00e787b3          	add	a5,a5,a4
    5b34:	01079793          	slli	a5,a5,0x10
    5b38:	01065713          	srli	a4,a2,0x10
    5b3c:	00e78733          	add	a4,a5,a4
    5b40:	40e687b3          	sub	a5,a3,a4
    5b44:	41f7d713          	srai	a4,a5,0x1f
    5b48:	02f70733          	mul	a4,a4,a5
    5b4c:	02f78633          	mul	a2,a5,a5
    5b50:	02f7b6b3          	mulhu	a3,a5,a5
    5b54:	20d72733          	sh1add	a4,a4,a3
    5b58:	01071713          	slli	a4,a4,0x10
    5b5c:	01065613          	srli	a2,a2,0x10
    5b60:	00c70633          	add	a2,a4,a2
    5b64:	41f65513          	srai	a0,a2,0x1f
    5b68:	01e65713          	srli	a4,a2,0x1e
    5b6c:	20e54733          	sh2add	a4,a0,a4
    5b70:	00261693          	slli	a3,a2,0x2
    5b74:	01071713          	slli	a4,a4,0x10
    5b78:	0106d693          	srli	a3,a3,0x10
    5b7c:	00d706b3          	add	a3,a4,a3
    5b80:	f4a68693          	addi	a3,a3,-182
    5b84:	41f6d593          	srai	a1,a3,0x1f
    5b88:	02c585b3          	mul	a1,a1,a2
    5b8c:	02d50733          	mul	a4,a0,a3
    5b90:	00e585b3          	add	a1,a1,a4
    5b94:	02c68733          	mul	a4,a3,a2
    5b98:	02c6b6b3          	mulhu	a3,a3,a2
    5b9c:	00d586b3          	add	a3,a1,a3
    5ba0:	01069693          	slli	a3,a3,0x10
    5ba4:	01075713          	srli	a4,a4,0x10
    5ba8:	00e68733          	add	a4,a3,a4
    5bac:	000036b7          	lui	a3,0x3
    5bb0:	aab68693          	addi	a3,a3,-1365 # 2aab <T9_start+0x2f>
    5bb4:	00d70733          	add	a4,a4,a3
    5bb8:	41f75693          	srai	a3,a4,0x1f
    5bbc:	02c686b3          	mul	a3,a3,a2
    5bc0:	02e50533          	mul	a0,a0,a4
    5bc4:	00a686b3          	add	a3,a3,a0
    5bc8:	02c705b3          	mul	a1,a4,a2
    5bcc:	02c73733          	mulhu	a4,a4,a2
    5bd0:	00e68733          	add	a4,a3,a4
    5bd4:	01071713          	slli	a4,a4,0x10
    5bd8:	0105d693          	srli	a3,a1,0x10
    5bdc:	00d706b3          	add	a3,a4,a3
    5be0:	00020737          	lui	a4,0x20
    5be4:	00e686b3          	add	a3,a3,a4
    5be8:	40f68633          	sub	a2,a3,a5
    5bec:	02f68c63          	beq	a3,a5,5c24 <T22_start+0x1a8>
    5bf0:	00f7d713          	srli	a4,a5,0xf
    5bf4:	01179793          	slli	a5,a5,0x11
    5bf8:	01071713          	slli	a4,a4,0x10
    5bfc:	0107d793          	srli	a5,a5,0x10
    5c00:	00f707b3          	add	a5,a4,a5
    5c04:	41f7d713          	srai	a4,a5,0x1f
    5c08:	0107d593          	srli	a1,a5,0x10
    5c0c:	01071713          	slli	a4,a4,0x10
    5c10:	41f65693          	srai	a3,a2,0x1f
    5c14:	01079513          	slli	a0,a5,0x10
    5c18:	00e585b3          	add	a1,a1,a4
    5c1c:	718050ef          	jal	b334 <__divdi3>
    5c20:	00050613          	mv	a2,a0
    5c24:	000107b7          	lui	a5,0x10
    5c28:	00f606b3          	add	a3,a2,a5
    5c2c:	0e0c4063          	bltz	s8,5d0c <T22_end+0x68>
    5c30:	410c5793          	srai	a5,s8,0x10
    5c34:	00010737          	lui	a4,0x10
    5c38:	00f71733          	sll	a4,a4,a5
    5c3c:	41f75793          	srai	a5,a4,0x1f
    5c40:	41f6d613          	srai	a2,a3,0x1f
    5c44:	02d787b3          	mul	a5,a5,a3
    5c48:	02e60633          	mul	a2,a2,a4
    5c4c:	00c787b3          	add	a5,a5,a2
    5c50:	02d70633          	mul	a2,a4,a3
    5c54:	02d73733          	mulhu	a4,a4,a3
    5c58:	00e787b3          	add	a5,a5,a4
    5c5c:	01079793          	slli	a5,a5,0x10
    5c60:	01065713          	srli	a4,a2,0x10
    5c64:	00e787b3          	add	a5,a5,a4
    5c68:	41fb5713          	srai	a4,s6,0x1f
    5c6c:	41f7d693          	srai	a3,a5,0x1f
    5c70:	02f70733          	mul	a4,a4,a5
    5c74:	036686b3          	mul	a3,a3,s6
    5c78:	00d70733          	add	a4,a4,a3
    5c7c:	02fb06b3          	mul	a3,s6,a5
    5c80:	02fb3b33          	mulhu	s6,s6,a5
    5c84:	016707b3          	add	a5,a4,s6
    5c88:	01079793          	slli	a5,a5,0x10
    5c8c:	0106d713          	srli	a4,a3,0x10
    5c90:	00e78733          	add	a4,a5,a4
    5c94:	0ce12623          	sw	a4,204(sp)
    5c98:	0044a783          	lw	a5,4(s1)
    5c9c:	40fb8bb3          	sub	s7,s7,a5
    5ca0:	0d712823          	sw	s7,208(sp)

00005ca4 <T22_end>:
    5ca4:	b00027f3          	csrr	a5,mcycle
    5ca8:	419787b3          	sub	a5,a5,s9
    5cac:	04f9ac23          	sw	a5,88(s3)
    5cb0:	0c412683          	lw	a3,196(sp)
    5cb4:	0c812703          	lw	a4,200(sp)
    5cb8:	00100793          	li	a5,1
    5cbc:	00d75663          	bge	a4,a3,5cc8 <T22_end+0x24>
    5cc0:	00068713          	mv	a4,a3
    5cc4:	00000793          	li	a5,0
    5cc8:	0cc12683          	lw	a3,204(sp)
    5ccc:	04e6da63          	bge	a3,a4,5d20 <T22_end+0x7c>
    5cd0:	00070693          	mv	a3,a4
    5cd4:	0d012703          	lw	a4,208(sp)
    5cd8:	00d74463          	blt	a4,a3,5ce0 <T22_end+0x3c>
    5cdc:	00300793          	li	a5,3
    5ce0:	00020737          	lui	a4,0x20
    5ce4:	000206b7          	lui	a3,0x20
    5ce8:	06c68693          	addi	a3,a3,108 # 2006c <next.5>
    5cec:	20d7c7b3          	sh2add	a5,a5,a3
    5cf0:	0007a783          	lw	a5,0(a5) # 10000 <fast_intr_ctrl.c.233e5230+0x207>
    5cf4:	1fc70713          	addi	a4,a4,508 # 201fc <jump_table.28>
    5cf8:	20e7c7b3          	sh2add	a5,a5,a4
    5cfc:	0007a783          	lw	a5,0(a5)
    5d00:	ea1fa06f          	j	ba0 <inferenceTPG+0x50>
    5d04:	41800c33          	neg	s8,s8
    5d08:	e11ff06f          	j	5b18 <T22_start+0x9c>
    5d0c:	418007b3          	neg	a5,s8
    5d10:	4107d793          	srai	a5,a5,0x10
    5d14:	00010737          	lui	a4,0x10
    5d18:	40f75733          	sra	a4,a4,a5
    5d1c:	f21ff06f          	j	5c3c <T22_start+0x1c0>
    5d20:	00200793          	li	a5,2
    5d24:	fb1ff06f          	j	5cd4 <T22_end+0x30>

00005d28 <T23_start>:
    5d28:	b00027f3          	csrr	a5,mcycle
    5d2c:	00078c93          	mv	s9,a5
    5d30:	0084a683          	lw	a3,8(s1)
    5d34:	000aa783          	lw	a5,0(s5)
    5d38:	41f7d713          	srai	a4,a5,0x1f
    5d3c:	41f6d613          	srai	a2,a3,0x1f
    5d40:	02d70733          	mul	a4,a4,a3
    5d44:	02f60633          	mul	a2,a2,a5
    5d48:	00c70733          	add	a4,a4,a2
    5d4c:	02d78633          	mul	a2,a5,a3
    5d50:	02d7b7b3          	mulhu	a5,a5,a3
    5d54:	00f70733          	add	a4,a4,a5
    5d58:	01071713          	slli	a4,a4,0x10
    5d5c:	01065793          	srli	a5,a2,0x10
    5d60:	00f707b3          	add	a5,a4,a5
    5d64:	0cf12a23          	sw	a5,212(sp)
    5d68:	008a2b03          	lw	s6,8(s4)
    5d6c:	00492b83          	lw	s7,4(s2)
    5d70:	017b07b3          	add	a5,s6,s7
    5d74:	0cf12c23          	sw	a5,216(sp)
    5d78:	000107b7          	lui	a5,0x10
    5d7c:	18068c63          	beqz	a3,5f14 <T23_start+0x1ec>
    5d80:	40d00633          	neg	a2,a3
    5d84:	0ac6e633          	max	a2,a3,a2
    5d88:	41f65713          	srai	a4,a2,0x1f
    5d8c:	000175b7          	lui	a1,0x17
    5d90:	15458593          	addi	a1,a1,340 # 17154 <heap.cpp.6b15d6f6+0x953>
    5d94:	02b70733          	mul	a4,a4,a1
    5d98:	02b607b3          	mul	a5,a2,a1
    5d9c:	02b63633          	mulhu	a2,a2,a1
    5da0:	00c70733          	add	a4,a4,a2
    5da4:	01071713          	slli	a4,a4,0x10
    5da8:	0107d793          	srli	a5,a5,0x10
    5dac:	00f707b3          	add	a5,a4,a5
    5db0:	00008737          	lui	a4,0x8
    5db4:	00e787b3          	add	a5,a5,a4
    5db8:	ffff0737          	lui	a4,0xffff0
    5dbc:	00e7fc33          	and	s8,a5,a4
    5dc0:	1e06c863          	bltz	a3,5fb0 <T23_end+0x60>
    5dc4:	41fc5793          	srai	a5,s8,0x1f
    5dc8:	0000b737          	lui	a4,0xb
    5dcc:	17270713          	addi	a4,a4,370 # b172 <__subdf3+0x62e>
    5dd0:	02e787b3          	mul	a5,a5,a4
    5dd4:	02ec0633          	mul	a2,s8,a4
    5dd8:	02ec3733          	mulhu	a4,s8,a4
    5ddc:	00e787b3          	add	a5,a5,a4
    5de0:	01079793          	slli	a5,a5,0x10
    5de4:	01065713          	srli	a4,a2,0x10
    5de8:	00e78733          	add	a4,a5,a4
    5dec:	40e687b3          	sub	a5,a3,a4
    5df0:	41f7d713          	srai	a4,a5,0x1f
    5df4:	02f70733          	mul	a4,a4,a5
    5df8:	02f78633          	mul	a2,a5,a5
    5dfc:	02f7b6b3          	mulhu	a3,a5,a5
    5e00:	20d72733          	sh1add	a4,a4,a3
    5e04:	01071713          	slli	a4,a4,0x10
    5e08:	01065613          	srli	a2,a2,0x10
    5e0c:	00c70633          	add	a2,a4,a2
    5e10:	41f65513          	srai	a0,a2,0x1f
    5e14:	01e65713          	srli	a4,a2,0x1e
    5e18:	20e54733          	sh2add	a4,a0,a4
    5e1c:	00261693          	slli	a3,a2,0x2
    5e20:	01071713          	slli	a4,a4,0x10
    5e24:	0106d693          	srli	a3,a3,0x10
    5e28:	00d706b3          	add	a3,a4,a3
    5e2c:	f4a68693          	addi	a3,a3,-182
    5e30:	41f6d593          	srai	a1,a3,0x1f
    5e34:	02c585b3          	mul	a1,a1,a2
    5e38:	02d50733          	mul	a4,a0,a3
    5e3c:	00e585b3          	add	a1,a1,a4
    5e40:	02c68733          	mul	a4,a3,a2
    5e44:	02c6b6b3          	mulhu	a3,a3,a2
    5e48:	00d586b3          	add	a3,a1,a3
    5e4c:	01069693          	slli	a3,a3,0x10
    5e50:	01075713          	srli	a4,a4,0x10
    5e54:	00e68733          	add	a4,a3,a4
    5e58:	000036b7          	lui	a3,0x3
    5e5c:	aab68693          	addi	a3,a3,-1365 # 2aab <T9_start+0x2f>
    5e60:	00d70733          	add	a4,a4,a3
    5e64:	41f75693          	srai	a3,a4,0x1f
    5e68:	02c686b3          	mul	a3,a3,a2
    5e6c:	02e50533          	mul	a0,a0,a4
    5e70:	00a686b3          	add	a3,a3,a0
    5e74:	02c705b3          	mul	a1,a4,a2
    5e78:	02c73733          	mulhu	a4,a4,a2
    5e7c:	00e68733          	add	a4,a3,a4
    5e80:	01071713          	slli	a4,a4,0x10
    5e84:	0105d693          	srli	a3,a1,0x10
    5e88:	00d706b3          	add	a3,a4,a3
    5e8c:	00020737          	lui	a4,0x20
    5e90:	00e686b3          	add	a3,a3,a4
    5e94:	40f68633          	sub	a2,a3,a5
    5e98:	02f68c63          	beq	a3,a5,5ed0 <T23_start+0x1a8>
    5e9c:	00f7d713          	srli	a4,a5,0xf
    5ea0:	01179793          	slli	a5,a5,0x11
    5ea4:	01071713          	slli	a4,a4,0x10
    5ea8:	0107d793          	srli	a5,a5,0x10
    5eac:	00f707b3          	add	a5,a4,a5
    5eb0:	41f7d713          	srai	a4,a5,0x1f
    5eb4:	0107d593          	srli	a1,a5,0x10
    5eb8:	01071713          	slli	a4,a4,0x10
    5ebc:	41f65693          	srai	a3,a2,0x1f
    5ec0:	01079513          	slli	a0,a5,0x10
    5ec4:	00e585b3          	add	a1,a1,a4
    5ec8:	46c050ef          	jal	b334 <__divdi3>
    5ecc:	00050613          	mv	a2,a0
    5ed0:	000107b7          	lui	a5,0x10
    5ed4:	00f606b3          	add	a3,a2,a5
    5ed8:	0e0c4063          	bltz	s8,5fb8 <T23_end+0x68>
    5edc:	410c5793          	srai	a5,s8,0x10
    5ee0:	00010737          	lui	a4,0x10
    5ee4:	00f71733          	sll	a4,a4,a5
    5ee8:	41f75793          	srai	a5,a4,0x1f
    5eec:	41f6d613          	srai	a2,a3,0x1f
    5ef0:	02d787b3          	mul	a5,a5,a3
    5ef4:	02e60633          	mul	a2,a2,a4
    5ef8:	00c787b3          	add	a5,a5,a2
    5efc:	02d70633          	mul	a2,a4,a3
    5f00:	02d73733          	mulhu	a4,a4,a3
    5f04:	00e787b3          	add	a5,a5,a4
    5f08:	01079793          	slli	a5,a5,0x10
    5f0c:	01065713          	srli	a4,a2,0x10
    5f10:	00e787b3          	add	a5,a5,a4
    5f14:	41fb5713          	srai	a4,s6,0x1f
    5f18:	41f7d693          	srai	a3,a5,0x1f
    5f1c:	02f70733          	mul	a4,a4,a5
    5f20:	036686b3          	mul	a3,a3,s6
    5f24:	00d70733          	add	a4,a4,a3
    5f28:	02fb06b3          	mul	a3,s6,a5
    5f2c:	02fb3b33          	mulhu	s6,s6,a5
    5f30:	016707b3          	add	a5,a4,s6
    5f34:	01079793          	slli	a5,a5,0x10
    5f38:	0106d713          	srli	a4,a3,0x10
    5f3c:	00e78733          	add	a4,a5,a4
    5f40:	0ce12e23          	sw	a4,220(sp)
    5f44:	0044a783          	lw	a5,4(s1)
    5f48:	40fb8bb3          	sub	s7,s7,a5
    5f4c:	0f712023          	sw	s7,224(sp)

00005f50 <T23_end>:
    5f50:	b00027f3          	csrr	a5,mcycle
    5f54:	419787b3          	sub	a5,a5,s9
    5f58:	04f9ae23          	sw	a5,92(s3)
    5f5c:	0d412683          	lw	a3,212(sp)
    5f60:	0d812703          	lw	a4,216(sp)
    5f64:	00100793          	li	a5,1
    5f68:	00d75663          	bge	a4,a3,5f74 <T23_end+0x24>
    5f6c:	00068713          	mv	a4,a3
    5f70:	00000793          	li	a5,0
    5f74:	0dc12683          	lw	a3,220(sp)
    5f78:	04e6da63          	bge	a3,a4,5fcc <T23_end+0x7c>
    5f7c:	00070693          	mv	a3,a4
    5f80:	0e012703          	lw	a4,224(sp)
    5f84:	00d74463          	blt	a4,a3,5f8c <T23_end+0x3c>
    5f88:	00300793          	li	a5,3
    5f8c:	00020737          	lui	a4,0x20
    5f90:	000206b7          	lui	a3,0x20
    5f94:	05c68693          	addi	a3,a3,92 # 2005c <next.4>
    5f98:	20d7c7b3          	sh2add	a5,a5,a3
    5f9c:	0007a783          	lw	a5,0(a5) # 10000 <fast_intr_ctrl.c.233e5230+0x207>
    5fa0:	1fc70713          	addi	a4,a4,508 # 201fc <jump_table.28>
    5fa4:	20e7c7b3          	sh2add	a5,a5,a4
    5fa8:	0007a783          	lw	a5,0(a5)
    5fac:	bf5fa06f          	j	ba0 <inferenceTPG+0x50>
    5fb0:	41800c33          	neg	s8,s8
    5fb4:	e11ff06f          	j	5dc4 <T23_start+0x9c>
    5fb8:	418007b3          	neg	a5,s8
    5fbc:	4107d793          	srai	a5,a5,0x10
    5fc0:	00010737          	lui	a4,0x10
    5fc4:	40f75733          	sra	a4,a4,a5
    5fc8:	f21ff06f          	j	5ee8 <T23_start+0x1c0>
    5fcc:	00200793          	li	a5,2
    5fd0:	fb1ff06f          	j	5f80 <T23_end+0x30>

00005fd4 <T24_start>:
    5fd4:	b0002b73          	csrr	s6,mcycle
    5fd8:	00492783          	lw	a5,4(s2)
    5fdc:	008a2703          	lw	a4,8(s4)
    5fe0:	00f70733          	add	a4,a4,a5
    5fe4:	0ee12223          	sw	a4,228(sp)
    5fe8:	0044a703          	lw	a4,4(s1)
    5fec:	40e78733          	sub	a4,a5,a4
    5ff0:	0ee12423          	sw	a4,232(sp)
    5ff4:	41f7d713          	srai	a4,a5,0x1f
    5ff8:	02f70733          	mul	a4,a4,a5
    5ffc:	02f786b3          	mul	a3,a5,a5
    6000:	02f7b7b3          	mulhu	a5,a5,a5
    6004:	20f727b3          	sh1add	a5,a4,a5
    6008:	01079793          	slli	a5,a5,0x10
    600c:	0106d713          	srli	a4,a3,0x10
    6010:	00e78733          	add	a4,a5,a4
    6014:	0ee12623          	sw	a4,236(sp)
    6018:	000a2603          	lw	a2,0(s4)
    601c:	000107b7          	lui	a5,0x10
    6020:	18060c63          	beqz	a2,61b8 <T24_start+0x1e4>
    6024:	40c006b3          	neg	a3,a2
    6028:	0ad666b3          	max	a3,a2,a3
    602c:	41f6d713          	srai	a4,a3,0x1f
    6030:	000177b7          	lui	a5,0x17
    6034:	15478793          	addi	a5,a5,340 # 17154 <heap.cpp.6b15d6f6+0x953>
    6038:	02f70733          	mul	a4,a4,a5
    603c:	02f68bb3          	mul	s7,a3,a5
    6040:	02f6b6b3          	mulhu	a3,a3,a5
    6044:	00d70733          	add	a4,a4,a3
    6048:	01071713          	slli	a4,a4,0x10
    604c:	010bdb93          	srli	s7,s7,0x10
    6050:	01770bb3          	add	s7,a4,s7
    6054:	000087b7          	lui	a5,0x8
    6058:	00fb8bb3          	add	s7,s7,a5
    605c:	ffff07b7          	lui	a5,0xffff0
    6060:	00fbfbb3          	and	s7,s7,a5
    6064:	1c064063          	bltz	a2,6224 <T24_end+0x60>
    6068:	41fbd713          	srai	a4,s7,0x1f
    606c:	0000b6b7          	lui	a3,0xb
    6070:	17268693          	addi	a3,a3,370 # b172 <__subdf3+0x62e>
    6074:	02d70733          	mul	a4,a4,a3
    6078:	02db87b3          	mul	a5,s7,a3
    607c:	02dbb6b3          	mulhu	a3,s7,a3
    6080:	00d70733          	add	a4,a4,a3
    6084:	01071713          	slli	a4,a4,0x10
    6088:	0107d793          	srli	a5,a5,0x10
    608c:	00f707b3          	add	a5,a4,a5
    6090:	40f607b3          	sub	a5,a2,a5
    6094:	41f7d693          	srai	a3,a5,0x1f
    6098:	02f686b3          	mul	a3,a3,a5
    609c:	02f78733          	mul	a4,a5,a5
    60a0:	02f7b633          	mulhu	a2,a5,a5
    60a4:	20c6a6b3          	sh1add	a3,a3,a2
    60a8:	01069693          	slli	a3,a3,0x10
    60ac:	01075713          	srli	a4,a4,0x10
    60b0:	00e68733          	add	a4,a3,a4
    60b4:	41f75513          	srai	a0,a4,0x1f
    60b8:	01e75693          	srli	a3,a4,0x1e
    60bc:	20d546b3          	sh2add	a3,a0,a3
    60c0:	00271613          	slli	a2,a4,0x2
    60c4:	01069693          	slli	a3,a3,0x10
    60c8:	01065613          	srli	a2,a2,0x10
    60cc:	00c68633          	add	a2,a3,a2
    60d0:	f4a60613          	addi	a2,a2,-182
    60d4:	41f65593          	srai	a1,a2,0x1f
    60d8:	02e585b3          	mul	a1,a1,a4
    60dc:	02c506b3          	mul	a3,a0,a2
    60e0:	00d585b3          	add	a1,a1,a3
    60e4:	02e606b3          	mul	a3,a2,a4
    60e8:	02e63633          	mulhu	a2,a2,a4
    60ec:	00c58633          	add	a2,a1,a2
    60f0:	01061613          	slli	a2,a2,0x10
    60f4:	0106d693          	srli	a3,a3,0x10
    60f8:	00d606b3          	add	a3,a2,a3
    60fc:	00003637          	lui	a2,0x3
    6100:	aab60613          	addi	a2,a2,-1365 # 2aab <T9_start+0x2f>
    6104:	00c686b3          	add	a3,a3,a2
    6108:	41f6d613          	srai	a2,a3,0x1f
    610c:	02e60633          	mul	a2,a2,a4
    6110:	02d50533          	mul	a0,a0,a3
    6114:	00a60633          	add	a2,a2,a0
    6118:	02e685b3          	mul	a1,a3,a4
    611c:	02e6b6b3          	mulhu	a3,a3,a4
    6120:	00d60733          	add	a4,a2,a3
    6124:	01071713          	slli	a4,a4,0x10
    6128:	0105d693          	srli	a3,a1,0x10
    612c:	00d706b3          	add	a3,a4,a3
    6130:	00020737          	lui	a4,0x20
    6134:	00e686b3          	add	a3,a3,a4
    6138:	40f68633          	sub	a2,a3,a5
    613c:	02f68c63          	beq	a3,a5,6174 <T24_start+0x1a0>
    6140:	00f7d713          	srli	a4,a5,0xf
    6144:	01179793          	slli	a5,a5,0x11
    6148:	01071713          	slli	a4,a4,0x10
    614c:	0107d793          	srli	a5,a5,0x10
    6150:	00f707b3          	add	a5,a4,a5
    6154:	41f7d713          	srai	a4,a5,0x1f
    6158:	0107d593          	srli	a1,a5,0x10
    615c:	01071713          	slli	a4,a4,0x10
    6160:	41f65693          	srai	a3,a2,0x1f
    6164:	01079513          	slli	a0,a5,0x10
    6168:	00e585b3          	add	a1,a1,a4
    616c:	1c8050ef          	jal	b334 <__divdi3>
    6170:	00050613          	mv	a2,a0
    6174:	000107b7          	lui	a5,0x10
    6178:	00f606b3          	add	a3,a2,a5
    617c:	0a0bc863          	bltz	s7,622c <T24_end+0x68>
    6180:	410bdb93          	srai	s7,s7,0x10
    6184:	00010737          	lui	a4,0x10
    6188:	01771733          	sll	a4,a4,s7
    618c:	41f75793          	srai	a5,a4,0x1f
    6190:	41f6d613          	srai	a2,a3,0x1f
    6194:	02d787b3          	mul	a5,a5,a3
    6198:	02e60633          	mul	a2,a2,a4
    619c:	00c787b3          	add	a5,a5,a2
    61a0:	02d70633          	mul	a2,a4,a3
    61a4:	02d73733          	mulhu	a4,a4,a3
    61a8:	00e787b3          	add	a5,a5,a4
    61ac:	01079793          	slli	a5,a5,0x10
    61b0:	01065713          	srli	a4,a2,0x10
    61b4:	00e787b3          	add	a5,a5,a4
    61b8:	004a2703          	lw	a4,4(s4)
    61bc:	40e787b3          	sub	a5,a5,a4
    61c0:	0ef12823          	sw	a5,240(sp)

000061c4 <T24_end>:
    61c4:	b00027f3          	csrr	a5,mcycle
    61c8:	416787b3          	sub	a5,a5,s6
    61cc:	06f9a023          	sw	a5,96(s3)
    61d0:	0e412683          	lw	a3,228(sp)
    61d4:	0e812703          	lw	a4,232(sp)
    61d8:	00100793          	li	a5,1
    61dc:	00d75663          	bge	a4,a3,61e8 <T24_end+0x24>
    61e0:	00068713          	mv	a4,a3
    61e4:	00000793          	li	a5,0
    61e8:	0ec12683          	lw	a3,236(sp)
    61ec:	04e6da63          	bge	a3,a4,6240 <T24_end+0x7c>
    61f0:	00070693          	mv	a3,a4
    61f4:	0f012703          	lw	a4,240(sp)
    61f8:	00d74463          	blt	a4,a3,6200 <T24_end+0x3c>
    61fc:	00300793          	li	a5,3
    6200:	00020737          	lui	a4,0x20
    6204:	000206b7          	lui	a3,0x20
    6208:	04c68693          	addi	a3,a3,76 # 2004c <next.3>
    620c:	20d7c7b3          	sh2add	a5,a5,a3
    6210:	0007a783          	lw	a5,0(a5) # 10000 <fast_intr_ctrl.c.233e5230+0x207>
    6214:	1fc70713          	addi	a4,a4,508 # 201fc <jump_table.28>
    6218:	20e7c7b3          	sh2add	a5,a5,a4
    621c:	0007a783          	lw	a5,0(a5)
    6220:	981fa06f          	j	ba0 <inferenceTPG+0x50>
    6224:	41700bb3          	neg	s7,s7
    6228:	e41ff06f          	j	6068 <T24_start+0x94>
    622c:	417007b3          	neg	a5,s7
    6230:	4107d793          	srai	a5,a5,0x10
    6234:	00010737          	lui	a4,0x10
    6238:	40f75733          	sra	a4,a4,a5
    623c:	f51ff06f          	j	618c <T24_start+0x1b8>
    6240:	00200793          	li	a5,2
    6244:	fb1ff06f          	j	61f4 <T24_end+0x30>

00006248 <T25_start>:
    6248:	b0002b73          	csrr	s6,mcycle
    624c:	00492b83          	lw	s7,4(s2)
    6250:	00c92703          	lw	a4,12(s2)
    6254:	41f75793          	srai	a5,a4,0x1f
    6258:	41fbd693          	srai	a3,s7,0x1f
    625c:	037787b3          	mul	a5,a5,s7
    6260:	02e686b3          	mul	a3,a3,a4
    6264:	00d787b3          	add	a5,a5,a3
    6268:	037706b3          	mul	a3,a4,s7
    626c:	03773733          	mulhu	a4,a4,s7
    6270:	00e787b3          	add	a5,a5,a4
    6274:	01079793          	slli	a5,a5,0x10
    6278:	0106d713          	srli	a4,a3,0x10
    627c:	00e78733          	add	a4,a5,a4
    6280:	18e12a23          	sw	a4,404(sp)
    6284:	0044a783          	lw	a5,4(s1)
    6288:	40fb87b3          	sub	a5,s7,a5
    628c:	18f12c23          	sw	a5,408(sp)
    6290:	008aa783          	lw	a5,8(s5)
    6294:	017787b3          	add	a5,a5,s7
    6298:	18f12e23          	sw	a5,412(sp)
    629c:	004a2783          	lw	a5,4(s4)
    62a0:	017787b3          	add	a5,a5,s7
    62a4:	1af12023          	sw	a5,416(sp)
    62a8:	0084a783          	lw	a5,8(s1)
    62ac:	00010737          	lui	a4,0x10
    62b0:	18078c63          	beqz	a5,6448 <T25_start+0x200>
    62b4:	40f006b3          	neg	a3,a5
    62b8:	0ad7e6b3          	max	a3,a5,a3
    62bc:	41f6d713          	srai	a4,a3,0x1f
    62c0:	00017637          	lui	a2,0x17
    62c4:	15460613          	addi	a2,a2,340 # 17154 <heap.cpp.6b15d6f6+0x953>
    62c8:	02c70733          	mul	a4,a4,a2
    62cc:	02c68c33          	mul	s8,a3,a2
    62d0:	02c6b6b3          	mulhu	a3,a3,a2
    62d4:	00d70733          	add	a4,a4,a3
    62d8:	01071713          	slli	a4,a4,0x10
    62dc:	010c5c13          	srli	s8,s8,0x10
    62e0:	01870c33          	add	s8,a4,s8
    62e4:	00008737          	lui	a4,0x8
    62e8:	00ec0c33          	add	s8,s8,a4
    62ec:	ffff0737          	lui	a4,0xffff0
    62f0:	00ec7c33          	and	s8,s8,a4
    62f4:	4c07c063          	bltz	a5,67b4 <T25_end+0x24>
    62f8:	41fc5713          	srai	a4,s8,0x1f
    62fc:	0000b6b7          	lui	a3,0xb
    6300:	17268693          	addi	a3,a3,370 # b172 <__subdf3+0x62e>
    6304:	02d70733          	mul	a4,a4,a3
    6308:	02dc0633          	mul	a2,s8,a3
    630c:	02dc36b3          	mulhu	a3,s8,a3
    6310:	00d70733          	add	a4,a4,a3
    6314:	01071713          	slli	a4,a4,0x10
    6318:	01065693          	srli	a3,a2,0x10
    631c:	00d706b3          	add	a3,a4,a3
    6320:	40d787b3          	sub	a5,a5,a3
    6324:	41f7d693          	srai	a3,a5,0x1f
    6328:	02f686b3          	mul	a3,a3,a5
    632c:	02f78733          	mul	a4,a5,a5
    6330:	02f7b633          	mulhu	a2,a5,a5
    6334:	20c6a6b3          	sh1add	a3,a3,a2
    6338:	01069693          	slli	a3,a3,0x10
    633c:	01075713          	srli	a4,a4,0x10
    6340:	00e68733          	add	a4,a3,a4
    6344:	41f75513          	srai	a0,a4,0x1f
    6348:	01e75693          	srli	a3,a4,0x1e
    634c:	20d546b3          	sh2add	a3,a0,a3
    6350:	00271613          	slli	a2,a4,0x2
    6354:	01069693          	slli	a3,a3,0x10
    6358:	01065613          	srli	a2,a2,0x10
    635c:	00c68633          	add	a2,a3,a2
    6360:	f4a60613          	addi	a2,a2,-182
    6364:	41f65593          	srai	a1,a2,0x1f
    6368:	02e585b3          	mul	a1,a1,a4
    636c:	02c506b3          	mul	a3,a0,a2
    6370:	00d585b3          	add	a1,a1,a3
    6374:	02e606b3          	mul	a3,a2,a4
    6378:	02e63633          	mulhu	a2,a2,a4
    637c:	00c58633          	add	a2,a1,a2
    6380:	01061613          	slli	a2,a2,0x10
    6384:	0106d693          	srli	a3,a3,0x10
    6388:	00d606b3          	add	a3,a2,a3
    638c:	00003637          	lui	a2,0x3
    6390:	aab60613          	addi	a2,a2,-1365 # 2aab <T9_start+0x2f>
    6394:	00c686b3          	add	a3,a3,a2
    6398:	41f6d613          	srai	a2,a3,0x1f
    639c:	02e60633          	mul	a2,a2,a4
    63a0:	02d50533          	mul	a0,a0,a3
    63a4:	00a60633          	add	a2,a2,a0
    63a8:	02e685b3          	mul	a1,a3,a4
    63ac:	02e6b6b3          	mulhu	a3,a3,a4
    63b0:	00d60733          	add	a4,a2,a3
    63b4:	01071713          	slli	a4,a4,0x10
    63b8:	0105d693          	srli	a3,a1,0x10
    63bc:	00d706b3          	add	a3,a4,a3
    63c0:	00020737          	lui	a4,0x20
    63c4:	00e686b3          	add	a3,a3,a4
    63c8:	40f68633          	sub	a2,a3,a5
    63cc:	02f68c63          	beq	a3,a5,6404 <T25_start+0x1bc>
    63d0:	00f7d713          	srli	a4,a5,0xf
    63d4:	01179793          	slli	a5,a5,0x11
    63d8:	01071713          	slli	a4,a4,0x10
    63dc:	0107d793          	srli	a5,a5,0x10
    63e0:	00f707b3          	add	a5,a4,a5
    63e4:	41f7d713          	srai	a4,a5,0x1f
    63e8:	0107d593          	srli	a1,a5,0x10
    63ec:	01071713          	slli	a4,a4,0x10
    63f0:	41f65693          	srai	a3,a2,0x1f
    63f4:	01079513          	slli	a0,a5,0x10
    63f8:	00e585b3          	add	a1,a1,a4
    63fc:	739040ef          	jal	b334 <__divdi3>
    6400:	00050613          	mv	a2,a0
    6404:	000107b7          	lui	a5,0x10
    6408:	00f606b3          	add	a3,a2,a5
    640c:	3a0c4863          	bltz	s8,67bc <T25_end+0x2c>
    6410:	410c5c13          	srai	s8,s8,0x10
    6414:	000107b7          	lui	a5,0x10
    6418:	018797b3          	sll	a5,a5,s8
    641c:	41f7d713          	srai	a4,a5,0x1f
    6420:	41f6d613          	srai	a2,a3,0x1f
    6424:	02d70733          	mul	a4,a4,a3
    6428:	02f60633          	mul	a2,a2,a5
    642c:	00c70733          	add	a4,a4,a2
    6430:	02d78633          	mul	a2,a5,a3
    6434:	02d7b7b3          	mulhu	a5,a5,a3
    6438:	00f70733          	add	a4,a4,a5
    643c:	01071713          	slli	a4,a4,0x10
    6440:	01065793          	srli	a5,a2,0x10
    6444:	00f70733          	add	a4,a4,a5
    6448:	1ae12223          	sw	a4,420(sp)
    644c:	004aa783          	lw	a5,4(s5)
    6450:	00010737          	lui	a4,0x10
    6454:	18078c63          	beqz	a5,65ec <T25_start+0x3a4>
    6458:	40f006b3          	neg	a3,a5
    645c:	0ad7e6b3          	max	a3,a5,a3
    6460:	41f6d713          	srai	a4,a3,0x1f
    6464:	00017637          	lui	a2,0x17
    6468:	15460613          	addi	a2,a2,340 # 17154 <heap.cpp.6b15d6f6+0x953>
    646c:	02c70733          	mul	a4,a4,a2
    6470:	02c68c33          	mul	s8,a3,a2
    6474:	02c6b6b3          	mulhu	a3,a3,a2
    6478:	00d70733          	add	a4,a4,a3
    647c:	01071713          	slli	a4,a4,0x10
    6480:	010c5c13          	srli	s8,s8,0x10
    6484:	01870c33          	add	s8,a4,s8
    6488:	00008737          	lui	a4,0x8
    648c:	00ec0c33          	add	s8,s8,a4
    6490:	ffff0737          	lui	a4,0xffff0
    6494:	00ec7c33          	and	s8,s8,a4
    6498:	3207ca63          	bltz	a5,67cc <T25_end+0x3c>
    649c:	41fc5713          	srai	a4,s8,0x1f
    64a0:	0000b6b7          	lui	a3,0xb
    64a4:	17268693          	addi	a3,a3,370 # b172 <__subdf3+0x62e>
    64a8:	02d70733          	mul	a4,a4,a3
    64ac:	02dc0633          	mul	a2,s8,a3
    64b0:	02dc36b3          	mulhu	a3,s8,a3
    64b4:	00d70733          	add	a4,a4,a3
    64b8:	01071713          	slli	a4,a4,0x10
    64bc:	01065693          	srli	a3,a2,0x10
    64c0:	00d706b3          	add	a3,a4,a3
    64c4:	40d787b3          	sub	a5,a5,a3
    64c8:	41f7d693          	srai	a3,a5,0x1f
    64cc:	02f686b3          	mul	a3,a3,a5
    64d0:	02f78733          	mul	a4,a5,a5
    64d4:	02f7b633          	mulhu	a2,a5,a5
    64d8:	20c6a6b3          	sh1add	a3,a3,a2
    64dc:	01069693          	slli	a3,a3,0x10
    64e0:	01075713          	srli	a4,a4,0x10
    64e4:	00e68733          	add	a4,a3,a4
    64e8:	41f75513          	srai	a0,a4,0x1f
    64ec:	01e75693          	srli	a3,a4,0x1e
    64f0:	20d546b3          	sh2add	a3,a0,a3
    64f4:	00271613          	slli	a2,a4,0x2
    64f8:	01069693          	slli	a3,a3,0x10
    64fc:	01065613          	srli	a2,a2,0x10
    6500:	00c68633          	add	a2,a3,a2
    6504:	f4a60613          	addi	a2,a2,-182
    6508:	41f65593          	srai	a1,a2,0x1f
    650c:	02e585b3          	mul	a1,a1,a4
    6510:	02c506b3          	mul	a3,a0,a2
    6514:	00d585b3          	add	a1,a1,a3
    6518:	02e606b3          	mul	a3,a2,a4
    651c:	02e63633          	mulhu	a2,a2,a4
    6520:	00c58633          	add	a2,a1,a2
    6524:	01061613          	slli	a2,a2,0x10
    6528:	0106d693          	srli	a3,a3,0x10
    652c:	00d606b3          	add	a3,a2,a3
    6530:	00003637          	lui	a2,0x3
    6534:	aab60613          	addi	a2,a2,-1365 # 2aab <T9_start+0x2f>
    6538:	00c686b3          	add	a3,a3,a2
    653c:	41f6d613          	srai	a2,a3,0x1f
    6540:	02e60633          	mul	a2,a2,a4
    6544:	02d50533          	mul	a0,a0,a3
    6548:	00a60633          	add	a2,a2,a0
    654c:	02e685b3          	mul	a1,a3,a4
    6550:	02e6b6b3          	mulhu	a3,a3,a4
    6554:	00d60733          	add	a4,a2,a3
    6558:	01071713          	slli	a4,a4,0x10
    655c:	0105d693          	srli	a3,a1,0x10
    6560:	00d706b3          	add	a3,a4,a3
    6564:	00020737          	lui	a4,0x20
    6568:	00e686b3          	add	a3,a3,a4
    656c:	40f68633          	sub	a2,a3,a5
    6570:	02f68c63          	beq	a3,a5,65a8 <T25_start+0x360>
    6574:	00f7d713          	srli	a4,a5,0xf
    6578:	01179793          	slli	a5,a5,0x11
    657c:	01071713          	slli	a4,a4,0x10
    6580:	0107d793          	srli	a5,a5,0x10
    6584:	00f707b3          	add	a5,a4,a5
    6588:	41f7d713          	srai	a4,a5,0x1f
    658c:	0107d593          	srli	a1,a5,0x10
    6590:	01071713          	slli	a4,a4,0x10
    6594:	41f65693          	srai	a3,a2,0x1f
    6598:	01079513          	slli	a0,a5,0x10
    659c:	00e585b3          	add	a1,a1,a4
    65a0:	595040ef          	jal	b334 <__divdi3>
    65a4:	00050613          	mv	a2,a0
    65a8:	000107b7          	lui	a5,0x10
    65ac:	00f606b3          	add	a3,a2,a5
    65b0:	220c4263          	bltz	s8,67d4 <T25_end+0x44>
    65b4:	410c5c13          	srai	s8,s8,0x10
    65b8:	000107b7          	lui	a5,0x10
    65bc:	018797b3          	sll	a5,a5,s8
    65c0:	41f7d713          	srai	a4,a5,0x1f
    65c4:	41f6d613          	srai	a2,a3,0x1f
    65c8:	02d70733          	mul	a4,a4,a3
    65cc:	02f60633          	mul	a2,a2,a5
    65d0:	00c70733          	add	a4,a4,a2
    65d4:	02d78633          	mul	a2,a5,a3
    65d8:	02d7b7b3          	mulhu	a5,a5,a3
    65dc:	00f70733          	add	a4,a4,a5
    65e0:	01071713          	slli	a4,a4,0x10
    65e4:	01065793          	srli	a5,a2,0x10
    65e8:	00f70733          	add	a4,a4,a5
    65ec:	1ae12423          	sw	a4,424(sp)
    65f0:	000107b7          	lui	a5,0x10
    65f4:	180b8c63          	beqz	s7,678c <T25_start+0x544>
    65f8:	41700733          	neg	a4,s7
    65fc:	0aebe733          	max	a4,s7,a4
    6600:	41f75793          	srai	a5,a4,0x1f
    6604:	000176b7          	lui	a3,0x17
    6608:	15468693          	addi	a3,a3,340 # 17154 <heap.cpp.6b15d6f6+0x953>
    660c:	02d787b3          	mul	a5,a5,a3
    6610:	02d70c33          	mul	s8,a4,a3
    6614:	02d73733          	mulhu	a4,a4,a3
    6618:	00e787b3          	add	a5,a5,a4
    661c:	01079793          	slli	a5,a5,0x10
    6620:	010c5c13          	srli	s8,s8,0x10
    6624:	01878c33          	add	s8,a5,s8
    6628:	000087b7          	lui	a5,0x8
    662c:	00fc0c33          	add	s8,s8,a5
    6630:	ffff07b7          	lui	a5,0xffff0
    6634:	00fc7c33          	and	s8,s8,a5
    6638:	1a0bc663          	bltz	s7,67e4 <T25_end+0x54>
    663c:	41fc5713          	srai	a4,s8,0x1f
    6640:	0000b6b7          	lui	a3,0xb
    6644:	17268693          	addi	a3,a3,370 # b172 <__subdf3+0x62e>
    6648:	02d70733          	mul	a4,a4,a3
    664c:	02dc07b3          	mul	a5,s8,a3
    6650:	02dc36b3          	mulhu	a3,s8,a3
    6654:	00d70733          	add	a4,a4,a3
    6658:	01071713          	slli	a4,a4,0x10
    665c:	0107d793          	srli	a5,a5,0x10
    6660:	00f707b3          	add	a5,a4,a5
    6664:	40fb87b3          	sub	a5,s7,a5
    6668:	41f7d693          	srai	a3,a5,0x1f
    666c:	02f686b3          	mul	a3,a3,a5
    6670:	02f78733          	mul	a4,a5,a5
    6674:	02f7b633          	mulhu	a2,a5,a5
    6678:	20c6a6b3          	sh1add	a3,a3,a2
    667c:	01069693          	slli	a3,a3,0x10
    6680:	01075713          	srli	a4,a4,0x10
    6684:	00e68733          	add	a4,a3,a4
    6688:	41f75513          	srai	a0,a4,0x1f
    668c:	01e75693          	srli	a3,a4,0x1e
    6690:	20d546b3          	sh2add	a3,a0,a3
    6694:	00271613          	slli	a2,a4,0x2
    6698:	01069693          	slli	a3,a3,0x10
    669c:	01065613          	srli	a2,a2,0x10
    66a0:	00c68633          	add	a2,a3,a2
    66a4:	f4a60613          	addi	a2,a2,-182
    66a8:	41f65593          	srai	a1,a2,0x1f
    66ac:	02e585b3          	mul	a1,a1,a4
    66b0:	02c506b3          	mul	a3,a0,a2
    66b4:	00d585b3          	add	a1,a1,a3
    66b8:	02e606b3          	mul	a3,a2,a4
    66bc:	02e63633          	mulhu	a2,a2,a4
    66c0:	00c58633          	add	a2,a1,a2
    66c4:	01061613          	slli	a2,a2,0x10
    66c8:	0106d693          	srli	a3,a3,0x10
    66cc:	00d606b3          	add	a3,a2,a3
    66d0:	00003637          	lui	a2,0x3
    66d4:	aab60613          	addi	a2,a2,-1365 # 2aab <T9_start+0x2f>
    66d8:	00c686b3          	add	a3,a3,a2
    66dc:	41f6d613          	srai	a2,a3,0x1f
    66e0:	02e60633          	mul	a2,a2,a4
    66e4:	02d50533          	mul	a0,a0,a3
    66e8:	00a60633          	add	a2,a2,a0
    66ec:	02e685b3          	mul	a1,a3,a4
    66f0:	02e6b6b3          	mulhu	a3,a3,a4
    66f4:	00d60733          	add	a4,a2,a3
    66f8:	01071713          	slli	a4,a4,0x10
    66fc:	0105d693          	srli	a3,a1,0x10
    6700:	00d706b3          	add	a3,a4,a3
    6704:	00020737          	lui	a4,0x20
    6708:	00e686b3          	add	a3,a3,a4
    670c:	40f68633          	sub	a2,a3,a5
    6710:	02f68c63          	beq	a3,a5,6748 <T25_start+0x500>
    6714:	00f7d713          	srli	a4,a5,0xf
    6718:	01179793          	slli	a5,a5,0x11
    671c:	01071713          	slli	a4,a4,0x10
    6720:	0107d793          	srli	a5,a5,0x10
    6724:	00f707b3          	add	a5,a4,a5
    6728:	41f7d713          	srai	a4,a5,0x1f
    672c:	0107d593          	srli	a1,a5,0x10
    6730:	01071713          	slli	a4,a4,0x10
    6734:	41f65693          	srai	a3,a2,0x1f
    6738:	01079513          	slli	a0,a5,0x10
    673c:	00e585b3          	add	a1,a1,a4
    6740:	3f5040ef          	jal	b334 <__divdi3>
    6744:	00050613          	mv	a2,a0
    6748:	000107b7          	lui	a5,0x10
    674c:	00f606b3          	add	a3,a2,a5
    6750:	080c4e63          	bltz	s8,67ec <T25_end+0x5c>
    6754:	410c5c13          	srai	s8,s8,0x10
    6758:	00010737          	lui	a4,0x10
    675c:	01871733          	sll	a4,a4,s8
    6760:	41f75793          	srai	a5,a4,0x1f
    6764:	41f6d613          	srai	a2,a3,0x1f
    6768:	02d787b3          	mul	a5,a5,a3
    676c:	02e60633          	mul	a2,a2,a4
    6770:	00c787b3          	add	a5,a5,a2
    6774:	02d70633          	mul	a2,a4,a3
    6778:	02d73733          	mulhu	a4,a4,a3
    677c:	00e787b3          	add	a5,a5,a4
    6780:	01079793          	slli	a5,a5,0x10
    6784:	01065713          	srli	a4,a2,0x10
    6788:	00e787b3          	add	a5,a5,a4
    678c:	1af12623          	sw	a5,428(sp)

00006790 <T25_end>:
    6790:	b00027f3          	csrr	a5,mcycle
    6794:	416787b3          	sub	a5,a5,s6
    6798:	06f9a223          	sw	a5,100(s3)
    679c:	19412603          	lw	a2,404(sp)
    67a0:	19410713          	addi	a4,sp,404
    67a4:	00000513          	li	a0,0
    67a8:	00100793          	li	a5,1
    67ac:	00700593          	li	a1,7
    67b0:	05c0006f          	j	680c <T25_end+0x7c>
    67b4:	41800c33          	neg	s8,s8
    67b8:	b41ff06f          	j	62f8 <T25_start+0xb0>
    67bc:	41800733          	neg	a4,s8
    67c0:	41075713          	srai	a4,a4,0x10
    67c4:	40e7d7b3          	sra	a5,a5,a4
    67c8:	c55ff06f          	j	641c <T25_start+0x1d4>
    67cc:	41800c33          	neg	s8,s8
    67d0:	ccdff06f          	j	649c <T25_start+0x254>
    67d4:	41800733          	neg	a4,s8
    67d8:	41075713          	srai	a4,a4,0x10
    67dc:	40e7d7b3          	sra	a5,a5,a4
    67e0:	de1ff06f          	j	65c0 <T25_start+0x378>
    67e4:	41800c33          	neg	s8,s8
    67e8:	e55ff06f          	j	663c <T25_start+0x3f4>
    67ec:	418007b3          	neg	a5,s8
    67f0:	4107d793          	srai	a5,a5,0x10
    67f4:	00010737          	lui	a4,0x10
    67f8:	40f75733          	sra	a4,a4,a5
    67fc:	f65ff06f          	j	6760 <T25_start+0x518>
    6800:	00178793          	addi	a5,a5,1 # 10001 <fast_intr_ctrl.c.233e5230+0x208>
    6804:	00470713          	addi	a4,a4,4 # 10004 <fast_intr_ctrl.c.233e5230+0x20b>
    6808:	00b78c63          	beq	a5,a1,6820 <T25_end+0x90>
    680c:	00472683          	lw	a3,4(a4)
    6810:	fec6c8e3          	blt	a3,a2,6800 <T25_end+0x70>
    6814:	00068613          	mv	a2,a3
    6818:	00078513          	mv	a0,a5
    681c:	fe5ff06f          	j	6800 <T25_end+0x70>
    6820:	00020737          	lui	a4,0x20
    6824:	000207b7          	lui	a5,0x20
    6828:	03078793          	addi	a5,a5,48 # 20030 <next.2>
    682c:	20f54533          	sh2add	a0,a0,a5
    6830:	00052783          	lw	a5,0(a0)
    6834:	1fc70713          	addi	a4,a4,508 # 201fc <jump_table.28>
    6838:	20e7c7b3          	sh2add	a5,a5,a4
    683c:	0007a783          	lw	a5,0(a5)
    6840:	b60fa06f          	j	ba0 <inferenceTPG+0x50>
    6844:	00500793          	li	a5,5
    6848:	00fd2023          	sw	a5,0(s10)
    684c:	21c12083          	lw	ra,540(sp)
    6850:	21812483          	lw	s1,536(sp)
    6854:	21412903          	lw	s2,532(sp)
    6858:	21012983          	lw	s3,528(sp)
    685c:	20c12a03          	lw	s4,524(sp)
    6860:	20812a83          	lw	s5,520(sp)
    6864:	20412b03          	lw	s6,516(sp)
    6868:	20012b83          	lw	s7,512(sp)
    686c:	1fc12c03          	lw	s8,508(sp)
    6870:	1f812c83          	lw	s9,504(sp)
    6874:	1f412d03          	lw	s10,500(sp)
    6878:	22010113          	addi	sp,sp,544
    687c:	00008067          	ret
    6880:	00600793          	li	a5,6
    6884:	fc5ff06f          	j	6848 <T25_end+0xb8>
    6888:	00700793          	li	a5,7
    688c:	fbdff06f          	j	6848 <T25_end+0xb8>
    6890:	00000793          	li	a5,0
    6894:	fb5ff06f          	j	6848 <T25_end+0xb8>
    6898:	00400793          	li	a5,4
    689c:	fadff06f          	j	6848 <T25_end+0xb8>
    68a0:	00100793          	li	a5,1
    68a4:	fa5ff06f          	j	6848 <T25_end+0xb8>
    68a8:	00300793          	li	a5,3
    68ac:	f9dff06f          	j	6848 <T25_end+0xb8>
    68b0:	000107b7          	lui	a5,0x10
    68b4:	16f12223          	sw	a5,356(sp)
    68b8:	0044a683          	lw	a3,4(s1)
    68bc:	00169793          	slli	a5,a3,0x1
    68c0:	16f12423          	sw	a5,360(sp)
    68c4:	0084a703          	lw	a4,8(s1)
    68c8:	000aa783          	lw	a5,0(s5)
    68cc:	00f707b3          	add	a5,a4,a5
    68d0:	0ad7e7b3          	max	a5,a5,a3
    68d4:	16f12623          	sw	a5,364(sp)
    68d8:	0004a783          	lw	a5,0(s1)
    68dc:	00f707b3          	add	a5,a4,a5
    68e0:	00078d93          	mv	s11,a5
    68e4:	fff00593          	li	a1,-1
    68e8:	de0fd06f          	j	3ec8 <T13_start+0x44c>
    68ec:	00812783          	lw	a5,8(sp)
    68f0:	00fc0b33          	add	s6,s8,a5
    68f4:	00412783          	lw	a5,4(sp)
    68f8:	418787b3          	sub	a5,a5,s8
    68fc:	00f12423          	sw	a5,8(sp)
    6900:	fff00793          	li	a5,-1
    6904:	00078d93          	mv	s11,a5
    6908:	000107b7          	lui	a5,0x10
    690c:	da4fe06f          	j	4eb0 <T17_start+0x430>
    6910:	00812783          	lw	a5,8(sp)
    6914:	00fc0b33          	add	s6,s8,a5
    6918:	00412783          	lw	a5,4(sp)
    691c:	418787b3          	sub	a5,a5,s8
    6920:	00f12423          	sw	a5,8(sp)
    6924:	417006b3          	neg	a3,s7
    6928:	0adbe6b3          	max	a3,s7,a3
    692c:	41f6d713          	srai	a4,a3,0x1f
    6930:	00017637          	lui	a2,0x17
    6934:	15460613          	addi	a2,a2,340 # 17154 <heap.cpp.6b15d6f6+0x953>
    6938:	02c70733          	mul	a4,a4,a2
    693c:	02c687b3          	mul	a5,a3,a2
    6940:	02c6b6b3          	mulhu	a3,a3,a2
    6944:	00d70733          	add	a4,a4,a3
    6948:	01071713          	slli	a4,a4,0x10
    694c:	0107d793          	srli	a5,a5,0x10
    6950:	00f707b3          	add	a5,a4,a5
    6954:	00008737          	lui	a4,0x8
    6958:	00e787b3          	add	a5,a5,a4
    695c:	ffff0737          	lui	a4,0xffff0
    6960:	00e7f7b3          	and	a5,a5,a4
    6964:	40f007b3          	neg	a5,a5
    6968:	00078c93          	mv	s9,a5
    696c:	00000d93          	li	s11,0
    6970:	bf0fe06f          	j	4d60 <T17_start+0x2e0>

00006974 <handler_irq_fast_timer_1>:
    6974:	fc010113          	addi	sp,sp,-64
    6978:	02112e23          	sw	ra,60(sp)
    697c:	02512c23          	sw	t0,56(sp)
    6980:	02612a23          	sw	t1,52(sp)
    6984:	02712823          	sw	t2,48(sp)
    6988:	02a12623          	sw	a0,44(sp)
    698c:	02b12423          	sw	a1,40(sp)
    6990:	02c12223          	sw	a2,36(sp)
    6994:	02d12023          	sw	a3,32(sp)
    6998:	00e12e23          	sw	a4,28(sp)
    699c:	00f12c23          	sw	a5,24(sp)
    69a0:	01012a23          	sw	a6,20(sp)
    69a4:	01112823          	sw	a7,16(sp)
    69a8:	01c12623          	sw	t3,12(sp)
    69ac:	01d12423          	sw	t4,8(sp)
    69b0:	01e12223          	sw	t5,4(sp)
    69b4:	01f12023          	sw	t6,0(sp)
    69b8:	200607b7          	lui	a5,0x20060
    69bc:	00100713          	li	a4,1
    69c0:	00e7a223          	sw	a4,4(a5) # 20060004 <_sp+0x20036054>
    69c4:	9edf90ef          	jal	3b0 <fic_irq_timer_1>
    69c8:	03c12083          	lw	ra,60(sp)
    69cc:	03812283          	lw	t0,56(sp)
    69d0:	03412303          	lw	t1,52(sp)
    69d4:	03012383          	lw	t2,48(sp)
    69d8:	02c12503          	lw	a0,44(sp)
    69dc:	02812583          	lw	a1,40(sp)
    69e0:	02412603          	lw	a2,36(sp)
    69e4:	02012683          	lw	a3,32(sp)
    69e8:	01c12703          	lw	a4,28(sp)
    69ec:	01812783          	lw	a5,24(sp)
    69f0:	01412803          	lw	a6,20(sp)
    69f4:	01012883          	lw	a7,16(sp)
    69f8:	00c12e03          	lw	t3,12(sp)
    69fc:	00812e83          	lw	t4,8(sp)
    6a00:	00412f03          	lw	t5,4(sp)
    6a04:	00012f83          	lw	t6,0(sp)
    6a08:	04010113          	addi	sp,sp,64
    6a0c:	30200073          	mret

00006a10 <handler_irq_fast_timer_2>:
    6a10:	fc010113          	addi	sp,sp,-64
    6a14:	02112e23          	sw	ra,60(sp)
    6a18:	02512c23          	sw	t0,56(sp)
    6a1c:	02612a23          	sw	t1,52(sp)
    6a20:	02712823          	sw	t2,48(sp)
    6a24:	02a12623          	sw	a0,44(sp)
    6a28:	02b12423          	sw	a1,40(sp)
    6a2c:	02c12223          	sw	a2,36(sp)
    6a30:	02d12023          	sw	a3,32(sp)
    6a34:	00e12e23          	sw	a4,28(sp)
    6a38:	00f12c23          	sw	a5,24(sp)
    6a3c:	01012a23          	sw	a6,20(sp)
    6a40:	01112823          	sw	a7,16(sp)
    6a44:	01c12623          	sw	t3,12(sp)
    6a48:	01d12423          	sw	t4,8(sp)
    6a4c:	01e12223          	sw	t5,4(sp)
    6a50:	01f12023          	sw	t6,0(sp)
    6a54:	200607b7          	lui	a5,0x20060
    6a58:	00200713          	li	a4,2
    6a5c:	00e7a223          	sw	a4,4(a5) # 20060004 <_sp+0x20036054>
    6a60:	975f90ef          	jal	3d4 <fic_irq_timer_2>
    6a64:	03c12083          	lw	ra,60(sp)
    6a68:	03812283          	lw	t0,56(sp)
    6a6c:	03412303          	lw	t1,52(sp)
    6a70:	03012383          	lw	t2,48(sp)
    6a74:	02c12503          	lw	a0,44(sp)
    6a78:	02812583          	lw	a1,40(sp)
    6a7c:	02412603          	lw	a2,36(sp)
    6a80:	02012683          	lw	a3,32(sp)
    6a84:	01c12703          	lw	a4,28(sp)
    6a88:	01812783          	lw	a5,24(sp)
    6a8c:	01412803          	lw	a6,20(sp)
    6a90:	01012883          	lw	a7,16(sp)
    6a94:	00c12e03          	lw	t3,12(sp)
    6a98:	00812e83          	lw	t4,8(sp)
    6a9c:	00412f03          	lw	t5,4(sp)
    6aa0:	00012f83          	lw	t6,0(sp)
    6aa4:	04010113          	addi	sp,sp,64
    6aa8:	30200073          	mret

00006aac <handler_irq_fast_timer_3>:
    6aac:	fc010113          	addi	sp,sp,-64
    6ab0:	02112e23          	sw	ra,60(sp)
    6ab4:	02512c23          	sw	t0,56(sp)
    6ab8:	02612a23          	sw	t1,52(sp)
    6abc:	02712823          	sw	t2,48(sp)
    6ac0:	02a12623          	sw	a0,44(sp)
    6ac4:	02b12423          	sw	a1,40(sp)
    6ac8:	02c12223          	sw	a2,36(sp)
    6acc:	02d12023          	sw	a3,32(sp)
    6ad0:	00e12e23          	sw	a4,28(sp)
    6ad4:	00f12c23          	sw	a5,24(sp)
    6ad8:	01012a23          	sw	a6,20(sp)
    6adc:	01112823          	sw	a7,16(sp)
    6ae0:	01c12623          	sw	t3,12(sp)
    6ae4:	01d12423          	sw	t4,8(sp)
    6ae8:	01e12223          	sw	t5,4(sp)
    6aec:	01f12023          	sw	t6,0(sp)
    6af0:	200607b7          	lui	a5,0x20060
    6af4:	00400713          	li	a4,4
    6af8:	00e7a223          	sw	a4,4(a5) # 20060004 <_sp+0x20036054>
    6afc:	8fdf90ef          	jal	3f8 <fic_irq_timer_3>
    6b00:	03c12083          	lw	ra,60(sp)
    6b04:	03812283          	lw	t0,56(sp)
    6b08:	03412303          	lw	t1,52(sp)
    6b0c:	03012383          	lw	t2,48(sp)
    6b10:	02c12503          	lw	a0,44(sp)
    6b14:	02812583          	lw	a1,40(sp)
    6b18:	02412603          	lw	a2,36(sp)
    6b1c:	02012683          	lw	a3,32(sp)
    6b20:	01c12703          	lw	a4,28(sp)
    6b24:	01812783          	lw	a5,24(sp)
    6b28:	01412803          	lw	a6,20(sp)
    6b2c:	01012883          	lw	a7,16(sp)
    6b30:	00c12e03          	lw	t3,12(sp)
    6b34:	00812e83          	lw	t4,8(sp)
    6b38:	00412f03          	lw	t5,4(sp)
    6b3c:	00012f83          	lw	t6,0(sp)
    6b40:	04010113          	addi	sp,sp,64
    6b44:	30200073          	mret

00006b48 <handler_irq_fast_dma_done>:
    6b48:	fc010113          	addi	sp,sp,-64
    6b4c:	02112e23          	sw	ra,60(sp)
    6b50:	02512c23          	sw	t0,56(sp)
    6b54:	02612a23          	sw	t1,52(sp)
    6b58:	02712823          	sw	t2,48(sp)
    6b5c:	02a12623          	sw	a0,44(sp)
    6b60:	02b12423          	sw	a1,40(sp)
    6b64:	02c12223          	sw	a2,36(sp)
    6b68:	02d12023          	sw	a3,32(sp)
    6b6c:	00e12e23          	sw	a4,28(sp)
    6b70:	00f12c23          	sw	a5,24(sp)
    6b74:	01012a23          	sw	a6,20(sp)
    6b78:	01112823          	sw	a7,16(sp)
    6b7c:	01c12623          	sw	t3,12(sp)
    6b80:	01d12423          	sw	t4,8(sp)
    6b84:	01e12223          	sw	t5,4(sp)
    6b88:	01f12023          	sw	t6,0(sp)
    6b8c:	200607b7          	lui	a5,0x20060
    6b90:	00800713          	li	a4,8
    6b94:	00e7a223          	sw	a4,4(a5) # 20060004 <_sp+0x20036054>
    6b98:	f1cf90ef          	jal	2b4 <fic_irq_dma_done>
    6b9c:	03c12083          	lw	ra,60(sp)
    6ba0:	03812283          	lw	t0,56(sp)
    6ba4:	03412303          	lw	t1,52(sp)
    6ba8:	03012383          	lw	t2,48(sp)
    6bac:	02c12503          	lw	a0,44(sp)
    6bb0:	02812583          	lw	a1,40(sp)
    6bb4:	02412603          	lw	a2,36(sp)
    6bb8:	02012683          	lw	a3,32(sp)
    6bbc:	01c12703          	lw	a4,28(sp)
    6bc0:	01812783          	lw	a5,24(sp)
    6bc4:	01412803          	lw	a6,20(sp)
    6bc8:	01012883          	lw	a7,16(sp)
    6bcc:	00c12e03          	lw	t3,12(sp)
    6bd0:	00812e83          	lw	t4,8(sp)
    6bd4:	00412f03          	lw	t5,4(sp)
    6bd8:	00012f83          	lw	t6,0(sp)
    6bdc:	04010113          	addi	sp,sp,64
    6be0:	30200073          	mret

00006be4 <handler_irq_fast_dma_window>:
    6be4:	fc010113          	addi	sp,sp,-64
    6be8:	02112e23          	sw	ra,60(sp)
    6bec:	02512c23          	sw	t0,56(sp)
    6bf0:	02612a23          	sw	t1,52(sp)
    6bf4:	02712823          	sw	t2,48(sp)
    6bf8:	02a12623          	sw	a0,44(sp)
    6bfc:	02b12423          	sw	a1,40(sp)
    6c00:	02c12223          	sw	a2,36(sp)
    6c04:	02d12023          	sw	a3,32(sp)
    6c08:	00e12e23          	sw	a4,28(sp)
    6c0c:	00f12c23          	sw	a5,24(sp)
    6c10:	01012a23          	sw	a6,20(sp)
    6c14:	01112823          	sw	a7,16(sp)
    6c18:	01c12623          	sw	t3,12(sp)
    6c1c:	01d12423          	sw	t4,8(sp)
    6c20:	01e12223          	sw	t5,4(sp)
    6c24:	01f12023          	sw	t6,0(sp)
    6c28:	200607b7          	lui	a5,0x20060
    6c2c:	00004737          	lui	a4,0x4
    6c30:	00e7a223          	sw	a4,4(a5) # 20060004 <_sp+0x20036054>
    6c34:	e00f90ef          	jal	234 <fic_irq_dma_window>
    6c38:	03c12083          	lw	ra,60(sp)
    6c3c:	03812283          	lw	t0,56(sp)
    6c40:	03412303          	lw	t1,52(sp)
    6c44:	03012383          	lw	t2,48(sp)
    6c48:	02c12503          	lw	a0,44(sp)
    6c4c:	02812583          	lw	a1,40(sp)
    6c50:	02412603          	lw	a2,36(sp)
    6c54:	02012683          	lw	a3,32(sp)
    6c58:	01c12703          	lw	a4,28(sp)
    6c5c:	01812783          	lw	a5,24(sp)
    6c60:	01412803          	lw	a6,20(sp)
    6c64:	01012883          	lw	a7,16(sp)
    6c68:	00c12e03          	lw	t3,12(sp)
    6c6c:	00812e83          	lw	t4,8(sp)
    6c70:	00412f03          	lw	t5,4(sp)
    6c74:	00012f83          	lw	t6,0(sp)
    6c78:	04010113          	addi	sp,sp,64
    6c7c:	30200073          	mret

00006c80 <handler_irq_fast_external_peripheral>:
    6c80:	fc010113          	addi	sp,sp,-64
    6c84:	02112e23          	sw	ra,60(sp)
    6c88:	02512c23          	sw	t0,56(sp)
    6c8c:	02612a23          	sw	t1,52(sp)
    6c90:	02712823          	sw	t2,48(sp)
    6c94:	02a12623          	sw	a0,44(sp)
    6c98:	02b12423          	sw	a1,40(sp)
    6c9c:	02c12223          	sw	a2,36(sp)
    6ca0:	02d12023          	sw	a3,32(sp)
    6ca4:	00e12e23          	sw	a4,28(sp)
    6ca8:	00f12c23          	sw	a5,24(sp)
    6cac:	01012a23          	sw	a6,20(sp)
    6cb0:	01112823          	sw	a7,16(sp)
    6cb4:	01c12623          	sw	t3,12(sp)
    6cb8:	01d12423          	sw	t4,8(sp)
    6cbc:	01e12223          	sw	t5,4(sp)
    6cc0:	01f12023          	sw	t6,0(sp)
    6cc4:	200607b7          	lui	a5,0x20060
    6cc8:	00008737          	lui	a4,0x8
    6ccc:	00e7a223          	sw	a4,4(a5) # 20060004 <_sp+0x20036054>
    6cd0:	f4cf90ef          	jal	41c <fic_irq_ext_peripheral>
    6cd4:	03c12083          	lw	ra,60(sp)
    6cd8:	03812283          	lw	t0,56(sp)
    6cdc:	03412303          	lw	t1,52(sp)
    6ce0:	03012383          	lw	t2,48(sp)
    6ce4:	02c12503          	lw	a0,44(sp)
    6ce8:	02812583          	lw	a1,40(sp)
    6cec:	02412603          	lw	a2,36(sp)
    6cf0:	02012683          	lw	a3,32(sp)
    6cf4:	01c12703          	lw	a4,28(sp)
    6cf8:	01812783          	lw	a5,24(sp)
    6cfc:	01412803          	lw	a6,20(sp)
    6d00:	01012883          	lw	a7,16(sp)
    6d04:	00c12e03          	lw	t3,12(sp)
    6d08:	00812e83          	lw	t4,8(sp)
    6d0c:	00412f03          	lw	t5,4(sp)
    6d10:	00012f83          	lw	t6,0(sp)
    6d14:	04010113          	addi	sp,sp,64
    6d18:	30200073          	mret

00006d1c <handler_irq_fast_gpio_0>:
    6d1c:	fc010113          	addi	sp,sp,-64
    6d20:	02112e23          	sw	ra,60(sp)
    6d24:	02512c23          	sw	t0,56(sp)
    6d28:	02612a23          	sw	t1,52(sp)
    6d2c:	02712823          	sw	t2,48(sp)
    6d30:	02a12623          	sw	a0,44(sp)
    6d34:	02b12423          	sw	a1,40(sp)
    6d38:	02c12223          	sw	a2,36(sp)
    6d3c:	02d12023          	sw	a3,32(sp)
    6d40:	00e12e23          	sw	a4,28(sp)
    6d44:	00f12c23          	sw	a5,24(sp)
    6d48:	01012a23          	sw	a6,20(sp)
    6d4c:	01112823          	sw	a7,16(sp)
    6d50:	01c12623          	sw	t3,12(sp)
    6d54:	01d12423          	sw	t4,8(sp)
    6d58:	01e12223          	sw	t5,4(sp)
    6d5c:	01f12023          	sw	t6,0(sp)
    6d60:	200607b7          	lui	a5,0x20060
    6d64:	04000713          	li	a4,64
    6d68:	00e7a223          	sw	a4,4(a5) # 20060004 <_sp+0x20036054>
    6d6c:	ed4f90ef          	jal	440 <fic_irq_gpio_0>
    6d70:	03c12083          	lw	ra,60(sp)
    6d74:	03812283          	lw	t0,56(sp)
    6d78:	03412303          	lw	t1,52(sp)
    6d7c:	03012383          	lw	t2,48(sp)
    6d80:	02c12503          	lw	a0,44(sp)
    6d84:	02812583          	lw	a1,40(sp)
    6d88:	02412603          	lw	a2,36(sp)
    6d8c:	02012683          	lw	a3,32(sp)
    6d90:	01c12703          	lw	a4,28(sp)
    6d94:	01812783          	lw	a5,24(sp)
    6d98:	01412803          	lw	a6,20(sp)
    6d9c:	01012883          	lw	a7,16(sp)
    6da0:	00c12e03          	lw	t3,12(sp)
    6da4:	00812e83          	lw	t4,8(sp)
    6da8:	00412f03          	lw	t5,4(sp)
    6dac:	00012f83          	lw	t6,0(sp)
    6db0:	04010113          	addi	sp,sp,64
    6db4:	30200073          	mret

00006db8 <handler_irq_fast_gpio_1>:
    6db8:	fc010113          	addi	sp,sp,-64
    6dbc:	02112e23          	sw	ra,60(sp)
    6dc0:	02512c23          	sw	t0,56(sp)
    6dc4:	02612a23          	sw	t1,52(sp)
    6dc8:	02712823          	sw	t2,48(sp)
    6dcc:	02a12623          	sw	a0,44(sp)
    6dd0:	02b12423          	sw	a1,40(sp)
    6dd4:	02c12223          	sw	a2,36(sp)
    6dd8:	02d12023          	sw	a3,32(sp)
    6ddc:	00e12e23          	sw	a4,28(sp)
    6de0:	00f12c23          	sw	a5,24(sp)
    6de4:	01012a23          	sw	a6,20(sp)
    6de8:	01112823          	sw	a7,16(sp)
    6dec:	01c12623          	sw	t3,12(sp)
    6df0:	01d12423          	sw	t4,8(sp)
    6df4:	01e12223          	sw	t5,4(sp)
    6df8:	01f12023          	sw	t6,0(sp)
    6dfc:	200607b7          	lui	a5,0x20060
    6e00:	08000713          	li	a4,128
    6e04:	00e7a223          	sw	a4,4(a5) # 20060004 <_sp+0x20036054>
    6e08:	e5cf90ef          	jal	464 <fic_irq_gpio_1>
    6e0c:	03c12083          	lw	ra,60(sp)
    6e10:	03812283          	lw	t0,56(sp)
    6e14:	03412303          	lw	t1,52(sp)
    6e18:	03012383          	lw	t2,48(sp)
    6e1c:	02c12503          	lw	a0,44(sp)
    6e20:	02812583          	lw	a1,40(sp)
    6e24:	02412603          	lw	a2,36(sp)
    6e28:	02012683          	lw	a3,32(sp)
    6e2c:	01c12703          	lw	a4,28(sp)
    6e30:	01812783          	lw	a5,24(sp)
    6e34:	01412803          	lw	a6,20(sp)
    6e38:	01012883          	lw	a7,16(sp)
    6e3c:	00c12e03          	lw	t3,12(sp)
    6e40:	00812e83          	lw	t4,8(sp)
    6e44:	00412f03          	lw	t5,4(sp)
    6e48:	00012f83          	lw	t6,0(sp)
    6e4c:	04010113          	addi	sp,sp,64
    6e50:	30200073          	mret

00006e54 <handler_irq_fast_gpio_2>:
    6e54:	fc010113          	addi	sp,sp,-64
    6e58:	02112e23          	sw	ra,60(sp)
    6e5c:	02512c23          	sw	t0,56(sp)
    6e60:	02612a23          	sw	t1,52(sp)
    6e64:	02712823          	sw	t2,48(sp)
    6e68:	02a12623          	sw	a0,44(sp)
    6e6c:	02b12423          	sw	a1,40(sp)
    6e70:	02c12223          	sw	a2,36(sp)
    6e74:	02d12023          	sw	a3,32(sp)
    6e78:	00e12e23          	sw	a4,28(sp)
    6e7c:	00f12c23          	sw	a5,24(sp)
    6e80:	01012a23          	sw	a6,20(sp)
    6e84:	01112823          	sw	a7,16(sp)
    6e88:	01c12623          	sw	t3,12(sp)
    6e8c:	01d12423          	sw	t4,8(sp)
    6e90:	01e12223          	sw	t5,4(sp)
    6e94:	01f12023          	sw	t6,0(sp)
    6e98:	200607b7          	lui	a5,0x20060
    6e9c:	10000713          	li	a4,256
    6ea0:	00e7a223          	sw	a4,4(a5) # 20060004 <_sp+0x20036054>
    6ea4:	de4f90ef          	jal	488 <fic_irq_gpio_2>
    6ea8:	03c12083          	lw	ra,60(sp)
    6eac:	03812283          	lw	t0,56(sp)
    6eb0:	03412303          	lw	t1,52(sp)
    6eb4:	03012383          	lw	t2,48(sp)
    6eb8:	02c12503          	lw	a0,44(sp)
    6ebc:	02812583          	lw	a1,40(sp)
    6ec0:	02412603          	lw	a2,36(sp)
    6ec4:	02012683          	lw	a3,32(sp)
    6ec8:	01c12703          	lw	a4,28(sp)
    6ecc:	01812783          	lw	a5,24(sp)
    6ed0:	01412803          	lw	a6,20(sp)
    6ed4:	01012883          	lw	a7,16(sp)
    6ed8:	00c12e03          	lw	t3,12(sp)
    6edc:	00812e83          	lw	t4,8(sp)
    6ee0:	00412f03          	lw	t5,4(sp)
    6ee4:	00012f83          	lw	t6,0(sp)
    6ee8:	04010113          	addi	sp,sp,64
    6eec:	30200073          	mret

00006ef0 <handler_irq_fast_gpio_3>:
    6ef0:	fc010113          	addi	sp,sp,-64
    6ef4:	02112e23          	sw	ra,60(sp)
    6ef8:	02512c23          	sw	t0,56(sp)
    6efc:	02612a23          	sw	t1,52(sp)
    6f00:	02712823          	sw	t2,48(sp)
    6f04:	02a12623          	sw	a0,44(sp)
    6f08:	02b12423          	sw	a1,40(sp)
    6f0c:	02c12223          	sw	a2,36(sp)
    6f10:	02d12023          	sw	a3,32(sp)
    6f14:	00e12e23          	sw	a4,28(sp)
    6f18:	00f12c23          	sw	a5,24(sp)
    6f1c:	01012a23          	sw	a6,20(sp)
    6f20:	01112823          	sw	a7,16(sp)
    6f24:	01c12623          	sw	t3,12(sp)
    6f28:	01d12423          	sw	t4,8(sp)
    6f2c:	01e12223          	sw	t5,4(sp)
    6f30:	01f12023          	sw	t6,0(sp)
    6f34:	200607b7          	lui	a5,0x20060
    6f38:	20000713          	li	a4,512
    6f3c:	00e7a223          	sw	a4,4(a5) # 20060004 <_sp+0x20036054>
    6f40:	d6cf90ef          	jal	4ac <fic_irq_gpio_3>
    6f44:	03c12083          	lw	ra,60(sp)
    6f48:	03812283          	lw	t0,56(sp)
    6f4c:	03412303          	lw	t1,52(sp)
    6f50:	03012383          	lw	t2,48(sp)
    6f54:	02c12503          	lw	a0,44(sp)
    6f58:	02812583          	lw	a1,40(sp)
    6f5c:	02412603          	lw	a2,36(sp)
    6f60:	02012683          	lw	a3,32(sp)
    6f64:	01c12703          	lw	a4,28(sp)
    6f68:	01812783          	lw	a5,24(sp)
    6f6c:	01412803          	lw	a6,20(sp)
    6f70:	01012883          	lw	a7,16(sp)
    6f74:	00c12e03          	lw	t3,12(sp)
    6f78:	00812e83          	lw	t4,8(sp)
    6f7c:	00412f03          	lw	t5,4(sp)
    6f80:	00012f83          	lw	t6,0(sp)
    6f84:	04010113          	addi	sp,sp,64
    6f88:	30200073          	mret

00006f8c <handler_irq_fast_gpio_4>:
    6f8c:	fc010113          	addi	sp,sp,-64
    6f90:	02112e23          	sw	ra,60(sp)
    6f94:	02512c23          	sw	t0,56(sp)
    6f98:	02612a23          	sw	t1,52(sp)
    6f9c:	02712823          	sw	t2,48(sp)
    6fa0:	02a12623          	sw	a0,44(sp)
    6fa4:	02b12423          	sw	a1,40(sp)
    6fa8:	02c12223          	sw	a2,36(sp)
    6fac:	02d12023          	sw	a3,32(sp)
    6fb0:	00e12e23          	sw	a4,28(sp)
    6fb4:	00f12c23          	sw	a5,24(sp)
    6fb8:	01012a23          	sw	a6,20(sp)
    6fbc:	01112823          	sw	a7,16(sp)
    6fc0:	01c12623          	sw	t3,12(sp)
    6fc4:	01d12423          	sw	t4,8(sp)
    6fc8:	01e12223          	sw	t5,4(sp)
    6fcc:	01f12023          	sw	t6,0(sp)
    6fd0:	200607b7          	lui	a5,0x20060
    6fd4:	40000713          	li	a4,1024
    6fd8:	00e7a223          	sw	a4,4(a5) # 20060004 <_sp+0x20036054>
    6fdc:	cf4f90ef          	jal	4d0 <fic_irq_gpio_4>
    6fe0:	03c12083          	lw	ra,60(sp)
    6fe4:	03812283          	lw	t0,56(sp)
    6fe8:	03412303          	lw	t1,52(sp)
    6fec:	03012383          	lw	t2,48(sp)
    6ff0:	02c12503          	lw	a0,44(sp)
    6ff4:	02812583          	lw	a1,40(sp)
    6ff8:	02412603          	lw	a2,36(sp)
    6ffc:	02012683          	lw	a3,32(sp)
    7000:	01c12703          	lw	a4,28(sp)
    7004:	01812783          	lw	a5,24(sp)
    7008:	01412803          	lw	a6,20(sp)
    700c:	01012883          	lw	a7,16(sp)
    7010:	00c12e03          	lw	t3,12(sp)
    7014:	00812e83          	lw	t4,8(sp)
    7018:	00412f03          	lw	t5,4(sp)
    701c:	00012f83          	lw	t6,0(sp)
    7020:	04010113          	addi	sp,sp,64
    7024:	30200073          	mret

00007028 <handler_irq_fast_gpio_5>:
    7028:	fc010113          	addi	sp,sp,-64
    702c:	02112e23          	sw	ra,60(sp)
    7030:	02512c23          	sw	t0,56(sp)
    7034:	02612a23          	sw	t1,52(sp)
    7038:	02712823          	sw	t2,48(sp)
    703c:	02a12623          	sw	a0,44(sp)
    7040:	02b12423          	sw	a1,40(sp)
    7044:	02c12223          	sw	a2,36(sp)
    7048:	02d12023          	sw	a3,32(sp)
    704c:	00e12e23          	sw	a4,28(sp)
    7050:	00f12c23          	sw	a5,24(sp)
    7054:	01012a23          	sw	a6,20(sp)
    7058:	01112823          	sw	a7,16(sp)
    705c:	01c12623          	sw	t3,12(sp)
    7060:	01d12423          	sw	t4,8(sp)
    7064:	01e12223          	sw	t5,4(sp)
    7068:	01f12023          	sw	t6,0(sp)
    706c:	20060737          	lui	a4,0x20060
    7070:	000017b7          	lui	a5,0x1
    7074:	80078793          	addi	a5,a5,-2048 # 800 <spi_event_handler+0x110>
    7078:	00f72223          	sw	a5,4(a4) # 20060004 <_sp+0x20036054>
    707c:	c78f90ef          	jal	4f4 <fic_irq_gpio_5>
    7080:	03c12083          	lw	ra,60(sp)
    7084:	03812283          	lw	t0,56(sp)
    7088:	03412303          	lw	t1,52(sp)
    708c:	03012383          	lw	t2,48(sp)
    7090:	02c12503          	lw	a0,44(sp)
    7094:	02812583          	lw	a1,40(sp)
    7098:	02412603          	lw	a2,36(sp)
    709c:	02012683          	lw	a3,32(sp)
    70a0:	01c12703          	lw	a4,28(sp)
    70a4:	01812783          	lw	a5,24(sp)
    70a8:	01412803          	lw	a6,20(sp)
    70ac:	01012883          	lw	a7,16(sp)
    70b0:	00c12e03          	lw	t3,12(sp)
    70b4:	00812e83          	lw	t4,8(sp)
    70b8:	00412f03          	lw	t5,4(sp)
    70bc:	00012f83          	lw	t6,0(sp)
    70c0:	04010113          	addi	sp,sp,64
    70c4:	30200073          	mret

000070c8 <handler_irq_fast_gpio_6>:
    70c8:	fc010113          	addi	sp,sp,-64
    70cc:	02112e23          	sw	ra,60(sp)
    70d0:	02512c23          	sw	t0,56(sp)
    70d4:	02612a23          	sw	t1,52(sp)
    70d8:	02712823          	sw	t2,48(sp)
    70dc:	02a12623          	sw	a0,44(sp)
    70e0:	02b12423          	sw	a1,40(sp)
    70e4:	02c12223          	sw	a2,36(sp)
    70e8:	02d12023          	sw	a3,32(sp)
    70ec:	00e12e23          	sw	a4,28(sp)
    70f0:	00f12c23          	sw	a5,24(sp)
    70f4:	01012a23          	sw	a6,20(sp)
    70f8:	01112823          	sw	a7,16(sp)
    70fc:	01c12623          	sw	t3,12(sp)
    7100:	01d12423          	sw	t4,8(sp)
    7104:	01e12223          	sw	t5,4(sp)
    7108:	01f12023          	sw	t6,0(sp)
    710c:	200607b7          	lui	a5,0x20060
    7110:	00001737          	lui	a4,0x1
    7114:	00e7a223          	sw	a4,4(a5) # 20060004 <_sp+0x20036054>
    7118:	c00f90ef          	jal	518 <fic_irq_gpio_6>
    711c:	03c12083          	lw	ra,60(sp)
    7120:	03812283          	lw	t0,56(sp)
    7124:	03412303          	lw	t1,52(sp)
    7128:	03012383          	lw	t2,48(sp)
    712c:	02c12503          	lw	a0,44(sp)
    7130:	02812583          	lw	a1,40(sp)
    7134:	02412603          	lw	a2,36(sp)
    7138:	02012683          	lw	a3,32(sp)
    713c:	01c12703          	lw	a4,28(sp)
    7140:	01812783          	lw	a5,24(sp)
    7144:	01412803          	lw	a6,20(sp)
    7148:	01012883          	lw	a7,16(sp)
    714c:	00c12e03          	lw	t3,12(sp)
    7150:	00812e83          	lw	t4,8(sp)
    7154:	00412f03          	lw	t5,4(sp)
    7158:	00012f83          	lw	t6,0(sp)
    715c:	04010113          	addi	sp,sp,64
    7160:	30200073          	mret

00007164 <handler_irq_fast_gpio_7>:
    7164:	fc010113          	addi	sp,sp,-64
    7168:	02112e23          	sw	ra,60(sp)
    716c:	02512c23          	sw	t0,56(sp)
    7170:	02612a23          	sw	t1,52(sp)
    7174:	02712823          	sw	t2,48(sp)
    7178:	02a12623          	sw	a0,44(sp)
    717c:	02b12423          	sw	a1,40(sp)
    7180:	02c12223          	sw	a2,36(sp)
    7184:	02d12023          	sw	a3,32(sp)
    7188:	00e12e23          	sw	a4,28(sp)
    718c:	00f12c23          	sw	a5,24(sp)
    7190:	01012a23          	sw	a6,20(sp)
    7194:	01112823          	sw	a7,16(sp)
    7198:	01c12623          	sw	t3,12(sp)
    719c:	01d12423          	sw	t4,8(sp)
    71a0:	01e12223          	sw	t5,4(sp)
    71a4:	01f12023          	sw	t6,0(sp)
    71a8:	200607b7          	lui	a5,0x20060
    71ac:	00002737          	lui	a4,0x2
    71b0:	00e7a223          	sw	a4,4(a5) # 20060004 <_sp+0x20036054>
    71b4:	b88f90ef          	jal	53c <fic_irq_gpio_7>
    71b8:	03c12083          	lw	ra,60(sp)
    71bc:	03812283          	lw	t0,56(sp)
    71c0:	03412303          	lw	t1,52(sp)
    71c4:	03012383          	lw	t2,48(sp)
    71c8:	02c12503          	lw	a0,44(sp)
    71cc:	02812583          	lw	a1,40(sp)
    71d0:	02412603          	lw	a2,36(sp)
    71d4:	02012683          	lw	a3,32(sp)
    71d8:	01c12703          	lw	a4,28(sp)
    71dc:	01812783          	lw	a5,24(sp)
    71e0:	01412803          	lw	a6,20(sp)
    71e4:	01012883          	lw	a7,16(sp)
    71e8:	00c12e03          	lw	t3,12(sp)
    71ec:	00812e83          	lw	t4,8(sp)
    71f0:	00412f03          	lw	t5,4(sp)
    71f4:	00012f83          	lw	t6,0(sp)
    71f8:	04010113          	addi	sp,sp,64
    71fc:	30200073          	mret

00007200 <handler_irq_external>:
    7200:	fb010113          	addi	sp,sp,-80
    7204:	04112623          	sw	ra,76(sp)
    7208:	04512423          	sw	t0,72(sp)
    720c:	04612223          	sw	t1,68(sp)
    7210:	04712023          	sw	t2,64(sp)
    7214:	02912e23          	sw	s1,60(sp)
    7218:	02a12c23          	sw	a0,56(sp)
    721c:	02b12a23          	sw	a1,52(sp)
    7220:	02c12823          	sw	a2,48(sp)
    7224:	02d12623          	sw	a3,44(sp)
    7228:	02e12423          	sw	a4,40(sp)
    722c:	02f12223          	sw	a5,36(sp)
    7230:	03012023          	sw	a6,32(sp)
    7234:	01112e23          	sw	a7,28(sp)
    7238:	01212c23          	sw	s2,24(sp)
    723c:	01c12a23          	sw	t3,20(sp)
    7240:	01d12823          	sw	t4,16(sp)
    7244:	01e12623          	sw	t5,12(sp)
    7248:	01f12423          	sw	t6,8(sp)
    724c:	300004b7          	lui	s1,0x30000
    7250:	20c4a903          	lw	s2,524(s1) # 3000020c <_sp+0x2ffd625c>
    7254:	00090513          	mv	a0,s2
    7258:	00000793          	li	a5,0
    725c:	000780e7          	jalr	a5
    7260:	2124a623          	sw	s2,524(s1)
    7264:	04c12083          	lw	ra,76(sp)
    7268:	04812283          	lw	t0,72(sp)
    726c:	04412303          	lw	t1,68(sp)
    7270:	04012383          	lw	t2,64(sp)
    7274:	03c12483          	lw	s1,60(sp)
    7278:	03812503          	lw	a0,56(sp)
    727c:	03412583          	lw	a1,52(sp)
    7280:	03012603          	lw	a2,48(sp)
    7284:	02c12683          	lw	a3,44(sp)
    7288:	02812703          	lw	a4,40(sp)
    728c:	02412783          	lw	a5,36(sp)
    7290:	02012803          	lw	a6,32(sp)
    7294:	01c12883          	lw	a7,28(sp)
    7298:	01812903          	lw	s2,24(sp)
    729c:	01412e03          	lw	t3,20(sp)
    72a0:	01012e83          	lw	t4,16(sp)
    72a4:	00c12f03          	lw	t5,12(sp)
    72a8:	00812f83          	lw	t6,8(sp)
    72ac:	05010113          	addi	sp,sp,80
    72b0:	30200073          	mret

000072b4 <handler_exception>:
    72b4:	fc010113          	addi	sp,sp,-64
    72b8:	02112e23          	sw	ra,60(sp)
    72bc:	02512c23          	sw	t0,56(sp)
    72c0:	02612a23          	sw	t1,52(sp)
    72c4:	02712823          	sw	t2,48(sp)
    72c8:	02a12623          	sw	a0,44(sp)
    72cc:	02b12423          	sw	a1,40(sp)
    72d0:	02c12223          	sw	a2,36(sp)
    72d4:	02d12023          	sw	a3,32(sp)
    72d8:	00e12e23          	sw	a4,28(sp)
    72dc:	00f12c23          	sw	a5,24(sp)
    72e0:	01012a23          	sw	a6,20(sp)
    72e4:	01112823          	sw	a7,16(sp)
    72e8:	01c12623          	sw	t3,12(sp)
    72ec:	01d12423          	sw	t4,8(sp)
    72f0:	01e12223          	sw	t5,4(sp)
    72f4:	01f12023          	sw	t6,0(sp)
    72f8:	342027f3          	csrr	a5,mcause
    72fc:	01f7f793          	andi	a5,a5,31
    7300:	00b00713          	li	a4,11
    7304:	06f76863          	bltu	a4,a5,7374 <handler_exception+0xc0>
    7308:	00020737          	lui	a4,0x20
    730c:	00070713          	mv	a4,a4
    7310:	20e7c7b3          	sh2add	a5,a5,a4
    7314:	0007a783          	lw	a5,0(a5)
    7318:	00078067          	jr	a5
    731c:	00020537          	lui	a0,0x20
    7320:	4b050513          	addi	a0,a0,1200 # 204b0 <__clz_tab+0x1c0>
    7324:	fd8f90ef          	jal	afc <print_exc_msg>
    7328:	00020537          	lui	a0,0x20
    732c:	4b050513          	addi	a0,a0,1200 # 204b0 <__clz_tab+0x1c0>
    7330:	fccf90ef          	jal	afc <print_exc_msg>
    7334:	00020537          	lui	a0,0x20
    7338:	4e850513          	addi	a0,a0,1256 # 204e8 <__clz_tab+0x1f8>
    733c:	fc0f90ef          	jal	afc <print_exc_msg>
    7340:	00020537          	lui	a0,0x20
    7344:	52450513          	addi	a0,a0,1316 # 20524 <__clz_tab+0x234>
    7348:	fb4f90ef          	jal	afc <print_exc_msg>
    734c:	00020537          	lui	a0,0x20
    7350:	56050513          	addi	a0,a0,1376 # 20560 <__clz_tab+0x270>
    7354:	fa8f90ef          	jal	afc <print_exc_msg>
    7358:	00020537          	lui	a0,0x20
    735c:	56050513          	addi	a0,a0,1376 # 20560 <__clz_tab+0x270>
    7360:	f9cf90ef          	jal	afc <print_exc_msg>
    7364:	00020537          	lui	a0,0x20
    7368:	59450513          	addi	a0,a0,1428 # 20594 <__clz_tab+0x2a4>
    736c:	f5cf90ef          	jal	ac8 <_writestr>
    7370:	0000006f          	j	7370 <handler_exception+0xbc>
    7374:	0000006f          	j	7374 <handler_exception+0xc0>

00007378 <handler_irq_software>:
    7378:	fc010113          	addi	sp,sp,-64
    737c:	02112e23          	sw	ra,60(sp)
    7380:	02512c23          	sw	t0,56(sp)
    7384:	02612a23          	sw	t1,52(sp)
    7388:	02712823          	sw	t2,48(sp)
    738c:	02a12623          	sw	a0,44(sp)
    7390:	02b12423          	sw	a1,40(sp)
    7394:	02c12223          	sw	a2,36(sp)
    7398:	02d12023          	sw	a3,32(sp)
    739c:	00e12e23          	sw	a4,28(sp)
    73a0:	00f12c23          	sw	a5,24(sp)
    73a4:	01012a23          	sw	a6,20(sp)
    73a8:	01112823          	sw	a7,16(sp)
    73ac:	01c12623          	sw	t3,12(sp)
    73b0:	01d12423          	sw	t4,8(sp)
    73b4:	01e12223          	sw	t5,4(sp)
    73b8:	01f12023          	sw	t6,0(sp)
    73bc:	00020537          	lui	a0,0x20
    73c0:	5b450513          	addi	a0,a0,1460 # 205b4 <__clz_tab+0x2c4>
    73c4:	f04f90ef          	jal	ac8 <_writestr>
    73c8:	0000006f          	j	73c8 <handler_irq_software+0x50>

000073cc <handler_irq_timer>:
    73cc:	fc010113          	addi	sp,sp,-64
    73d0:	02112e23          	sw	ra,60(sp)
    73d4:	02512c23          	sw	t0,56(sp)
    73d8:	02612a23          	sw	t1,52(sp)
    73dc:	02712823          	sw	t2,48(sp)
    73e0:	02a12623          	sw	a0,44(sp)
    73e4:	02b12423          	sw	a1,40(sp)
    73e8:	02c12223          	sw	a2,36(sp)
    73ec:	02d12023          	sw	a3,32(sp)
    73f0:	00e12e23          	sw	a4,28(sp)
    73f4:	00f12c23          	sw	a5,24(sp)
    73f8:	01012a23          	sw	a6,20(sp)
    73fc:	01112823          	sw	a7,16(sp)
    7400:	01c12623          	sw	t3,12(sp)
    7404:	01d12423          	sw	t4,8(sp)
    7408:	01e12223          	sw	t5,4(sp)
    740c:	01f12023          	sw	t6,0(sp)
    7410:	00020537          	lui	a0,0x20
    7414:	5d050513          	addi	a0,a0,1488 # 205d0 <__clz_tab+0x2e0>
    7418:	eb0f90ef          	jal	ac8 <_writestr>
    741c:	0000006f          	j	741c <handler_irq_timer+0x50>

00007420 <init>:
    7420:	00000513          	li	a0,0
    7424:	00008067          	ret

00007428 <_close>:
    7428:	fff00513          	li	a0,-1
    742c:	00008067          	ret

00007430 <_exit>:
    7430:	200007b7          	lui	a5,0x20000
    7434:	00a7a223          	sw	a0,4(a5) # 20000004 <_sp+0x1ffd6054>
    7438:	00100713          	li	a4,1
    743c:	00e78023          	sb	a4,0(a5)
    7440:	10500073          	wfi

00007444 <_fstat>:
    7444:	000027b7          	lui	a5,0x2
    7448:	00f5a223          	sw	a5,4(a1)
    744c:	00000513          	li	a0,0
    7450:	00008067          	ret

00007454 <_isatty>:
    7454:	fff50513          	addi	a0,a0,-1
    7458:	00153513          	seqz	a0,a0
    745c:	00008067          	ret

00007460 <_lseek>:
    7460:	00000513          	li	a0,0
    7464:	00008067          	ret

00007468 <_read>:
    7468:	00000513          	li	a0,0
    746c:	00008067          	ret

00007470 <_write_r>:
    7470:	ff010113          	addi	sp,sp,-16
    7474:	00112623          	sw	ra,12(sp)
    7478:	00058513          	mv	a0,a1
    747c:	00060593          	mv	a1,a2
    7480:	00068613          	mv	a2,a3
    7484:	96cf90ef          	jal	5f0 <_write>
    7488:	00c12083          	lw	ra,12(sp)
    748c:	01010113          	addi	sp,sp,16
    7490:	00008067          	ret

00007494 <_sbrk>:
    7494:	00050713          	mv	a4,a0
    7498:	ba818693          	addi	a3,gp,-1112 # 21fac <__BSS_END__>
    749c:	000267b7          	lui	a5,0x26
    74a0:	fac78793          	addi	a5,a5,-84 # 25fac <__heap_end>
    74a4:	02f68c63          	beq	a3,a5,74dc <_sbrk+0x48>
    74a8:	94c1a503          	lw	a0,-1716(gp) # 21d50 <brk>
    74ac:	00e50733          	add	a4,a0,a4
    74b0:	00d737b3          	sltu	a5,a4,a3
    74b4:	0017b793          	seqz	a5,a5
    74b8:	000266b7          	lui	a3,0x26
    74bc:	fac68693          	addi	a3,a3,-84 # 25fac <__heap_end>
    74c0:	00d736b3          	sltu	a3,a4,a3
    74c4:	00d7f7b3          	and	a5,a5,a3
    74c8:	00079663          	bnez	a5,74d4 <_sbrk+0x40>
    74cc:	fff00513          	li	a0,-1
    74d0:	00008067          	ret
    74d4:	94e1a623          	sw	a4,-1716(gp) # 21d50 <brk>
    74d8:	00008067          	ret
    74dc:	00000513          	li	a0,0
    74e0:	00008067          	ret

000074e4 <spi_intr_handler_event_flash>:
    74e4:	000227b7          	lui	a5,0x22
    74e8:	c147a703          	lw	a4,-1004(a5) # 21c14 <peripherals+0x10>
    74ec:	00200793          	li	a5,2
    74f0:	00f70463          	beq	a4,a5,74f8 <spi_intr_handler_event_flash+0x14>
    74f4:	00008067          	ret
    74f8:	ff010113          	addi	sp,sp,-16
    74fc:	00112623          	sw	ra,12(sp)
    7500:	00050593          	mv	a1,a0
    7504:	00022537          	lui	a0,0x22
    7508:	c0450513          	addi	a0,a0,-1020 # 21c04 <peripherals>
    750c:	9e4f90ef          	jal	6f0 <spi_event_handler>
    7510:	00c12083          	lw	ra,12(sp)
    7514:	01010113          	addi	sp,sp,16
    7518:	00008067          	ret

0000751c <spi_intr_handler_error_flash>:
    751c:	000227b7          	lui	a5,0x22
    7520:	c147a703          	lw	a4,-1004(a5) # 21c14 <peripherals+0x10>
    7524:	00200793          	li	a5,2
    7528:	00f70463          	beq	a4,a5,7530 <spi_intr_handler_error_flash+0x14>
    752c:	00008067          	ret
    7530:	ff010113          	addi	sp,sp,-16
    7534:	00112623          	sw	ra,12(sp)
    7538:	00050593          	mv	a1,a0
    753c:	00022537          	lui	a0,0x22
    7540:	c0450513          	addi	a0,a0,-1020 # 21c04 <peripherals>
    7544:	bd4f90ef          	jal	918 <spi_error_handler>
    7548:	00c12083          	lw	ra,12(sp)
    754c:	01010113          	addi	sp,sp,16
    7550:	00008067          	ret

00007554 <fic_irq_spi_flash>:
    7554:	fe010113          	addi	sp,sp,-32
    7558:	00112e23          	sw	ra,28(sp)
    755c:	200207b7          	lui	a5,0x20020
    7560:	0347a503          	lw	a0,52(a5) # 20020034 <_sp+0x1fff6084>
    7564:	03f57513          	andi	a0,a0,63
    7568:	00050a63          	beqz	a0,757c <fic_irq_spi_flash+0x28>
    756c:	fb1ff0ef          	jal	751c <spi_intr_handler_error_flash>
    7570:	01c12083          	lw	ra,28(sp)
    7574:	02010113          	addi	sp,sp,32
    7578:	00008067          	ret
    757c:	20020737          	lui	a4,0x20020
    7580:	00072783          	lw	a5,0(a4) # 20020000 <_sp+0x1fff6050>
    7584:	0027e793          	ori	a5,a5,2
    7588:	00f72023          	sw	a5,0(a4)
    758c:	00c10593          	addi	a1,sp,12
    7590:	00070513          	mv	a0,a4
    7594:	fcdf80ef          	jal	560 <spi_get_events>
    7598:	00c12503          	lw	a0,12(sp)
    759c:	f49ff0ef          	jal	74e4 <spi_intr_handler_event_flash>
    75a0:	fd1ff06f          	j	7570 <fic_irq_spi_flash+0x1c>

000075a4 <handler_irq_fast_spi_flash>:
    75a4:	fc010113          	addi	sp,sp,-64
    75a8:	02112e23          	sw	ra,60(sp)
    75ac:	02512c23          	sw	t0,56(sp)
    75b0:	02612a23          	sw	t1,52(sp)
    75b4:	02712823          	sw	t2,48(sp)
    75b8:	02a12623          	sw	a0,44(sp)
    75bc:	02b12423          	sw	a1,40(sp)
    75c0:	02c12223          	sw	a2,36(sp)
    75c4:	02d12023          	sw	a3,32(sp)
    75c8:	00e12e23          	sw	a4,28(sp)
    75cc:	00f12c23          	sw	a5,24(sp)
    75d0:	01012a23          	sw	a6,20(sp)
    75d4:	01112823          	sw	a7,16(sp)
    75d8:	01c12623          	sw	t3,12(sp)
    75dc:	01d12423          	sw	t4,8(sp)
    75e0:	01e12223          	sw	t5,4(sp)
    75e4:	01f12023          	sw	t6,0(sp)
    75e8:	200607b7          	lui	a5,0x20060
    75ec:	02000713          	li	a4,32
    75f0:	00e7a223          	sw	a4,4(a5) # 20060004 <_sp+0x20036054>
    75f4:	f61ff0ef          	jal	7554 <fic_irq_spi_flash>
    75f8:	03c12083          	lw	ra,60(sp)
    75fc:	03812283          	lw	t0,56(sp)
    7600:	03412303          	lw	t1,52(sp)
    7604:	03012383          	lw	t2,48(sp)
    7608:	02c12503          	lw	a0,44(sp)
    760c:	02812583          	lw	a1,40(sp)
    7610:	02412603          	lw	a2,36(sp)
    7614:	02012683          	lw	a3,32(sp)
    7618:	01c12703          	lw	a4,28(sp)
    761c:	01812783          	lw	a5,24(sp)
    7620:	01412803          	lw	a6,20(sp)
    7624:	01012883          	lw	a7,16(sp)
    7628:	00c12e03          	lw	t3,12(sp)
    762c:	00812e83          	lw	t4,8(sp)
    7630:	00412f03          	lw	t5,4(sp)
    7634:	00012f83          	lw	t6,0(sp)
    7638:	04010113          	addi	sp,sp,64
    763c:	30200073          	mret

00007640 <spi_intr_handler_event_host>:
    7640:	000227b7          	lui	a5,0x22
    7644:	c5c7a703          	lw	a4,-932(a5) # 21c5c <peripherals+0x58>
    7648:	00200793          	li	a5,2
    764c:	00f70463          	beq	a4,a5,7654 <spi_intr_handler_event_host+0x14>
    7650:	00008067          	ret
    7654:	ff010113          	addi	sp,sp,-16
    7658:	00112623          	sw	ra,12(sp)
    765c:	00050593          	mv	a1,a0
    7660:	00022537          	lui	a0,0x22
    7664:	c4c50513          	addi	a0,a0,-948 # 21c4c <peripherals+0x48>
    7668:	888f90ef          	jal	6f0 <spi_event_handler>
    766c:	00c12083          	lw	ra,12(sp)
    7670:	01010113          	addi	sp,sp,16
    7674:	00008067          	ret

00007678 <spi_intr_handler_error_host>:
    7678:	000227b7          	lui	a5,0x22
    767c:	c5c7a703          	lw	a4,-932(a5) # 21c5c <peripherals+0x58>
    7680:	00200793          	li	a5,2
    7684:	00f70463          	beq	a4,a5,768c <spi_intr_handler_error_host+0x14>
    7688:	00008067          	ret
    768c:	ff010113          	addi	sp,sp,-16
    7690:	00112623          	sw	ra,12(sp)
    7694:	00050593          	mv	a1,a0
    7698:	00022537          	lui	a0,0x22
    769c:	c4c50513          	addi	a0,a0,-948 # 21c4c <peripherals+0x48>
    76a0:	a78f90ef          	jal	918 <spi_error_handler>
    76a4:	00c12083          	lw	ra,12(sp)
    76a8:	01010113          	addi	sp,sp,16
    76ac:	00008067          	ret

000076b0 <fic_irq_spi>:
    76b0:	fe010113          	addi	sp,sp,-32
    76b4:	00112e23          	sw	ra,28(sp)
    76b8:	300107b7          	lui	a5,0x30010
    76bc:	0347a503          	lw	a0,52(a5) # 30010034 <_sp+0x2ffe6084>
    76c0:	03f57513          	andi	a0,a0,63
    76c4:	00050a63          	beqz	a0,76d8 <fic_irq_spi+0x28>
    76c8:	fb1ff0ef          	jal	7678 <spi_intr_handler_error_host>
    76cc:	01c12083          	lw	ra,28(sp)
    76d0:	02010113          	addi	sp,sp,32
    76d4:	00008067          	ret
    76d8:	30010737          	lui	a4,0x30010
    76dc:	00072783          	lw	a5,0(a4) # 30010000 <_sp+0x2ffe6050>
    76e0:	0027e793          	ori	a5,a5,2
    76e4:	00f72023          	sw	a5,0(a4)
    76e8:	00c10593          	addi	a1,sp,12
    76ec:	00070513          	mv	a0,a4
    76f0:	e71f80ef          	jal	560 <spi_get_events>
    76f4:	00c12503          	lw	a0,12(sp)
    76f8:	f49ff0ef          	jal	7640 <spi_intr_handler_event_host>
    76fc:	fd1ff06f          	j	76cc <fic_irq_spi+0x1c>

00007700 <handler_irq_fast_spi>:
    7700:	fc010113          	addi	sp,sp,-64
    7704:	02112e23          	sw	ra,60(sp)
    7708:	02512c23          	sw	t0,56(sp)
    770c:	02612a23          	sw	t1,52(sp)
    7710:	02712823          	sw	t2,48(sp)
    7714:	02a12623          	sw	a0,44(sp)
    7718:	02b12423          	sw	a1,40(sp)
    771c:	02c12223          	sw	a2,36(sp)
    7720:	02d12023          	sw	a3,32(sp)
    7724:	00e12e23          	sw	a4,28(sp)
    7728:	00f12c23          	sw	a5,24(sp)
    772c:	01012a23          	sw	a6,20(sp)
    7730:	01112823          	sw	a7,16(sp)
    7734:	01c12623          	sw	t3,12(sp)
    7738:	01d12423          	sw	t4,8(sp)
    773c:	01e12223          	sw	t5,4(sp)
    7740:	01f12023          	sw	t6,0(sp)
    7744:	200607b7          	lui	a5,0x20060
    7748:	01000713          	li	a4,16
    774c:	00e7a223          	sw	a4,4(a5) # 20060004 <_sp+0x20036054>
    7750:	f61ff0ef          	jal	76b0 <fic_irq_spi>
    7754:	03c12083          	lw	ra,60(sp)
    7758:	03812283          	lw	t0,56(sp)
    775c:	03412303          	lw	t1,52(sp)
    7760:	03012383          	lw	t2,48(sp)
    7764:	02c12503          	lw	a0,44(sp)
    7768:	02812583          	lw	a1,40(sp)
    776c:	02412603          	lw	a2,36(sp)
    7770:	02012683          	lw	a3,32(sp)
    7774:	01c12703          	lw	a4,28(sp)
    7778:	01812783          	lw	a5,24(sp)
    777c:	01412803          	lw	a6,20(sp)
    7780:	01012883          	lw	a7,16(sp)
    7784:	00c12e03          	lw	t3,12(sp)
    7788:	00812e83          	lw	t4,8(sp)
    778c:	00412f03          	lw	t5,4(sp)
    7790:	00012f83          	lw	t6,0(sp)
    7794:	04010113          	addi	sp,sp,64
    7798:	30200073          	mret

0000779c <atexit>:
    779c:	00050593          	mv	a1,a0
    77a0:	00000693          	li	a3,0
    77a4:	00000613          	li	a2,0
    77a8:	00000513          	li	a0,0
    77ac:	5400006f          	j	7cec <__register_exitproc>

000077b0 <std>:
    77b0:	ff010113          	addi	sp,sp,-16
    77b4:	00812423          	sw	s0,8(sp)
    77b8:	00112623          	sw	ra,12(sp)
    77bc:	00050413          	mv	s0,a0
    77c0:	00b51623          	sh	a1,12(a0)
    77c4:	00c51723          	sh	a2,14(a0)
    77c8:	00052023          	sw	zero,0(a0)
    77cc:	00052223          	sw	zero,4(a0)
    77d0:	00052423          	sw	zero,8(a0)
    77d4:	06052223          	sw	zero,100(a0)
    77d8:	00052823          	sw	zero,16(a0)
    77dc:	00052a23          	sw	zero,20(a0)
    77e0:	00052c23          	sw	zero,24(a0)
    77e4:	00800613          	li	a2,8
    77e8:	00000593          	li	a1,0
    77ec:	05c50513          	addi	a0,a0,92
    77f0:	4e0000ef          	jal	7cd0 <memset>
    77f4:	000087b7          	lui	a5,0x8
    77f8:	9c878793          	addi	a5,a5,-1592 # 79c8 <__sread>
    77fc:	02f42223          	sw	a5,36(s0)
    7800:	000087b7          	lui	a5,0x8
    7804:	a1878793          	addi	a5,a5,-1512 # 7a18 <__swrite>
    7808:	02f42423          	sw	a5,40(s0)
    780c:	000087b7          	lui	a5,0x8
    7810:	a9c78793          	addi	a5,a5,-1380 # 7a9c <__sseek>
    7814:	02f42623          	sw	a5,44(s0)
    7818:	000087b7          	lui	a5,0x8
    781c:	af478793          	addi	a5,a5,-1292 # 7af4 <__sclose>
    7820:	00c12083          	lw	ra,12(sp)
    7824:	02842023          	sw	s0,32(s0)
    7828:	02f42823          	sw	a5,48(s0)
    782c:	00812403          	lw	s0,8(sp)
    7830:	01010113          	addi	sp,sp,16
    7834:	00008067          	ret

00007838 <stdio_exit_handler>:
    7838:	000085b7          	lui	a1,0x8
    783c:	8d818613          	addi	a2,gp,-1832 # 21cdc <__sglue>
    7840:	3d858593          	addi	a1,a1,984 # 83d8 <_fflush_r>
    7844:	8e418513          	addi	a0,gp,-1820 # 21ce8 <_impure_data>
    7848:	0d80006f          	j	7920 <_fwalk_sglue>

0000784c <cleanup_stdio>:
    784c:	00452583          	lw	a1,4(a0)
    7850:	ff010113          	addi	sp,sp,-16
    7854:	00812423          	sw	s0,8(sp)
    7858:	00112623          	sw	ra,12(sp)
    785c:	9a818793          	addi	a5,gp,-1624 # 21dac <__sf>
    7860:	00050413          	mv	s0,a0
    7864:	00f58463          	beq	a1,a5,786c <cleanup_stdio+0x20>
    7868:	371000ef          	jal	83d8 <_fflush_r>
    786c:	00842583          	lw	a1,8(s0)
    7870:	a1018793          	addi	a5,gp,-1520 # 21e14 <__sf+0x68>
    7874:	00f58663          	beq	a1,a5,7880 <cleanup_stdio+0x34>
    7878:	00040513          	mv	a0,s0
    787c:	35d000ef          	jal	83d8 <_fflush_r>
    7880:	00c42583          	lw	a1,12(s0)
    7884:	a7818793          	addi	a5,gp,-1416 # 21e7c <__sf+0xd0>
    7888:	00f58c63          	beq	a1,a5,78a0 <cleanup_stdio+0x54>
    788c:	00040513          	mv	a0,s0
    7890:	00812403          	lw	s0,8(sp)
    7894:	00c12083          	lw	ra,12(sp)
    7898:	01010113          	addi	sp,sp,16
    789c:	33d0006f          	j	83d8 <_fflush_r>
    78a0:	00c12083          	lw	ra,12(sp)
    78a4:	00812403          	lw	s0,8(sp)
    78a8:	01010113          	addi	sp,sp,16
    78ac:	00008067          	ret

000078b0 <global_stdio_init.part.0>:
    78b0:	000087b7          	lui	a5,0x8
    78b4:	ff010113          	addi	sp,sp,-16
    78b8:	83878793          	addi	a5,a5,-1992 # 7838 <stdio_exit_handler>
    78bc:	00000613          	li	a2,0
    78c0:	00400593          	li	a1,4
    78c4:	9a818513          	addi	a0,gp,-1624 # 21dac <__sf>
    78c8:	00112623          	sw	ra,12(sp)
    78cc:	94f1aa23          	sw	a5,-1708(gp) # 21d58 <__stdio_exit_handler>
    78d0:	ee1ff0ef          	jal	77b0 <std>
    78d4:	00100613          	li	a2,1
    78d8:	00900593          	li	a1,9
    78dc:	a1018513          	addi	a0,gp,-1520 # 21e14 <__sf+0x68>
    78e0:	ed1ff0ef          	jal	77b0 <std>
    78e4:	00c12083          	lw	ra,12(sp)
    78e8:	00200613          	li	a2,2
    78ec:	01200593          	li	a1,18
    78f0:	a7818513          	addi	a0,gp,-1416 # 21e7c <__sf+0xd0>
    78f4:	01010113          	addi	sp,sp,16
    78f8:	eb9ff06f          	j	77b0 <std>

000078fc <__sinit>:
    78fc:	02052783          	lw	a5,32(a0)
    7900:	00079e63          	bnez	a5,791c <__sinit+0x20>
    7904:	000087b7          	lui	a5,0x8
    7908:	84c78793          	addi	a5,a5,-1972 # 784c <cleanup_stdio>
    790c:	02f52023          	sw	a5,32(a0)
    7910:	9541a783          	lw	a5,-1708(gp) # 21d58 <__stdio_exit_handler>
    7914:	00079463          	bnez	a5,791c <__sinit+0x20>
    7918:	f99ff06f          	j	78b0 <global_stdio_init.part.0>
    791c:	00008067          	ret

00007920 <_fwalk_sglue>:
    7920:	fd010113          	addi	sp,sp,-48
    7924:	02812423          	sw	s0,40(sp)
    7928:	03212023          	sw	s2,32(sp)
    792c:	01312e23          	sw	s3,28(sp)
    7930:	01412c23          	sw	s4,24(sp)
    7934:	01512a23          	sw	s5,20(sp)
    7938:	02112623          	sw	ra,44(sp)
    793c:	02912223          	sw	s1,36(sp)
    7940:	00050a13          	mv	s4,a0
    7944:	00058a93          	mv	s5,a1
    7948:	00000413          	li	s0,0
    794c:	00100913          	li	s2,1
    7950:	fff00993          	li	s3,-1
    7954:	00862583          	lw	a1,8(a2)
    7958:	00462483          	lw	s1,4(a2)
    795c:	fff48493          	addi	s1,s1,-1
    7960:	0204da63          	bgez	s1,7994 <_fwalk_sglue+0x74>
    7964:	00062603          	lw	a2,0(a2)
    7968:	fe0616e3          	bnez	a2,7954 <_fwalk_sglue+0x34>
    796c:	02c12083          	lw	ra,44(sp)
    7970:	00040513          	mv	a0,s0
    7974:	02812403          	lw	s0,40(sp)
    7978:	02412483          	lw	s1,36(sp)
    797c:	02012903          	lw	s2,32(sp)
    7980:	01c12983          	lw	s3,28(sp)
    7984:	01812a03          	lw	s4,24(sp)
    7988:	01412a83          	lw	s5,20(sp)
    798c:	03010113          	addi	sp,sp,48
    7990:	00008067          	ret
    7994:	00c5d783          	lhu	a5,12(a1)
    7998:	02f97463          	bgeu	s2,a5,79c0 <_fwalk_sglue+0xa0>
    799c:	00e59783          	lh	a5,14(a1)
    79a0:	03378063          	beq	a5,s3,79c0 <_fwalk_sglue+0xa0>
    79a4:	000a0513          	mv	a0,s4
    79a8:	00c12623          	sw	a2,12(sp)
    79ac:	00b12423          	sw	a1,8(sp)
    79b0:	000a80e7          	jalr	s5
    79b4:	00c12603          	lw	a2,12(sp)
    79b8:	00812583          	lw	a1,8(sp)
    79bc:	00a46433          	or	s0,s0,a0
    79c0:	06858593          	addi	a1,a1,104
    79c4:	f99ff06f          	j	795c <_fwalk_sglue+0x3c>

000079c8 <__sread>:
    79c8:	ff010113          	addi	sp,sp,-16
    79cc:	00812423          	sw	s0,8(sp)
    79d0:	00058413          	mv	s0,a1
    79d4:	00e59583          	lh	a1,14(a1)
    79d8:	00112623          	sw	ra,12(sp)
    79dc:	1b8000ef          	jal	7b94 <_read_r>
    79e0:	02054063          	bltz	a0,7a00 <__sread+0x38>
    79e4:	05442783          	lw	a5,84(s0)
    79e8:	00a787b3          	add	a5,a5,a0
    79ec:	04f42a23          	sw	a5,84(s0)
    79f0:	00c12083          	lw	ra,12(sp)
    79f4:	00812403          	lw	s0,8(sp)
    79f8:	01010113          	addi	sp,sp,16
    79fc:	00008067          	ret
    7a00:	00c45783          	lhu	a5,12(s0)
    7a04:	fffff737          	lui	a4,0xfffff
    7a08:	fff70713          	addi	a4,a4,-1 # ffffefff <_sp+0xfffd504f>
    7a0c:	00e7f7b3          	and	a5,a5,a4
    7a10:	00f41623          	sh	a5,12(s0)
    7a14:	fddff06f          	j	79f0 <__sread+0x28>

00007a18 <__swrite>:
    7a18:	00c5d783          	lhu	a5,12(a1)
    7a1c:	fe010113          	addi	sp,sp,-32
    7a20:	00812c23          	sw	s0,24(sp)
    7a24:	00912a23          	sw	s1,20(sp)
    7a28:	01212823          	sw	s2,16(sp)
    7a2c:	01312623          	sw	s3,12(sp)
    7a30:	00112e23          	sw	ra,28(sp)
    7a34:	1007f793          	andi	a5,a5,256
    7a38:	00050493          	mv	s1,a0
    7a3c:	00058413          	mv	s0,a1
    7a40:	00060913          	mv	s2,a2
    7a44:	00068993          	mv	s3,a3
    7a48:	00078a63          	beqz	a5,7a5c <__swrite+0x44>
    7a4c:	00e59583          	lh	a1,14(a1)
    7a50:	00200693          	li	a3,2
    7a54:	00000613          	li	a2,0
    7a58:	0ec000ef          	jal	7b44 <_lseek_r>
    7a5c:	00c45783          	lhu	a5,12(s0)
    7a60:	fffff737          	lui	a4,0xfffff
    7a64:	fff70713          	addi	a4,a4,-1 # ffffefff <_sp+0xfffd504f>
    7a68:	00e7f7b3          	and	a5,a5,a4
    7a6c:	00e41583          	lh	a1,14(s0)
    7a70:	00f41623          	sh	a5,12(s0)
    7a74:	01812403          	lw	s0,24(sp)
    7a78:	01c12083          	lw	ra,28(sp)
    7a7c:	00098693          	mv	a3,s3
    7a80:	00090613          	mv	a2,s2
    7a84:	00c12983          	lw	s3,12(sp)
    7a88:	01012903          	lw	s2,16(sp)
    7a8c:	00048513          	mv	a0,s1
    7a90:	01412483          	lw	s1,20(sp)
    7a94:	02010113          	addi	sp,sp,32
    7a98:	9d9ff06f          	j	7470 <_write_r>

00007a9c <__sseek>:
    7a9c:	ff010113          	addi	sp,sp,-16
    7aa0:	00812423          	sw	s0,8(sp)
    7aa4:	00058413          	mv	s0,a1
    7aa8:	00e59583          	lh	a1,14(a1)
    7aac:	00112623          	sw	ra,12(sp)
    7ab0:	094000ef          	jal	7b44 <_lseek_r>
    7ab4:	fff00713          	li	a4,-1
    7ab8:	00c41783          	lh	a5,12(s0)
    7abc:	02e51263          	bne	a0,a4,7ae0 <__sseek+0x44>
    7ac0:	fffff737          	lui	a4,0xfffff
    7ac4:	00a70733          	add	a4,a4,a0
    7ac8:	00e7f7b3          	and	a5,a5,a4
    7acc:	00f41623          	sh	a5,12(s0)
    7ad0:	00c12083          	lw	ra,12(sp)
    7ad4:	00812403          	lw	s0,8(sp)
    7ad8:	01010113          	addi	sp,sp,16
    7adc:	00008067          	ret
    7ae0:	00001737          	lui	a4,0x1
    7ae4:	00e7e7b3          	or	a5,a5,a4
    7ae8:	00f41623          	sh	a5,12(s0)
    7aec:	04a42a23          	sw	a0,84(s0)
    7af0:	fe1ff06f          	j	7ad0 <__sseek+0x34>

00007af4 <__sclose>:
    7af4:	00e59583          	lh	a1,14(a1)
    7af8:	0040006f          	j	7afc <_close_r>

00007afc <_close_r>:
    7afc:	ff010113          	addi	sp,sp,-16
    7b00:	00812423          	sw	s0,8(sp)
    7b04:	00912223          	sw	s1,4(sp)
    7b08:	00050493          	mv	s1,a0
    7b0c:	00058513          	mv	a0,a1
    7b10:	00112623          	sw	ra,12(sp)
    7b14:	9401ac23          	sw	zero,-1704(gp) # 21d5c <errno>
    7b18:	911ff0ef          	jal	7428 <_close>
    7b1c:	fff00793          	li	a5,-1
    7b20:	00f51863          	bne	a0,a5,7b30 <_close_r+0x34>
    7b24:	9581a783          	lw	a5,-1704(gp) # 21d5c <errno>
    7b28:	00078463          	beqz	a5,7b30 <_close_r+0x34>
    7b2c:	00f4a023          	sw	a5,0(s1)
    7b30:	00c12083          	lw	ra,12(sp)
    7b34:	00812403          	lw	s0,8(sp)
    7b38:	00412483          	lw	s1,4(sp)
    7b3c:	01010113          	addi	sp,sp,16
    7b40:	00008067          	ret

00007b44 <_lseek_r>:
    7b44:	ff010113          	addi	sp,sp,-16
    7b48:	00812423          	sw	s0,8(sp)
    7b4c:	00912223          	sw	s1,4(sp)
    7b50:	00050493          	mv	s1,a0
    7b54:	00058513          	mv	a0,a1
    7b58:	00060593          	mv	a1,a2
    7b5c:	00068613          	mv	a2,a3
    7b60:	00112623          	sw	ra,12(sp)
    7b64:	9401ac23          	sw	zero,-1704(gp) # 21d5c <errno>
    7b68:	8f9ff0ef          	jal	7460 <_lseek>
    7b6c:	fff00793          	li	a5,-1
    7b70:	00f51863          	bne	a0,a5,7b80 <_lseek_r+0x3c>
    7b74:	9581a783          	lw	a5,-1704(gp) # 21d5c <errno>
    7b78:	00078463          	beqz	a5,7b80 <_lseek_r+0x3c>
    7b7c:	00f4a023          	sw	a5,0(s1)
    7b80:	00c12083          	lw	ra,12(sp)
    7b84:	00812403          	lw	s0,8(sp)
    7b88:	00412483          	lw	s1,4(sp)
    7b8c:	01010113          	addi	sp,sp,16
    7b90:	00008067          	ret

00007b94 <_read_r>:
    7b94:	ff010113          	addi	sp,sp,-16
    7b98:	00812423          	sw	s0,8(sp)
    7b9c:	00912223          	sw	s1,4(sp)
    7ba0:	00050493          	mv	s1,a0
    7ba4:	00058513          	mv	a0,a1
    7ba8:	00060593          	mv	a1,a2
    7bac:	00068613          	mv	a2,a3
    7bb0:	00112623          	sw	ra,12(sp)
    7bb4:	9401ac23          	sw	zero,-1704(gp) # 21d5c <errno>
    7bb8:	8b1ff0ef          	jal	7468 <_read>
    7bbc:	fff00793          	li	a5,-1
    7bc0:	00f51863          	bne	a0,a5,7bd0 <_read_r+0x3c>
    7bc4:	9581a783          	lw	a5,-1704(gp) # 21d5c <errno>
    7bc8:	00078463          	beqz	a5,7bd0 <_read_r+0x3c>
    7bcc:	00f4a023          	sw	a5,0(s1)
    7bd0:	00c12083          	lw	ra,12(sp)
    7bd4:	00812403          	lw	s0,8(sp)
    7bd8:	00412483          	lw	s1,4(sp)
    7bdc:	01010113          	addi	sp,sp,16
    7be0:	00008067          	ret

00007be4 <__libc_init_array>:
    7be4:	ff010113          	addi	sp,sp,-16
    7be8:	00812423          	sw	s0,8(sp)
    7bec:	00912223          	sw	s1,4(sp)
    7bf0:	00022437          	lui	s0,0x22
    7bf4:	000224b7          	lui	s1,0x22
    7bf8:	c0440413          	addi	s0,s0,-1020 # 21c04 <peripherals>
    7bfc:	c0448493          	addi	s1,s1,-1020 # 21c04 <peripherals>
    7c00:	408484b3          	sub	s1,s1,s0
    7c04:	01212023          	sw	s2,0(sp)
    7c08:	00112623          	sw	ra,12(sp)
    7c0c:	4024d493          	srai	s1,s1,0x2
    7c10:	00000913          	li	s2,0
    7c14:	02991e63          	bne	s2,s1,7c50 <__libc_init_array+0x6c>
    7c18:	00022437          	lui	s0,0x22
    7c1c:	000224b7          	lui	s1,0x22
    7c20:	c0440413          	addi	s0,s0,-1020 # 21c04 <peripherals>
    7c24:	c0448493          	addi	s1,s1,-1020 # 21c04 <peripherals>
    7c28:	408484b3          	sub	s1,s1,s0
    7c2c:	4024d493          	srai	s1,s1,0x2
    7c30:	00000913          	li	s2,0
    7c34:	02991863          	bne	s2,s1,7c64 <__libc_init_array+0x80>
    7c38:	00c12083          	lw	ra,12(sp)
    7c3c:	00812403          	lw	s0,8(sp)
    7c40:	00412483          	lw	s1,4(sp)
    7c44:	00012903          	lw	s2,0(sp)
    7c48:	01010113          	addi	sp,sp,16
    7c4c:	00008067          	ret
    7c50:	00042783          	lw	a5,0(s0)
    7c54:	00190913          	addi	s2,s2,1
    7c58:	00440413          	addi	s0,s0,4
    7c5c:	000780e7          	jalr	a5
    7c60:	fb5ff06f          	j	7c14 <__libc_init_array+0x30>
    7c64:	00042783          	lw	a5,0(s0)
    7c68:	00190913          	addi	s2,s2,1
    7c6c:	00440413          	addi	s0,s0,4
    7c70:	000780e7          	jalr	a5
    7c74:	fc1ff06f          	j	7c34 <__libc_init_array+0x50>

00007c78 <__libc_fini_array>:
    7c78:	ff010113          	addi	sp,sp,-16
    7c7c:	00812423          	sw	s0,8(sp)
    7c80:	00912223          	sw	s1,4(sp)
    7c84:	00022437          	lui	s0,0x22
    7c88:	000224b7          	lui	s1,0x22
    7c8c:	c0448493          	addi	s1,s1,-1020 # 21c04 <peripherals>
    7c90:	c0440413          	addi	s0,s0,-1020 # 21c04 <peripherals>
    7c94:	40940433          	sub	s0,s0,s1
    7c98:	00112623          	sw	ra,12(sp)
    7c9c:	40245413          	srai	s0,s0,0x2
    7ca0:	00041c63          	bnez	s0,7cb8 <__libc_fini_array+0x40>
    7ca4:	00c12083          	lw	ra,12(sp)
    7ca8:	00812403          	lw	s0,8(sp)
    7cac:	00412483          	lw	s1,4(sp)
    7cb0:	01010113          	addi	sp,sp,16
    7cb4:	00008067          	ret
    7cb8:	fff40413          	addi	s0,s0,-1
    7cbc:	00241793          	slli	a5,s0,0x2
    7cc0:	00f487b3          	add	a5,s1,a5
    7cc4:	0007a783          	lw	a5,0(a5)
    7cc8:	000780e7          	jalr	a5
    7ccc:	fd5ff06f          	j	7ca0 <__libc_fini_array+0x28>

00007cd0 <memset>:
    7cd0:	00050693          	mv	a3,a0
    7cd4:	00060a63          	beqz	a2,7ce8 <memset+0x18>
    7cd8:	00b68023          	sb	a1,0(a3)
    7cdc:	fff60613          	addi	a2,a2,-1
    7ce0:	00168693          	addi	a3,a3,1
    7ce4:	fe061ae3          	bnez	a2,7cd8 <memset+0x8>
    7ce8:	00008067          	ret

00007cec <__register_exitproc>:
    7cec:	95c1a783          	lw	a5,-1700(gp) # 21d60 <__atexit>
    7cf0:	00079e63          	bnez	a5,7d0c <__register_exitproc+0x20>
    7cf4:	ae018793          	addi	a5,gp,-1312 # 21ee4 <__atexit0>
    7cf8:	94f1ae23          	sw	a5,-1700(gp) # 21d60 <__atexit>
    7cfc:	00000813          	li	a6,0
    7d00:	00080663          	beqz	a6,7d0c <__register_exitproc+0x20>
    7d04:	00002703          	lw	a4,0(zero) # 0 <__vector_start>
    7d08:	08e7a423          	sw	a4,136(a5)
    7d0c:	0047a703          	lw	a4,4(a5)
    7d10:	01f00813          	li	a6,31
    7d14:	00e85663          	bge	a6,a4,7d20 <__register_exitproc+0x34>
    7d18:	fff00513          	li	a0,-1
    7d1c:	00008067          	ret
    7d20:	04050263          	beqz	a0,7d64 <__register_exitproc+0x78>
    7d24:	0887a803          	lw	a6,136(a5)
    7d28:	fe0808e3          	beqz	a6,7d18 <__register_exitproc+0x2c>
    7d2c:	00271893          	slli	a7,a4,0x2
    7d30:	011808b3          	add	a7,a6,a7
    7d34:	00c8a023          	sw	a2,0(a7)
    7d38:	10082303          	lw	t1,256(a6)
    7d3c:	00100613          	li	a2,1
    7d40:	00e61633          	sll	a2,a2,a4
    7d44:	00c36333          	or	t1,t1,a2
    7d48:	10682023          	sw	t1,256(a6)
    7d4c:	08d8a023          	sw	a3,128(a7)
    7d50:	00200693          	li	a3,2
    7d54:	00d51863          	bne	a0,a3,7d64 <__register_exitproc+0x78>
    7d58:	10482683          	lw	a3,260(a6)
    7d5c:	00c6e6b3          	or	a3,a3,a2
    7d60:	10d82223          	sw	a3,260(a6)
    7d64:	00170693          	addi	a3,a4,1 # 1001 <T3_start+0x305>
    7d68:	00271713          	slli	a4,a4,0x2
    7d6c:	00d7a223          	sw	a3,4(a5)
    7d70:	00e787b3          	add	a5,a5,a4
    7d74:	00b7a423          	sw	a1,8(a5)
    7d78:	00000513          	li	a0,0
    7d7c:	00008067          	ret

00007d80 <__call_exitprocs>:
    7d80:	fd010113          	addi	sp,sp,-48
    7d84:	01512a23          	sw	s5,20(sp)
    7d88:	01612823          	sw	s6,16(sp)
    7d8c:	01712623          	sw	s7,12(sp)
    7d90:	01912223          	sw	s9,4(sp)
    7d94:	02112623          	sw	ra,44(sp)
    7d98:	02812423          	sw	s0,40(sp)
    7d9c:	02912223          	sw	s1,36(sp)
    7da0:	03212023          	sw	s2,32(sp)
    7da4:	01312e23          	sw	s3,28(sp)
    7da8:	01412c23          	sw	s4,24(sp)
    7dac:	01812423          	sw	s8,8(sp)
    7db0:	00050c93          	mv	s9,a0
    7db4:	00058b13          	mv	s6,a1
    7db8:	00100b93          	li	s7,1
    7dbc:	95c1a483          	lw	s1,-1700(gp) # 21d60 <__atexit>
    7dc0:	02048063          	beqz	s1,7de0 <__call_exitprocs+0x60>
    7dc4:	0044a403          	lw	s0,4(s1)
    7dc8:	0884a983          	lw	s3,136(s1)
    7dcc:	fff40913          	addi	s2,s0,-1
    7dd0:	00241413          	slli	s0,s0,0x2
    7dd4:	00848a33          	add	s4,s1,s0
    7dd8:	00898433          	add	s0,s3,s0
    7ddc:	02095c63          	bgez	s2,7e14 <__call_exitprocs+0x94>
    7de0:	02c12083          	lw	ra,44(sp)
    7de4:	02812403          	lw	s0,40(sp)
    7de8:	02412483          	lw	s1,36(sp)
    7dec:	02012903          	lw	s2,32(sp)
    7df0:	01c12983          	lw	s3,28(sp)
    7df4:	01812a03          	lw	s4,24(sp)
    7df8:	01412a83          	lw	s5,20(sp)
    7dfc:	01012b03          	lw	s6,16(sp)
    7e00:	00c12b83          	lw	s7,12(sp)
    7e04:	00812c03          	lw	s8,8(sp)
    7e08:	00412c83          	lw	s9,4(sp)
    7e0c:	03010113          	addi	sp,sp,48
    7e10:	00008067          	ret
    7e14:	000b0863          	beqz	s6,7e24 <__call_exitprocs+0xa4>
    7e18:	04098663          	beqz	s3,7e64 <__call_exitprocs+0xe4>
    7e1c:	07c42783          	lw	a5,124(s0)
    7e20:	05679263          	bne	a5,s6,7e64 <__call_exitprocs+0xe4>
    7e24:	0044a703          	lw	a4,4(s1)
    7e28:	004a2783          	lw	a5,4(s4)
    7e2c:	fff70713          	addi	a4,a4,-1
    7e30:	05271263          	bne	a4,s2,7e74 <__call_exitprocs+0xf4>
    7e34:	0124a223          	sw	s2,4(s1)
    7e38:	02078663          	beqz	a5,7e64 <__call_exitprocs+0xe4>
    7e3c:	1009a683          	lw	a3,256(s3)
    7e40:	012b9733          	sll	a4,s7,s2
    7e44:	0044ac03          	lw	s8,4(s1)
    7e48:	00d776b3          	and	a3,a4,a3
    7e4c:	02069863          	bnez	a3,7e7c <__call_exitprocs+0xfc>
    7e50:	000780e7          	jalr	a5
    7e54:	0044a783          	lw	a5,4(s1)
    7e58:	f78792e3          	bne	a5,s8,7dbc <__call_exitprocs+0x3c>
    7e5c:	95c1a783          	lw	a5,-1700(gp) # 21d60 <__atexit>
    7e60:	f4f49ee3          	bne	s1,a5,7dbc <__call_exitprocs+0x3c>
    7e64:	fff90913          	addi	s2,s2,-1
    7e68:	ffca0a13          	addi	s4,s4,-4
    7e6c:	ffc40413          	addi	s0,s0,-4
    7e70:	f6dff06f          	j	7ddc <__call_exitprocs+0x5c>
    7e74:	000a2223          	sw	zero,4(s4)
    7e78:	fc1ff06f          	j	7e38 <__call_exitprocs+0xb8>
    7e7c:	1049a683          	lw	a3,260(s3)
    7e80:	ffc42583          	lw	a1,-4(s0)
    7e84:	00d77733          	and	a4,a4,a3
    7e88:	00071863          	bnez	a4,7e98 <__call_exitprocs+0x118>
    7e8c:	000c8513          	mv	a0,s9
    7e90:	000780e7          	jalr	a5
    7e94:	fc1ff06f          	j	7e54 <__call_exitprocs+0xd4>
    7e98:	00058513          	mv	a0,a1
    7e9c:	000780e7          	jalr	a5
    7ea0:	fb5ff06f          	j	7e54 <__call_exitprocs+0xd4>

00007ea4 <_free_r>:
    7ea4:	0e058a63          	beqz	a1,7f98 <_free_r+0xf4>
    7ea8:	ffc5a783          	lw	a5,-4(a1)
    7eac:	fe010113          	addi	sp,sp,-32
    7eb0:	00812c23          	sw	s0,24(sp)
    7eb4:	00112e23          	sw	ra,28(sp)
    7eb8:	ffc58413          	addi	s0,a1,-4
    7ebc:	0007d463          	bgez	a5,7ec4 <_free_r+0x20>
    7ec0:	00f40433          	add	s0,s0,a5
    7ec4:	00a12623          	sw	a0,12(sp)
    7ec8:	320000ef          	jal	81e8 <__malloc_lock>
    7ecc:	9641a783          	lw	a5,-1692(gp) # 21d68 <__malloc_free_list>
    7ed0:	00c12503          	lw	a0,12(sp)
    7ed4:	00079e63          	bnez	a5,7ef0 <_free_r+0x4c>
    7ed8:	00042223          	sw	zero,4(s0)
    7edc:	9681a223          	sw	s0,-1692(gp) # 21d68 <__malloc_free_list>
    7ee0:	01812403          	lw	s0,24(sp)
    7ee4:	01c12083          	lw	ra,28(sp)
    7ee8:	02010113          	addi	sp,sp,32
    7eec:	3000006f          	j	81ec <__malloc_unlock>
    7ef0:	02f47463          	bgeu	s0,a5,7f18 <_free_r+0x74>
    7ef4:	00042603          	lw	a2,0(s0)
    7ef8:	00c406b3          	add	a3,s0,a2
    7efc:	00d79a63          	bne	a5,a3,7f10 <_free_r+0x6c>
    7f00:	0007a683          	lw	a3,0(a5)
    7f04:	0047a783          	lw	a5,4(a5)
    7f08:	00c686b3          	add	a3,a3,a2
    7f0c:	00d42023          	sw	a3,0(s0)
    7f10:	00f42223          	sw	a5,4(s0)
    7f14:	fc9ff06f          	j	7edc <_free_r+0x38>
    7f18:	00078713          	mv	a4,a5
    7f1c:	0047a783          	lw	a5,4(a5)
    7f20:	00078463          	beqz	a5,7f28 <_free_r+0x84>
    7f24:	fef47ae3          	bgeu	s0,a5,7f18 <_free_r+0x74>
    7f28:	00072683          	lw	a3,0(a4)
    7f2c:	00d70633          	add	a2,a4,a3
    7f30:	02861863          	bne	a2,s0,7f60 <_free_r+0xbc>
    7f34:	00042603          	lw	a2,0(s0)
    7f38:	00c686b3          	add	a3,a3,a2
    7f3c:	00d72023          	sw	a3,0(a4)
    7f40:	00d70633          	add	a2,a4,a3
    7f44:	f8c79ee3          	bne	a5,a2,7ee0 <_free_r+0x3c>
    7f48:	0007a603          	lw	a2,0(a5)
    7f4c:	0047a783          	lw	a5,4(a5)
    7f50:	00d606b3          	add	a3,a2,a3
    7f54:	00d72023          	sw	a3,0(a4)
    7f58:	00f72223          	sw	a5,4(a4)
    7f5c:	f85ff06f          	j	7ee0 <_free_r+0x3c>
    7f60:	00c47863          	bgeu	s0,a2,7f70 <_free_r+0xcc>
    7f64:	00c00793          	li	a5,12
    7f68:	00f52023          	sw	a5,0(a0)
    7f6c:	f75ff06f          	j	7ee0 <_free_r+0x3c>
    7f70:	00042603          	lw	a2,0(s0)
    7f74:	00c406b3          	add	a3,s0,a2
    7f78:	00d79a63          	bne	a5,a3,7f8c <_free_r+0xe8>
    7f7c:	0007a683          	lw	a3,0(a5)
    7f80:	0047a783          	lw	a5,4(a5)
    7f84:	00c686b3          	add	a3,a3,a2
    7f88:	00d42023          	sw	a3,0(s0)
    7f8c:	00f42223          	sw	a5,4(s0)
    7f90:	00872223          	sw	s0,4(a4)
    7f94:	f4dff06f          	j	7ee0 <_free_r+0x3c>
    7f98:	00008067          	ret

00007f9c <sbrk_aligned>:
    7f9c:	ff010113          	addi	sp,sp,-16
    7fa0:	00812423          	sw	s0,8(sp)
    7fa4:	9601a783          	lw	a5,-1696(gp) # 21d64 <__malloc_sbrk_start>
    7fa8:	00912223          	sw	s1,4(sp)
    7fac:	01212023          	sw	s2,0(sp)
    7fb0:	00112623          	sw	ra,12(sp)
    7fb4:	00050913          	mv	s2,a0
    7fb8:	00058493          	mv	s1,a1
    7fbc:	00079863          	bnez	a5,7fcc <sbrk_aligned+0x30>
    7fc0:	00000593          	li	a1,0
    7fc4:	47c000ef          	jal	8440 <_sbrk_r>
    7fc8:	96a1a023          	sw	a0,-1696(gp) # 21d64 <__malloc_sbrk_start>
    7fcc:	00048593          	mv	a1,s1
    7fd0:	00090513          	mv	a0,s2
    7fd4:	46c000ef          	jal	8440 <_sbrk_r>
    7fd8:	fff00493          	li	s1,-1
    7fdc:	00050413          	mv	s0,a0
    7fe0:	02950263          	beq	a0,s1,8004 <sbrk_aligned+0x68>
    7fe4:	00350413          	addi	s0,a0,3
    7fe8:	ffc47413          	andi	s0,s0,-4
    7fec:	00850c63          	beq	a0,s0,8004 <sbrk_aligned+0x68>
    7ff0:	40a405b3          	sub	a1,s0,a0
    7ff4:	00090513          	mv	a0,s2
    7ff8:	448000ef          	jal	8440 <_sbrk_r>
    7ffc:	00951463          	bne	a0,s1,8004 <sbrk_aligned+0x68>
    8000:	00050413          	mv	s0,a0
    8004:	00c12083          	lw	ra,12(sp)
    8008:	00040513          	mv	a0,s0
    800c:	00812403          	lw	s0,8(sp)
    8010:	00412483          	lw	s1,4(sp)
    8014:	00012903          	lw	s2,0(sp)
    8018:	01010113          	addi	sp,sp,16
    801c:	00008067          	ret

00008020 <_malloc_r>:
    8020:	fe010113          	addi	sp,sp,-32
    8024:	00912a23          	sw	s1,20(sp)
    8028:	00358493          	addi	s1,a1,3
    802c:	ffc4f493          	andi	s1,s1,-4
    8030:	00112e23          	sw	ra,28(sp)
    8034:	00812c23          	sw	s0,24(sp)
    8038:	01212823          	sw	s2,16(sp)
    803c:	01312623          	sw	s3,12(sp)
    8040:	01412423          	sw	s4,8(sp)
    8044:	01512223          	sw	s5,4(sp)
    8048:	00848493          	addi	s1,s1,8
    804c:	00c00793          	li	a5,12
    8050:	00f4f463          	bgeu	s1,a5,8058 <_malloc_r+0x38>
    8054:	00078493          	mv	s1,a5
    8058:	0004c463          	bltz	s1,8060 <_malloc_r+0x40>
    805c:	02b4fc63          	bgeu	s1,a1,8094 <_malloc_r+0x74>
    8060:	00c00793          	li	a5,12
    8064:	00f52023          	sw	a5,0(a0)
    8068:	00000913          	li	s2,0
    806c:	01c12083          	lw	ra,28(sp)
    8070:	01812403          	lw	s0,24(sp)
    8074:	01412483          	lw	s1,20(sp)
    8078:	00c12983          	lw	s3,12(sp)
    807c:	00812a03          	lw	s4,8(sp)
    8080:	00412a83          	lw	s5,4(sp)
    8084:	00090513          	mv	a0,s2
    8088:	01012903          	lw	s2,16(sp)
    808c:	02010113          	addi	sp,sp,32
    8090:	00008067          	ret
    8094:	00050993          	mv	s3,a0
    8098:	150000ef          	jal	81e8 <__malloc_lock>
    809c:	9641a783          	lw	a5,-1692(gp) # 21d68 <__malloc_free_list>
    80a0:	00078413          	mv	s0,a5
    80a4:	08041063          	bnez	s0,8124 <_malloc_r+0x104>
    80a8:	00048593          	mv	a1,s1
    80ac:	00098513          	mv	a0,s3
    80b0:	eedff0ef          	jal	7f9c <sbrk_aligned>
    80b4:	fff00793          	li	a5,-1
    80b8:	00050413          	mv	s0,a0
    80bc:	12f51263          	bne	a0,a5,81e0 <_malloc_r+0x1c0>
    80c0:	9641a403          	lw	s0,-1692(gp) # 21d68 <__malloc_free_list>
    80c4:	00040913          	mv	s2,s0
    80c8:	0e091263          	bnez	s2,81ac <_malloc_r+0x18c>
    80cc:	10040063          	beqz	s0,81cc <_malloc_r+0x1ac>
    80d0:	00042a83          	lw	s5,0(s0)
    80d4:	00000593          	li	a1,0
    80d8:	00098513          	mv	a0,s3
    80dc:	01540ab3          	add	s5,s0,s5
    80e0:	360000ef          	jal	8440 <_sbrk_r>
    80e4:	0eaa9463          	bne	s5,a0,81cc <_malloc_r+0x1ac>
    80e8:	00042783          	lw	a5,0(s0)
    80ec:	00098513          	mv	a0,s3
    80f0:	40f484b3          	sub	s1,s1,a5
    80f4:	00048593          	mv	a1,s1
    80f8:	ea5ff0ef          	jal	7f9c <sbrk_aligned>
    80fc:	fff00793          	li	a5,-1
    8100:	0cf50663          	beq	a0,a5,81cc <_malloc_r+0x1ac>
    8104:	00042783          	lw	a5,0(s0)
    8108:	009787b3          	add	a5,a5,s1
    810c:	00f42023          	sw	a5,0(s0)
    8110:	9641a783          	lw	a5,-1692(gp) # 21d68 <__malloc_free_list>
    8114:	0047a703          	lw	a4,4(a5)
    8118:	0a071063          	bnez	a4,81b8 <_malloc_r+0x198>
    811c:	9601a223          	sw	zero,-1692(gp) # 21d68 <__malloc_free_list>
    8120:	0340006f          	j	8154 <_malloc_r+0x134>
    8124:	00042683          	lw	a3,0(s0)
    8128:	409686b3          	sub	a3,a3,s1
    812c:	0606ca63          	bltz	a3,81a0 <_malloc_r+0x180>
    8130:	00b00713          	li	a4,11
    8134:	04d77a63          	bgeu	a4,a3,8188 <_malloc_r+0x168>
    8138:	00942023          	sw	s1,0(s0)
    813c:	00940733          	add	a4,s0,s1
    8140:	04879063          	bne	a5,s0,8180 <_malloc_r+0x160>
    8144:	96e1a223          	sw	a4,-1692(gp) # 21d68 <__malloc_free_list>
    8148:	00442783          	lw	a5,4(s0)
    814c:	00d72023          	sw	a3,0(a4)
    8150:	00f72223          	sw	a5,4(a4)
    8154:	00098513          	mv	a0,s3
    8158:	094000ef          	jal	81ec <__malloc_unlock>
    815c:	00b40913          	addi	s2,s0,11
    8160:	00440793          	addi	a5,s0,4
    8164:	ff897913          	andi	s2,s2,-8
    8168:	40f90733          	sub	a4,s2,a5
    816c:	f0f900e3          	beq	s2,a5,806c <_malloc_r+0x4c>
    8170:	00e40433          	add	s0,s0,a4
    8174:	412787b3          	sub	a5,a5,s2
    8178:	00f42023          	sw	a5,0(s0)
    817c:	ef1ff06f          	j	806c <_malloc_r+0x4c>
    8180:	00e7a223          	sw	a4,4(a5)
    8184:	fc5ff06f          	j	8148 <_malloc_r+0x128>
    8188:	00442703          	lw	a4,4(s0)
    818c:	00879663          	bne	a5,s0,8198 <_malloc_r+0x178>
    8190:	96e1a223          	sw	a4,-1692(gp) # 21d68 <__malloc_free_list>
    8194:	fc1ff06f          	j	8154 <_malloc_r+0x134>
    8198:	00e7a223          	sw	a4,4(a5)
    819c:	fb9ff06f          	j	8154 <_malloc_r+0x134>
    81a0:	00040793          	mv	a5,s0
    81a4:	00442403          	lw	s0,4(s0)
    81a8:	efdff06f          	j	80a4 <_malloc_r+0x84>
    81ac:	00090413          	mv	s0,s2
    81b0:	00492903          	lw	s2,4(s2)
    81b4:	f15ff06f          	j	80c8 <_malloc_r+0xa8>
    81b8:	00078713          	mv	a4,a5
    81bc:	0047a783          	lw	a5,4(a5)
    81c0:	fe879ce3          	bne	a5,s0,81b8 <_malloc_r+0x198>
    81c4:	00072223          	sw	zero,4(a4)
    81c8:	f8dff06f          	j	8154 <_malloc_r+0x134>
    81cc:	00c00793          	li	a5,12
    81d0:	00f9a023          	sw	a5,0(s3)
    81d4:	00098513          	mv	a0,s3
    81d8:	014000ef          	jal	81ec <__malloc_unlock>
    81dc:	e91ff06f          	j	806c <_malloc_r+0x4c>
    81e0:	00952023          	sw	s1,0(a0)
    81e4:	f71ff06f          	j	8154 <_malloc_r+0x134>

000081e8 <__malloc_lock>:
    81e8:	00008067          	ret

000081ec <__malloc_unlock>:
    81ec:	00008067          	ret

000081f0 <__sflush_r>:
    81f0:	00c59783          	lh	a5,12(a1)
    81f4:	fe010113          	addi	sp,sp,-32
    81f8:	00812c23          	sw	s0,24(sp)
    81fc:	00912a23          	sw	s1,20(sp)
    8200:	00112e23          	sw	ra,28(sp)
    8204:	01212823          	sw	s2,16(sp)
    8208:	0087f713          	andi	a4,a5,8
    820c:	00050493          	mv	s1,a0
    8210:	00058413          	mv	s0,a1
    8214:	14071c63          	bnez	a4,836c <__sflush_r+0x17c>
    8218:	0045a703          	lw	a4,4(a1)
    821c:	00e04663          	bgtz	a4,8228 <__sflush_r+0x38>
    8220:	0405a703          	lw	a4,64(a1)
    8224:	00e05663          	blez	a4,8230 <__sflush_r+0x40>
    8228:	02c42703          	lw	a4,44(s0)
    822c:	02071063          	bnez	a4,824c <__sflush_r+0x5c>
    8230:	00000513          	li	a0,0
    8234:	01c12083          	lw	ra,28(sp)
    8238:	01812403          	lw	s0,24(sp)
    823c:	01412483          	lw	s1,20(sp)
    8240:	01012903          	lw	s2,16(sp)
    8244:	02010113          	addi	sp,sp,32
    8248:	00008067          	ret
    824c:	0004a903          	lw	s2,0(s1)
    8250:	01379693          	slli	a3,a5,0x13
    8254:	0004a023          	sw	zero,0(s1)
    8258:	0a06de63          	bgez	a3,8314 <__sflush_r+0x124>
    825c:	05442503          	lw	a0,84(s0)
    8260:	00c45783          	lhu	a5,12(s0)
    8264:	0047f793          	andi	a5,a5,4
    8268:	00078e63          	beqz	a5,8284 <__sflush_r+0x94>
    826c:	00442783          	lw	a5,4(s0)
    8270:	40f50533          	sub	a0,a0,a5
    8274:	03442783          	lw	a5,52(s0)
    8278:	00078663          	beqz	a5,8284 <__sflush_r+0x94>
    827c:	04042783          	lw	a5,64(s0)
    8280:	40f50533          	sub	a0,a0,a5
    8284:	02c42783          	lw	a5,44(s0)
    8288:	02042583          	lw	a1,32(s0)
    828c:	00050613          	mv	a2,a0
    8290:	00000693          	li	a3,0
    8294:	00048513          	mv	a0,s1
    8298:	000780e7          	jalr	a5
    829c:	fff00793          	li	a5,-1
    82a0:	00c41703          	lh	a4,12(s0)
    82a4:	02f51263          	bne	a0,a5,82c8 <__sflush_r+0xd8>
    82a8:	0004a683          	lw	a3,0(s1)
    82ac:	01d00793          	li	a5,29
    82b0:	0ad7e863          	bltu	a5,a3,8360 <__sflush_r+0x170>
    82b4:	204007b7          	lui	a5,0x20400
    82b8:	00178793          	addi	a5,a5,1 # 20400001 <_sp+0x203d6051>
    82bc:	00d7d7b3          	srl	a5,a5,a3
    82c0:	0017f793          	andi	a5,a5,1
    82c4:	08078e63          	beqz	a5,8360 <__sflush_r+0x170>
    82c8:	01042783          	lw	a5,16(s0)
    82cc:	00042223          	sw	zero,4(s0)
    82d0:	00f42023          	sw	a5,0(s0)
    82d4:	01371793          	slli	a5,a4,0x13
    82d8:	0007dc63          	bgez	a5,82f0 <__sflush_r+0x100>
    82dc:	fff00793          	li	a5,-1
    82e0:	00f51663          	bne	a0,a5,82ec <__sflush_r+0xfc>
    82e4:	0004a783          	lw	a5,0(s1)
    82e8:	00079463          	bnez	a5,82f0 <__sflush_r+0x100>
    82ec:	04a42a23          	sw	a0,84(s0)
    82f0:	03442583          	lw	a1,52(s0)
    82f4:	0124a023          	sw	s2,0(s1)
    82f8:	f2058ce3          	beqz	a1,8230 <__sflush_r+0x40>
    82fc:	04440793          	addi	a5,s0,68
    8300:	00f58663          	beq	a1,a5,830c <__sflush_r+0x11c>
    8304:	00048513          	mv	a0,s1
    8308:	b9dff0ef          	jal	7ea4 <_free_r>
    830c:	02042a23          	sw	zero,52(s0)
    8310:	f21ff06f          	j	8230 <__sflush_r+0x40>
    8314:	02042583          	lw	a1,32(s0)
    8318:	00100693          	li	a3,1
    831c:	00000613          	li	a2,0
    8320:	00048513          	mv	a0,s1
    8324:	000700e7          	jalr	a4
    8328:	fff00793          	li	a5,-1
    832c:	f2f51ae3          	bne	a0,a5,8260 <__sflush_r+0x70>
    8330:	0004a783          	lw	a5,0(s1)
    8334:	f20786e3          	beqz	a5,8260 <__sflush_r+0x70>
    8338:	fea78713          	addi	a4,a5,-22
    833c:	00070663          	beqz	a4,8348 <__sflush_r+0x158>
    8340:	fe378793          	addi	a5,a5,-29
    8344:	00079663          	bnez	a5,8350 <__sflush_r+0x160>
    8348:	0124a023          	sw	s2,0(s1)
    834c:	ee5ff06f          	j	8230 <__sflush_r+0x40>
    8350:	00c45783          	lhu	a5,12(s0)
    8354:	0407e793          	ori	a5,a5,64
    8358:	00f41623          	sh	a5,12(s0)
    835c:	ed9ff06f          	j	8234 <__sflush_r+0x44>
    8360:	04076713          	ori	a4,a4,64
    8364:	00e41623          	sh	a4,12(s0)
    8368:	ecdff06f          	j	8234 <__sflush_r+0x44>
    836c:	0105a603          	lw	a2,16(a1)
    8370:	ec0600e3          	beqz	a2,8230 <__sflush_r+0x40>
    8374:	0005a683          	lw	a3,0(a1)
    8378:	0037f793          	andi	a5,a5,3
    837c:	00c5a023          	sw	a2,0(a1)
    8380:	40c68933          	sub	s2,a3,a2
    8384:	00000713          	li	a4,0
    8388:	00079463          	bnez	a5,8390 <__sflush_r+0x1a0>
    838c:	0145a703          	lw	a4,20(a1)
    8390:	00e42423          	sw	a4,8(s0)
    8394:	e9205ee3          	blez	s2,8230 <__sflush_r+0x40>
    8398:	02842783          	lw	a5,40(s0)
    839c:	02042583          	lw	a1,32(s0)
    83a0:	00090693          	mv	a3,s2
    83a4:	00048513          	mv	a0,s1
    83a8:	00c12623          	sw	a2,12(sp)
    83ac:	000780e7          	jalr	a5
    83b0:	00c12603          	lw	a2,12(sp)
    83b4:	00a04c63          	bgtz	a0,83cc <__sflush_r+0x1dc>
    83b8:	00c45783          	lhu	a5,12(s0)
    83bc:	fff00513          	li	a0,-1
    83c0:	0407e793          	ori	a5,a5,64
    83c4:	00f41623          	sh	a5,12(s0)
    83c8:	e6dff06f          	j	8234 <__sflush_r+0x44>
    83cc:	00a60633          	add	a2,a2,a0
    83d0:	40a90933          	sub	s2,s2,a0
    83d4:	fc1ff06f          	j	8394 <__sflush_r+0x1a4>

000083d8 <_fflush_r>:
    83d8:	0105a783          	lw	a5,16(a1)
    83dc:	04078e63          	beqz	a5,8438 <_fflush_r+0x60>
    83e0:	fe010113          	addi	sp,sp,-32
    83e4:	00812c23          	sw	s0,24(sp)
    83e8:	00112e23          	sw	ra,28(sp)
    83ec:	00050413          	mv	s0,a0
    83f0:	00050c63          	beqz	a0,8408 <_fflush_r+0x30>
    83f4:	02052783          	lw	a5,32(a0)
    83f8:	00079863          	bnez	a5,8408 <_fflush_r+0x30>
    83fc:	00b12623          	sw	a1,12(sp)
    8400:	cfcff0ef          	jal	78fc <__sinit>
    8404:	00c12583          	lw	a1,12(sp)
    8408:	00c59783          	lh	a5,12(a1)
    840c:	00078c63          	beqz	a5,8424 <_fflush_r+0x4c>
    8410:	00040513          	mv	a0,s0
    8414:	01812403          	lw	s0,24(sp)
    8418:	01c12083          	lw	ra,28(sp)
    841c:	02010113          	addi	sp,sp,32
    8420:	dd1ff06f          	j	81f0 <__sflush_r>
    8424:	01c12083          	lw	ra,28(sp)
    8428:	01812403          	lw	s0,24(sp)
    842c:	00000513          	li	a0,0
    8430:	02010113          	addi	sp,sp,32
    8434:	00008067          	ret
    8438:	00000513          	li	a0,0
    843c:	00008067          	ret

00008440 <_sbrk_r>:
    8440:	ff010113          	addi	sp,sp,-16
    8444:	00812423          	sw	s0,8(sp)
    8448:	00912223          	sw	s1,4(sp)
    844c:	00050493          	mv	s1,a0
    8450:	00058513          	mv	a0,a1
    8454:	00112623          	sw	ra,12(sp)
    8458:	9401ac23          	sw	zero,-1704(gp) # 21d5c <errno>
    845c:	838ff0ef          	jal	7494 <_sbrk>
    8460:	fff00793          	li	a5,-1
    8464:	00f51863          	bne	a0,a5,8474 <_sbrk_r+0x34>
    8468:	9581a783          	lw	a5,-1704(gp) # 21d5c <errno>
    846c:	00078463          	beqz	a5,8474 <_sbrk_r+0x34>
    8470:	00f4a023          	sw	a5,0(s1)
    8474:	00c12083          	lw	ra,12(sp)
    8478:	00812403          	lw	s0,8(sp)
    847c:	00412483          	lw	s1,4(sp)
    8480:	01010113          	addi	sp,sp,16
    8484:	00008067          	ret

00008488 <iprintf>:
    8488:	fc010113          	addi	sp,sp,-64
    848c:	02f12a23          	sw	a5,52(sp)
    8490:	9501a783          	lw	a5,-1712(gp) # 21d54 <_impure_ptr>
    8494:	02c12423          	sw	a2,40(sp)
    8498:	02d12623          	sw	a3,44(sp)
    849c:	02b12223          	sw	a1,36(sp)
    84a0:	02e12823          	sw	a4,48(sp)
    84a4:	03012c23          	sw	a6,56(sp)
    84a8:	03112e23          	sw	a7,60(sp)
    84ac:	0087a583          	lw	a1,8(a5)
    84b0:	02410693          	addi	a3,sp,36
    84b4:	00050613          	mv	a2,a0
    84b8:	00078513          	mv	a0,a5
    84bc:	00112e23          	sw	ra,28(sp)
    84c0:	00d12623          	sw	a3,12(sp)
    84c4:	414000ef          	jal	88d8 <_vfiprintf_r>
    84c8:	01c12083          	lw	ra,28(sp)
    84cc:	04010113          	addi	sp,sp,64
    84d0:	00008067          	ret

000084d4 <_puts_r>:
    84d4:	02052783          	lw	a5,32(a0)
    84d8:	fe010113          	addi	sp,sp,-32
    84dc:	00812c23          	sw	s0,24(sp)
    84e0:	00912a23          	sw	s1,20(sp)
    84e4:	01212823          	sw	s2,16(sp)
    84e8:	00112e23          	sw	ra,28(sp)
    84ec:	01312623          	sw	s3,12(sp)
    84f0:	00852403          	lw	s0,8(a0)
    84f4:	00050493          	mv	s1,a0
    84f8:	00058913          	mv	s2,a1
    84fc:	00079463          	bnez	a5,8504 <_puts_r+0x30>
    8500:	bfcff0ef          	jal	78fc <__sinit>
    8504:	00c45783          	lhu	a5,12(s0)
    8508:	0087f793          	andi	a5,a5,8
    850c:	00078663          	beqz	a5,8518 <_puts_r+0x44>
    8510:	01042783          	lw	a5,16(s0)
    8514:	0a079663          	bnez	a5,85c0 <_puts_r+0xec>
    8518:	00040593          	mv	a1,s0
    851c:	00048513          	mv	a0,s1
    8520:	1c8000ef          	jal	86e8 <__swsetup_r>
    8524:	00050793          	mv	a5,a0
    8528:	fff00513          	li	a0,-1
    852c:	08078a63          	beqz	a5,85c0 <_puts_r+0xec>
    8530:	01c12083          	lw	ra,28(sp)
    8534:	01812403          	lw	s0,24(sp)
    8538:	01412483          	lw	s1,20(sp)
    853c:	01012903          	lw	s2,16(sp)
    8540:	00c12983          	lw	s3,12(sp)
    8544:	02010113          	addi	sp,sp,32
    8548:	00008067          	ret
    854c:	0007da63          	bgez	a5,8560 <_puts_r+0x8c>
    8550:	01842703          	lw	a4,24(s0)
    8554:	04e7cc63          	blt	a5,a4,85ac <_puts_r+0xd8>
    8558:	ff658793          	addi	a5,a1,-10
    855c:	04078863          	beqz	a5,85ac <_puts_r+0xd8>
    8560:	00042783          	lw	a5,0(s0)
    8564:	00178713          	addi	a4,a5,1
    8568:	00e42023          	sw	a4,0(s0)
    856c:	00b78023          	sb	a1,0(a5)
    8570:	00190913          	addi	s2,s2,1
    8574:	00842783          	lw	a5,8(s0)
    8578:	00094583          	lbu	a1,0(s2)
    857c:	fff78793          	addi	a5,a5,-1
    8580:	00f42423          	sw	a5,8(s0)
    8584:	fc0594e3          	bnez	a1,854c <_puts_r+0x78>
    8588:	0407d063          	bgez	a5,85c8 <_puts_r+0xf4>
    858c:	00040613          	mv	a2,s0
    8590:	00a00593          	li	a1,10
    8594:	00048513          	mv	a0,s1
    8598:	054000ef          	jal	85ec <__swbuf_r>
    859c:	fff00793          	li	a5,-1
    85a0:	f8f508e3          	beq	a0,a5,8530 <_puts_r+0x5c>
    85a4:	00a00513          	li	a0,10
    85a8:	f89ff06f          	j	8530 <_puts_r+0x5c>
    85ac:	00040613          	mv	a2,s0
    85b0:	00048513          	mv	a0,s1
    85b4:	038000ef          	jal	85ec <__swbuf_r>
    85b8:	fb351ce3          	bne	a0,s3,8570 <_puts_r+0x9c>
    85bc:	f75ff06f          	j	8530 <_puts_r+0x5c>
    85c0:	fff00993          	li	s3,-1
    85c4:	fb1ff06f          	j	8574 <_puts_r+0xa0>
    85c8:	00042783          	lw	a5,0(s0)
    85cc:	00a00513          	li	a0,10
    85d0:	00178713          	addi	a4,a5,1
    85d4:	00e42023          	sw	a4,0(s0)
    85d8:	00a78023          	sb	a0,0(a5)
    85dc:	f55ff06f          	j	8530 <_puts_r+0x5c>

000085e0 <puts>:
    85e0:	00050593          	mv	a1,a0
    85e4:	9501a503          	lw	a0,-1712(gp) # 21d54 <_impure_ptr>
    85e8:	eedff06f          	j	84d4 <_puts_r>

000085ec <__swbuf_r>:
    85ec:	fe010113          	addi	sp,sp,-32
    85f0:	00812c23          	sw	s0,24(sp)
    85f4:	00912a23          	sw	s1,20(sp)
    85f8:	01312623          	sw	s3,12(sp)
    85fc:	00112e23          	sw	ra,28(sp)
    8600:	01212823          	sw	s2,16(sp)
    8604:	00050493          	mv	s1,a0
    8608:	00058993          	mv	s3,a1
    860c:	00060413          	mv	s0,a2
    8610:	00050863          	beqz	a0,8620 <__swbuf_r+0x34>
    8614:	02052783          	lw	a5,32(a0)
    8618:	00079463          	bnez	a5,8620 <__swbuf_r+0x34>
    861c:	ae0ff0ef          	jal	78fc <__sinit>
    8620:	01842783          	lw	a5,24(s0)
    8624:	00f42423          	sw	a5,8(s0)
    8628:	00c45783          	lhu	a5,12(s0)
    862c:	0087f793          	andi	a5,a5,8
    8630:	0a078063          	beqz	a5,86d0 <__swbuf_r+0xe4>
    8634:	01042783          	lw	a5,16(s0)
    8638:	08078c63          	beqz	a5,86d0 <__swbuf_r+0xe4>
    863c:	01042783          	lw	a5,16(s0)
    8640:	00042503          	lw	a0,0(s0)
    8644:	40f50533          	sub	a0,a0,a5
    8648:	01442783          	lw	a5,20(s0)
    864c:	00f54a63          	blt	a0,a5,8660 <__swbuf_r+0x74>
    8650:	00040593          	mv	a1,s0
    8654:	00048513          	mv	a0,s1
    8658:	d81ff0ef          	jal	83d8 <_fflush_r>
    865c:	08051263          	bnez	a0,86e0 <__swbuf_r+0xf4>
    8660:	00842783          	lw	a5,8(s0)
    8664:	00150513          	addi	a0,a0,1
    8668:	0ff9f913          	zext.b	s2,s3
    866c:	fff78793          	addi	a5,a5,-1
    8670:	00f42423          	sw	a5,8(s0)
    8674:	00042783          	lw	a5,0(s0)
    8678:	00178713          	addi	a4,a5,1
    867c:	00e42023          	sw	a4,0(s0)
    8680:	01378023          	sb	s3,0(a5)
    8684:	01442783          	lw	a5,20(s0)
    8688:	00a78c63          	beq	a5,a0,86a0 <__swbuf_r+0xb4>
    868c:	ff690793          	addi	a5,s2,-10
    8690:	02079063          	bnez	a5,86b0 <__swbuf_r+0xc4>
    8694:	00c45783          	lhu	a5,12(s0)
    8698:	0017f793          	andi	a5,a5,1
    869c:	00078a63          	beqz	a5,86b0 <__swbuf_r+0xc4>
    86a0:	00040593          	mv	a1,s0
    86a4:	00048513          	mv	a0,s1
    86a8:	d31ff0ef          	jal	83d8 <_fflush_r>
    86ac:	02051a63          	bnez	a0,86e0 <__swbuf_r+0xf4>
    86b0:	01c12083          	lw	ra,28(sp)
    86b4:	01812403          	lw	s0,24(sp)
    86b8:	01412483          	lw	s1,20(sp)
    86bc:	00c12983          	lw	s3,12(sp)
    86c0:	00090513          	mv	a0,s2
    86c4:	01012903          	lw	s2,16(sp)
    86c8:	02010113          	addi	sp,sp,32
    86cc:	00008067          	ret
    86d0:	00040593          	mv	a1,s0
    86d4:	00048513          	mv	a0,s1
    86d8:	010000ef          	jal	86e8 <__swsetup_r>
    86dc:	f60500e3          	beqz	a0,863c <__swbuf_r+0x50>
    86e0:	fff00913          	li	s2,-1
    86e4:	fcdff06f          	j	86b0 <__swbuf_r+0xc4>

000086e8 <__swsetup_r>:
    86e8:	ff010113          	addi	sp,sp,-16
    86ec:	00912223          	sw	s1,4(sp)
    86f0:	00050493          	mv	s1,a0
    86f4:	9501a503          	lw	a0,-1712(gp) # 21d54 <_impure_ptr>
    86f8:	00812423          	sw	s0,8(sp)
    86fc:	00112623          	sw	ra,12(sp)
    8700:	00058413          	mv	s0,a1
    8704:	00050863          	beqz	a0,8714 <__swsetup_r+0x2c>
    8708:	02052783          	lw	a5,32(a0)
    870c:	00079463          	bnez	a5,8714 <__swsetup_r+0x2c>
    8710:	9ecff0ef          	jal	78fc <__sinit>
    8714:	00c41783          	lh	a5,12(s0)
    8718:	0087f713          	andi	a4,a5,8
    871c:	06071a63          	bnez	a4,8790 <__swsetup_r+0xa8>
    8720:	0107f713          	andi	a4,a5,16
    8724:	02071663          	bnez	a4,8750 <__swsetup_r+0x68>
    8728:	00900713          	li	a4,9
    872c:	00e4a023          	sw	a4,0(s1)
    8730:	0407e793          	ori	a5,a5,64
    8734:	00f41623          	sh	a5,12(s0)
    8738:	fff00513          	li	a0,-1
    873c:	00c12083          	lw	ra,12(sp)
    8740:	00812403          	lw	s0,8(sp)
    8744:	00412483          	lw	s1,4(sp)
    8748:	01010113          	addi	sp,sp,16
    874c:	00008067          	ret
    8750:	0047f713          	andi	a4,a5,4
    8754:	02070a63          	beqz	a4,8788 <__swsetup_r+0xa0>
    8758:	03442583          	lw	a1,52(s0)
    875c:	00058c63          	beqz	a1,8774 <__swsetup_r+0x8c>
    8760:	04440793          	addi	a5,s0,68
    8764:	00f58663          	beq	a1,a5,8770 <__swsetup_r+0x88>
    8768:	00048513          	mv	a0,s1
    876c:	f38ff0ef          	jal	7ea4 <_free_r>
    8770:	02042a23          	sw	zero,52(s0)
    8774:	00c45783          	lhu	a5,12(s0)
    8778:	01042703          	lw	a4,16(s0)
    877c:	00042223          	sw	zero,4(s0)
    8780:	fdb7f793          	andi	a5,a5,-37
    8784:	00e42023          	sw	a4,0(s0)
    8788:	0087e793          	ori	a5,a5,8
    878c:	00f41623          	sh	a5,12(s0)
    8790:	01042783          	lw	a5,16(s0)
    8794:	02079063          	bnez	a5,87b4 <__swsetup_r+0xcc>
    8798:	00c42783          	lw	a5,12(s0)
    879c:	20000713          	li	a4,512
    87a0:	2807f793          	andi	a5,a5,640
    87a4:	00e78863          	beq	a5,a4,87b4 <__swsetup_r+0xcc>
    87a8:	00040593          	mv	a1,s0
    87ac:	00048513          	mv	a0,s1
    87b0:	25d000ef          	jal	920c <__smakebuf_r>
    87b4:	00c41783          	lh	a5,12(s0)
    87b8:	0017f713          	andi	a4,a5,1
    87bc:	02070263          	beqz	a4,87e0 <__swsetup_r+0xf8>
    87c0:	01442703          	lw	a4,20(s0)
    87c4:	00042423          	sw	zero,8(s0)
    87c8:	40e00733          	neg	a4,a4
    87cc:	00e42c23          	sw	a4,24(s0)
    87d0:	01042703          	lw	a4,16(s0)
    87d4:	02070263          	beqz	a4,87f8 <__swsetup_r+0x110>
    87d8:	00000513          	li	a0,0
    87dc:	f61ff06f          	j	873c <__swsetup_r+0x54>
    87e0:	0027f713          	andi	a4,a5,2
    87e4:	00000693          	li	a3,0
    87e8:	00071463          	bnez	a4,87f0 <__swsetup_r+0x108>
    87ec:	01442683          	lw	a3,20(s0)
    87f0:	00d42423          	sw	a3,8(s0)
    87f4:	fddff06f          	j	87d0 <__swsetup_r+0xe8>
    87f8:	0807f713          	andi	a4,a5,128
    87fc:	fc070ee3          	beqz	a4,87d8 <__swsetup_r+0xf0>
    8800:	f31ff06f          	j	8730 <__swsetup_r+0x48>

00008804 <__errno>:
    8804:	9501a503          	lw	a0,-1712(gp) # 21d54 <_impure_ptr>
    8808:	00008067          	ret

0000880c <strlen>:
    880c:	00050793          	mv	a5,a0
    8810:	0007c703          	lbu	a4,0(a5)
    8814:	00178793          	addi	a5,a5,1
    8818:	fe071ce3          	bnez	a4,8810 <strlen+0x4>
    881c:	40a78533          	sub	a0,a5,a0
    8820:	fff50513          	addi	a0,a0,-1
    8824:	00008067          	ret

00008828 <__sfputc_r>:
    8828:	00862783          	lw	a5,8(a2)
    882c:	fff78793          	addi	a5,a5,-1
    8830:	00f62423          	sw	a5,8(a2)
    8834:	0007dc63          	bgez	a5,884c <__sfputc_r+0x24>
    8838:	01862703          	lw	a4,24(a2)
    883c:	00e7c663          	blt	a5,a4,8848 <__sfputc_r+0x20>
    8840:	ff658793          	addi	a5,a1,-10
    8844:	00079463          	bnez	a5,884c <__sfputc_r+0x24>
    8848:	da5ff06f          	j	85ec <__swbuf_r>
    884c:	00062783          	lw	a5,0(a2)
    8850:	00058513          	mv	a0,a1
    8854:	00178713          	addi	a4,a5,1
    8858:	00e62023          	sw	a4,0(a2)
    885c:	00b78023          	sb	a1,0(a5)
    8860:	00008067          	ret

00008864 <__sfputs_r>:
    8864:	fe010113          	addi	sp,sp,-32
    8868:	00812c23          	sw	s0,24(sp)
    886c:	00912a23          	sw	s1,20(sp)
    8870:	01212823          	sw	s2,16(sp)
    8874:	01312623          	sw	s3,12(sp)
    8878:	01412423          	sw	s4,8(sp)
    887c:	00112e23          	sw	ra,28(sp)
    8880:	00050993          	mv	s3,a0
    8884:	00058a13          	mv	s4,a1
    8888:	00060413          	mv	s0,a2
    888c:	00d604b3          	add	s1,a2,a3
    8890:	fff00913          	li	s2,-1
    8894:	00941663          	bne	s0,s1,88a0 <__sfputs_r+0x3c>
    8898:	00000513          	li	a0,0
    889c:	01c0006f          	j	88b8 <__sfputs_r+0x54>
    88a0:	00044583          	lbu	a1,0(s0)
    88a4:	000a0613          	mv	a2,s4
    88a8:	00098513          	mv	a0,s3
    88ac:	f7dff0ef          	jal	8828 <__sfputc_r>
    88b0:	00140413          	addi	s0,s0,1
    88b4:	ff2510e3          	bne	a0,s2,8894 <__sfputs_r+0x30>
    88b8:	01c12083          	lw	ra,28(sp)
    88bc:	01812403          	lw	s0,24(sp)
    88c0:	01412483          	lw	s1,20(sp)
    88c4:	01012903          	lw	s2,16(sp)
    88c8:	00c12983          	lw	s3,12(sp)
    88cc:	00812a03          	lw	s4,8(sp)
    88d0:	02010113          	addi	sp,sp,32
    88d4:	00008067          	ret

000088d8 <_vfiprintf_r>:
    88d8:	f5010113          	addi	sp,sp,-176
    88dc:	0a812423          	sw	s0,168(sp)
    88e0:	0a912223          	sw	s1,164(sp)
    88e4:	0b212023          	sw	s2,160(sp)
    88e8:	09312e23          	sw	s3,156(sp)
    88ec:	0a112623          	sw	ra,172(sp)
    88f0:	09412c23          	sw	s4,152(sp)
    88f4:	09512a23          	sw	s5,148(sp)
    88f8:	09612823          	sw	s6,144(sp)
    88fc:	09712623          	sw	s7,140(sp)
    8900:	00050913          	mv	s2,a0
    8904:	00058493          	mv	s1,a1
    8908:	00060413          	mv	s0,a2
    890c:	00068993          	mv	s3,a3
    8910:	00050863          	beqz	a0,8920 <_vfiprintf_r+0x48>
    8914:	02052783          	lw	a5,32(a0)
    8918:	00079463          	bnez	a5,8920 <_vfiprintf_r+0x48>
    891c:	fe1fe0ef          	jal	78fc <__sinit>
    8920:	00c4d783          	lhu	a5,12(s1)
    8924:	0087f793          	andi	a5,a5,8
    8928:	00078663          	beqz	a5,8934 <_vfiprintf_r+0x5c>
    892c:	0104a783          	lw	a5,16(s1)
    8930:	00079a63          	bnez	a5,8944 <_vfiprintf_r+0x6c>
    8934:	00048593          	mv	a1,s1
    8938:	00090513          	mv	a0,s2
    893c:	dadff0ef          	jal	86e8 <__swsetup_r>
    8940:	2a051a63          	bnez	a0,8bf4 <_vfiprintf_r+0x31c>
    8944:	02000793          	li	a5,32
    8948:	02f10ca3          	sb	a5,57(sp)
    894c:	00020a37          	lui	s4,0x20
    8950:	03000793          	li	a5,48
    8954:	01312e23          	sw	s3,28(sp)
    8958:	02012a23          	sw	zero,52(sp)
    895c:	02f10d23          	sb	a5,58(sp)
    8960:	02500a93          	li	s5,37
    8964:	fff00993          	li	s3,-1
    8968:	5e8a0a13          	addi	s4,s4,1512 # 205e8 <__clz_tab+0x2f8>
    896c:	00100b13          	li	s6,1
    8970:	00040b93          	mv	s7,s0
    8974:	000bc783          	lbu	a5,0(s7)
    8978:	00078463          	beqz	a5,8980 <_vfiprintf_r+0xa8>
    897c:	0d579463          	bne	a5,s5,8a44 <_vfiprintf_r+0x16c>
    8980:	408b86b3          	sub	a3,s7,s0
    8984:	028b8663          	beq	s7,s0,89b0 <_vfiprintf_r+0xd8>
    8988:	00040613          	mv	a2,s0
    898c:	00048593          	mv	a1,s1
    8990:	00090513          	mv	a0,s2
    8994:	00d12623          	sw	a3,12(sp)
    8998:	ecdff0ef          	jal	8864 <__sfputs_r>
    899c:	25350663          	beq	a0,s3,8be8 <_vfiprintf_r+0x310>
    89a0:	03412783          	lw	a5,52(sp)
    89a4:	00c12683          	lw	a3,12(sp)
    89a8:	00d787b3          	add	a5,a5,a3
    89ac:	02f12a23          	sw	a5,52(sp)
    89b0:	000bc783          	lbu	a5,0(s7)
    89b4:	22078a63          	beqz	a5,8be8 <_vfiprintf_r+0x310>
    89b8:	001b8413          	addi	s0,s7,1
    89bc:	02012023          	sw	zero,32(sp)
    89c0:	02012623          	sw	zero,44(sp)
    89c4:	03312223          	sw	s3,36(sp)
    89c8:	02012423          	sw	zero,40(sp)
    89cc:	060101a3          	sb	zero,99(sp)
    89d0:	06012c23          	sw	zero,120(sp)
    89d4:	00044583          	lbu	a1,0(s0)
    89d8:	00500613          	li	a2,5
    89dc:	000a0513          	mv	a0,s4
    89e0:	18d000ef          	jal	936c <memchr>
    89e4:	02012783          	lw	a5,32(sp)
    89e8:	00140693          	addi	a3,s0,1
    89ec:	06051063          	bnez	a0,8a4c <_vfiprintf_r+0x174>
    89f0:	0107f713          	andi	a4,a5,16
    89f4:	00070663          	beqz	a4,8a00 <_vfiprintf_r+0x128>
    89f8:	02000713          	li	a4,32
    89fc:	06e101a3          	sb	a4,99(sp)
    8a00:	0087f713          	andi	a4,a5,8
    8a04:	00070663          	beqz	a4,8a10 <_vfiprintf_r+0x138>
    8a08:	02b00713          	li	a4,43
    8a0c:	06e101a3          	sb	a4,99(sp)
    8a10:	00044603          	lbu	a2,0(s0)
    8a14:	02a00713          	li	a4,42
    8a18:	04e60663          	beq	a2,a4,8a64 <_vfiprintf_r+0x18c>
    8a1c:	02c12783          	lw	a5,44(sp)
    8a20:	00000693          	li	a3,0
    8a24:	00900613          	li	a2,9
    8a28:	00a00593          	li	a1,10
    8a2c:	00044703          	lbu	a4,0(s0)
    8a30:	fd070713          	addi	a4,a4,-48
    8a34:	08e67c63          	bgeu	a2,a4,8acc <_vfiprintf_r+0x1f4>
    8a38:	04068463          	beqz	a3,8a80 <_vfiprintf_r+0x1a8>
    8a3c:	02f12623          	sw	a5,44(sp)
    8a40:	0400006f          	j	8a80 <_vfiprintf_r+0x1a8>
    8a44:	001b8b93          	addi	s7,s7,1
    8a48:	f2dff06f          	j	8974 <_vfiprintf_r+0x9c>
    8a4c:	41450533          	sub	a0,a0,s4
    8a50:	00ab1533          	sll	a0,s6,a0
    8a54:	00f56533          	or	a0,a0,a5
    8a58:	02a12023          	sw	a0,32(sp)
    8a5c:	00068413          	mv	s0,a3
    8a60:	f75ff06f          	j	89d4 <_vfiprintf_r+0xfc>
    8a64:	01c12703          	lw	a4,28(sp)
    8a68:	00470613          	addi	a2,a4,4
    8a6c:	00072703          	lw	a4,0(a4)
    8a70:	00c12e23          	sw	a2,28(sp)
    8a74:	04074263          	bltz	a4,8ab8 <_vfiprintf_r+0x1e0>
    8a78:	02e12623          	sw	a4,44(sp)
    8a7c:	00068413          	mv	s0,a3
    8a80:	00044703          	lbu	a4,0(s0)
    8a84:	02e00793          	li	a5,46
    8a88:	04f71e63          	bne	a4,a5,8ae4 <_vfiprintf_r+0x20c>
    8a8c:	00144703          	lbu	a4,1(s0)
    8a90:	02a00793          	li	a5,42
    8a94:	0cf71e63          	bne	a4,a5,8b70 <_vfiprintf_r+0x298>
    8a98:	01c12783          	lw	a5,28(sp)
    8a9c:	00240413          	addi	s0,s0,2
    8aa0:	00478713          	addi	a4,a5,4
    8aa4:	0007a783          	lw	a5,0(a5)
    8aa8:	00e12e23          	sw	a4,28(sp)
    8aac:	0207ca63          	bltz	a5,8ae0 <_vfiprintf_r+0x208>
    8ab0:	02f12223          	sw	a5,36(sp)
    8ab4:	0300006f          	j	8ae4 <_vfiprintf_r+0x20c>
    8ab8:	40e00733          	neg	a4,a4
    8abc:	0027e793          	ori	a5,a5,2
    8ac0:	02e12623          	sw	a4,44(sp)
    8ac4:	02f12023          	sw	a5,32(sp)
    8ac8:	fb5ff06f          	j	8a7c <_vfiprintf_r+0x1a4>
    8acc:	02b787b3          	mul	a5,a5,a1
    8ad0:	00140413          	addi	s0,s0,1
    8ad4:	00100693          	li	a3,1
    8ad8:	00e787b3          	add	a5,a5,a4
    8adc:	f51ff06f          	j	8a2c <_vfiprintf_r+0x154>
    8ae0:	03312223          	sw	s3,36(sp)
    8ae4:	00044583          	lbu	a1,0(s0)
    8ae8:	00020bb7          	lui	s7,0x20
    8aec:	00300613          	li	a2,3
    8af0:	5f0b8513          	addi	a0,s7,1520 # 205f0 <__clz_tab+0x300>
    8af4:	079000ef          	jal	936c <memchr>
    8af8:	02050263          	beqz	a0,8b1c <_vfiprintf_r+0x244>
    8afc:	02012783          	lw	a5,32(sp)
    8b00:	5f0b8b93          	addi	s7,s7,1520
    8b04:	41750533          	sub	a0,a0,s7
    8b08:	04000713          	li	a4,64
    8b0c:	00a71733          	sll	a4,a4,a0
    8b10:	00e7e7b3          	or	a5,a5,a4
    8b14:	00140413          	addi	s0,s0,1
    8b18:	02f12023          	sw	a5,32(sp)
    8b1c:	00044583          	lbu	a1,0(s0)
    8b20:	00020537          	lui	a0,0x20
    8b24:	00600613          	li	a2,6
    8b28:	5f450513          	addi	a0,a0,1524 # 205f4 <__clz_tab+0x304>
    8b2c:	02b10c23          	sb	a1,56(sp)
    8b30:	03d000ef          	jal	936c <memchr>
    8b34:	0e050863          	beqz	a0,8c24 <_vfiprintf_r+0x34c>
    8b38:	00000793          	li	a5,0
    8b3c:	08079463          	bnez	a5,8bc4 <_vfiprintf_r+0x2ec>
    8b40:	02012503          	lw	a0,32(sp)
    8b44:	01c12783          	lw	a5,28(sp)
    8b48:	10057513          	andi	a0,a0,256
    8b4c:	06050263          	beqz	a0,8bb0 <_vfiprintf_r+0x2d8>
    8b50:	00478793          	addi	a5,a5,4
    8b54:	00f12e23          	sw	a5,28(sp)
    8b58:	00000513          	li	a0,0
    8b5c:	03412783          	lw	a5,52(sp)
    8b60:	00140413          	addi	s0,s0,1
    8b64:	00a787b3          	add	a5,a5,a0
    8b68:	02f12a23          	sw	a5,52(sp)
    8b6c:	e05ff06f          	j	8970 <_vfiprintf_r+0x98>
    8b70:	00140413          	addi	s0,s0,1
    8b74:	00000713          	li	a4,0
    8b78:	00000793          	li	a5,0
    8b7c:	00900613          	li	a2,9
    8b80:	00a00593          	li	a1,10
    8b84:	00044683          	lbu	a3,0(s0)
    8b88:	fd068693          	addi	a3,a3,-48
    8b8c:	00d67863          	bgeu	a2,a3,8b9c <_vfiprintf_r+0x2c4>
    8b90:	40e00733          	neg	a4,a4
    8b94:	00e7f7b3          	and	a5,a5,a4
    8b98:	f19ff06f          	j	8ab0 <_vfiprintf_r+0x1d8>
    8b9c:	02b787b3          	mul	a5,a5,a1
    8ba0:	00140413          	addi	s0,s0,1
    8ba4:	00100713          	li	a4,1
    8ba8:	00d787b3          	add	a5,a5,a3
    8bac:	fd9ff06f          	j	8b84 <_vfiprintf_r+0x2ac>
    8bb0:	00778793          	addi	a5,a5,7
    8bb4:	ff87f793          	andi	a5,a5,-8
    8bb8:	00878793          	addi	a5,a5,8
    8bbc:	00f12e23          	sw	a5,28(sp)
    8bc0:	f9dff06f          	j	8b5c <_vfiprintf_r+0x284>
    8bc4:	000096b7          	lui	a3,0x9
    8bc8:	01c10713          	addi	a4,sp,28
    8bcc:	86468693          	addi	a3,a3,-1948 # 8864 <__sfputs_r>
    8bd0:	00048613          	mv	a2,s1
    8bd4:	02010593          	addi	a1,sp,32
    8bd8:	00090513          	mv	a0,s2
    8bdc:	00000097          	auipc	ra,0x0
    8be0:	000000e7          	jalr	zero # 0 <__vector_start>
    8be4:	f7351ce3          	bne	a0,s3,8b5c <_vfiprintf_r+0x284>
    8be8:	00c4d783          	lhu	a5,12(s1)
    8bec:	0407f793          	andi	a5,a5,64
    8bf0:	04078a63          	beqz	a5,8c44 <_vfiprintf_r+0x36c>
    8bf4:	fff00513          	li	a0,-1
    8bf8:	0ac12083          	lw	ra,172(sp)
    8bfc:	0a812403          	lw	s0,168(sp)
    8c00:	0a412483          	lw	s1,164(sp)
    8c04:	0a012903          	lw	s2,160(sp)
    8c08:	09c12983          	lw	s3,156(sp)
    8c0c:	09812a03          	lw	s4,152(sp)
    8c10:	09412a83          	lw	s5,148(sp)
    8c14:	09012b03          	lw	s6,144(sp)
    8c18:	08c12b83          	lw	s7,140(sp)
    8c1c:	0b010113          	addi	sp,sp,176
    8c20:	00008067          	ret
    8c24:	000096b7          	lui	a3,0x9
    8c28:	01c10713          	addi	a4,sp,28
    8c2c:	86468693          	addi	a3,a3,-1948 # 8864 <__sfputs_r>
    8c30:	00048613          	mv	a2,s1
    8c34:	02010593          	addi	a1,sp,32
    8c38:	00090513          	mv	a0,s2
    8c3c:	1bc000ef          	jal	8df8 <_printf_i>
    8c40:	fa5ff06f          	j	8be4 <_vfiprintf_r+0x30c>
    8c44:	03412503          	lw	a0,52(sp)
    8c48:	fb1ff06f          	j	8bf8 <_vfiprintf_r+0x320>

00008c4c <_printf_common>:
    8c4c:	fd010113          	addi	sp,sp,-48
    8c50:	03212023          	sw	s2,32(sp)
    8c54:	0105a783          	lw	a5,16(a1)
    8c58:	00070913          	mv	s2,a4
    8c5c:	0085a703          	lw	a4,8(a1)
    8c60:	02812423          	sw	s0,40(sp)
    8c64:	01312e23          	sw	s3,28(sp)
    8c68:	01612823          	sw	s6,16(sp)
    8c6c:	01712623          	sw	s7,12(sp)
    8c70:	02112623          	sw	ra,44(sp)
    8c74:	02912223          	sw	s1,36(sp)
    8c78:	01412c23          	sw	s4,24(sp)
    8c7c:	01512a23          	sw	s5,20(sp)
    8c80:	00050b13          	mv	s6,a0
    8c84:	00058413          	mv	s0,a1
    8c88:	00060993          	mv	s3,a2
    8c8c:	00068b93          	mv	s7,a3
    8c90:	00e7d463          	bge	a5,a4,8c98 <_printf_common+0x4c>
    8c94:	00070793          	mv	a5,a4
    8c98:	00f9a023          	sw	a5,0(s3)
    8c9c:	04344703          	lbu	a4,67(s0)
    8ca0:	00070663          	beqz	a4,8cac <_printf_common+0x60>
    8ca4:	00178793          	addi	a5,a5,1
    8ca8:	00f9a023          	sw	a5,0(s3)
    8cac:	00042783          	lw	a5,0(s0)
    8cb0:	0207f793          	andi	a5,a5,32
    8cb4:	00078863          	beqz	a5,8cc4 <_printf_common+0x78>
    8cb8:	0009a783          	lw	a5,0(s3)
    8cbc:	00278793          	addi	a5,a5,2
    8cc0:	00f9a023          	sw	a5,0(s3)
    8cc4:	00042483          	lw	s1,0(s0)
    8cc8:	0064f493          	andi	s1,s1,6
    8ccc:	00049e63          	bnez	s1,8ce8 <_printf_common+0x9c>
    8cd0:	01940a13          	addi	s4,s0,25
    8cd4:	fff00a93          	li	s5,-1
    8cd8:	00c42783          	lw	a5,12(s0)
    8cdc:	0009a703          	lw	a4,0(s3)
    8ce0:	40e787b3          	sub	a5,a5,a4
    8ce4:	0af4c863          	blt	s1,a5,8d94 <_printf_common+0x148>
    8ce8:	00042783          	lw	a5,0(s0)
    8cec:	04344683          	lbu	a3,67(s0)
    8cf0:	0207f793          	andi	a5,a5,32
    8cf4:	00d036b3          	snez	a3,a3
    8cf8:	0a079e63          	bnez	a5,8db4 <_printf_common+0x168>
    8cfc:	04340613          	addi	a2,s0,67
    8d00:	000b8593          	mv	a1,s7
    8d04:	000b0513          	mv	a0,s6
    8d08:	000900e7          	jalr	s2
    8d0c:	fff00793          	li	a5,-1
    8d10:	04f50c63          	beq	a0,a5,8d68 <_printf_common+0x11c>
    8d14:	00042783          	lw	a5,0(s0)
    8d18:	00400713          	li	a4,4
    8d1c:	00000493          	li	s1,0
    8d20:	0067f793          	andi	a5,a5,6
    8d24:	00e79e63          	bne	a5,a4,8d40 <_printf_common+0xf4>
    8d28:	0009a783          	lw	a5,0(s3)
    8d2c:	00c42483          	lw	s1,12(s0)
    8d30:	40f484b3          	sub	s1,s1,a5
    8d34:	fff4c793          	not	a5,s1
    8d38:	41f7d793          	srai	a5,a5,0x1f
    8d3c:	00f4f4b3          	and	s1,s1,a5
    8d40:	00842783          	lw	a5,8(s0)
    8d44:	01042703          	lw	a4,16(s0)
    8d48:	00f75663          	bge	a4,a5,8d54 <_printf_common+0x108>
    8d4c:	40e787b3          	sub	a5,a5,a4
    8d50:	00f484b3          	add	s1,s1,a5
    8d54:	00000993          	li	s3,0
    8d58:	01a40413          	addi	s0,s0,26
    8d5c:	fff00a13          	li	s4,-1
    8d60:	07349c63          	bne	s1,s3,8dd8 <_printf_common+0x18c>
    8d64:	00000513          	li	a0,0
    8d68:	02c12083          	lw	ra,44(sp)
    8d6c:	02812403          	lw	s0,40(sp)
    8d70:	02412483          	lw	s1,36(sp)
    8d74:	02012903          	lw	s2,32(sp)
    8d78:	01c12983          	lw	s3,28(sp)
    8d7c:	01812a03          	lw	s4,24(sp)
    8d80:	01412a83          	lw	s5,20(sp)
    8d84:	01012b03          	lw	s6,16(sp)
    8d88:	00c12b83          	lw	s7,12(sp)
    8d8c:	03010113          	addi	sp,sp,48
    8d90:	00008067          	ret
    8d94:	00100693          	li	a3,1
    8d98:	000a0613          	mv	a2,s4
    8d9c:	000b8593          	mv	a1,s7
    8da0:	000b0513          	mv	a0,s6
    8da4:	000900e7          	jalr	s2
    8da8:	fd5500e3          	beq	a0,s5,8d68 <_printf_common+0x11c>
    8dac:	00148493          	addi	s1,s1,1
    8db0:	f29ff06f          	j	8cd8 <_printf_common+0x8c>
    8db4:	00d40733          	add	a4,s0,a3
    8db8:	03000613          	li	a2,48
    8dbc:	04c701a3          	sb	a2,67(a4)
    8dc0:	04544703          	lbu	a4,69(s0)
    8dc4:	00168793          	addi	a5,a3,1
    8dc8:	00f407b3          	add	a5,s0,a5
    8dcc:	00268693          	addi	a3,a3,2
    8dd0:	04e781a3          	sb	a4,67(a5)
    8dd4:	f29ff06f          	j	8cfc <_printf_common+0xb0>
    8dd8:	00100693          	li	a3,1
    8ddc:	00040613          	mv	a2,s0
    8de0:	000b8593          	mv	a1,s7
    8de4:	000b0513          	mv	a0,s6
    8de8:	000900e7          	jalr	s2
    8dec:	f7450ee3          	beq	a0,s4,8d68 <_printf_common+0x11c>
    8df0:	00198993          	addi	s3,s3,1
    8df4:	f6dff06f          	j	8d60 <_printf_common+0x114>

00008df8 <_printf_i>:
    8df8:	fc010113          	addi	sp,sp,-64
    8dfc:	02812c23          	sw	s0,56(sp)
    8e00:	02912a23          	sw	s1,52(sp)
    8e04:	03412423          	sw	s4,40(sp)
    8e08:	03512223          	sw	s5,36(sp)
    8e0c:	02112e23          	sw	ra,60(sp)
    8e10:	03212823          	sw	s2,48(sp)
    8e14:	03312623          	sw	s3,44(sp)
    8e18:	0185c783          	lbu	a5,24(a1)
    8e1c:	00068493          	mv	s1,a3
    8e20:	07800693          	li	a3,120
    8e24:	00050a13          	mv	s4,a0
    8e28:	00058413          	mv	s0,a1
    8e2c:	00060a93          	mv	s5,a2
    8e30:	00f6ee63          	bltu	a3,a5,8e4c <_printf_i+0x54>
    8e34:	06200693          	li	a3,98
    8e38:	04358613          	addi	a2,a1,67
    8e3c:	00f6ec63          	bltu	a3,a5,8e54 <_printf_i+0x5c>
    8e40:	2a078e63          	beqz	a5,90fc <_printf_i+0x304>
    8e44:	05800693          	li	a3,88
    8e48:	20d78463          	beq	a5,a3,9050 <_printf_i+0x258>
    8e4c:	04240913          	addi	s2,s0,66
    8e50:	0400006f          	j	8e90 <_printf_i+0x98>
    8e54:	f9d78693          	addi	a3,a5,-99
    8e58:	0ff6f693          	zext.b	a3,a3
    8e5c:	01500593          	li	a1,21
    8e60:	fed5e6e3          	bltu	a1,a3,8e4c <_printf_i+0x54>
    8e64:	000205b7          	lui	a1,0x20
    8e68:	00269693          	slli	a3,a3,0x2
    8e6c:	28058593          	addi	a1,a1,640 # 20280 <jump_table.28+0x84>
    8e70:	00b686b3          	add	a3,a3,a1
    8e74:	0006a683          	lw	a3,0(a3)
    8e78:	00068067          	jr	a3
    8e7c:	00072783          	lw	a5,0(a4)
    8e80:	04240913          	addi	s2,s0,66
    8e84:	00478693          	addi	a3,a5,4
    8e88:	0007a783          	lw	a5,0(a5)
    8e8c:	00d72023          	sw	a3,0(a4)
    8e90:	04f40123          	sb	a5,66(s0)
    8e94:	00100793          	li	a5,1
    8e98:	2a00006f          	j	9138 <_printf_i+0x340>
    8e9c:	00042783          	lw	a5,0(s0)
    8ea0:	00072503          	lw	a0,0(a4)
    8ea4:	0807f693          	andi	a3,a5,128
    8ea8:	00450593          	addi	a1,a0,4
    8eac:	02068663          	beqz	a3,8ed8 <_printf_i+0xe0>
    8eb0:	00052783          	lw	a5,0(a0)
    8eb4:	00b72023          	sw	a1,0(a4)
    8eb8:	000206b7          	lui	a3,0x20
    8ebc:	0007d863          	bgez	a5,8ecc <_printf_i+0xd4>
    8ec0:	02d00713          	li	a4,45
    8ec4:	40f007b3          	neg	a5,a5
    8ec8:	04e401a3          	sb	a4,67(s0)
    8ecc:	5fc68693          	addi	a3,a3,1532 # 205fc <__clz_tab+0x30c>
    8ed0:	00a00713          	li	a4,10
    8ed4:	06c0006f          	j	8f40 <_printf_i+0x148>
    8ed8:	0407f693          	andi	a3,a5,64
    8edc:	00052783          	lw	a5,0(a0)
    8ee0:	00b72023          	sw	a1,0(a4)
    8ee4:	fc068ae3          	beqz	a3,8eb8 <_printf_i+0xc0>
    8ee8:	01079793          	slli	a5,a5,0x10
    8eec:	4107d793          	srai	a5,a5,0x10
    8ef0:	fc9ff06f          	j	8eb8 <_printf_i+0xc0>
    8ef4:	00042683          	lw	a3,0(s0)
    8ef8:	00072783          	lw	a5,0(a4)
    8efc:	0806f513          	andi	a0,a3,128
    8f00:	00478593          	addi	a1,a5,4
    8f04:	00050863          	beqz	a0,8f14 <_printf_i+0x11c>
    8f08:	00b72023          	sw	a1,0(a4)
    8f0c:	0007a783          	lw	a5,0(a5)
    8f10:	0140006f          	j	8f24 <_printf_i+0x12c>
    8f14:	0406f693          	andi	a3,a3,64
    8f18:	00b72023          	sw	a1,0(a4)
    8f1c:	fe0688e3          	beqz	a3,8f0c <_printf_i+0x114>
    8f20:	0007d783          	lhu	a5,0(a5)
    8f24:	01844583          	lbu	a1,24(s0)
    8f28:	000206b7          	lui	a3,0x20
    8f2c:	06f00713          	li	a4,111
    8f30:	5fc68693          	addi	a3,a3,1532 # 205fc <__clz_tab+0x30c>
    8f34:	18e59263          	bne	a1,a4,90b8 <_printf_i+0x2c0>
    8f38:	00800713          	li	a4,8
    8f3c:	040401a3          	sb	zero,67(s0)
    8f40:	00442583          	lw	a1,4(s0)
    8f44:	00b42423          	sw	a1,8(s0)
    8f48:	0005ce63          	bltz	a1,8f64 <_printf_i+0x16c>
    8f4c:	00042503          	lw	a0,0(s0)
    8f50:	00b7e5b3          	or	a1,a5,a1
    8f54:	00060913          	mv	s2,a2
    8f58:	ffb57513          	andi	a0,a0,-5
    8f5c:	00a42023          	sw	a0,0(s0)
    8f60:	02058463          	beqz	a1,8f88 <_printf_i+0x190>
    8f64:	00060913          	mv	s2,a2
    8f68:	02e7f5b3          	remu	a1,a5,a4
    8f6c:	fff90913          	addi	s2,s2,-1
    8f70:	00b685b3          	add	a1,a3,a1
    8f74:	0005c583          	lbu	a1,0(a1)
    8f78:	00b90023          	sb	a1,0(s2)
    8f7c:	00078593          	mv	a1,a5
    8f80:	02e7d7b3          	divu	a5,a5,a4
    8f84:	fee5f2e3          	bgeu	a1,a4,8f68 <_printf_i+0x170>
    8f88:	00800793          	li	a5,8
    8f8c:	02f71463          	bne	a4,a5,8fb4 <_printf_i+0x1bc>
    8f90:	00042783          	lw	a5,0(s0)
    8f94:	0017f793          	andi	a5,a5,1
    8f98:	00078e63          	beqz	a5,8fb4 <_printf_i+0x1bc>
    8f9c:	00442703          	lw	a4,4(s0)
    8fa0:	01042783          	lw	a5,16(s0)
    8fa4:	00e7c863          	blt	a5,a4,8fb4 <_printf_i+0x1bc>
    8fa8:	03000793          	li	a5,48
    8fac:	fef90fa3          	sb	a5,-1(s2)
    8fb0:	fff90913          	addi	s2,s2,-1
    8fb4:	41260633          	sub	a2,a2,s2
    8fb8:	00c42823          	sw	a2,16(s0)
    8fbc:	00048713          	mv	a4,s1
    8fc0:	000a8693          	mv	a3,s5
    8fc4:	01c10613          	addi	a2,sp,28
    8fc8:	00040593          	mv	a1,s0
    8fcc:	000a0513          	mv	a0,s4
    8fd0:	c7dff0ef          	jal	8c4c <_printf_common>
    8fd4:	fff00993          	li	s3,-1
    8fd8:	03350c63          	beq	a0,s3,9010 <_printf_i+0x218>
    8fdc:	01042683          	lw	a3,16(s0)
    8fe0:	00090613          	mv	a2,s2
    8fe4:	000a8593          	mv	a1,s5
    8fe8:	000a0513          	mv	a0,s4
    8fec:	000480e7          	jalr	s1
    8ff0:	03350063          	beq	a0,s3,9010 <_printf_i+0x218>
    8ff4:	00042783          	lw	a5,0(s0)
    8ff8:	0027f793          	andi	a5,a5,2
    8ffc:	16079e63          	bnez	a5,9178 <_printf_i+0x380>
    9000:	01c12783          	lw	a5,28(sp)
    9004:	00c42503          	lw	a0,12(s0)
    9008:	00f55463          	bge	a0,a5,9010 <_printf_i+0x218>
    900c:	00078513          	mv	a0,a5
    9010:	03c12083          	lw	ra,60(sp)
    9014:	03812403          	lw	s0,56(sp)
    9018:	03412483          	lw	s1,52(sp)
    901c:	03012903          	lw	s2,48(sp)
    9020:	02c12983          	lw	s3,44(sp)
    9024:	02812a03          	lw	s4,40(sp)
    9028:	02412a83          	lw	s5,36(sp)
    902c:	04010113          	addi	sp,sp,64
    9030:	00008067          	ret
    9034:	00042783          	lw	a5,0(s0)
    9038:	0207e793          	ori	a5,a5,32
    903c:	00f42023          	sw	a5,0(s0)
    9040:	07800793          	li	a5,120
    9044:	000206b7          	lui	a3,0x20
    9048:	61068693          	addi	a3,a3,1552 # 20610 <__clz_tab+0x320>
    904c:	00c0006f          	j	9058 <_printf_i+0x260>
    9050:	000206b7          	lui	a3,0x20
    9054:	5fc68693          	addi	a3,a3,1532 # 205fc <__clz_tab+0x30c>
    9058:	00042583          	lw	a1,0(s0)
    905c:	04f402a3          	sb	a5,69(s0)
    9060:	00072783          	lw	a5,0(a4)
    9064:	0805f813          	andi	a6,a1,128
    9068:	00478513          	addi	a0,a5,4
    906c:	00080863          	beqz	a6,907c <_printf_i+0x284>
    9070:	00a72023          	sw	a0,0(a4)
    9074:	0007a783          	lw	a5,0(a5)
    9078:	0140006f          	j	908c <_printf_i+0x294>
    907c:	0405f813          	andi	a6,a1,64
    9080:	00a72023          	sw	a0,0(a4)
    9084:	fe0808e3          	beqz	a6,9074 <_printf_i+0x27c>
    9088:	0007d783          	lhu	a5,0(a5)
    908c:	0015f713          	andi	a4,a1,1
    9090:	00070663          	beqz	a4,909c <_printf_i+0x2a4>
    9094:	0205e593          	ori	a1,a1,32
    9098:	00b42023          	sw	a1,0(s0)
    909c:	00078663          	beqz	a5,90a8 <_printf_i+0x2b0>
    90a0:	01000713          	li	a4,16
    90a4:	e99ff06f          	j	8f3c <_printf_i+0x144>
    90a8:	00042703          	lw	a4,0(s0)
    90ac:	fdf77713          	andi	a4,a4,-33
    90b0:	00e42023          	sw	a4,0(s0)
    90b4:	fedff06f          	j	90a0 <_printf_i+0x2a8>
    90b8:	00a00713          	li	a4,10
    90bc:	e81ff06f          	j	8f3c <_printf_i+0x144>
    90c0:	00042683          	lw	a3,0(s0)
    90c4:	00072783          	lw	a5,0(a4)
    90c8:	01442583          	lw	a1,20(s0)
    90cc:	0806f813          	andi	a6,a3,128
    90d0:	00478513          	addi	a0,a5,4
    90d4:	00080a63          	beqz	a6,90e8 <_printf_i+0x2f0>
    90d8:	00a72023          	sw	a0,0(a4)
    90dc:	0007a783          	lw	a5,0(a5)
    90e0:	00b7a023          	sw	a1,0(a5)
    90e4:	0180006f          	j	90fc <_printf_i+0x304>
    90e8:	00a72023          	sw	a0,0(a4)
    90ec:	0406f693          	andi	a3,a3,64
    90f0:	0007a783          	lw	a5,0(a5)
    90f4:	fe0686e3          	beqz	a3,90e0 <_printf_i+0x2e8>
    90f8:	00b79023          	sh	a1,0(a5)
    90fc:	00042823          	sw	zero,16(s0)
    9100:	00060913          	mv	s2,a2
    9104:	eb9ff06f          	j	8fbc <_printf_i+0x1c4>
    9108:	00072783          	lw	a5,0(a4)
    910c:	00442603          	lw	a2,4(s0)
    9110:	00000593          	li	a1,0
    9114:	00478693          	addi	a3,a5,4
    9118:	00d72023          	sw	a3,0(a4)
    911c:	0007a903          	lw	s2,0(a5)
    9120:	00090513          	mv	a0,s2
    9124:	248000ef          	jal	936c <memchr>
    9128:	00050663          	beqz	a0,9134 <_printf_i+0x33c>
    912c:	41250533          	sub	a0,a0,s2
    9130:	00a42223          	sw	a0,4(s0)
    9134:	00442783          	lw	a5,4(s0)
    9138:	00f42823          	sw	a5,16(s0)
    913c:	040401a3          	sb	zero,67(s0)
    9140:	e7dff06f          	j	8fbc <_printf_i+0x1c4>
    9144:	00100693          	li	a3,1
    9148:	000a8593          	mv	a1,s5
    914c:	000a0513          	mv	a0,s4
    9150:	00c12623          	sw	a2,12(sp)
    9154:	000480e7          	jalr	s1
    9158:	eb350ce3          	beq	a0,s3,9010 <_printf_i+0x218>
    915c:	00c12603          	lw	a2,12(sp)
    9160:	00190913          	addi	s2,s2,1
    9164:	00c42783          	lw	a5,12(s0)
    9168:	01c12703          	lw	a4,28(sp)
    916c:	40e787b3          	sub	a5,a5,a4
    9170:	fcf94ae3          	blt	s2,a5,9144 <_printf_i+0x34c>
    9174:	e8dff06f          	j	9000 <_printf_i+0x208>
    9178:	00000913          	li	s2,0
    917c:	01940613          	addi	a2,s0,25
    9180:	fe5ff06f          	j	9164 <_printf_i+0x36c>

00009184 <__swhatbuf_r>:
    9184:	f8010113          	addi	sp,sp,-128
    9188:	06812c23          	sw	s0,120(sp)
    918c:	00058413          	mv	s0,a1
    9190:	00e59583          	lh	a1,14(a1)
    9194:	06912a23          	sw	s1,116(sp)
    9198:	06112e23          	sw	ra,124(sp)
    919c:	00060493          	mv	s1,a2
    91a0:	0005cc63          	bltz	a1,91b8 <__swhatbuf_r+0x34>
    91a4:	01810613          	addi	a2,sp,24
    91a8:	00d12623          	sw	a3,12(sp)
    91ac:	12c000ef          	jal	92d8 <_fstat_r>
    91b0:	00c12683          	lw	a3,12(sp)
    91b4:	02055c63          	bgez	a0,91ec <__swhatbuf_r+0x68>
    91b8:	00c45783          	lhu	a5,12(s0)
    91bc:	0807f793          	andi	a5,a5,128
    91c0:	04078263          	beqz	a5,9204 <__swhatbuf_r+0x80>
    91c4:	00000793          	li	a5,0
    91c8:	04000713          	li	a4,64
    91cc:	07c12083          	lw	ra,124(sp)
    91d0:	07812403          	lw	s0,120(sp)
    91d4:	00f6a023          	sw	a5,0(a3)
    91d8:	00e4a023          	sw	a4,0(s1)
    91dc:	00000513          	li	a0,0
    91e0:	07412483          	lw	s1,116(sp)
    91e4:	08010113          	addi	sp,sp,128
    91e8:	00008067          	ret
    91ec:	01c12783          	lw	a5,28(sp)
    91f0:	0000f737          	lui	a4,0xf
    91f4:	00e7f7b3          	and	a5,a5,a4
    91f8:	ffffe737          	lui	a4,0xffffe
    91fc:	00e787b3          	add	a5,a5,a4
    9200:	0017b793          	seqz	a5,a5
    9204:	40000713          	li	a4,1024
    9208:	fc5ff06f          	j	91cc <__swhatbuf_r+0x48>

0000920c <__smakebuf_r>:
    920c:	00c5d703          	lhu	a4,12(a1)
    9210:	fd010113          	addi	sp,sp,-48
    9214:	02812423          	sw	s0,40(sp)
    9218:	02112623          	sw	ra,44(sp)
    921c:	02912223          	sw	s1,36(sp)
    9220:	00277713          	andi	a4,a4,2
    9224:	00058413          	mv	s0,a1
    9228:	02070663          	beqz	a4,9254 <__smakebuf_r+0x48>
    922c:	04740793          	addi	a5,s0,71
    9230:	00f42023          	sw	a5,0(s0)
    9234:	00f42823          	sw	a5,16(s0)
    9238:	00100793          	li	a5,1
    923c:	00f42a23          	sw	a5,20(s0)
    9240:	02c12083          	lw	ra,44(sp)
    9244:	02812403          	lw	s0,40(sp)
    9248:	02412483          	lw	s1,36(sp)
    924c:	03010113          	addi	sp,sp,48
    9250:	00008067          	ret
    9254:	01c10693          	addi	a3,sp,28
    9258:	01810613          	addi	a2,sp,24
    925c:	00050493          	mv	s1,a0
    9260:	f25ff0ef          	jal	9184 <__swhatbuf_r>
    9264:	01812583          	lw	a1,24(sp)
    9268:	00048513          	mv	a0,s1
    926c:	00b12623          	sw	a1,12(sp)
    9270:	db1fe0ef          	jal	8020 <_malloc_r>
    9274:	00c41783          	lh	a5,12(s0)
    9278:	00c12583          	lw	a1,12(sp)
    927c:	00051e63          	bnez	a0,9298 <__smakebuf_r+0x8c>
    9280:	2007f713          	andi	a4,a5,512
    9284:	fa071ee3          	bnez	a4,9240 <__smakebuf_r+0x34>
    9288:	ffc7f793          	andi	a5,a5,-4
    928c:	0027e793          	ori	a5,a5,2
    9290:	00f41623          	sh	a5,12(s0)
    9294:	f99ff06f          	j	922c <__smakebuf_r+0x20>
    9298:	0807e793          	ori	a5,a5,128
    929c:	00f41623          	sh	a5,12(s0)
    92a0:	01c12783          	lw	a5,28(sp)
    92a4:	00a42023          	sw	a0,0(s0)
    92a8:	00a42823          	sw	a0,16(s0)
    92ac:	00b42a23          	sw	a1,20(s0)
    92b0:	f80788e3          	beqz	a5,9240 <__smakebuf_r+0x34>
    92b4:	00e41583          	lh	a1,14(s0)
    92b8:	00048513          	mv	a0,s1
    92bc:	068000ef          	jal	9324 <_isatty_r>
    92c0:	f80500e3          	beqz	a0,9240 <__smakebuf_r+0x34>
    92c4:	00c45783          	lhu	a5,12(s0)
    92c8:	ffc7f793          	andi	a5,a5,-4
    92cc:	0017e793          	ori	a5,a5,1
    92d0:	00f41623          	sh	a5,12(s0)
    92d4:	f6dff06f          	j	9240 <__smakebuf_r+0x34>

000092d8 <_fstat_r>:
    92d8:	ff010113          	addi	sp,sp,-16
    92dc:	00812423          	sw	s0,8(sp)
    92e0:	00912223          	sw	s1,4(sp)
    92e4:	00050493          	mv	s1,a0
    92e8:	00058513          	mv	a0,a1
    92ec:	00060593          	mv	a1,a2
    92f0:	00112623          	sw	ra,12(sp)
    92f4:	9401ac23          	sw	zero,-1704(gp) # 21d5c <errno>
    92f8:	94cfe0ef          	jal	7444 <_fstat>
    92fc:	fff00793          	li	a5,-1
    9300:	00f51863          	bne	a0,a5,9310 <_fstat_r+0x38>
    9304:	9581a783          	lw	a5,-1704(gp) # 21d5c <errno>
    9308:	00078463          	beqz	a5,9310 <_fstat_r+0x38>
    930c:	00f4a023          	sw	a5,0(s1)
    9310:	00c12083          	lw	ra,12(sp)
    9314:	00812403          	lw	s0,8(sp)
    9318:	00412483          	lw	s1,4(sp)
    931c:	01010113          	addi	sp,sp,16
    9320:	00008067          	ret

00009324 <_isatty_r>:
    9324:	ff010113          	addi	sp,sp,-16
    9328:	00812423          	sw	s0,8(sp)
    932c:	00912223          	sw	s1,4(sp)
    9330:	00050493          	mv	s1,a0
    9334:	00058513          	mv	a0,a1
    9338:	00112623          	sw	ra,12(sp)
    933c:	9401ac23          	sw	zero,-1704(gp) # 21d5c <errno>
    9340:	914fe0ef          	jal	7454 <_isatty>
    9344:	fff00793          	li	a5,-1
    9348:	00f51863          	bne	a0,a5,9358 <_isatty_r+0x34>
    934c:	9581a783          	lw	a5,-1704(gp) # 21d5c <errno>
    9350:	00078463          	beqz	a5,9358 <_isatty_r+0x34>
    9354:	00f4a023          	sw	a5,0(s1)
    9358:	00c12083          	lw	ra,12(sp)
    935c:	00812403          	lw	s0,8(sp)
    9360:	00412483          	lw	s1,4(sp)
    9364:	01010113          	addi	sp,sp,16
    9368:	00008067          	ret

0000936c <memchr>:
    936c:	0ff5f593          	zext.b	a1,a1
    9370:	00c50633          	add	a2,a0,a2
    9374:	00c51663          	bne	a0,a2,9380 <memchr+0x14>
    9378:	00000513          	li	a0,0
    937c:	00008067          	ret
    9380:	00054783          	lbu	a5,0(a0)
    9384:	feb78ce3          	beq	a5,a1,937c <memchr+0x10>
    9388:	00150513          	addi	a0,a0,1
    938c:	fe9ff06f          	j	9374 <memchr+0x8>

00009390 <sqrt>:
    9390:	fe010113          	addi	sp,sp,-32
    9394:	00812c23          	sw	s0,24(sp)
    9398:	00912a23          	sw	s1,20(sp)
    939c:	01212823          	sw	s2,16(sp)
    93a0:	01312623          	sw	s3,12(sp)
    93a4:	00050913          	mv	s2,a0
    93a8:	00058993          	mv	s3,a1
    93ac:	00112e23          	sw	ra,28(sp)
    93b0:	088000ef          	jal	9438 <__ieee754_sqrt>
    93b4:	00050493          	mv	s1,a0
    93b8:	00058413          	mv	s0,a1
    93bc:	00090613          	mv	a2,s2
    93c0:	00098693          	mv	a3,s3
    93c4:	00090513          	mv	a0,s2
    93c8:	00098593          	mv	a1,s3
    93cc:	6d5010ef          	jal	b2a0 <__unorddf2>
    93d0:	04051263          	bnez	a0,9414 <sqrt+0x84>
    93d4:	00000613          	li	a2,0
    93d8:	00000693          	li	a3,0
    93dc:	00090513          	mv	a0,s2
    93e0:	00098593          	mv	a1,s3
    93e4:	35c020ef          	jal	b740 <__ledf2>
    93e8:	02055663          	bgez	a0,9414 <sqrt+0x84>
    93ec:	c18ff0ef          	jal	8804 <__errno>
    93f0:	02100793          	li	a5,33
    93f4:	00000613          	li	a2,0
    93f8:	00000693          	li	a3,0
    93fc:	00f52023          	sw	a5,0(a0)
    9400:	00068593          	mv	a1,a3
    9404:	00060513          	mv	a0,a2
    9408:	255000ef          	jal	9e5c <__divdf3>
    940c:	00050493          	mv	s1,a0
    9410:	00058413          	mv	s0,a1
    9414:	01c12083          	lw	ra,28(sp)
    9418:	00040593          	mv	a1,s0
    941c:	01812403          	lw	s0,24(sp)
    9420:	01012903          	lw	s2,16(sp)
    9424:	00c12983          	lw	s3,12(sp)
    9428:	00048513          	mv	a0,s1
    942c:	01412483          	lw	s1,20(sp)
    9430:	02010113          	addi	sp,sp,32
    9434:	00008067          	ret

00009438 <__ieee754_sqrt>:
    9438:	fd010113          	addi	sp,sp,-48
    943c:	7ff007b7          	lui	a5,0x7ff00
    9440:	02812423          	sw	s0,40(sp)
    9444:	02912223          	sw	s1,36(sp)
    9448:	02112623          	sw	ra,44(sp)
    944c:	03212023          	sw	s2,32(sp)
    9450:	01312e23          	sw	s3,28(sp)
    9454:	01412c23          	sw	s4,24(sp)
    9458:	01512a23          	sw	s5,20(sp)
    945c:	01612823          	sw	s6,16(sp)
    9460:	01712623          	sw	s7,12(sp)
    9464:	00b7f733          	and	a4,a5,a1
    9468:	00050493          	mv	s1,a0
    946c:	00058413          	mv	s0,a1
    9470:	06f71063          	bne	a4,a5,94d0 <__ieee754_sqrt+0x98>
    9474:	00050613          	mv	a2,a0
    9478:	00058693          	mv	a3,a1
    947c:	0e0010ef          	jal	a55c <__muldf3>
    9480:	00050613          	mv	a2,a0
    9484:	00058693          	mv	a3,a1
    9488:	00048513          	mv	a0,s1
    948c:	00040593          	mv	a1,s0
    9490:	280000ef          	jal	9710 <__adddf3>
    9494:	00050493          	mv	s1,a0
    9498:	00058413          	mv	s0,a1
    949c:	02c12083          	lw	ra,44(sp)
    94a0:	00040593          	mv	a1,s0
    94a4:	02812403          	lw	s0,40(sp)
    94a8:	02012903          	lw	s2,32(sp)
    94ac:	01c12983          	lw	s3,28(sp)
    94b0:	01812a03          	lw	s4,24(sp)
    94b4:	01412a83          	lw	s5,20(sp)
    94b8:	01012b03          	lw	s6,16(sp)
    94bc:	00c12b83          	lw	s7,12(sp)
    94c0:	00048513          	mv	a0,s1
    94c4:	02412483          	lw	s1,36(sp)
    94c8:	03010113          	addi	sp,sp,48
    94cc:	00008067          	ret
    94d0:	00058713          	mv	a4,a1
    94d4:	00050793          	mv	a5,a0
    94d8:	02b04c63          	bgtz	a1,9510 <__ieee754_sqrt+0xd8>
    94dc:	00159693          	slli	a3,a1,0x1
    94e0:	0016d693          	srli	a3,a3,0x1
    94e4:	00a6e6b3          	or	a3,a3,a0
    94e8:	fa068ae3          	beqz	a3,949c <__ieee754_sqrt+0x64>
    94ec:	00000693          	li	a3,0
    94f0:	02058e63          	beqz	a1,952c <__ieee754_sqrt+0xf4>
    94f4:	00050613          	mv	a2,a0
    94f8:	00058693          	mv	a3,a1
    94fc:	648010ef          	jal	ab44 <__subdf3>
    9500:	00050613          	mv	a2,a0
    9504:	00058693          	mv	a3,a1
    9508:	155000ef          	jal	9e5c <__divdf3>
    950c:	f89ff06f          	j	9494 <__ieee754_sqrt+0x5c>
    9510:	4145d693          	srai	a3,a1,0x14
    9514:	04069663          	bnez	a3,9560 <__ieee754_sqrt+0x128>
    9518:	00000613          	li	a2,0
    951c:	0200006f          	j	953c <__ieee754_sqrt+0x104>
    9520:	00b7d713          	srli	a4,a5,0xb
    9524:	feb68693          	addi	a3,a3,-21
    9528:	01579793          	slli	a5,a5,0x15
    952c:	fe070ae3          	beqz	a4,9520 <__ieee754_sqrt+0xe8>
    9530:	fe9ff06f          	j	9518 <__ieee754_sqrt+0xe0>
    9534:	00171713          	slli	a4,a4,0x1
    9538:	00160613          	addi	a2,a2,1
    953c:	00b71593          	slli	a1,a4,0xb
    9540:	fe05dae3          	bgez	a1,9534 <__ieee754_sqrt+0xfc>
    9544:	fff60593          	addi	a1,a2,-1
    9548:	40b686b3          	sub	a3,a3,a1
    954c:	02000593          	li	a1,32
    9550:	40c585b3          	sub	a1,a1,a2
    9554:	00b7d5b3          	srl	a1,a5,a1
    9558:	00b76733          	or	a4,a4,a1
    955c:	00c797b3          	sll	a5,a5,a2
    9560:	c0168613          	addi	a2,a3,-1023
    9564:	00c71693          	slli	a3,a4,0xc
    9568:	00c6d693          	srli	a3,a3,0xc
    956c:	00100737          	lui	a4,0x100
    9570:	00e6e6b3          	or	a3,a3,a4
    9574:	00167713          	andi	a4,a2,1
    9578:	00070a63          	beqz	a4,958c <__ieee754_sqrt+0x154>
    957c:	01f7d713          	srli	a4,a5,0x1f
    9580:	00169693          	slli	a3,a3,0x1
    9584:	00d706b3          	add	a3,a4,a3
    9588:	00179793          	slli	a5,a5,0x1
    958c:	01f7d713          	srli	a4,a5,0x1f
    9590:	00169693          	slli	a3,a3,0x1
    9594:	40165413          	srai	s0,a2,0x1
    9598:	00d70733          	add	a4,a4,a3
    959c:	00179793          	slli	a5,a5,0x1
    95a0:	01600693          	li	a3,22
    95a4:	00000993          	li	s3,0
    95a8:	00000613          	li	a2,0
    95ac:	002005b7          	lui	a1,0x200
    95b0:	00b60533          	add	a0,a2,a1
    95b4:	00a74863          	blt	a4,a0,95c4 <__ieee754_sqrt+0x18c>
    95b8:	00b50633          	add	a2,a0,a1
    95bc:	40a70733          	sub	a4,a4,a0
    95c0:	00b989b3          	add	s3,s3,a1
    95c4:	01f7d513          	srli	a0,a5,0x1f
    95c8:	00171713          	slli	a4,a4,0x1
    95cc:	fff68693          	addi	a3,a3,-1
    95d0:	00e50733          	add	a4,a0,a4
    95d4:	00179793          	slli	a5,a5,0x1
    95d8:	0015d593          	srli	a1,a1,0x1
    95dc:	fc069ae3          	bnez	a3,95b0 <__ieee754_sqrt+0x178>
    95e0:	00000913          	li	s2,0
    95e4:	02000a13          	li	s4,32
    95e8:	800005b7          	lui	a1,0x80000
    95ec:	00d58833          	add	a6,a1,a3
    95f0:	40c708b3          	sub	a7,a4,a2
    95f4:	00e64663          	blt	a2,a4,9600 <__ieee754_sqrt+0x1c8>
    95f8:	02089663          	bnez	a7,9624 <__ieee754_sqrt+0x1ec>
    95fc:	0307e463          	bltu	a5,a6,9624 <__ieee754_sqrt+0x1ec>
    9600:	00b806b3          	add	a3,a6,a1
    9604:	fff6c513          	not	a0,a3
    9608:	01057533          	and	a0,a0,a6
    960c:	0107b733          	sltu	a4,a5,a6
    9610:	01f55513          	srli	a0,a0,0x1f
    9614:	40e88733          	sub	a4,a7,a4
    9618:	410787b3          	sub	a5,a5,a6
    961c:	00b90933          	add	s2,s2,a1
    9620:	00c50633          	add	a2,a0,a2
    9624:	01f7d513          	srli	a0,a5,0x1f
    9628:	00171713          	slli	a4,a4,0x1
    962c:	fffa0a13          	addi	s4,s4,-1
    9630:	00e50733          	add	a4,a0,a4
    9634:	00179793          	slli	a5,a5,0x1
    9638:	0015d593          	srli	a1,a1,0x1
    963c:	fa0a18e3          	bnez	s4,95ec <__ieee754_sqrt+0x1b4>
    9640:	00f76733          	or	a4,a4,a5
    9644:	04070063          	beqz	a4,9684 <__ieee754_sqrt+0x24c>
    9648:	9441a503          	lw	a0,-1724(gp) # 21d48 <one>
    964c:	9481a583          	lw	a1,-1720(gp) # 21d4c <one+0x4>
    9650:	93c1a603          	lw	a2,-1732(gp) # 21d40 <tiny>
    9654:	9401a683          	lw	a3,-1728(gp) # 21d44 <tiny+0x4>
    9658:	9441a783          	lw	a5,-1724(gp) # 21d48 <one>
    965c:	9481a803          	lw	a6,-1720(gp) # 21d4c <one+0x4>
    9660:	00078b13          	mv	s6,a5
    9664:	00080b93          	mv	s7,a6
    9668:	4dc010ef          	jal	ab44 <__subdf3>
    966c:	00050613          	mv	a2,a0
    9670:	00058693          	mv	a3,a1
    9674:	000b0513          	mv	a0,s6
    9678:	000b8593          	mv	a1,s7
    967c:	0c4020ef          	jal	b740 <__ledf2>
    9680:	02a05663          	blez	a0,96ac <__ieee754_sqrt+0x274>
    9684:	00090a13          	mv	s4,s2
    9688:	3fe007b7          	lui	a5,0x3fe00
    968c:	4019d593          	srai	a1,s3,0x1
    9690:	00f585b3          	add	a1,a1,a5
    9694:	01441613          	slli	a2,s0,0x14
    9698:	01f99793          	slli	a5,s3,0x1f
    969c:	001a5713          	srli	a4,s4,0x1
    96a0:	00e7e4b3          	or	s1,a5,a4
    96a4:	00b60433          	add	s0,a2,a1
    96a8:	df5ff06f          	j	949c <__ieee754_sqrt+0x64>
    96ac:	9441a503          	lw	a0,-1724(gp) # 21d48 <one>
    96b0:	9481a583          	lw	a1,-1720(gp) # 21d4c <one+0x4>
    96b4:	93c1a603          	lw	a2,-1732(gp) # 21d40 <tiny>
    96b8:	9401a683          	lw	a3,-1728(gp) # 21d44 <tiny+0x4>
    96bc:	fff00793          	li	a5,-1
    96c0:	00f91663          	bne	s2,a5,96cc <__ieee754_sqrt+0x294>
    96c4:	00198993          	addi	s3,s3,1
    96c8:	fc1ff06f          	j	9688 <__ieee754_sqrt+0x250>
    96cc:	9441aa03          	lw	s4,-1724(gp) # 21d48 <one>
    96d0:	9481aa83          	lw	s5,-1720(gp) # 21d4c <one+0x4>
    96d4:	03c000ef          	jal	9710 <__adddf3>
    96d8:	00050613          	mv	a2,a0
    96dc:	00058693          	mv	a3,a1
    96e0:	000a0513          	mv	a0,s4
    96e4:	000a8593          	mv	a1,s5
    96e8:	058020ef          	jal	b740 <__ledf2>
    96ec:	00055c63          	bgez	a0,9704 <__ieee754_sqrt+0x2cc>
    96f0:	00290713          	addi	a4,s2,2
    96f4:	00173793          	seqz	a5,a4
    96f8:	00f989b3          	add	s3,s3,a5
    96fc:	00070a13          	mv	s4,a4
    9700:	f89ff06f          	j	9688 <__ieee754_sqrt+0x250>
    9704:	00190713          	addi	a4,s2,1
    9708:	ffe77a13          	andi	s4,a4,-2
    970c:	f7dff06f          	j	9688 <__ieee754_sqrt+0x250>

00009710 <__adddf3>:
    9710:	00c59793          	slli	a5,a1,0xc
    9714:	fe010113          	addi	sp,sp,-32
    9718:	01d55713          	srli	a4,a0,0x1d
    971c:	0097d793          	srli	a5,a5,0x9
    9720:	0146d893          	srli	a7,a3,0x14
    9724:	00812c23          	sw	s0,24(sp)
    9728:	00f767b3          	or	a5,a4,a5
    972c:	0145d413          	srli	s0,a1,0x14
    9730:	00c69713          	slli	a4,a3,0xc
    9734:	00912a23          	sw	s1,20(sp)
    9738:	7ff47413          	andi	s0,s0,2047
    973c:	01f5d493          	srli	s1,a1,0x1f
    9740:	7ff8f893          	andi	a7,a7,2047
    9744:	01d65593          	srli	a1,a2,0x1d
    9748:	00975713          	srli	a4,a4,0x9
    974c:	00112e23          	sw	ra,28(sp)
    9750:	01212823          	sw	s2,16(sp)
    9754:	01312623          	sw	s3,12(sp)
    9758:	01f6d693          	srli	a3,a3,0x1f
    975c:	00351513          	slli	a0,a0,0x3
    9760:	00e5e733          	or	a4,a1,a4
    9764:	00361613          	slli	a2,a2,0x3
    9768:	41140833          	sub	a6,s0,a7
    976c:	7ff00313          	li	t1,2047
    9770:	30d49663          	bne	s1,a3,9a7c <__adddf3+0x36c>
    9774:	17005663          	blez	a6,98e0 <__adddf3+0x1d0>
    9778:	0a089063          	bnez	a7,9818 <__adddf3+0x108>
    977c:	00c766b3          	or	a3,a4,a2
    9780:	02068463          	beqz	a3,97a8 <__adddf3+0x98>
    9784:	fff40813          	addi	a6,s0,-1
    9788:	00081e63          	bnez	a6,97a4 <__adddf3+0x94>
    978c:	00c50633          	add	a2,a0,a2
    9790:	00e787b3          	add	a5,a5,a4
    9794:	00a63533          	sltu	a0,a2,a0
    9798:	00a78733          	add	a4,a5,a0
    979c:	00100413          	li	s0,1
    97a0:	0c80006f          	j	9868 <__adddf3+0x158>
    97a4:	08641063          	bne	s0,t1,9824 <__adddf3+0x114>
    97a8:	01d79713          	slli	a4,a5,0x1d
    97ac:	00355513          	srli	a0,a0,0x3
    97b0:	7ff00693          	li	a3,2047
    97b4:	00a76733          	or	a4,a4,a0
    97b8:	0037d793          	srli	a5,a5,0x3
    97bc:	00d41e63          	bne	s0,a3,97d8 <__adddf3+0xc8>
    97c0:	00f76733          	or	a4,a4,a5
    97c4:	00000793          	li	a5,0
    97c8:	00070863          	beqz	a4,97d8 <__adddf3+0xc8>
    97cc:	000807b7          	lui	a5,0x80
    97d0:	00000713          	li	a4,0
    97d4:	00000493          	li	s1,0
    97d8:	7ff47413          	andi	s0,s0,2047
    97dc:	00c79793          	slli	a5,a5,0xc
    97e0:	00c7d793          	srli	a5,a5,0xc
    97e4:	01441413          	slli	s0,s0,0x14
    97e8:	01f49593          	slli	a1,s1,0x1f
    97ec:	00f46433          	or	s0,s0,a5
    97f0:	01c12083          	lw	ra,28(sp)
    97f4:	00b467b3          	or	a5,s0,a1
    97f8:	01812403          	lw	s0,24(sp)
    97fc:	01412483          	lw	s1,20(sp)
    9800:	01012903          	lw	s2,16(sp)
    9804:	00c12983          	lw	s3,12(sp)
    9808:	00070513          	mv	a0,a4
    980c:	00078593          	mv	a1,a5
    9810:	02010113          	addi	sp,sp,32
    9814:	00008067          	ret
    9818:	28640c63          	beq	s0,t1,9ab0 <__adddf3+0x3a0>
    981c:	008006b7          	lui	a3,0x800
    9820:	00d76733          	or	a4,a4,a3
    9824:	03800693          	li	a3,56
    9828:	0b06c663          	blt	a3,a6,98d4 <__adddf3+0x1c4>
    982c:	01f00693          	li	a3,31
    9830:	02000893          	li	a7,32
    9834:	0706c863          	blt	a3,a6,98a4 <__adddf3+0x194>
    9838:	410888b3          	sub	a7,a7,a6
    983c:	011716b3          	sll	a3,a4,a7
    9840:	010655b3          	srl	a1,a2,a6
    9844:	011618b3          	sll	a7,a2,a7
    9848:	00b6e6b3          	or	a3,a3,a1
    984c:	011038b3          	snez	a7,a7
    9850:	0116e6b3          	or	a3,a3,a7
    9854:	01075833          	srl	a6,a4,a6
    9858:	00a68633          	add	a2,a3,a0
    985c:	00f80833          	add	a6,a6,a5
    9860:	00d636b3          	sltu	a3,a2,a3
    9864:	00d80733          	add	a4,a6,a3
    9868:	00871793          	slli	a5,a4,0x8
    986c:	1c07de63          	bgez	a5,9a48 <__adddf3+0x338>
    9870:	00140413          	addi	s0,s0,1
    9874:	7ff00793          	li	a5,2047
    9878:	5af40c63          	beq	s0,a5,9e30 <__adddf3+0x720>
    987c:	ff8007b7          	lui	a5,0xff800
    9880:	fff78793          	addi	a5,a5,-1 # ff7fffff <_sp+0xff7d604f>
    9884:	00f777b3          	and	a5,a4,a5
    9888:	00165713          	srli	a4,a2,0x1
    988c:	00167613          	andi	a2,a2,1
    9890:	00c76733          	or	a4,a4,a2
    9894:	01f79613          	slli	a2,a5,0x1f
    9898:	00e66633          	or	a2,a2,a4
    989c:	0017d713          	srli	a4,a5,0x1
    98a0:	1a80006f          	j	9a48 <__adddf3+0x338>
    98a4:	fe080693          	addi	a3,a6,-32
    98a8:	00d756b3          	srl	a3,a4,a3
    98ac:	00000593          	li	a1,0
    98b0:	01180863          	beq	a6,a7,98c0 <__adddf3+0x1b0>
    98b4:	04000593          	li	a1,64
    98b8:	410585b3          	sub	a1,a1,a6
    98bc:	00b715b3          	sll	a1,a4,a1
    98c0:	00c5e5b3          	or	a1,a1,a2
    98c4:	00b035b3          	snez	a1,a1
    98c8:	00b6e6b3          	or	a3,a3,a1
    98cc:	00000813          	li	a6,0
    98d0:	f89ff06f          	j	9858 <__adddf3+0x148>
    98d4:	00c766b3          	or	a3,a4,a2
    98d8:	00d036b3          	snez	a3,a3
    98dc:	ff1ff06f          	j	98cc <__adddf3+0x1bc>
    98e0:	0c080663          	beqz	a6,99ac <__adddf3+0x29c>
    98e4:	408886b3          	sub	a3,a7,s0
    98e8:	06041a63          	bnez	s0,995c <__adddf3+0x24c>
    98ec:	00a7e5b3          	or	a1,a5,a0
    98f0:	00059a63          	bnez	a1,9904 <__adddf3+0x1f4>
    98f4:	00070793          	mv	a5,a4
    98f8:	00060513          	mv	a0,a2
    98fc:	00068413          	mv	s0,a3
    9900:	ea9ff06f          	j	97a8 <__adddf3+0x98>
    9904:	fff68593          	addi	a1,a3,-1 # 7fffff <_sp+0x7d604f>
    9908:	e80582e3          	beqz	a1,978c <__adddf3+0x7c>
    990c:	fe6684e3          	beq	a3,t1,98f4 <__adddf3+0x1e4>
    9910:	03800693          	li	a3,56
    9914:	08b6c663          	blt	a3,a1,99a0 <__adddf3+0x290>
    9918:	01f00693          	li	a3,31
    991c:	02000313          	li	t1,32
    9920:	04b6c863          	blt	a3,a1,9970 <__adddf3+0x260>
    9924:	40b30333          	sub	t1,t1,a1
    9928:	006796b3          	sll	a3,a5,t1
    992c:	00b55833          	srl	a6,a0,a1
    9930:	00651333          	sll	t1,a0,t1
    9934:	0106e6b3          	or	a3,a3,a6
    9938:	00603333          	snez	t1,t1
    993c:	0066e6b3          	or	a3,a3,t1
    9940:	00b7d5b3          	srl	a1,a5,a1
    9944:	00c68633          	add	a2,a3,a2
    9948:	00e585b3          	add	a1,a1,a4
    994c:	00d636b3          	sltu	a3,a2,a3
    9950:	00d58733          	add	a4,a1,a3
    9954:	00088413          	mv	s0,a7
    9958:	f11ff06f          	j	9868 <__adddf3+0x158>
    995c:	4e688a63          	beq	a7,t1,9e50 <__adddf3+0x740>
    9960:	008005b7          	lui	a1,0x800
    9964:	00b7e7b3          	or	a5,a5,a1
    9968:	00068593          	mv	a1,a3
    996c:	fa5ff06f          	j	9910 <__adddf3+0x200>
    9970:	fe058693          	addi	a3,a1,-32 # 7fffe0 <_sp+0x7d6030>
    9974:	00d7d6b3          	srl	a3,a5,a3
    9978:	00000813          	li	a6,0
    997c:	00658863          	beq	a1,t1,998c <__adddf3+0x27c>
    9980:	04000813          	li	a6,64
    9984:	40b80833          	sub	a6,a6,a1
    9988:	01079833          	sll	a6,a5,a6
    998c:	00a86833          	or	a6,a6,a0
    9990:	01003833          	snez	a6,a6
    9994:	0106e6b3          	or	a3,a3,a6
    9998:	00000593          	li	a1,0
    999c:	fa9ff06f          	j	9944 <__adddf3+0x234>
    99a0:	00a7e6b3          	or	a3,a5,a0
    99a4:	00d036b3          	snez	a3,a3
    99a8:	ff1ff06f          	j	9998 <__adddf3+0x288>
    99ac:	00140693          	addi	a3,s0,1
    99b0:	7fe6f593          	andi	a1,a3,2046
    99b4:	06059663          	bnez	a1,9a20 <__adddf3+0x310>
    99b8:	00a7e6b3          	or	a3,a5,a0
    99bc:	04041263          	bnez	s0,9a00 <__adddf3+0x2f0>
    99c0:	2a068a63          	beqz	a3,9c74 <__adddf3+0x564>
    99c4:	00c766b3          	or	a3,a4,a2
    99c8:	42068e63          	beqz	a3,9e04 <__adddf3+0x6f4>
    99cc:	00c506b3          	add	a3,a0,a2
    99d0:	00e787b3          	add	a5,a5,a4
    99d4:	00a6b533          	sltu	a0,a3,a0
    99d8:	00a78733          	add	a4,a5,a0
    99dc:	00871793          	slli	a5,a4,0x8
    99e0:	00068613          	mv	a2,a3
    99e4:	2807d863          	bgez	a5,9c74 <__adddf3+0x564>
    99e8:	ff8007b7          	lui	a5,0xff800
    99ec:	fff78793          	addi	a5,a5,-1 # ff7fffff <_sp+0xff7d604f>
    99f0:	00f777b3          	and	a5,a4,a5
    99f4:	00068513          	mv	a0,a3
    99f8:	00100413          	li	s0,1
    99fc:	dadff06f          	j	97a8 <__adddf3+0x98>
    9a00:	44068863          	beqz	a3,9e50 <__adddf3+0x740>
    9a04:	00c76733          	or	a4,a4,a2
    9a08:	00030413          	mv	s0,t1
    9a0c:	d8070ee3          	beqz	a4,97a8 <__adddf3+0x98>
    9a10:	00000493          	li	s1,0
    9a14:	004007b7          	lui	a5,0x400
    9a18:	00000513          	li	a0,0
    9a1c:	d8dff06f          	j	97a8 <__adddf3+0x98>
    9a20:	40668663          	beq	a3,t1,9e2c <__adddf3+0x71c>
    9a24:	00c50633          	add	a2,a0,a2
    9a28:	00e787b3          	add	a5,a5,a4
    9a2c:	00a63533          	sltu	a0,a2,a0
    9a30:	00a787b3          	add	a5,a5,a0
    9a34:	01f79713          	slli	a4,a5,0x1f
    9a38:	00165613          	srli	a2,a2,0x1
    9a3c:	00c76633          	or	a2,a4,a2
    9a40:	00068413          	mv	s0,a3
    9a44:	0017d713          	srli	a4,a5,0x1
    9a48:	00767793          	andi	a5,a2,7
    9a4c:	3c079263          	bnez	a5,9e10 <__adddf3+0x700>
    9a50:	00070793          	mv	a5,a4
    9a54:	00060513          	mv	a0,a2
    9a58:	00879713          	slli	a4,a5,0x8
    9a5c:	d40756e3          	bgez	a4,97a8 <__adddf3+0x98>
    9a60:	00140413          	addi	s0,s0,1
    9a64:	7ff00713          	li	a4,2047
    9a68:	3ce40463          	beq	s0,a4,9e30 <__adddf3+0x720>
    9a6c:	ff800737          	lui	a4,0xff800
    9a70:	fff70713          	addi	a4,a4,-1 # ff7fffff <_sp+0xff7d604f>
    9a74:	00e7f7b3          	and	a5,a5,a4
    9a78:	d31ff06f          	j	97a8 <__adddf3+0x98>
    9a7c:	0f005063          	blez	a6,9b5c <__adddf3+0x44c>
    9a80:	02089c63          	bnez	a7,9ab8 <__adddf3+0x3a8>
    9a84:	00c766b3          	or	a3,a4,a2
    9a88:	d20680e3          	beqz	a3,97a8 <__adddf3+0x98>
    9a8c:	fff40813          	addi	a6,s0,-1
    9a90:	00081e63          	bnez	a6,9aac <__adddf3+0x39c>
    9a94:	40c50633          	sub	a2,a0,a2
    9a98:	40e787b3          	sub	a5,a5,a4
    9a9c:	00c53533          	sltu	a0,a0,a2
    9aa0:	40a78733          	sub	a4,a5,a0
    9aa4:	00100413          	li	s0,1
    9aa8:	0600006f          	j	9b08 <__adddf3+0x3f8>
    9aac:	00641c63          	bne	s0,t1,9ac4 <__adddf3+0x3b4>
    9ab0:	7ff00413          	li	s0,2047
    9ab4:	cf5ff06f          	j	97a8 <__adddf3+0x98>
    9ab8:	ce6408e3          	beq	s0,t1,97a8 <__adddf3+0x98>
    9abc:	008006b7          	lui	a3,0x800
    9ac0:	00d76733          	or	a4,a4,a3
    9ac4:	03800693          	li	a3,56
    9ac8:	0906c463          	blt	a3,a6,9b50 <__adddf3+0x440>
    9acc:	01f00693          	li	a3,31
    9ad0:	02000893          	li	a7,32
    9ad4:	0506c663          	blt	a3,a6,9b20 <__adddf3+0x410>
    9ad8:	410888b3          	sub	a7,a7,a6
    9adc:	011716b3          	sll	a3,a4,a7
    9ae0:	010655b3          	srl	a1,a2,a6
    9ae4:	011618b3          	sll	a7,a2,a7
    9ae8:	00b6e6b3          	or	a3,a3,a1
    9aec:	011038b3          	snez	a7,a7
    9af0:	0116e6b3          	or	a3,a3,a7
    9af4:	01075833          	srl	a6,a4,a6
    9af8:	40d50633          	sub	a2,a0,a3
    9afc:	41078833          	sub	a6,a5,a6
    9b00:	00c53533          	sltu	a0,a0,a2
    9b04:	40a80733          	sub	a4,a6,a0
    9b08:	00871793          	slli	a5,a4,0x8
    9b0c:	f207dee3          	bgez	a5,9a48 <__adddf3+0x338>
    9b10:	00971913          	slli	s2,a4,0x9
    9b14:	00995913          	srli	s2,s2,0x9
    9b18:	00060993          	mv	s3,a2
    9b1c:	2040006f          	j	9d20 <__adddf3+0x610>
    9b20:	fe080693          	addi	a3,a6,-32
    9b24:	00d756b3          	srl	a3,a4,a3
    9b28:	00000593          	li	a1,0
    9b2c:	01180863          	beq	a6,a7,9b3c <__adddf3+0x42c>
    9b30:	04000593          	li	a1,64
    9b34:	410585b3          	sub	a1,a1,a6
    9b38:	00b715b3          	sll	a1,a4,a1
    9b3c:	00c5e5b3          	or	a1,a1,a2
    9b40:	00b035b3          	snez	a1,a1
    9b44:	00b6e6b3          	or	a3,a3,a1
    9b48:	00000813          	li	a6,0
    9b4c:	fadff06f          	j	9af8 <__adddf3+0x3e8>
    9b50:	00c766b3          	or	a3,a4,a2
    9b54:	00d036b3          	snez	a3,a3
    9b58:	ff1ff06f          	j	9b48 <__adddf3+0x438>
    9b5c:	0e080a63          	beqz	a6,9c50 <__adddf3+0x540>
    9b60:	40888833          	sub	a6,a7,s0
    9b64:	08041e63          	bnez	s0,9c00 <__adddf3+0x4f0>
    9b68:	00a7e5b3          	or	a1,a5,a0
    9b6c:	00059c63          	bnez	a1,9b84 <__adddf3+0x474>
    9b70:	00068493          	mv	s1,a3
    9b74:	00070793          	mv	a5,a4
    9b78:	00060513          	mv	a0,a2
    9b7c:	00080413          	mv	s0,a6
    9b80:	c29ff06f          	j	97a8 <__adddf3+0x98>
    9b84:	fff80593          	addi	a1,a6,-1
    9b88:	02059063          	bnez	a1,9ba8 <__adddf3+0x498>
    9b8c:	40a60533          	sub	a0,a2,a0
    9b90:	00a635b3          	sltu	a1,a2,a0
    9b94:	40f707b3          	sub	a5,a4,a5
    9b98:	00050613          	mv	a2,a0
    9b9c:	40b78733          	sub	a4,a5,a1
    9ba0:	00068493          	mv	s1,a3
    9ba4:	f01ff06f          	j	9aa4 <__adddf3+0x394>
    9ba8:	fc6804e3          	beq	a6,t1,9b70 <__adddf3+0x460>
    9bac:	03800813          	li	a6,56
    9bb0:	08b84a63          	blt	a6,a1,9c44 <__adddf3+0x534>
    9bb4:	01f00813          	li	a6,31
    9bb8:	02000e13          	li	t3,32
    9bbc:	04b84c63          	blt	a6,a1,9c14 <__adddf3+0x504>
    9bc0:	40be0e33          	sub	t3,t3,a1
    9bc4:	00b55333          	srl	t1,a0,a1
    9bc8:	01c79833          	sll	a6,a5,t3
    9bcc:	01c51e33          	sll	t3,a0,t3
    9bd0:	00686833          	or	a6,a6,t1
    9bd4:	01c03e33          	snez	t3,t3
    9bd8:	01c86533          	or	a0,a6,t3
    9bdc:	00b7d5b3          	srl	a1,a5,a1
    9be0:	40a60533          	sub	a0,a2,a0
    9be4:	00a637b3          	sltu	a5,a2,a0
    9be8:	40b705b3          	sub	a1,a4,a1
    9bec:	00050613          	mv	a2,a0
    9bf0:	40f58733          	sub	a4,a1,a5
    9bf4:	00088413          	mv	s0,a7
    9bf8:	00068493          	mv	s1,a3
    9bfc:	f0dff06f          	j	9b08 <__adddf3+0x3f8>
    9c00:	24688663          	beq	a7,t1,9e4c <__adddf3+0x73c>
    9c04:	008005b7          	lui	a1,0x800
    9c08:	00b7e7b3          	or	a5,a5,a1
    9c0c:	00080593          	mv	a1,a6
    9c10:	f9dff06f          	j	9bac <__adddf3+0x49c>
    9c14:	fe058813          	addi	a6,a1,-32 # 7fffe0 <_sp+0x7d6030>
    9c18:	0107d833          	srl	a6,a5,a6
    9c1c:	00000313          	li	t1,0
    9c20:	01c58863          	beq	a1,t3,9c30 <__adddf3+0x520>
    9c24:	04000313          	li	t1,64
    9c28:	40b30333          	sub	t1,t1,a1
    9c2c:	00679333          	sll	t1,a5,t1
    9c30:	00a36333          	or	t1,t1,a0
    9c34:	00603333          	snez	t1,t1
    9c38:	00686533          	or	a0,a6,t1
    9c3c:	00000593          	li	a1,0
    9c40:	fa1ff06f          	j	9be0 <__adddf3+0x4d0>
    9c44:	00a7e533          	or	a0,a5,a0
    9c48:	00a03533          	snez	a0,a0
    9c4c:	ff1ff06f          	j	9c3c <__adddf3+0x52c>
    9c50:	00140593          	addi	a1,s0,1
    9c54:	7fe5f593          	andi	a1,a1,2046
    9c58:	08059c63          	bnez	a1,9cf0 <__adddf3+0x5e0>
    9c5c:	00a7e833          	or	a6,a5,a0
    9c60:	00c765b3          	or	a1,a4,a2
    9c64:	06041463          	bnez	s0,9ccc <__adddf3+0x5bc>
    9c68:	00081e63          	bnez	a6,9c84 <__adddf3+0x574>
    9c6c:	1c058663          	beqz	a1,9e38 <__adddf3+0x728>
    9c70:	00068493          	mv	s1,a3
    9c74:	00c76533          	or	a0,a4,a2
    9c78:	10050c63          	beqz	a0,9d90 <__adddf3+0x680>
    9c7c:	00000413          	li	s0,0
    9c80:	dc9ff06f          	j	9a48 <__adddf3+0x338>
    9c84:	18058063          	beqz	a1,9e04 <__adddf3+0x6f4>
    9c88:	40c50833          	sub	a6,a0,a2
    9c8c:	010538b3          	sltu	a7,a0,a6
    9c90:	40e785b3          	sub	a1,a5,a4
    9c94:	411585b3          	sub	a1,a1,a7
    9c98:	00859893          	slli	a7,a1,0x8
    9c9c:	0008de63          	bgez	a7,9cb8 <__adddf3+0x5a8>
    9ca0:	40a60533          	sub	a0,a2,a0
    9ca4:	00a635b3          	sltu	a1,a2,a0
    9ca8:	40f707b3          	sub	a5,a4,a5
    9cac:	00050613          	mv	a2,a0
    9cb0:	40b78733          	sub	a4,a5,a1
    9cb4:	fbdff06f          	j	9c70 <__adddf3+0x560>
    9cb8:	00b86533          	or	a0,a6,a1
    9cbc:	18050263          	beqz	a0,9e40 <__adddf3+0x730>
    9cc0:	00058713          	mv	a4,a1
    9cc4:	00080613          	mv	a2,a6
    9cc8:	fadff06f          	j	9c74 <__adddf3+0x564>
    9ccc:	00081c63          	bnez	a6,9ce4 <__adddf3+0x5d4>
    9cd0:	16059e63          	bnez	a1,9e4c <__adddf3+0x73c>
    9cd4:	00000493          	li	s1,0
    9cd8:	00000513          	li	a0,0
    9cdc:	004007b7          	lui	a5,0x400
    9ce0:	dd1ff06f          	j	9ab0 <__adddf3+0x3a0>
    9ce4:	00030413          	mv	s0,t1
    9ce8:	ac0580e3          	beqz	a1,97a8 <__adddf3+0x98>
    9cec:	d25ff06f          	j	9a10 <__adddf3+0x300>
    9cf0:	40c505b3          	sub	a1,a0,a2
    9cf4:	00b53833          	sltu	a6,a0,a1
    9cf8:	40e78933          	sub	s2,a5,a4
    9cfc:	41090933          	sub	s2,s2,a6
    9d00:	00891813          	slli	a6,s2,0x8
    9d04:	00058993          	mv	s3,a1
    9d08:	06085e63          	bgez	a6,9d84 <__adddf3+0x674>
    9d0c:	40a609b3          	sub	s3,a2,a0
    9d10:	40f70933          	sub	s2,a4,a5
    9d14:	01363633          	sltu	a2,a2,s3
    9d18:	40c90933          	sub	s2,s2,a2
    9d1c:	00068493          	mv	s1,a3
    9d20:	06090e63          	beqz	s2,9d9c <__adddf3+0x68c>
    9d24:	00090513          	mv	a0,s2
    9d28:	5c0010ef          	jal	b2e8 <__clzsi2>
    9d2c:	ff850793          	addi	a5,a0,-8
    9d30:	02000713          	li	a4,32
    9d34:	40f70733          	sub	a4,a4,a5
    9d38:	00f91933          	sll	s2,s2,a5
    9d3c:	00e9d733          	srl	a4,s3,a4
    9d40:	01276733          	or	a4,a4,s2
    9d44:	00f99633          	sll	a2,s3,a5
    9d48:	0a87c463          	blt	a5,s0,9df0 <__adddf3+0x6e0>
    9d4c:	408787b3          	sub	a5,a5,s0
    9d50:	00178513          	addi	a0,a5,1 # 400001 <_sp+0x3d6051>
    9d54:	01f00693          	li	a3,31
    9d58:	02000593          	li	a1,32
    9d5c:	06a6c263          	blt	a3,a0,9dc0 <__adddf3+0x6b0>
    9d60:	40a585b3          	sub	a1,a1,a0
    9d64:	00b717b3          	sll	a5,a4,a1
    9d68:	00a656b3          	srl	a3,a2,a0
    9d6c:	00b615b3          	sll	a1,a2,a1
    9d70:	00d7e7b3          	or	a5,a5,a3
    9d74:	00b035b3          	snez	a1,a1
    9d78:	00b7e633          	or	a2,a5,a1
    9d7c:	00a75733          	srl	a4,a4,a0
    9d80:	ef5ff06f          	j	9c74 <__adddf3+0x564>
    9d84:	0125e533          	or	a0,a1,s2
    9d88:	f8051ce3          	bnez	a0,9d20 <__adddf3+0x610>
    9d8c:	00000493          	li	s1,0
    9d90:	00000793          	li	a5,0
    9d94:	00000413          	li	s0,0
    9d98:	a11ff06f          	j	97a8 <__adddf3+0x98>
    9d9c:	00098513          	mv	a0,s3
    9da0:	548010ef          	jal	b2e8 <__clzsi2>
    9da4:	01850793          	addi	a5,a0,24
    9da8:	01f00713          	li	a4,31
    9dac:	f8f752e3          	bge	a4,a5,9d30 <__adddf3+0x620>
    9db0:	ff850713          	addi	a4,a0,-8
    9db4:	00e99733          	sll	a4,s3,a4
    9db8:	00000613          	li	a2,0
    9dbc:	f8dff06f          	j	9d48 <__adddf3+0x638>
    9dc0:	fe178793          	addi	a5,a5,-31
    9dc4:	00f757b3          	srl	a5,a4,a5
    9dc8:	00000693          	li	a3,0
    9dcc:	00b50863          	beq	a0,a1,9ddc <__adddf3+0x6cc>
    9dd0:	04000693          	li	a3,64
    9dd4:	40a686b3          	sub	a3,a3,a0
    9dd8:	00d716b3          	sll	a3,a4,a3
    9ddc:	00d666b3          	or	a3,a2,a3
    9de0:	00d036b3          	snez	a3,a3
    9de4:	00d7e633          	or	a2,a5,a3
    9de8:	00000713          	li	a4,0
    9dec:	e89ff06f          	j	9c74 <__adddf3+0x564>
    9df0:	40f40433          	sub	s0,s0,a5
    9df4:	ff8007b7          	lui	a5,0xff800
    9df8:	fff78793          	addi	a5,a5,-1 # ff7fffff <_sp+0xff7d604f>
    9dfc:	00f77733          	and	a4,a4,a5
    9e00:	c49ff06f          	j	9a48 <__adddf3+0x338>
    9e04:	00078713          	mv	a4,a5
    9e08:	00050613          	mv	a2,a0
    9e0c:	e69ff06f          	j	9c74 <__adddf3+0x564>
    9e10:	00f67793          	andi	a5,a2,15
    9e14:	00400693          	li	a3,4
    9e18:	c2d78ce3          	beq	a5,a3,9a50 <__adddf3+0x340>
    9e1c:	00d60533          	add	a0,a2,a3
    9e20:	00c537b3          	sltu	a5,a0,a2
    9e24:	00e787b3          	add	a5,a5,a4
    9e28:	c31ff06f          	j	9a58 <__adddf3+0x348>
    9e2c:	00068413          	mv	s0,a3
    9e30:	00000793          	li	a5,0
    9e34:	be5ff06f          	j	9a18 <__adddf3+0x308>
    9e38:	00000493          	li	s1,0
    9e3c:	ff5ff06f          	j	9e30 <__adddf3+0x720>
    9e40:	00000493          	li	s1,0
    9e44:	00000793          	li	a5,0
    9e48:	961ff06f          	j	97a8 <__adddf3+0x98>
    9e4c:	00068493          	mv	s1,a3
    9e50:	00070793          	mv	a5,a4
    9e54:	00060513          	mv	a0,a2
    9e58:	c59ff06f          	j	9ab0 <__adddf3+0x3a0>

00009e5c <__divdf3>:
    9e5c:	fd010113          	addi	sp,sp,-48
    9e60:	01512a23          	sw	s5,20(sp)
    9e64:	0145da93          	srli	s5,a1,0x14
    9e68:	02812423          	sw	s0,40(sp)
    9e6c:	02912223          	sw	s1,36(sp)
    9e70:	03212023          	sw	s2,32(sp)
    9e74:	01312e23          	sw	s3,28(sp)
    9e78:	01612823          	sw	s6,16(sp)
    9e7c:	01712623          	sw	s7,12(sp)
    9e80:	00050b13          	mv	s6,a0
    9e84:	00050413          	mv	s0,a0
    9e88:	00c59493          	slli	s1,a1,0xc
    9e8c:	02112623          	sw	ra,44(sp)
    9e90:	01412c23          	sw	s4,24(sp)
    9e94:	7ffaf513          	andi	a0,s5,2047
    9e98:	00060b93          	mv	s7,a2
    9e9c:	00068913          	mv	s2,a3
    9ea0:	00c4d493          	srli	s1,s1,0xc
    9ea4:	01f5d993          	srli	s3,a1,0x1f
    9ea8:	38050463          	beqz	a0,a230 <__divdf3+0x3d4>
    9eac:	7ff00793          	li	a5,2047
    9eb0:	3ef50663          	beq	a0,a5,a29c <__divdf3+0x440>
    9eb4:	01db5693          	srli	a3,s6,0x1d
    9eb8:	00349493          	slli	s1,s1,0x3
    9ebc:	0096e6b3          	or	a3,a3,s1
    9ec0:	008007b7          	lui	a5,0x800
    9ec4:	00f6ea33          	or	s4,a3,a5
    9ec8:	003b1413          	slli	s0,s6,0x3
    9ecc:	c0150a93          	addi	s5,a0,-1023
    9ed0:	00000b13          	li	s6,0
    9ed4:	01495713          	srli	a4,s2,0x14
    9ed8:	00c91493          	slli	s1,s2,0xc
    9edc:	7ff77713          	andi	a4,a4,2047
    9ee0:	000b8893          	mv	a7,s7
    9ee4:	00c4d493          	srli	s1,s1,0xc
    9ee8:	01f95913          	srli	s2,s2,0x1f
    9eec:	3e070463          	beqz	a4,a2d4 <__divdf3+0x478>
    9ef0:	7ff00793          	li	a5,2047
    9ef4:	44f70663          	beq	a4,a5,a340 <__divdf3+0x4e4>
    9ef8:	01dbd793          	srli	a5,s7,0x1d
    9efc:	00349493          	slli	s1,s1,0x3
    9f00:	00f4e4b3          	or	s1,s1,a5
    9f04:	008007b7          	lui	a5,0x800
    9f08:	00f4e7b3          	or	a5,s1,a5
    9f0c:	003b9893          	slli	a7,s7,0x3
    9f10:	c0170713          	addi	a4,a4,-1023
    9f14:	00000693          	li	a3,0
    9f18:	40ea8533          	sub	a0,s5,a4
    9f1c:	002b1713          	slli	a4,s6,0x2
    9f20:	00d76733          	or	a4,a4,a3
    9f24:	00700613          	li	a2,7
    9f28:	0129c833          	xor	a6,s3,s2
    9f2c:	44e64263          	blt	a2,a4,a370 <__divdf3+0x514>
    9f30:	00100613          	li	a2,1
    9f34:	60c70463          	beq	a4,a2,a53c <__divdf3+0x6e0>
    9f38:	ffe70593          	addi	a1,a4,-2
    9f3c:	00500313          	li	t1,5
    9f40:	44b37a63          	bgeu	t1,a1,a394 <__divdf3+0x538>
    9f44:	0147e663          	bltu	a5,s4,9f50 <__divdf3+0xf4>
    9f48:	4b146063          	bltu	s0,a7,a3e8 <__divdf3+0x58c>
    9f4c:	48fa1e63          	bne	s4,a5,a3e8 <__divdf3+0x58c>
    9f50:	01fa1693          	slli	a3,s4,0x1f
    9f54:	00145713          	srli	a4,s0,0x1
    9f58:	01f41293          	slli	t0,s0,0x1f
    9f5c:	001a5a13          	srli	s4,s4,0x1
    9f60:	00e6e433          	or	s0,a3,a4
    9f64:	00879e13          	slli	t3,a5,0x8
    9f68:	0188d613          	srli	a2,a7,0x18
    9f6c:	01c66633          	or	a2,a2,t3
    9f70:	010e5e13          	srli	t3,t3,0x10
    9f74:	03ca57b3          	divu	a5,s4,t3
    9f78:	01061e93          	slli	t4,a2,0x10
    9f7c:	010ede93          	srli	t4,t4,0x10
    9f80:	01045713          	srli	a4,s0,0x10
    9f84:	00889593          	slli	a1,a7,0x8
    9f88:	03ca76b3          	remu	a3,s4,t3
    9f8c:	02fe8333          	mul	t1,t4,a5
    9f90:	01069693          	slli	a3,a3,0x10
    9f94:	00d76733          	or	a4,a4,a3
    9f98:	00677a63          	bgeu	a4,t1,9fac <__divdf3+0x150>
    9f9c:	00e60733          	add	a4,a2,a4
    9fa0:	00c76463          	bltu	a4,a2,9fa8 <__divdf3+0x14c>
    9fa4:	44676863          	bltu	a4,t1,a3f4 <__divdf3+0x598>
    9fa8:	fff78793          	addi	a5,a5,-1 # 7fffff <_sp+0x7d604f>
    9fac:	40670733          	sub	a4,a4,t1
    9fb0:	03c75333          	divu	t1,a4,t3
    9fb4:	01041693          	slli	a3,s0,0x10
    9fb8:	0106d693          	srli	a3,a3,0x10
    9fbc:	03c77733          	remu	a4,a4,t3
    9fc0:	026e8f33          	mul	t5,t4,t1
    9fc4:	01071713          	slli	a4,a4,0x10
    9fc8:	00e6e733          	or	a4,a3,a4
    9fcc:	01e77a63          	bgeu	a4,t5,9fe0 <__divdf3+0x184>
    9fd0:	00e60733          	add	a4,a2,a4
    9fd4:	01e77463          	bgeu	a4,t5,9fdc <__divdf3+0x180>
    9fd8:	42c77463          	bgeu	a4,a2,a400 <__divdf3+0x5a4>
    9fdc:	fff30313          	addi	t1,t1,-1
    9fe0:	01079793          	slli	a5,a5,0x10
    9fe4:	0067e7b3          	or	a5,a5,t1
    9fe8:	01079693          	slli	a3,a5,0x10
    9fec:	01059f93          	slli	t6,a1,0x10
    9ff0:	0107d393          	srli	t2,a5,0x10
    9ff4:	0106d693          	srli	a3,a3,0x10
    9ff8:	010fdf93          	srli	t6,t6,0x10
    9ffc:	41e70733          	sub	a4,a4,t5
    a000:	0105df13          	srli	t5,a1,0x10
    a004:	03f68433          	mul	s0,a3,t6
    a008:	03f384b3          	mul	s1,t2,t6
    a00c:	01045313          	srli	t1,s0,0x10
    a010:	02df06b3          	mul	a3,t5,a3
    a014:	03e383b3          	mul	t2,t2,t5
    a018:	009686b3          	add	a3,a3,s1
    a01c:	00d30333          	add	t1,t1,a3
    a020:	00937663          	bgeu	t1,s1,a02c <__divdf3+0x1d0>
    a024:	000106b7          	lui	a3,0x10
    a028:	00d383b3          	add	t2,t2,a3
    a02c:	01035693          	srli	a3,t1,0x10
    a030:	01041413          	slli	s0,s0,0x10
    a034:	01031313          	slli	t1,t1,0x10
    a038:	01045413          	srli	s0,s0,0x10
    a03c:	007686b3          	add	a3,a3,t2
    a040:	00830333          	add	t1,t1,s0
    a044:	00d76663          	bltu	a4,a3,a050 <__divdf3+0x1f4>
    a048:	02d71e63          	bne	a4,a3,a084 <__divdf3+0x228>
    a04c:	0262fc63          	bgeu	t0,t1,a084 <__divdf3+0x228>
    a050:	00b283b3          	add	t2,t0,a1
    a054:	0053b433          	sltu	s0,t2,t0
    a058:	00c40933          	add	s2,s0,a2
    a05c:	01270733          	add	a4,a4,s2
    a060:	fff78493          	addi	s1,a5,-1
    a064:	00038293          	mv	t0,t2
    a068:	00e66663          	bltu	a2,a4,a074 <__divdf3+0x218>
    a06c:	00e61a63          	bne	a2,a4,a080 <__divdf3+0x224>
    a070:	00041863          	bnez	s0,a080 <__divdf3+0x224>
    a074:	38d76c63          	bltu	a4,a3,a40c <__divdf3+0x5b0>
    a078:	0063f463          	bgeu	t2,t1,a080 <__divdf3+0x224>
    a07c:	38e68863          	beq	a3,a4,a40c <__divdf3+0x5b0>
    a080:	00048793          	mv	a5,s1
    a084:	40628333          	sub	t1,t0,t1
    a088:	40d70733          	sub	a4,a4,a3
    a08c:	0062b2b3          	sltu	t0,t0,t1
    a090:	40570733          	sub	a4,a4,t0
    a094:	fff00413          	li	s0,-1
    a098:	0ee60a63          	beq	a2,a4,a18c <__divdf3+0x330>
    a09c:	03c75433          	divu	s0,a4,t3
    a0a0:	01035693          	srli	a3,t1,0x10
    a0a4:	03c77733          	remu	a4,a4,t3
    a0a8:	028e82b3          	mul	t0,t4,s0
    a0ac:	01071713          	slli	a4,a4,0x10
    a0b0:	00e6e6b3          	or	a3,a3,a4
    a0b4:	0056fa63          	bgeu	a3,t0,a0c8 <__divdf3+0x26c>
    a0b8:	00d606b3          	add	a3,a2,a3
    a0bc:	0056f463          	bgeu	a3,t0,a0c4 <__divdf3+0x268>
    a0c0:	36c6f263          	bgeu	a3,a2,a424 <__divdf3+0x5c8>
    a0c4:	fff40413          	addi	s0,s0,-1
    a0c8:	405686b3          	sub	a3,a3,t0
    a0cc:	03c6d2b3          	divu	t0,a3,t3
    a0d0:	01031713          	slli	a4,t1,0x10
    a0d4:	01075713          	srli	a4,a4,0x10
    a0d8:	03c6f6b3          	remu	a3,a3,t3
    a0dc:	025e8eb3          	mul	t4,t4,t0
    a0e0:	01069693          	slli	a3,a3,0x10
    a0e4:	00d76733          	or	a4,a4,a3
    a0e8:	01d77a63          	bgeu	a4,t4,a0fc <__divdf3+0x2a0>
    a0ec:	00e60733          	add	a4,a2,a4
    a0f0:	01d77463          	bgeu	a4,t4,a0f8 <__divdf3+0x29c>
    a0f4:	32c77e63          	bgeu	a4,a2,a430 <__divdf3+0x5d4>
    a0f8:	fff28293          	addi	t0,t0,-1
    a0fc:	01041413          	slli	s0,s0,0x10
    a100:	00546433          	or	s0,s0,t0
    a104:	01041693          	slli	a3,s0,0x10
    a108:	0106d693          	srli	a3,a3,0x10
    a10c:	01045e13          	srli	t3,s0,0x10
    a110:	41d70733          	sub	a4,a4,t4
    a114:	02df8eb3          	mul	t4,t6,a3
    a118:	03cf8fb3          	mul	t6,t6,t3
    a11c:	03cf0e33          	mul	t3,t5,t3
    a120:	02df0f33          	mul	t5,t5,a3
    a124:	010ed693          	srli	a3,t4,0x10
    a128:	01ff0f33          	add	t5,t5,t6
    a12c:	01e686b3          	add	a3,a3,t5
    a130:	01f6f663          	bgeu	a3,t6,a13c <__divdf3+0x2e0>
    a134:	00010337          	lui	t1,0x10
    a138:	006e0e33          	add	t3,t3,t1
    a13c:	0106d313          	srli	t1,a3,0x10
    a140:	010e9e93          	slli	t4,t4,0x10
    a144:	01069693          	slli	a3,a3,0x10
    a148:	010ede93          	srli	t4,t4,0x10
    a14c:	01c30333          	add	t1,t1,t3
    a150:	01d686b3          	add	a3,a3,t4
    a154:	00676663          	bltu	a4,t1,a160 <__divdf3+0x304>
    a158:	30671463          	bne	a4,t1,a460 <__divdf3+0x604>
    a15c:	2e068c63          	beqz	a3,a454 <__divdf3+0x5f8>
    a160:	00e60e33          	add	t3,a2,a4
    a164:	fff40e93          	addi	t4,s0,-1
    a168:	000e0713          	mv	a4,t3
    a16c:	00ce6863          	bltu	t3,a2,a17c <__divdf3+0x320>
    a170:	2c6e6663          	bltu	t3,t1,a43c <__divdf3+0x5e0>
    a174:	2e6e1463          	bne	t3,t1,a45c <__divdf3+0x600>
    a178:	2cd5e263          	bltu	a1,a3,a43c <__divdf3+0x5e0>
    a17c:	00058893          	mv	a7,a1
    a180:	000e8413          	mv	s0,t4
    a184:	2cd89e63          	bne	a7,a3,a460 <__divdf3+0x604>
    a188:	2c671c63          	bne	a4,t1,a460 <__divdf3+0x604>
    a18c:	3ff50713          	addi	a4,a0,1023
    a190:	2ee05463          	blez	a4,a478 <__divdf3+0x61c>
    a194:	00747693          	andi	a3,s0,7
    a198:	02068063          	beqz	a3,a1b8 <__divdf3+0x35c>
    a19c:	00f47693          	andi	a3,s0,15
    a1a0:	00400613          	li	a2,4
    a1a4:	00c68a63          	beq	a3,a2,a1b8 <__divdf3+0x35c>
    a1a8:	00c406b3          	add	a3,s0,a2
    a1ac:	0086b633          	sltu	a2,a3,s0
    a1b0:	00c787b3          	add	a5,a5,a2
    a1b4:	00068413          	mv	s0,a3
    a1b8:	00779693          	slli	a3,a5,0x7
    a1bc:	0006da63          	bgez	a3,a1d0 <__divdf3+0x374>
    a1c0:	ff000737          	lui	a4,0xff000
    a1c4:	fff70713          	addi	a4,a4,-1 # feffffff <_sp+0xfefd604f>
    a1c8:	00e7f7b3          	and	a5,a5,a4
    a1cc:	40050713          	addi	a4,a0,1024
    a1d0:	7fe00693          	li	a3,2046
    a1d4:	36e6c463          	blt	a3,a4,a53c <__divdf3+0x6e0>
    a1d8:	01d79613          	slli	a2,a5,0x1d
    a1dc:	00345413          	srli	s0,s0,0x3
    a1e0:	00866633          	or	a2,a2,s0
    a1e4:	0037d793          	srli	a5,a5,0x3
    a1e8:	02c12083          	lw	ra,44(sp)
    a1ec:	02812403          	lw	s0,40(sp)
    a1f0:	00c79793          	slli	a5,a5,0xc
    a1f4:	01471713          	slli	a4,a4,0x14
    a1f8:	00c7d793          	srli	a5,a5,0xc
    a1fc:	00f76733          	or	a4,a4,a5
    a200:	01f81813          	slli	a6,a6,0x1f
    a204:	02412483          	lw	s1,36(sp)
    a208:	02012903          	lw	s2,32(sp)
    a20c:	01c12983          	lw	s3,28(sp)
    a210:	01812a03          	lw	s4,24(sp)
    a214:	01412a83          	lw	s5,20(sp)
    a218:	01012b03          	lw	s6,16(sp)
    a21c:	00c12b83          	lw	s7,12(sp)
    a220:	00060513          	mv	a0,a2
    a224:	010765b3          	or	a1,a4,a6
    a228:	03010113          	addi	sp,sp,48
    a22c:	00008067          	ret
    a230:	0164ea33          	or	s4,s1,s6
    a234:	080a0063          	beqz	s4,a2b4 <__divdf3+0x458>
    a238:	04048063          	beqz	s1,a278 <__divdf3+0x41c>
    a23c:	00048513          	mv	a0,s1
    a240:	0a8010ef          	jal	b2e8 <__clzsi2>
    a244:	00050793          	mv	a5,a0
    a248:	ff550713          	addi	a4,a0,-11
    a24c:	01d00693          	li	a3,29
    a250:	ff878613          	addi	a2,a5,-8
    a254:	40e686b3          	sub	a3,a3,a4
    a258:	00c494b3          	sll	s1,s1,a2
    a25c:	00db56b3          	srl	a3,s6,a3
    a260:	0096ea33          	or	s4,a3,s1
    a264:	00cb14b3          	sll	s1,s6,a2
    a268:	c0d00513          	li	a0,-1011
    a26c:	40f50ab3          	sub	s5,a0,a5
    a270:	00048413          	mv	s0,s1
    a274:	c5dff06f          	j	9ed0 <__divdf3+0x74>
    a278:	000b0513          	mv	a0,s6
    a27c:	06c010ef          	jal	b2e8 <__clzsi2>
    a280:	01550713          	addi	a4,a0,21
    a284:	01c00693          	li	a3,28
    a288:	02050793          	addi	a5,a0,32
    a28c:	fce6d0e3          	bge	a3,a4,a24c <__divdf3+0x3f0>
    a290:	ff850693          	addi	a3,a0,-8
    a294:	00db1a33          	sll	s4,s6,a3
    a298:	fd1ff06f          	j	a268 <__divdf3+0x40c>
    a29c:	0164ea33          	or	s4,s1,s6
    a2a0:	020a1263          	bnez	s4,a2c4 <__divdf3+0x468>
    a2a4:	00000413          	li	s0,0
    a2a8:	00050a93          	mv	s5,a0
    a2ac:	00200b13          	li	s6,2
    a2b0:	c25ff06f          	j	9ed4 <__divdf3+0x78>
    a2b4:	00000413          	li	s0,0
    a2b8:	00000a93          	li	s5,0
    a2bc:	00100b13          	li	s6,1
    a2c0:	c15ff06f          	j	9ed4 <__divdf3+0x78>
    a2c4:	00048a13          	mv	s4,s1
    a2c8:	00050a93          	mv	s5,a0
    a2cc:	00300b13          	li	s6,3
    a2d0:	c05ff06f          	j	9ed4 <__divdf3+0x78>
    a2d4:	0174e7b3          	or	a5,s1,s7
    a2d8:	06078e63          	beqz	a5,a354 <__divdf3+0x4f8>
    a2dc:	04048063          	beqz	s1,a31c <__divdf3+0x4c0>
    a2e0:	00048513          	mv	a0,s1
    a2e4:	004010ef          	jal	b2e8 <__clzsi2>
    a2e8:	00050693          	mv	a3,a0
    a2ec:	ff550713          	addi	a4,a0,-11
    a2f0:	01d00793          	li	a5,29
    a2f4:	ff868613          	addi	a2,a3,-8 # fff8 <fast_intr_ctrl.c.233e5230+0x1ff>
    a2f8:	40e787b3          	sub	a5,a5,a4
    a2fc:	00c494b3          	sll	s1,s1,a2
    a300:	00fbd7b3          	srl	a5,s7,a5
    a304:	0097e7b3          	or	a5,a5,s1
    a308:	00cb94b3          	sll	s1,s7,a2
    a30c:	c0d00713          	li	a4,-1011
    a310:	40d70733          	sub	a4,a4,a3
    a314:	00048893          	mv	a7,s1
    a318:	bfdff06f          	j	9f14 <__divdf3+0xb8>
    a31c:	000b8513          	mv	a0,s7
    a320:	7c9000ef          	jal	b2e8 <__clzsi2>
    a324:	01550713          	addi	a4,a0,21
    a328:	01c00793          	li	a5,28
    a32c:	02050693          	addi	a3,a0,32
    a330:	fce7d0e3          	bge	a5,a4,a2f0 <__divdf3+0x494>
    a334:	ff850793          	addi	a5,a0,-8
    a338:	00fb97b3          	sll	a5,s7,a5
    a33c:	fd1ff06f          	j	a30c <__divdf3+0x4b0>
    a340:	0174e7b3          	or	a5,s1,s7
    a344:	02079063          	bnez	a5,a364 <__divdf3+0x508>
    a348:	00000893          	li	a7,0
    a34c:	00200693          	li	a3,2
    a350:	bc9ff06f          	j	9f18 <__divdf3+0xbc>
    a354:	00000893          	li	a7,0
    a358:	00000713          	li	a4,0
    a35c:	00100693          	li	a3,1
    a360:	bb9ff06f          	j	9f18 <__divdf3+0xbc>
    a364:	00048793          	mv	a5,s1
    a368:	00300693          	li	a3,3
    a36c:	badff06f          	j	9f18 <__divdf3+0xbc>
    a370:	ff670713          	addi	a4,a4,-10
    a374:	00500613          	li	a2,5
    a378:	1ce66263          	bltu	a2,a4,a53c <__divdf3+0x6e0>
    a37c:	00020637          	lui	a2,0x20
    a380:	00271713          	slli	a4,a4,0x2
    a384:	2d860613          	addi	a2,a2,728 # 202d8 <jump_table.28+0xdc>
    a388:	00c70733          	add	a4,a4,a2
    a38c:	00072703          	lw	a4,0(a4)
    a390:	00070067          	jr	a4
    a394:	00e61633          	sll	a2,a2,a4
    a398:	05467593          	andi	a1,a2,84
    a39c:	04059063          	bnez	a1,a3dc <__divdf3+0x580>
    a3a0:	08867613          	andi	a2,a2,136
    a3a4:	0c061263          	bnez	a2,a468 <__divdf3+0x60c>
    a3a8:	b8671ee3          	bne	a4,t1,9f44 <__divdf3+0xe8>
    a3ac:	000807b7          	lui	a5,0x80
    a3b0:	7ff00713          	li	a4,2047
    a3b4:	00000813          	li	a6,0
    a3b8:	e31ff06f          	j	a1e8 <__divdf3+0x38c>
    a3bc:	00098813          	mv	a6,s3
    a3c0:	000a0793          	mv	a5,s4
    a3c4:	00200713          	li	a4,2
    a3c8:	16eb0a63          	beq	s6,a4,a53c <__divdf3+0x6e0>
    a3cc:	00300713          	li	a4,3
    a3d0:	16eb0063          	beq	s6,a4,a530 <__divdf3+0x6d4>
    a3d4:	00100713          	li	a4,1
    a3d8:	daeb1ae3          	bne	s6,a4,a18c <__divdf3+0x330>
    a3dc:	00000793          	li	a5,0
    a3e0:	00000613          	li	a2,0
    a3e4:	10c0006f          	j	a4f0 <__divdf3+0x694>
    a3e8:	fff50513          	addi	a0,a0,-1
    a3ec:	00000293          	li	t0,0
    a3f0:	b75ff06f          	j	9f64 <__divdf3+0x108>
    a3f4:	ffe78793          	addi	a5,a5,-2 # 7fffe <_sp+0x5604e>
    a3f8:	00c70733          	add	a4,a4,a2
    a3fc:	bb1ff06f          	j	9fac <__divdf3+0x150>
    a400:	ffe30313          	addi	t1,t1,-2 # fffe <fast_intr_ctrl.c.233e5230+0x205>
    a404:	00c70733          	add	a4,a4,a2
    a408:	bd9ff06f          	j	9fe0 <__divdf3+0x184>
    a40c:	007582b3          	add	t0,a1,t2
    a410:	00b2b3b3          	sltu	t2,t0,a1
    a414:	00c383b3          	add	t2,t2,a2
    a418:	ffe78793          	addi	a5,a5,-2
    a41c:	00770733          	add	a4,a4,t2
    a420:	c65ff06f          	j	a084 <__divdf3+0x228>
    a424:	ffe40413          	addi	s0,s0,-2
    a428:	00c686b3          	add	a3,a3,a2
    a42c:	c9dff06f          	j	a0c8 <__divdf3+0x26c>
    a430:	ffe28293          	addi	t0,t0,-2
    a434:	00c70733          	add	a4,a4,a2
    a438:	cc5ff06f          	j	a0fc <__divdf3+0x2a0>
    a43c:	00989893          	slli	a7,a7,0x9
    a440:	00b8b5b3          	sltu	a1,a7,a1
    a444:	00c585b3          	add	a1,a1,a2
    a448:	ffe40413          	addi	s0,s0,-2
    a44c:	00be0733          	add	a4,t3,a1
    a450:	d35ff06f          	j	a184 <__divdf3+0x328>
    a454:	00000893          	li	a7,0
    a458:	d2dff06f          	j	a184 <__divdf3+0x328>
    a45c:	000e8413          	mv	s0,t4
    a460:	00146413          	ori	s0,s0,1
    a464:	d29ff06f          	j	a18c <__divdf3+0x330>
    a468:	00090813          	mv	a6,s2
    a46c:	00088413          	mv	s0,a7
    a470:	00068b13          	mv	s6,a3
    a474:	f51ff06f          	j	a3c4 <__divdf3+0x568>
    a478:	08070063          	beqz	a4,a4f8 <__divdf3+0x69c>
    a47c:	fc900693          	li	a3,-55
    a480:	f4d74ee3          	blt	a4,a3,a3dc <__divdf3+0x580>
    a484:	fe200693          	li	a3,-30
    a488:	06d74c63          	blt	a4,a3,a500 <__divdf3+0x6a4>
    a48c:	00100693          	li	a3,1
    a490:	40e686b3          	sub	a3,a3,a4
    a494:	41e50513          	addi	a0,a0,1054
    a498:	00d45733          	srl	a4,s0,a3
    a49c:	00a41433          	sll	s0,s0,a0
    a4a0:	00803433          	snez	s0,s0
    a4a4:	00a79533          	sll	a0,a5,a0
    a4a8:	00a46433          	or	s0,s0,a0
    a4ac:	00876733          	or	a4,a4,s0
    a4b0:	00d7d7b3          	srl	a5,a5,a3
    a4b4:	00777693          	andi	a3,a4,7
    a4b8:	02068063          	beqz	a3,a4d8 <__divdf3+0x67c>
    a4bc:	00f77693          	andi	a3,a4,15
    a4c0:	00400613          	li	a2,4
    a4c4:	00c68a63          	beq	a3,a2,a4d8 <__divdf3+0x67c>
    a4c8:	00c706b3          	add	a3,a4,a2
    a4cc:	00e6b633          	sltu	a2,a3,a4
    a4d0:	00c787b3          	add	a5,a5,a2
    a4d4:	00068713          	mv	a4,a3
    a4d8:	00879693          	slli	a3,a5,0x8
    a4dc:	0606c863          	bltz	a3,a54c <__divdf3+0x6f0>
    a4e0:	01d79613          	slli	a2,a5,0x1d
    a4e4:	00375713          	srli	a4,a4,0x3
    a4e8:	00e66633          	or	a2,a2,a4
    a4ec:	0037d793          	srli	a5,a5,0x3
    a4f0:	00000713          	li	a4,0
    a4f4:	cf5ff06f          	j	a1e8 <__divdf3+0x38c>
    a4f8:	00100693          	li	a3,1
    a4fc:	f99ff06f          	j	a494 <__divdf3+0x638>
    a500:	fe100593          	li	a1,-31
    a504:	40e586b3          	sub	a3,a1,a4
    a508:	00d7d6b3          	srl	a3,a5,a3
    a50c:	00000613          	li	a2,0
    a510:	00b70663          	beq	a4,a1,a51c <__divdf3+0x6c0>
    a514:	43e50513          	addi	a0,a0,1086
    a518:	00a79633          	sll	a2,a5,a0
    a51c:	00866633          	or	a2,a2,s0
    a520:	00c03633          	snez	a2,a2
    a524:	00c6e733          	or	a4,a3,a2
    a528:	00000793          	li	a5,0
    a52c:	f89ff06f          	j	a4b4 <__divdf3+0x658>
    a530:	000807b7          	lui	a5,0x80
    a534:	00000613          	li	a2,0
    a538:	e79ff06f          	j	a3b0 <__divdf3+0x554>
    a53c:	00000793          	li	a5,0
    a540:	00000613          	li	a2,0
    a544:	7ff00713          	li	a4,2047
    a548:	ca1ff06f          	j	a1e8 <__divdf3+0x38c>
    a54c:	00000793          	li	a5,0
    a550:	00000613          	li	a2,0
    a554:	00100713          	li	a4,1
    a558:	c91ff06f          	j	a1e8 <__divdf3+0x38c>

0000a55c <__muldf3>:
    a55c:	fd010113          	addi	sp,sp,-48
    a560:	01412c23          	sw	s4,24(sp)
    a564:	0145da13          	srli	s4,a1,0x14
    a568:	02812423          	sw	s0,40(sp)
    a56c:	02912223          	sw	s1,36(sp)
    a570:	01312e23          	sw	s3,28(sp)
    a574:	01512a23          	sw	s5,20(sp)
    a578:	01712623          	sw	s7,12(sp)
    a57c:	00c59493          	slli	s1,a1,0xc
    a580:	02112623          	sw	ra,44(sp)
    a584:	03212023          	sw	s2,32(sp)
    a588:	01612823          	sw	s6,16(sp)
    a58c:	7ffa7a13          	andi	s4,s4,2047
    a590:	00050413          	mv	s0,a0
    a594:	00060b93          	mv	s7,a2
    a598:	00068993          	mv	s3,a3
    a59c:	00c4d493          	srli	s1,s1,0xc
    a5a0:	01f5da93          	srli	s5,a1,0x1f
    a5a4:	0c0a0263          	beqz	s4,a668 <__muldf3+0x10c>
    a5a8:	7ff00793          	li	a5,2047
    a5ac:	12fa0463          	beq	s4,a5,a6d4 <__muldf3+0x178>
    a5b0:	00349493          	slli	s1,s1,0x3
    a5b4:	01d55793          	srli	a5,a0,0x1d
    a5b8:	0097e7b3          	or	a5,a5,s1
    a5bc:	008004b7          	lui	s1,0x800
    a5c0:	0097e4b3          	or	s1,a5,s1
    a5c4:	00351913          	slli	s2,a0,0x3
    a5c8:	c01a0a13          	addi	s4,s4,-1023
    a5cc:	00000b13          	li	s6,0
    a5d0:	0149d713          	srli	a4,s3,0x14
    a5d4:	00c99413          	slli	s0,s3,0xc
    a5d8:	7ff77713          	andi	a4,a4,2047
    a5dc:	00c45413          	srli	s0,s0,0xc
    a5e0:	01f9d993          	srli	s3,s3,0x1f
    a5e4:	12070063          	beqz	a4,a704 <__muldf3+0x1a8>
    a5e8:	7ff00793          	li	a5,2047
    a5ec:	18f70463          	beq	a4,a5,a774 <__muldf3+0x218>
    a5f0:	00341413          	slli	s0,s0,0x3
    a5f4:	01dbd793          	srli	a5,s7,0x1d
    a5f8:	0087e7b3          	or	a5,a5,s0
    a5fc:	00800437          	lui	s0,0x800
    a600:	0087e433          	or	s0,a5,s0
    a604:	c0170713          	addi	a4,a4,-1023
    a608:	003b9793          	slli	a5,s7,0x3
    a60c:	00000813          	li	a6,0
    a610:	00ea0a33          	add	s4,s4,a4
    a614:	002b1713          	slli	a4,s6,0x2
    a618:	01076733          	or	a4,a4,a6
    a61c:	00b00693          	li	a3,11
    a620:	001a0513          	addi	a0,s4,1
    a624:	1ae6c663          	blt	a3,a4,a7d0 <__muldf3+0x274>
    a628:	00200613          	li	a2,2
    a62c:	013ac5b3          	xor	a1,s5,s3
    a630:	00100693          	li	a3,1
    a634:	16e64863          	blt	a2,a4,a7a4 <__muldf3+0x248>
    a638:	fff70713          	addi	a4,a4,-1
    a63c:	1ae6ea63          	bltu	a3,a4,a7f0 <__muldf3+0x294>
    a640:	00080b13          	mv	s6,a6
    a644:	00200713          	li	a4,2
    a648:	4ceb0e63          	beq	s6,a4,ab24 <__muldf3+0x5c8>
    a64c:	00300713          	li	a4,3
    a650:	18eb0663          	beq	s6,a4,a7dc <__muldf3+0x280>
    a654:	00100713          	li	a4,1
    a658:	34eb1863          	bne	s6,a4,a9a8 <__muldf3+0x44c>
    a65c:	00000413          	li	s0,0
    a660:	00000613          	li	a2,0
    a664:	4800006f          	j	aae4 <__muldf3+0x588>
    a668:	00a4e933          	or	s2,s1,a0
    a66c:	06090e63          	beqz	s2,a6e8 <__muldf3+0x18c>
    a670:	04048263          	beqz	s1,a6b4 <__muldf3+0x158>
    a674:	00048513          	mv	a0,s1
    a678:	471000ef          	jal	b2e8 <__clzsi2>
    a67c:	00050713          	mv	a4,a0
    a680:	ff550693          	addi	a3,a0,-11
    a684:	01d00793          	li	a5,29
    a688:	ff870613          	addi	a2,a4,-8
    a68c:	40d787b3          	sub	a5,a5,a3
    a690:	00c494b3          	sll	s1,s1,a2
    a694:	00f457b3          	srl	a5,s0,a5
    a698:	0097e7b3          	or	a5,a5,s1
    a69c:	00c414b3          	sll	s1,s0,a2
    a6a0:	c0d00a13          	li	s4,-1011
    a6a4:	00048913          	mv	s2,s1
    a6a8:	40ea0a33          	sub	s4,s4,a4
    a6ac:	00078493          	mv	s1,a5
    a6b0:	f1dff06f          	j	a5cc <__muldf3+0x70>
    a6b4:	435000ef          	jal	b2e8 <__clzsi2>
    a6b8:	01550693          	addi	a3,a0,21
    a6bc:	01c00793          	li	a5,28
    a6c0:	02050713          	addi	a4,a0,32
    a6c4:	fcd7d0e3          	bge	a5,a3,a684 <__muldf3+0x128>
    a6c8:	ff850793          	addi	a5,a0,-8
    a6cc:	00f417b3          	sll	a5,s0,a5
    a6d0:	fd1ff06f          	j	a6a0 <__muldf3+0x144>
    a6d4:	00a4e933          	or	s2,s1,a0
    a6d8:	02091063          	bnez	s2,a6f8 <__muldf3+0x19c>
    a6dc:	00000493          	li	s1,0
    a6e0:	00200b13          	li	s6,2
    a6e4:	eedff06f          	j	a5d0 <__muldf3+0x74>
    a6e8:	00000493          	li	s1,0
    a6ec:	00000a13          	li	s4,0
    a6f0:	00100b13          	li	s6,1
    a6f4:	eddff06f          	j	a5d0 <__muldf3+0x74>
    a6f8:	00050913          	mv	s2,a0
    a6fc:	00300b13          	li	s6,3
    a700:	ed1ff06f          	j	a5d0 <__muldf3+0x74>
    a704:	017467b3          	or	a5,s0,s7
    a708:	08078063          	beqz	a5,a788 <__muldf3+0x22c>
    a70c:	04040263          	beqz	s0,a750 <__muldf3+0x1f4>
    a710:	00040513          	mv	a0,s0
    a714:	3d5000ef          	jal	b2e8 <__clzsi2>
    a718:	00050793          	mv	a5,a0
    a71c:	ff550713          	addi	a4,a0,-11
    a720:	01d00693          	li	a3,29
    a724:	ff878613          	addi	a2,a5,-8 # 7fff8 <_sp+0x56048>
    a728:	40e686b3          	sub	a3,a3,a4
    a72c:	00c41433          	sll	s0,s0,a2
    a730:	00dbd6b3          	srl	a3,s7,a3
    a734:	0086e6b3          	or	a3,a3,s0
    a738:	00cb9433          	sll	s0,s7,a2
    a73c:	c0d00713          	li	a4,-1011
    a740:	40f70733          	sub	a4,a4,a5
    a744:	00040793          	mv	a5,s0
    a748:	00068413          	mv	s0,a3
    a74c:	ec1ff06f          	j	a60c <__muldf3+0xb0>
    a750:	000b8513          	mv	a0,s7
    a754:	395000ef          	jal	b2e8 <__clzsi2>
    a758:	01550713          	addi	a4,a0,21
    a75c:	01c00693          	li	a3,28
    a760:	02050793          	addi	a5,a0,32
    a764:	fae6dee3          	bge	a3,a4,a720 <__muldf3+0x1c4>
    a768:	ff850693          	addi	a3,a0,-8
    a76c:	00db96b3          	sll	a3,s7,a3
    a770:	fcdff06f          	j	a73c <__muldf3+0x1e0>
    a774:	017467b3          	or	a5,s0,s7
    a778:	02079063          	bnez	a5,a798 <__muldf3+0x23c>
    a77c:	00000413          	li	s0,0
    a780:	00200813          	li	a6,2
    a784:	e8dff06f          	j	a610 <__muldf3+0xb4>
    a788:	00000413          	li	s0,0
    a78c:	00000713          	li	a4,0
    a790:	00100813          	li	a6,1
    a794:	e7dff06f          	j	a610 <__muldf3+0xb4>
    a798:	000b8793          	mv	a5,s7
    a79c:	00300813          	li	a6,3
    a7a0:	e71ff06f          	j	a610 <__muldf3+0xb4>
    a7a4:	00e69733          	sll	a4,a3,a4
    a7a8:	53077693          	andi	a3,a4,1328
    a7ac:	2a069663          	bnez	a3,aa58 <__muldf3+0x4fc>
    a7b0:	00001637          	lui	a2,0x1
    a7b4:	88860613          	addi	a2,a2,-1912 # 888 <spi_event_handler+0x198>
    a7b8:	00c77633          	and	a2,a4,a2
    a7bc:	28061a63          	bnez	a2,aa50 <__muldf3+0x4f4>
    a7c0:	24077713          	andi	a4,a4,576
    a7c4:	02070663          	beqz	a4,a7f0 <__muldf3+0x294>
    a7c8:	00080437          	lui	s0,0x80
    a7cc:	0180006f          	j	a7e4 <__muldf3+0x288>
    a7d0:	00f00793          	li	a5,15
    a7d4:	000a8593          	mv	a1,s5
    a7d8:	28f71063          	bne	a4,a5,aa58 <__muldf3+0x4fc>
    a7dc:	00080437          	lui	s0,0x80
    a7e0:	00000613          	li	a2,0
    a7e4:	7ff00713          	li	a4,2047
    a7e8:	00000593          	li	a1,0
    a7ec:	2180006f          	j	aa04 <__muldf3+0x4a8>
    a7f0:	01095893          	srli	a7,s2,0x10
    a7f4:	01079e13          	slli	t3,a5,0x10
    a7f8:	01091913          	slli	s2,s2,0x10
    a7fc:	0107d613          	srli	a2,a5,0x10
    a800:	01095913          	srli	s2,s2,0x10
    a804:	010e5e13          	srli	t3,t3,0x10
    a808:	03c907b3          	mul	a5,s2,t3
    a80c:	03c88333          	mul	t1,a7,t3
    a810:	0107d813          	srli	a6,a5,0x10
    a814:	03260733          	mul	a4,a2,s2
    a818:	02c886b3          	mul	a3,a7,a2
    a81c:	00670733          	add	a4,a4,t1
    a820:	00e80833          	add	a6,a6,a4
    a824:	00687663          	bgeu	a6,t1,a830 <__muldf3+0x2d4>
    a828:	00010737          	lui	a4,0x10
    a82c:	00e686b3          	add	a3,a3,a4
    a830:	01045713          	srli	a4,s0,0x10
    a834:	01079793          	slli	a5,a5,0x10
    a838:	01041413          	slli	s0,s0,0x10
    a83c:	0107d793          	srli	a5,a5,0x10
    a840:	01045413          	srli	s0,s0,0x10
    a844:	01085f93          	srli	t6,a6,0x10
    a848:	01081813          	slli	a6,a6,0x10
    a84c:	02890f33          	mul	t5,s2,s0
    a850:	00f80833          	add	a6,a6,a5
    a854:	02e90933          	mul	s2,s2,a4
    a858:	010f5313          	srli	t1,t5,0x10
    a85c:	028887b3          	mul	a5,a7,s0
    a860:	02e888b3          	mul	a7,a7,a4
    a864:	00f90933          	add	s2,s2,a5
    a868:	01230333          	add	t1,t1,s2
    a86c:	00f37663          	bgeu	t1,a5,a878 <__muldf3+0x31c>
    a870:	000107b7          	lui	a5,0x10
    a874:	00f888b3          	add	a7,a7,a5
    a878:	010f1f13          	slli	t5,t5,0x10
    a87c:	010f5f13          	srli	t5,t5,0x10
    a880:	01031793          	slli	a5,t1,0x10
    a884:	01e787b3          	add	a5,a5,t5
    a888:	0104df13          	srli	t5,s1,0x10
    a88c:	01049493          	slli	s1,s1,0x10
    a890:	0104d493          	srli	s1,s1,0x10
    a894:	029e02b3          	mul	t0,t3,s1
    a898:	01035e93          	srli	t4,t1,0x10
    a89c:	011e8eb3          	add	t4,t4,a7
    a8a0:	00ff8fb3          	add	t6,t6,a5
    a8a4:	03ee0e33          	mul	t3,t3,t5
    a8a8:	0102d893          	srli	a7,t0,0x10
    a8ac:	03e603b3          	mul	t2,a2,t5
    a8b0:	02960633          	mul	a2,a2,s1
    a8b4:	01c60633          	add	a2,a2,t3
    a8b8:	00c888b3          	add	a7,a7,a2
    a8bc:	01c8f663          	bgeu	a7,t3,a8c8 <__muldf3+0x36c>
    a8c0:	00010637          	lui	a2,0x10
    a8c4:	00c383b3          	add	t2,t2,a2
    a8c8:	02940633          	mul	a2,s0,s1
    a8cc:	01029293          	slli	t0,t0,0x10
    a8d0:	0108d313          	srli	t1,a7,0x10
    a8d4:	0102d293          	srli	t0,t0,0x10
    a8d8:	01089893          	slli	a7,a7,0x10
    a8dc:	00730333          	add	t1,t1,t2
    a8e0:	005888b3          	add	a7,a7,t0
    a8e4:	03e40433          	mul	s0,s0,t5
    a8e8:	01065e13          	srli	t3,a2,0x10
    a8ec:	03e70f33          	mul	t5,a4,t5
    a8f0:	02970733          	mul	a4,a4,s1
    a8f4:	00870733          	add	a4,a4,s0
    a8f8:	00ee0e33          	add	t3,t3,a4
    a8fc:	008e7663          	bgeu	t3,s0,a908 <__muldf3+0x3ac>
    a900:	00010737          	lui	a4,0x10
    a904:	00ef0f33          	add	t5,t5,a4
    a908:	01061613          	slli	a2,a2,0x10
    a90c:	010e1713          	slli	a4,t3,0x10
    a910:	01065613          	srli	a2,a2,0x10
    a914:	01f686b3          	add	a3,a3,t6
    a918:	00c70733          	add	a4,a4,a2
    a91c:	01d70eb3          	add	t4,a4,t4
    a920:	00f6b7b3          	sltu	a5,a3,a5
    a924:	00fe87b3          	add	a5,t4,a5
    a928:	011688b3          	add	a7,a3,a7
    a92c:	00678333          	add	t1,a5,t1
    a930:	00d8b6b3          	sltu	a3,a7,a3
    a934:	00eeb633          	sltu	a2,t4,a4
    a938:	00d306b3          	add	a3,t1,a3
    a93c:	01d7beb3          	sltu	t4,a5,t4
    a940:	00f33733          	sltu	a4,t1,a5
    a944:	01d66633          	or	a2,a2,t4
    a948:	0066b333          	sltu	t1,a3,t1
    a94c:	010e5e13          	srli	t3,t3,0x10
    a950:	00989793          	slli	a5,a7,0x9
    a954:	01c60633          	add	a2,a2,t3
    a958:	00676733          	or	a4,a4,t1
    a95c:	00c70733          	add	a4,a4,a2
    a960:	0107e7b3          	or	a5,a5,a6
    a964:	01e70733          	add	a4,a4,t5
    a968:	00f037b3          	snez	a5,a5
    a96c:	0178d893          	srli	a7,a7,0x17
    a970:	00971713          	slli	a4,a4,0x9
    a974:	0176d413          	srli	s0,a3,0x17
    a978:	0117e7b3          	or	a5,a5,a7
    a97c:	00969693          	slli	a3,a3,0x9
    a980:	00d7e7b3          	or	a5,a5,a3
    a984:	00771693          	slli	a3,a4,0x7
    a988:	00876433          	or	s0,a4,s0
    a98c:	0c06dc63          	bgez	a3,aa64 <__muldf3+0x508>
    a990:	0017d713          	srli	a4,a5,0x1
    a994:	0017f793          	andi	a5,a5,1
    a998:	00f76733          	or	a4,a4,a5
    a99c:	01f41793          	slli	a5,s0,0x1f
    a9a0:	00f767b3          	or	a5,a4,a5
    a9a4:	00145413          	srli	s0,s0,0x1
    a9a8:	3ff50713          	addi	a4,a0,1023
    a9ac:	0ce05063          	blez	a4,aa6c <__muldf3+0x510>
    a9b0:	0077f693          	andi	a3,a5,7
    a9b4:	02068063          	beqz	a3,a9d4 <__muldf3+0x478>
    a9b8:	00f7f693          	andi	a3,a5,15
    a9bc:	00400613          	li	a2,4
    a9c0:	00c68a63          	beq	a3,a2,a9d4 <__muldf3+0x478>
    a9c4:	00c786b3          	add	a3,a5,a2
    a9c8:	00f6b633          	sltu	a2,a3,a5
    a9cc:	00c40433          	add	s0,s0,a2
    a9d0:	00068793          	mv	a5,a3
    a9d4:	00741693          	slli	a3,s0,0x7
    a9d8:	0006da63          	bgez	a3,a9ec <__muldf3+0x490>
    a9dc:	ff000737          	lui	a4,0xff000
    a9e0:	fff70713          	addi	a4,a4,-1 # feffffff <_sp+0xfefd604f>
    a9e4:	00e47433          	and	s0,s0,a4
    a9e8:	40050713          	addi	a4,a0,1024
    a9ec:	7fe00693          	li	a3,2046
    a9f0:	12e6ca63          	blt	a3,a4,ab24 <__muldf3+0x5c8>
    a9f4:	01d41613          	slli	a2,s0,0x1d
    a9f8:	0037d793          	srli	a5,a5,0x3
    a9fc:	00f66633          	or	a2,a2,a5
    aa00:	00345413          	srli	s0,s0,0x3
    aa04:	00c41413          	slli	s0,s0,0xc
    aa08:	00c45413          	srli	s0,s0,0xc
    aa0c:	01471713          	slli	a4,a4,0x14
    aa10:	02c12083          	lw	ra,44(sp)
    aa14:	00876733          	or	a4,a4,s0
    aa18:	02812403          	lw	s0,40(sp)
    aa1c:	01f59593          	slli	a1,a1,0x1f
    aa20:	00b767b3          	or	a5,a4,a1
    aa24:	02412483          	lw	s1,36(sp)
    aa28:	02012903          	lw	s2,32(sp)
    aa2c:	01c12983          	lw	s3,28(sp)
    aa30:	01812a03          	lw	s4,24(sp)
    aa34:	01412a83          	lw	s5,20(sp)
    aa38:	01012b03          	lw	s6,16(sp)
    aa3c:	00c12b83          	lw	s7,12(sp)
    aa40:	00060513          	mv	a0,a2
    aa44:	00078593          	mv	a1,a5
    aa48:	03010113          	addi	sp,sp,48
    aa4c:	00008067          	ret
    aa50:	00098593          	mv	a1,s3
    aa54:	bedff06f          	j	a640 <__muldf3+0xe4>
    aa58:	00048413          	mv	s0,s1
    aa5c:	00090793          	mv	a5,s2
    aa60:	be5ff06f          	j	a644 <__muldf3+0xe8>
    aa64:	000a0513          	mv	a0,s4
    aa68:	f41ff06f          	j	a9a8 <__muldf3+0x44c>
    aa6c:	08070063          	beqz	a4,aaec <__muldf3+0x590>
    aa70:	fc900693          	li	a3,-55
    aa74:	bed744e3          	blt	a4,a3,a65c <__muldf3+0x100>
    aa78:	fe200693          	li	a3,-30
    aa7c:	06d74c63          	blt	a4,a3,aaf4 <__muldf3+0x598>
    aa80:	00100693          	li	a3,1
    aa84:	40e68733          	sub	a4,a3,a4
    aa88:	41e50513          	addi	a0,a0,1054
    aa8c:	00e7d6b3          	srl	a3,a5,a4
    aa90:	00a797b3          	sll	a5,a5,a0
    aa94:	00f037b3          	snez	a5,a5
    aa98:	00a41533          	sll	a0,s0,a0
    aa9c:	00a7e7b3          	or	a5,a5,a0
    aaa0:	00d7e7b3          	or	a5,a5,a3
    aaa4:	00e45433          	srl	s0,s0,a4
    aaa8:	0077f713          	andi	a4,a5,7
    aaac:	02070063          	beqz	a4,aacc <__muldf3+0x570>
    aab0:	00f7f713          	andi	a4,a5,15
    aab4:	00400693          	li	a3,4
    aab8:	00d70a63          	beq	a4,a3,aacc <__muldf3+0x570>
    aabc:	00d78733          	add	a4,a5,a3
    aac0:	00f736b3          	sltu	a3,a4,a5
    aac4:	00d40433          	add	s0,s0,a3
    aac8:	00070793          	mv	a5,a4
    aacc:	00841713          	slli	a4,s0,0x8
    aad0:	06074263          	bltz	a4,ab34 <__muldf3+0x5d8>
    aad4:	01d41613          	slli	a2,s0,0x1d
    aad8:	0037d793          	srli	a5,a5,0x3
    aadc:	00f66633          	or	a2,a2,a5
    aae0:	00345413          	srli	s0,s0,0x3
    aae4:	00000713          	li	a4,0
    aae8:	f1dff06f          	j	aa04 <__muldf3+0x4a8>
    aaec:	00100713          	li	a4,1
    aaf0:	f99ff06f          	j	aa88 <__muldf3+0x52c>
    aaf4:	fe100813          	li	a6,-31
    aaf8:	40e806b3          	sub	a3,a6,a4
    aafc:	00d456b3          	srl	a3,s0,a3
    ab00:	00000613          	li	a2,0
    ab04:	01070663          	beq	a4,a6,ab10 <__muldf3+0x5b4>
    ab08:	43e50513          	addi	a0,a0,1086
    ab0c:	00a41633          	sll	a2,s0,a0
    ab10:	00c7e7b3          	or	a5,a5,a2
    ab14:	00f037b3          	snez	a5,a5
    ab18:	00f6e7b3          	or	a5,a3,a5
    ab1c:	00000413          	li	s0,0
    ab20:	f89ff06f          	j	aaa8 <__muldf3+0x54c>
    ab24:	00000413          	li	s0,0
    ab28:	00000613          	li	a2,0
    ab2c:	7ff00713          	li	a4,2047
    ab30:	ed5ff06f          	j	aa04 <__muldf3+0x4a8>
    ab34:	00000413          	li	s0,0
    ab38:	00000613          	li	a2,0
    ab3c:	00100713          	li	a4,1
    ab40:	ec5ff06f          	j	aa04 <__muldf3+0x4a8>

0000ab44 <__subdf3>:
    ab44:	fe010113          	addi	sp,sp,-32
    ab48:	0145d713          	srli	a4,a1,0x14
    ab4c:	00c59793          	slli	a5,a1,0xc
    ab50:	00812c23          	sw	s0,24(sp)
    ab54:	0097d793          	srli	a5,a5,0x9
    ab58:	7ff77413          	andi	s0,a4,2047
    ab5c:	01d55713          	srli	a4,a0,0x1d
    ab60:	00f767b3          	or	a5,a4,a5
    ab64:	00c69713          	slli	a4,a3,0xc
    ab68:	0146d893          	srli	a7,a3,0x14
    ab6c:	00912a23          	sw	s1,20(sp)
    ab70:	00975713          	srli	a4,a4,0x9
    ab74:	01f5d493          	srli	s1,a1,0x1f
    ab78:	01d65593          	srli	a1,a2,0x1d
    ab7c:	00e5e733          	or	a4,a1,a4
    ab80:	00112e23          	sw	ra,28(sp)
    ab84:	01212823          	sw	s2,16(sp)
    ab88:	01312623          	sw	s3,12(sp)
    ab8c:	7ff8f893          	andi	a7,a7,2047
    ab90:	7ff00593          	li	a1,2047
    ab94:	00351513          	slli	a0,a0,0x3
    ab98:	01f6d693          	srli	a3,a3,0x1f
    ab9c:	00361613          	slli	a2,a2,0x3
    aba0:	00b89663          	bne	a7,a1,abac <__subdf3+0x68>
    aba4:	00c765b3          	or	a1,a4,a2
    aba8:	00059463          	bnez	a1,abb0 <__subdf3+0x6c>
    abac:	0016c693          	xori	a3,a3,1
    abb0:	41140833          	sub	a6,s0,a7
    abb4:	7ff00313          	li	t1,2047
    abb8:	30969263          	bne	a3,s1,aebc <__subdf3+0x378>
    abbc:	17005663          	blez	a6,ad28 <__subdf3+0x1e4>
    abc0:	0a089063          	bnez	a7,ac60 <__subdf3+0x11c>
    abc4:	00c766b3          	or	a3,a4,a2
    abc8:	02068463          	beqz	a3,abf0 <__subdf3+0xac>
    abcc:	fff40813          	addi	a6,s0,-1 # 7ffff <_sp+0x5604f>
    abd0:	00081e63          	bnez	a6,abec <__subdf3+0xa8>
    abd4:	00c50633          	add	a2,a0,a2
    abd8:	00e787b3          	add	a5,a5,a4
    abdc:	00a63533          	sltu	a0,a2,a0
    abe0:	00a787b3          	add	a5,a5,a0
    abe4:	00100413          	li	s0,1
    abe8:	0c80006f          	j	acb0 <__subdf3+0x16c>
    abec:	08641063          	bne	s0,t1,ac6c <__subdf3+0x128>
    abf0:	01d79693          	slli	a3,a5,0x1d
    abf4:	00355513          	srli	a0,a0,0x3
    abf8:	7ff00713          	li	a4,2047
    abfc:	00a6e6b3          	or	a3,a3,a0
    ac00:	0037d793          	srli	a5,a5,0x3
    ac04:	00e41e63          	bne	s0,a4,ac20 <__subdf3+0xdc>
    ac08:	00f6e6b3          	or	a3,a3,a5
    ac0c:	00000793          	li	a5,0
    ac10:	00068863          	beqz	a3,ac20 <__subdf3+0xdc>
    ac14:	000807b7          	lui	a5,0x80
    ac18:	00000693          	li	a3,0
    ac1c:	00000493          	li	s1,0
    ac20:	7ff47713          	andi	a4,s0,2047
    ac24:	00c79793          	slli	a5,a5,0xc
    ac28:	01c12083          	lw	ra,28(sp)
    ac2c:	01812403          	lw	s0,24(sp)
    ac30:	00c7d793          	srli	a5,a5,0xc
    ac34:	01471713          	slli	a4,a4,0x14
    ac38:	01f49593          	slli	a1,s1,0x1f
    ac3c:	00f76733          	or	a4,a4,a5
    ac40:	00b767b3          	or	a5,a4,a1
    ac44:	01412483          	lw	s1,20(sp)
    ac48:	01012903          	lw	s2,16(sp)
    ac4c:	00c12983          	lw	s3,12(sp)
    ac50:	00068513          	mv	a0,a3
    ac54:	00078593          	mv	a1,a5
    ac58:	02010113          	addi	sp,sp,32
    ac5c:	00008067          	ret
    ac60:	28640863          	beq	s0,t1,aef0 <__subdf3+0x3ac>
    ac64:	008006b7          	lui	a3,0x800
    ac68:	00d76733          	or	a4,a4,a3
    ac6c:	03800693          	li	a3,56
    ac70:	0b06c663          	blt	a3,a6,ad1c <__subdf3+0x1d8>
    ac74:	01f00693          	li	a3,31
    ac78:	02000893          	li	a7,32
    ac7c:	0706c863          	blt	a3,a6,acec <__subdf3+0x1a8>
    ac80:	410888b3          	sub	a7,a7,a6
    ac84:	011716b3          	sll	a3,a4,a7
    ac88:	010655b3          	srl	a1,a2,a6
    ac8c:	011618b3          	sll	a7,a2,a7
    ac90:	00b6e6b3          	or	a3,a3,a1
    ac94:	011038b3          	snez	a7,a7
    ac98:	0116e6b3          	or	a3,a3,a7
    ac9c:	01075833          	srl	a6,a4,a6
    aca0:	00a68633          	add	a2,a3,a0
    aca4:	00f80833          	add	a6,a6,a5
    aca8:	00d636b3          	sltu	a3,a2,a3
    acac:	00d807b3          	add	a5,a6,a3
    acb0:	00879713          	slli	a4,a5,0x8
    acb4:	1c075c63          	bgez	a4,ae8c <__subdf3+0x348>
    acb8:	00140413          	addi	s0,s0,1
    acbc:	7ff00713          	li	a4,2047
    acc0:	5ae40e63          	beq	s0,a4,b27c <__subdf3+0x738>
    acc4:	ff800737          	lui	a4,0xff800
    acc8:	fff70713          	addi	a4,a4,-1 # ff7fffff <_sp+0xff7d604f>
    accc:	00e7f7b3          	and	a5,a5,a4
    acd0:	00165713          	srli	a4,a2,0x1
    acd4:	00167613          	andi	a2,a2,1
    acd8:	00c76733          	or	a4,a4,a2
    acdc:	01f79613          	slli	a2,a5,0x1f
    ace0:	00e66633          	or	a2,a2,a4
    ace4:	0017d793          	srli	a5,a5,0x1
    ace8:	1a40006f          	j	ae8c <__subdf3+0x348>
    acec:	fe080693          	addi	a3,a6,-32
    acf0:	00d756b3          	srl	a3,a4,a3
    acf4:	00000593          	li	a1,0
    acf8:	01180863          	beq	a6,a7,ad08 <__subdf3+0x1c4>
    acfc:	04000593          	li	a1,64
    ad00:	410585b3          	sub	a1,a1,a6
    ad04:	00b715b3          	sll	a1,a4,a1
    ad08:	00c5e5b3          	or	a1,a1,a2
    ad0c:	00b035b3          	snez	a1,a1
    ad10:	00b6e6b3          	or	a3,a3,a1
    ad14:	00000813          	li	a6,0
    ad18:	f89ff06f          	j	aca0 <__subdf3+0x15c>
    ad1c:	00c766b3          	or	a3,a4,a2
    ad20:	00d036b3          	snez	a3,a3
    ad24:	ff1ff06f          	j	ad14 <__subdf3+0x1d0>
    ad28:	0c080663          	beqz	a6,adf4 <__subdf3+0x2b0>
    ad2c:	408886b3          	sub	a3,a7,s0
    ad30:	06041a63          	bnez	s0,ada4 <__subdf3+0x260>
    ad34:	00a7e5b3          	or	a1,a5,a0
    ad38:	00059a63          	bnez	a1,ad4c <__subdf3+0x208>
    ad3c:	00070793          	mv	a5,a4
    ad40:	00060513          	mv	a0,a2
    ad44:	00068413          	mv	s0,a3
    ad48:	ea9ff06f          	j	abf0 <__subdf3+0xac>
    ad4c:	fff68593          	addi	a1,a3,-1 # 7fffff <_sp+0x7d604f>
    ad50:	e80582e3          	beqz	a1,abd4 <__subdf3+0x90>
    ad54:	fe6684e3          	beq	a3,t1,ad3c <__subdf3+0x1f8>
    ad58:	03800693          	li	a3,56
    ad5c:	08b6c663          	blt	a3,a1,ade8 <__subdf3+0x2a4>
    ad60:	01f00693          	li	a3,31
    ad64:	02000313          	li	t1,32
    ad68:	04b6c863          	blt	a3,a1,adb8 <__subdf3+0x274>
    ad6c:	40b30333          	sub	t1,t1,a1
    ad70:	006796b3          	sll	a3,a5,t1
    ad74:	00b55833          	srl	a6,a0,a1
    ad78:	00651333          	sll	t1,a0,t1
    ad7c:	0106e6b3          	or	a3,a3,a6
    ad80:	00603333          	snez	t1,t1
    ad84:	0066e6b3          	or	a3,a3,t1
    ad88:	00b7d5b3          	srl	a1,a5,a1
    ad8c:	00c68633          	add	a2,a3,a2
    ad90:	00e585b3          	add	a1,a1,a4
    ad94:	00d636b3          	sltu	a3,a2,a3
    ad98:	00d587b3          	add	a5,a1,a3
    ad9c:	00088413          	mv	s0,a7
    ada0:	f11ff06f          	j	acb0 <__subdf3+0x16c>
    ada4:	4e688863          	beq	a7,t1,b294 <__subdf3+0x750>
    ada8:	008005b7          	lui	a1,0x800
    adac:	00b7e7b3          	or	a5,a5,a1
    adb0:	00068593          	mv	a1,a3
    adb4:	fa5ff06f          	j	ad58 <__subdf3+0x214>
    adb8:	fe058693          	addi	a3,a1,-32 # 7fffe0 <_sp+0x7d6030>
    adbc:	00d7d6b3          	srl	a3,a5,a3
    adc0:	00000813          	li	a6,0
    adc4:	00658863          	beq	a1,t1,add4 <__subdf3+0x290>
    adc8:	04000813          	li	a6,64
    adcc:	40b80833          	sub	a6,a6,a1
    add0:	01079833          	sll	a6,a5,a6
    add4:	00a86833          	or	a6,a6,a0
    add8:	01003833          	snez	a6,a6
    addc:	0106e6b3          	or	a3,a3,a6
    ade0:	00000593          	li	a1,0
    ade4:	fa9ff06f          	j	ad8c <__subdf3+0x248>
    ade8:	00a7e6b3          	or	a3,a5,a0
    adec:	00d036b3          	snez	a3,a3
    adf0:	ff1ff06f          	j	ade0 <__subdf3+0x29c>
    adf4:	00140693          	addi	a3,s0,1
    adf8:	7fe6f593          	andi	a1,a3,2046
    adfc:	06059463          	bnez	a1,ae64 <__subdf3+0x320>
    ae00:	00a7e6b3          	or	a3,a5,a0
    ae04:	04041063          	bnez	s0,ae44 <__subdf3+0x300>
    ae08:	44068263          	beqz	a3,b24c <__subdf3+0x708>
    ae0c:	00c766b3          	or	a3,a4,a2
    ae10:	44068263          	beqz	a3,b254 <__subdf3+0x710>
    ae14:	00c50633          	add	a2,a0,a2
    ae18:	00e787b3          	add	a5,a5,a4
    ae1c:	00a63533          	sltu	a0,a2,a0
    ae20:	00a787b3          	add	a5,a5,a0
    ae24:	00879713          	slli	a4,a5,0x8
    ae28:	2c075463          	bgez	a4,b0f0 <__subdf3+0x5ac>
    ae2c:	ff800737          	lui	a4,0xff800
    ae30:	fff70713          	addi	a4,a4,-1 # ff7fffff <_sp+0xff7d604f>
    ae34:	00e7f7b3          	and	a5,a5,a4
    ae38:	00060513          	mv	a0,a2
    ae3c:	00100413          	li	s0,1
    ae40:	db1ff06f          	j	abf0 <__subdf3+0xac>
    ae44:	44068863          	beqz	a3,b294 <__subdf3+0x750>
    ae48:	00c76733          	or	a4,a4,a2
    ae4c:	00030413          	mv	s0,t1
    ae50:	da0700e3          	beqz	a4,abf0 <__subdf3+0xac>
    ae54:	00000493          	li	s1,0
    ae58:	004007b7          	lui	a5,0x400
    ae5c:	00000513          	li	a0,0
    ae60:	d91ff06f          	j	abf0 <__subdf3+0xac>
    ae64:	40668a63          	beq	a3,t1,b278 <__subdf3+0x734>
    ae68:	00c50633          	add	a2,a0,a2
    ae6c:	00e787b3          	add	a5,a5,a4
    ae70:	00a63533          	sltu	a0,a2,a0
    ae74:	00a787b3          	add	a5,a5,a0
    ae78:	01f79713          	slli	a4,a5,0x1f
    ae7c:	00165613          	srli	a2,a2,0x1
    ae80:	00c76633          	or	a2,a4,a2
    ae84:	0017d793          	srli	a5,a5,0x1
    ae88:	00068413          	mv	s0,a3
    ae8c:	00767713          	andi	a4,a2,7
    ae90:	3c071663          	bnez	a4,b25c <__subdf3+0x718>
    ae94:	00060513          	mv	a0,a2
    ae98:	00879713          	slli	a4,a5,0x8
    ae9c:	d4075ae3          	bgez	a4,abf0 <__subdf3+0xac>
    aea0:	00140413          	addi	s0,s0,1
    aea4:	7ff00713          	li	a4,2047
    aea8:	3ce40a63          	beq	s0,a4,b27c <__subdf3+0x738>
    aeac:	ff800737          	lui	a4,0xff800
    aeb0:	fff70713          	addi	a4,a4,-1 # ff7fffff <_sp+0xff7d604f>
    aeb4:	00e7f7b3          	and	a5,a5,a4
    aeb8:	d39ff06f          	j	abf0 <__subdf3+0xac>
    aebc:	0f005063          	blez	a6,af9c <__subdf3+0x458>
    aec0:	02089c63          	bnez	a7,aef8 <__subdf3+0x3b4>
    aec4:	00c766b3          	or	a3,a4,a2
    aec8:	d20684e3          	beqz	a3,abf0 <__subdf3+0xac>
    aecc:	fff40813          	addi	a6,s0,-1
    aed0:	00081e63          	bnez	a6,aeec <__subdf3+0x3a8>
    aed4:	40c50633          	sub	a2,a0,a2
    aed8:	40e787b3          	sub	a5,a5,a4
    aedc:	00c53533          	sltu	a0,a0,a2
    aee0:	40a787b3          	sub	a5,a5,a0
    aee4:	00100413          	li	s0,1
    aee8:	0600006f          	j	af48 <__subdf3+0x404>
    aeec:	00641c63          	bne	s0,t1,af04 <__subdf3+0x3c0>
    aef0:	7ff00413          	li	s0,2047
    aef4:	cfdff06f          	j	abf0 <__subdf3+0xac>
    aef8:	ce640ce3          	beq	s0,t1,abf0 <__subdf3+0xac>
    aefc:	008006b7          	lui	a3,0x800
    af00:	00d76733          	or	a4,a4,a3
    af04:	03800693          	li	a3,56
    af08:	0906c463          	blt	a3,a6,af90 <__subdf3+0x44c>
    af0c:	01f00693          	li	a3,31
    af10:	02000893          	li	a7,32
    af14:	0506c663          	blt	a3,a6,af60 <__subdf3+0x41c>
    af18:	410888b3          	sub	a7,a7,a6
    af1c:	011716b3          	sll	a3,a4,a7
    af20:	010655b3          	srl	a1,a2,a6
    af24:	011618b3          	sll	a7,a2,a7
    af28:	00b6e6b3          	or	a3,a3,a1
    af2c:	011038b3          	snez	a7,a7
    af30:	0116e6b3          	or	a3,a3,a7
    af34:	01075833          	srl	a6,a4,a6
    af38:	40d50633          	sub	a2,a0,a3
    af3c:	41078833          	sub	a6,a5,a6
    af40:	00c53533          	sltu	a0,a0,a2
    af44:	40a807b3          	sub	a5,a6,a0
    af48:	00879713          	slli	a4,a5,0x8
    af4c:	f40750e3          	bgez	a4,ae8c <__subdf3+0x348>
    af50:	00979913          	slli	s2,a5,0x9
    af54:	00995913          	srli	s2,s2,0x9
    af58:	00060993          	mv	s3,a2
    af5c:	20c0006f          	j	b168 <__subdf3+0x624>
    af60:	fe080693          	addi	a3,a6,-32
    af64:	00d756b3          	srl	a3,a4,a3
    af68:	00000593          	li	a1,0
    af6c:	01180863          	beq	a6,a7,af7c <__subdf3+0x438>
    af70:	04000593          	li	a1,64
    af74:	410585b3          	sub	a1,a1,a6
    af78:	00b715b3          	sll	a1,a4,a1
    af7c:	00c5e5b3          	or	a1,a1,a2
    af80:	00b035b3          	snez	a1,a1
    af84:	00b6e6b3          	or	a3,a3,a1
    af88:	00000813          	li	a6,0
    af8c:	fadff06f          	j	af38 <__subdf3+0x3f4>
    af90:	00c766b3          	or	a3,a4,a2
    af94:	00d036b3          	snez	a3,a3
    af98:	ff1ff06f          	j	af88 <__subdf3+0x444>
    af9c:	0e080a63          	beqz	a6,b090 <__subdf3+0x54c>
    afa0:	40888833          	sub	a6,a7,s0
    afa4:	08041e63          	bnez	s0,b040 <__subdf3+0x4fc>
    afa8:	00a7e5b3          	or	a1,a5,a0
    afac:	00059c63          	bnez	a1,afc4 <__subdf3+0x480>
    afb0:	00068493          	mv	s1,a3
    afb4:	00070793          	mv	a5,a4
    afb8:	00060513          	mv	a0,a2
    afbc:	00080413          	mv	s0,a6
    afc0:	c31ff06f          	j	abf0 <__subdf3+0xac>
    afc4:	fff80593          	addi	a1,a6,-1
    afc8:	02059063          	bnez	a1,afe8 <__subdf3+0x4a4>
    afcc:	40a60533          	sub	a0,a2,a0
    afd0:	00a635b3          	sltu	a1,a2,a0
    afd4:	40f707b3          	sub	a5,a4,a5
    afd8:	00050613          	mv	a2,a0
    afdc:	40b787b3          	sub	a5,a5,a1
    afe0:	00068493          	mv	s1,a3
    afe4:	f01ff06f          	j	aee4 <__subdf3+0x3a0>
    afe8:	fc6804e3          	beq	a6,t1,afb0 <__subdf3+0x46c>
    afec:	03800813          	li	a6,56
    aff0:	08b84a63          	blt	a6,a1,b084 <__subdf3+0x540>
    aff4:	01f00813          	li	a6,31
    aff8:	02000e13          	li	t3,32
    affc:	04b84c63          	blt	a6,a1,b054 <__subdf3+0x510>
    b000:	40be0e33          	sub	t3,t3,a1
    b004:	00b55333          	srl	t1,a0,a1
    b008:	01c79833          	sll	a6,a5,t3
    b00c:	01c51e33          	sll	t3,a0,t3
    b010:	00686833          	or	a6,a6,t1
    b014:	01c03e33          	snez	t3,t3
    b018:	01c86533          	or	a0,a6,t3
    b01c:	00b7d5b3          	srl	a1,a5,a1
    b020:	40a60533          	sub	a0,a2,a0
    b024:	00a637b3          	sltu	a5,a2,a0
    b028:	40b705b3          	sub	a1,a4,a1
    b02c:	00050613          	mv	a2,a0
    b030:	40f587b3          	sub	a5,a1,a5
    b034:	00088413          	mv	s0,a7
    b038:	00068493          	mv	s1,a3
    b03c:	f0dff06f          	j	af48 <__subdf3+0x404>
    b040:	24688863          	beq	a7,t1,b290 <__subdf3+0x74c>
    b044:	008005b7          	lui	a1,0x800
    b048:	00b7e7b3          	or	a5,a5,a1
    b04c:	00080593          	mv	a1,a6
    b050:	f9dff06f          	j	afec <__subdf3+0x4a8>
    b054:	fe058813          	addi	a6,a1,-32 # 7fffe0 <_sp+0x7d6030>
    b058:	0107d833          	srl	a6,a5,a6
    b05c:	00000313          	li	t1,0
    b060:	01c58863          	beq	a1,t3,b070 <__subdf3+0x52c>
    b064:	04000313          	li	t1,64
    b068:	40b30333          	sub	t1,t1,a1
    b06c:	00679333          	sll	t1,a5,t1
    b070:	00a36333          	or	t1,t1,a0
    b074:	00603333          	snez	t1,t1
    b078:	00686533          	or	a0,a6,t1
    b07c:	00000593          	li	a1,0
    b080:	fa1ff06f          	j	b020 <__subdf3+0x4dc>
    b084:	00a7e533          	or	a0,a5,a0
    b088:	00a03533          	snez	a0,a0
    b08c:	ff1ff06f          	j	b07c <__subdf3+0x538>
    b090:	00140593          	addi	a1,s0,1
    b094:	7fe5f593          	andi	a1,a1,2046
    b098:	0a059063          	bnez	a1,b138 <__subdf3+0x5f4>
    b09c:	00c765b3          	or	a1,a4,a2
    b0a0:	00a7e833          	or	a6,a5,a0
    b0a4:	06041863          	bnez	s0,b114 <__subdf3+0x5d0>
    b0a8:	00081a63          	bnez	a6,b0bc <__subdf3+0x578>
    b0ac:	00070793          	mv	a5,a4
    b0b0:	02059e63          	bnez	a1,b0ec <__subdf3+0x5a8>
    b0b4:	00000493          	li	s1,0
    b0b8:	1c40006f          	j	b27c <__subdf3+0x738>
    b0bc:	18058c63          	beqz	a1,b254 <__subdf3+0x710>
    b0c0:	40c50833          	sub	a6,a0,a2
    b0c4:	010538b3          	sltu	a7,a0,a6
    b0c8:	40e785b3          	sub	a1,a5,a4
    b0cc:	411585b3          	sub	a1,a1,a7
    b0d0:	00859893          	slli	a7,a1,0x8
    b0d4:	0208d663          	bgez	a7,b100 <__subdf3+0x5bc>
    b0d8:	40a60533          	sub	a0,a2,a0
    b0dc:	00a635b3          	sltu	a1,a2,a0
    b0e0:	40f707b3          	sub	a5,a4,a5
    b0e4:	00050613          	mv	a2,a0
    b0e8:	40b787b3          	sub	a5,a5,a1
    b0ec:	00068493          	mv	s1,a3
    b0f0:	00c7e533          	or	a0,a5,a2
    b0f4:	0e050263          	beqz	a0,b1d8 <__subdf3+0x694>
    b0f8:	00000413          	li	s0,0
    b0fc:	d91ff06f          	j	ae8c <__subdf3+0x348>
    b100:	00b86533          	or	a0,a6,a1
    b104:	18050063          	beqz	a0,b284 <__subdf3+0x740>
    b108:	00058793          	mv	a5,a1
    b10c:	00080613          	mv	a2,a6
    b110:	fe1ff06f          	j	b0f0 <__subdf3+0x5ac>
    b114:	00081c63          	bnez	a6,b12c <__subdf3+0x5e8>
    b118:	16059c63          	bnez	a1,b290 <__subdf3+0x74c>
    b11c:	00000493          	li	s1,0
    b120:	00000513          	li	a0,0
    b124:	004007b7          	lui	a5,0x400
    b128:	dc9ff06f          	j	aef0 <__subdf3+0x3ac>
    b12c:	00030413          	mv	s0,t1
    b130:	ac0580e3          	beqz	a1,abf0 <__subdf3+0xac>
    b134:	d21ff06f          	j	ae54 <__subdf3+0x310>
    b138:	40c505b3          	sub	a1,a0,a2
    b13c:	00b53833          	sltu	a6,a0,a1
    b140:	40e78933          	sub	s2,a5,a4
    b144:	41090933          	sub	s2,s2,a6
    b148:	00891813          	slli	a6,s2,0x8
    b14c:	00058993          	mv	s3,a1
    b150:	06085e63          	bgez	a6,b1cc <__subdf3+0x688>
    b154:	40a609b3          	sub	s3,a2,a0
    b158:	40f70933          	sub	s2,a4,a5
    b15c:	01363633          	sltu	a2,a2,s3
    b160:	40c90933          	sub	s2,s2,a2
    b164:	00068493          	mv	s1,a3
    b168:	06090e63          	beqz	s2,b1e4 <__subdf3+0x6a0>
    b16c:	00090513          	mv	a0,s2
    b170:	178000ef          	jal	b2e8 <__clzsi2>
    b174:	ff850713          	addi	a4,a0,-8
    b178:	02000793          	li	a5,32
    b17c:	40e787b3          	sub	a5,a5,a4
    b180:	00e91933          	sll	s2,s2,a4
    b184:	00f9d7b3          	srl	a5,s3,a5
    b188:	0127e7b3          	or	a5,a5,s2
    b18c:	00e99633          	sll	a2,s3,a4
    b190:	0a874463          	blt	a4,s0,b238 <__subdf3+0x6f4>
    b194:	40870733          	sub	a4,a4,s0
    b198:	00170513          	addi	a0,a4,1
    b19c:	01f00693          	li	a3,31
    b1a0:	02000593          	li	a1,32
    b1a4:	06a6c263          	blt	a3,a0,b208 <__subdf3+0x6c4>
    b1a8:	40a585b3          	sub	a1,a1,a0
    b1ac:	00b79733          	sll	a4,a5,a1
    b1b0:	00a656b3          	srl	a3,a2,a0
    b1b4:	00b615b3          	sll	a1,a2,a1
    b1b8:	00d76733          	or	a4,a4,a3
    b1bc:	00b035b3          	snez	a1,a1
    b1c0:	00b76633          	or	a2,a4,a1
    b1c4:	00a7d7b3          	srl	a5,a5,a0
    b1c8:	f29ff06f          	j	b0f0 <__subdf3+0x5ac>
    b1cc:	0125e533          	or	a0,a1,s2
    b1d0:	f8051ce3          	bnez	a0,b168 <__subdf3+0x624>
    b1d4:	00000493          	li	s1,0
    b1d8:	00000793          	li	a5,0
    b1dc:	00000413          	li	s0,0
    b1e0:	a11ff06f          	j	abf0 <__subdf3+0xac>
    b1e4:	00098513          	mv	a0,s3
    b1e8:	100000ef          	jal	b2e8 <__clzsi2>
    b1ec:	01850713          	addi	a4,a0,24
    b1f0:	01f00793          	li	a5,31
    b1f4:	f8e7d2e3          	bge	a5,a4,b178 <__subdf3+0x634>
    b1f8:	ff850793          	addi	a5,a0,-8
    b1fc:	00f997b3          	sll	a5,s3,a5
    b200:	00000613          	li	a2,0
    b204:	f8dff06f          	j	b190 <__subdf3+0x64c>
    b208:	fe170713          	addi	a4,a4,-31
    b20c:	00e7d733          	srl	a4,a5,a4
    b210:	00000693          	li	a3,0
    b214:	00b50863          	beq	a0,a1,b224 <__subdf3+0x6e0>
    b218:	04000693          	li	a3,64
    b21c:	40a686b3          	sub	a3,a3,a0
    b220:	00d796b3          	sll	a3,a5,a3
    b224:	00d666b3          	or	a3,a2,a3
    b228:	00d036b3          	snez	a3,a3
    b22c:	00d76633          	or	a2,a4,a3
    b230:	00000793          	li	a5,0
    b234:	ebdff06f          	j	b0f0 <__subdf3+0x5ac>
    b238:	40e40433          	sub	s0,s0,a4
    b23c:	ff800737          	lui	a4,0xff800
    b240:	fff70713          	addi	a4,a4,-1 # ff7fffff <_sp+0xff7d604f>
    b244:	00e7f7b3          	and	a5,a5,a4
    b248:	c45ff06f          	j	ae8c <__subdf3+0x348>
    b24c:	00070793          	mv	a5,a4
    b250:	ea1ff06f          	j	b0f0 <__subdf3+0x5ac>
    b254:	00050613          	mv	a2,a0
    b258:	e99ff06f          	j	b0f0 <__subdf3+0x5ac>
    b25c:	00f67713          	andi	a4,a2,15
    b260:	00400693          	li	a3,4
    b264:	c2d708e3          	beq	a4,a3,ae94 <__subdf3+0x350>
    b268:	00d60533          	add	a0,a2,a3
    b26c:	00c53633          	sltu	a2,a0,a2
    b270:	00c787b3          	add	a5,a5,a2
    b274:	c25ff06f          	j	ae98 <__subdf3+0x354>
    b278:	00068413          	mv	s0,a3
    b27c:	00000793          	li	a5,0
    b280:	bddff06f          	j	ae5c <__subdf3+0x318>
    b284:	00000493          	li	s1,0
    b288:	00000793          	li	a5,0
    b28c:	965ff06f          	j	abf0 <__subdf3+0xac>
    b290:	00068493          	mv	s1,a3
    b294:	00070793          	mv	a5,a4
    b298:	00060513          	mv	a0,a2
    b29c:	c55ff06f          	j	aef0 <__subdf3+0x3ac>

0000b2a0 <__unorddf2>:
    b2a0:	00c59713          	slli	a4,a1,0xc
    b2a4:	0145d593          	srli	a1,a1,0x14
    b2a8:	00c69793          	slli	a5,a3,0xc
    b2ac:	7ff5f593          	andi	a1,a1,2047
    b2b0:	0146d693          	srli	a3,a3,0x14
    b2b4:	7ff00813          	li	a6,2047
    b2b8:	00c75713          	srli	a4,a4,0xc
    b2bc:	00c7d793          	srli	a5,a5,0xc
    b2c0:	7ff6f693          	andi	a3,a3,2047
    b2c4:	01059863          	bne	a1,a6,b2d4 <__unorddf2+0x34>
    b2c8:	00a76733          	or	a4,a4,a0
    b2cc:	00100513          	li	a0,1
    b2d0:	00071a63          	bnez	a4,b2e4 <__unorddf2+0x44>
    b2d4:	00000513          	li	a0,0
    b2d8:	01069663          	bne	a3,a6,b2e4 <__unorddf2+0x44>
    b2dc:	00c7e7b3          	or	a5,a5,a2
    b2e0:	00f03533          	snez	a0,a5
    b2e4:	00008067          	ret

0000b2e8 <__clzsi2>:
    b2e8:	000107b7          	lui	a5,0x10
    b2ec:	02f57a63          	bgeu	a0,a5,b320 <__clzsi2+0x38>
    b2f0:	10053793          	sltiu	a5,a0,256
    b2f4:	0017b793          	seqz	a5,a5
    b2f8:	00379793          	slli	a5,a5,0x3
    b2fc:	00020737          	lui	a4,0x20
    b300:	00f55533          	srl	a0,a0,a5
    b304:	2f070713          	addi	a4,a4,752 # 202f0 <__clz_tab>
    b308:	00a70733          	add	a4,a4,a0
    b30c:	00074503          	lbu	a0,0(a4)
    b310:	02000693          	li	a3,32
    b314:	40f686b3          	sub	a3,a3,a5
    b318:	40a68533          	sub	a0,a3,a0
    b31c:	00008067          	ret
    b320:	01000737          	lui	a4,0x1000
    b324:	01800793          	li	a5,24
    b328:	fce57ae3          	bgeu	a0,a4,b2fc <__clzsi2+0x14>
    b32c:	01000793          	li	a5,16
    b330:	fcdff06f          	j	b2fc <__clzsi2+0x14>

0000b334 <__divdi3>:
    b334:	00050e13          	mv	t3,a0
    b338:	00058313          	mv	t1,a1
    b33c:	00000713          	li	a4,0
    b340:	0005dc63          	bgez	a1,b358 <__divdi3+0x24>
    b344:	00a037b3          	snez	a5,a0
    b348:	40b00333          	neg	t1,a1
    b34c:	40f30333          	sub	t1,t1,a5
    b350:	40a00e33          	neg	t3,a0
    b354:	fff00713          	li	a4,-1
    b358:	0006dc63          	bgez	a3,b370 <__divdi3+0x3c>
    b35c:	00c037b3          	snez	a5,a2
    b360:	40d006b3          	neg	a3,a3
    b364:	fff74713          	not	a4,a4
    b368:	40f686b3          	sub	a3,a3,a5
    b36c:	40c00633          	neg	a2,a2
    b370:	00060813          	mv	a6,a2
    b374:	00068593          	mv	a1,a3
    b378:	000e0893          	mv	a7,t3
    b37c:	00030793          	mv	a5,t1
    b380:	22069663          	bnez	a3,b5ac <__divdi3+0x278>
    b384:	00020537          	lui	a0,0x20
    b388:	2f050513          	addi	a0,a0,752 # 202f0 <__clz_tab>
    b38c:	0ec37463          	bgeu	t1,a2,b474 <__divdi3+0x140>
    b390:	000106b7          	lui	a3,0x10
    b394:	0cd67663          	bgeu	a2,a3,b460 <__divdi3+0x12c>
    b398:	10063693          	sltiu	a3,a2,256
    b39c:	0016b693          	seqz	a3,a3
    b3a0:	00369693          	slli	a3,a3,0x3
    b3a4:	00d65eb3          	srl	t4,a2,a3
    b3a8:	01d50533          	add	a0,a0,t4
    b3ac:	00054503          	lbu	a0,0(a0)
    b3b0:	00d506b3          	add	a3,a0,a3
    b3b4:	02000513          	li	a0,32
    b3b8:	00a68e63          	beq	a3,a0,b3d4 <__divdi3+0xa0>
    b3bc:	40d50533          	sub	a0,a0,a3
    b3c0:	00a317b3          	sll	a5,t1,a0
    b3c4:	00de56b3          	srl	a3,t3,a3
    b3c8:	00a61833          	sll	a6,a2,a0
    b3cc:	00f6e7b3          	or	a5,a3,a5
    b3d0:	00ae18b3          	sll	a7,t3,a0
    b3d4:	01085313          	srli	t1,a6,0x10
    b3d8:	0267d533          	divu	a0,a5,t1
    b3dc:	01081613          	slli	a2,a6,0x10
    b3e0:	01065613          	srli	a2,a2,0x10
    b3e4:	0267f7b3          	remu	a5,a5,t1
    b3e8:	02a60e33          	mul	t3,a2,a0
    b3ec:	01079693          	slli	a3,a5,0x10
    b3f0:	0108d793          	srli	a5,a7,0x10
    b3f4:	00f6e7b3          	or	a5,a3,a5
    b3f8:	01c7fa63          	bgeu	a5,t3,b40c <__divdi3+0xd8>
    b3fc:	00f807b3          	add	a5,a6,a5
    b400:	01c7f463          	bgeu	a5,t3,b408 <__divdi3+0xd4>
    b404:	1907fa63          	bgeu	a5,a6,b598 <__divdi3+0x264>
    b408:	fff50513          	addi	a0,a0,-1
    b40c:	41c787b3          	sub	a5,a5,t3
    b410:	0267d6b3          	divu	a3,a5,t1
    b414:	01089893          	slli	a7,a7,0x10
    b418:	0108d893          	srli	a7,a7,0x10
    b41c:	0267f7b3          	remu	a5,a5,t1
    b420:	02d60633          	mul	a2,a2,a3
    b424:	01079793          	slli	a5,a5,0x10
    b428:	00f8e8b3          	or	a7,a7,a5
    b42c:	00c8fa63          	bgeu	a7,a2,b440 <__divdi3+0x10c>
    b430:	011808b3          	add	a7,a6,a7
    b434:	00c8f463          	bgeu	a7,a2,b43c <__divdi3+0x108>
    b438:	1708f663          	bgeu	a7,a6,b5a4 <__divdi3+0x270>
    b43c:	fff68693          	addi	a3,a3,-1 # ffff <fast_intr_ctrl.c.233e5230+0x206>
    b440:	01051513          	slli	a0,a0,0x10
    b444:	00d56533          	or	a0,a0,a3
    b448:	00070a63          	beqz	a4,b45c <__divdi3+0x128>
    b44c:	00a037b3          	snez	a5,a0
    b450:	40b005b3          	neg	a1,a1
    b454:	40f585b3          	sub	a1,a1,a5
    b458:	40a00533          	neg	a0,a0
    b45c:	00008067          	ret
    b460:	01000eb7          	lui	t4,0x1000
    b464:	01800693          	li	a3,24
    b468:	f3d67ee3          	bgeu	a2,t4,b3a4 <__divdi3+0x70>
    b46c:	01000693          	li	a3,16
    b470:	f35ff06f          	j	b3a4 <__divdi3+0x70>
    b474:	00000693          	li	a3,0
    b478:	00060c63          	beqz	a2,b490 <__divdi3+0x15c>
    b47c:	000107b7          	lui	a5,0x10
    b480:	04f67a63          	bgeu	a2,a5,b4d4 <__divdi3+0x1a0>
    b484:	10063693          	sltiu	a3,a2,256
    b488:	0016b693          	seqz	a3,a3
    b48c:	00369693          	slli	a3,a3,0x3
    b490:	00d657b3          	srl	a5,a2,a3
    b494:	00f50533          	add	a0,a0,a5
    b498:	00054783          	lbu	a5,0(a0)
    b49c:	02000593          	li	a1,32
    b4a0:	00d787b3          	add	a5,a5,a3
    b4a4:	04b79263          	bne	a5,a1,b4e8 <__divdi3+0x1b4>
    b4a8:	40c307b3          	sub	a5,t1,a2
    b4ac:	00100593          	li	a1,1
    b4b0:	01085313          	srli	t1,a6,0x10
    b4b4:	0267d533          	divu	a0,a5,t1
    b4b8:	01081613          	slli	a2,a6,0x10
    b4bc:	01065613          	srli	a2,a2,0x10
    b4c0:	0108d693          	srli	a3,a7,0x10
    b4c4:	0267f7b3          	remu	a5,a5,t1
    b4c8:	02a60e33          	mul	t3,a2,a0
    b4cc:	01079793          	slli	a5,a5,0x10
    b4d0:	f25ff06f          	j	b3f4 <__divdi3+0xc0>
    b4d4:	010007b7          	lui	a5,0x1000
    b4d8:	01800693          	li	a3,24
    b4dc:	faf67ae3          	bgeu	a2,a5,b490 <__divdi3+0x15c>
    b4e0:	01000693          	li	a3,16
    b4e4:	fadff06f          	j	b490 <__divdi3+0x15c>
    b4e8:	40f585b3          	sub	a1,a1,a5
    b4ec:	00b61833          	sll	a6,a2,a1
    b4f0:	00f356b3          	srl	a3,t1,a5
    b4f4:	00b31333          	sll	t1,t1,a1
    b4f8:	00fe57b3          	srl	a5,t3,a5
    b4fc:	0067e7b3          	or	a5,a5,t1
    b500:	01085313          	srli	t1,a6,0x10
    b504:	00be18b3          	sll	a7,t3,a1
    b508:	0266d5b3          	divu	a1,a3,t1
    b50c:	01081513          	slli	a0,a6,0x10
    b510:	01055513          	srli	a0,a0,0x10
    b514:	0266f6b3          	remu	a3,a3,t1
    b518:	02b50e33          	mul	t3,a0,a1
    b51c:	01069613          	slli	a2,a3,0x10
    b520:	0107d693          	srli	a3,a5,0x10
    b524:	00c6e6b3          	or	a3,a3,a2
    b528:	01c6fa63          	bgeu	a3,t3,b53c <__divdi3+0x208>
    b52c:	00d806b3          	add	a3,a6,a3
    b530:	01c6f463          	bgeu	a3,t3,b538 <__divdi3+0x204>
    b534:	0506f663          	bgeu	a3,a6,b580 <__divdi3+0x24c>
    b538:	fff58593          	addi	a1,a1,-1
    b53c:	41c686b3          	sub	a3,a3,t3
    b540:	0266d633          	divu	a2,a3,t1
    b544:	01079793          	slli	a5,a5,0x10
    b548:	0107d793          	srli	a5,a5,0x10
    b54c:	0266f6b3          	remu	a3,a3,t1
    b550:	02c50533          	mul	a0,a0,a2
    b554:	01069693          	slli	a3,a3,0x10
    b558:	00d7e7b3          	or	a5,a5,a3
    b55c:	00a7fa63          	bgeu	a5,a0,b570 <__divdi3+0x23c>
    b560:	00f807b3          	add	a5,a6,a5
    b564:	00a7f463          	bgeu	a5,a0,b56c <__divdi3+0x238>
    b568:	0307f263          	bgeu	a5,a6,b58c <__divdi3+0x258>
    b56c:	fff60613          	addi	a2,a2,-1 # ffff <fast_intr_ctrl.c.233e5230+0x206>
    b570:	01059593          	slli	a1,a1,0x10
    b574:	40a787b3          	sub	a5,a5,a0
    b578:	00c5e5b3          	or	a1,a1,a2
    b57c:	f35ff06f          	j	b4b0 <__divdi3+0x17c>
    b580:	ffe58593          	addi	a1,a1,-2
    b584:	010686b3          	add	a3,a3,a6
    b588:	fb5ff06f          	j	b53c <__divdi3+0x208>
    b58c:	ffe60613          	addi	a2,a2,-2
    b590:	010787b3          	add	a5,a5,a6
    b594:	fddff06f          	j	b570 <__divdi3+0x23c>
    b598:	ffe50513          	addi	a0,a0,-2
    b59c:	010787b3          	add	a5,a5,a6
    b5a0:	e6dff06f          	j	b40c <__divdi3+0xd8>
    b5a4:	ffe68693          	addi	a3,a3,-2
    b5a8:	e99ff06f          	j	b440 <__divdi3+0x10c>
    b5ac:	18d36463          	bltu	t1,a3,b734 <__divdi3+0x400>
    b5b0:	000107b7          	lui	a5,0x10
    b5b4:	04f6f463          	bgeu	a3,a5,b5fc <__divdi3+0x2c8>
    b5b8:	1006b593          	sltiu	a1,a3,256
    b5bc:	0015b593          	seqz	a1,a1
    b5c0:	00359593          	slli	a1,a1,0x3
    b5c4:	000207b7          	lui	a5,0x20
    b5c8:	00b6d533          	srl	a0,a3,a1
    b5cc:	2f078793          	addi	a5,a5,752 # 202f0 <__clz_tab>
    b5d0:	00a787b3          	add	a5,a5,a0
    b5d4:	0007c783          	lbu	a5,0(a5)
    b5d8:	02000e93          	li	t4,32
    b5dc:	00b787b3          	add	a5,a5,a1
    b5e0:	03d79863          	bne	a5,t4,b610 <__divdi3+0x2dc>
    b5e4:	00ce3533          	sltu	a0,t3,a2
    b5e8:	00153513          	seqz	a0,a0
    b5ec:	0066b6b3          	sltu	a3,a3,t1
    b5f0:	00d56533          	or	a0,a0,a3
    b5f4:	00000593          	li	a1,0
    b5f8:	e51ff06f          	j	b448 <__divdi3+0x114>
    b5fc:	010007b7          	lui	a5,0x1000
    b600:	01800593          	li	a1,24
    b604:	fcf6f0e3          	bgeu	a3,a5,b5c4 <__divdi3+0x290>
    b608:	01000593          	li	a1,16
    b60c:	fb9ff06f          	j	b5c4 <__divdi3+0x290>
    b610:	40fe8eb3          	sub	t4,t4,a5
    b614:	00f655b3          	srl	a1,a2,a5
    b618:	01d696b3          	sll	a3,a3,t4
    b61c:	00f35833          	srl	a6,t1,a5
    b620:	00d5e6b3          	or	a3,a1,a3
    b624:	01d31333          	sll	t1,t1,t4
    b628:	00fe57b3          	srl	a5,t3,a5
    b62c:	0067e5b3          	or	a1,a5,t1
    b630:	0106d313          	srli	t1,a3,0x10
    b634:	026857b3          	divu	a5,a6,t1
    b638:	01069513          	slli	a0,a3,0x10
    b63c:	01055513          	srli	a0,a0,0x10
    b640:	01d61633          	sll	a2,a2,t4
    b644:	02687833          	remu	a6,a6,t1
    b648:	02f50f33          	mul	t5,a0,a5
    b64c:	01081893          	slli	a7,a6,0x10
    b650:	0105d813          	srli	a6,a1,0x10
    b654:	01186833          	or	a6,a6,a7
    b658:	01e87a63          	bgeu	a6,t5,b66c <__divdi3+0x338>
    b65c:	01068833          	add	a6,a3,a6
    b660:	01e87463          	bgeu	a6,t5,b668 <__divdi3+0x334>
    b664:	0ad87c63          	bgeu	a6,a3,b71c <__divdi3+0x3e8>
    b668:	fff78793          	addi	a5,a5,-1 # ffffff <_sp+0xfd604f>
    b66c:	41e80833          	sub	a6,a6,t5
    b670:	026858b3          	divu	a7,a6,t1
    b674:	01059593          	slli	a1,a1,0x10
    b678:	0105d593          	srli	a1,a1,0x10
    b67c:	02687833          	remu	a6,a6,t1
    b680:	03150533          	mul	a0,a0,a7
    b684:	01081813          	slli	a6,a6,0x10
    b688:	0105e5b3          	or	a1,a1,a6
    b68c:	00a5fa63          	bgeu	a1,a0,b6a0 <__divdi3+0x36c>
    b690:	00b685b3          	add	a1,a3,a1
    b694:	00a5f463          	bgeu	a1,a0,b69c <__divdi3+0x368>
    b698:	08d5f863          	bgeu	a1,a3,b728 <__divdi3+0x3f4>
    b69c:	fff88893          	addi	a7,a7,-1
    b6a0:	01079793          	slli	a5,a5,0x10
    b6a4:	01061813          	slli	a6,a2,0x10
    b6a8:	40a585b3          	sub	a1,a1,a0
    b6ac:	0117e533          	or	a0,a5,a7
    b6b0:	01089893          	slli	a7,a7,0x10
    b6b4:	0108d893          	srli	a7,a7,0x10
    b6b8:	01055693          	srli	a3,a0,0x10
    b6bc:	01085813          	srli	a6,a6,0x10
    b6c0:	01065613          	srli	a2,a2,0x10
    b6c4:	03088333          	mul	t1,a7,a6
    b6c8:	03068833          	mul	a6,a3,a6
    b6cc:	01035793          	srli	a5,t1,0x10
    b6d0:	02c888b3          	mul	a7,a7,a2
    b6d4:	02c686b3          	mul	a3,a3,a2
    b6d8:	010888b3          	add	a7,a7,a6
    b6dc:	011787b3          	add	a5,a5,a7
    b6e0:	0107f663          	bgeu	a5,a6,b6ec <__divdi3+0x3b8>
    b6e4:	00010637          	lui	a2,0x10
    b6e8:	00c686b3          	add	a3,a3,a2
    b6ec:	0107d613          	srli	a2,a5,0x10
    b6f0:	00d606b3          	add	a3,a2,a3
    b6f4:	02d5e063          	bltu	a1,a3,b714 <__divdi3+0x3e0>
    b6f8:	01031313          	slli	t1,t1,0x10
    b6fc:	01079793          	slli	a5,a5,0x10
    b700:	01035313          	srli	t1,t1,0x10
    b704:	01de1e33          	sll	t3,t3,t4
    b708:	006787b3          	add	a5,a5,t1
    b70c:	eefe74e3          	bgeu	t3,a5,b5f4 <__divdi3+0x2c0>
    b710:	eed592e3          	bne	a1,a3,b5f4 <__divdi3+0x2c0>
    b714:	fff50513          	addi	a0,a0,-1
    b718:	eddff06f          	j	b5f4 <__divdi3+0x2c0>
    b71c:	ffe78793          	addi	a5,a5,-2
    b720:	00d80833          	add	a6,a6,a3
    b724:	f49ff06f          	j	b66c <__divdi3+0x338>
    b728:	ffe88893          	addi	a7,a7,-2
    b72c:	00d585b3          	add	a1,a1,a3
    b730:	f71ff06f          	j	b6a0 <__divdi3+0x36c>
    b734:	00000593          	li	a1,0
    b738:	00000513          	li	a0,0
    b73c:	d0dff06f          	j	b448 <__divdi3+0x114>

0000b740 <__ledf2>:
    b740:	0145d313          	srli	t1,a1,0x14
    b744:	00c59893          	slli	a7,a1,0xc
    b748:	00c69713          	slli	a4,a3,0xc
    b74c:	0146d813          	srli	a6,a3,0x14
    b750:	7ff37313          	andi	t1,t1,2047
    b754:	7ff00793          	li	a5,2047
    b758:	00c8d893          	srli	a7,a7,0xc
    b75c:	01f5d593          	srli	a1,a1,0x1f
    b760:	00c75713          	srli	a4,a4,0xc
    b764:	7ff87813          	andi	a6,a6,2047
    b768:	01f6d693          	srli	a3,a3,0x1f
    b76c:	04f30263          	beq	t1,a5,b7b0 <__ledf2+0x70>
    b770:	7ff00e13          	li	t3,2047
    b774:	00080793          	mv	a5,a6
    b778:	01c81663          	bne	a6,t3,b784 <__ledf2+0x44>
    b77c:	00c76e33          	or	t3,a4,a2
    b780:	020e1c63          	bnez	t3,b7b8 <__ledf2+0x78>
    b784:	00000e13          	li	t3,0
    b788:	00031663          	bnez	t1,b794 <__ledf2+0x54>
    b78c:	00a8ee33          	or	t3,a7,a0
    b790:	001e3e13          	seqz	t3,t3
    b794:	06081263          	bnez	a6,b7f8 <__ledf2+0xb8>
    b798:	00c76eb3          	or	t4,a4,a2
    b79c:	020e0463          	beqz	t3,b7c4 <__ledf2+0x84>
    b7a0:	000e8e63          	beqz	t4,b7bc <__ledf2+0x7c>
    b7a4:	00169793          	slli	a5,a3,0x1
    b7a8:	fff78793          	addi	a5,a5,-1
    b7ac:	0100006f          	j	b7bc <__ledf2+0x7c>
    b7b0:	00a8e7b3          	or	a5,a7,a0
    b7b4:	fa078ee3          	beqz	a5,b770 <__ledf2+0x30>
    b7b8:	00200793          	li	a5,2
    b7bc:	00078513          	mv	a0,a5
    b7c0:	00008067          	ret
    b7c4:	020e9c63          	bnez	t4,b7fc <__ledf2+0xbc>
    b7c8:	40b005b3          	neg	a1,a1
    b7cc:	0015e793          	ori	a5,a1,1
    b7d0:	fedff06f          	j	b7bc <__ledf2+0x7c>
    b7d4:	fd0348e3          	blt	t1,a6,b7a4 <__ledf2+0x64>
    b7d8:	ff1768e3          	bltu	a4,a7,b7c8 <__ledf2+0x88>
    b7dc:	00a67463          	bgeu	a2,a0,b7e4 <__ledf2+0xa4>
    b7e0:	fee884e3          	beq	a7,a4,b7c8 <__ledf2+0x88>
    b7e4:	00c56663          	bltu	a0,a2,b7f0 <__ledf2+0xb0>
    b7e8:	00000793          	li	a5,0
    b7ec:	fce8f8e3          	bgeu	a7,a4,b7bc <__ledf2+0x7c>
    b7f0:	00159793          	slli	a5,a1,0x1
    b7f4:	fb5ff06f          	j	b7a8 <__ledf2+0x68>
    b7f8:	fa0e16e3          	bnez	t3,b7a4 <__ledf2+0x64>
    b7fc:	fcb696e3          	bne	a3,a1,b7c8 <__ledf2+0x88>
    b800:	fc685ae3          	bge	a6,t1,b7d4 <__ledf2+0x94>
    b804:	40d006b3          	neg	a3,a3
    b808:	0016e793          	ori	a5,a3,1
    b80c:	fb1ff06f          	j	b7bc <__ledf2+0x7c>

0000b810 <__addsf3>:
    b810:	ff010113          	addi	sp,sp,-16
    b814:	0175d693          	srli	a3,a1,0x17
    b818:	00912223          	sw	s1,4(sp)
    b81c:	01755493          	srli	s1,a0,0x17
    b820:	00959793          	slli	a5,a1,0x9
    b824:	01212023          	sw	s2,0(sp)
    b828:	00951713          	slli	a4,a0,0x9
    b82c:	0ff4f493          	zext.b	s1,s1
    b830:	0ff6f693          	zext.b	a3,a3
    b834:	00112623          	sw	ra,12(sp)
    b838:	00812423          	sw	s0,8(sp)
    b83c:	01f55913          	srli	s2,a0,0x1f
    b840:	01f5d593          	srli	a1,a1,0x1f
    b844:	00675713          	srli	a4,a4,0x6
    b848:	0067d793          	srli	a5,a5,0x6
    b84c:	40d48633          	sub	a2,s1,a3
    b850:	1cb91663          	bne	s2,a1,ba1c <__addsf3+0x20c>
    b854:	0ac05863          	blez	a2,b904 <__addsf3+0xf4>
    b858:	0ff00513          	li	a0,255
    b85c:	04069063          	bnez	a3,b89c <__addsf3+0x8c>
    b860:	00078e63          	beqz	a5,b87c <__addsf3+0x6c>
    b864:	fff60593          	addi	a1,a2,-1 # ffff <fast_intr_ctrl.c.233e5230+0x206>
    b868:	00059863          	bnez	a1,b878 <__addsf3+0x68>
    b86c:	00f70433          	add	s0,a4,a5
    b870:	00100493          	li	s1,1
    b874:	0600006f          	j	b8d4 <__addsf3+0xc4>
    b878:	02a61a63          	bne	a2,a0,b8ac <__addsf3+0x9c>
    b87c:	00060493          	mv	s1,a2
    b880:	00070793          	mv	a5,a4
    b884:	0037d413          	srli	s0,a5,0x3
    b888:	0ff00793          	li	a5,255
    b88c:	10f49c63          	bne	s1,a5,b9a4 <__addsf3+0x194>
    b890:	10040a63          	beqz	s0,b9a4 <__addsf3+0x194>
    b894:	00400437          	lui	s0,0x400
    b898:	2f80006f          	j	bb90 <__addsf3+0x380>
    b89c:	fea482e3          	beq	s1,a0,b880 <__addsf3+0x70>
    b8a0:	040006b7          	lui	a3,0x4000
    b8a4:	00d7e7b3          	or	a5,a5,a3
    b8a8:	00060593          	mv	a1,a2
    b8ac:	01b00693          	li	a3,27
    b8b0:	00100413          	li	s0,1
    b8b4:	00b6ce63          	blt	a3,a1,b8d0 <__addsf3+0xc0>
    b8b8:	02000693          	li	a3,32
    b8bc:	40b686b3          	sub	a3,a3,a1
    b8c0:	00b7d433          	srl	s0,a5,a1
    b8c4:	00d797b3          	sll	a5,a5,a3
    b8c8:	00f037b3          	snez	a5,a5
    b8cc:	00f46433          	or	s0,s0,a5
    b8d0:	00e40433          	add	s0,s0,a4
    b8d4:	00541793          	slli	a5,s0,0x5
    b8d8:	1207d263          	bgez	a5,b9fc <__addsf3+0x1ec>
    b8dc:	00148493          	addi	s1,s1,1 # 800001 <_sp+0x7d6051>
    b8e0:	0ff00793          	li	a5,255
    b8e4:	34f48663          	beq	s1,a5,bc30 <__addsf3+0x420>
    b8e8:	7e000737          	lui	a4,0x7e000
    b8ec:	00145793          	srli	a5,s0,0x1
    b8f0:	fff70713          	addi	a4,a4,-1 # 7dffffff <_sp+0x7dfd604f>
    b8f4:	00e7f7b3          	and	a5,a5,a4
    b8f8:	00147413          	andi	s0,s0,1
    b8fc:	0087e433          	or	s0,a5,s0
    b900:	0fc0006f          	j	b9fc <__addsf3+0x1ec>
    b904:	06060463          	beqz	a2,b96c <__addsf3+0x15c>
    b908:	40968633          	sub	a2,a3,s1
    b90c:	0ff00513          	li	a0,255
    b910:	00049e63          	bnez	s1,b92c <__addsf3+0x11c>
    b914:	30070863          	beqz	a4,bc24 <__addsf3+0x414>
    b918:	fff60593          	addi	a1,a2,-1
    b91c:	f40588e3          	beqz	a1,b86c <__addsf3+0x5c>
    b920:	00a61e63          	bne	a2,a0,b93c <__addsf3+0x12c>
    b924:	0ff00493          	li	s1,255
    b928:	f5dff06f          	j	b884 <__addsf3+0x74>
    b92c:	fea68ce3          	beq	a3,a0,b924 <__addsf3+0x114>
    b930:	040005b7          	lui	a1,0x4000
    b934:	00b76733          	or	a4,a4,a1
    b938:	00060593          	mv	a1,a2
    b93c:	01b00613          	li	a2,27
    b940:	00100413          	li	s0,1
    b944:	00b64e63          	blt	a2,a1,b960 <__addsf3+0x150>
    b948:	02000613          	li	a2,32
    b94c:	40b60633          	sub	a2,a2,a1
    b950:	00b75433          	srl	s0,a4,a1
    b954:	00c71733          	sll	a4,a4,a2
    b958:	00e03733          	snez	a4,a4
    b95c:	00e46433          	or	s0,s0,a4
    b960:	00f40433          	add	s0,s0,a5
    b964:	00068493          	mv	s1,a3
    b968:	f6dff06f          	j	b8d4 <__addsf3+0xc4>
    b96c:	00148693          	addi	a3,s1,1
    b970:	0fe6f613          	andi	a2,a3,254
    b974:	06061a63          	bnez	a2,b9e8 <__addsf3+0x1d8>
    b978:	06049063          	bnez	s1,b9d8 <__addsf3+0x1c8>
    b97c:	28070e63          	beqz	a4,bc18 <__addsf3+0x408>
    b980:	1a078c63          	beqz	a5,bb38 <__addsf3+0x328>
    b984:	00e787b3          	add	a5,a5,a4
    b988:	00579713          	slli	a4,a5,0x5
    b98c:	ee075ce3          	bgez	a4,b884 <__addsf3+0x74>
    b990:	0037d413          	srli	s0,a5,0x3
    b994:	1f8007b7          	lui	a5,0x1f800
    b998:	fff78793          	addi	a5,a5,-1 # 1f7fffff <_sp+0x1f7d604f>
    b99c:	00f47433          	and	s0,s0,a5
    b9a0:	00100493          	li	s1,1
    b9a4:	0ff4f493          	zext.b	s1,s1
    b9a8:	00941413          	slli	s0,s0,0x9
    b9ac:	00945413          	srli	s0,s0,0x9
    b9b0:	01749493          	slli	s1,s1,0x17
    b9b4:	0084e4b3          	or	s1,s1,s0
    b9b8:	00c12083          	lw	ra,12(sp)
    b9bc:	00812403          	lw	s0,8(sp)
    b9c0:	01f91513          	slli	a0,s2,0x1f
    b9c4:	00a4e533          	or	a0,s1,a0
    b9c8:	00012903          	lw	s2,0(sp)
    b9cc:	00412483          	lw	s1,4(sp)
    b9d0:	01010113          	addi	sp,sp,16
    b9d4:	00008067          	ret
    b9d8:	f40706e3          	beqz	a4,b924 <__addsf3+0x114>
    b9dc:	1c079063          	bnez	a5,bb9c <__addsf3+0x38c>
    b9e0:	00070793          	mv	a5,a4
    b9e4:	f41ff06f          	j	b924 <__addsf3+0x114>
    b9e8:	0ff00613          	li	a2,255
    b9ec:	24c68063          	beq	a3,a2,bc2c <__addsf3+0x41c>
    b9f0:	00f70433          	add	s0,a4,a5
    b9f4:	00145413          	srli	s0,s0,0x1
    b9f8:	00068493          	mv	s1,a3
    b9fc:	00747793          	andi	a5,s0,7
    ba00:	00078a63          	beqz	a5,ba14 <__addsf3+0x204>
    ba04:	00400693          	li	a3,4
    ba08:	00f47713          	andi	a4,s0,15
    ba0c:	00d407b3          	add	a5,s0,a3
    ba10:	12d71663          	bne	a4,a3,bb3c <__addsf3+0x32c>
    ba14:	00040793          	mv	a5,s0
    ba18:	1240006f          	j	bb3c <__addsf3+0x32c>
    ba1c:	06c05a63          	blez	a2,ba90 <__addsf3+0x280>
    ba20:	04069c63          	bnez	a3,ba78 <__addsf3+0x268>
    ba24:	e4078ce3          	beqz	a5,b87c <__addsf3+0x6c>
    ba28:	fff60593          	addi	a1,a2,-1
    ba2c:	40f70433          	sub	s0,a4,a5
    ba30:	08058063          	beqz	a1,bab0 <__addsf3+0x2a0>
    ba34:	0ff00693          	li	a3,255
    ba38:	e4d602e3          	beq	a2,a3,b87c <__addsf3+0x6c>
    ba3c:	01b00693          	li	a3,27
    ba40:	00100413          	li	s0,1
    ba44:	00b6ce63          	blt	a3,a1,ba60 <__addsf3+0x250>
    ba48:	02000693          	li	a3,32
    ba4c:	40b686b3          	sub	a3,a3,a1
    ba50:	00b7d433          	srl	s0,a5,a1
    ba54:	00d797b3          	sll	a5,a5,a3
    ba58:	00f037b3          	snez	a5,a5
    ba5c:	00f46433          	or	s0,s0,a5
    ba60:	40870433          	sub	s0,a4,s0
    ba64:	00541793          	slli	a5,s0,0x5
    ba68:	f807dae3          	bgez	a5,b9fc <__addsf3+0x1ec>
    ba6c:	00641413          	slli	s0,s0,0x6
    ba70:	00645413          	srli	s0,s0,0x6
    ba74:	14c0006f          	j	bbc0 <__addsf3+0x3b0>
    ba78:	0ff00693          	li	a3,255
    ba7c:	e0d482e3          	beq	s1,a3,b880 <__addsf3+0x70>
    ba80:	040006b7          	lui	a3,0x4000
    ba84:	00d7e7b3          	or	a5,a5,a3
    ba88:	00060593          	mv	a1,a2
    ba8c:	fb1ff06f          	j	ba3c <__addsf3+0x22c>
    ba90:	08060063          	beqz	a2,bb10 <__addsf3+0x300>
    ba94:	40968633          	sub	a2,a3,s1
    ba98:	02049863          	bnez	s1,bac8 <__addsf3+0x2b8>
    ba9c:	18070263          	beqz	a4,bc20 <__addsf3+0x410>
    baa0:	fff60513          	addi	a0,a2,-1
    baa4:	00051a63          	bnez	a0,bab8 <__addsf3+0x2a8>
    baa8:	40e78433          	sub	s0,a5,a4
    baac:	00058913          	mv	s2,a1
    bab0:	00100493          	li	s1,1
    bab4:	fb1ff06f          	j	ba64 <__addsf3+0x254>
    bab8:	0ff00813          	li	a6,255
    babc:	03061063          	bne	a2,a6,badc <__addsf3+0x2cc>
    bac0:	00058913          	mv	s2,a1
    bac4:	e61ff06f          	j	b924 <__addsf3+0x114>
    bac8:	0ff00513          	li	a0,255
    bacc:	fea68ae3          	beq	a3,a0,bac0 <__addsf3+0x2b0>
    bad0:	04000537          	lui	a0,0x4000
    bad4:	00a76733          	or	a4,a4,a0
    bad8:	00060513          	mv	a0,a2
    badc:	01b00613          	li	a2,27
    bae0:	00100413          	li	s0,1
    bae4:	00a64e63          	blt	a2,a0,bb00 <__addsf3+0x2f0>
    bae8:	02000613          	li	a2,32
    baec:	40a60633          	sub	a2,a2,a0
    baf0:	00a75433          	srl	s0,a4,a0
    baf4:	00c71733          	sll	a4,a4,a2
    baf8:	00e03733          	snez	a4,a4
    bafc:	00e46433          	or	s0,s0,a4
    bb00:	40878433          	sub	s0,a5,s0
    bb04:	00068493          	mv	s1,a3
    bb08:	00058913          	mv	s2,a1
    bb0c:	f59ff06f          	j	ba64 <__addsf3+0x254>
    bb10:	00148693          	addi	a3,s1,1
    bb14:	0fe6f693          	andi	a3,a3,254
    bb18:	08069a63          	bnez	a3,bbac <__addsf3+0x39c>
    bb1c:	06049e63          	bnez	s1,bb98 <__addsf3+0x388>
    bb20:	00071a63          	bnez	a4,bb34 <__addsf3+0x324>
    bb24:	00058913          	mv	s2,a1
    bb28:	d4079ee3          	bnez	a5,b884 <__addsf3+0x74>
    bb2c:	00000413          	li	s0,0
    bb30:	0600006f          	j	bb90 <__addsf3+0x380>
    bb34:	02079a63          	bnez	a5,bb68 <__addsf3+0x358>
    bb38:	00070793          	mv	a5,a4
    bb3c:	00579713          	slli	a4,a5,0x5
    bb40:	d40752e3          	bgez	a4,b884 <__addsf3+0x74>
    bb44:	00148493          	addi	s1,s1,1
    bb48:	0ff00713          	li	a4,255
    bb4c:	00000413          	li	s0,0
    bb50:	e4e48ae3          	beq	s1,a4,b9a4 <__addsf3+0x194>
    bb54:	0037d413          	srli	s0,a5,0x3
    bb58:	1f8007b7          	lui	a5,0x1f800
    bb5c:	fff78793          	addi	a5,a5,-1 # 1f7fffff <_sp+0x1f7d604f>
    bb60:	00f47433          	and	s0,s0,a5
    bb64:	e41ff06f          	j	b9a4 <__addsf3+0x194>
    bb68:	40f70433          	sub	s0,a4,a5
    bb6c:	00541693          	slli	a3,s0,0x5
    bb70:	0006dc63          	bgez	a3,bb88 <__addsf3+0x378>
    bb74:	40e78433          	sub	s0,a5,a4
    bb78:	00058913          	mv	s2,a1
    bb7c:	00000493          	li	s1,0
    bb80:	e20402e3          	beqz	s0,b9a4 <__addsf3+0x194>
    bb84:	e79ff06f          	j	b9fc <__addsf3+0x1ec>
    bb88:	00040793          	mv	a5,s0
    bb8c:	ce041ce3          	bnez	s0,b884 <__addsf3+0x74>
    bb90:	00000913          	li	s2,0
    bb94:	e11ff06f          	j	b9a4 <__addsf3+0x194>
    bb98:	e40712e3          	bnez	a4,b9dc <__addsf3+0x1cc>
    bb9c:	00000913          	li	s2,0
    bba0:	0ff00493          	li	s1,255
    bba4:	00400437          	lui	s0,0x400
    bba8:	dfdff06f          	j	b9a4 <__addsf3+0x194>
    bbac:	40f70433          	sub	s0,a4,a5
    bbb0:	00541693          	slli	a3,s0,0x5
    bbb4:	0406d263          	bgez	a3,bbf8 <__addsf3+0x3e8>
    bbb8:	40e78433          	sub	s0,a5,a4
    bbbc:	00058913          	mv	s2,a1
    bbc0:	00040513          	mv	a0,s0
    bbc4:	f24ff0ef          	jal	b2e8 <__clzsi2>
    bbc8:	ffb50513          	addi	a0,a0,-5 # 3fffffb <_sp+0x3fd604b>
    bbcc:	00a41433          	sll	s0,s0,a0
    bbd0:	02954a63          	blt	a0,s1,bc04 <__addsf3+0x3f4>
    bbd4:	40950533          	sub	a0,a0,s1
    bbd8:	00150513          	addi	a0,a0,1
    bbdc:	02000793          	li	a5,32
    bbe0:	40a787b3          	sub	a5,a5,a0
    bbe4:	00a45733          	srl	a4,s0,a0
    bbe8:	00f41433          	sll	s0,s0,a5
    bbec:	00803433          	snez	s0,s0
    bbf0:	00876433          	or	s0,a4,s0
    bbf4:	f89ff06f          	j	bb7c <__addsf3+0x36c>
    bbf8:	fc0414e3          	bnez	s0,bbc0 <__addsf3+0x3b0>
    bbfc:	00000493          	li	s1,0
    bc00:	f91ff06f          	j	bb90 <__addsf3+0x380>
    bc04:	fc0007b7          	lui	a5,0xfc000
    bc08:	fff78793          	addi	a5,a5,-1 # fbffffff <_sp+0xfbfd604f>
    bc0c:	40a484b3          	sub	s1,s1,a0
    bc10:	00f47433          	and	s0,s0,a5
    bc14:	de9ff06f          	j	b9fc <__addsf3+0x1ec>
    bc18:	00078413          	mv	s0,a5
    bc1c:	f61ff06f          	j	bb7c <__addsf3+0x36c>
    bc20:	00058913          	mv	s2,a1
    bc24:	00060493          	mv	s1,a2
    bc28:	c5dff06f          	j	b884 <__addsf3+0x74>
    bc2c:	00068493          	mv	s1,a3
    bc30:	00000413          	li	s0,0
    bc34:	d71ff06f          	j	b9a4 <__addsf3+0x194>

0000bc38 <__divsf3>:
    bc38:	fe010113          	addi	sp,sp,-32
    bc3c:	01212823          	sw	s2,16(sp)
    bc40:	01755913          	srli	s2,a0,0x17
    bc44:	00912a23          	sw	s1,20(sp)
    bc48:	01312623          	sw	s3,12(sp)
    bc4c:	01512223          	sw	s5,4(sp)
    bc50:	00951713          	slli	a4,a0,0x9
    bc54:	00112e23          	sw	ra,28(sp)
    bc58:	00812c23          	sw	s0,24(sp)
    bc5c:	01412423          	sw	s4,8(sp)
    bc60:	0ff97913          	zext.b	s2,s2
    bc64:	00058a93          	mv	s5,a1
    bc68:	00975993          	srli	s3,a4,0x9
    bc6c:	01f55493          	srli	s1,a0,0x1f
    bc70:	14090a63          	beqz	s2,bdc4 <__divsf3+0x18c>
    bc74:	0ff00793          	li	a5,255
    bc78:	16f90663          	beq	s2,a5,bde4 <__divsf3+0x1ac>
    bc7c:	00399713          	slli	a4,s3,0x3
    bc80:	040007b7          	lui	a5,0x4000
    bc84:	00f769b3          	or	s3,a4,a5
    bc88:	f8190913          	addi	s2,s2,-127
    bc8c:	00000a13          	li	s4,0
    bc90:	017ad793          	srli	a5,s5,0x17
    bc94:	009a9413          	slli	s0,s5,0x9
    bc98:	0ff7f793          	zext.b	a5,a5
    bc9c:	00945413          	srli	s0,s0,0x9
    bca0:	01fada93          	srli	s5,s5,0x1f
    bca4:	14078e63          	beqz	a5,be00 <__divsf3+0x1c8>
    bca8:	0ff00713          	li	a4,255
    bcac:	16e78a63          	beq	a5,a4,be20 <__divsf3+0x1e8>
    bcb0:	00341413          	slli	s0,s0,0x3
    bcb4:	04000737          	lui	a4,0x4000
    bcb8:	00e46433          	or	s0,s0,a4
    bcbc:	f8178793          	addi	a5,a5,-127 # 3ffff81 <_sp+0x3fd5fd1>
    bcc0:	00000613          	li	a2,0
    bcc4:	40f90933          	sub	s2,s2,a5
    bcc8:	002a1793          	slli	a5,s4,0x2
    bccc:	00c7e7b3          	or	a5,a5,a2
    bcd0:	00700713          	li	a4,7
    bcd4:	0154c6b3          	xor	a3,s1,s5
    bcd8:	16f74263          	blt	a4,a5,be3c <__divsf3+0x204>
    bcdc:	00100713          	li	a4,1
    bce0:	28e78e63          	beq	a5,a4,bf7c <__divsf3+0x344>
    bce4:	ffe78513          	addi	a0,a5,-2
    bce8:	00500593          	li	a1,5
    bcec:	16a5fa63          	bgeu	a1,a0,be60 <__divsf3+0x228>
    bcf0:	00541613          	slli	a2,s0,0x5
    bcf4:	1e89fc63          	bgeu	s3,s0,beec <__divsf3+0x2b4>
    bcf8:	fff90913          	addi	s2,s2,-1
    bcfc:	00000793          	li	a5,0
    bd00:	01065813          	srli	a6,a2,0x10
    bd04:	0309d433          	divu	s0,s3,a6
    bd08:	01061593          	slli	a1,a2,0x10
    bd0c:	0105d593          	srli	a1,a1,0x10
    bd10:	0107d793          	srli	a5,a5,0x10
    bd14:	0309f733          	remu	a4,s3,a6
    bd18:	02858533          	mul	a0,a1,s0
    bd1c:	01071713          	slli	a4,a4,0x10
    bd20:	00e7e7b3          	or	a5,a5,a4
    bd24:	00a7fa63          	bgeu	a5,a0,bd38 <__divsf3+0x100>
    bd28:	00f607b3          	add	a5,a2,a5
    bd2c:	00a7f463          	bgeu	a5,a0,bd34 <__divsf3+0xfc>
    bd30:	1cc7f463          	bgeu	a5,a2,bef8 <__divsf3+0x2c0>
    bd34:	fff40413          	addi	s0,s0,-1 # 3fffff <_sp+0x3d604f>
    bd38:	40a787b3          	sub	a5,a5,a0
    bd3c:	0307d533          	divu	a0,a5,a6
    bd40:	0307f7b3          	remu	a5,a5,a6
    bd44:	02a58733          	mul	a4,a1,a0
    bd48:	01079793          	slli	a5,a5,0x10
    bd4c:	00e7fe63          	bgeu	a5,a4,bd68 <__divsf3+0x130>
    bd50:	00c785b3          	add	a1,a5,a2
    bd54:	00f5b833          	sltu	a6,a1,a5
    bd58:	00058793          	mv	a5,a1
    bd5c:	00e5f463          	bgeu	a1,a4,bd64 <__divsf3+0x12c>
    bd60:	1a080263          	beqz	a6,bf04 <__divsf3+0x2cc>
    bd64:	fff50513          	addi	a0,a0,-1
    bd68:	01041413          	slli	s0,s0,0x10
    bd6c:	40e787b3          	sub	a5,a5,a4
    bd70:	00a46433          	or	s0,s0,a0
    bd74:	00f037b3          	snez	a5,a5
    bd78:	00f46433          	or	s0,s0,a5
    bd7c:	07f90713          	addi	a4,s2,127
    bd80:	18e05e63          	blez	a4,bf1c <__divsf3+0x2e4>
    bd84:	00747793          	andi	a5,s0,7
    bd88:	00078a63          	beqz	a5,bd9c <__divsf3+0x164>
    bd8c:	00f47793          	andi	a5,s0,15
    bd90:	00400613          	li	a2,4
    bd94:	00c78463          	beq	a5,a2,bd9c <__divsf3+0x164>
    bd98:	00c40433          	add	s0,s0,a2
    bd9c:	00441793          	slli	a5,s0,0x4
    bda0:	0007da63          	bgez	a5,bdb4 <__divsf3+0x17c>
    bda4:	f80007b7          	lui	a5,0xf8000
    bda8:	fff78793          	addi	a5,a5,-1 # f7ffffff <_sp+0xf7fd604f>
    bdac:	00f47433          	and	s0,s0,a5
    bdb0:	08090713          	addi	a4,s2,128
    bdb4:	0fe00793          	li	a5,254
    bdb8:	1ce7c263          	blt	a5,a4,bf7c <__divsf3+0x344>
    bdbc:	00345793          	srli	a5,s0,0x3
    bdc0:	0c40006f          	j	be84 <__divsf3+0x24c>
    bdc4:	02098863          	beqz	s3,bdf4 <__divsf3+0x1bc>
    bdc8:	00098513          	mv	a0,s3
    bdcc:	d1cff0ef          	jal	b2e8 <__clzsi2>
    bdd0:	ffb50793          	addi	a5,a0,-5
    bdd4:	f8a00913          	li	s2,-118
    bdd8:	00f999b3          	sll	s3,s3,a5
    bddc:	40a90933          	sub	s2,s2,a0
    bde0:	eadff06f          	j	bc8c <__divsf3+0x54>
    bde4:	00200a13          	li	s4,2
    bde8:	ea0984e3          	beqz	s3,bc90 <__divsf3+0x58>
    bdec:	00300a13          	li	s4,3
    bdf0:	ea1ff06f          	j	bc90 <__divsf3+0x58>
    bdf4:	00000913          	li	s2,0
    bdf8:	00100a13          	li	s4,1
    bdfc:	e95ff06f          	j	bc90 <__divsf3+0x58>
    be00:	02040863          	beqz	s0,be30 <__divsf3+0x1f8>
    be04:	00040513          	mv	a0,s0
    be08:	ce0ff0ef          	jal	b2e8 <__clzsi2>
    be0c:	ffb50793          	addi	a5,a0,-5
    be10:	00f41433          	sll	s0,s0,a5
    be14:	f8a00793          	li	a5,-118
    be18:	40a787b3          	sub	a5,a5,a0
    be1c:	ea5ff06f          	j	bcc0 <__divsf3+0x88>
    be20:	00200613          	li	a2,2
    be24:	ea0400e3          	beqz	s0,bcc4 <__divsf3+0x8c>
    be28:	00300613          	li	a2,3
    be2c:	e99ff06f          	j	bcc4 <__divsf3+0x8c>
    be30:	00000793          	li	a5,0
    be34:	00100613          	li	a2,1
    be38:	e8dff06f          	j	bcc4 <__divsf3+0x8c>
    be3c:	ff678793          	addi	a5,a5,-10
    be40:	00500713          	li	a4,5
    be44:	12f76c63          	bltu	a4,a5,bf7c <__divsf3+0x344>
    be48:	00020737          	lui	a4,0x20
    be4c:	00279793          	slli	a5,a5,0x2
    be50:	3f070713          	addi	a4,a4,1008 # 203f0 <__clz_tab+0x100>
    be54:	00e787b3          	add	a5,a5,a4
    be58:	0007a783          	lw	a5,0(a5)
    be5c:	00078067          	jr	a5
    be60:	00f71733          	sll	a4,a4,a5
    be64:	05477513          	andi	a0,a4,84
    be68:	06051c63          	bnez	a0,bee0 <__divsf3+0x2a8>
    be6c:	08877713          	andi	a4,a4,136
    be70:	0a071063          	bnez	a4,bf10 <__divsf3+0x2d8>
    be74:	e6b79ee3          	bne	a5,a1,bcf0 <__divsf3+0xb8>
    be78:	004007b7          	lui	a5,0x400
    be7c:	0ff00713          	li	a4,255
    be80:	00000693          	li	a3,0
    be84:	01c12083          	lw	ra,28(sp)
    be88:	01812403          	lw	s0,24(sp)
    be8c:	00979793          	slli	a5,a5,0x9
    be90:	01771713          	slli	a4,a4,0x17
    be94:	0097d793          	srli	a5,a5,0x9
    be98:	00f76733          	or	a4,a4,a5
    be9c:	01f69513          	slli	a0,a3,0x1f
    bea0:	01412483          	lw	s1,20(sp)
    bea4:	01012903          	lw	s2,16(sp)
    bea8:	00c12983          	lw	s3,12(sp)
    beac:	00812a03          	lw	s4,8(sp)
    beb0:	00412a83          	lw	s5,4(sp)
    beb4:	00a76533          	or	a0,a4,a0
    beb8:	02010113          	addi	sp,sp,32
    bebc:	00008067          	ret
    bec0:	00048693          	mv	a3,s1
    bec4:	00098413          	mv	s0,s3
    bec8:	00200793          	li	a5,2
    becc:	0afa0863          	beq	s4,a5,bf7c <__divsf3+0x344>
    bed0:	00300793          	li	a5,3
    bed4:	fafa02e3          	beq	s4,a5,be78 <__divsf3+0x240>
    bed8:	00100793          	li	a5,1
    bedc:	eafa10e3          	bne	s4,a5,bd7c <__divsf3+0x144>
    bee0:	00000793          	li	a5,0
    bee4:	00000713          	li	a4,0
    bee8:	f9dff06f          	j	be84 <__divsf3+0x24c>
    beec:	01f99793          	slli	a5,s3,0x1f
    bef0:	0019d993          	srli	s3,s3,0x1
    bef4:	e0dff06f          	j	bd00 <__divsf3+0xc8>
    bef8:	ffe40413          	addi	s0,s0,-2
    befc:	00c787b3          	add	a5,a5,a2
    bf00:	e39ff06f          	j	bd38 <__divsf3+0x100>
    bf04:	ffe50513          	addi	a0,a0,-2
    bf08:	00c587b3          	add	a5,a1,a2
    bf0c:	e5dff06f          	j	bd68 <__divsf3+0x130>
    bf10:	000a8693          	mv	a3,s5
    bf14:	00060a13          	mv	s4,a2
    bf18:	fb1ff06f          	j	bec8 <__divsf3+0x290>
    bf1c:	04070c63          	beqz	a4,bf74 <__divsf3+0x33c>
    bf20:	fe600793          	li	a5,-26
    bf24:	faf74ee3          	blt	a4,a5,bee0 <__divsf3+0x2a8>
    bf28:	00100793          	li	a5,1
    bf2c:	40e787b3          	sub	a5,a5,a4
    bf30:	09e90913          	addi	s2,s2,158
    bf34:	00f457b3          	srl	a5,s0,a5
    bf38:	01241433          	sll	s0,s0,s2
    bf3c:	00803433          	snez	s0,s0
    bf40:	0087e7b3          	or	a5,a5,s0
    bf44:	0077f713          	andi	a4,a5,7
    bf48:	00070a63          	beqz	a4,bf5c <__divsf3+0x324>
    bf4c:	00f7f713          	andi	a4,a5,15
    bf50:	00400613          	li	a2,4
    bf54:	00c70463          	beq	a4,a2,bf5c <__divsf3+0x324>
    bf58:	00c787b3          	add	a5,a5,a2
    bf5c:	00579713          	slli	a4,a5,0x5
    bf60:	0037d793          	srli	a5,a5,0x3
    bf64:	f80750e3          	bgez	a4,bee4 <__divsf3+0x2ac>
    bf68:	00000793          	li	a5,0
    bf6c:	00100713          	li	a4,1
    bf70:	f15ff06f          	j	be84 <__divsf3+0x24c>
    bf74:	00100793          	li	a5,1
    bf78:	fb9ff06f          	j	bf30 <__divsf3+0x2f8>
    bf7c:	00000793          	li	a5,0
    bf80:	0ff00713          	li	a4,255
    bf84:	f01ff06f          	j	be84 <__divsf3+0x24c>

0000bf88 <__gesf2>:
    bf88:	00951813          	slli	a6,a0,0x9
    bf8c:	01755713          	srli	a4,a0,0x17
    bf90:	00959793          	slli	a5,a1,0x9
    bf94:	00985693          	srli	a3,a6,0x9
    bf98:	0ff77713          	zext.b	a4,a4
    bf9c:	01f55513          	srli	a0,a0,0x1f
    bfa0:	0097d793          	srli	a5,a5,0x9
    bfa4:	01f5d613          	srli	a2,a1,0x1f
    bfa8:	00080a63          	beqz	a6,bfbc <__gesf2+0x34>
    bfac:	f0170813          	addi	a6,a4,-255
    bfb0:	00081663          	bnez	a6,bfbc <__gesf2+0x34>
    bfb4:	ffe00513          	li	a0,-2
    bfb8:	00008067          	ret
    bfbc:	0175d593          	srli	a1,a1,0x17
    bfc0:	0ff5f593          	zext.b	a1,a1
    bfc4:	00078663          	beqz	a5,bfd0 <__gesf2+0x48>
    bfc8:	f0158813          	addi	a6,a1,-255 # 3ffff01 <_sp+0x3fd5f51>
    bfcc:	fe0804e3          	beqz	a6,bfb4 <__gesf2+0x2c>
    bfd0:	00d768b3          	or	a7,a4,a3
    bfd4:	00f5e833          	or	a6,a1,a5
    bfd8:	00089e63          	bnez	a7,bff4 <__gesf2+0x6c>
    bfdc:	00081663          	bnez	a6,bfe8 <__gesf2+0x60>
    bfe0:	00000513          	li	a0,0
    bfe4:	00008067          	ret
    bfe8:	00161513          	slli	a0,a2,0x1
    bfec:	fff50513          	addi	a0,a0,-1
    bff0:	00008067          	ret
    bff4:	00081863          	bnez	a6,c004 <__gesf2+0x7c>
    bff8:	40a00533          	neg	a0,a0
    bffc:	00156513          	ori	a0,a0,1
    c000:	00008067          	ret
    c004:	fec51ae3          	bne	a0,a2,bff8 <__gesf2+0x70>
    c008:	fee5c8e3          	blt	a1,a4,bff8 <__gesf2+0x70>
    c00c:	00b75663          	bge	a4,a1,c018 <__gesf2+0x90>
    c010:	00151513          	slli	a0,a0,0x1
    c014:	fd9ff06f          	j	bfec <__gesf2+0x64>
    c018:	fed7e0e3          	bltu	a5,a3,bff8 <__gesf2+0x70>
    c01c:	fcf6f2e3          	bgeu	a3,a5,bfe0 <__gesf2+0x58>
    c020:	ff1ff06f          	j	c010 <__gesf2+0x88>

0000c024 <__mulsf3>:
    c024:	fe010113          	addi	sp,sp,-32
    c028:	01212823          	sw	s2,16(sp)
    c02c:	01755913          	srli	s2,a0,0x17
    c030:	00912a23          	sw	s1,20(sp)
    c034:	01312623          	sw	s3,12(sp)
    c038:	01512223          	sw	s5,4(sp)
    c03c:	00951493          	slli	s1,a0,0x9
    c040:	00112e23          	sw	ra,28(sp)
    c044:	00812c23          	sw	s0,24(sp)
    c048:	01412423          	sw	s4,8(sp)
    c04c:	0ff97913          	zext.b	s2,s2
    c050:	00058a93          	mv	s5,a1
    c054:	0094d493          	srli	s1,s1,0x9
    c058:	01f55993          	srli	s3,a0,0x1f
    c05c:	0a090663          	beqz	s2,c108 <__mulsf3+0xe4>
    c060:	0ff00793          	li	a5,255
    c064:	0cf90263          	beq	s2,a5,c128 <__mulsf3+0x104>
    c068:	00349493          	slli	s1,s1,0x3
    c06c:	040007b7          	lui	a5,0x4000
    c070:	00f4e4b3          	or	s1,s1,a5
    c074:	f8190913          	addi	s2,s2,-127
    c078:	00000a13          	li	s4,0
    c07c:	017ad793          	srli	a5,s5,0x17
    c080:	009a9413          	slli	s0,s5,0x9
    c084:	0ff7f793          	zext.b	a5,a5
    c088:	00945413          	srli	s0,s0,0x9
    c08c:	01fada93          	srli	s5,s5,0x1f
    c090:	0a078a63          	beqz	a5,c144 <__mulsf3+0x120>
    c094:	0ff00713          	li	a4,255
    c098:	0ce78663          	beq	a5,a4,c164 <__mulsf3+0x140>
    c09c:	00341413          	slli	s0,s0,0x3
    c0a0:	04000737          	lui	a4,0x4000
    c0a4:	00e46433          	or	s0,s0,a4
    c0a8:	f8178793          	addi	a5,a5,-127 # 3ffff81 <_sp+0x3fd5fd1>
    c0ac:	00000693          	li	a3,0
    c0b0:	00f90933          	add	s2,s2,a5
    c0b4:	002a1793          	slli	a5,s4,0x2
    c0b8:	00d7e7b3          	or	a5,a5,a3
    c0bc:	00b00713          	li	a4,11
    c0c0:	00190613          	addi	a2,s2,1
    c0c4:	12f74263          	blt	a4,a5,c1e8 <__mulsf3+0x1c4>
    c0c8:	00200593          	li	a1,2
    c0cc:	0159c9b3          	xor	s3,s3,s5
    c0d0:	00100713          	li	a4,1
    c0d4:	0af5c663          	blt	a1,a5,c180 <__mulsf3+0x15c>
    c0d8:	fff78793          	addi	a5,a5,-1
    c0dc:	10f76e63          	bltu	a4,a5,c1f8 <__mulsf3+0x1d4>
    c0e0:	00068a13          	mv	s4,a3
    c0e4:	00200793          	li	a5,2
    c0e8:	24fa0663          	beq	s4,a5,c334 <__mulsf3+0x310>
    c0ec:	00300793          	li	a5,3
    c0f0:	0afa0863          	beq	s4,a5,c1a0 <__mulsf3+0x17c>
    c0f4:	00100793          	li	a5,1
    c0f8:	18fa1263          	bne	s4,a5,c27c <__mulsf3+0x258>
    c0fc:	00000793          	li	a5,0
    c100:	00000713          	li	a4,0
    c104:	0a80006f          	j	c1ac <__mulsf3+0x188>
    c108:	02048863          	beqz	s1,c138 <__mulsf3+0x114>
    c10c:	00048513          	mv	a0,s1
    c110:	9d8ff0ef          	jal	b2e8 <__clzsi2>
    c114:	ffb50793          	addi	a5,a0,-5
    c118:	f8a00913          	li	s2,-118
    c11c:	00f494b3          	sll	s1,s1,a5
    c120:	40a90933          	sub	s2,s2,a0
    c124:	f55ff06f          	j	c078 <__mulsf3+0x54>
    c128:	00200a13          	li	s4,2
    c12c:	f40488e3          	beqz	s1,c07c <__mulsf3+0x58>
    c130:	00300a13          	li	s4,3
    c134:	f49ff06f          	j	c07c <__mulsf3+0x58>
    c138:	00000913          	li	s2,0
    c13c:	00100a13          	li	s4,1
    c140:	f3dff06f          	j	c07c <__mulsf3+0x58>
    c144:	02040863          	beqz	s0,c174 <__mulsf3+0x150>
    c148:	00040513          	mv	a0,s0
    c14c:	99cff0ef          	jal	b2e8 <__clzsi2>
    c150:	ffb50793          	addi	a5,a0,-5
    c154:	00f41433          	sll	s0,s0,a5
    c158:	f8a00793          	li	a5,-118
    c15c:	40a787b3          	sub	a5,a5,a0
    c160:	f4dff06f          	j	c0ac <__mulsf3+0x88>
    c164:	00200693          	li	a3,2
    c168:	f40404e3          	beqz	s0,c0b0 <__mulsf3+0x8c>
    c16c:	00300693          	li	a3,3
    c170:	f41ff06f          	j	c0b0 <__mulsf3+0x8c>
    c174:	00000793          	li	a5,0
    c178:	00100693          	li	a3,1
    c17c:	f35ff06f          	j	c0b0 <__mulsf3+0x8c>
    c180:	00f717b3          	sll	a5,a4,a5
    c184:	5307f713          	andi	a4,a5,1328
    c188:	06071463          	bnez	a4,c1f0 <__mulsf3+0x1cc>
    c18c:	0037d713          	srli	a4,a5,0x3
    c190:	11177713          	andi	a4,a4,273
    c194:	12071863          	bnez	a4,c2c4 <__mulsf3+0x2a0>
    c198:	2407f793          	andi	a5,a5,576
    c19c:	04078e63          	beqz	a5,c1f8 <__mulsf3+0x1d4>
    c1a0:	004007b7          	lui	a5,0x400
    c1a4:	0ff00713          	li	a4,255
    c1a8:	00000993          	li	s3,0
    c1ac:	01c12083          	lw	ra,28(sp)
    c1b0:	01812403          	lw	s0,24(sp)
    c1b4:	00979793          	slli	a5,a5,0x9
    c1b8:	01771713          	slli	a4,a4,0x17
    c1bc:	0097d793          	srli	a5,a5,0x9
    c1c0:	01f99993          	slli	s3,s3,0x1f
    c1c4:	00f76733          	or	a4,a4,a5
    c1c8:	01412483          	lw	s1,20(sp)
    c1cc:	01012903          	lw	s2,16(sp)
    c1d0:	00812a03          	lw	s4,8(sp)
    c1d4:	00412a83          	lw	s5,4(sp)
    c1d8:	01376533          	or	a0,a4,s3
    c1dc:	00c12983          	lw	s3,12(sp)
    c1e0:	02010113          	addi	sp,sp,32
    c1e4:	00008067          	ret
    c1e8:	00f00713          	li	a4,15
    c1ec:	fae78ae3          	beq	a5,a4,c1a0 <__mulsf3+0x17c>
    c1f0:	00048413          	mv	s0,s1
    c1f4:	ef1ff06f          	j	c0e4 <__mulsf3+0xc0>
    c1f8:	0104d713          	srli	a4,s1,0x10
    c1fc:	01045793          	srli	a5,s0,0x10
    c200:	01049493          	slli	s1,s1,0x10
    c204:	01041413          	slli	s0,s0,0x10
    c208:	0104d493          	srli	s1,s1,0x10
    c20c:	01045413          	srli	s0,s0,0x10
    c210:	028485b3          	mul	a1,s1,s0
    c214:	02870433          	mul	s0,a4,s0
    c218:	02f70733          	mul	a4,a4,a5
    c21c:	029787b3          	mul	a5,a5,s1
    c220:	008786b3          	add	a3,a5,s0
    c224:	0105d793          	srli	a5,a1,0x10
    c228:	00d787b3          	add	a5,a5,a3
    c22c:	0087f663          	bgeu	a5,s0,c238 <__mulsf3+0x214>
    c230:	000106b7          	lui	a3,0x10
    c234:	00d70733          	add	a4,a4,a3
    c238:	01059593          	slli	a1,a1,0x10
    c23c:	01079693          	slli	a3,a5,0x10
    c240:	0105d593          	srli	a1,a1,0x10
    c244:	00b686b3          	add	a3,a3,a1
    c248:	0107d793          	srli	a5,a5,0x10
    c24c:	00669413          	slli	s0,a3,0x6
    c250:	00e787b3          	add	a5,a5,a4
    c254:	00679793          	slli	a5,a5,0x6
    c258:	00803433          	snez	s0,s0
    c25c:	01a6d693          	srli	a3,a3,0x1a
    c260:	00d46433          	or	s0,s0,a3
    c264:	00479713          	slli	a4,a5,0x4
    c268:	0087e433          	or	s0,a5,s0
    c26c:	06075063          	bgez	a4,c2cc <__mulsf3+0x2a8>
    c270:	00145793          	srli	a5,s0,0x1
    c274:	00147413          	andi	s0,s0,1
    c278:	0087e433          	or	s0,a5,s0
    c27c:	07f60713          	addi	a4,a2,127
    c280:	04e05a63          	blez	a4,c2d4 <__mulsf3+0x2b0>
    c284:	00747793          	andi	a5,s0,7
    c288:	00078a63          	beqz	a5,c29c <__mulsf3+0x278>
    c28c:	00f47793          	andi	a5,s0,15
    c290:	00400693          	li	a3,4
    c294:	00d78463          	beq	a5,a3,c29c <__mulsf3+0x278>
    c298:	00d40433          	add	s0,s0,a3
    c29c:	00441793          	slli	a5,s0,0x4
    c2a0:	0007da63          	bgez	a5,c2b4 <__mulsf3+0x290>
    c2a4:	f80007b7          	lui	a5,0xf8000
    c2a8:	fff78793          	addi	a5,a5,-1 # f7ffffff <_sp+0xf7fd604f>
    c2ac:	00f47433          	and	s0,s0,a5
    c2b0:	08060713          	addi	a4,a2,128
    c2b4:	0fe00793          	li	a5,254
    c2b8:	06e7ce63          	blt	a5,a4,c334 <__mulsf3+0x310>
    c2bc:	00345793          	srli	a5,s0,0x3
    c2c0:	eedff06f          	j	c1ac <__mulsf3+0x188>
    c2c4:	000a8993          	mv	s3,s5
    c2c8:	e19ff06f          	j	c0e0 <__mulsf3+0xbc>
    c2cc:	00090613          	mv	a2,s2
    c2d0:	fadff06f          	j	c27c <__mulsf3+0x258>
    c2d4:	04070c63          	beqz	a4,c32c <__mulsf3+0x308>
    c2d8:	fe600793          	li	a5,-26
    c2dc:	e2f740e3          	blt	a4,a5,c0fc <__mulsf3+0xd8>
    c2e0:	00100793          	li	a5,1
    c2e4:	40e787b3          	sub	a5,a5,a4
    c2e8:	09e60613          	addi	a2,a2,158
    c2ec:	00f457b3          	srl	a5,s0,a5
    c2f0:	00c41433          	sll	s0,s0,a2
    c2f4:	00803433          	snez	s0,s0
    c2f8:	0087e7b3          	or	a5,a5,s0
    c2fc:	0077f713          	andi	a4,a5,7
    c300:	00070a63          	beqz	a4,c314 <__mulsf3+0x2f0>
    c304:	00f7f713          	andi	a4,a5,15
    c308:	00400693          	li	a3,4
    c30c:	00d70463          	beq	a4,a3,c314 <__mulsf3+0x2f0>
    c310:	00d787b3          	add	a5,a5,a3
    c314:	00579713          	slli	a4,a5,0x5
    c318:	0037d793          	srli	a5,a5,0x3
    c31c:	de0752e3          	bgez	a4,c100 <__mulsf3+0xdc>
    c320:	00000793          	li	a5,0
    c324:	00100713          	li	a4,1
    c328:	e85ff06f          	j	c1ac <__mulsf3+0x188>
    c32c:	00100793          	li	a5,1
    c330:	fb9ff06f          	j	c2e8 <__mulsf3+0x2c4>
    c334:	00000793          	li	a5,0
    c338:	0ff00713          	li	a4,255
    c33c:	e71ff06f          	j	c1ac <__mulsf3+0x188>

0000c340 <__subsf3>:
    c340:	0175d693          	srli	a3,a1,0x17
    c344:	ff010113          	addi	sp,sp,-16
    c348:	0ff6f693          	zext.b	a3,a3
    c34c:	00951713          	slli	a4,a0,0x9
    c350:	00912223          	sw	s1,4(sp)
    c354:	01212023          	sw	s2,0(sp)
    c358:	01755493          	srli	s1,a0,0x17
    c35c:	01f55913          	srli	s2,a0,0x1f
    c360:	f0168613          	addi	a2,a3,-255 # ff01 <fast_intr_ctrl.c.233e5230+0x108>
    c364:	00959513          	slli	a0,a1,0x9
    c368:	00655793          	srli	a5,a0,0x6
    c36c:	00c03633          	snez	a2,a2
    c370:	00153513          	seqz	a0,a0
    c374:	00a66633          	or	a2,a2,a0
    c378:	01f5d593          	srli	a1,a1,0x1f
    c37c:	0ff4f493          	zext.b	s1,s1
    c380:	00c5c5b3          	xor	a1,a1,a2
    c384:	00112623          	sw	ra,12(sp)
    c388:	00812423          	sw	s0,8(sp)
    c38c:	00675713          	srli	a4,a4,0x6
    c390:	40d48633          	sub	a2,s1,a3
    c394:	1d259663          	bne	a1,s2,c560 <__subsf3+0x220>
    c398:	0ac05863          	blez	a2,c448 <__subsf3+0x108>
    c39c:	0ff00513          	li	a0,255
    c3a0:	04069063          	bnez	a3,c3e0 <__subsf3+0xa0>
    c3a4:	00078e63          	beqz	a5,c3c0 <__subsf3+0x80>
    c3a8:	fff60593          	addi	a1,a2,-1
    c3ac:	00059863          	bnez	a1,c3bc <__subsf3+0x7c>
    c3b0:	00f70433          	add	s0,a4,a5
    c3b4:	00100493          	li	s1,1
    c3b8:	0600006f          	j	c418 <__subsf3+0xd8>
    c3bc:	02a61a63          	bne	a2,a0,c3f0 <__subsf3+0xb0>
    c3c0:	00060493          	mv	s1,a2
    c3c4:	00070793          	mv	a5,a4
    c3c8:	0037d413          	srli	s0,a5,0x3
    c3cc:	0ff00793          	li	a5,255
    c3d0:	10f49c63          	bne	s1,a5,c4e8 <__subsf3+0x1a8>
    c3d4:	10040a63          	beqz	s0,c4e8 <__subsf3+0x1a8>
    c3d8:	00400437          	lui	s0,0x400
    c3dc:	2f80006f          	j	c6d4 <TPG.c.da7c0ab0+0x8a>
    c3e0:	fea482e3          	beq	s1,a0,c3c4 <__subsf3+0x84>
    c3e4:	040006b7          	lui	a3,0x4000
    c3e8:	00d7e7b3          	or	a5,a5,a3
    c3ec:	00060593          	mv	a1,a2
    c3f0:	01b00693          	li	a3,27
    c3f4:	00100413          	li	s0,1
    c3f8:	00b6ce63          	blt	a3,a1,c414 <__subsf3+0xd4>
    c3fc:	02000693          	li	a3,32
    c400:	40b686b3          	sub	a3,a3,a1
    c404:	00b7d433          	srl	s0,a5,a1
    c408:	00d797b3          	sll	a5,a5,a3
    c40c:	00f037b3          	snez	a5,a5
    c410:	00f46433          	or	s0,s0,a5
    c414:	00e40433          	add	s0,s0,a4
    c418:	00541793          	slli	a5,s0,0x5
    c41c:	1207d263          	bgez	a5,c540 <__subsf3+0x200>
    c420:	00148493          	addi	s1,s1,1
    c424:	0ff00793          	li	a5,255
    c428:	34f48663          	beq	s1,a5,c774 <TPG.c.da7c0ab0+0x12a>
    c42c:	7e000737          	lui	a4,0x7e000
    c430:	00145793          	srli	a5,s0,0x1
    c434:	fff70713          	addi	a4,a4,-1 # 7dffffff <_sp+0x7dfd604f>
    c438:	00e7f7b3          	and	a5,a5,a4
    c43c:	00147413          	andi	s0,s0,1
    c440:	0087e433          	or	s0,a5,s0
    c444:	0fc0006f          	j	c540 <__subsf3+0x200>
    c448:	06060463          	beqz	a2,c4b0 <__subsf3+0x170>
    c44c:	40968633          	sub	a2,a3,s1
    c450:	0ff00513          	li	a0,255
    c454:	00049e63          	bnez	s1,c470 <__subsf3+0x130>
    c458:	30070863          	beqz	a4,c768 <TPG.c.da7c0ab0+0x11e>
    c45c:	fff60593          	addi	a1,a2,-1
    c460:	f40588e3          	beqz	a1,c3b0 <__subsf3+0x70>
    c464:	00a61e63          	bne	a2,a0,c480 <__subsf3+0x140>
    c468:	0ff00493          	li	s1,255
    c46c:	f5dff06f          	j	c3c8 <__subsf3+0x88>
    c470:	fea68ce3          	beq	a3,a0,c468 <__subsf3+0x128>
    c474:	040005b7          	lui	a1,0x4000
    c478:	00b76733          	or	a4,a4,a1
    c47c:	00060593          	mv	a1,a2
    c480:	01b00613          	li	a2,27
    c484:	00100413          	li	s0,1
    c488:	00b64e63          	blt	a2,a1,c4a4 <__subsf3+0x164>
    c48c:	02000613          	li	a2,32
    c490:	40b60633          	sub	a2,a2,a1
    c494:	00b75433          	srl	s0,a4,a1
    c498:	00c71733          	sll	a4,a4,a2
    c49c:	00e03733          	snez	a4,a4
    c4a0:	00e46433          	or	s0,s0,a4
    c4a4:	00f40433          	add	s0,s0,a5
    c4a8:	00068493          	mv	s1,a3
    c4ac:	f6dff06f          	j	c418 <__subsf3+0xd8>
    c4b0:	00148693          	addi	a3,s1,1
    c4b4:	0fe6f613          	andi	a2,a3,254
    c4b8:	06061a63          	bnez	a2,c52c <__subsf3+0x1ec>
    c4bc:	06049063          	bnez	s1,c51c <__subsf3+0x1dc>
    c4c0:	28070e63          	beqz	a4,c75c <TPG.c.da7c0ab0+0x112>
    c4c4:	1a078c63          	beqz	a5,c67c <TPG.c.da7c0ab0+0x32>
    c4c8:	00e787b3          	add	a5,a5,a4
    c4cc:	00579713          	slli	a4,a5,0x5
    c4d0:	ee075ce3          	bgez	a4,c3c8 <__subsf3+0x88>
    c4d4:	0037d413          	srli	s0,a5,0x3
    c4d8:	1f8007b7          	lui	a5,0x1f800
    c4dc:	fff78793          	addi	a5,a5,-1 # 1f7fffff <_sp+0x1f7d604f>
    c4e0:	00f47433          	and	s0,s0,a5
    c4e4:	00100493          	li	s1,1
    c4e8:	0ff4f493          	zext.b	s1,s1
    c4ec:	00941413          	slli	s0,s0,0x9
    c4f0:	00945413          	srli	s0,s0,0x9
    c4f4:	01749493          	slli	s1,s1,0x17
    c4f8:	0084e4b3          	or	s1,s1,s0
    c4fc:	00c12083          	lw	ra,12(sp)
    c500:	00812403          	lw	s0,8(sp)
    c504:	01f91513          	slli	a0,s2,0x1f
    c508:	00a4e533          	or	a0,s1,a0
    c50c:	00012903          	lw	s2,0(sp)
    c510:	00412483          	lw	s1,4(sp)
    c514:	01010113          	addi	sp,sp,16
    c518:	00008067          	ret
    c51c:	f40706e3          	beqz	a4,c468 <__subsf3+0x128>
    c520:	1c079063          	bnez	a5,c6e0 <TPG.c.da7c0ab0+0x96>
    c524:	00070793          	mv	a5,a4
    c528:	f41ff06f          	j	c468 <__subsf3+0x128>
    c52c:	0ff00613          	li	a2,255
    c530:	24c68063          	beq	a3,a2,c770 <TPG.c.da7c0ab0+0x126>
    c534:	00f70433          	add	s0,a4,a5
    c538:	00145413          	srli	s0,s0,0x1
    c53c:	00068493          	mv	s1,a3
    c540:	00747793          	andi	a5,s0,7
    c544:	00078a63          	beqz	a5,c558 <__subsf3+0x218>
    c548:	00400693          	li	a3,4
    c54c:	00f47713          	andi	a4,s0,15
    c550:	00d407b3          	add	a5,s0,a3
    c554:	12d71663          	bne	a4,a3,c680 <TPG.c.da7c0ab0+0x36>
    c558:	00040793          	mv	a5,s0
    c55c:	1240006f          	j	c680 <TPG.c.da7c0ab0+0x36>
    c560:	06c05a63          	blez	a2,c5d4 <__subsf3+0x294>
    c564:	04069c63          	bnez	a3,c5bc <__subsf3+0x27c>
    c568:	e4078ce3          	beqz	a5,c3c0 <__subsf3+0x80>
    c56c:	fff60593          	addi	a1,a2,-1
    c570:	40f70433          	sub	s0,a4,a5
    c574:	08058063          	beqz	a1,c5f4 <__subsf3+0x2b4>
    c578:	0ff00693          	li	a3,255
    c57c:	e4d602e3          	beq	a2,a3,c3c0 <__subsf3+0x80>
    c580:	01b00693          	li	a3,27
    c584:	00100413          	li	s0,1
    c588:	00b6ce63          	blt	a3,a1,c5a4 <__subsf3+0x264>
    c58c:	02000693          	li	a3,32
    c590:	40b686b3          	sub	a3,a3,a1
    c594:	00b7d433          	srl	s0,a5,a1
    c598:	00d797b3          	sll	a5,a5,a3
    c59c:	00f037b3          	snez	a5,a5
    c5a0:	00f46433          	or	s0,s0,a5
    c5a4:	40870433          	sub	s0,a4,s0
    c5a8:	00541793          	slli	a5,s0,0x5
    c5ac:	f807dae3          	bgez	a5,c540 <__subsf3+0x200>
    c5b0:	00641413          	slli	s0,s0,0x6
    c5b4:	00645413          	srli	s0,s0,0x6
    c5b8:	14c0006f          	j	c704 <TPG.c.da7c0ab0+0xba>
    c5bc:	0ff00693          	li	a3,255
    c5c0:	e0d482e3          	beq	s1,a3,c3c4 <__subsf3+0x84>
    c5c4:	040006b7          	lui	a3,0x4000
    c5c8:	00d7e7b3          	or	a5,a5,a3
    c5cc:	00060593          	mv	a1,a2
    c5d0:	fb1ff06f          	j	c580 <__subsf3+0x240>
    c5d4:	08060063          	beqz	a2,c654 <TPG.c.da7c0ab0+0xa>
    c5d8:	40968633          	sub	a2,a3,s1
    c5dc:	02049863          	bnez	s1,c60c <__subsf3+0x2cc>
    c5e0:	18070263          	beqz	a4,c764 <TPG.c.da7c0ab0+0x11a>
    c5e4:	fff60513          	addi	a0,a2,-1
    c5e8:	00051a63          	bnez	a0,c5fc <__subsf3+0x2bc>
    c5ec:	40e78433          	sub	s0,a5,a4
    c5f0:	00058913          	mv	s2,a1
    c5f4:	00100493          	li	s1,1
    c5f8:	fb1ff06f          	j	c5a8 <__subsf3+0x268>
    c5fc:	0ff00813          	li	a6,255
    c600:	03061063          	bne	a2,a6,c620 <__subsf3+0x2e0>
    c604:	00058913          	mv	s2,a1
    c608:	e61ff06f          	j	c468 <__subsf3+0x128>
    c60c:	0ff00513          	li	a0,255
    c610:	fea68ae3          	beq	a3,a0,c604 <__subsf3+0x2c4>
    c614:	04000537          	lui	a0,0x4000
    c618:	00a76733          	or	a4,a4,a0
    c61c:	00060513          	mv	a0,a2
    c620:	01b00613          	li	a2,27
    c624:	00100413          	li	s0,1
    c628:	00a64e63          	blt	a2,a0,c644 <__subsf3+0x304>
    c62c:	02000613          	li	a2,32
    c630:	40a60633          	sub	a2,a2,a0
    c634:	00a75433          	srl	s0,a4,a0
    c638:	00c71733          	sll	a4,a4,a2
    c63c:	00e03733          	snez	a4,a4
    c640:	00e46433          	or	s0,s0,a4
    c644:	40878433          	sub	s0,a5,s0
    c648:	00068493          	mv	s1,a3
    c64c:	00058913          	mv	s2,a1
    c650:	f59ff06f          	j	c5a8 <__subsf3+0x268>
    c654:	00148693          	addi	a3,s1,1
    c658:	0fe6f693          	andi	a3,a3,254
    c65c:	08069a63          	bnez	a3,c6f0 <TPG.c.da7c0ab0+0xa6>
    c660:	06049e63          	bnez	s1,c6dc <TPG.c.da7c0ab0+0x92>
    c664:	00071a63          	bnez	a4,c678 <TPG.c.da7c0ab0+0x2e>
    c668:	00058913          	mv	s2,a1
    c66c:	d4079ee3          	bnez	a5,c3c8 <__subsf3+0x88>
    c670:	00000413          	li	s0,0
    c674:	0600006f          	j	c6d4 <TPG.c.da7c0ab0+0x8a>
    c678:	02079a63          	bnez	a5,c6ac <TPG.c.da7c0ab0+0x62>
    c67c:	00070793          	mv	a5,a4
    c680:	00579713          	slli	a4,a5,0x5
    c684:	d40752e3          	bgez	a4,c3c8 <__subsf3+0x88>
    c688:	00148493          	addi	s1,s1,1
    c68c:	0ff00713          	li	a4,255
    c690:	00000413          	li	s0,0
    c694:	e4e48ae3          	beq	s1,a4,c4e8 <__subsf3+0x1a8>
    c698:	0037d413          	srli	s0,a5,0x3
    c69c:	1f8007b7          	lui	a5,0x1f800
    c6a0:	fff78793          	addi	a5,a5,-1 # 1f7fffff <_sp+0x1f7d604f>
    c6a4:	00f47433          	and	s0,s0,a5
    c6a8:	e41ff06f          	j	c4e8 <__subsf3+0x1a8>
    c6ac:	40f70433          	sub	s0,a4,a5
    c6b0:	00541693          	slli	a3,s0,0x5
    c6b4:	0006dc63          	bgez	a3,c6cc <TPG.c.da7c0ab0+0x82>
    c6b8:	40e78433          	sub	s0,a5,a4
    c6bc:	00058913          	mv	s2,a1
    c6c0:	00000493          	li	s1,0
    c6c4:	e20402e3          	beqz	s0,c4e8 <__subsf3+0x1a8>
    c6c8:	e79ff06f          	j	c540 <__subsf3+0x200>
    c6cc:	00040793          	mv	a5,s0
    c6d0:	ce041ce3          	bnez	s0,c3c8 <__subsf3+0x88>
    c6d4:	00000913          	li	s2,0
    c6d8:	e11ff06f          	j	c4e8 <__subsf3+0x1a8>
    c6dc:	e40712e3          	bnez	a4,c520 <__subsf3+0x1e0>
    c6e0:	00000913          	li	s2,0
    c6e4:	0ff00493          	li	s1,255
    c6e8:	00400437          	lui	s0,0x400
    c6ec:	dfdff06f          	j	c4e8 <__subsf3+0x1a8>
    c6f0:	40f70433          	sub	s0,a4,a5
    c6f4:	00541693          	slli	a3,s0,0x5
    c6f8:	0406d263          	bgez	a3,c73c <TPG.c.da7c0ab0+0xf2>
    c6fc:	40e78433          	sub	s0,a5,a4
    c700:	00058913          	mv	s2,a1
    c704:	00040513          	mv	a0,s0
    c708:	be1fe0ef          	jal	b2e8 <__clzsi2>
    c70c:	ffb50513          	addi	a0,a0,-5 # 3fffffb <_sp+0x3fd604b>
    c710:	00a41433          	sll	s0,s0,a0
    c714:	02954a63          	blt	a0,s1,c748 <TPG.c.da7c0ab0+0xfe>
    c718:	40950533          	sub	a0,a0,s1
    c71c:	00150513          	addi	a0,a0,1
    c720:	02000793          	li	a5,32
    c724:	40a787b3          	sub	a5,a5,a0
    c728:	00a45733          	srl	a4,s0,a0
    c72c:	00f41433          	sll	s0,s0,a5
    c730:	00803433          	snez	s0,s0
    c734:	00876433          	or	s0,a4,s0
    c738:	f89ff06f          	j	c6c0 <TPG.c.da7c0ab0+0x76>
    c73c:	fc0414e3          	bnez	s0,c704 <TPG.c.da7c0ab0+0xba>
    c740:	00000493          	li	s1,0
    c744:	f91ff06f          	j	c6d4 <TPG.c.da7c0ab0+0x8a>
    c748:	fc0007b7          	lui	a5,0xfc000
    c74c:	fff78793          	addi	a5,a5,-1 # fbffffff <_sp+0xfbfd604f>
    c750:	40a484b3          	sub	s1,s1,a0
    c754:	00f47433          	and	s0,s0,a5
    c758:	de9ff06f          	j	c540 <__subsf3+0x200>
    c75c:	00078413          	mv	s0,a5
    c760:	f61ff06f          	j	c6c0 <TPG.c.da7c0ab0+0x76>
    c764:	00058913          	mv	s2,a1
    c768:	00060493          	mv	s1,a2
    c76c:	c5dff06f          	j	c3c8 <__subsf3+0x88>
    c770:	00068493          	mv	s1,a3
    c774:	00000413          	li	s0,0
    c778:	d71ff06f          	j	c4e8 <__subsf3+0x1a8>

0000c77c <__fixsfsi>:
    c77c:	01755713          	srli	a4,a0,0x17
    c780:	00951793          	slli	a5,a0,0x9
    c784:	0ff77713          	zext.b	a4,a4
    c788:	07e00613          	li	a2,126
    c78c:	0097d793          	srli	a5,a5,0x9
    c790:	01f55693          	srli	a3,a0,0x1f
    c794:	04e65863          	bge	a2,a4,c7e4 <__fixsfsi+0x68>
    c798:	09d00613          	li	a2,157
    c79c:	00e65a63          	bge	a2,a4,c7b0 <__fixsfsi+0x34>
    c7a0:	80000537          	lui	a0,0x80000
    c7a4:	fff50513          	addi	a0,a0,-1 # 7fffffff <_sp+0x7ffd604f>
    c7a8:	00a68533          	add	a0,a3,a0
    c7ac:	00008067          	ret
    c7b0:	00800637          	lui	a2,0x800
    c7b4:	00c7e533          	or	a0,a5,a2
    c7b8:	09500793          	li	a5,149
    c7bc:	00e7dc63          	bge	a5,a4,c7d4 <__fixsfsi+0x58>
    c7c0:	f6a70713          	addi	a4,a4,-150
    c7c4:	00e51533          	sll	a0,a0,a4
    c7c8:	02068063          	beqz	a3,c7e8 <__fixsfsi+0x6c>
    c7cc:	40a00533          	neg	a0,a0
    c7d0:	00008067          	ret
    c7d4:	09600793          	li	a5,150
    c7d8:	40e787b3          	sub	a5,a5,a4
    c7dc:	00f55533          	srl	a0,a0,a5
    c7e0:	fe9ff06f          	j	c7c8 <__fixsfsi+0x4c>
    c7e4:	00000513          	li	a0,0
    c7e8:	00008067          	ret

0000c7ec <__floatunsisf>:
    c7ec:	ff010113          	addi	sp,sp,-16
    c7f0:	00812423          	sw	s0,8(sp)
    c7f4:	00112623          	sw	ra,12(sp)
    c7f8:	00050413          	mv	s0,a0
    c7fc:	00000713          	li	a4,0
    c800:	02050463          	beqz	a0,c828 <__floatunsisf+0x3c>
    c804:	ae5fe0ef          	jal	b2e8 <__clzsi2>
    c808:	09e00713          	li	a4,158
    c80c:	00700793          	li	a5,7
    c810:	40a70733          	sub	a4,a4,a0
    c814:	02a7da63          	bge	a5,a0,c848 <__floatunsisf+0x5c>
    c818:	00800793          	li	a5,8
    c81c:	0af50463          	beq	a0,a5,c8c4 <__floatunsisf+0xd8>
    c820:	ff850513          	addi	a0,a0,-8
    c824:	00a41433          	sll	s0,s0,a0
    c828:	00941413          	slli	s0,s0,0x9
    c82c:	00945413          	srli	s0,s0,0x9
    c830:	01771513          	slli	a0,a4,0x17
    c834:	00c12083          	lw	ra,12(sp)
    c838:	00856533          	or	a0,a0,s0
    c83c:	00812403          	lw	s0,8(sp)
    c840:	01010113          	addi	sp,sp,16
    c844:	00008067          	ret
    c848:	00400793          	li	a5,4
    c84c:	00500693          	li	a3,5
    c850:	06a7c263          	blt	a5,a0,c8b4 <__floatunsisf+0xc8>
    c854:	01b50793          	addi	a5,a0,27
    c858:	00f417b3          	sll	a5,s0,a5
    c85c:	40a686b3          	sub	a3,a3,a0
    c860:	00f037b3          	snez	a5,a5
    c864:	00d45433          	srl	s0,s0,a3
    c868:	0087e433          	or	s0,a5,s0
    c86c:	fc0007b7          	lui	a5,0xfc000
    c870:	fff78793          	addi	a5,a5,-1 # fbffffff <_sp+0xfbfd604f>
    c874:	00747693          	andi	a3,s0,7
    c878:	00f477b3          	and	a5,s0,a5
    c87c:	02068863          	beqz	a3,c8ac <__floatunsisf+0xc0>
    c880:	00f47413          	andi	s0,s0,15
    c884:	00400693          	li	a3,4
    c888:	02d40263          	beq	s0,a3,c8ac <__floatunsisf+0xc0>
    c88c:	00d787b3          	add	a5,a5,a3
    c890:	00579693          	slli	a3,a5,0x5
    c894:	0006dc63          	bgez	a3,c8ac <__floatunsisf+0xc0>
    c898:	fc000737          	lui	a4,0xfc000
    c89c:	fff70713          	addi	a4,a4,-1 # fbffffff <_sp+0xfbfd604f>
    c8a0:	00e7f7b3          	and	a5,a5,a4
    c8a4:	09f00713          	li	a4,159
    c8a8:	40a70733          	sub	a4,a4,a0
    c8ac:	0037d413          	srli	s0,a5,0x3
    c8b0:	f79ff06f          	j	c828 <__floatunsisf+0x3c>
    c8b4:	fad50ce3          	beq	a0,a3,c86c <__floatunsisf+0x80>
    c8b8:	ffb50793          	addi	a5,a0,-5
    c8bc:	00f41433          	sll	s0,s0,a5
    c8c0:	fadff06f          	j	c86c <__floatunsisf+0x80>
    c8c4:	09600713          	li	a4,150
    c8c8:	f61ff06f          	j	c828 <__floatunsisf+0x3c>

0000c8cc <__extendsfdf2>:
    c8cc:	01755713          	srli	a4,a0,0x17
    c8d0:	0ff77713          	zext.b	a4,a4
    c8d4:	ff010113          	addi	sp,sp,-16
    c8d8:	00170693          	addi	a3,a4,1
    c8dc:	00812423          	sw	s0,8(sp)
    c8e0:	00912223          	sw	s1,4(sp)
    c8e4:	00951793          	slli	a5,a0,0x9
    c8e8:	00112623          	sw	ra,12(sp)
    c8ec:	0fe6f693          	andi	a3,a3,254
    c8f0:	0097d413          	srli	s0,a5,0x9
    c8f4:	01f55493          	srli	s1,a0,0x1f
    c8f8:	04068263          	beqz	a3,c93c <__extendsfdf2+0x70>
    c8fc:	38070713          	addi	a4,a4,896
    c900:	00c7d793          	srli	a5,a5,0xc
    c904:	01d41413          	slli	s0,s0,0x1d
    c908:	00c79793          	slli	a5,a5,0xc
    c90c:	00c7d793          	srli	a5,a5,0xc
    c910:	01471713          	slli	a4,a4,0x14
    c914:	01f49513          	slli	a0,s1,0x1f
    c918:	00f76733          	or	a4,a4,a5
    c91c:	00c12083          	lw	ra,12(sp)
    c920:	00a767b3          	or	a5,a4,a0
    c924:	00040513          	mv	a0,s0
    c928:	00812403          	lw	s0,8(sp)
    c92c:	00412483          	lw	s1,4(sp)
    c930:	00078593          	mv	a1,a5
    c934:	01010113          	addi	sp,sp,16
    c938:	00008067          	ret
    c93c:	04071663          	bnez	a4,c988 <__extendsfdf2+0xbc>
    c940:	00000793          	li	a5,0
    c944:	fc0402e3          	beqz	s0,c908 <__extendsfdf2+0x3c>
    c948:	00040513          	mv	a0,s0
    c94c:	99dfe0ef          	jal	b2e8 <__clzsi2>
    c950:	00a00793          	li	a5,10
    c954:	02a7c263          	blt	a5,a0,c978 <__extendsfdf2+0xac>
    c958:	00b00793          	li	a5,11
    c95c:	40a787b3          	sub	a5,a5,a0
    c960:	01550713          	addi	a4,a0,21
    c964:	00f457b3          	srl	a5,s0,a5
    c968:	00e41433          	sll	s0,s0,a4
    c96c:	38900713          	li	a4,905
    c970:	40a70733          	sub	a4,a4,a0
    c974:	f95ff06f          	j	c908 <__extendsfdf2+0x3c>
    c978:	ff550793          	addi	a5,a0,-11
    c97c:	00f417b3          	sll	a5,s0,a5
    c980:	00000413          	li	s0,0
    c984:	fe9ff06f          	j	c96c <__extendsfdf2+0xa0>
    c988:	00040e63          	beqz	s0,c9a4 <__extendsfdf2+0xd8>
    c98c:	00c7d793          	srli	a5,a5,0xc
    c990:	00080737          	lui	a4,0x80
    c994:	01d41413          	slli	s0,s0,0x1d
    c998:	00e7e7b3          	or	a5,a5,a4
    c99c:	7ff00713          	li	a4,2047
    c9a0:	f69ff06f          	j	c908 <__extendsfdf2+0x3c>
    c9a4:	00000793          	li	a5,0
    c9a8:	ff5ff06f          	j	c99c <__extendsfdf2+0xd0>

0000c9ac <__truncdfsf2>:
    c9ac:	0145d713          	srli	a4,a1,0x14
    c9b0:	7ff77713          	andi	a4,a4,2047
    c9b4:	00c59793          	slli	a5,a1,0xc
    c9b8:	00170613          	addi	a2,a4,1 # 80001 <_sp+0x56051>
    c9bc:	0097d693          	srli	a3,a5,0x9
    c9c0:	7fe67613          	andi	a2,a2,2046
    c9c4:	01d55793          	srli	a5,a0,0x1d
    c9c8:	00d7e7b3          	or	a5,a5,a3
    c9cc:	01f5d593          	srli	a1,a1,0x1f
    c9d0:	00351693          	slli	a3,a0,0x3
    c9d4:	0a060e63          	beqz	a2,ca90 <__truncdfsf2+0xe4>
    c9d8:	c8070613          	addi	a2,a4,-896
    c9dc:	0fe00813          	li	a6,254
    c9e0:	10c84463          	blt	a6,a2,cae8 <__truncdfsf2+0x13c>
    c9e4:	08c04663          	bgtz	a2,ca70 <__truncdfsf2+0xc4>
    c9e8:	fe900513          	li	a0,-23
    c9ec:	0ea64863          	blt	a2,a0,cadc <__truncdfsf2+0x130>
    c9f0:	00800537          	lui	a0,0x800
    c9f4:	00a7e533          	or	a0,a5,a0
    c9f8:	fff00793          	li	a5,-1
    c9fc:	04f64463          	blt	a2,a5,ca44 <__truncdfsf2+0x98>
    ca00:	01e00793          	li	a5,30
    ca04:	c8270713          	addi	a4,a4,-894
    ca08:	40c787b3          	sub	a5,a5,a2
    ca0c:	00f6d7b3          	srl	a5,a3,a5
    ca10:	00e696b3          	sll	a3,a3,a4
    ca14:	00d036b3          	snez	a3,a3
    ca18:	00e51533          	sll	a0,a0,a4
    ca1c:	00a6e6b3          	or	a3,a3,a0
    ca20:	00d7e7b3          	or	a5,a5,a3
    ca24:	00000713          	li	a4,0
    ca28:	0077f693          	andi	a3,a5,7
    ca2c:	00068863          	beqz	a3,ca3c <__truncdfsf2+0x90>
    ca30:	00f7f693          	andi	a3,a5,15
    ca34:	00400613          	li	a2,4
    ca38:	06c69463          	bne	a3,a2,caa0 <__truncdfsf2+0xf4>
    ca3c:	0037d793          	srli	a5,a5,0x3
    ca40:	0880006f          	j	cac8 <__truncdfsf2+0x11c>
    ca44:	ffe00893          	li	a7,-2
    ca48:	40c887b3          	sub	a5,a7,a2
    ca4c:	00f557b3          	srl	a5,a0,a5
    ca50:	00000813          	li	a6,0
    ca54:	01160663          	beq	a2,a7,ca60 <__truncdfsf2+0xb4>
    ca58:	ca270713          	addi	a4,a4,-862
    ca5c:	00e51833          	sll	a6,a0,a4
    ca60:	00d86833          	or	a6,a6,a3
    ca64:	01003833          	snez	a6,a6
    ca68:	0107e7b3          	or	a5,a5,a6
    ca6c:	fb9ff06f          	j	ca24 <__truncdfsf2+0x78>
    ca70:	00651513          	slli	a0,a0,0x6
    ca74:	00a03533          	snez	a0,a0
    ca78:	00379793          	slli	a5,a5,0x3
    ca7c:	01d6d693          	srli	a3,a3,0x1d
    ca80:	00f567b3          	or	a5,a0,a5
    ca84:	00d7e7b3          	or	a5,a5,a3
    ca88:	00060713          	mv	a4,a2
    ca8c:	f9dff06f          	j	ca28 <__truncdfsf2+0x7c>
    ca90:	00d7e7b3          	or	a5,a5,a3
    ca94:	02071263          	bnez	a4,cab8 <__truncdfsf2+0x10c>
    ca98:	fa0782e3          	beqz	a5,ca3c <__truncdfsf2+0x90>
    ca9c:	00100793          	li	a5,1
    caa0:	00478793          	addi	a5,a5,4
    caa4:	00579693          	slli	a3,a5,0x5
    caa8:	f806dae3          	bgez	a3,ca3c <__truncdfsf2+0x90>
    caac:	00170713          	addi	a4,a4,1
    cab0:	00000793          	li	a5,0
    cab4:	0140006f          	j	cac8 <__truncdfsf2+0x11c>
    cab8:	0ff00713          	li	a4,255
    cabc:	00078663          	beqz	a5,cac8 <__truncdfsf2+0x11c>
    cac0:	00000593          	li	a1,0
    cac4:	004007b7          	lui	a5,0x400
    cac8:	01771713          	slli	a4,a4,0x17
    cacc:	00f76733          	or	a4,a4,a5
    cad0:	01f59513          	slli	a0,a1,0x1f
    cad4:	00a76533          	or	a0,a4,a0
    cad8:	00008067          	ret
    cadc:	00100793          	li	a5,1
    cae0:	00000713          	li	a4,0
    cae4:	fbdff06f          	j	caa0 <__truncdfsf2+0xf4>
    cae8:	0ff00713          	li	a4,255
    caec:	fc5ff06f          	j	cab0 <__truncdfsf2+0x104>

0000caf0 <main>:
    caf0:	cf010113          	addi	sp,sp,-784
    caf4:	30112623          	sw	ra,780(sp)
    caf8:	30812423          	sw	s0,776(sp)
    cafc:	30912223          	sw	s1,772(sp)
    cb00:	31212023          	sw	s2,768(sp)
    cb04:	2f312e23          	sw	s3,764(sp)
    cb08:	2f412c23          	sw	s4,760(sp)
    cb0c:	2f512a23          	sw	s5,756(sp)
    cb10:	2f612823          	sw	s6,752(sp)
    cb14:	2f712623          	sw	s7,748(sp)
    cb18:	2f812423          	sw	s8,744(sp)
    cb1c:	2f912223          	sw	s9,740(sp)
    cb20:	2fa12023          	sw	s10,736(sp)
    cb24:	2db12e23          	sw	s11,732(sp)
    cb28:	00100793          	li	a5,1
    cb2c:	3207b073          	csrc	mcountinhibit,a5
    cb30:	1e010413          	addi	s0,sp,480
    cb34:	2d010713          	addi	a4,sp,720
    cb38:	00040793          	mv	a5,s0
    cb3c:	0007a023          	sw	zero,0(a5) # 400000 <_sp+0x3d6050>
    cb40:	00000693          	li	a3,0
    cb44:	00d7a223          	sw	a3,4(a5)
    cb48:	00d7a423          	sw	a3,8(a5)
    cb4c:	00c78793          	addi	a5,a5,12
    cb50:	fee796e3          	bne	a5,a4,cb3c <main+0x4c>
    cb54:	0a810793          	addi	a5,sp,168
    cb58:	02f12423          	sw	a5,40(sp)
    cb5c:	1e010913          	addi	s2,sp,480
    cb60:	0007a023          	sw	zero,0(a5)
    cb64:	00000713          	li	a4,0
    cb68:	00e7a223          	sw	a4,4(a5)
    cb6c:	00e7a423          	sw	a4,8(a5)
    cb70:	00c78793          	addi	a5,a5,12
    cb74:	ff2796e3          	bne	a5,s2,cb60 <main+0x70>
    cb78:	fff00793          	li	a5,-1
    cb7c:	02f12e23          	sw	a5,60(sp)
    cb80:	00020ab7          	lui	s5,0x20
    cb84:	624a8a93          	addi	s5,s5,1572 # 20624 <dataSourcesLE_0>
    cb88:	320a8b13          	addi	s6,s5,800
    cb8c:	640a8793          	addi	a5,s5,1600
    cb90:	00078713          	mv	a4,a5
    cb94:	000217b7          	lui	a5,0x21
    cb98:	62478793          	addi	a5,a5,1572 # 21624 <dataSourcesLE_8+0x60>
    cb9c:	96078c13          	addi	s8,a5,-1696
    cba0:	c8078d13          	addi	s10,a5,-896
    cba4:	fa078d93          	addi	s11,a5,-96
    cba8:	2c078793          	addi	a5,a5,704
    cbac:	00f12623          	sw	a5,12(sp)
    cbb0:	00000b93          	li	s7,0
    cbb4:	b6c18493          	addi	s1,gp,-1172 # 21f70 <in1_buf>
    cbb8:	000207b7          	lui	a5,0x20
    cbbc:	40878793          	addi	a5,a5,1032 # 20408 <__clz_tab+0x118>
    cbc0:	02f12223          	sw	a5,36(sp)
    cbc4:	02812623          	sw	s0,44(sp)
    cbc8:	000a8c93          	mv	s9,s5
    cbcc:	00070a93          	mv	s5,a4
    cbd0:	1540006f          	j	cd24 <main+0x234>
    cbd4:	c19ff0ef          	jal	c7ec <__floatunsisf>
    cbd8:	00a12e23          	sw	a0,28(sp)
    cbdc:	00141793          	slli	a5,s0,0x1
    cbe0:	02f12023          	sw	a5,32(sp)
    cbe4:	208427b3          	sh1add	a5,s0,s0
    cbe8:	2d010713          	addi	a4,sp,720
    cbec:	20e7ca33          	sh2add	s4,a5,a4
    cbf0:	f10a2783          	lw	a5,-240(s4)
    cbf4:	00178793          	addi	a5,a5,1
    cbf8:	00f12823          	sw	a5,16(sp)
    cbfc:	f0fa2823          	sw	a5,-240(s4)
    cc00:	f14a2783          	lw	a5,-236(s4)
    cc04:	00f12a23          	sw	a5,20(sp)
    cc08:	00078593          	mv	a1,a5
    cc0c:	f34ff0ef          	jal	c340 <__subsf3>
    cc10:	00a12c23          	sw	a0,24(sp)
    cc14:	01012503          	lw	a0,16(sp)
    cc18:	bd5ff0ef          	jal	c7ec <__floatunsisf>
    cc1c:	00050593          	mv	a1,a0
    cc20:	01812503          	lw	a0,24(sp)
    cc24:	814ff0ef          	jal	bc38 <__divsf3>
    cc28:	01412583          	lw	a1,20(sp)
    cc2c:	be5fe0ef          	jal	b810 <__addsf3>
    cc30:	00050593          	mv	a1,a0
    cc34:	f0aa2a23          	sw	a0,-236(s4)
    cc38:	01c12503          	lw	a0,28(sp)
    cc3c:	f04ff0ef          	jal	c340 <__subsf3>
    cc40:	01812583          	lw	a1,24(sp)
    cc44:	be0ff0ef          	jal	c024 <__mulsf3>
    cc48:	f18a2583          	lw	a1,-232(s4)
    cc4c:	bc5fe0ef          	jal	b810 <__addsf3>
    cc50:	f0aa2c23          	sw	a0,-232(s4)
    cc54:	02812403          	lw	s0,40(sp)
    cc58:	01712823          	sw	s7,16(sp)
    cc5c:	01912a23          	sw	s9,20(sp)
    cc60:	01612c23          	sw	s6,24(sp)
    cc64:	0100006f          	j	cc74 <main+0x184>
    cc68:	00498993          	addi	s3,s3,4
    cc6c:	00c40413          	addi	s0,s0,12 # 40000c <_sp+0x3d605c>
    cc70:	07240c63          	beq	s0,s2,cce8 <main+0x1f8>
    cc74:	0009a503          	lw	a0,0(s3)
    cc78:	fe0508e3          	beqz	a0,cc68 <main+0x178>
    cc7c:	b71ff0ef          	jal	c7ec <__floatunsisf>
    cc80:	00050b93          	mv	s7,a0
    cc84:	00042b03          	lw	s6,0(s0)
    cc88:	001b0b13          	addi	s6,s6,1
    cc8c:	01642023          	sw	s6,0(s0)
    cc90:	00442c83          	lw	s9,4(s0)
    cc94:	000c8593          	mv	a1,s9
    cc98:	ea8ff0ef          	jal	c340 <__subsf3>
    cc9c:	00050a13          	mv	s4,a0
    cca0:	000b0513          	mv	a0,s6
    cca4:	b49ff0ef          	jal	c7ec <__floatunsisf>
    cca8:	00050593          	mv	a1,a0
    ccac:	000a0513          	mv	a0,s4
    ccb0:	f89fe0ef          	jal	bc38 <__divsf3>
    ccb4:	000c8593          	mv	a1,s9
    ccb8:	b59fe0ef          	jal	b810 <__addsf3>
    ccbc:	00050593          	mv	a1,a0
    ccc0:	00a42223          	sw	a0,4(s0)
    ccc4:	000b8513          	mv	a0,s7
    ccc8:	e78ff0ef          	jal	c340 <__subsf3>
    cccc:	000a0593          	mv	a1,s4
    ccd0:	b54ff0ef          	jal	c024 <__mulsf3>
    ccd4:	00050593          	mv	a1,a0
    ccd8:	00842503          	lw	a0,8(s0)
    ccdc:	b35fe0ef          	jal	b810 <__addsf3>
    cce0:	00a42423          	sw	a0,8(s0)
    cce4:	f85ff06f          	j	cc68 <main+0x178>
    cce8:	01012b83          	lw	s7,16(sp)
    ccec:	01412c83          	lw	s9,20(sp)
    ccf0:	01812b03          	lw	s6,24(sp)
    ccf4:	001b8b93          	addi	s7,s7,1
    ccf8:	004c8c93          	addi	s9,s9,4 # ffff0004 <_sp+0xfffc6054>
    ccfc:	004b0b13          	addi	s6,s6,4
    cd00:	004a8a93          	addi	s5,s5,4
    cd04:	004c0c13          	addi	s8,s8,4
    cd08:	004d0d13          	addi	s10,s10,4
    cd0c:	004d8d93          	addi	s11,s11,4
    cd10:	00c12783          	lw	a5,12(sp)
    cd14:	00478793          	addi	a5,a5,4
    cd18:	00f12623          	sw	a5,12(sp)
    cd1c:	0c800793          	li	a5,200
    cd20:	0efb8663          	beq	s7,a5,ce0c <main+0x31c>
    cd24:	000ca783          	lw	a5,0(s9)
    cd28:	00f4a023          	sw	a5,0(s1)
    cd2c:	000b2783          	lw	a5,0(s6)
    cd30:	00f4a223          	sw	a5,4(s1)
    cd34:	000aa783          	lw	a5,0(s5)
    cd38:	00f4a423          	sw	a5,8(s1)
    cd3c:	0004a623          	sw	zero,12(s1)
    cd40:	015a07b7          	lui	a5,0x15a0
    cd44:	00f4a823          	sw	a5,16(s1)
    cd48:	010b07b7          	lui	a5,0x10b0
    cd4c:	00f4aa23          	sw	a5,20(s1)
    cd50:	000c2783          	lw	a5,0(s8)
    cd54:	00f4ac23          	sw	a5,24(s1)
    cd58:	000d2783          	lw	a5,0(s10)
    cd5c:	00f4ae23          	sw	a5,28(s1)
    cd60:	000da783          	lw	a5,0(s11)
    cd64:	02f4a023          	sw	a5,32(s1)
    cd68:	080007b7          	lui	a5,0x8000
    cd6c:	02f4a223          	sw	a5,36(s1)
    cd70:	02f4a423          	sw	a5,40(s1)
    cd74:	02f4a623          	sw	a5,44(s1)
    cd78:	02f4a823          	sw	a5,48(s1)
    cd7c:	020007b7          	lui	a5,0x2000
    cd80:	02f4aa23          	sw	a5,52(s1)
    cd84:	010007b7          	lui	a5,0x1000
    cd88:	02f4ac23          	sw	a5,56(s1)
    cd8c:	9691aa23          	sw	s1,-1676(gp) # 21d78 <in1>
    cd90:	b7818713          	addi	a4,gp,-1160 # 21f7c <in2_buf>
    cd94:	96e1a823          	sw	a4,-1680(gp) # 21d74 <in2>
    cd98:	b8418713          	addi	a4,gp,-1148 # 21f88 <in3_buf>
    cd9c:	96e1a623          	sw	a4,-1684(gp) # 21d70 <in3>
    cda0:	b9018713          	addi	a4,gp,-1136 # 21f94 <in4_buf>
    cda4:	96e1a423          	sw	a4,-1688(gp) # 21d6c <in4>
    cda8:	04010993          	addi	s3,sp,64
    cdac:	0a810713          	addi	a4,sp,168
    cdb0:	00098793          	mv	a5,s3
    cdb4:	0007a023          	sw	zero,0(a5) # 1000000 <_sp+0xfd6050>
    cdb8:	00478793          	addi	a5,a5,4
    cdbc:	fee79ce3          	bne	a5,a4,cdb4 <main+0x2c4>
    cdc0:	00000793          	li	a5,0
    cdc4:	b0079073          	csrw	mcycle,a5
    cdc8:	04010793          	addi	a5,sp,64
    cdcc:	b9018713          	addi	a4,gp,-1136 # 21f94 <in4_buf>
    cdd0:	b8418693          	addi	a3,gp,-1148 # 21f88 <in3_buf>
    cdd4:	b7818613          	addi	a2,gp,-1160 # 21f7c <in2_buf>
    cdd8:	00048593          	mv	a1,s1
    cddc:	03c10513          	addi	a0,sp,60
    cde0:	d71f30ef          	jal	b50 <inferenceTPG>
    cde4:	b0002573          	csrr	a0,mcycle
    cde8:	00c12783          	lw	a5,12(sp)
    cdec:	0007a403          	lw	s0,0(a5)
    cdf0:	01300793          	li	a5,19
    cdf4:	de87f0e3          	bgeu	a5,s0,cbd4 <main+0xe4>
    cdf8:	00040613          	mv	a2,s0
    cdfc:	000b8593          	mv	a1,s7
    ce00:	02412503          	lw	a0,36(sp)
    ce04:	e84fb0ef          	jal	8488 <iprintf>
    ce08:	eedff06f          	j	ccf4 <main+0x204>
    ce0c:	02c12403          	lw	s0,44(sp)
    ce10:	00020537          	lui	a0,0x20
    ce14:	42850513          	addi	a0,a0,1064 # 20428 <__clz_tab+0x138>
    ce18:	fc8fb0ef          	jal	85e0 <puts>
    ce1c:	00000493          	li	s1,0
    ce20:	00100c13          	li	s8,1
    ce24:	00020b37          	lui	s6,0x20
    ce28:	45cb0b13          	addi	s6,s6,1116 # 2045c <__clz_tab+0x16c>
    ce2c:	00000b93          	li	s7,0
    ce30:	01400a93          	li	s5,20
    ce34:	03c0006f          	j	ce70 <main+0x380>
    ce38:	000b8513          	mv	a0,s7
    ce3c:	941ff0ef          	jal	c77c <__fixsfsi>
    ce40:	00050993          	mv	s3,a0
    ce44:	000a0513          	mv	a0,s4
    ce48:	935ff0ef          	jal	c77c <__fixsfsi>
    ce4c:	00050693          	mv	a3,a0
    ce50:	00098713          	mv	a4,s3
    ce54:	00090613          	mv	a2,s2
    ce58:	00048593          	mv	a1,s1
    ce5c:	000b0513          	mv	a0,s6
    ce60:	e28fb0ef          	jal	8488 <iprintf>
    ce64:	00148493          	addi	s1,s1,1
    ce68:	00c40413          	addi	s0,s0,12
    ce6c:	05548663          	beq	s1,s5,ceb8 <main+0x3c8>
    ce70:	00042903          	lw	s2,0(s0)
    ce74:	fe0908e3          	beqz	s2,ce64 <main+0x374>
    ce78:	00442a03          	lw	s4,4(s0)
    ce7c:	fb2c7ee3          	bgeu	s8,s2,ce38 <main+0x348>
    ce80:	fff90513          	addi	a0,s2,-1
    ce84:	969ff0ef          	jal	c7ec <__floatunsisf>
    ce88:	00050593          	mv	a1,a0
    ce8c:	00842503          	lw	a0,8(s0)
    ce90:	da9fe0ef          	jal	bc38 <__divsf3>
    ce94:	00050993          	mv	s3,a0
    ce98:	000b8593          	mv	a1,s7
    ce9c:	8ecff0ef          	jal	bf88 <__gesf2>
    cea0:	f8a05ce3          	blez	a0,ce38 <main+0x348>
    cea4:	00098513          	mv	a0,s3
    cea8:	a25ff0ef          	jal	c8cc <__extendsfdf2>
    ceac:	ce4fc0ef          	jal	9390 <sqrt>
    ceb0:	afdff0ef          	jal	c9ac <__truncdfsf2>
    ceb4:	f89ff06f          	j	ce3c <main+0x34c>
    ceb8:	00020537          	lui	a0,0x20
    cebc:	46c50513          	addi	a0,a0,1132 # 2046c <__clz_tab+0x17c>
    cec0:	f20fb0ef          	jal	85e0 <puts>
    cec4:	00000413          	li	s0,0
    cec8:	00100b13          	li	s6,1
    cecc:	00020a37          	lui	s4,0x20
    ced0:	45ca0a13          	addi	s4,s4,1116 # 2045c <__clz_tab+0x16c>
    ced4:	00000a93          	li	s5,0
    ced8:	01a00993          	li	s3,26
    cedc:	02812483          	lw	s1,40(sp)
    cee0:	03c0006f          	j	cf1c <main+0x42c>
    cee4:	000a8513          	mv	a0,s5
    cee8:	895ff0ef          	jal	c77c <__fixsfsi>
    ceec:	00050b93          	mv	s7,a0
    cef0:	000c0513          	mv	a0,s8
    cef4:	889ff0ef          	jal	c77c <__fixsfsi>
    cef8:	00050693          	mv	a3,a0
    cefc:	000b8713          	mv	a4,s7
    cf00:	00090613          	mv	a2,s2
    cf04:	00040593          	mv	a1,s0
    cf08:	000a0513          	mv	a0,s4
    cf0c:	d7cfb0ef          	jal	8488 <iprintf>
    cf10:	00140413          	addi	s0,s0,1
    cf14:	00c48493          	addi	s1,s1,12
    cf18:	05340663          	beq	s0,s3,cf64 <main+0x474>
    cf1c:	0004a903          	lw	s2,0(s1)
    cf20:	fe0908e3          	beqz	s2,cf10 <main+0x420>
    cf24:	0044ac03          	lw	s8,4(s1)
    cf28:	fb2b7ee3          	bgeu	s6,s2,cee4 <main+0x3f4>
    cf2c:	fff90513          	addi	a0,s2,-1
    cf30:	8bdff0ef          	jal	c7ec <__floatunsisf>
    cf34:	00050593          	mv	a1,a0
    cf38:	0084a503          	lw	a0,8(s1)
    cf3c:	cfdfe0ef          	jal	bc38 <__divsf3>
    cf40:	00050b93          	mv	s7,a0
    cf44:	000a8593          	mv	a1,s5
    cf48:	840ff0ef          	jal	bf88 <__gesf2>
    cf4c:	f8a05ce3          	blez	a0,cee4 <main+0x3f4>
    cf50:	000b8513          	mv	a0,s7
    cf54:	979ff0ef          	jal	c8cc <__extendsfdf2>
    cf58:	c38fc0ef          	jal	9390 <sqrt>
    cf5c:	a51ff0ef          	jal	c9ac <__truncdfsf2>
    cf60:	f89ff06f          	j	cee8 <main+0x3f8>
    cf64:	00000513          	li	a0,0
    cf68:	30c12083          	lw	ra,780(sp)
    cf6c:	30812403          	lw	s0,776(sp)
    cf70:	30412483          	lw	s1,772(sp)
    cf74:	30012903          	lw	s2,768(sp)
    cf78:	2fc12983          	lw	s3,764(sp)
    cf7c:	2f812a03          	lw	s4,760(sp)
    cf80:	2f412a83          	lw	s5,756(sp)
    cf84:	2f012b03          	lw	s6,752(sp)
    cf88:	2ec12b83          	lw	s7,748(sp)
    cf8c:	2e812c03          	lw	s8,744(sp)
    cf90:	2e412c83          	lw	s9,740(sp)
    cf94:	2e012d03          	lw	s10,736(sp)
    cf98:	2dc12d83          	lw	s11,732(sp)
    cf9c:	31010113          	addi	sp,sp,784
    cfa0:	00008067          	ret
