
sw/build/main.elf:     file format elf32-littleriscv


Disassembly of section .vectors:

00000000 <__vector_start>:
   0:	7d10606f          	j	6fd0 <handler_exception>
   4:	22c0006f          	j	230 <__no_irq_handler>
   8:	2280006f          	j	230 <__no_irq_handler>
   c:	0880706f          	j	7094 <handler_irq_software>
  10:	2200006f          	j	230 <__no_irq_handler>
  14:	21c0006f          	j	230 <__no_irq_handler>
  18:	2180006f          	j	230 <__no_irq_handler>
  1c:	0cc0706f          	j	70e8 <handler_irq_timer>
  20:	2100006f          	j	230 <__no_irq_handler>
  24:	20c0006f          	j	230 <__no_irq_handler>
  28:	2080006f          	j	230 <__no_irq_handler>
  2c:	6f10606f          	j	6f1c <handler_irq_external>
  30:	2000006f          	j	230 <__no_irq_handler>
  34:	1fc0006f          	j	230 <__no_irq_handler>
  38:	1f80006f          	j	230 <__no_irq_handler>
  3c:	1f40006f          	j	230 <__no_irq_handler>
  40:	6500606f          	j	6690 <handler_irq_fast_timer_1>
  44:	6e80606f          	j	672c <handler_irq_fast_timer_2>
  48:	7800606f          	j	67c8 <handler_irq_fast_timer_3>
  4c:	0190606f          	j	6864 <handler_irq_fast_dma_done>
  50:	3cc0706f          	j	741c <handler_irq_fast_spi>
  54:	26c0706f          	j	72c0 <handler_irq_fast_spi_flash>
  58:	1e10606f          	j	6a38 <handler_irq_fast_gpio_0>
  5c:	2790606f          	j	6ad4 <handler_irq_fast_gpio_1>
  60:	3110606f          	j	6b70 <handler_irq_fast_gpio_2>
  64:	3a90606f          	j	6c0c <handler_irq_fast_gpio_3>
  68:	4410606f          	j	6ca8 <handler_irq_fast_gpio_4>
  6c:	4d90606f          	j	6d44 <handler_irq_fast_gpio_5>
  70:	5750606f          	j	6de4 <handler_irq_fast_gpio_6>
  74:	60d0606f          	j	6e80 <handler_irq_fast_gpio_7>
  78:	0890606f          	j	6900 <handler_irq_fast_dma_window>
  7c:	1210606f          	j	699c <handler_irq_fast_external_peripheral>

Disassembly of section .init:

00000180 <_start>:
 180:	00022197          	auipc	gp,0x22
 184:	23818193          	addi	gp,gp,568 # 223b8 <__global_pointer$>
 188:	0002a117          	auipc	sp,0x2a
 18c:	dd810113          	addi	sp,sp,-552 # 29f60 <_sp>
 190:	20000537          	lui	a0,0x20000
 194:	05f5e637          	lui	a2,0x5f5e
 198:	10060613          	addi	a2,a2,256 # 5f5e100 <_sp+0x5f341a0>
 19c:	00c52e23          	sw	a2,28(a0) # 2000001c <_sp+0x1ffd60bc>

000001a0 <_init_bss>:
 1a0:	00022517          	auipc	a0,0x22
 1a4:	b6850513          	addi	a0,a0,-1176 # 21d08 <__stdio_exit_handler>
 1a8:	00022617          	auipc	a2,0x22
 1ac:	db460613          	addi	a2,a2,-588 # 21f5c <__BSS_END__>
 1b0:	40a60633          	sub	a2,a2,a0
 1b4:	00000593          	li	a1,0
 1b8:	035070ef          	jal	79ec <memset>
 1bc:	00000517          	auipc	a0,0x0
 1c0:	e4450513          	addi	a0,a0,-444 # 0 <__vector_start>
 1c4:	00156513          	ori	a0,a0,1
 1c8:	30551073          	csrw	mtvec,a0
 1cc:	00007517          	auipc	a0,0x7
 1d0:	7c850513          	addi	a0,a0,1992 # 7994 <__libc_fini_array>
 1d4:	2e4070ef          	jal	74b8 <atexit>
 1d8:	728070ef          	jal	7900 <__libc_init_array>
 1dc:	00012503          	lw	a0,0(sp)
 1e0:	00410593          	addi	a1,sp,4
 1e4:	00000613          	li	a2,0
 1e8:	50c0b0ef          	jal	b6f4 <main>
 1ec:	00c0006f          	j	1f8 <exit>

000001f0 <_init>:
 1f0:	74d060ef          	jal	713c <init>

000001f4 <_fini>:
 1f4:	00008067          	ret

Disassembly of section .text:

000001f8 <exit>:
     1f8:	ff010113          	addi	sp,sp,-16
     1fc:	000087b7          	lui	a5,0x8
     200:	00812423          	sw	s0,8(sp)
     204:	00112623          	sw	ra,12(sp)
     208:	a9c78793          	addi	a5,a5,-1380 # 7a9c <__call_exitprocs>
     20c:	00050413          	mv	s0,a0
     210:	00078663          	beqz	a5,21c <exit+0x24>
     214:	00000593          	li	a1,0
     218:	085070ef          	jal	7a9c <__call_exitprocs>
     21c:	9501a783          	lw	a5,-1712(gp) # 21d08 <__stdio_exit_handler>
     220:	00078463          	beqz	a5,228 <exit+0x30>
     224:	000780e7          	jalr	a5
     228:	00040513          	mv	a0,s0
     22c:	721060ef          	jal	714c <_exit>

00000230 <__no_irq_handler>:
     230:	0000006f          	j	230 <__no_irq_handler>

00000234 <fic_irq_dma_window>:
     234:	fe010113          	addi	sp,sp,-32
     238:	00112e23          	sw	ra,28(sp)
     23c:	00812c23          	sw	s0,24(sp)
     240:	02010413          	addi	s0,sp,32
     244:	fe042623          	sw	zero,-20(s0)
     248:	04c0006f          	j	294 <fic_irq_dma_window+0x60>
     24c:	97418693          	addi	a3,gp,-1676 # 21d2c <dma_subsys_per>
     250:	fec42703          	lw	a4,-20(s0)
     254:	00070793          	mv	a5,a4
     258:	00179793          	slli	a5,a5,0x1
     25c:	00e787b3          	add	a5,a5,a4
     260:	00279793          	slli	a5,a5,0x2
     264:	00f687b3          	add	a5,a3,a5
     268:	0087a783          	lw	a5,8(a5)
     26c:	0687a703          	lw	a4,104(a5)
     270:	00100793          	li	a5,1
     274:	00f71a63          	bne	a4,a5,288 <fic_irq_dma_window+0x54>
     278:	fec42783          	lw	a5,-20(s0)
     27c:	0ff7f793          	zext.b	a5,a5
     280:	00078513          	mv	a0,a5
     284:	100000ef          	jal	384 <dma_intr_handler_window_done>
     288:	fec42783          	lw	a5,-20(s0)
     28c:	00178793          	addi	a5,a5,1
     290:	fef42623          	sw	a5,-20(s0)
     294:	fec42703          	lw	a4,-20(s0)
     298:	00300793          	li	a5,3
     29c:	fae7d8e3          	bge	a5,a4,24c <fic_irq_dma_window+0x18>
     2a0:	00000013          	nop
     2a4:	01c12083          	lw	ra,28(sp)
     2a8:	01812403          	lw	s0,24(sp)
     2ac:	02010113          	addi	sp,sp,32
     2b0:	00008067          	ret

000002b4 <fic_irq_dma_done>:
     2b4:	fe010113          	addi	sp,sp,-32
     2b8:	00112e23          	sw	ra,28(sp)
     2bc:	00812c23          	sw	s0,24(sp)
     2c0:	02010413          	addi	s0,sp,32
     2c4:	fe042623          	sw	zero,-20(s0)
     2c8:	0700006f          	j	338 <fic_irq_dma_done+0x84>
     2cc:	97418693          	addi	a3,gp,-1676 # 21d2c <dma_subsys_per>
     2d0:	fec42703          	lw	a4,-20(s0)
     2d4:	00070793          	mv	a5,a4
     2d8:	00179793          	slli	a5,a5,0x1
     2dc:	00e787b3          	add	a5,a5,a4
     2e0:	00279793          	slli	a5,a5,0x2
     2e4:	00f687b3          	add	a5,a3,a5
     2e8:	0087a783          	lw	a5,8(a5)
     2ec:	0647a703          	lw	a4,100(a5)
     2f0:	00100793          	li	a5,1
     2f4:	02f71c63          	bne	a4,a5,32c <fic_irq_dma_done+0x78>
     2f8:	97418693          	addi	a3,gp,-1676 # 21d2c <dma_subsys_per>
     2fc:	fec42703          	lw	a4,-20(s0)
     300:	00070793          	mv	a5,a4
     304:	00179793          	slli	a5,a5,0x1
     308:	00e787b3          	add	a5,a5,a4
     30c:	00279793          	slli	a5,a5,0x2
     310:	00f687b3          	add	a5,a3,a5
     314:	00100713          	li	a4,1
     318:	00e78223          	sb	a4,4(a5)
     31c:	fec42783          	lw	a5,-20(s0)
     320:	0ff7f793          	zext.b	a5,a5
     324:	00078513          	mv	a0,a5
     328:	030000ef          	jal	358 <dma_intr_handler_trans_done>
     32c:	fec42783          	lw	a5,-20(s0)
     330:	00178793          	addi	a5,a5,1
     334:	fef42623          	sw	a5,-20(s0)
     338:	fec42703          	lw	a4,-20(s0)
     33c:	00300793          	li	a5,3
     340:	f8e7d6e3          	bge	a5,a4,2cc <fic_irq_dma_done+0x18>
     344:	00000013          	nop
     348:	01c12083          	lw	ra,28(sp)
     34c:	01812403          	lw	s0,24(sp)
     350:	02010113          	addi	sp,sp,32
     354:	00008067          	ret

00000358 <dma_intr_handler_trans_done>:
     358:	fe010113          	addi	sp,sp,-32
     35c:	00112e23          	sw	ra,28(sp)
     360:	00812c23          	sw	s0,24(sp)
     364:	02010413          	addi	s0,sp,32
     368:	00050793          	mv	a5,a0
     36c:	fef407a3          	sb	a5,-17(s0)
     370:	00000013          	nop
     374:	01c12083          	lw	ra,28(sp)
     378:	01812403          	lw	s0,24(sp)
     37c:	02010113          	addi	sp,sp,32
     380:	00008067          	ret

00000384 <dma_intr_handler_window_done>:
     384:	fe010113          	addi	sp,sp,-32
     388:	00112e23          	sw	ra,28(sp)
     38c:	00812c23          	sw	s0,24(sp)
     390:	02010413          	addi	s0,sp,32
     394:	00050793          	mv	a5,a0
     398:	fef407a3          	sb	a5,-17(s0)
     39c:	00000013          	nop
     3a0:	01c12083          	lw	ra,28(sp)
     3a4:	01812403          	lw	s0,24(sp)
     3a8:	02010113          	addi	sp,sp,32
     3ac:	00008067          	ret

000003b0 <fic_irq_timer_1>:
     3b0:	ff010113          	addi	sp,sp,-16
     3b4:	00112623          	sw	ra,12(sp)
     3b8:	00812423          	sw	s0,8(sp)
     3bc:	01010413          	addi	s0,sp,16
     3c0:	00000013          	nop
     3c4:	00c12083          	lw	ra,12(sp)
     3c8:	00812403          	lw	s0,8(sp)
     3cc:	01010113          	addi	sp,sp,16
     3d0:	00008067          	ret

000003d4 <fic_irq_timer_2>:
     3d4:	ff010113          	addi	sp,sp,-16
     3d8:	00112623          	sw	ra,12(sp)
     3dc:	00812423          	sw	s0,8(sp)
     3e0:	01010413          	addi	s0,sp,16
     3e4:	00000013          	nop
     3e8:	00c12083          	lw	ra,12(sp)
     3ec:	00812403          	lw	s0,8(sp)
     3f0:	01010113          	addi	sp,sp,16
     3f4:	00008067          	ret

000003f8 <fic_irq_timer_3>:
     3f8:	ff010113          	addi	sp,sp,-16
     3fc:	00112623          	sw	ra,12(sp)
     400:	00812423          	sw	s0,8(sp)
     404:	01010413          	addi	s0,sp,16
     408:	00000013          	nop
     40c:	00c12083          	lw	ra,12(sp)
     410:	00812403          	lw	s0,8(sp)
     414:	01010113          	addi	sp,sp,16
     418:	00008067          	ret

0000041c <fic_irq_ext_peripheral>:
     41c:	ff010113          	addi	sp,sp,-16
     420:	00112623          	sw	ra,12(sp)
     424:	00812423          	sw	s0,8(sp)
     428:	01010413          	addi	s0,sp,16
     42c:	00000013          	nop
     430:	00c12083          	lw	ra,12(sp)
     434:	00812403          	lw	s0,8(sp)
     438:	01010113          	addi	sp,sp,16
     43c:	00008067          	ret

00000440 <fic_irq_gpio_0>:
     440:	ff010113          	addi	sp,sp,-16
     444:	00112623          	sw	ra,12(sp)
     448:	00812423          	sw	s0,8(sp)
     44c:	01010413          	addi	s0,sp,16
     450:	00000013          	nop
     454:	00c12083          	lw	ra,12(sp)
     458:	00812403          	lw	s0,8(sp)
     45c:	01010113          	addi	sp,sp,16
     460:	00008067          	ret

00000464 <fic_irq_gpio_1>:
     464:	ff010113          	addi	sp,sp,-16
     468:	00112623          	sw	ra,12(sp)
     46c:	00812423          	sw	s0,8(sp)
     470:	01010413          	addi	s0,sp,16
     474:	00000013          	nop
     478:	00c12083          	lw	ra,12(sp)
     47c:	00812403          	lw	s0,8(sp)
     480:	01010113          	addi	sp,sp,16
     484:	00008067          	ret

00000488 <fic_irq_gpio_2>:
     488:	ff010113          	addi	sp,sp,-16
     48c:	00112623          	sw	ra,12(sp)
     490:	00812423          	sw	s0,8(sp)
     494:	01010413          	addi	s0,sp,16
     498:	00000013          	nop
     49c:	00c12083          	lw	ra,12(sp)
     4a0:	00812403          	lw	s0,8(sp)
     4a4:	01010113          	addi	sp,sp,16
     4a8:	00008067          	ret

000004ac <fic_irq_gpio_3>:
     4ac:	ff010113          	addi	sp,sp,-16
     4b0:	00112623          	sw	ra,12(sp)
     4b4:	00812423          	sw	s0,8(sp)
     4b8:	01010413          	addi	s0,sp,16
     4bc:	00000013          	nop
     4c0:	00c12083          	lw	ra,12(sp)
     4c4:	00812403          	lw	s0,8(sp)
     4c8:	01010113          	addi	sp,sp,16
     4cc:	00008067          	ret

000004d0 <fic_irq_gpio_4>:
     4d0:	ff010113          	addi	sp,sp,-16
     4d4:	00112623          	sw	ra,12(sp)
     4d8:	00812423          	sw	s0,8(sp)
     4dc:	01010413          	addi	s0,sp,16
     4e0:	00000013          	nop
     4e4:	00c12083          	lw	ra,12(sp)
     4e8:	00812403          	lw	s0,8(sp)
     4ec:	01010113          	addi	sp,sp,16
     4f0:	00008067          	ret

000004f4 <fic_irq_gpio_5>:
     4f4:	ff010113          	addi	sp,sp,-16
     4f8:	00112623          	sw	ra,12(sp)
     4fc:	00812423          	sw	s0,8(sp)
     500:	01010413          	addi	s0,sp,16
     504:	00000013          	nop
     508:	00c12083          	lw	ra,12(sp)
     50c:	00812403          	lw	s0,8(sp)
     510:	01010113          	addi	sp,sp,16
     514:	00008067          	ret

00000518 <fic_irq_gpio_6>:
     518:	ff010113          	addi	sp,sp,-16
     51c:	00112623          	sw	ra,12(sp)
     520:	00812423          	sw	s0,8(sp)
     524:	01010413          	addi	s0,sp,16
     528:	00000013          	nop
     52c:	00c12083          	lw	ra,12(sp)
     530:	00812403          	lw	s0,8(sp)
     534:	01010113          	addi	sp,sp,16
     538:	00008067          	ret

0000053c <fic_irq_gpio_7>:
     53c:	ff010113          	addi	sp,sp,-16
     540:	00112623          	sw	ra,12(sp)
     544:	00812423          	sw	s0,8(sp)
     548:	01010413          	addi	s0,sp,16
     54c:	00000013          	nop
     550:	00c12083          	lw	ra,12(sp)
     554:	00812403          	lw	s0,8(sp)
     558:	01010113          	addi	sp,sp,16
     55c:	00008067          	ret

00000560 <spi_get_events>:
     560:	ff010113          	addi	sp,sp,-16
     564:	01452783          	lw	a5,20(a0)
     568:	00f12623          	sw	a5,12(sp)
     56c:	00c12683          	lw	a3,12(sp)
     570:	0196d693          	srli	a3,a3,0x19
     574:	0016f693          	andi	a3,a3,1
     578:	0005a783          	lw	a5,0(a1)
     57c:	00c12703          	lw	a4,12(sp)
     580:	01b75713          	srli	a4,a4,0x1b
     584:	ffc7f793          	andi	a5,a5,-4
     588:	00d7e7b3          	or	a5,a5,a3
     58c:	00c12683          	lw	a3,12(sp)
     590:	0126d693          	srli	a3,a3,0x12
     594:	00277713          	andi	a4,a4,2
     598:	00f76733          	or	a4,a4,a5
     59c:	00c12783          	lw	a5,12(sp)
     5a0:	0177d793          	srli	a5,a5,0x17
     5a4:	0046f693          	andi	a3,a3,4
     5a8:	ff377713          	andi	a4,a4,-13
     5ac:	00d76733          	or	a4,a4,a3
     5b0:	00c12683          	lw	a3,12(sp)
     5b4:	01f6d693          	srli	a3,a3,0x1f
     5b8:	0087f793          	andi	a5,a5,8
     5bc:	00e7e7b3          	or	a5,a5,a4
     5c0:	00c12703          	lw	a4,12(sp)
     5c4:	01975713          	srli	a4,a4,0x19
     5c8:	00469693          	slli	a3,a3,0x4
     5cc:	fcf7f793          	andi	a5,a5,-49
     5d0:	00d7e7b3          	or	a5,a5,a3
     5d4:	02077713          	andi	a4,a4,32
     5d8:	02074713          	xori	a4,a4,32
     5dc:	00f767b3          	or	a5,a4,a5
     5e0:	00f5a023          	sw	a5,0(a1)
     5e4:	00000513          	li	a0,0
     5e8:	01010113          	addi	sp,sp,16
     5ec:	00008067          	ret

000005f0 <_write>:
     5f0:	00100793          	li	a5,1
     5f4:	08f51063          	bne	a0,a5,674 <_write+0x84>
     5f8:	200007b7          	lui	a5,0x20000
     5fc:	01c7a783          	lw	a5,28(a5) # 2000001c <_sp+0x1ffd60bc>
     600:	08078263          	beqz	a5,684 <_write+0x94>
     604:	300807b7          	lui	a5,0x30080
     608:	0007a623          	sw	zero,12(a5) # 3008000c <_sp+0x300560ac>
     60c:	00300713          	li	a4,3
     610:	00e7ae23          	sw	a4,28(a5)
     614:	0207a223          	sw	zero,36(a5)
     618:	0207a623          	sw	zero,44(a5)
     61c:	0007a223          	sw	zero,4(a5)
     620:	fff00713          	li	a4,-1
     624:	00e7a023          	sw	a4,0(a5)
     628:	0a7c0737          	lui	a4,0xa7c0
     62c:	00370713          	addi	a4,a4,3 # a7c0003 <_sp+0xa7960a3>
     630:	00e7a623          	sw	a4,12(a5)
     634:	0007a223          	sw	zero,4(a5)
     638:	02060a63          	beqz	a2,66c <_write+0x7c>
     63c:	00c58833          	add	a6,a1,a2
     640:	00078713          	mv	a4,a5
     644:	0005c683          	lbu	a3,0(a1)
     648:	01072783          	lw	a5,16(a4)
     64c:	0017f793          	andi	a5,a5,1
     650:	fe079ce3          	bnez	a5,648 <_write+0x58>
     654:	00d72c23          	sw	a3,24(a4)
     658:	01072783          	lw	a5,16(a4)
     65c:	0087f793          	andi	a5,a5,8
     660:	fe078ce3          	beqz	a5,658 <_write+0x68>
     664:	00158593          	addi	a1,a1,1
     668:	fd059ee3          	bne	a1,a6,644 <_write+0x54>
     66c:	00060513          	mv	a0,a2
     670:	00008067          	ret
     674:	05800713          	li	a4,88
     678:	94e1aa23          	sw	a4,-1708(gp) # 21d0c <errno>
     67c:	fff00613          	li	a2,-1
     680:	fedff06f          	j	66c <_write+0x7c>
     684:	05800713          	li	a4,88
     688:	94e1aa23          	sw	a4,-1708(gp) # 21d0c <errno>
     68c:	ff1ff06f          	j	67c <_write+0x8c>

00000690 <spi_empty_rx>:
     690:	02452783          	lw	a5,36(a0)
     694:	00078863          	beqz	a5,6a4 <spi_empty_rx+0x14>
     698:	03452783          	lw	a5,52(a0)
     69c:	02852703          	lw	a4,40(a0)
     6a0:	02e7e863          	bltu	a5,a4,6d0 <spi_empty_rx+0x40>
     6a4:	00000513          	li	a0,0
     6a8:	00008067          	ret
     6ac:	0286a703          	lw	a4,40(a3)
     6b0:	02452683          	lw	a3,36(a0)
     6b4:	20d7c7b3          	sh2add	a5,a5,a3
     6b8:	00e7a023          	sw	a4,0(a5)
     6bc:	03452783          	lw	a5,52(a0)
     6c0:	00178793          	addi	a5,a5,1
     6c4:	02f52a23          	sw	a5,52(a0)
     6c8:	02852703          	lw	a4,40(a0)
     6cc:	00e7fe63          	bgeu	a5,a4,6e8 <spi_empty_rx+0x58>
     6d0:	00052683          	lw	a3,0(a0)
     6d4:	00068a63          	beqz	a3,6e8 <spi_empty_rx+0x58>
     6d8:	0146a703          	lw	a4,20(a3)
     6dc:	00875713          	srli	a4,a4,0x8
     6e0:	0ff77713          	zext.b	a4,a4
     6e4:	fc0714e3          	bnez	a4,6ac <spi_empty_rx+0x1c>
     6e8:	00100513          	li	a0,1
     6ec:	00008067          	ret

000006f0 <spi_event_handler>:
     6f0:	ff010113          	addi	sp,sp,-16
     6f4:	00112623          	sw	ra,12(sp)
     6f8:	00912423          	sw	s1,8(sp)
     6fc:	01212223          	sw	s2,4(sp)
     700:	00050493          	mv	s1,a0
     704:	00058913          	mv	s2,a1
     708:	0105f793          	andi	a5,a1,16
     70c:	02078063          	beqz	a5,72c <spi_event_handler+0x3c>
     710:	01452703          	lw	a4,20(a0)
     714:	00070863          	beqz	a4,724 <spi_event_handler+0x34>
     718:	02c52683          	lw	a3,44(a0)
     71c:	01854783          	lbu	a5,24(a0)
     720:	02f6e863          	bltu	a3,a5,750 <spi_event_handler+0x60>
     724:	02097793          	andi	a5,s2,32
     728:	0a079e63          	bnez	a5,7e4 <spi_event_handler+0xf4>
     72c:	00897793          	andi	a5,s2,8
     730:	14079063          	bnez	a5,870 <spi_event_handler+0x180>
     734:	00497913          	andi	s2,s2,4
     738:	1a091663          	bnez	s2,8e4 <spi_event_handler+0x1f4>
     73c:	00c12083          	lw	ra,12(sp)
     740:	00812483          	lw	s1,8(sp)
     744:	00412903          	lw	s2,4(sp)
     748:	01010113          	addi	sp,sp,16
     74c:	00008067          	ret
     750:	20e6c733          	sh2add	a4,a3,a4
     754:	00072703          	lw	a4,0(a4)
     758:	00871613          	slli	a2,a4,0x8
     75c:	00865593          	srli	a1,a2,0x8
     760:	01875713          	srli	a4,a4,0x18
     764:	00f77613          	andi	a2,a4,15
     768:	00168693          	addi	a3,a3,1
     76c:	02d52623          	sw	a3,44(a0)
     770:	00052503          	lw	a0,0(a0)
     774:	fa050ce3          	beqz	a0,72c <spi_event_handler+0x3c>
     778:	00265713          	srli	a4,a2,0x2
     77c:	01971713          	slli	a4,a4,0x19
     780:	00367613          	andi	a2,a2,3
     784:	01b61613          	slli	a2,a2,0x1b
     788:	00c76733          	or	a4,a4,a2
     78c:	40d787b3          	sub	a5,a5,a3
     790:	00f037b3          	snez	a5,a5
     794:	01879793          	slli	a5,a5,0x18
     798:	00f767b3          	or	a5,a4,a5
     79c:	fff58613          	addi	a2,a1,-1
     7a0:	00861613          	slli	a2,a2,0x8
     7a4:	00865613          	srli	a2,a2,0x8
     7a8:	00c7e633          	or	a2,a5,a2
     7ac:	0197d793          	srli	a5,a5,0x19
     7b0:	0037f793          	andi	a5,a5,3
     7b4:	00200713          	li	a4,2
     7b8:	14f76c63          	bltu	a4,a5,910 <spi_event_handler+0x220>
     7bc:	01452703          	lw	a4,20(a0)
     7c0:	f60756e3          	bgez	a4,72c <spi_event_handler+0x3c>
     7c4:	01b65713          	srli	a4,a2,0x1b
     7c8:	ffd70713          	addi	a4,a4,-3
     7cc:	00173713          	seqz	a4,a4
     7d0:	00f037b3          	snez	a5,a5
     7d4:	00f777b3          	and	a5,a4,a5
     7d8:	f4079ae3          	bnez	a5,72c <spi_event_handler+0x3c>
     7dc:	02c52223          	sw	a2,36(a0)
     7e0:	f4dff06f          	j	72c <spi_event_handler+0x3c>
     7e4:	0004a783          	lw	a5,0(s1)
     7e8:	02078263          	beqz	a5,80c <spi_event_handler+0x11c>
     7ec:	0387a703          	lw	a4,56(a5)
     7f0:	fc077713          	andi	a4,a4,-64
     7f4:	02e7ac23          	sw	a4,56(a5)
     7f8:	0004a783          	lw	a5,0(s1)
     7fc:	00078863          	beqz	a5,80c <spi_event_handler+0x11c>
     800:	0047a703          	lw	a4,4(a5)
     804:	ffd77713          	andi	a4,a4,-3
     808:	00e7a223          	sw	a4,4(a5)
     80c:	00048513          	mv	a0,s1
     810:	e81ff0ef          	jal	690 <spi_empty_rx>
     814:	00400793          	li	a5,4
     818:	00f4a823          	sw	a5,16(s1)
     81c:	0384a783          	lw	a5,56(s1)
     820:	00078c63          	beqz	a5,838 <spi_event_handler+0x148>
     824:	0344a683          	lw	a3,52(s1)
     828:	0244a603          	lw	a2,36(s1)
     82c:	0304a583          	lw	a1,48(s1)
     830:	01c4a503          	lw	a0,28(s1)
     834:	000780e7          	jalr	a5
     838:	0204a623          	sw	zero,44(s1)
     83c:	0204a823          	sw	zero,48(s1)
     840:	0204aa23          	sw	zero,52(s1)
     844:	0004aa23          	sw	zero,20(s1)
     848:	0004ac23          	sw	zero,24(s1)
     84c:	0004ae23          	sw	zero,28(s1)
     850:	0204a023          	sw	zero,32(s1)
     854:	0204a223          	sw	zero,36(s1)
     858:	0204a423          	sw	zero,40(s1)
     85c:	0204ac23          	sw	zero,56(s1)
     860:	0204ae23          	sw	zero,60(s1)
     864:	0404a023          	sw	zero,64(s1)
     868:	0404a223          	sw	zero,68(s1)
     86c:	ed1ff06f          	j	73c <spi_event_handler+0x4c>
     870:	01c4a783          	lw	a5,28(s1)
     874:	ec0780e3          	beqz	a5,734 <spi_event_handler+0x44>
     878:	0304a783          	lw	a5,48(s1)
     87c:	0204a703          	lw	a4,32(s1)
     880:	eae7fae3          	bgeu	a5,a4,734 <spi_event_handler+0x44>
     884:	04700613          	li	a2,71
     888:	0280006f          	j	8b0 <spi_event_handler+0x1c0>
     88c:	01c4a683          	lw	a3,28(s1)
     890:	20d7c7b3          	sh2add	a5,a5,a3
     894:	0007a783          	lw	a5,0(a5)
     898:	02f72623          	sw	a5,44(a4)
     89c:	0304a783          	lw	a5,48(s1)
     8a0:	00178793          	addi	a5,a5,1
     8a4:	02f4a823          	sw	a5,48(s1)
     8a8:	0204a703          	lw	a4,32(s1)
     8ac:	00e7fc63          	bgeu	a5,a4,8c4 <spi_event_handler+0x1d4>
     8b0:	0004a703          	lw	a4,0(s1)
     8b4:	00070863          	beqz	a4,8c4 <spi_event_handler+0x1d4>
     8b8:	01472683          	lw	a3,20(a4)
     8bc:	0ff6f693          	zext.b	a3,a3
     8c0:	fcd676e3          	bgeu	a2,a3,88c <spi_event_handler+0x19c>
     8c4:	03c4a783          	lw	a5,60(s1)
     8c8:	e60786e3          	beqz	a5,734 <spi_event_handler+0x44>
     8cc:	0344a683          	lw	a3,52(s1)
     8d0:	0244a603          	lw	a2,36(s1)
     8d4:	0304a583          	lw	a1,48(s1)
     8d8:	01c4a503          	lw	a0,28(s1)
     8dc:	000780e7          	jalr	a5
     8e0:	e55ff06f          	j	734 <spi_event_handler+0x44>
     8e4:	00048513          	mv	a0,s1
     8e8:	da9ff0ef          	jal	690 <spi_empty_rx>
     8ec:	e40508e3          	beqz	a0,73c <spi_event_handler+0x4c>
     8f0:	0404a783          	lw	a5,64(s1)
     8f4:	e40784e3          	beqz	a5,73c <spi_event_handler+0x4c>
     8f8:	0344a683          	lw	a3,52(s1)
     8fc:	0244a603          	lw	a2,36(s1)
     900:	0304a583          	lw	a1,48(s1)
     904:	01c4a503          	lw	a0,28(s1)
     908:	000780e7          	jalr	a5
     90c:	e31ff06f          	j	73c <spi_event_handler+0x4c>
     910:	01452783          	lw	a5,20(a0)
     914:	e19ff06f          	j	72c <spi_event_handler+0x3c>

00000918 <spi_error_handler>:
     918:	fe010113          	addi	sp,sp,-32
     91c:	00112e23          	sw	ra,28(sp)
     920:	00912c23          	sw	s1,24(sp)
     924:	00050493          	mv	s1,a0
     928:	00052783          	lw	a5,0(a0)
     92c:	02078263          	beqz	a5,950 <spi_error_handler+0x38>
     930:	0387a703          	lw	a4,56(a5)
     934:	fc077713          	andi	a4,a4,-64
     938:	02e7ac23          	sw	a4,56(a5)
     93c:	00052783          	lw	a5,0(a0)
     940:	00078863          	beqz	a5,950 <spi_error_handler+0x38>
     944:	0047a703          	lw	a4,4(a5)
     948:	ffd77713          	andi	a4,a4,-3
     94c:	00e7a223          	sw	a4,4(a5)
     950:	0444a783          	lw	a5,68(s1)
     954:	00078c63          	beqz	a5,96c <spi_error_handler+0x54>
     958:	0344a683          	lw	a3,52(s1)
     95c:	0244a603          	lw	a2,36(s1)
     960:	0304a583          	lw	a1,48(s1)
     964:	01c4a503          	lw	a0,28(s1)
     968:	000780e7          	jalr	a5
     96c:	0204a623          	sw	zero,44(s1)
     970:	0204a823          	sw	zero,48(s1)
     974:	0204aa23          	sw	zero,52(s1)
     978:	0004aa23          	sw	zero,20(s1)
     97c:	0004ac23          	sw	zero,24(s1)
     980:	0004ae23          	sw	zero,28(s1)
     984:	0204a023          	sw	zero,32(s1)
     988:	0204a223          	sw	zero,36(s1)
     98c:	0204a423          	sw	zero,40(s1)
     990:	0204ac23          	sw	zero,56(s1)
     994:	0204ae23          	sw	zero,60(s1)
     998:	0404a023          	sw	zero,64(s1)
     99c:	0404a223          	sw	zero,68(s1)
     9a0:	0004a683          	lw	a3,0(s1)
     9a4:	10068463          	beqz	a3,aac <spi_error_handler+0x194>
     9a8:	0106a783          	lw	a5,16(a3)
     9ac:	40000737          	lui	a4,0x40000
     9b0:	00e7e7b3          	or	a5,a5,a4
     9b4:	00f6a823          	sw	a5,16(a3)
     9b8:	0146a783          	lw	a5,20(a3)
     9bc:	00f12623          	sw	a5,12(sp)
     9c0:	00c12783          	lw	a5,12(sp)
     9c4:	00179713          	slli	a4,a5,0x1
     9c8:	fe074ce3          	bltz	a4,9c0 <spi_error_handler+0xa8>
     9cc:	00c14783          	lbu	a5,12(sp)
     9d0:	fe0798e3          	bnez	a5,9c0 <spi_error_handler+0xa8>
     9d4:	00d14783          	lbu	a5,13(sp)
     9d8:	fe0794e3          	bnez	a5,9c0 <spi_error_handler+0xa8>
     9dc:	0106a783          	lw	a5,16(a3)
     9e0:	c0000737          	lui	a4,0xc0000
     9e4:	fff70713          	addi	a4,a4,-1 # bfffffff <_sp+0xbffd609f>
     9e8:	00e7f7b3          	and	a5,a5,a4
     9ec:	00f6a823          	sw	a5,16(a3)
     9f0:	0004a783          	lw	a5,0(s1)
     9f4:	0a078c63          	beqz	a5,aac <spi_error_handler+0x194>
     9f8:	0107a703          	lw	a4,16(a5)
     9fc:	800006b7          	lui	a3,0x80000
     a00:	00d76733          	or	a4,a4,a3
     a04:	00e7a823          	sw	a4,16(a5)
     a08:	0004a783          	lw	a5,0(s1)
     a0c:	0a078063          	beqz	a5,aac <spi_error_handler+0x194>
     a10:	0107a703          	lw	a4,16(a5)
     a14:	200006b7          	lui	a3,0x20000
     a18:	00d76733          	or	a4,a4,a3
     a1c:	00e7a823          	sw	a4,16(a5)
     a20:	0004a783          	lw	a5,0(s1)
     a24:	08078463          	beqz	a5,aac <spi_error_handler+0x194>
     a28:	0307a703          	lw	a4,48(a5)
     a2c:	01f76713          	ori	a4,a4,31
     a30:	02e7a823          	sw	a4,48(a5)
     a34:	0004a783          	lw	a5,0(s1)
     a38:	06078a63          	beqz	a5,aac <spi_error_handler+0x194>
     a3c:	0047a703          	lw	a4,4(a5)
     a40:	00176713          	ori	a4,a4,1
     a44:	00e7a223          	sw	a4,4(a5)
     a48:	0004a703          	lw	a4,0(s1)
     a4c:	0044c783          	lbu	a5,4(s1)
     a50:	00173693          	seqz	a3,a4
     a54:	0497b613          	sltiu	a2,a5,73
     a58:	00163613          	seqz	a2,a2
     a5c:	00c6e6b3          	or	a3,a3,a2
     a60:	02069063          	bnez	a3,a80 <spi_error_handler+0x168>
     a64:	01072683          	lw	a3,16(a4)
     a68:	ffff0637          	lui	a2,0xffff0
     a6c:	0ff60613          	addi	a2,a2,255 # ffff00ff <_sp+0xfffc619f>
     a70:	00c6f6b3          	and	a3,a3,a2
     a74:	00879793          	slli	a5,a5,0x8
     a78:	00d7e7b3          	or	a5,a5,a3
     a7c:	00f72823          	sw	a5,16(a4)
     a80:	0004a683          	lw	a3,0(s1)
     a84:	0054c703          	lbu	a4,5(s1)
     a88:	04173793          	sltiu	a5,a4,65
     a8c:	0017b793          	seqz	a5,a5
     a90:	0016b613          	seqz	a2,a3
     a94:	00c7e7b3          	or	a5,a5,a2
     a98:	00079a63          	bnez	a5,aac <spi_error_handler+0x194>
     a9c:	0106a783          	lw	a5,16(a3) # 20000010 <_sp+0x1ffd60b0>
     aa0:	f007f793          	andi	a5,a5,-256
     aa4:	00f76733          	or	a4,a4,a5
     aa8:	00e6a823          	sw	a4,16(a3)
     aac:	0004a423          	sw	zero,8(s1)
     ab0:	00800793          	li	a5,8
     ab4:	00f4a823          	sw	a5,16(s1)
     ab8:	01c12083          	lw	ra,28(sp)
     abc:	01812483          	lw	s1,24(sp)
     ac0:	02010113          	addi	sp,sp,32
     ac4:	00008067          	ret

00000ac8 <_writestr>:
     ac8:	ff010113          	addi	sp,sp,-16
     acc:	00112623          	sw	ra,12(sp)
     ad0:	00912423          	sw	s1,8(sp)
     ad4:	00050493          	mv	s1,a0
     ad8:	251070ef          	jal	8528 <strlen>
     adc:	00150613          	addi	a2,a0,1
     ae0:	00048593          	mv	a1,s1
     ae4:	00100513          	li	a0,1
     ae8:	b09ff0ef          	jal	5f0 <_write>
     aec:	00c12083          	lw	ra,12(sp)
     af0:	00812483          	lw	s1,8(sp)
     af4:	01010113          	addi	sp,sp,16
     af8:	00008067          	ret

00000afc <print_exc_msg>:
     afc:	fe010113          	addi	sp,sp,-32
     b00:	00112e23          	sw	ra,28(sp)
     b04:	00912c23          	sw	s1,24(sp)
     b08:	fc1ff0ef          	jal	ac8 <_writestr>
     b0c:	343024f3          	csrr	s1,mtval
     b10:	00020537          	lui	a0,0x20
     b14:	45450513          	addi	a0,a0,1108 # 20454 <__clz_tab+0x164>
     b18:	fb1ff0ef          	jal	ac8 <_writestr>
     b1c:	0184d793          	srli	a5,s1,0x18
     b20:	00f10423          	sb	a5,8(sp)
     b24:	0104d793          	srli	a5,s1,0x10
     b28:	00f104a3          	sb	a5,9(sp)
     b2c:	0084d793          	srli	a5,s1,0x8
     b30:	00f10523          	sb	a5,10(sp)
     b34:	009105a3          	sb	s1,11(sp)
     b38:	00a00793          	li	a5,10
     b3c:	00f10623          	sb	a5,12(sp)
     b40:	000106a3          	sb	zero,13(sp)
     b44:	00810513          	addi	a0,sp,8
     b48:	f81ff0ef          	jal	ac8 <_writestr>
     b4c:	0000006f          	j	b4c <print_exc_msg+0x50>

00000b50 <inferenceTPG>:
     b50:	ec010113          	addi	sp,sp,-320
     b54:	12112e23          	sw	ra,316(sp)
     b58:	12912c23          	sw	s1,312(sp)
     b5c:	13212a23          	sw	s2,308(sp)
     b60:	13312823          	sw	s3,304(sp)
     b64:	13412623          	sw	s4,300(sp)
     b68:	13512423          	sw	s5,296(sp)
     b6c:	13612223          	sw	s6,292(sp)
     b70:	13712023          	sw	s7,288(sp)
     b74:	11812e23          	sw	s8,284(sp)
     b78:	11912c23          	sw	s9,280(sp)
     b7c:	00050c13          	mv	s8,a0
     b80:	00058a13          	mv	s4,a1
     b84:	00060993          	mv	s3,a2
     b88:	00068493          	mv	s1,a3
     b8c:	00070913          	mv	s2,a4
     b90:	000067b7          	lui	a5,0x6
     b94:	f6878793          	addi	a5,a5,-152 # 5f68 <__heap_size+0x1f68>
     b98:	00078067          	jr	a5
     b9c:	00020737          	lui	a4,0x20
     ba0:	0084a783          	lw	a5,8(s1)
     ba4:	0017a793          	slti	a5,a5,1
     ba8:	93018693          	addi	a3,gp,-1744 # 21ce8 <next.27>
     bac:	20d7c7b3          	sh2add	a5,a5,a3
     bb0:	0007a783          	lw	a5,0(a5)
     bb4:	1fc70713          	addi	a4,a4,508 # 201fc <jump_table.28>
     bb8:	20e7c7b3          	sh2add	a5,a5,a4
     bbc:	0007a783          	lw	a5,0(a5)
     bc0:	fd9ff06f          	j	b98 <inferenceTPG+0x48>
     bc4:	0084a683          	lw	a3,8(s1)
     bc8:	0044a703          	lw	a4,4(s1)
     bcc:	004a2783          	lw	a5,4(s4)
     bd0:	00f70733          	add	a4,a4,a5
     bd4:	0a06e633          	max	a2,a3,zero
     bd8:	00000793          	li	a5,0
     bdc:	00e64663          	blt	a2,a4,be8 <inferenceTPG+0x98>
     be0:	0016a793          	slti	a5,a3,1
     be4:	00178793          	addi	a5,a5,1
     be8:	00020737          	lui	a4,0x20
     bec:	000206b7          	lui	a3,0x20
     bf0:	1f068693          	addi	a3,a3,496 # 201f0 <next.26>
     bf4:	20d7c7b3          	sh2add	a5,a5,a3
     bf8:	0007a783          	lw	a5,0(a5)
     bfc:	1fc70713          	addi	a4,a4,508 # 201fc <jump_table.28>
     c00:	20e7c7b3          	sh2add	a5,a5,a4
     c04:	0007a783          	lw	a5,0(a5)
     c08:	f91ff06f          	j	b98 <inferenceTPG+0x48>
     c0c:	0084a703          	lw	a4,8(s1)
     c10:	0a076633          	max	a2,a4,zero
     c14:	0044a783          	lw	a5,4(s1)
     c18:	00179693          	slli	a3,a5,0x1
     c1c:	40e787b3          	sub	a5,a5,a4
     c20:	00100713          	li	a4,1
     c24:	00c6d663          	bge	a3,a2,c30 <inferenceTPG+0xe0>
     c28:	00060693          	mv	a3,a2
     c2c:	00000713          	li	a4,0
     c30:	02d7da63          	bge	a5,a3,c64 <inferenceTPG+0x114>
     c34:	00068793          	mv	a5,a3
     c38:	00f04463          	bgtz	a5,c40 <inferenceTPG+0xf0>
     c3c:	00300713          	li	a4,3
     c40:	000206b7          	lui	a3,0x20
     c44:	000207b7          	lui	a5,0x20
     c48:	1e078793          	addi	a5,a5,480 # 201e0 <next.25>
     c4c:	20f74733          	sh2add	a4,a4,a5
     c50:	00072783          	lw	a5,0(a4)
     c54:	1fc68713          	addi	a4,a3,508 # 201fc <jump_table.28>
     c58:	20e7c7b3          	sh2add	a5,a5,a4
     c5c:	0007a783          	lw	a5,0(a5)
     c60:	f39ff06f          	j	b98 <inferenceTPG+0x48>
     c64:	00200713          	li	a4,2
     c68:	fd1ff06f          	j	c38 <inferenceTPG+0xe8>
     c6c:	11a12a23          	sw	s10,276(sp)
     c70:	0044ab03          	lw	s6,4(s1)
     c74:	000107b7          	lui	a5,0x10
     c78:	00078d13          	mv	s10,a5
     c7c:	180b0e63          	beqz	s6,e18 <inferenceTPG+0x2c8>
     c80:	41600733          	neg	a4,s6
     c84:	0aeb6733          	max	a4,s6,a4
     c88:	41f75793          	srai	a5,a4,0x1f
     c8c:	000176b7          	lui	a3,0x17
     c90:	15468693          	addi	a3,a3,340 # 17154 <heap.cpp.6b15d6f6+0x9c7>
     c94:	02d787b3          	mul	a5,a5,a3
     c98:	02d70ab3          	mul	s5,a4,a3
     c9c:	02d73733          	mulhu	a4,a4,a3
     ca0:	00e787b3          	add	a5,a5,a4
     ca4:	01079793          	slli	a5,a5,0x10
     ca8:	010ada93          	srli	s5,s5,0x10
     cac:	01578ab3          	add	s5,a5,s5
     cb0:	000087b7          	lui	a5,0x8
     cb4:	00fa8ab3          	add	s5,s5,a5
     cb8:	ffff07b7          	lui	a5,0xffff0
     cbc:	00fafab3          	and	s5,s5,a5
     cc0:	3e0b4e63          	bltz	s6,10bc <inferenceTPG+0x56c>
     cc4:	41fad793          	srai	a5,s5,0x1f
     cc8:	0000b6b7          	lui	a3,0xb
     ccc:	17268693          	addi	a3,a3,370 # b172 <__divdi3+0x52>
     cd0:	02d787b3          	mul	a5,a5,a3
     cd4:	02da8733          	mul	a4,s5,a3
     cd8:	02dab6b3          	mulhu	a3,s5,a3
     cdc:	00d787b3          	add	a5,a5,a3
     ce0:	01079793          	slli	a5,a5,0x10
     ce4:	01075713          	srli	a4,a4,0x10
     ce8:	00e78733          	add	a4,a5,a4
     cec:	40eb0733          	sub	a4,s6,a4
     cf0:	41f75693          	srai	a3,a4,0x1f
     cf4:	02e686b3          	mul	a3,a3,a4
     cf8:	02e707b3          	mul	a5,a4,a4
     cfc:	02e73633          	mulhu	a2,a4,a4
     d00:	20c6a6b3          	sh1add	a3,a3,a2
     d04:	01069693          	slli	a3,a3,0x10
     d08:	0107d793          	srli	a5,a5,0x10
     d0c:	00f687b3          	add	a5,a3,a5
     d10:	41f7d513          	srai	a0,a5,0x1f
     d14:	01e7d693          	srli	a3,a5,0x1e
     d18:	20d546b3          	sh2add	a3,a0,a3
     d1c:	00279613          	slli	a2,a5,0x2
     d20:	01069693          	slli	a3,a3,0x10
     d24:	01065613          	srli	a2,a2,0x10
     d28:	00c68633          	add	a2,a3,a2
     d2c:	f4a60613          	addi	a2,a2,-182
     d30:	41f65593          	srai	a1,a2,0x1f
     d34:	02f585b3          	mul	a1,a1,a5
     d38:	02c506b3          	mul	a3,a0,a2
     d3c:	00d585b3          	add	a1,a1,a3
     d40:	02f606b3          	mul	a3,a2,a5
     d44:	02f63633          	mulhu	a2,a2,a5
     d48:	00c58633          	add	a2,a1,a2
     d4c:	01061613          	slli	a2,a2,0x10
     d50:	0106d693          	srli	a3,a3,0x10
     d54:	00d606b3          	add	a3,a2,a3
     d58:	00003637          	lui	a2,0x3
     d5c:	aab60613          	addi	a2,a2,-1365 # 2aab <inferenceTPG+0x1f5b>
     d60:	00c686b3          	add	a3,a3,a2
     d64:	41f6d613          	srai	a2,a3,0x1f
     d68:	02f60633          	mul	a2,a2,a5
     d6c:	02d50533          	mul	a0,a0,a3
     d70:	00a60633          	add	a2,a2,a0
     d74:	02f685b3          	mul	a1,a3,a5
     d78:	02f6b6b3          	mulhu	a3,a3,a5
     d7c:	00d607b3          	add	a5,a2,a3
     d80:	01079793          	slli	a5,a5,0x10
     d84:	0105d693          	srli	a3,a1,0x10
     d88:	00d786b3          	add	a3,a5,a3
     d8c:	000207b7          	lui	a5,0x20
     d90:	00f686b3          	add	a3,a3,a5
     d94:	40e68633          	sub	a2,a3,a4
     d98:	02e68c63          	beq	a3,a4,dd0 <inferenceTPG+0x280>
     d9c:	00f75693          	srli	a3,a4,0xf
     da0:	01171793          	slli	a5,a4,0x11
     da4:	01069713          	slli	a4,a3,0x10
     da8:	0107d793          	srli	a5,a5,0x10
     dac:	00f707b3          	add	a5,a4,a5
     db0:	41f7d713          	srai	a4,a5,0x1f
     db4:	0107d593          	srli	a1,a5,0x10
     db8:	01071713          	slli	a4,a4,0x10
     dbc:	41f65693          	srai	a3,a2,0x1f
     dc0:	01079513          	slli	a0,a5,0x10
     dc4:	00e585b3          	add	a1,a1,a4
     dc8:	3580a0ef          	jal	b120 <__divdi3>
     dcc:	00050613          	mv	a2,a0
     dd0:	000107b7          	lui	a5,0x10
     dd4:	00f606b3          	add	a3,a2,a5
     dd8:	2e0ac663          	bltz	s5,10c4 <inferenceTPG+0x574>
     ddc:	410ada93          	srai	s5,s5,0x10
     de0:	00010737          	lui	a4,0x10
     de4:	01571733          	sll	a4,a4,s5
     de8:	41f75793          	srai	a5,a4,0x1f
     dec:	41f6d613          	srai	a2,a3,0x1f
     df0:	02d787b3          	mul	a5,a5,a3
     df4:	02e60633          	mul	a2,a2,a4
     df8:	00c787b3          	add	a5,a5,a2
     dfc:	02d70633          	mul	a2,a4,a3
     e00:	02d73733          	mulhu	a4,a4,a3
     e04:	00e787b3          	add	a5,a5,a4
     e08:	01079793          	slli	a5,a5,0x10
     e0c:	01065713          	srli	a4,a2,0x10
     e10:	00e787b3          	add	a5,a5,a4
     e14:	00078d13          	mv	s10,a5
     e18:	000a2783          	lw	a5,0(s4)
     e1c:	00078c93          	mv	s9,a5
     e20:	00492683          	lw	a3,4(s2)
     e24:	00000713          	li	a4,0
     e28:	2406c263          	bltz	a3,106c <inferenceTPG+0x51c>
     e2c:	2a068a63          	beqz	a3,10e0 <inferenceTPG+0x590>
     e30:	000207b7          	lui	a5,0x20
     e34:	2ad7d263          	bge	a5,a3,10d8 <inferenceTPG+0x588>
     e38:	00000a93          	li	s5,0
     e3c:	4016d693          	srai	a3,a3,0x1
     e40:	001a8a93          	addi	s5,s5,1
     e44:	fed7cce3          	blt	a5,a3,e3c <inferenceTPG+0x2ec>
     e48:	ffff07b7          	lui	a5,0xffff0
     e4c:	00f687b3          	add	a5,a3,a5
     e50:	00078b93          	mv	s7,a5
     e54:	41f7d793          	srai	a5,a5,0x1f
     e58:	010bd593          	srli	a1,s7,0x10
     e5c:	01079793          	slli	a5,a5,0x10
     e60:	00010737          	lui	a4,0x10
     e64:	00e68633          	add	a2,a3,a4
     e68:	41f65693          	srai	a3,a2,0x1f
     e6c:	010b9513          	slli	a0,s7,0x10
     e70:	00f585b3          	add	a1,a1,a5
     e74:	2ac0a0ef          	jal	b120 <__divdi3>
     e78:	41f55593          	srai	a1,a0,0x1f
     e7c:	02a587b3          	mul	a5,a1,a0
     e80:	02a50733          	mul	a4,a0,a0
     e84:	02a536b3          	mulhu	a3,a0,a0
     e88:	20d7a7b3          	sh1add	a5,a5,a3
     e8c:	01079793          	slli	a5,a5,0x10
     e90:	01075713          	srli	a4,a4,0x10
     e94:	00e78733          	add	a4,a5,a4
     e98:	41f75313          	srai	t1,a4,0x1f
     e9c:	02e306b3          	mul	a3,t1,a4
     ea0:	02e707b3          	mul	a5,a4,a4
     ea4:	02e73633          	mulhu	a2,a4,a4
     ea8:	20c6a6b3          	sh1add	a3,a3,a2
     eac:	01069693          	slli	a3,a3,0x10
     eb0:	0107d793          	srli	a5,a5,0x10
     eb4:	00f687b3          	add	a5,a3,a5
     eb8:	41f7d813          	srai	a6,a5,0x1f
     ebc:	010a9a93          	slli	s5,s5,0x10
     ec0:	41fad613          	srai	a2,s5,0x1f
     ec4:	0000b8b7          	lui	a7,0xb
     ec8:	17288893          	addi	a7,a7,370 # b172 <__divdi3+0x52>
     ecc:	03160633          	mul	a2,a2,a7
     ed0:	031a86b3          	mul	a3,s5,a7
     ed4:	031abab3          	mulhu	s5,s5,a7
     ed8:	01560633          	add	a2,a2,s5
     edc:	01061613          	slli	a2,a2,0x10
     ee0:	0106d693          	srli	a3,a3,0x10
     ee4:	00d606b3          	add	a3,a2,a3
     ee8:	00db86b3          	add	a3,s7,a3
     eec:	000028b7          	lui	a7,0x2
     ef0:	5e288893          	addi	a7,a7,1506 # 25e2 <inferenceTPG+0x1a92>
     ef4:	03180e33          	mul	t3,a6,a7
     ef8:	03178633          	mul	a2,a5,a7
     efc:	0317b8b3          	mulhu	a7,a5,a7
     f00:	011e08b3          	add	a7,t3,a7
     f04:	01089893          	slli	a7,a7,0x10
     f08:	01065613          	srli	a2,a2,0x10
     f0c:	00c88633          	add	a2,a7,a2
     f10:	000038b7          	lui	a7,0x3
     f14:	e8d88893          	addi	a7,a7,-371 # 2e8d <inferenceTPG+0x233d>
     f18:	01160633          	add	a2,a2,a7
     f1c:	41f65e13          	srai	t3,a2,0x1f
     f20:	02fe0e33          	mul	t3,t3,a5
     f24:	02c808b3          	mul	a7,a6,a2
     f28:	011e0e33          	add	t3,t3,a7
     f2c:	02f608b3          	mul	a7,a2,a5
     f30:	02f63633          	mulhu	a2,a2,a5
     f34:	00ce0633          	add	a2,t3,a2
     f38:	01061613          	slli	a2,a2,0x10
     f3c:	0108d893          	srli	a7,a7,0x10
     f40:	011608b3          	add	a7,a2,a7
     f44:	00005637          	lui	a2,0x5
     f48:	92560613          	addi	a2,a2,-1755 # 4925 <__heap_size+0x925>
     f4c:	00c888b3          	add	a7,a7,a2
     f50:	41f8de13          	srai	t3,a7,0x1f
     f54:	02fe0e33          	mul	t3,t3,a5
     f58:	03180633          	mul	a2,a6,a7
     f5c:	00ce0e33          	add	t3,t3,a2
     f60:	02f88633          	mul	a2,a7,a5
     f64:	02f8b8b3          	mulhu	a7,a7,a5
     f68:	011e08b3          	add	a7,t3,a7
     f6c:	01089893          	slli	a7,a7,0x10
     f70:	01065613          	srli	a2,a2,0x10
     f74:	00c88633          	add	a2,a7,a2
     f78:	0000b8b7          	lui	a7,0xb
     f7c:	aab88893          	addi	a7,a7,-1365 # aaab <__subdf3+0x17b>
     f80:	01160633          	add	a2,a2,a7
     f84:	41f65893          	srai	a7,a2,0x1f
     f88:	02e888b3          	mul	a7,a7,a4
     f8c:	02c30333          	mul	t1,t1,a2
     f90:	00688333          	add	t1,a7,t1
     f94:	02e608b3          	mul	a7,a2,a4
     f98:	02e63633          	mulhu	a2,a2,a4
     f9c:	00c30733          	add	a4,t1,a2
     fa0:	01071713          	slli	a4,a4,0x10
     fa4:	0108d893          	srli	a7,a7,0x10
     fa8:	011708b3          	add	a7,a4,a7
     fac:	00002737          	lui	a4,0x2
     fb0:	73470713          	addi	a4,a4,1844 # 2734 <inferenceTPG+0x1be4>
     fb4:	02e80333          	mul	t1,a6,a4
     fb8:	02e78633          	mul	a2,a5,a4
     fbc:	02e7b733          	mulhu	a4,a5,a4
     fc0:	00e30733          	add	a4,t1,a4
     fc4:	01071713          	slli	a4,a4,0x10
     fc8:	01065613          	srli	a2,a2,0x10
     fcc:	00c70633          	add	a2,a4,a2
     fd0:	00004737          	lui	a4,0x4
     fd4:	8e470713          	addi	a4,a4,-1820 # 38e4 <inferenceTPG+0x2d94>
     fd8:	00e60633          	add	a2,a2,a4
     fdc:	41f65313          	srai	t1,a2,0x1f
     fe0:	02f30333          	mul	t1,t1,a5
     fe4:	02c80733          	mul	a4,a6,a2
     fe8:	00e30333          	add	t1,t1,a4
     fec:	02f60733          	mul	a4,a2,a5
     ff0:	02f63633          	mulhu	a2,a2,a5
     ff4:	00c30633          	add	a2,t1,a2
     ff8:	01061613          	slli	a2,a2,0x10
     ffc:	01075713          	srli	a4,a4,0x10
    1000:	00e60733          	add	a4,a2,a4
    1004:	00006637          	lui	a2,0x6
    1008:	66660613          	addi	a2,a2,1638 # 6666 <__heap_size+0x2666>
    100c:	00c70733          	add	a4,a4,a2
    1010:	41f75613          	srai	a2,a4,0x1f
    1014:	02f60633          	mul	a2,a2,a5
    1018:	02e80833          	mul	a6,a6,a4
    101c:	01060633          	add	a2,a2,a6
    1020:	02f70833          	mul	a6,a4,a5
    1024:	02f73733          	mulhu	a4,a4,a5
    1028:	00e607b3          	add	a5,a2,a4
    102c:	01079793          	slli	a5,a5,0x10
    1030:	01085713          	srli	a4,a6,0x10
    1034:	00e78733          	add	a4,a5,a4
    1038:	00e888b3          	add	a7,a7,a4
    103c:	411b87b3          	sub	a5,s7,a7
    1040:	41f7d713          	srai	a4,a5,0x1f
    1044:	02a70733          	mul	a4,a4,a0
    1048:	02f585b3          	mul	a1,a1,a5
    104c:	00b70733          	add	a4,a4,a1
    1050:	02a78633          	mul	a2,a5,a0
    1054:	02a7b7b3          	mulhu	a5,a5,a0
    1058:	00f707b3          	add	a5,a4,a5
    105c:	01079793          	slli	a5,a5,0x10
    1060:	01065713          	srli	a4,a2,0x10
    1064:	00e78733          	add	a4,a5,a4
    1068:	40e68733          	sub	a4,a3,a4
    106c:	0084a783          	lw	a5,8(s1)
    1070:	0afb67b3          	max	a5,s6,a5
    1074:	00100693          	li	a3,1
    1078:	01acd663          	bge	s9,s10,1084 <inferenceTPG+0x534>
    107c:	000d0c93          	mv	s9,s10
    1080:	00000693          	li	a3,0
    1084:	07975263          	bge	a4,s9,10e8 <inferenceTPG+0x598>
    1088:	000c8713          	mv	a4,s9
    108c:	00e7c463          	blt	a5,a4,1094 <inferenceTPG+0x544>
    1090:	00300693          	li	a3,3
    1094:	00020737          	lui	a4,0x20
    1098:	000207b7          	lui	a5,0x20
    109c:	1d078793          	addi	a5,a5,464 # 201d0 <next.24>
    10a0:	20f6c6b3          	sh2add	a3,a3,a5
    10a4:	0006a783          	lw	a5,0(a3)
    10a8:	1fc70713          	addi	a4,a4,508 # 201fc <jump_table.28>
    10ac:	20e7c7b3          	sh2add	a5,a5,a4
    10b0:	0007a783          	lw	a5,0(a5)
    10b4:	11412d03          	lw	s10,276(sp)
    10b8:	ae1ff06f          	j	b98 <inferenceTPG+0x48>
    10bc:	41500ab3          	neg	s5,s5
    10c0:	c05ff06f          	j	cc4 <inferenceTPG+0x174>
    10c4:	415007b3          	neg	a5,s5
    10c8:	4107d793          	srai	a5,a5,0x10
    10cc:	00010737          	lui	a4,0x10
    10d0:	40f75733          	sra	a4,a4,a5
    10d4:	d15ff06f          	j	de8 <inferenceTPG+0x298>
    10d8:	00000a93          	li	s5,0
    10dc:	d6dff06f          	j	e48 <inferenceTPG+0x2f8>
    10e0:	fff00713          	li	a4,-1
    10e4:	f89ff06f          	j	106c <inferenceTPG+0x51c>
    10e8:	00200693          	li	a3,2
    10ec:	fa1ff06f          	j	108c <inferenceTPG+0x53c>
    10f0:	00492b03          	lw	s6,4(s2)
    10f4:	000107b7          	lui	a5,0x10
    10f8:	00078b93          	mv	s7,a5
    10fc:	180b0e63          	beqz	s6,1298 <inferenceTPG+0x748>
    1100:	41600733          	neg	a4,s6
    1104:	0aeb6733          	max	a4,s6,a4
    1108:	41f75793          	srai	a5,a4,0x1f
    110c:	000176b7          	lui	a3,0x17
    1110:	15468693          	addi	a3,a3,340 # 17154 <heap.cpp.6b15d6f6+0x9c7>
    1114:	02d787b3          	mul	a5,a5,a3
    1118:	02d70ab3          	mul	s5,a4,a3
    111c:	02d73733          	mulhu	a4,a4,a3
    1120:	00e787b3          	add	a5,a5,a4
    1124:	01079793          	slli	a5,a5,0x10
    1128:	010ada93          	srli	s5,s5,0x10
    112c:	01578ab3          	add	s5,a5,s5
    1130:	000087b7          	lui	a5,0x8
    1134:	00fa8ab3          	add	s5,s5,a5
    1138:	ffff07b7          	lui	a5,0xffff0
    113c:	00fafab3          	and	s5,s5,a5
    1140:	360b4a63          	bltz	s6,14b4 <inferenceTPG+0x964>
    1144:	41fad793          	srai	a5,s5,0x1f
    1148:	0000b6b7          	lui	a3,0xb
    114c:	17268693          	addi	a3,a3,370 # b172 <__divdi3+0x52>
    1150:	02d787b3          	mul	a5,a5,a3
    1154:	02da8733          	mul	a4,s5,a3
    1158:	02dab6b3          	mulhu	a3,s5,a3
    115c:	00d787b3          	add	a5,a5,a3
    1160:	01079793          	slli	a5,a5,0x10
    1164:	01075713          	srli	a4,a4,0x10
    1168:	00e78733          	add	a4,a5,a4
    116c:	40eb0733          	sub	a4,s6,a4
    1170:	41f75693          	srai	a3,a4,0x1f
    1174:	02e686b3          	mul	a3,a3,a4
    1178:	02e707b3          	mul	a5,a4,a4
    117c:	02e73633          	mulhu	a2,a4,a4
    1180:	20c6a6b3          	sh1add	a3,a3,a2
    1184:	01069693          	slli	a3,a3,0x10
    1188:	0107d793          	srli	a5,a5,0x10
    118c:	00f687b3          	add	a5,a3,a5
    1190:	41f7d513          	srai	a0,a5,0x1f
    1194:	01e7d693          	srli	a3,a5,0x1e
    1198:	20d546b3          	sh2add	a3,a0,a3
    119c:	00279613          	slli	a2,a5,0x2
    11a0:	01069693          	slli	a3,a3,0x10
    11a4:	01065613          	srli	a2,a2,0x10
    11a8:	00c68633          	add	a2,a3,a2
    11ac:	f4a60613          	addi	a2,a2,-182
    11b0:	41f65593          	srai	a1,a2,0x1f
    11b4:	02f585b3          	mul	a1,a1,a5
    11b8:	02c506b3          	mul	a3,a0,a2
    11bc:	00d585b3          	add	a1,a1,a3
    11c0:	02f606b3          	mul	a3,a2,a5
    11c4:	02f63633          	mulhu	a2,a2,a5
    11c8:	00c58633          	add	a2,a1,a2
    11cc:	01061613          	slli	a2,a2,0x10
    11d0:	0106d693          	srli	a3,a3,0x10
    11d4:	00d606b3          	add	a3,a2,a3
    11d8:	00003637          	lui	a2,0x3
    11dc:	aab60613          	addi	a2,a2,-1365 # 2aab <inferenceTPG+0x1f5b>
    11e0:	00c686b3          	add	a3,a3,a2
    11e4:	41f6d613          	srai	a2,a3,0x1f
    11e8:	02f60633          	mul	a2,a2,a5
    11ec:	02d50533          	mul	a0,a0,a3
    11f0:	00a60633          	add	a2,a2,a0
    11f4:	02f685b3          	mul	a1,a3,a5
    11f8:	02f6b6b3          	mulhu	a3,a3,a5
    11fc:	00d607b3          	add	a5,a2,a3
    1200:	01079793          	slli	a5,a5,0x10
    1204:	0105d693          	srli	a3,a1,0x10
    1208:	00d786b3          	add	a3,a5,a3
    120c:	000207b7          	lui	a5,0x20
    1210:	00f686b3          	add	a3,a3,a5
    1214:	40e68633          	sub	a2,a3,a4
    1218:	02e68c63          	beq	a3,a4,1250 <inferenceTPG+0x700>
    121c:	00f75693          	srli	a3,a4,0xf
    1220:	01171793          	slli	a5,a4,0x11
    1224:	01069713          	slli	a4,a3,0x10
    1228:	0107d793          	srli	a5,a5,0x10
    122c:	00f707b3          	add	a5,a4,a5
    1230:	41f7d713          	srai	a4,a5,0x1f
    1234:	0107d593          	srli	a1,a5,0x10
    1238:	01071713          	slli	a4,a4,0x10
    123c:	41f65693          	srai	a3,a2,0x1f
    1240:	01079513          	slli	a0,a5,0x10
    1244:	00e585b3          	add	a1,a1,a4
    1248:	6d9090ef          	jal	b120 <__divdi3>
    124c:	00050613          	mv	a2,a0
    1250:	000107b7          	lui	a5,0x10
    1254:	00f606b3          	add	a3,a2,a5
    1258:	260ac263          	bltz	s5,14bc <inferenceTPG+0x96c>
    125c:	410ada93          	srai	s5,s5,0x10
    1260:	000107b7          	lui	a5,0x10
    1264:	015797b3          	sll	a5,a5,s5
    1268:	41f7da93          	srai	s5,a5,0x1f
    126c:	41f6d713          	srai	a4,a3,0x1f
    1270:	02da8ab3          	mul	s5,s5,a3
    1274:	02f70733          	mul	a4,a4,a5
    1278:	00ea8ab3          	add	s5,s5,a4
    127c:	02d78733          	mul	a4,a5,a3
    1280:	02d7b7b3          	mulhu	a5,a5,a3
    1284:	00fa8ab3          	add	s5,s5,a5
    1288:	010a9a93          	slli	s5,s5,0x10
    128c:	01075793          	srli	a5,a4,0x10
    1290:	00fa87b3          	add	a5,s5,a5
    1294:	00078b93          	mv	s7,a5
    1298:	01092a83          	lw	s5,16(s2)
    129c:	020a8463          	beqz	s5,12c4 <inferenceTPG+0x774>
    12a0:	41fb5793          	srai	a5,s6,0x1f
    12a4:	010b5593          	srli	a1,s6,0x10
    12a8:	01079793          	slli	a5,a5,0x10
    12ac:	000a8613          	mv	a2,s5
    12b0:	41fad693          	srai	a3,s5,0x1f
    12b4:	010b1513          	slli	a0,s6,0x10
    12b8:	00f585b3          	add	a1,a1,a5
    12bc:	665090ef          	jal	b120 <__divdi3>
    12c0:	00050a93          	mv	s5,a0
    12c4:	0044a603          	lw	a2,4(s1)
    12c8:	000107b7          	lui	a5,0x10
    12cc:	18060c63          	beqz	a2,1464 <inferenceTPG+0x914>
    12d0:	40c006b3          	neg	a3,a2
    12d4:	0ad666b3          	max	a3,a2,a3
    12d8:	41f6d713          	srai	a4,a3,0x1f
    12dc:	000177b7          	lui	a5,0x17
    12e0:	15478793          	addi	a5,a5,340 # 17154 <heap.cpp.6b15d6f6+0x9c7>
    12e4:	02f70733          	mul	a4,a4,a5
    12e8:	02f68b33          	mul	s6,a3,a5
    12ec:	02f6b6b3          	mulhu	a3,a3,a5
    12f0:	00d70733          	add	a4,a4,a3
    12f4:	01071713          	slli	a4,a4,0x10
    12f8:	010b5b13          	srli	s6,s6,0x10
    12fc:	01670b33          	add	s6,a4,s6
    1300:	000087b7          	lui	a5,0x8
    1304:	00fb0b33          	add	s6,s6,a5
    1308:	ffff07b7          	lui	a5,0xffff0
    130c:	00fb7b33          	and	s6,s6,a5
    1310:	1a064e63          	bltz	a2,14cc <inferenceTPG+0x97c>
    1314:	41fb5713          	srai	a4,s6,0x1f
    1318:	0000b6b7          	lui	a3,0xb
    131c:	17268693          	addi	a3,a3,370 # b172 <__divdi3+0x52>
    1320:	02d70733          	mul	a4,a4,a3
    1324:	02db07b3          	mul	a5,s6,a3
    1328:	02db36b3          	mulhu	a3,s6,a3
    132c:	00d70733          	add	a4,a4,a3
    1330:	01071713          	slli	a4,a4,0x10
    1334:	0107d793          	srli	a5,a5,0x10
    1338:	00f707b3          	add	a5,a4,a5
    133c:	40f607b3          	sub	a5,a2,a5
    1340:	41f7d693          	srai	a3,a5,0x1f
    1344:	02f686b3          	mul	a3,a3,a5
    1348:	02f78733          	mul	a4,a5,a5
    134c:	02f7b633          	mulhu	a2,a5,a5
    1350:	20c6a6b3          	sh1add	a3,a3,a2
    1354:	01069693          	slli	a3,a3,0x10
    1358:	01075713          	srli	a4,a4,0x10
    135c:	00e68733          	add	a4,a3,a4
    1360:	41f75513          	srai	a0,a4,0x1f
    1364:	01e75693          	srli	a3,a4,0x1e
    1368:	20d546b3          	sh2add	a3,a0,a3
    136c:	00271613          	slli	a2,a4,0x2
    1370:	01069693          	slli	a3,a3,0x10
    1374:	01065613          	srli	a2,a2,0x10
    1378:	00c68633          	add	a2,a3,a2
    137c:	f4a60613          	addi	a2,a2,-182
    1380:	41f65593          	srai	a1,a2,0x1f
    1384:	02e585b3          	mul	a1,a1,a4
    1388:	02c506b3          	mul	a3,a0,a2
    138c:	00d585b3          	add	a1,a1,a3
    1390:	02e606b3          	mul	a3,a2,a4
    1394:	02e63633          	mulhu	a2,a2,a4
    1398:	00c58633          	add	a2,a1,a2
    139c:	01061613          	slli	a2,a2,0x10
    13a0:	0106d693          	srli	a3,a3,0x10
    13a4:	00d606b3          	add	a3,a2,a3
    13a8:	00003637          	lui	a2,0x3
    13ac:	aab60613          	addi	a2,a2,-1365 # 2aab <inferenceTPG+0x1f5b>
    13b0:	00c686b3          	add	a3,a3,a2
    13b4:	41f6d613          	srai	a2,a3,0x1f
    13b8:	02e60633          	mul	a2,a2,a4
    13bc:	02d50533          	mul	a0,a0,a3
    13c0:	00a60633          	add	a2,a2,a0
    13c4:	02e685b3          	mul	a1,a3,a4
    13c8:	02e6b6b3          	mulhu	a3,a3,a4
    13cc:	00d60733          	add	a4,a2,a3
    13d0:	01071713          	slli	a4,a4,0x10
    13d4:	0105d693          	srli	a3,a1,0x10
    13d8:	00d706b3          	add	a3,a4,a3
    13dc:	00020737          	lui	a4,0x20
    13e0:	00e686b3          	add	a3,a3,a4
    13e4:	40f68633          	sub	a2,a3,a5
    13e8:	02f68c63          	beq	a3,a5,1420 <inferenceTPG+0x8d0>
    13ec:	00f7d713          	srli	a4,a5,0xf
    13f0:	01179793          	slli	a5,a5,0x11
    13f4:	01071713          	slli	a4,a4,0x10
    13f8:	0107d793          	srli	a5,a5,0x10
    13fc:	00f707b3          	add	a5,a4,a5
    1400:	41f7d713          	srai	a4,a5,0x1f
    1404:	0107d593          	srli	a1,a5,0x10
    1408:	01071713          	slli	a4,a4,0x10
    140c:	41f65693          	srai	a3,a2,0x1f
    1410:	01079513          	slli	a0,a5,0x10
    1414:	00e585b3          	add	a1,a1,a4
    1418:	509090ef          	jal	b120 <__divdi3>
    141c:	00050613          	mv	a2,a0
    1420:	000107b7          	lui	a5,0x10
    1424:	00f606b3          	add	a3,a2,a5
    1428:	0a0b4663          	bltz	s6,14d4 <inferenceTPG+0x984>
    142c:	410b5b13          	srai	s6,s6,0x10
    1430:	00010737          	lui	a4,0x10
    1434:	01671733          	sll	a4,a4,s6
    1438:	41f75793          	srai	a5,a4,0x1f
    143c:	41f6d613          	srai	a2,a3,0x1f
    1440:	02d787b3          	mul	a5,a5,a3
    1444:	02e60633          	mul	a2,a2,a4
    1448:	00c787b3          	add	a5,a5,a2
    144c:	02d70633          	mul	a2,a4,a3
    1450:	02d73733          	mulhu	a4,a4,a3
    1454:	00e787b3          	add	a5,a5,a4
    1458:	01079793          	slli	a5,a5,0x10
    145c:	01065713          	srli	a4,a2,0x10
    1460:	00e787b3          	add	a5,a5,a4
    1464:	0084a683          	lw	a3,8(s1)
    1468:	0009a703          	lw	a4,0(s3)
    146c:	0ae6e6b3          	max	a3,a3,a4
    1470:	00100713          	li	a4,1
    1474:	017ad663          	bge	s5,s7,1480 <inferenceTPG+0x930>
    1478:	000b8a93          	mv	s5,s7
    147c:	00000713          	li	a4,0
    1480:	0757d463          	bge	a5,s5,14e8 <inferenceTPG+0x998>
    1484:	000a8793          	mv	a5,s5
    1488:	00f6c463          	blt	a3,a5,1490 <inferenceTPG+0x940>
    148c:	00300713          	li	a4,3
    1490:	000206b7          	lui	a3,0x20
    1494:	000207b7          	lui	a5,0x20
    1498:	1c078793          	addi	a5,a5,448 # 201c0 <next.23>
    149c:	20f74733          	sh2add	a4,a4,a5
    14a0:	00072783          	lw	a5,0(a4) # 10000 <fast_intr_ctrl.c.233e5230+0x27b>
    14a4:	1fc68713          	addi	a4,a3,508 # 201fc <jump_table.28>
    14a8:	20e7c7b3          	sh2add	a5,a5,a4
    14ac:	0007a783          	lw	a5,0(a5)
    14b0:	ee8ff06f          	j	b98 <inferenceTPG+0x48>
    14b4:	41500ab3          	neg	s5,s5
    14b8:	c8dff06f          	j	1144 <inferenceTPG+0x5f4>
    14bc:	41500733          	neg	a4,s5
    14c0:	41075713          	srai	a4,a4,0x10
    14c4:	40e7d7b3          	sra	a5,a5,a4
    14c8:	da1ff06f          	j	1268 <inferenceTPG+0x718>
    14cc:	41600b33          	neg	s6,s6
    14d0:	e45ff06f          	j	1314 <inferenceTPG+0x7c4>
    14d4:	416007b3          	neg	a5,s6
    14d8:	4107d793          	srai	a5,a5,0x10
    14dc:	00010737          	lui	a4,0x10
    14e0:	40f75733          	sra	a4,a4,a5
    14e4:	f55ff06f          	j	1438 <inferenceTPG+0x8e8>
    14e8:	00200713          	li	a4,2
    14ec:	f9dff06f          	j	1488 <inferenceTPG+0x938>
    14f0:	00492783          	lw	a5,4(s2)
    14f4:	00010ab7          	lui	s5,0x10
    14f8:	18078c63          	beqz	a5,1690 <inferenceTPG+0xb40>
    14fc:	40f006b3          	neg	a3,a5
    1500:	0ad7e6b3          	max	a3,a5,a3
    1504:	41f6d713          	srai	a4,a3,0x1f
    1508:	00017637          	lui	a2,0x17
    150c:	15460613          	addi	a2,a2,340 # 17154 <heap.cpp.6b15d6f6+0x9c7>
    1510:	02c70733          	mul	a4,a4,a2
    1514:	02c68ab3          	mul	s5,a3,a2
    1518:	02c6b6b3          	mulhu	a3,a3,a2
    151c:	00d70733          	add	a4,a4,a3
    1520:	01071713          	slli	a4,a4,0x10
    1524:	010ada93          	srli	s5,s5,0x10
    1528:	01570ab3          	add	s5,a4,s5
    152c:	00008737          	lui	a4,0x8
    1530:	00ea8ab3          	add	s5,s5,a4
    1534:	ffff0737          	lui	a4,0xffff0
    1538:	00eafab3          	and	s5,s5,a4
    153c:	4007cc63          	bltz	a5,1954 <inferenceTPG+0xe04>
    1540:	41fad713          	srai	a4,s5,0x1f
    1544:	0000b6b7          	lui	a3,0xb
    1548:	17268693          	addi	a3,a3,370 # b172 <__divdi3+0x52>
    154c:	02d70733          	mul	a4,a4,a3
    1550:	02da8633          	mul	a2,s5,a3
    1554:	02dab6b3          	mulhu	a3,s5,a3
    1558:	00d70733          	add	a4,a4,a3
    155c:	01071713          	slli	a4,a4,0x10
    1560:	01065693          	srli	a3,a2,0x10
    1564:	00d706b3          	add	a3,a4,a3
    1568:	40d787b3          	sub	a5,a5,a3
    156c:	41f7d693          	srai	a3,a5,0x1f
    1570:	02f686b3          	mul	a3,a3,a5
    1574:	02f78733          	mul	a4,a5,a5
    1578:	02f7b633          	mulhu	a2,a5,a5
    157c:	20c6a6b3          	sh1add	a3,a3,a2
    1580:	01069693          	slli	a3,a3,0x10
    1584:	01075713          	srli	a4,a4,0x10
    1588:	00e68733          	add	a4,a3,a4
    158c:	41f75513          	srai	a0,a4,0x1f
    1590:	01e75693          	srli	a3,a4,0x1e
    1594:	20d546b3          	sh2add	a3,a0,a3
    1598:	00271613          	slli	a2,a4,0x2
    159c:	01069693          	slli	a3,a3,0x10
    15a0:	01065613          	srli	a2,a2,0x10
    15a4:	00c68633          	add	a2,a3,a2
    15a8:	f4a60613          	addi	a2,a2,-182
    15ac:	41f65593          	srai	a1,a2,0x1f
    15b0:	02e585b3          	mul	a1,a1,a4
    15b4:	02c506b3          	mul	a3,a0,a2
    15b8:	00d585b3          	add	a1,a1,a3
    15bc:	02e606b3          	mul	a3,a2,a4
    15c0:	02e63633          	mulhu	a2,a2,a4
    15c4:	00c58633          	add	a2,a1,a2
    15c8:	01061613          	slli	a2,a2,0x10
    15cc:	0106d693          	srli	a3,a3,0x10
    15d0:	00d606b3          	add	a3,a2,a3
    15d4:	00003637          	lui	a2,0x3
    15d8:	aab60613          	addi	a2,a2,-1365 # 2aab <inferenceTPG+0x1f5b>
    15dc:	00c686b3          	add	a3,a3,a2
    15e0:	41f6d613          	srai	a2,a3,0x1f
    15e4:	02e60633          	mul	a2,a2,a4
    15e8:	02d50533          	mul	a0,a0,a3
    15ec:	00a60633          	add	a2,a2,a0
    15f0:	02e685b3          	mul	a1,a3,a4
    15f4:	02e6b6b3          	mulhu	a3,a3,a4
    15f8:	00d60733          	add	a4,a2,a3
    15fc:	01071713          	slli	a4,a4,0x10
    1600:	0105d693          	srli	a3,a1,0x10
    1604:	00d706b3          	add	a3,a4,a3
    1608:	00020737          	lui	a4,0x20
    160c:	00e686b3          	add	a3,a3,a4
    1610:	40f68633          	sub	a2,a3,a5
    1614:	02f68c63          	beq	a3,a5,164c <inferenceTPG+0xafc>
    1618:	00f7d713          	srli	a4,a5,0xf
    161c:	01179793          	slli	a5,a5,0x11
    1620:	01071713          	slli	a4,a4,0x10
    1624:	0107d793          	srli	a5,a5,0x10
    1628:	00f707b3          	add	a5,a4,a5
    162c:	41f7d713          	srai	a4,a5,0x1f
    1630:	0107d593          	srli	a1,a5,0x10
    1634:	01071713          	slli	a4,a4,0x10
    1638:	41f65693          	srai	a3,a2,0x1f
    163c:	01079513          	slli	a0,a5,0x10
    1640:	00e585b3          	add	a1,a1,a4
    1644:	2dd090ef          	jal	b120 <__divdi3>
    1648:	00050613          	mv	a2,a0
    164c:	000107b7          	lui	a5,0x10
    1650:	00f606b3          	add	a3,a2,a5
    1654:	300ac463          	bltz	s5,195c <inferenceTPG+0xe0c>
    1658:	410ada93          	srai	s5,s5,0x10
    165c:	000107b7          	lui	a5,0x10
    1660:	015797b3          	sll	a5,a5,s5
    1664:	41f7da93          	srai	s5,a5,0x1f
    1668:	41f6d713          	srai	a4,a3,0x1f
    166c:	02da8ab3          	mul	s5,s5,a3
    1670:	02f70733          	mul	a4,a4,a5
    1674:	00ea8ab3          	add	s5,s5,a4
    1678:	02d78733          	mul	a4,a5,a3
    167c:	02d7b7b3          	mulhu	a5,a5,a3
    1680:	00fa8ab3          	add	s5,s5,a5
    1684:	010a9a93          	slli	s5,s5,0x10
    1688:	01075793          	srli	a5,a4,0x10
    168c:	00fa8ab3          	add	s5,s5,a5
    1690:	05512823          	sw	s5,80(sp)
    1694:	0089a783          	lw	a5,8(s3)
    1698:	00092703          	lw	a4,0(s2)
    169c:	40e787b3          	sub	a5,a5,a4
    16a0:	04f12a23          	sw	a5,84(sp)
    16a4:	0044a783          	lw	a5,4(s1)
    16a8:	00078c93          	mv	s9,a5
    16ac:	0084a783          	lw	a5,8(s1)
    16b0:	40fc87b3          	sub	a5,s9,a5
    16b4:	04f12c23          	sw	a5,88(sp)
    16b8:	000a2683          	lw	a3,0(s4)
    16bc:	00000593          	li	a1,0
    16c0:	2406c263          	bltz	a3,1904 <inferenceTPG+0xdb4>
    16c4:	2a068863          	beqz	a3,1974 <inferenceTPG+0xe24>
    16c8:	000207b7          	lui	a5,0x20
    16cc:	2ad7d063          	bge	a5,a3,196c <inferenceTPG+0xe1c>
    16d0:	00000b13          	li	s6,0
    16d4:	4016d693          	srai	a3,a3,0x1
    16d8:	001b0b13          	addi	s6,s6,1
    16dc:	fed7cce3          	blt	a5,a3,16d4 <inferenceTPG+0xb84>
    16e0:	ffff07b7          	lui	a5,0xffff0
    16e4:	00f687b3          	add	a5,a3,a5
    16e8:	00078b93          	mv	s7,a5
    16ec:	41f7d793          	srai	a5,a5,0x1f
    16f0:	010bd593          	srli	a1,s7,0x10
    16f4:	01079793          	slli	a5,a5,0x10
    16f8:	00010737          	lui	a4,0x10
    16fc:	00e68633          	add	a2,a3,a4
    1700:	41f65693          	srai	a3,a2,0x1f
    1704:	010b9513          	slli	a0,s7,0x10
    1708:	00f585b3          	add	a1,a1,a5
    170c:	215090ef          	jal	b120 <__divdi3>
    1710:	41f55613          	srai	a2,a0,0x1f
    1714:	02a607b3          	mul	a5,a2,a0
    1718:	02a506b3          	mul	a3,a0,a0
    171c:	02a53733          	mulhu	a4,a0,a0
    1720:	20e7a7b3          	sh1add	a5,a5,a4
    1724:	01079793          	slli	a5,a5,0x10
    1728:	0106d693          	srli	a3,a3,0x10
    172c:	00d786b3          	add	a3,a5,a3
    1730:	41f6d313          	srai	t1,a3,0x1f
    1734:	02d307b3          	mul	a5,t1,a3
    1738:	02d68733          	mul	a4,a3,a3
    173c:	02d6b5b3          	mulhu	a1,a3,a3
    1740:	20b7a7b3          	sh1add	a5,a5,a1
    1744:	01079793          	slli	a5,a5,0x10
    1748:	01075713          	srli	a4,a4,0x10
    174c:	00e78733          	add	a4,a5,a4
    1750:	41f75813          	srai	a6,a4,0x1f
    1754:	010b1793          	slli	a5,s6,0x10
    1758:	41f7d893          	srai	a7,a5,0x1f
    175c:	0000be37          	lui	t3,0xb
    1760:	172e0e13          	addi	t3,t3,370 # b172 <__divdi3+0x52>
    1764:	03c888b3          	mul	a7,a7,t3
    1768:	03c785b3          	mul	a1,a5,t3
    176c:	03c7b7b3          	mulhu	a5,a5,t3
    1770:	00f887b3          	add	a5,a7,a5
    1774:	01079793          	slli	a5,a5,0x10
    1778:	0105d593          	srli	a1,a1,0x10
    177c:	00b785b3          	add	a1,a5,a1
    1780:	00bb85b3          	add	a1,s7,a1
    1784:	000028b7          	lui	a7,0x2
    1788:	5e288893          	addi	a7,a7,1506 # 25e2 <inferenceTPG+0x1a92>
    178c:	03180e33          	mul	t3,a6,a7
    1790:	031707b3          	mul	a5,a4,a7
    1794:	031738b3          	mulhu	a7,a4,a7
    1798:	011e08b3          	add	a7,t3,a7
    179c:	01089893          	slli	a7,a7,0x10
    17a0:	0107d793          	srli	a5,a5,0x10
    17a4:	00f887b3          	add	a5,a7,a5
    17a8:	000038b7          	lui	a7,0x3
    17ac:	e8d88893          	addi	a7,a7,-371 # 2e8d <inferenceTPG+0x233d>
    17b0:	011787b3          	add	a5,a5,a7
    17b4:	41f7de13          	srai	t3,a5,0x1f
    17b8:	02ee0e33          	mul	t3,t3,a4
    17bc:	02f808b3          	mul	a7,a6,a5
    17c0:	011e0e33          	add	t3,t3,a7
    17c4:	02e788b3          	mul	a7,a5,a4
    17c8:	02e7b7b3          	mulhu	a5,a5,a4
    17cc:	00fe07b3          	add	a5,t3,a5
    17d0:	01079793          	slli	a5,a5,0x10
    17d4:	0108d893          	srli	a7,a7,0x10
    17d8:	011788b3          	add	a7,a5,a7
    17dc:	000057b7          	lui	a5,0x5
    17e0:	92578793          	addi	a5,a5,-1755 # 4925 <__heap_size+0x925>
    17e4:	00f888b3          	add	a7,a7,a5
    17e8:	41f8de13          	srai	t3,a7,0x1f
    17ec:	02ee0e33          	mul	t3,t3,a4
    17f0:	031807b3          	mul	a5,a6,a7
    17f4:	00fe0e33          	add	t3,t3,a5
    17f8:	02e887b3          	mul	a5,a7,a4
    17fc:	02e8b8b3          	mulhu	a7,a7,a4
    1800:	011e08b3          	add	a7,t3,a7
    1804:	01089893          	slli	a7,a7,0x10
    1808:	0107d793          	srli	a5,a5,0x10
    180c:	00f887b3          	add	a5,a7,a5
    1810:	0000b8b7          	lui	a7,0xb
    1814:	aab88893          	addi	a7,a7,-1365 # aaab <__subdf3+0x17b>
    1818:	011787b3          	add	a5,a5,a7
    181c:	41f7d893          	srai	a7,a5,0x1f
    1820:	02d888b3          	mul	a7,a7,a3
    1824:	02f30333          	mul	t1,t1,a5
    1828:	00688333          	add	t1,a7,t1
    182c:	02d788b3          	mul	a7,a5,a3
    1830:	02d7b7b3          	mulhu	a5,a5,a3
    1834:	00f307b3          	add	a5,t1,a5
    1838:	01079793          	slli	a5,a5,0x10
    183c:	0108d893          	srli	a7,a7,0x10
    1840:	011788b3          	add	a7,a5,a7
    1844:	000027b7          	lui	a5,0x2
    1848:	73478793          	addi	a5,a5,1844 # 2734 <inferenceTPG+0x1be4>
    184c:	02f80333          	mul	t1,a6,a5
    1850:	02f706b3          	mul	a3,a4,a5
    1854:	02f737b3          	mulhu	a5,a4,a5
    1858:	00f307b3          	add	a5,t1,a5
    185c:	01079793          	slli	a5,a5,0x10
    1860:	0106d693          	srli	a3,a3,0x10
    1864:	00d786b3          	add	a3,a5,a3
    1868:	000047b7          	lui	a5,0x4
    186c:	8e478793          	addi	a5,a5,-1820 # 38e4 <inferenceTPG+0x2d94>
    1870:	00f686b3          	add	a3,a3,a5
    1874:	41f6d313          	srai	t1,a3,0x1f
    1878:	02e30333          	mul	t1,t1,a4
    187c:	02d807b3          	mul	a5,a6,a3
    1880:	00f30333          	add	t1,t1,a5
    1884:	02e687b3          	mul	a5,a3,a4
    1888:	02e6b6b3          	mulhu	a3,a3,a4
    188c:	00d306b3          	add	a3,t1,a3
    1890:	01069693          	slli	a3,a3,0x10
    1894:	0107d793          	srli	a5,a5,0x10
    1898:	00f687b3          	add	a5,a3,a5
    189c:	000066b7          	lui	a3,0x6
    18a0:	66668693          	addi	a3,a3,1638 # 6666 <__heap_size+0x2666>
    18a4:	00d787b3          	add	a5,a5,a3
    18a8:	41f7d693          	srai	a3,a5,0x1f
    18ac:	02e686b3          	mul	a3,a3,a4
    18b0:	02f80833          	mul	a6,a6,a5
    18b4:	010686b3          	add	a3,a3,a6
    18b8:	02e78833          	mul	a6,a5,a4
    18bc:	02e7b7b3          	mulhu	a5,a5,a4
    18c0:	00f687b3          	add	a5,a3,a5
    18c4:	01079793          	slli	a5,a5,0x10
    18c8:	01085713          	srli	a4,a6,0x10
    18cc:	00e78733          	add	a4,a5,a4
    18d0:	00e888b3          	add	a7,a7,a4
    18d4:	411b87b3          	sub	a5,s7,a7
    18d8:	41f7d713          	srai	a4,a5,0x1f
    18dc:	02a70733          	mul	a4,a4,a0
    18e0:	02f60633          	mul	a2,a2,a5
    18e4:	00c70733          	add	a4,a4,a2
    18e8:	02a786b3          	mul	a3,a5,a0
    18ec:	02a7b7b3          	mulhu	a5,a5,a0
    18f0:	00f707b3          	add	a5,a4,a5
    18f4:	01079793          	slli	a5,a5,0x10
    18f8:	0106d713          	srli	a4,a3,0x10
    18fc:	00e78733          	add	a4,a5,a4
    1900:	40e585b3          	sub	a1,a1,a4
    1904:	04b12e23          	sw	a1,92(sp)
    1908:	001c9793          	slli	a5,s9,0x1
    190c:	06f12023          	sw	a5,96(sp)
    1910:	01092603          	lw	a2,16(s2)
    1914:	02060463          	beqz	a2,193c <inferenceTPG+0xdec>
    1918:	00c92503          	lw	a0,12(s2)
    191c:	41f55793          	srai	a5,a0,0x1f
    1920:	01055593          	srli	a1,a0,0x10
    1924:	01079793          	slli	a5,a5,0x10
    1928:	41f65693          	srai	a3,a2,0x1f
    192c:	01051513          	slli	a0,a0,0x10
    1930:	00f585b3          	add	a1,a1,a5
    1934:	7ec090ef          	jal	b120 <__divdi3>
    1938:	00050613          	mv	a2,a0
    193c:	06c12223          	sw	a2,100(sp)
    1940:	05410713          	addi	a4,sp,84
    1944:	00000593          	li	a1,0
    1948:	00100793          	li	a5,1
    194c:	00600613          	li	a2,6
    1950:	0380006f          	j	1988 <inferenceTPG+0xe38>
    1954:	41500ab3          	neg	s5,s5
    1958:	be9ff06f          	j	1540 <inferenceTPG+0x9f0>
    195c:	41500733          	neg	a4,s5
    1960:	41075713          	srai	a4,a4,0x10
    1964:	40e7d7b3          	sra	a5,a5,a4
    1968:	cfdff06f          	j	1664 <inferenceTPG+0xb14>
    196c:	00000b13          	li	s6,0
    1970:	d71ff06f          	j	16e0 <inferenceTPG+0xb90>
    1974:	fff00593          	li	a1,-1
    1978:	f8dff06f          	j	1904 <inferenceTPG+0xdb4>
    197c:	00178793          	addi	a5,a5,1
    1980:	00470713          	addi	a4,a4,4 # 10004 <fast_intr_ctrl.c.233e5230+0x27f>
    1984:	00c78c63          	beq	a5,a2,199c <inferenceTPG+0xe4c>
    1988:	00072683          	lw	a3,0(a4)
    198c:	ff56c8e3          	blt	a3,s5,197c <inferenceTPG+0xe2c>
    1990:	00068a93          	mv	s5,a3
    1994:	00078593          	mv	a1,a5
    1998:	fe5ff06f          	j	197c <inferenceTPG+0xe2c>
    199c:	00020737          	lui	a4,0x20
    19a0:	000207b7          	lui	a5,0x20
    19a4:	1a878793          	addi	a5,a5,424 # 201a8 <next.22>
    19a8:	20f5c5b3          	sh2add	a1,a1,a5
    19ac:	0005a783          	lw	a5,0(a1)
    19b0:	1fc70713          	addi	a4,a4,508 # 201fc <jump_table.28>
    19b4:	20e7c7b3          	sh2add	a5,a5,a4
    19b8:	0007a783          	lw	a5,0(a5)
    19bc:	9dcff06f          	j	b98 <inferenceTPG+0x48>
    19c0:	0084aa83          	lw	s5,8(s1)
    19c4:	0a0aeab3          	max	s5,s5,zero
    19c8:	01512a23          	sw	s5,20(sp)
    19cc:	01092603          	lw	a2,16(s2)
    19d0:	02060463          	beqz	a2,19f8 <inferenceTPG+0xea8>
    19d4:	00492503          	lw	a0,4(s2)
    19d8:	41f55793          	srai	a5,a0,0x1f
    19dc:	01055593          	srli	a1,a0,0x10
    19e0:	01079793          	slli	a5,a5,0x10
    19e4:	41f65693          	srai	a3,a2,0x1f
    19e8:	01051513          	slli	a0,a0,0x10
    19ec:	00f585b3          	add	a1,a1,a5
    19f0:	730090ef          	jal	b120 <__divdi3>
    19f4:	00050613          	mv	a2,a0
    19f8:	00c12c23          	sw	a2,24(sp)
    19fc:	0044a783          	lw	a5,4(s1)
    1a00:	00078b93          	mv	s7,a5
    1a04:	000107b7          	lui	a5,0x10
    1a08:	180b8c63          	beqz	s7,1ba0 <inferenceTPG+0x1050>
    1a0c:	41700733          	neg	a4,s7
    1a10:	0aebe733          	max	a4,s7,a4
    1a14:	41f75793          	srai	a5,a4,0x1f
    1a18:	000176b7          	lui	a3,0x17
    1a1c:	15468693          	addi	a3,a3,340 # 17154 <heap.cpp.6b15d6f6+0x9c7>
    1a20:	02d787b3          	mul	a5,a5,a3
    1a24:	02d70b33          	mul	s6,a4,a3
    1a28:	02d73733          	mulhu	a4,a4,a3
    1a2c:	00e787b3          	add	a5,a5,a4
    1a30:	01079793          	slli	a5,a5,0x10
    1a34:	010b5b13          	srli	s6,s6,0x10
    1a38:	01678b33          	add	s6,a5,s6
    1a3c:	000087b7          	lui	a5,0x8
    1a40:	00fb0b33          	add	s6,s6,a5
    1a44:	ffff07b7          	lui	a5,0xffff0
    1a48:	00fb7b33          	and	s6,s6,a5
    1a4c:	3c0bc263          	bltz	s7,1e10 <inferenceTPG+0x12c0>
    1a50:	41fb5713          	srai	a4,s6,0x1f
    1a54:	0000b6b7          	lui	a3,0xb
    1a58:	17268693          	addi	a3,a3,370 # b172 <__divdi3+0x52>
    1a5c:	02d70733          	mul	a4,a4,a3
    1a60:	02db07b3          	mul	a5,s6,a3
    1a64:	02db36b3          	mulhu	a3,s6,a3
    1a68:	00d70733          	add	a4,a4,a3
    1a6c:	01071713          	slli	a4,a4,0x10
    1a70:	0107d793          	srli	a5,a5,0x10
    1a74:	00f707b3          	add	a5,a4,a5
    1a78:	40fb87b3          	sub	a5,s7,a5
    1a7c:	41f7d693          	srai	a3,a5,0x1f
    1a80:	02f686b3          	mul	a3,a3,a5
    1a84:	02f78733          	mul	a4,a5,a5
    1a88:	02f7b633          	mulhu	a2,a5,a5
    1a8c:	20c6a6b3          	sh1add	a3,a3,a2
    1a90:	01069693          	slli	a3,a3,0x10
    1a94:	01075713          	srli	a4,a4,0x10
    1a98:	00e68733          	add	a4,a3,a4
    1a9c:	41f75513          	srai	a0,a4,0x1f
    1aa0:	01e75693          	srli	a3,a4,0x1e
    1aa4:	20d546b3          	sh2add	a3,a0,a3
    1aa8:	00271613          	slli	a2,a4,0x2
    1aac:	01069693          	slli	a3,a3,0x10
    1ab0:	01065613          	srli	a2,a2,0x10
    1ab4:	00c68633          	add	a2,a3,a2
    1ab8:	f4a60613          	addi	a2,a2,-182
    1abc:	41f65593          	srai	a1,a2,0x1f
    1ac0:	02e585b3          	mul	a1,a1,a4
    1ac4:	02c506b3          	mul	a3,a0,a2
    1ac8:	00d585b3          	add	a1,a1,a3
    1acc:	02e606b3          	mul	a3,a2,a4
    1ad0:	02e63633          	mulhu	a2,a2,a4
    1ad4:	00c58633          	add	a2,a1,a2
    1ad8:	01061613          	slli	a2,a2,0x10
    1adc:	0106d693          	srli	a3,a3,0x10
    1ae0:	00d606b3          	add	a3,a2,a3
    1ae4:	00003637          	lui	a2,0x3
    1ae8:	aab60613          	addi	a2,a2,-1365 # 2aab <inferenceTPG+0x1f5b>
    1aec:	00c686b3          	add	a3,a3,a2
    1af0:	41f6d613          	srai	a2,a3,0x1f
    1af4:	02e60633          	mul	a2,a2,a4
    1af8:	02d50533          	mul	a0,a0,a3
    1afc:	00a60633          	add	a2,a2,a0
    1b00:	02e685b3          	mul	a1,a3,a4
    1b04:	02e6b6b3          	mulhu	a3,a3,a4
    1b08:	00d60733          	add	a4,a2,a3
    1b0c:	01071713          	slli	a4,a4,0x10
    1b10:	0105d693          	srli	a3,a1,0x10
    1b14:	00d706b3          	add	a3,a4,a3
    1b18:	00020737          	lui	a4,0x20
    1b1c:	00e686b3          	add	a3,a3,a4
    1b20:	40f68633          	sub	a2,a3,a5
    1b24:	02f68c63          	beq	a3,a5,1b5c <inferenceTPG+0x100c>
    1b28:	00f7d713          	srli	a4,a5,0xf
    1b2c:	01179793          	slli	a5,a5,0x11
    1b30:	01071713          	slli	a4,a4,0x10
    1b34:	0107d793          	srli	a5,a5,0x10
    1b38:	00f707b3          	add	a5,a4,a5
    1b3c:	41f7d713          	srai	a4,a5,0x1f
    1b40:	0107d593          	srli	a1,a5,0x10
    1b44:	01071713          	slli	a4,a4,0x10
    1b48:	41f65693          	srai	a3,a2,0x1f
    1b4c:	01079513          	slli	a0,a5,0x10
    1b50:	00e585b3          	add	a1,a1,a4
    1b54:	5cc090ef          	jal	b120 <__divdi3>
    1b58:	00050613          	mv	a2,a0
    1b5c:	000107b7          	lui	a5,0x10
    1b60:	00f606b3          	add	a3,a2,a5
    1b64:	2a0b4a63          	bltz	s6,1e18 <inferenceTPG+0x12c8>
    1b68:	410b5b13          	srai	s6,s6,0x10
    1b6c:	00010737          	lui	a4,0x10
    1b70:	01671733          	sll	a4,a4,s6
    1b74:	41f75793          	srai	a5,a4,0x1f
    1b78:	41f6d613          	srai	a2,a3,0x1f
    1b7c:	02d787b3          	mul	a5,a5,a3
    1b80:	02e60633          	mul	a2,a2,a4
    1b84:	00c787b3          	add	a5,a5,a2
    1b88:	02d70633          	mul	a2,a4,a3
    1b8c:	02d73733          	mulhu	a4,a4,a3
    1b90:	00e787b3          	add	a5,a5,a4
    1b94:	01079793          	slli	a5,a5,0x10
    1b98:	01065713          	srli	a4,a2,0x10
    1b9c:	00e787b3          	add	a5,a5,a4
    1ba0:	00f12e23          	sw	a5,28(sp)
    1ba4:	000a2683          	lw	a3,0(s4)
    1ba8:	00000593          	li	a1,0
    1bac:	2406c263          	bltz	a3,1df0 <inferenceTPG+0x12a0>
    1bb0:	28068263          	beqz	a3,1e34 <inferenceTPG+0x12e4>
    1bb4:	000207b7          	lui	a5,0x20
    1bb8:	26d7da63          	bge	a5,a3,1e2c <inferenceTPG+0x12dc>
    1bbc:	00000b13          	li	s6,0
    1bc0:	4016d693          	srai	a3,a3,0x1
    1bc4:	001b0b13          	addi	s6,s6,1
    1bc8:	fed7cce3          	blt	a5,a3,1bc0 <inferenceTPG+0x1070>
    1bcc:	ffff07b7          	lui	a5,0xffff0
    1bd0:	00f687b3          	add	a5,a3,a5
    1bd4:	00078c93          	mv	s9,a5
    1bd8:	41f7d793          	srai	a5,a5,0x1f
    1bdc:	010cd593          	srli	a1,s9,0x10
    1be0:	01079793          	slli	a5,a5,0x10
    1be4:	00010737          	lui	a4,0x10
    1be8:	00e68633          	add	a2,a3,a4
    1bec:	41f65693          	srai	a3,a2,0x1f
    1bf0:	010c9513          	slli	a0,s9,0x10
    1bf4:	00f585b3          	add	a1,a1,a5
    1bf8:	528090ef          	jal	b120 <__divdi3>
    1bfc:	41f55613          	srai	a2,a0,0x1f
    1c00:	02a607b3          	mul	a5,a2,a0
    1c04:	02a506b3          	mul	a3,a0,a0
    1c08:	02a53733          	mulhu	a4,a0,a0
    1c0c:	20e7a7b3          	sh1add	a5,a5,a4
    1c10:	01079793          	slli	a5,a5,0x10
    1c14:	0106d693          	srli	a3,a3,0x10
    1c18:	00d786b3          	add	a3,a5,a3
    1c1c:	41f6d313          	srai	t1,a3,0x1f
    1c20:	02d307b3          	mul	a5,t1,a3
    1c24:	02d68733          	mul	a4,a3,a3
    1c28:	02d6b5b3          	mulhu	a1,a3,a3
    1c2c:	20b7a7b3          	sh1add	a5,a5,a1
    1c30:	01079793          	slli	a5,a5,0x10
    1c34:	01075713          	srli	a4,a4,0x10
    1c38:	00e78733          	add	a4,a5,a4
    1c3c:	41f75813          	srai	a6,a4,0x1f
    1c40:	010b1793          	slli	a5,s6,0x10
    1c44:	41f7d893          	srai	a7,a5,0x1f
    1c48:	0000be37          	lui	t3,0xb
    1c4c:	172e0e13          	addi	t3,t3,370 # b172 <__divdi3+0x52>
    1c50:	03c888b3          	mul	a7,a7,t3
    1c54:	03c785b3          	mul	a1,a5,t3
    1c58:	03c7b7b3          	mulhu	a5,a5,t3
    1c5c:	00f887b3          	add	a5,a7,a5
    1c60:	01079793          	slli	a5,a5,0x10
    1c64:	0105d593          	srli	a1,a1,0x10
    1c68:	00b785b3          	add	a1,a5,a1
    1c6c:	00bc85b3          	add	a1,s9,a1
    1c70:	000028b7          	lui	a7,0x2
    1c74:	5e288893          	addi	a7,a7,1506 # 25e2 <inferenceTPG+0x1a92>
    1c78:	03180e33          	mul	t3,a6,a7
    1c7c:	031707b3          	mul	a5,a4,a7
    1c80:	031738b3          	mulhu	a7,a4,a7
    1c84:	011e08b3          	add	a7,t3,a7
    1c88:	01089893          	slli	a7,a7,0x10
    1c8c:	0107d793          	srli	a5,a5,0x10
    1c90:	00f887b3          	add	a5,a7,a5
    1c94:	000038b7          	lui	a7,0x3
    1c98:	e8d88893          	addi	a7,a7,-371 # 2e8d <inferenceTPG+0x233d>
    1c9c:	011787b3          	add	a5,a5,a7
    1ca0:	41f7de13          	srai	t3,a5,0x1f
    1ca4:	02ee0e33          	mul	t3,t3,a4
    1ca8:	02f808b3          	mul	a7,a6,a5
    1cac:	011e0e33          	add	t3,t3,a7
    1cb0:	02e788b3          	mul	a7,a5,a4
    1cb4:	02e7b7b3          	mulhu	a5,a5,a4
    1cb8:	00fe07b3          	add	a5,t3,a5
    1cbc:	01079793          	slli	a5,a5,0x10
    1cc0:	0108d893          	srli	a7,a7,0x10
    1cc4:	011788b3          	add	a7,a5,a7
    1cc8:	000057b7          	lui	a5,0x5
    1ccc:	92578793          	addi	a5,a5,-1755 # 4925 <__heap_size+0x925>
    1cd0:	00f888b3          	add	a7,a7,a5
    1cd4:	41f8de13          	srai	t3,a7,0x1f
    1cd8:	02ee0e33          	mul	t3,t3,a4
    1cdc:	031807b3          	mul	a5,a6,a7
    1ce0:	00fe0e33          	add	t3,t3,a5
    1ce4:	02e887b3          	mul	a5,a7,a4
    1ce8:	02e8b8b3          	mulhu	a7,a7,a4
    1cec:	011e08b3          	add	a7,t3,a7
    1cf0:	01089893          	slli	a7,a7,0x10
    1cf4:	0107d793          	srli	a5,a5,0x10
    1cf8:	00f887b3          	add	a5,a7,a5
    1cfc:	0000b8b7          	lui	a7,0xb
    1d00:	aab88893          	addi	a7,a7,-1365 # aaab <__subdf3+0x17b>
    1d04:	011787b3          	add	a5,a5,a7
    1d08:	41f7d893          	srai	a7,a5,0x1f
    1d0c:	02d888b3          	mul	a7,a7,a3
    1d10:	02f30333          	mul	t1,t1,a5
    1d14:	00688333          	add	t1,a7,t1
    1d18:	02d788b3          	mul	a7,a5,a3
    1d1c:	02d7b7b3          	mulhu	a5,a5,a3
    1d20:	00f307b3          	add	a5,t1,a5
    1d24:	01079793          	slli	a5,a5,0x10
    1d28:	0108d893          	srli	a7,a7,0x10
    1d2c:	011788b3          	add	a7,a5,a7
    1d30:	000027b7          	lui	a5,0x2
    1d34:	73478793          	addi	a5,a5,1844 # 2734 <inferenceTPG+0x1be4>
    1d38:	02f80333          	mul	t1,a6,a5
    1d3c:	02f706b3          	mul	a3,a4,a5
    1d40:	02f737b3          	mulhu	a5,a4,a5
    1d44:	00f307b3          	add	a5,t1,a5
    1d48:	01079793          	slli	a5,a5,0x10
    1d4c:	0106d693          	srli	a3,a3,0x10
    1d50:	00d786b3          	add	a3,a5,a3
    1d54:	000047b7          	lui	a5,0x4
    1d58:	8e478793          	addi	a5,a5,-1820 # 38e4 <inferenceTPG+0x2d94>
    1d5c:	00f686b3          	add	a3,a3,a5
    1d60:	41f6d313          	srai	t1,a3,0x1f
    1d64:	02e30333          	mul	t1,t1,a4
    1d68:	02d807b3          	mul	a5,a6,a3
    1d6c:	00f30333          	add	t1,t1,a5
    1d70:	02e687b3          	mul	a5,a3,a4
    1d74:	02e6b6b3          	mulhu	a3,a3,a4
    1d78:	00d306b3          	add	a3,t1,a3
    1d7c:	01069693          	slli	a3,a3,0x10
    1d80:	0107d793          	srli	a5,a5,0x10
    1d84:	00f687b3          	add	a5,a3,a5
    1d88:	000066b7          	lui	a3,0x6
    1d8c:	66668693          	addi	a3,a3,1638 # 6666 <__heap_size+0x2666>
    1d90:	00d787b3          	add	a5,a5,a3
    1d94:	41f7d693          	srai	a3,a5,0x1f
    1d98:	02e686b3          	mul	a3,a3,a4
    1d9c:	02f80833          	mul	a6,a6,a5
    1da0:	010686b3          	add	a3,a3,a6
    1da4:	02e78833          	mul	a6,a5,a4
    1da8:	02e7b7b3          	mulhu	a5,a5,a4
    1dac:	00f687b3          	add	a5,a3,a5
    1db0:	01079793          	slli	a5,a5,0x10
    1db4:	01085713          	srli	a4,a6,0x10
    1db8:	00e78733          	add	a4,a5,a4
    1dbc:	00e888b3          	add	a7,a7,a4
    1dc0:	411c87b3          	sub	a5,s9,a7
    1dc4:	41f7d713          	srai	a4,a5,0x1f
    1dc8:	02a70733          	mul	a4,a4,a0
    1dcc:	02f60633          	mul	a2,a2,a5
    1dd0:	00c70733          	add	a4,a4,a2
    1dd4:	02a786b3          	mul	a3,a5,a0
    1dd8:	02a7b7b3          	mulhu	a5,a5,a0
    1ddc:	00f707b3          	add	a5,a4,a5
    1de0:	01079793          	slli	a5,a5,0x10
    1de4:	0106d713          	srli	a4,a3,0x10
    1de8:	00e78733          	add	a4,a5,a4
    1dec:	40e585b3          	sub	a1,a1,a4
    1df0:	02b12023          	sw	a1,32(sp)
    1df4:	001b9793          	slli	a5,s7,0x1
    1df8:	02f12223          	sw	a5,36(sp)
    1dfc:	01410713          	addi	a4,sp,20
    1e00:	00000593          	li	a1,0
    1e04:	00100793          	li	a5,1
    1e08:	00500613          	li	a2,5
    1e0c:	03c0006f          	j	1e48 <inferenceTPG+0x12f8>
    1e10:	41600b33          	neg	s6,s6
    1e14:	c3dff06f          	j	1a50 <inferenceTPG+0xf00>
    1e18:	416007b3          	neg	a5,s6
    1e1c:	4107d793          	srai	a5,a5,0x10
    1e20:	00010737          	lui	a4,0x10
    1e24:	40f75733          	sra	a4,a4,a5
    1e28:	d4dff06f          	j	1b74 <inferenceTPG+0x1024>
    1e2c:	00000b13          	li	s6,0
    1e30:	d9dff06f          	j	1bcc <inferenceTPG+0x107c>
    1e34:	fff00593          	li	a1,-1
    1e38:	fb9ff06f          	j	1df0 <inferenceTPG+0x12a0>
    1e3c:	00178793          	addi	a5,a5,1
    1e40:	00470713          	addi	a4,a4,4 # 10004 <fast_intr_ctrl.c.233e5230+0x27f>
    1e44:	00c78c63          	beq	a5,a2,1e5c <inferenceTPG+0x130c>
    1e48:	00472683          	lw	a3,4(a4)
    1e4c:	ff56c8e3          	blt	a3,s5,1e3c <inferenceTPG+0x12ec>
    1e50:	00068a93          	mv	s5,a3
    1e54:	00078593          	mv	a1,a5
    1e58:	fe5ff06f          	j	1e3c <inferenceTPG+0x12ec>
    1e5c:	00020737          	lui	a4,0x20
    1e60:	000207b7          	lui	a5,0x20
    1e64:	19478793          	addi	a5,a5,404 # 20194 <next.21>
    1e68:	20f5c5b3          	sh2add	a1,a1,a5
    1e6c:	0005a783          	lw	a5,0(a1)
    1e70:	1fc70713          	addi	a4,a4,508 # 201fc <jump_table.28>
    1e74:	20e7c7b3          	sh2add	a5,a5,a4
    1e78:	0007a783          	lw	a5,0(a5)
    1e7c:	d1dfe06f          	j	b98 <inferenceTPG+0x48>
    1e80:	00492783          	lw	a5,4(s2)
    1e84:	00078b93          	mv	s7,a5
    1e88:	00010ab7          	lui	s5,0x10
    1e8c:	18078c63          	beqz	a5,2024 <inferenceTPG+0x14d4>
    1e90:	40f00733          	neg	a4,a5
    1e94:	0ae7e733          	max	a4,a5,a4
    1e98:	41f75793          	srai	a5,a4,0x1f
    1e9c:	000176b7          	lui	a3,0x17
    1ea0:	15468693          	addi	a3,a3,340 # 17154 <heap.cpp.6b15d6f6+0x9c7>
    1ea4:	02d787b3          	mul	a5,a5,a3
    1ea8:	02d70ab3          	mul	s5,a4,a3
    1eac:	02d73733          	mulhu	a4,a4,a3
    1eb0:	00e787b3          	add	a5,a5,a4
    1eb4:	01079793          	slli	a5,a5,0x10
    1eb8:	010ada93          	srli	s5,s5,0x10
    1ebc:	01578ab3          	add	s5,a5,s5
    1ec0:	000087b7          	lui	a5,0x8
    1ec4:	00fa8ab3          	add	s5,s5,a5
    1ec8:	ffff07b7          	lui	a5,0xffff0
    1ecc:	00fafab3          	and	s5,s5,a5
    1ed0:	5a0bc063          	bltz	s7,2470 <inferenceTPG+0x1920>
    1ed4:	41fad693          	srai	a3,s5,0x1f
    1ed8:	0000b637          	lui	a2,0xb
    1edc:	17260613          	addi	a2,a2,370 # b172 <__divdi3+0x52>
    1ee0:	02c686b3          	mul	a3,a3,a2
    1ee4:	02ca87b3          	mul	a5,s5,a2
    1ee8:	02cab633          	mulhu	a2,s5,a2
    1eec:	00c686b3          	add	a3,a3,a2
    1ef0:	01069693          	slli	a3,a3,0x10
    1ef4:	0107d793          	srli	a5,a5,0x10
    1ef8:	00f687b3          	add	a5,a3,a5
    1efc:	40fb8733          	sub	a4,s7,a5
    1f00:	41f75693          	srai	a3,a4,0x1f
    1f04:	02e686b3          	mul	a3,a3,a4
    1f08:	02e707b3          	mul	a5,a4,a4
    1f0c:	02e73633          	mulhu	a2,a4,a4
    1f10:	20c6a6b3          	sh1add	a3,a3,a2
    1f14:	01069693          	slli	a3,a3,0x10
    1f18:	0107d793          	srli	a5,a5,0x10
    1f1c:	00f687b3          	add	a5,a3,a5
    1f20:	41f7d513          	srai	a0,a5,0x1f
    1f24:	01e7d693          	srli	a3,a5,0x1e
    1f28:	20d546b3          	sh2add	a3,a0,a3
    1f2c:	00279613          	slli	a2,a5,0x2
    1f30:	01069693          	slli	a3,a3,0x10
    1f34:	01065613          	srli	a2,a2,0x10
    1f38:	00c68633          	add	a2,a3,a2
    1f3c:	f4a60613          	addi	a2,a2,-182
    1f40:	41f65593          	srai	a1,a2,0x1f
    1f44:	02f585b3          	mul	a1,a1,a5
    1f48:	02c506b3          	mul	a3,a0,a2
    1f4c:	00d585b3          	add	a1,a1,a3
    1f50:	02f606b3          	mul	a3,a2,a5
    1f54:	02f63633          	mulhu	a2,a2,a5
    1f58:	00c58633          	add	a2,a1,a2
    1f5c:	01061613          	slli	a2,a2,0x10
    1f60:	0106d693          	srli	a3,a3,0x10
    1f64:	00d606b3          	add	a3,a2,a3
    1f68:	00003637          	lui	a2,0x3
    1f6c:	aab60613          	addi	a2,a2,-1365 # 2aab <inferenceTPG+0x1f5b>
    1f70:	00c686b3          	add	a3,a3,a2
    1f74:	41f6d613          	srai	a2,a3,0x1f
    1f78:	02f60633          	mul	a2,a2,a5
    1f7c:	02d50533          	mul	a0,a0,a3
    1f80:	00a60633          	add	a2,a2,a0
    1f84:	02f685b3          	mul	a1,a3,a5
    1f88:	02f6b6b3          	mulhu	a3,a3,a5
    1f8c:	00d607b3          	add	a5,a2,a3
    1f90:	01079793          	slli	a5,a5,0x10
    1f94:	0105d693          	srli	a3,a1,0x10
    1f98:	00d786b3          	add	a3,a5,a3
    1f9c:	000207b7          	lui	a5,0x20
    1fa0:	00f686b3          	add	a3,a3,a5
    1fa4:	40e68633          	sub	a2,a3,a4
    1fa8:	02e68c63          	beq	a3,a4,1fe0 <inferenceTPG+0x1490>
    1fac:	00f75693          	srli	a3,a4,0xf
    1fb0:	01171793          	slli	a5,a4,0x11
    1fb4:	01069713          	slli	a4,a3,0x10
    1fb8:	0107d793          	srli	a5,a5,0x10
    1fbc:	00f707b3          	add	a5,a4,a5
    1fc0:	41f7d713          	srai	a4,a5,0x1f
    1fc4:	0107d593          	srli	a1,a5,0x10
    1fc8:	01071713          	slli	a4,a4,0x10
    1fcc:	41f65693          	srai	a3,a2,0x1f
    1fd0:	01079513          	slli	a0,a5,0x10
    1fd4:	00e585b3          	add	a1,a1,a4
    1fd8:	148090ef          	jal	b120 <__divdi3>
    1fdc:	00050613          	mv	a2,a0
    1fe0:	000107b7          	lui	a5,0x10
    1fe4:	00f606b3          	add	a3,a2,a5
    1fe8:	480ac863          	bltz	s5,2478 <inferenceTPG+0x1928>
    1fec:	410ada93          	srai	s5,s5,0x10
    1ff0:	000107b7          	lui	a5,0x10
    1ff4:	015797b3          	sll	a5,a5,s5
    1ff8:	41f7da93          	srai	s5,a5,0x1f
    1ffc:	41f6d713          	srai	a4,a3,0x1f
    2000:	02da8ab3          	mul	s5,s5,a3
    2004:	02f70733          	mul	a4,a4,a5
    2008:	00ea8ab3          	add	s5,s5,a4
    200c:	02d78733          	mul	a4,a5,a3
    2010:	02d7b7b3          	mulhu	a5,a5,a3
    2014:	00fa8ab3          	add	s5,s5,a5
    2018:	010a9a93          	slli	s5,s5,0x10
    201c:	01075793          	srli	a5,a4,0x10
    2020:	00fa8ab3          	add	s5,s5,a5
    2024:	07512423          	sw	s5,104(sp)
    2028:	000a2683          	lw	a3,0(s4)
    202c:	00000593          	li	a1,0
    2030:	2406c263          	bltz	a3,2274 <inferenceTPG+0x1724>
    2034:	44068e63          	beqz	a3,2490 <inferenceTPG+0x1940>
    2038:	000207b7          	lui	a5,0x20
    203c:	44d7d663          	bge	a5,a3,2488 <inferenceTPG+0x1938>
    2040:	00000b13          	li	s6,0
    2044:	4016d693          	srai	a3,a3,0x1
    2048:	001b0b13          	addi	s6,s6,1
    204c:	fed7cce3          	blt	a5,a3,2044 <inferenceTPG+0x14f4>
    2050:	ffff07b7          	lui	a5,0xffff0
    2054:	00f687b3          	add	a5,a3,a5
    2058:	00078c93          	mv	s9,a5
    205c:	41f7d793          	srai	a5,a5,0x1f
    2060:	010cd593          	srli	a1,s9,0x10
    2064:	01079793          	slli	a5,a5,0x10
    2068:	00010737          	lui	a4,0x10
    206c:	00e68633          	add	a2,a3,a4
    2070:	41f65693          	srai	a3,a2,0x1f
    2074:	010c9513          	slli	a0,s9,0x10
    2078:	00f585b3          	add	a1,a1,a5
    207c:	0a4090ef          	jal	b120 <__divdi3>
    2080:	41f55613          	srai	a2,a0,0x1f
    2084:	02a607b3          	mul	a5,a2,a0
    2088:	02a506b3          	mul	a3,a0,a0
    208c:	02a53733          	mulhu	a4,a0,a0
    2090:	20e7a7b3          	sh1add	a5,a5,a4
    2094:	01079793          	slli	a5,a5,0x10
    2098:	0106d693          	srli	a3,a3,0x10
    209c:	00d786b3          	add	a3,a5,a3
    20a0:	41f6d313          	srai	t1,a3,0x1f
    20a4:	02d307b3          	mul	a5,t1,a3
    20a8:	02d68733          	mul	a4,a3,a3
    20ac:	02d6b5b3          	mulhu	a1,a3,a3
    20b0:	20b7a7b3          	sh1add	a5,a5,a1
    20b4:	01079793          	slli	a5,a5,0x10
    20b8:	01075713          	srli	a4,a4,0x10
    20bc:	00e78733          	add	a4,a5,a4
    20c0:	41f75813          	srai	a6,a4,0x1f
    20c4:	010b1793          	slli	a5,s6,0x10
    20c8:	41f7d893          	srai	a7,a5,0x1f
    20cc:	0000be37          	lui	t3,0xb
    20d0:	172e0e13          	addi	t3,t3,370 # b172 <__divdi3+0x52>
    20d4:	03c888b3          	mul	a7,a7,t3
    20d8:	03c785b3          	mul	a1,a5,t3
    20dc:	03c7b7b3          	mulhu	a5,a5,t3
    20e0:	00f887b3          	add	a5,a7,a5
    20e4:	01079793          	slli	a5,a5,0x10
    20e8:	0105d593          	srli	a1,a1,0x10
    20ec:	00b785b3          	add	a1,a5,a1
    20f0:	00bc85b3          	add	a1,s9,a1
    20f4:	000028b7          	lui	a7,0x2
    20f8:	5e288893          	addi	a7,a7,1506 # 25e2 <inferenceTPG+0x1a92>
    20fc:	03180e33          	mul	t3,a6,a7
    2100:	031707b3          	mul	a5,a4,a7
    2104:	031738b3          	mulhu	a7,a4,a7
    2108:	011e08b3          	add	a7,t3,a7
    210c:	01089893          	slli	a7,a7,0x10
    2110:	0107d793          	srli	a5,a5,0x10
    2114:	00f887b3          	add	a5,a7,a5
    2118:	000038b7          	lui	a7,0x3
    211c:	e8d88893          	addi	a7,a7,-371 # 2e8d <inferenceTPG+0x233d>
    2120:	011787b3          	add	a5,a5,a7
    2124:	41f7de13          	srai	t3,a5,0x1f
    2128:	02ee0e33          	mul	t3,t3,a4
    212c:	02f808b3          	mul	a7,a6,a5
    2130:	011e0e33          	add	t3,t3,a7
    2134:	02e788b3          	mul	a7,a5,a4
    2138:	02e7b7b3          	mulhu	a5,a5,a4
    213c:	00fe07b3          	add	a5,t3,a5
    2140:	01079793          	slli	a5,a5,0x10
    2144:	0108d893          	srli	a7,a7,0x10
    2148:	011788b3          	add	a7,a5,a7
    214c:	000057b7          	lui	a5,0x5
    2150:	92578793          	addi	a5,a5,-1755 # 4925 <__heap_size+0x925>
    2154:	00f888b3          	add	a7,a7,a5
    2158:	41f8de13          	srai	t3,a7,0x1f
    215c:	02ee0e33          	mul	t3,t3,a4
    2160:	031807b3          	mul	a5,a6,a7
    2164:	00fe0e33          	add	t3,t3,a5
    2168:	02e887b3          	mul	a5,a7,a4
    216c:	02e8b8b3          	mulhu	a7,a7,a4
    2170:	011e08b3          	add	a7,t3,a7
    2174:	01089893          	slli	a7,a7,0x10
    2178:	0107d793          	srli	a5,a5,0x10
    217c:	00f887b3          	add	a5,a7,a5
    2180:	0000b8b7          	lui	a7,0xb
    2184:	aab88893          	addi	a7,a7,-1365 # aaab <__subdf3+0x17b>
    2188:	011787b3          	add	a5,a5,a7
    218c:	41f7d893          	srai	a7,a5,0x1f
    2190:	02d888b3          	mul	a7,a7,a3
    2194:	02f30333          	mul	t1,t1,a5
    2198:	00688333          	add	t1,a7,t1
    219c:	02d788b3          	mul	a7,a5,a3
    21a0:	02d7b7b3          	mulhu	a5,a5,a3
    21a4:	00f307b3          	add	a5,t1,a5
    21a8:	01079793          	slli	a5,a5,0x10
    21ac:	0108d893          	srli	a7,a7,0x10
    21b0:	011788b3          	add	a7,a5,a7
    21b4:	000027b7          	lui	a5,0x2
    21b8:	73478793          	addi	a5,a5,1844 # 2734 <inferenceTPG+0x1be4>
    21bc:	02f80333          	mul	t1,a6,a5
    21c0:	02f706b3          	mul	a3,a4,a5
    21c4:	02f737b3          	mulhu	a5,a4,a5
    21c8:	00f307b3          	add	a5,t1,a5
    21cc:	01079793          	slli	a5,a5,0x10
    21d0:	0106d693          	srli	a3,a3,0x10
    21d4:	00d786b3          	add	a3,a5,a3
    21d8:	000047b7          	lui	a5,0x4
    21dc:	8e478793          	addi	a5,a5,-1820 # 38e4 <inferenceTPG+0x2d94>
    21e0:	00f686b3          	add	a3,a3,a5
    21e4:	41f6d313          	srai	t1,a3,0x1f
    21e8:	02e30333          	mul	t1,t1,a4
    21ec:	02d807b3          	mul	a5,a6,a3
    21f0:	00f30333          	add	t1,t1,a5
    21f4:	02e687b3          	mul	a5,a3,a4
    21f8:	02e6b6b3          	mulhu	a3,a3,a4
    21fc:	00d306b3          	add	a3,t1,a3
    2200:	01069693          	slli	a3,a3,0x10
    2204:	0107d793          	srli	a5,a5,0x10
    2208:	00f687b3          	add	a5,a3,a5
    220c:	000066b7          	lui	a3,0x6
    2210:	66668693          	addi	a3,a3,1638 # 6666 <__heap_size+0x2666>
    2214:	00d787b3          	add	a5,a5,a3
    2218:	41f7d693          	srai	a3,a5,0x1f
    221c:	02e686b3          	mul	a3,a3,a4
    2220:	02f80833          	mul	a6,a6,a5
    2224:	010686b3          	add	a3,a3,a6
    2228:	02e78833          	mul	a6,a5,a4
    222c:	02e7b7b3          	mulhu	a5,a5,a4
    2230:	00f687b3          	add	a5,a3,a5
    2234:	01079793          	slli	a5,a5,0x10
    2238:	01085713          	srli	a4,a6,0x10
    223c:	00e78733          	add	a4,a5,a4
    2240:	00e888b3          	add	a7,a7,a4
    2244:	411c87b3          	sub	a5,s9,a7
    2248:	41f7d713          	srai	a4,a5,0x1f
    224c:	02a70733          	mul	a4,a4,a0
    2250:	02f60633          	mul	a2,a2,a5
    2254:	00c70733          	add	a4,a4,a2
    2258:	02a786b3          	mul	a3,a5,a0
    225c:	02a7b7b3          	mulhu	a5,a5,a0
    2260:	00f707b3          	add	a5,a4,a5
    2264:	01079793          	slli	a5,a5,0x10
    2268:	0106d713          	srli	a4,a3,0x10
    226c:	00e78733          	add	a4,a5,a4
    2270:	40e585b3          	sub	a1,a1,a4
    2274:	06b12623          	sw	a1,108(sp)
    2278:	01092603          	lw	a2,16(s2)
    227c:	02060263          	beqz	a2,22a0 <inferenceTPG+0x1750>
    2280:	41fbd793          	srai	a5,s7,0x1f
    2284:	010bd593          	srli	a1,s7,0x10
    2288:	01079793          	slli	a5,a5,0x10
    228c:	41f65693          	srai	a3,a2,0x1f
    2290:	010b9513          	slli	a0,s7,0x10
    2294:	00f585b3          	add	a1,a1,a5
    2298:	689080ef          	jal	b120 <__divdi3>
    229c:	00050613          	mv	a2,a0
    22a0:	06c12823          	sw	a2,112(sp)
    22a4:	0044a783          	lw	a5,4(s1)
    22a8:	00179713          	slli	a4,a5,0x1
    22ac:	06e12a23          	sw	a4,116(sp)
    22b0:	00010737          	lui	a4,0x10
    22b4:	18078c63          	beqz	a5,244c <inferenceTPG+0x18fc>
    22b8:	40f006b3          	neg	a3,a5
    22bc:	0ad7e6b3          	max	a3,a5,a3
    22c0:	41f6d713          	srai	a4,a3,0x1f
    22c4:	00017637          	lui	a2,0x17
    22c8:	15460613          	addi	a2,a2,340 # 17154 <heap.cpp.6b15d6f6+0x9c7>
    22cc:	02c70733          	mul	a4,a4,a2
    22d0:	02c68b33          	mul	s6,a3,a2
    22d4:	02c6b6b3          	mulhu	a3,a3,a2
    22d8:	00d70733          	add	a4,a4,a3
    22dc:	01071713          	slli	a4,a4,0x10
    22e0:	010b5b13          	srli	s6,s6,0x10
    22e4:	01670b33          	add	s6,a4,s6
    22e8:	00008737          	lui	a4,0x8
    22ec:	00eb0b33          	add	s6,s6,a4
    22f0:	ffff0737          	lui	a4,0xffff0
    22f4:	00eb7b33          	and	s6,s6,a4
    22f8:	1a07c063          	bltz	a5,2498 <inferenceTPG+0x1948>
    22fc:	41fb5713          	srai	a4,s6,0x1f
    2300:	0000b6b7          	lui	a3,0xb
    2304:	17268693          	addi	a3,a3,370 # b172 <__divdi3+0x52>
    2308:	02d70733          	mul	a4,a4,a3
    230c:	02db0633          	mul	a2,s6,a3
    2310:	02db36b3          	mulhu	a3,s6,a3
    2314:	00d70733          	add	a4,a4,a3
    2318:	01071713          	slli	a4,a4,0x10
    231c:	01065693          	srli	a3,a2,0x10
    2320:	00d706b3          	add	a3,a4,a3
    2324:	40d787b3          	sub	a5,a5,a3
    2328:	41f7d693          	srai	a3,a5,0x1f
    232c:	02f686b3          	mul	a3,a3,a5
    2330:	02f78733          	mul	a4,a5,a5
    2334:	02f7b633          	mulhu	a2,a5,a5
    2338:	20c6a6b3          	sh1add	a3,a3,a2
    233c:	01069693          	slli	a3,a3,0x10
    2340:	01075713          	srli	a4,a4,0x10
    2344:	00e68733          	add	a4,a3,a4
    2348:	41f75513          	srai	a0,a4,0x1f
    234c:	01e75693          	srli	a3,a4,0x1e
    2350:	20d546b3          	sh2add	a3,a0,a3
    2354:	00271613          	slli	a2,a4,0x2
    2358:	01069693          	slli	a3,a3,0x10
    235c:	01065613          	srli	a2,a2,0x10
    2360:	00c68633          	add	a2,a3,a2
    2364:	f4a60613          	addi	a2,a2,-182
    2368:	41f65593          	srai	a1,a2,0x1f
    236c:	02e585b3          	mul	a1,a1,a4
    2370:	02c506b3          	mul	a3,a0,a2
    2374:	00d585b3          	add	a1,a1,a3
    2378:	02e606b3          	mul	a3,a2,a4
    237c:	02e63633          	mulhu	a2,a2,a4
    2380:	00c58633          	add	a2,a1,a2
    2384:	01061613          	slli	a2,a2,0x10
    2388:	0106d693          	srli	a3,a3,0x10
    238c:	00d606b3          	add	a3,a2,a3
    2390:	00003637          	lui	a2,0x3
    2394:	aab60613          	addi	a2,a2,-1365 # 2aab <inferenceTPG+0x1f5b>
    2398:	00c686b3          	add	a3,a3,a2
    239c:	41f6d613          	srai	a2,a3,0x1f
    23a0:	02e60633          	mul	a2,a2,a4
    23a4:	02d50533          	mul	a0,a0,a3
    23a8:	00a60633          	add	a2,a2,a0
    23ac:	02e685b3          	mul	a1,a3,a4
    23b0:	02e6b6b3          	mulhu	a3,a3,a4
    23b4:	00d60733          	add	a4,a2,a3
    23b8:	01071713          	slli	a4,a4,0x10
    23bc:	0105d693          	srli	a3,a1,0x10
    23c0:	00d706b3          	add	a3,a4,a3
    23c4:	00020737          	lui	a4,0x20
    23c8:	00e686b3          	add	a3,a3,a4
    23cc:	40f68633          	sub	a2,a3,a5
    23d0:	02f68c63          	beq	a3,a5,2408 <inferenceTPG+0x18b8>
    23d4:	00f7d713          	srli	a4,a5,0xf
    23d8:	01179793          	slli	a5,a5,0x11
    23dc:	01071713          	slli	a4,a4,0x10
    23e0:	0107d793          	srli	a5,a5,0x10
    23e4:	00f707b3          	add	a5,a4,a5
    23e8:	41f7d713          	srai	a4,a5,0x1f
    23ec:	0107d593          	srli	a1,a5,0x10
    23f0:	01071713          	slli	a4,a4,0x10
    23f4:	41f65693          	srai	a3,a2,0x1f
    23f8:	01079513          	slli	a0,a5,0x10
    23fc:	00e585b3          	add	a1,a1,a4
    2400:	521080ef          	jal	b120 <__divdi3>
    2404:	00050613          	mv	a2,a0
    2408:	000107b7          	lui	a5,0x10
    240c:	00f606b3          	add	a3,a2,a5
    2410:	080b4863          	bltz	s6,24a0 <inferenceTPG+0x1950>
    2414:	410b5b13          	srai	s6,s6,0x10
    2418:	000107b7          	lui	a5,0x10
    241c:	016797b3          	sll	a5,a5,s6
    2420:	41f7d713          	srai	a4,a5,0x1f
    2424:	41f6d613          	srai	a2,a3,0x1f
    2428:	02d70733          	mul	a4,a4,a3
    242c:	02f60633          	mul	a2,a2,a5
    2430:	00c70733          	add	a4,a4,a2
    2434:	02d78633          	mul	a2,a5,a3
    2438:	02d7b7b3          	mulhu	a5,a5,a3
    243c:	00f70733          	add	a4,a4,a5
    2440:	01071713          	slli	a4,a4,0x10
    2444:	01065793          	srli	a5,a2,0x10
    2448:	00f70733          	add	a4,a4,a5
    244c:	06e12c23          	sw	a4,120(sp)
    2450:	0084a783          	lw	a5,8(s1)
    2454:	0a07e7b3          	max	a5,a5,zero
    2458:	06f12e23          	sw	a5,124(sp)
    245c:	06c10713          	addi	a4,sp,108
    2460:	00000593          	li	a1,0
    2464:	00100793          	li	a5,1
    2468:	00600613          	li	a2,6
    246c:	0500006f          	j	24bc <inferenceTPG+0x196c>
    2470:	41500ab3          	neg	s5,s5
    2474:	a61ff06f          	j	1ed4 <inferenceTPG+0x1384>
    2478:	41500733          	neg	a4,s5
    247c:	41075713          	srai	a4,a4,0x10
    2480:	40e7d7b3          	sra	a5,a5,a4
    2484:	b75ff06f          	j	1ff8 <inferenceTPG+0x14a8>
    2488:	00000b13          	li	s6,0
    248c:	bc5ff06f          	j	2050 <inferenceTPG+0x1500>
    2490:	fff00593          	li	a1,-1
    2494:	de1ff06f          	j	2274 <inferenceTPG+0x1724>
    2498:	41600b33          	neg	s6,s6
    249c:	e61ff06f          	j	22fc <inferenceTPG+0x17ac>
    24a0:	41600733          	neg	a4,s6
    24a4:	41075713          	srai	a4,a4,0x10
    24a8:	40e7d7b3          	sra	a5,a5,a4
    24ac:	f75ff06f          	j	2420 <inferenceTPG+0x18d0>
    24b0:	00178793          	addi	a5,a5,1 # 10001 <fast_intr_ctrl.c.233e5230+0x27c>
    24b4:	00470713          	addi	a4,a4,4 # 20004 <heap.cpp.6b15d6f6+0x9877>
    24b8:	00c78c63          	beq	a5,a2,24d0 <inferenceTPG+0x1980>
    24bc:	00072683          	lw	a3,0(a4)
    24c0:	ff56c8e3          	blt	a3,s5,24b0 <inferenceTPG+0x1960>
    24c4:	00068a93          	mv	s5,a3
    24c8:	00078593          	mv	a1,a5
    24cc:	fe5ff06f          	j	24b0 <inferenceTPG+0x1960>
    24d0:	00020737          	lui	a4,0x20
    24d4:	000207b7          	lui	a5,0x20
    24d8:	17c78793          	addi	a5,a5,380 # 2017c <next.20>
    24dc:	20f5c5b3          	sh2add	a1,a1,a5
    24e0:	0005a783          	lw	a5,0(a1)
    24e4:	1fc70713          	addi	a4,a4,508 # 201fc <jump_table.28>
    24e8:	20e7c7b3          	sh2add	a5,a5,a4
    24ec:	0007a783          	lw	a5,0(a5)
    24f0:	ea8fe06f          	j	b98 <inferenceTPG+0x48>
    24f4:	000a2683          	lw	a3,0(s4)
    24f8:	00000b93          	li	s7,0
    24fc:	2406c263          	bltz	a3,2740 <inferenceTPG+0x1bf0>
    2500:	42068863          	beqz	a3,2930 <inferenceTPG+0x1de0>
    2504:	000207b7          	lui	a5,0x20
    2508:	42d7d063          	bge	a5,a3,2928 <inferenceTPG+0x1dd8>
    250c:	00000a93          	li	s5,0
    2510:	4016d693          	srai	a3,a3,0x1
    2514:	001a8a93          	addi	s5,s5,1 # 10001 <fast_intr_ctrl.c.233e5230+0x27c>
    2518:	fed7cce3          	blt	a5,a3,2510 <inferenceTPG+0x19c0>
    251c:	ffff0b37          	lui	s6,0xffff0
    2520:	01668b33          	add	s6,a3,s6
    2524:	41fb5793          	srai	a5,s6,0x1f
    2528:	010b5593          	srli	a1,s6,0x10
    252c:	01079793          	slli	a5,a5,0x10
    2530:	00010737          	lui	a4,0x10
    2534:	00e68633          	add	a2,a3,a4
    2538:	41f65693          	srai	a3,a2,0x1f
    253c:	010b1513          	slli	a0,s6,0x10
    2540:	00f585b3          	add	a1,a1,a5
    2544:	3dd080ef          	jal	b120 <__divdi3>
    2548:	41f55613          	srai	a2,a0,0x1f
    254c:	02a607b3          	mul	a5,a2,a0
    2550:	02a506b3          	mul	a3,a0,a0
    2554:	02a53733          	mulhu	a4,a0,a0
    2558:	20e7a7b3          	sh1add	a5,a5,a4
    255c:	01079793          	slli	a5,a5,0x10
    2560:	0106d693          	srli	a3,a3,0x10
    2564:	00d786b3          	add	a3,a5,a3
    2568:	41f6d893          	srai	a7,a3,0x1f
    256c:	02d887b3          	mul	a5,a7,a3
    2570:	02d68733          	mul	a4,a3,a3
    2574:	02d6b5b3          	mulhu	a1,a3,a3
    2578:	20b7a7b3          	sh1add	a5,a5,a1
    257c:	01079793          	slli	a5,a5,0x10
    2580:	01075713          	srli	a4,a4,0x10
    2584:	00e78733          	add	a4,a5,a4
    2588:	41f75593          	srai	a1,a4,0x1f
    258c:	010a9793          	slli	a5,s5,0x10
    2590:	41f7d813          	srai	a6,a5,0x1f
    2594:	0000b337          	lui	t1,0xb
    2598:	17230313          	addi	t1,t1,370 # b172 <__divdi3+0x52>
    259c:	02680833          	mul	a6,a6,t1
    25a0:	02678ab3          	mul	s5,a5,t1
    25a4:	0267b7b3          	mulhu	a5,a5,t1
    25a8:	00f807b3          	add	a5,a6,a5
    25ac:	01079793          	slli	a5,a5,0x10
    25b0:	010ada93          	srli	s5,s5,0x10
    25b4:	01578ab3          	add	s5,a5,s5
    25b8:	015b0ab3          	add	s5,s6,s5
    25bc:	00002837          	lui	a6,0x2
    25c0:	5e280813          	addi	a6,a6,1506 # 25e2 <inferenceTPG+0x1a92>
    25c4:	03058333          	mul	t1,a1,a6
    25c8:	030707b3          	mul	a5,a4,a6
    25cc:	03073833          	mulhu	a6,a4,a6
    25d0:	01030833          	add	a6,t1,a6
    25d4:	01081813          	slli	a6,a6,0x10
    25d8:	0107d793          	srli	a5,a5,0x10
    25dc:	00f807b3          	add	a5,a6,a5
    25e0:	00003837          	lui	a6,0x3
    25e4:	e8d80813          	addi	a6,a6,-371 # 2e8d <inferenceTPG+0x233d>
    25e8:	010787b3          	add	a5,a5,a6
    25ec:	41f7d313          	srai	t1,a5,0x1f
    25f0:	02e30333          	mul	t1,t1,a4
    25f4:	02f58833          	mul	a6,a1,a5
    25f8:	01030333          	add	t1,t1,a6
    25fc:	02e78833          	mul	a6,a5,a4
    2600:	02e7b7b3          	mulhu	a5,a5,a4
    2604:	00f307b3          	add	a5,t1,a5
    2608:	01079793          	slli	a5,a5,0x10
    260c:	01085813          	srli	a6,a6,0x10
    2610:	01078833          	add	a6,a5,a6
    2614:	000057b7          	lui	a5,0x5
    2618:	92578793          	addi	a5,a5,-1755 # 4925 <__heap_size+0x925>
    261c:	00f80833          	add	a6,a6,a5
    2620:	41f85313          	srai	t1,a6,0x1f
    2624:	02e30333          	mul	t1,t1,a4
    2628:	030587b3          	mul	a5,a1,a6
    262c:	00f30333          	add	t1,t1,a5
    2630:	02e807b3          	mul	a5,a6,a4
    2634:	02e83833          	mulhu	a6,a6,a4
    2638:	01030833          	add	a6,t1,a6
    263c:	01081813          	slli	a6,a6,0x10
    2640:	0107d793          	srli	a5,a5,0x10
    2644:	00f807b3          	add	a5,a6,a5
    2648:	0000b837          	lui	a6,0xb
    264c:	aab80813          	addi	a6,a6,-1365 # aaab <__subdf3+0x17b>
    2650:	010787b3          	add	a5,a5,a6
    2654:	41f7d813          	srai	a6,a5,0x1f
    2658:	02d80833          	mul	a6,a6,a3
    265c:	02f888b3          	mul	a7,a7,a5
    2660:	011808b3          	add	a7,a6,a7
    2664:	02d78833          	mul	a6,a5,a3
    2668:	02d7b7b3          	mulhu	a5,a5,a3
    266c:	00f887b3          	add	a5,a7,a5
    2670:	01079793          	slli	a5,a5,0x10
    2674:	01085813          	srli	a6,a6,0x10
    2678:	01078833          	add	a6,a5,a6
    267c:	000027b7          	lui	a5,0x2
    2680:	73478793          	addi	a5,a5,1844 # 2734 <inferenceTPG+0x1be4>
    2684:	02f588b3          	mul	a7,a1,a5
    2688:	02f706b3          	mul	a3,a4,a5
    268c:	02f737b3          	mulhu	a5,a4,a5
    2690:	00f887b3          	add	a5,a7,a5
    2694:	01079793          	slli	a5,a5,0x10
    2698:	0106d693          	srli	a3,a3,0x10
    269c:	00d786b3          	add	a3,a5,a3
    26a0:	000047b7          	lui	a5,0x4
    26a4:	8e478793          	addi	a5,a5,-1820 # 38e4 <inferenceTPG+0x2d94>
    26a8:	00f686b3          	add	a3,a3,a5
    26ac:	41f6d893          	srai	a7,a3,0x1f
    26b0:	02e888b3          	mul	a7,a7,a4
    26b4:	02d587b3          	mul	a5,a1,a3
    26b8:	00f888b3          	add	a7,a7,a5
    26bc:	02e687b3          	mul	a5,a3,a4
    26c0:	02e6b6b3          	mulhu	a3,a3,a4
    26c4:	00d886b3          	add	a3,a7,a3
    26c8:	01069693          	slli	a3,a3,0x10
    26cc:	0107d793          	srli	a5,a5,0x10
    26d0:	00f687b3          	add	a5,a3,a5
    26d4:	000066b7          	lui	a3,0x6
    26d8:	66668693          	addi	a3,a3,1638 # 6666 <__heap_size+0x2666>
    26dc:	00d787b3          	add	a5,a5,a3
    26e0:	41f7d693          	srai	a3,a5,0x1f
    26e4:	02e686b3          	mul	a3,a3,a4
    26e8:	02f585b3          	mul	a1,a1,a5
    26ec:	00b686b3          	add	a3,a3,a1
    26f0:	02e785b3          	mul	a1,a5,a4
    26f4:	02e7b7b3          	mulhu	a5,a5,a4
    26f8:	00f687b3          	add	a5,a3,a5
    26fc:	01079793          	slli	a5,a5,0x10
    2700:	0105d713          	srli	a4,a1,0x10
    2704:	00e78733          	add	a4,a5,a4
    2708:	00e80833          	add	a6,a6,a4
    270c:	410b0b33          	sub	s6,s6,a6
    2710:	41fb5793          	srai	a5,s6,0x1f
    2714:	02a787b3          	mul	a5,a5,a0
    2718:	03660633          	mul	a2,a2,s6
    271c:	00c787b3          	add	a5,a5,a2
    2720:	02ab0733          	mul	a4,s6,a0
    2724:	02ab3b33          	mulhu	s6,s6,a0
    2728:	016787b3          	add	a5,a5,s6
    272c:	01079793          	slli	a5,a5,0x10
    2730:	01075713          	srli	a4,a4,0x10
    2734:	00e78733          	add	a4,a5,a4
    2738:	40ea87b3          	sub	a5,s5,a4
    273c:	00078b93          	mv	s7,a5
    2740:	0009a703          	lw	a4,0(s3)
    2744:	0084a783          	lw	a5,8(s1)
    2748:	0af76ab3          	max	s5,a4,a5
    274c:	00492783          	lw	a5,4(s2)
    2750:	00010737          	lui	a4,0x10
    2754:	18078c63          	beqz	a5,28ec <inferenceTPG+0x1d9c>
    2758:	40f006b3          	neg	a3,a5
    275c:	0ad7e6b3          	max	a3,a5,a3
    2760:	41f6d713          	srai	a4,a3,0x1f
    2764:	00017637          	lui	a2,0x17
    2768:	15460613          	addi	a2,a2,340 # 17154 <heap.cpp.6b15d6f6+0x9c7>
    276c:	02c70733          	mul	a4,a4,a2
    2770:	02c68b33          	mul	s6,a3,a2
    2774:	02c6b6b3          	mulhu	a3,a3,a2
    2778:	00d70733          	add	a4,a4,a3
    277c:	01071713          	slli	a4,a4,0x10
    2780:	010b5b13          	srli	s6,s6,0x10
    2784:	01670b33          	add	s6,a4,s6
    2788:	00008737          	lui	a4,0x8
    278c:	00eb0b33          	add	s6,s6,a4
    2790:	ffff0737          	lui	a4,0xffff0
    2794:	00eb7b33          	and	s6,s6,a4
    2798:	1a07c263          	bltz	a5,293c <inferenceTPG+0x1dec>
    279c:	41fb5713          	srai	a4,s6,0x1f
    27a0:	0000b6b7          	lui	a3,0xb
    27a4:	17268693          	addi	a3,a3,370 # b172 <__divdi3+0x52>
    27a8:	02d70733          	mul	a4,a4,a3
    27ac:	02db0633          	mul	a2,s6,a3
    27b0:	02db36b3          	mulhu	a3,s6,a3
    27b4:	00d70733          	add	a4,a4,a3
    27b8:	01071713          	slli	a4,a4,0x10
    27bc:	01065693          	srli	a3,a2,0x10
    27c0:	00d706b3          	add	a3,a4,a3
    27c4:	40d787b3          	sub	a5,a5,a3
    27c8:	41f7d693          	srai	a3,a5,0x1f
    27cc:	02f686b3          	mul	a3,a3,a5
    27d0:	02f78733          	mul	a4,a5,a5
    27d4:	02f7b633          	mulhu	a2,a5,a5
    27d8:	20c6a6b3          	sh1add	a3,a3,a2
    27dc:	01069693          	slli	a3,a3,0x10
    27e0:	01075713          	srli	a4,a4,0x10
    27e4:	00e68733          	add	a4,a3,a4
    27e8:	41f75513          	srai	a0,a4,0x1f
    27ec:	01e75693          	srli	a3,a4,0x1e
    27f0:	20d546b3          	sh2add	a3,a0,a3
    27f4:	00271613          	slli	a2,a4,0x2
    27f8:	01069693          	slli	a3,a3,0x10
    27fc:	01065613          	srli	a2,a2,0x10
    2800:	00c68633          	add	a2,a3,a2
    2804:	f4a60613          	addi	a2,a2,-182
    2808:	41f65593          	srai	a1,a2,0x1f
    280c:	02e585b3          	mul	a1,a1,a4
    2810:	02c506b3          	mul	a3,a0,a2
    2814:	00d585b3          	add	a1,a1,a3
    2818:	02e606b3          	mul	a3,a2,a4
    281c:	02e63633          	mulhu	a2,a2,a4
    2820:	00c58633          	add	a2,a1,a2
    2824:	01061613          	slli	a2,a2,0x10
    2828:	0106d693          	srli	a3,a3,0x10
    282c:	00d606b3          	add	a3,a2,a3
    2830:	00003637          	lui	a2,0x3
    2834:	aab60613          	addi	a2,a2,-1365 # 2aab <inferenceTPG+0x1f5b>
    2838:	00c686b3          	add	a3,a3,a2
    283c:	41f6d613          	srai	a2,a3,0x1f
    2840:	02e60633          	mul	a2,a2,a4
    2844:	02d50533          	mul	a0,a0,a3
    2848:	00a60633          	add	a2,a2,a0
    284c:	02e685b3          	mul	a1,a3,a4
    2850:	02e6b6b3          	mulhu	a3,a3,a4
    2854:	00d60733          	add	a4,a2,a3
    2858:	01071713          	slli	a4,a4,0x10
    285c:	0105d693          	srli	a3,a1,0x10
    2860:	00d706b3          	add	a3,a4,a3
    2864:	00020737          	lui	a4,0x20
    2868:	00e686b3          	add	a3,a3,a4
    286c:	40f68633          	sub	a2,a3,a5
    2870:	02f68c63          	beq	a3,a5,28a8 <inferenceTPG+0x1d58>
    2874:	00f7d713          	srli	a4,a5,0xf
    2878:	01179793          	slli	a5,a5,0x11
    287c:	01071713          	slli	a4,a4,0x10
    2880:	0107d793          	srli	a5,a5,0x10
    2884:	00f707b3          	add	a5,a4,a5
    2888:	41f7d713          	srai	a4,a5,0x1f
    288c:	0107d593          	srli	a1,a5,0x10
    2890:	01071713          	slli	a4,a4,0x10
    2894:	41f65693          	srai	a3,a2,0x1f
    2898:	01079513          	slli	a0,a5,0x10
    289c:	00e585b3          	add	a1,a1,a4
    28a0:	081080ef          	jal	b120 <__divdi3>
    28a4:	00050613          	mv	a2,a0
    28a8:	000107b7          	lui	a5,0x10
    28ac:	00f606b3          	add	a3,a2,a5
    28b0:	080b4a63          	bltz	s6,2944 <inferenceTPG+0x1df4>
    28b4:	410b5b13          	srai	s6,s6,0x10
    28b8:	000107b7          	lui	a5,0x10
    28bc:	016797b3          	sll	a5,a5,s6
    28c0:	41f7d713          	srai	a4,a5,0x1f
    28c4:	41f6d613          	srai	a2,a3,0x1f
    28c8:	02d70733          	mul	a4,a4,a3
    28cc:	02f60633          	mul	a2,a2,a5
    28d0:	00c70733          	add	a4,a4,a2
    28d4:	02d78633          	mul	a2,a5,a3
    28d8:	02d7b7b3          	mulhu	a5,a5,a3
    28dc:	00f70733          	add	a4,a4,a5
    28e0:	01071713          	slli	a4,a4,0x10
    28e4:	01065793          	srli	a5,a2,0x10
    28e8:	00f70733          	add	a4,a4,a5
    28ec:	00100793          	li	a5,1
    28f0:	017ad663          	bge	s5,s7,28fc <inferenceTPG+0x1dac>
    28f4:	000b8a93          	mv	s5,s7
    28f8:	00000793          	li	a5,0
    28fc:	01574463          	blt	a4,s5,2904 <inferenceTPG+0x1db4>
    2900:	00200793          	li	a5,2
    2904:	00020737          	lui	a4,0x20
    2908:	000206b7          	lui	a3,0x20
    290c:	17068693          	addi	a3,a3,368 # 20170 <next.19>
    2910:	20d7c7b3          	sh2add	a5,a5,a3
    2914:	0007a783          	lw	a5,0(a5) # 10000 <fast_intr_ctrl.c.233e5230+0x27b>
    2918:	1fc70713          	addi	a4,a4,508 # 201fc <jump_table.28>
    291c:	20e7c7b3          	sh2add	a5,a5,a4
    2920:	0007a783          	lw	a5,0(a5)
    2924:	a74fe06f          	j	b98 <inferenceTPG+0x48>
    2928:	00000a93          	li	s5,0
    292c:	bf1ff06f          	j	251c <inferenceTPG+0x19cc>
    2930:	fff00793          	li	a5,-1
    2934:	00078b93          	mv	s7,a5
    2938:	e09ff06f          	j	2740 <inferenceTPG+0x1bf0>
    293c:	41600b33          	neg	s6,s6
    2940:	e5dff06f          	j	279c <inferenceTPG+0x1c4c>
    2944:	41600733          	neg	a4,s6
    2948:	41075713          	srai	a4,a4,0x10
    294c:	40e7d7b3          	sra	a5,a5,a4
    2950:	f71ff06f          	j	28c0 <inferenceTPG+0x1d70>
    2954:	11a12a23          	sw	s10,276(sp)
    2958:	0044a783          	lw	a5,4(s1)
    295c:	00078c93          	mv	s9,a5
    2960:	0009a783          	lw	a5,0(s3)
    2964:	00078d13          	mv	s10,a5
    2968:	01978b33          	add	s6,a5,s9
    296c:	0d612823          	sw	s6,208(sp)
    2970:	000a2683          	lw	a3,0(s4)
    2974:	00000593          	li	a1,0
    2978:	2406c263          	bltz	a3,2bbc <inferenceTPG+0x206c>
    297c:	4a068663          	beqz	a3,2e28 <inferenceTPG+0x22d8>
    2980:	000207b7          	lui	a5,0x20
    2984:	48d7de63          	bge	a5,a3,2e20 <inferenceTPG+0x22d0>
    2988:	00000a93          	li	s5,0
    298c:	4016d693          	srai	a3,a3,0x1
    2990:	001a8a93          	addi	s5,s5,1
    2994:	fed7cce3          	blt	a5,a3,298c <inferenceTPG+0x1e3c>
    2998:	ffff07b7          	lui	a5,0xffff0
    299c:	00f687b3          	add	a5,a3,a5
    29a0:	00078b93          	mv	s7,a5
    29a4:	41f7d793          	srai	a5,a5,0x1f
    29a8:	010bd593          	srli	a1,s7,0x10
    29ac:	01079793          	slli	a5,a5,0x10
    29b0:	00010737          	lui	a4,0x10
    29b4:	00e68633          	add	a2,a3,a4
    29b8:	41f65693          	srai	a3,a2,0x1f
    29bc:	010b9513          	slli	a0,s7,0x10
    29c0:	00f585b3          	add	a1,a1,a5
    29c4:	75c080ef          	jal	b120 <__divdi3>
    29c8:	41f55613          	srai	a2,a0,0x1f
    29cc:	02a607b3          	mul	a5,a2,a0
    29d0:	02a50733          	mul	a4,a0,a0
    29d4:	02a536b3          	mulhu	a3,a0,a0
    29d8:	20d7a7b3          	sh1add	a5,a5,a3
    29dc:	01079793          	slli	a5,a5,0x10
    29e0:	01075713          	srli	a4,a4,0x10
    29e4:	00e78733          	add	a4,a5,a4
    29e8:	41f75313          	srai	t1,a4,0x1f
    29ec:	02e306b3          	mul	a3,t1,a4
    29f0:	02e707b3          	mul	a5,a4,a4
    29f4:	02e735b3          	mulhu	a1,a4,a4
    29f8:	20b6a6b3          	sh1add	a3,a3,a1
    29fc:	01069693          	slli	a3,a3,0x10
    2a00:	0107d793          	srli	a5,a5,0x10
    2a04:	00f687b3          	add	a5,a3,a5
    2a08:	41f7d813          	srai	a6,a5,0x1f
    2a0c:	010a9a93          	slli	s5,s5,0x10
    2a10:	41fad693          	srai	a3,s5,0x1f
    2a14:	0000b8b7          	lui	a7,0xb
    2a18:	17288893          	addi	a7,a7,370 # b172 <__divdi3+0x52>
    2a1c:	031686b3          	mul	a3,a3,a7
    2a20:	031a85b3          	mul	a1,s5,a7
    2a24:	031abab3          	mulhu	s5,s5,a7
    2a28:	015686b3          	add	a3,a3,s5
    2a2c:	01069693          	slli	a3,a3,0x10
    2a30:	0105d593          	srli	a1,a1,0x10
    2a34:	00b685b3          	add	a1,a3,a1
    2a38:	00bb85b3          	add	a1,s7,a1
    2a3c:	000028b7          	lui	a7,0x2
    2a40:	5e288893          	addi	a7,a7,1506 # 25e2 <inferenceTPG+0x1a92>
    2a44:	03180e33          	mul	t3,a6,a7
    2a48:	031786b3          	mul	a3,a5,a7
    2a4c:	0317b8b3          	mulhu	a7,a5,a7
    2a50:	011e08b3          	add	a7,t3,a7
    2a54:	01089893          	slli	a7,a7,0x10
    2a58:	0106d693          	srli	a3,a3,0x10
    2a5c:	00d886b3          	add	a3,a7,a3
    2a60:	000038b7          	lui	a7,0x3
    2a64:	e8d88893          	addi	a7,a7,-371 # 2e8d <inferenceTPG+0x233d>
    2a68:	011686b3          	add	a3,a3,a7
    2a6c:	41f6de13          	srai	t3,a3,0x1f
    2a70:	02fe0e33          	mul	t3,t3,a5
    2a74:	02d808b3          	mul	a7,a6,a3
    2a78:	011e0e33          	add	t3,t3,a7
    2a7c:	02f688b3          	mul	a7,a3,a5
    2a80:	02f6b6b3          	mulhu	a3,a3,a5
    2a84:	00de06b3          	add	a3,t3,a3
    2a88:	01069693          	slli	a3,a3,0x10
    2a8c:	0108d893          	srli	a7,a7,0x10
    2a90:	011688b3          	add	a7,a3,a7
    2a94:	000056b7          	lui	a3,0x5
    2a98:	92568693          	addi	a3,a3,-1755 # 4925 <__heap_size+0x925>
    2a9c:	00d888b3          	add	a7,a7,a3
    2aa0:	41f8de13          	srai	t3,a7,0x1f
    2aa4:	02fe0e33          	mul	t3,t3,a5
    2aa8:	031806b3          	mul	a3,a6,a7
    2aac:	00de0e33          	add	t3,t3,a3
    2ab0:	02f886b3          	mul	a3,a7,a5
    2ab4:	02f8b8b3          	mulhu	a7,a7,a5
    2ab8:	011e08b3          	add	a7,t3,a7
    2abc:	01089893          	slli	a7,a7,0x10
    2ac0:	0106d693          	srli	a3,a3,0x10
    2ac4:	00d886b3          	add	a3,a7,a3
    2ac8:	0000b8b7          	lui	a7,0xb
    2acc:	aab88893          	addi	a7,a7,-1365 # aaab <__subdf3+0x17b>
    2ad0:	011686b3          	add	a3,a3,a7
    2ad4:	41f6d893          	srai	a7,a3,0x1f
    2ad8:	02e888b3          	mul	a7,a7,a4
    2adc:	02d30333          	mul	t1,t1,a3
    2ae0:	00688333          	add	t1,a7,t1
    2ae4:	02e688b3          	mul	a7,a3,a4
    2ae8:	02e6b6b3          	mulhu	a3,a3,a4
    2aec:	00d30733          	add	a4,t1,a3
    2af0:	01071713          	slli	a4,a4,0x10
    2af4:	0108d893          	srli	a7,a7,0x10
    2af8:	011708b3          	add	a7,a4,a7
    2afc:	00002737          	lui	a4,0x2
    2b00:	73470713          	addi	a4,a4,1844 # 2734 <inferenceTPG+0x1be4>
    2b04:	02e80333          	mul	t1,a6,a4
    2b08:	02e786b3          	mul	a3,a5,a4
    2b0c:	02e7b733          	mulhu	a4,a5,a4
    2b10:	00e30733          	add	a4,t1,a4
    2b14:	01071713          	slli	a4,a4,0x10
    2b18:	0106d693          	srli	a3,a3,0x10
    2b1c:	00d706b3          	add	a3,a4,a3
    2b20:	00004737          	lui	a4,0x4
    2b24:	8e470713          	addi	a4,a4,-1820 # 38e4 <inferenceTPG+0x2d94>
    2b28:	00e686b3          	add	a3,a3,a4
    2b2c:	41f6d313          	srai	t1,a3,0x1f
    2b30:	02f30333          	mul	t1,t1,a5
    2b34:	02d80733          	mul	a4,a6,a3
    2b38:	00e30333          	add	t1,t1,a4
    2b3c:	02f68733          	mul	a4,a3,a5
    2b40:	02f6b6b3          	mulhu	a3,a3,a5
    2b44:	00d306b3          	add	a3,t1,a3
    2b48:	01069693          	slli	a3,a3,0x10
    2b4c:	01075713          	srli	a4,a4,0x10
    2b50:	00e68733          	add	a4,a3,a4
    2b54:	000066b7          	lui	a3,0x6
    2b58:	66668693          	addi	a3,a3,1638 # 6666 <__heap_size+0x2666>
    2b5c:	00d70733          	add	a4,a4,a3
    2b60:	41f75693          	srai	a3,a4,0x1f
    2b64:	02f686b3          	mul	a3,a3,a5
    2b68:	02e80833          	mul	a6,a6,a4
    2b6c:	010686b3          	add	a3,a3,a6
    2b70:	02f70833          	mul	a6,a4,a5
    2b74:	02f73733          	mulhu	a4,a4,a5
    2b78:	00e687b3          	add	a5,a3,a4
    2b7c:	01079793          	slli	a5,a5,0x10
    2b80:	01085713          	srli	a4,a6,0x10
    2b84:	00e78733          	add	a4,a5,a4
    2b88:	00e888b3          	add	a7,a7,a4
    2b8c:	411b87b3          	sub	a5,s7,a7
    2b90:	41f7d713          	srai	a4,a5,0x1f
    2b94:	02a70733          	mul	a4,a4,a0
    2b98:	02f60633          	mul	a2,a2,a5
    2b9c:	00c70733          	add	a4,a4,a2
    2ba0:	02a786b3          	mul	a3,a5,a0
    2ba4:	02a7b7b3          	mulhu	a5,a5,a0
    2ba8:	00f707b3          	add	a5,a4,a5
    2bac:	01079793          	slli	a5,a5,0x10
    2bb0:	0106d713          	srli	a4,a3,0x10
    2bb4:	00e78733          	add	a4,a5,a4
    2bb8:	40e585b3          	sub	a1,a1,a4
    2bbc:	0cb12a23          	sw	a1,212(sp)
    2bc0:	00492a83          	lw	s5,4(s2)
    2bc4:	01092603          	lw	a2,16(s2)
    2bc8:	02060263          	beqz	a2,2bec <inferenceTPG+0x209c>
    2bcc:	41fad793          	srai	a5,s5,0x1f
    2bd0:	010ad593          	srli	a1,s5,0x10
    2bd4:	01079793          	slli	a5,a5,0x10
    2bd8:	41f65693          	srai	a3,a2,0x1f
    2bdc:	010a9513          	slli	a0,s5,0x10
    2be0:	00f585b3          	add	a1,a1,a5
    2be4:	53c080ef          	jal	b120 <__divdi3>
    2be8:	00050613          	mv	a2,a0
    2bec:	0cc12c23          	sw	a2,216(sp)
    2bf0:	0084a783          	lw	a5,8(s1)
    2bf4:	00078b93          	mv	s7,a5
    2bf8:	0ba7e7b3          	max	a5,a5,s10
    2bfc:	0cf12e23          	sw	a5,220(sp)
    2c00:	417c87b3          	sub	a5,s9,s7
    2c04:	0ef12023          	sw	a5,224(sp)
    2c08:	020c8663          	beqz	s9,2c34 <inferenceTPG+0x20e4>
    2c0c:	0004a503          	lw	a0,0(s1)
    2c10:	41f55793          	srai	a5,a0,0x1f
    2c14:	01055593          	srli	a1,a0,0x10
    2c18:	01079793          	slli	a5,a5,0x10
    2c1c:	000c8613          	mv	a2,s9
    2c20:	41fcd693          	srai	a3,s9,0x1f
    2c24:	01051513          	slli	a0,a0,0x10
    2c28:	00f585b3          	add	a1,a1,a5
    2c2c:	4f4080ef          	jal	b120 <__divdi3>
    2c30:	00050c93          	mv	s9,a0
    2c34:	0f912223          	sw	s9,228(sp)
    2c38:	000107b7          	lui	a5,0x10
    2c3c:	180a8e63          	beqz	s5,2dd8 <inferenceTPG+0x2288>
    2c40:	415006b3          	neg	a3,s5
    2c44:	0adae6b3          	max	a3,s5,a3
    2c48:	41f6d713          	srai	a4,a3,0x1f
    2c4c:	00017637          	lui	a2,0x17
    2c50:	15460613          	addi	a2,a2,340 # 17154 <heap.cpp.6b15d6f6+0x9c7>
    2c54:	02c70733          	mul	a4,a4,a2
    2c58:	02c687b3          	mul	a5,a3,a2
    2c5c:	02c6b6b3          	mulhu	a3,a3,a2
    2c60:	00d70733          	add	a4,a4,a3
    2c64:	01071713          	slli	a4,a4,0x10
    2c68:	0107d793          	srli	a5,a5,0x10
    2c6c:	00f707b3          	add	a5,a4,a5
    2c70:	00008737          	lui	a4,0x8
    2c74:	00e787b3          	add	a5,a5,a4
    2c78:	ffff0737          	lui	a4,0xffff0
    2c7c:	00e7f7b3          	and	a5,a5,a4
    2c80:	00078c93          	mv	s9,a5
    2c84:	1a0ac663          	bltz	s5,2e30 <inferenceTPG+0x22e0>
    2c88:	41fcd713          	srai	a4,s9,0x1f
    2c8c:	0000b6b7          	lui	a3,0xb
    2c90:	17268693          	addi	a3,a3,370 # b172 <__divdi3+0x52>
    2c94:	02d70733          	mul	a4,a4,a3
    2c98:	02dc87b3          	mul	a5,s9,a3
    2c9c:	02dcb6b3          	mulhu	a3,s9,a3
    2ca0:	00d70733          	add	a4,a4,a3
    2ca4:	01071713          	slli	a4,a4,0x10
    2ca8:	0107d793          	srli	a5,a5,0x10
    2cac:	00f707b3          	add	a5,a4,a5
    2cb0:	40fa87b3          	sub	a5,s5,a5
    2cb4:	41f7d693          	srai	a3,a5,0x1f
    2cb8:	02f686b3          	mul	a3,a3,a5
    2cbc:	02f78733          	mul	a4,a5,a5
    2cc0:	02f7b633          	mulhu	a2,a5,a5
    2cc4:	20c6a6b3          	sh1add	a3,a3,a2
    2cc8:	01069693          	slli	a3,a3,0x10
    2ccc:	01075713          	srli	a4,a4,0x10
    2cd0:	00e68733          	add	a4,a3,a4
    2cd4:	41f75513          	srai	a0,a4,0x1f
    2cd8:	01e75693          	srli	a3,a4,0x1e
    2cdc:	20d546b3          	sh2add	a3,a0,a3
    2ce0:	00271613          	slli	a2,a4,0x2
    2ce4:	01069693          	slli	a3,a3,0x10
    2ce8:	01065613          	srli	a2,a2,0x10
    2cec:	00c68633          	add	a2,a3,a2
    2cf0:	f4a60613          	addi	a2,a2,-182
    2cf4:	41f65593          	srai	a1,a2,0x1f
    2cf8:	02e585b3          	mul	a1,a1,a4
    2cfc:	02c506b3          	mul	a3,a0,a2
    2d00:	00d585b3          	add	a1,a1,a3
    2d04:	02e606b3          	mul	a3,a2,a4
    2d08:	02e63633          	mulhu	a2,a2,a4
    2d0c:	00c58633          	add	a2,a1,a2
    2d10:	01061613          	slli	a2,a2,0x10
    2d14:	0106d693          	srli	a3,a3,0x10
    2d18:	00d606b3          	add	a3,a2,a3
    2d1c:	00003637          	lui	a2,0x3
    2d20:	aab60613          	addi	a2,a2,-1365 # 2aab <inferenceTPG+0x1f5b>
    2d24:	00c686b3          	add	a3,a3,a2
    2d28:	41f6d613          	srai	a2,a3,0x1f
    2d2c:	02e60633          	mul	a2,a2,a4
    2d30:	02d50533          	mul	a0,a0,a3
    2d34:	00a60633          	add	a2,a2,a0
    2d38:	02e685b3          	mul	a1,a3,a4
    2d3c:	02e6b6b3          	mulhu	a3,a3,a4
    2d40:	00d60733          	add	a4,a2,a3
    2d44:	01071713          	slli	a4,a4,0x10
    2d48:	0105d693          	srli	a3,a1,0x10
    2d4c:	00d706b3          	add	a3,a4,a3
    2d50:	00020737          	lui	a4,0x20
    2d54:	00e686b3          	add	a3,a3,a4
    2d58:	40f68633          	sub	a2,a3,a5
    2d5c:	02f68c63          	beq	a3,a5,2d94 <inferenceTPG+0x2244>
    2d60:	00f7d713          	srli	a4,a5,0xf
    2d64:	01179793          	slli	a5,a5,0x11
    2d68:	01071713          	slli	a4,a4,0x10
    2d6c:	0107d793          	srli	a5,a5,0x10
    2d70:	00f707b3          	add	a5,a4,a5
    2d74:	41f7d713          	srai	a4,a5,0x1f
    2d78:	0107d593          	srli	a1,a5,0x10
    2d7c:	01071713          	slli	a4,a4,0x10
    2d80:	41f65693          	srai	a3,a2,0x1f
    2d84:	01079513          	slli	a0,a5,0x10
    2d88:	00e585b3          	add	a1,a1,a4
    2d8c:	394080ef          	jal	b120 <__divdi3>
    2d90:	00050613          	mv	a2,a0
    2d94:	000107b7          	lui	a5,0x10
    2d98:	00f606b3          	add	a3,a2,a5
    2d9c:	0a0cc063          	bltz	s9,2e3c <inferenceTPG+0x22ec>
    2da0:	410cd793          	srai	a5,s9,0x10
    2da4:	00010737          	lui	a4,0x10
    2da8:	00f71733          	sll	a4,a4,a5
    2dac:	41f75793          	srai	a5,a4,0x1f
    2db0:	41f6d613          	srai	a2,a3,0x1f
    2db4:	02d787b3          	mul	a5,a5,a3
    2db8:	02e60633          	mul	a2,a2,a4
    2dbc:	00c787b3          	add	a5,a5,a2
    2dc0:	02d70633          	mul	a2,a4,a3
    2dc4:	02d73733          	mulhu	a4,a4,a3
    2dc8:	00e787b3          	add	a5,a5,a4
    2dcc:	01079793          	slli	a5,a5,0x10
    2dd0:	01065713          	srli	a4,a2,0x10
    2dd4:	00e787b3          	add	a5,a5,a4
    2dd8:	0ef12423          	sw	a5,232(sp)
    2ddc:	020b8663          	beqz	s7,2e08 <inferenceTPG+0x22b8>
    2de0:	00092503          	lw	a0,0(s2)
    2de4:	41f55793          	srai	a5,a0,0x1f
    2de8:	01055593          	srli	a1,a0,0x10
    2dec:	01079793          	slli	a5,a5,0x10
    2df0:	000b8613          	mv	a2,s7
    2df4:	41fbd693          	srai	a3,s7,0x1f
    2df8:	01051513          	slli	a0,a0,0x10
    2dfc:	00f585b3          	add	a1,a1,a5
    2e00:	320080ef          	jal	b120 <__divdi3>
    2e04:	00050b93          	mv	s7,a0
    2e08:	0f712623          	sw	s7,236(sp)
    2e0c:	0d010713          	addi	a4,sp,208
    2e10:	00000593          	li	a1,0
    2e14:	00100793          	li	a5,1
    2e18:	00800613          	li	a2,8
    2e1c:	0400006f          	j	2e5c <inferenceTPG+0x230c>
    2e20:	00000a93          	li	s5,0
    2e24:	b75ff06f          	j	2998 <inferenceTPG+0x1e48>
    2e28:	fff00593          	li	a1,-1
    2e2c:	d91ff06f          	j	2bbc <inferenceTPG+0x206c>
    2e30:	40f007b3          	neg	a5,a5
    2e34:	00078c93          	mv	s9,a5
    2e38:	e51ff06f          	j	2c88 <inferenceTPG+0x2138>
    2e3c:	419007b3          	neg	a5,s9
    2e40:	4107d793          	srai	a5,a5,0x10
    2e44:	00010737          	lui	a4,0x10
    2e48:	40f75733          	sra	a4,a4,a5
    2e4c:	f61ff06f          	j	2dac <inferenceTPG+0x225c>
    2e50:	00178793          	addi	a5,a5,1 # 10001 <fast_intr_ctrl.c.233e5230+0x27c>
    2e54:	00470713          	addi	a4,a4,4 # 10004 <fast_intr_ctrl.c.233e5230+0x27f>
    2e58:	00c78c63          	beq	a5,a2,2e70 <inferenceTPG+0x2320>
    2e5c:	00472683          	lw	a3,4(a4)
    2e60:	ff66c8e3          	blt	a3,s6,2e50 <inferenceTPG+0x2300>
    2e64:	00068b13          	mv	s6,a3
    2e68:	00078593          	mv	a1,a5
    2e6c:	fe5ff06f          	j	2e50 <inferenceTPG+0x2300>
    2e70:	00020737          	lui	a4,0x20
    2e74:	000207b7          	lui	a5,0x20
    2e78:	15078793          	addi	a5,a5,336 # 20150 <next.18>
    2e7c:	20f5c5b3          	sh2add	a1,a1,a5
    2e80:	0005a783          	lw	a5,0(a1)
    2e84:	1fc70713          	addi	a4,a4,508 # 201fc <jump_table.28>
    2e88:	20e7c7b3          	sh2add	a5,a5,a4
    2e8c:	0007a783          	lw	a5,0(a5)
    2e90:	11412d03          	lw	s10,276(sp)
    2e94:	d05fd06f          	j	b98 <inferenceTPG+0x48>
    2e98:	01092683          	lw	a3,16(s2)
    2e9c:	00000b13          	li	s6,0
    2ea0:	2406c063          	bltz	a3,30e0 <inferenceTPG+0x2590>
    2ea4:	42068263          	beqz	a3,32c8 <inferenceTPG+0x2778>
    2ea8:	000207b7          	lui	a5,0x20
    2eac:	40d7da63          	bge	a5,a3,32c0 <inferenceTPG+0x2770>
    2eb0:	00000a93          	li	s5,0
    2eb4:	4016d693          	srai	a3,a3,0x1
    2eb8:	001a8a93          	addi	s5,s5,1
    2ebc:	fed7cce3          	blt	a5,a3,2eb4 <inferenceTPG+0x2364>
    2ec0:	ffff0b37          	lui	s6,0xffff0
    2ec4:	01668b33          	add	s6,a3,s6
    2ec8:	41fb5793          	srai	a5,s6,0x1f
    2ecc:	010b5593          	srli	a1,s6,0x10
    2ed0:	01079793          	slli	a5,a5,0x10
    2ed4:	00010737          	lui	a4,0x10
    2ed8:	00e68633          	add	a2,a3,a4
    2edc:	41f65693          	srai	a3,a2,0x1f
    2ee0:	010b1513          	slli	a0,s6,0x10
    2ee4:	00f585b3          	add	a1,a1,a5
    2ee8:	238080ef          	jal	b120 <__divdi3>
    2eec:	41f55613          	srai	a2,a0,0x1f
    2ef0:	02a607b3          	mul	a5,a2,a0
    2ef4:	02a506b3          	mul	a3,a0,a0
    2ef8:	02a53733          	mulhu	a4,a0,a0
    2efc:	20e7a7b3          	sh1add	a5,a5,a4
    2f00:	01079793          	slli	a5,a5,0x10
    2f04:	0106d693          	srli	a3,a3,0x10
    2f08:	00d786b3          	add	a3,a5,a3
    2f0c:	41f6d313          	srai	t1,a3,0x1f
    2f10:	02d307b3          	mul	a5,t1,a3
    2f14:	02d68733          	mul	a4,a3,a3
    2f18:	02d6b5b3          	mulhu	a1,a3,a3
    2f1c:	20b7a7b3          	sh1add	a5,a5,a1
    2f20:	01079793          	slli	a5,a5,0x10
    2f24:	01075713          	srli	a4,a4,0x10
    2f28:	00e78733          	add	a4,a5,a4
    2f2c:	41f75593          	srai	a1,a4,0x1f
    2f30:	010a9793          	slli	a5,s5,0x10
    2f34:	41f7d893          	srai	a7,a5,0x1f
    2f38:	0000be37          	lui	t3,0xb
    2f3c:	172e0e13          	addi	t3,t3,370 # b172 <__divdi3+0x52>
    2f40:	03c888b3          	mul	a7,a7,t3
    2f44:	03c78833          	mul	a6,a5,t3
    2f48:	03c7b7b3          	mulhu	a5,a5,t3
    2f4c:	00f887b3          	add	a5,a7,a5
    2f50:	01079793          	slli	a5,a5,0x10
    2f54:	01085813          	srli	a6,a6,0x10
    2f58:	01078833          	add	a6,a5,a6
    2f5c:	010b0833          	add	a6,s6,a6
    2f60:	000028b7          	lui	a7,0x2
    2f64:	5e288893          	addi	a7,a7,1506 # 25e2 <inferenceTPG+0x1a92>
    2f68:	03158e33          	mul	t3,a1,a7
    2f6c:	031707b3          	mul	a5,a4,a7
    2f70:	031738b3          	mulhu	a7,a4,a7
    2f74:	011e08b3          	add	a7,t3,a7
    2f78:	01089893          	slli	a7,a7,0x10
    2f7c:	0107d793          	srli	a5,a5,0x10
    2f80:	00f887b3          	add	a5,a7,a5
    2f84:	000038b7          	lui	a7,0x3
    2f88:	e8d88893          	addi	a7,a7,-371 # 2e8d <inferenceTPG+0x233d>
    2f8c:	011787b3          	add	a5,a5,a7
    2f90:	41f7de13          	srai	t3,a5,0x1f
    2f94:	02ee0e33          	mul	t3,t3,a4
    2f98:	02f588b3          	mul	a7,a1,a5
    2f9c:	011e0e33          	add	t3,t3,a7
    2fa0:	02e788b3          	mul	a7,a5,a4
    2fa4:	02e7b7b3          	mulhu	a5,a5,a4
    2fa8:	00fe07b3          	add	a5,t3,a5
    2fac:	01079793          	slli	a5,a5,0x10
    2fb0:	0108d893          	srli	a7,a7,0x10
    2fb4:	011788b3          	add	a7,a5,a7
    2fb8:	000057b7          	lui	a5,0x5
    2fbc:	92578793          	addi	a5,a5,-1755 # 4925 <__heap_size+0x925>
    2fc0:	00f888b3          	add	a7,a7,a5
    2fc4:	41f8de13          	srai	t3,a7,0x1f
    2fc8:	02ee0e33          	mul	t3,t3,a4
    2fcc:	031587b3          	mul	a5,a1,a7
    2fd0:	00fe0e33          	add	t3,t3,a5
    2fd4:	02e887b3          	mul	a5,a7,a4
    2fd8:	02e8b8b3          	mulhu	a7,a7,a4
    2fdc:	011e08b3          	add	a7,t3,a7
    2fe0:	01089893          	slli	a7,a7,0x10
    2fe4:	0107d793          	srli	a5,a5,0x10
    2fe8:	00f887b3          	add	a5,a7,a5
    2fec:	0000b8b7          	lui	a7,0xb
    2ff0:	aab88893          	addi	a7,a7,-1365 # aaab <__subdf3+0x17b>
    2ff4:	011787b3          	add	a5,a5,a7
    2ff8:	41f7d893          	srai	a7,a5,0x1f
    2ffc:	02d888b3          	mul	a7,a7,a3
    3000:	02f30333          	mul	t1,t1,a5
    3004:	00688333          	add	t1,a7,t1
    3008:	02d788b3          	mul	a7,a5,a3
    300c:	02d7b7b3          	mulhu	a5,a5,a3
    3010:	00f307b3          	add	a5,t1,a5
    3014:	01079793          	slli	a5,a5,0x10
    3018:	0108d893          	srli	a7,a7,0x10
    301c:	011788b3          	add	a7,a5,a7
    3020:	000027b7          	lui	a5,0x2
    3024:	73478793          	addi	a5,a5,1844 # 2734 <inferenceTPG+0x1be4>
    3028:	02f58333          	mul	t1,a1,a5
    302c:	02f706b3          	mul	a3,a4,a5
    3030:	02f737b3          	mulhu	a5,a4,a5
    3034:	00f307b3          	add	a5,t1,a5
    3038:	01079793          	slli	a5,a5,0x10
    303c:	0106d693          	srli	a3,a3,0x10
    3040:	00d786b3          	add	a3,a5,a3
    3044:	000047b7          	lui	a5,0x4
    3048:	8e478793          	addi	a5,a5,-1820 # 38e4 <inferenceTPG+0x2d94>
    304c:	00f686b3          	add	a3,a3,a5
    3050:	41f6d313          	srai	t1,a3,0x1f
    3054:	02e30333          	mul	t1,t1,a4
    3058:	02d587b3          	mul	a5,a1,a3
    305c:	00f30333          	add	t1,t1,a5
    3060:	02e687b3          	mul	a5,a3,a4
    3064:	02e6b6b3          	mulhu	a3,a3,a4
    3068:	00d306b3          	add	a3,t1,a3
    306c:	01069693          	slli	a3,a3,0x10
    3070:	0107d793          	srli	a5,a5,0x10
    3074:	00f687b3          	add	a5,a3,a5
    3078:	000066b7          	lui	a3,0x6
    307c:	66668693          	addi	a3,a3,1638 # 6666 <__heap_size+0x2666>
    3080:	00d787b3          	add	a5,a5,a3
    3084:	41f7d693          	srai	a3,a5,0x1f
    3088:	02e686b3          	mul	a3,a3,a4
    308c:	02f585b3          	mul	a1,a1,a5
    3090:	00b686b3          	add	a3,a3,a1
    3094:	02e785b3          	mul	a1,a5,a4
    3098:	02e7b7b3          	mulhu	a5,a5,a4
    309c:	00f687b3          	add	a5,a3,a5
    30a0:	01079793          	slli	a5,a5,0x10
    30a4:	0105d713          	srli	a4,a1,0x10
    30a8:	00e78733          	add	a4,a5,a4
    30ac:	00e888b3          	add	a7,a7,a4
    30b0:	411b07b3          	sub	a5,s6,a7
    30b4:	41f7d713          	srai	a4,a5,0x1f
    30b8:	02a70733          	mul	a4,a4,a0
    30bc:	02f60633          	mul	a2,a2,a5
    30c0:	00c70733          	add	a4,a4,a2
    30c4:	02a786b3          	mul	a3,a5,a0
    30c8:	02a7b7b3          	mulhu	a5,a5,a0
    30cc:	00f707b3          	add	a5,a4,a5
    30d0:	01079793          	slli	a5,a5,0x10
    30d4:	0106d713          	srli	a4,a3,0x10
    30d8:	00e78733          	add	a4,a5,a4
    30dc:	40e80b33          	sub	s6,a6,a4
    30e0:	0044a783          	lw	a5,4(s1)
    30e4:	00179713          	slli	a4,a5,0x1
    30e8:	00070b93          	mv	s7,a4
    30ec:	00079463          	bnez	a5,30f4 <inferenceTPG+0x25a4>
    30f0:	52c0306f          	j	661c <__heap_size+0x261c>
    30f4:	40f006b3          	neg	a3,a5
    30f8:	0ad7e6b3          	max	a3,a5,a3
    30fc:	41f6d713          	srai	a4,a3,0x1f
    3100:	00017637          	lui	a2,0x17
    3104:	15460613          	addi	a2,a2,340 # 17154 <heap.cpp.6b15d6f6+0x9c7>
    3108:	02c70733          	mul	a4,a4,a2
    310c:	02c68ab3          	mul	s5,a3,a2
    3110:	02c6b6b3          	mulhu	a3,a3,a2
    3114:	00d70733          	add	a4,a4,a3
    3118:	01071713          	slli	a4,a4,0x10
    311c:	010ada93          	srli	s5,s5,0x10
    3120:	01570ab3          	add	s5,a4,s5
    3124:	00008737          	lui	a4,0x8
    3128:	00ea8ab3          	add	s5,s5,a4
    312c:	ffff0737          	lui	a4,0xffff0
    3130:	00eafab3          	and	s5,s5,a4
    3134:	1807ce63          	bltz	a5,32d0 <inferenceTPG+0x2780>
    3138:	41fad713          	srai	a4,s5,0x1f
    313c:	0000b6b7          	lui	a3,0xb
    3140:	17268693          	addi	a3,a3,370 # b172 <__divdi3+0x52>
    3144:	02d70733          	mul	a4,a4,a3
    3148:	02da8633          	mul	a2,s5,a3
    314c:	02dab6b3          	mulhu	a3,s5,a3
    3150:	00d70733          	add	a4,a4,a3
    3154:	01071713          	slli	a4,a4,0x10
    3158:	01065693          	srli	a3,a2,0x10
    315c:	00d706b3          	add	a3,a4,a3
    3160:	40d787b3          	sub	a5,a5,a3
    3164:	41f7d693          	srai	a3,a5,0x1f
    3168:	02f686b3          	mul	a3,a3,a5
    316c:	02f78733          	mul	a4,a5,a5
    3170:	02f7b633          	mulhu	a2,a5,a5
    3174:	20c6a6b3          	sh1add	a3,a3,a2
    3178:	01069693          	slli	a3,a3,0x10
    317c:	01075713          	srli	a4,a4,0x10
    3180:	00e68733          	add	a4,a3,a4
    3184:	41f75513          	srai	a0,a4,0x1f
    3188:	01e75693          	srli	a3,a4,0x1e
    318c:	20d546b3          	sh2add	a3,a0,a3
    3190:	00271613          	slli	a2,a4,0x2
    3194:	01069693          	slli	a3,a3,0x10
    3198:	01065613          	srli	a2,a2,0x10
    319c:	00c68633          	add	a2,a3,a2
    31a0:	f4a60613          	addi	a2,a2,-182
    31a4:	41f65593          	srai	a1,a2,0x1f
    31a8:	02e585b3          	mul	a1,a1,a4
    31ac:	02c506b3          	mul	a3,a0,a2
    31b0:	00d585b3          	add	a1,a1,a3
    31b4:	02e606b3          	mul	a3,a2,a4
    31b8:	02e63633          	mulhu	a2,a2,a4
    31bc:	00c58633          	add	a2,a1,a2
    31c0:	01061613          	slli	a2,a2,0x10
    31c4:	0106d693          	srli	a3,a3,0x10
    31c8:	00d606b3          	add	a3,a2,a3
    31cc:	00003637          	lui	a2,0x3
    31d0:	aab60613          	addi	a2,a2,-1365 # 2aab <inferenceTPG+0x1f5b>
    31d4:	00c686b3          	add	a3,a3,a2
    31d8:	41f6d613          	srai	a2,a3,0x1f
    31dc:	02e60633          	mul	a2,a2,a4
    31e0:	02d50533          	mul	a0,a0,a3
    31e4:	00a60633          	add	a2,a2,a0
    31e8:	02e685b3          	mul	a1,a3,a4
    31ec:	02e6b6b3          	mulhu	a3,a3,a4
    31f0:	00d60733          	add	a4,a2,a3
    31f4:	01071713          	slli	a4,a4,0x10
    31f8:	0105d693          	srli	a3,a1,0x10
    31fc:	00d706b3          	add	a3,a4,a3
    3200:	00020737          	lui	a4,0x20
    3204:	00e686b3          	add	a3,a3,a4
    3208:	40f68633          	sub	a2,a3,a5
    320c:	02f68c63          	beq	a3,a5,3244 <inferenceTPG+0x26f4>
    3210:	00f7d713          	srli	a4,a5,0xf
    3214:	01179793          	slli	a5,a5,0x11
    3218:	01071713          	slli	a4,a4,0x10
    321c:	0107d793          	srli	a5,a5,0x10
    3220:	00f707b3          	add	a5,a4,a5
    3224:	41f7d713          	srai	a4,a5,0x1f
    3228:	0107d593          	srli	a1,a5,0x10
    322c:	01071713          	slli	a4,a4,0x10
    3230:	41f65693          	srai	a3,a2,0x1f
    3234:	01079513          	slli	a0,a5,0x10
    3238:	00e585b3          	add	a1,a1,a4
    323c:	6e5070ef          	jal	b120 <__divdi3>
    3240:	00050613          	mv	a2,a0
    3244:	000107b7          	lui	a5,0x10
    3248:	00f606b3          	add	a3,a2,a5
    324c:	080ac663          	bltz	s5,32d8 <inferenceTPG+0x2788>
    3250:	410ada93          	srai	s5,s5,0x10
    3254:	000107b7          	lui	a5,0x10
    3258:	015797b3          	sll	a5,a5,s5
    325c:	41f7d713          	srai	a4,a5,0x1f
    3260:	41f6d613          	srai	a2,a3,0x1f
    3264:	02d70733          	mul	a4,a4,a3
    3268:	02f60633          	mul	a2,a2,a5
    326c:	00c70733          	add	a4,a4,a2
    3270:	02d78633          	mul	a2,a5,a3
    3274:	02d7b7b3          	mulhu	a5,a5,a3
    3278:	00f70733          	add	a4,a4,a5
    327c:	01071713          	slli	a4,a4,0x10
    3280:	01065793          	srli	a5,a2,0x10
    3284:	00f70733          	add	a4,a4,a5
    3288:	00000793          	li	a5,0
    328c:	016bc663          	blt	s7,s6,3298 <inferenceTPG+0x2748>
    3290:	000b8b13          	mv	s6,s7
    3294:	00100793          	li	a5,1
    3298:	05675863          	bge	a4,s6,32e8 <inferenceTPG+0x2798>
    329c:	000206b7          	lui	a3,0x20
    32a0:	00020737          	lui	a4,0x20
    32a4:	14470713          	addi	a4,a4,324 # 20144 <next.17>
    32a8:	20e7c7b3          	sh2add	a5,a5,a4
    32ac:	0007a783          	lw	a5,0(a5) # 10000 <fast_intr_ctrl.c.233e5230+0x27b>
    32b0:	1fc68713          	addi	a4,a3,508 # 201fc <jump_table.28>
    32b4:	20e7c7b3          	sh2add	a5,a5,a4
    32b8:	0007a783          	lw	a5,0(a5)
    32bc:	8ddfd06f          	j	b98 <inferenceTPG+0x48>
    32c0:	00000a93          	li	s5,0
    32c4:	bfdff06f          	j	2ec0 <inferenceTPG+0x2370>
    32c8:	fff00b13          	li	s6,-1
    32cc:	e15ff06f          	j	30e0 <inferenceTPG+0x2590>
    32d0:	41500ab3          	neg	s5,s5
    32d4:	e65ff06f          	j	3138 <inferenceTPG+0x25e8>
    32d8:	41500733          	neg	a4,s5
    32dc:	41075713          	srai	a4,a4,0x10
    32e0:	40e7d7b3          	sra	a5,a5,a4
    32e4:	f79ff06f          	j	325c <inferenceTPG+0x270c>
    32e8:	00200793          	li	a5,2
    32ec:	fb1ff06f          	j	329c <inferenceTPG+0x274c>
    32f0:	00200793          	li	a5,2
    32f4:	fa9ff06f          	j	329c <inferenceTPG+0x274c>
    32f8:	004a2a83          	lw	s5,4(s4)
    32fc:	000a2783          	lw	a5,0(s4)
    3300:	0afaeab3          	max	s5,s5,a5
    3304:	0044a583          	lw	a1,4(s1)
    3308:	000107b7          	lui	a5,0x10
    330c:	18058c63          	beqz	a1,34a4 <inferenceTPG+0x2954>
    3310:	40b006b3          	neg	a3,a1
    3314:	0ad5e6b3          	max	a3,a1,a3
    3318:	41f6d713          	srai	a4,a3,0x1f
    331c:	000177b7          	lui	a5,0x17
    3320:	15478793          	addi	a5,a5,340 # 17154 <heap.cpp.6b15d6f6+0x9c7>
    3324:	02f70733          	mul	a4,a4,a5
    3328:	02f68b33          	mul	s6,a3,a5
    332c:	02f6b6b3          	mulhu	a3,a3,a5
    3330:	00d70733          	add	a4,a4,a3
    3334:	01071713          	slli	a4,a4,0x10
    3338:	010b5b13          	srli	s6,s6,0x10
    333c:	01670b33          	add	s6,a4,s6
    3340:	000087b7          	lui	a5,0x8
    3344:	00fb0b33          	add	s6,s6,a5
    3348:	ffff07b7          	lui	a5,0xffff0
    334c:	00fb7b33          	and	s6,s6,a5
    3350:	1805ce63          	bltz	a1,34ec <inferenceTPG+0x299c>
    3354:	41fb5713          	srai	a4,s6,0x1f
    3358:	0000b6b7          	lui	a3,0xb
    335c:	17268693          	addi	a3,a3,370 # b172 <__divdi3+0x52>
    3360:	02d70733          	mul	a4,a4,a3
    3364:	02db07b3          	mul	a5,s6,a3
    3368:	02db36b3          	mulhu	a3,s6,a3
    336c:	00d70733          	add	a4,a4,a3
    3370:	01071713          	slli	a4,a4,0x10
    3374:	0107d793          	srli	a5,a5,0x10
    3378:	00f707b3          	add	a5,a4,a5
    337c:	40f585b3          	sub	a1,a1,a5
    3380:	41f5d713          	srai	a4,a1,0x1f
    3384:	02b70733          	mul	a4,a4,a1
    3388:	02b587b3          	mul	a5,a1,a1
    338c:	02b5b6b3          	mulhu	a3,a1,a1
    3390:	20d72733          	sh1add	a4,a4,a3
    3394:	01071713          	slli	a4,a4,0x10
    3398:	0107d793          	srli	a5,a5,0x10
    339c:	00f707b3          	add	a5,a4,a5
    33a0:	41f7d513          	srai	a0,a5,0x1f
    33a4:	01e7d713          	srli	a4,a5,0x1e
    33a8:	20e54733          	sh2add	a4,a0,a4
    33ac:	00279693          	slli	a3,a5,0x2
    33b0:	01071713          	slli	a4,a4,0x10
    33b4:	0106d693          	srli	a3,a3,0x10
    33b8:	00d706b3          	add	a3,a4,a3
    33bc:	f4a68693          	addi	a3,a3,-182
    33c0:	41f6d613          	srai	a2,a3,0x1f
    33c4:	02f60633          	mul	a2,a2,a5
    33c8:	02d50733          	mul	a4,a0,a3
    33cc:	00e60633          	add	a2,a2,a4
    33d0:	02f68733          	mul	a4,a3,a5
    33d4:	02f6b6b3          	mulhu	a3,a3,a5
    33d8:	00d606b3          	add	a3,a2,a3
    33dc:	01069693          	slli	a3,a3,0x10
    33e0:	01075713          	srli	a4,a4,0x10
    33e4:	00e68733          	add	a4,a3,a4
    33e8:	000036b7          	lui	a3,0x3
    33ec:	aab68693          	addi	a3,a3,-1365 # 2aab <inferenceTPG+0x1f5b>
    33f0:	00d70733          	add	a4,a4,a3
    33f4:	41f75693          	srai	a3,a4,0x1f
    33f8:	02f686b3          	mul	a3,a3,a5
    33fc:	02e50533          	mul	a0,a0,a4
    3400:	00a686b3          	add	a3,a3,a0
    3404:	02f70633          	mul	a2,a4,a5
    3408:	02f73733          	mulhu	a4,a4,a5
    340c:	00e687b3          	add	a5,a3,a4
    3410:	01079793          	slli	a5,a5,0x10
    3414:	01065713          	srli	a4,a2,0x10
    3418:	00e78733          	add	a4,a5,a4
    341c:	000207b7          	lui	a5,0x20
    3420:	00f70733          	add	a4,a4,a5
    3424:	40b70633          	sub	a2,a4,a1
    3428:	02b70c63          	beq	a4,a1,3460 <inferenceTPG+0x2910>
    342c:	00f5d713          	srli	a4,a1,0xf
    3430:	01159793          	slli	a5,a1,0x11
    3434:	01071713          	slli	a4,a4,0x10
    3438:	0107d793          	srli	a5,a5,0x10
    343c:	00f707b3          	add	a5,a4,a5
    3440:	41f7d713          	srai	a4,a5,0x1f
    3444:	0107d593          	srli	a1,a5,0x10
    3448:	01071713          	slli	a4,a4,0x10
    344c:	41f65693          	srai	a3,a2,0x1f
    3450:	01079513          	slli	a0,a5,0x10
    3454:	00e585b3          	add	a1,a1,a4
    3458:	4c9070ef          	jal	b120 <__divdi3>
    345c:	00050613          	mv	a2,a0
    3460:	000107b7          	lui	a5,0x10
    3464:	00f606b3          	add	a3,a2,a5
    3468:	080b4663          	bltz	s6,34f4 <inferenceTPG+0x29a4>
    346c:	410b5b13          	srai	s6,s6,0x10
    3470:	00010737          	lui	a4,0x10
    3474:	01671733          	sll	a4,a4,s6
    3478:	41f75793          	srai	a5,a4,0x1f
    347c:	41f6d613          	srai	a2,a3,0x1f
    3480:	02d787b3          	mul	a5,a5,a3
    3484:	02e60633          	mul	a2,a2,a4
    3488:	00c787b3          	add	a5,a5,a2
    348c:	02d70633          	mul	a2,a4,a3
    3490:	02d73733          	mulhu	a4,a4,a3
    3494:	00e787b3          	add	a5,a5,a4
    3498:	01079793          	slli	a5,a5,0x10
    349c:	01065713          	srli	a4,a2,0x10
    34a0:	00e787b3          	add	a5,a5,a4
    34a4:	0009a683          	lw	a3,0(s3)
    34a8:	0084a703          	lw	a4,8(s1)
    34ac:	0ae6e6b3          	max	a3,a3,a4
    34b0:	00100713          	li	a4,1
    34b4:	0157d663          	bge	a5,s5,34c0 <inferenceTPG+0x2970>
    34b8:	000a8793          	mv	a5,s5
    34bc:	00000713          	li	a4,0
    34c0:	00f6c463          	blt	a3,a5,34c8 <inferenceTPG+0x2978>
    34c4:	00200713          	li	a4,2
    34c8:	000206b7          	lui	a3,0x20
    34cc:	000207b7          	lui	a5,0x20
    34d0:	13878793          	addi	a5,a5,312 # 20138 <next.16>
    34d4:	20f74733          	sh2add	a4,a4,a5
    34d8:	00072783          	lw	a5,0(a4) # 10000 <fast_intr_ctrl.c.233e5230+0x27b>
    34dc:	1fc68713          	addi	a4,a3,508 # 201fc <jump_table.28>
    34e0:	20e7c7b3          	sh2add	a5,a5,a4
    34e4:	0007a783          	lw	a5,0(a5)
    34e8:	eb0fd06f          	j	b98 <inferenceTPG+0x48>
    34ec:	41600b33          	neg	s6,s6
    34f0:	e65ff06f          	j	3354 <inferenceTPG+0x2804>
    34f4:	416007b3          	neg	a5,s6
    34f8:	4107d793          	srai	a5,a5,0x10
    34fc:	00010737          	lui	a4,0x10
    3500:	40f75733          	sra	a4,a4,a5
    3504:	f75ff06f          	j	3478 <inferenceTPG+0x2928>
    3508:	00492783          	lw	a5,4(s2)
    350c:	00010ab7          	lui	s5,0x10
    3510:	18078c63          	beqz	a5,36a8 <inferenceTPG+0x2b58>
    3514:	40f006b3          	neg	a3,a5
    3518:	0ad7e6b3          	max	a3,a5,a3
    351c:	41f6d713          	srai	a4,a3,0x1f
    3520:	00017637          	lui	a2,0x17
    3524:	15460613          	addi	a2,a2,340 # 17154 <heap.cpp.6b15d6f6+0x9c7>
    3528:	02c70733          	mul	a4,a4,a2
    352c:	02c68ab3          	mul	s5,a3,a2
    3530:	02c6b6b3          	mulhu	a3,a3,a2
    3534:	00d70733          	add	a4,a4,a3
    3538:	01071713          	slli	a4,a4,0x10
    353c:	010ada93          	srli	s5,s5,0x10
    3540:	01570ab3          	add	s5,a4,s5
    3544:	00008737          	lui	a4,0x8
    3548:	00ea8ab3          	add	s5,s5,a4
    354c:	ffff0737          	lui	a4,0xffff0
    3550:	00eafab3          	and	s5,s5,a4
    3554:	3207cc63          	bltz	a5,388c <inferenceTPG+0x2d3c>
    3558:	41fad713          	srai	a4,s5,0x1f
    355c:	0000b6b7          	lui	a3,0xb
    3560:	17268693          	addi	a3,a3,370 # b172 <__divdi3+0x52>
    3564:	02d70733          	mul	a4,a4,a3
    3568:	02da8633          	mul	a2,s5,a3
    356c:	02dab6b3          	mulhu	a3,s5,a3
    3570:	00d70733          	add	a4,a4,a3
    3574:	01071713          	slli	a4,a4,0x10
    3578:	01065693          	srli	a3,a2,0x10
    357c:	00d706b3          	add	a3,a4,a3
    3580:	40d787b3          	sub	a5,a5,a3
    3584:	41f7d693          	srai	a3,a5,0x1f
    3588:	02f686b3          	mul	a3,a3,a5
    358c:	02f78733          	mul	a4,a5,a5
    3590:	02f7b633          	mulhu	a2,a5,a5
    3594:	20c6a6b3          	sh1add	a3,a3,a2
    3598:	01069693          	slli	a3,a3,0x10
    359c:	01075713          	srli	a4,a4,0x10
    35a0:	00e68733          	add	a4,a3,a4
    35a4:	41f75513          	srai	a0,a4,0x1f
    35a8:	01e75693          	srli	a3,a4,0x1e
    35ac:	20d546b3          	sh2add	a3,a0,a3
    35b0:	00271613          	slli	a2,a4,0x2
    35b4:	01069693          	slli	a3,a3,0x10
    35b8:	01065613          	srli	a2,a2,0x10
    35bc:	00c68633          	add	a2,a3,a2
    35c0:	f4a60613          	addi	a2,a2,-182
    35c4:	41f65593          	srai	a1,a2,0x1f
    35c8:	02e585b3          	mul	a1,a1,a4
    35cc:	02c506b3          	mul	a3,a0,a2
    35d0:	00d585b3          	add	a1,a1,a3
    35d4:	02e606b3          	mul	a3,a2,a4
    35d8:	02e63633          	mulhu	a2,a2,a4
    35dc:	00c58633          	add	a2,a1,a2
    35e0:	01061613          	slli	a2,a2,0x10
    35e4:	0106d693          	srli	a3,a3,0x10
    35e8:	00d606b3          	add	a3,a2,a3
    35ec:	00003637          	lui	a2,0x3
    35f0:	aab60613          	addi	a2,a2,-1365 # 2aab <inferenceTPG+0x1f5b>
    35f4:	00c686b3          	add	a3,a3,a2
    35f8:	41f6d613          	srai	a2,a3,0x1f
    35fc:	02e60633          	mul	a2,a2,a4
    3600:	02d50533          	mul	a0,a0,a3
    3604:	00a60633          	add	a2,a2,a0
    3608:	02e685b3          	mul	a1,a3,a4
    360c:	02e6b6b3          	mulhu	a3,a3,a4
    3610:	00d60733          	add	a4,a2,a3
    3614:	01071713          	slli	a4,a4,0x10
    3618:	0105d693          	srli	a3,a1,0x10
    361c:	00d706b3          	add	a3,a4,a3
    3620:	00020737          	lui	a4,0x20
    3624:	00e686b3          	add	a3,a3,a4
    3628:	40f68633          	sub	a2,a3,a5
    362c:	02f68c63          	beq	a3,a5,3664 <inferenceTPG+0x2b14>
    3630:	00f7d713          	srli	a4,a5,0xf
    3634:	01179793          	slli	a5,a5,0x11
    3638:	01071713          	slli	a4,a4,0x10
    363c:	0107d793          	srli	a5,a5,0x10
    3640:	00f707b3          	add	a5,a4,a5
    3644:	41f7d713          	srai	a4,a5,0x1f
    3648:	0107d593          	srli	a1,a5,0x10
    364c:	01071713          	slli	a4,a4,0x10
    3650:	41f65693          	srai	a3,a2,0x1f
    3654:	01079513          	slli	a0,a5,0x10
    3658:	00e585b3          	add	a1,a1,a4
    365c:	2c5070ef          	jal	b120 <__divdi3>
    3660:	00050613          	mv	a2,a0
    3664:	000107b7          	lui	a5,0x10
    3668:	00f606b3          	add	a3,a2,a5
    366c:	220ac463          	bltz	s5,3894 <inferenceTPG+0x2d44>
    3670:	410ada93          	srai	s5,s5,0x10
    3674:	000107b7          	lui	a5,0x10
    3678:	015797b3          	sll	a5,a5,s5
    367c:	41f7da93          	srai	s5,a5,0x1f
    3680:	41f6d713          	srai	a4,a3,0x1f
    3684:	02da8ab3          	mul	s5,s5,a3
    3688:	02f70733          	mul	a4,a4,a5
    368c:	00ea8ab3          	add	s5,s5,a4
    3690:	02d78733          	mul	a4,a5,a3
    3694:	02d7b7b3          	mulhu	a5,a5,a3
    3698:	00fa8ab3          	add	s5,s5,a5
    369c:	010a9a93          	slli	s5,s5,0x10
    36a0:	01075793          	srli	a5,a4,0x10
    36a4:	00fa8ab3          	add	s5,s5,a5
    36a8:	03512423          	sw	s5,40(sp)
    36ac:	0089a783          	lw	a5,8(s3)
    36b0:	00092703          	lw	a4,0(s2)
    36b4:	40e787b3          	sub	a5,a5,a4
    36b8:	02f12623          	sw	a5,44(sp)
    36bc:	0044a783          	lw	a5,4(s1)
    36c0:	00010737          	lui	a4,0x10
    36c4:	18078c63          	beqz	a5,385c <inferenceTPG+0x2d0c>
    36c8:	40f006b3          	neg	a3,a5
    36cc:	0ad7e6b3          	max	a3,a5,a3
    36d0:	41f6d713          	srai	a4,a3,0x1f
    36d4:	00017637          	lui	a2,0x17
    36d8:	15460613          	addi	a2,a2,340 # 17154 <heap.cpp.6b15d6f6+0x9c7>
    36dc:	02c70733          	mul	a4,a4,a2
    36e0:	02c68b33          	mul	s6,a3,a2
    36e4:	02c6b6b3          	mulhu	a3,a3,a2
    36e8:	00d70733          	add	a4,a4,a3
    36ec:	01071713          	slli	a4,a4,0x10
    36f0:	010b5b13          	srli	s6,s6,0x10
    36f4:	01670b33          	add	s6,a4,s6
    36f8:	00008737          	lui	a4,0x8
    36fc:	00eb0b33          	add	s6,s6,a4
    3700:	ffff0737          	lui	a4,0xffff0
    3704:	00eb7b33          	and	s6,s6,a4
    3708:	1807ce63          	bltz	a5,38a4 <inferenceTPG+0x2d54>
    370c:	41fb5713          	srai	a4,s6,0x1f
    3710:	0000b6b7          	lui	a3,0xb
    3714:	17268693          	addi	a3,a3,370 # b172 <__divdi3+0x52>
    3718:	02d70733          	mul	a4,a4,a3
    371c:	02db0633          	mul	a2,s6,a3
    3720:	02db36b3          	mulhu	a3,s6,a3
    3724:	00d70733          	add	a4,a4,a3
    3728:	01071713          	slli	a4,a4,0x10
    372c:	01065693          	srli	a3,a2,0x10
    3730:	00d706b3          	add	a3,a4,a3
    3734:	40d785b3          	sub	a1,a5,a3
    3738:	41f5d713          	srai	a4,a1,0x1f
    373c:	02b70733          	mul	a4,a4,a1
    3740:	02b587b3          	mul	a5,a1,a1
    3744:	02b5b6b3          	mulhu	a3,a1,a1
    3748:	20d72733          	sh1add	a4,a4,a3
    374c:	01071713          	slli	a4,a4,0x10
    3750:	0107d793          	srli	a5,a5,0x10
    3754:	00f707b3          	add	a5,a4,a5
    3758:	41f7d513          	srai	a0,a5,0x1f
    375c:	01e7d713          	srli	a4,a5,0x1e
    3760:	20e54733          	sh2add	a4,a0,a4
    3764:	00279693          	slli	a3,a5,0x2
    3768:	01071713          	slli	a4,a4,0x10
    376c:	0106d693          	srli	a3,a3,0x10
    3770:	00d706b3          	add	a3,a4,a3
    3774:	f4a68693          	addi	a3,a3,-182
    3778:	41f6d613          	srai	a2,a3,0x1f
    377c:	02f60633          	mul	a2,a2,a5
    3780:	02d50733          	mul	a4,a0,a3
    3784:	00e60633          	add	a2,a2,a4
    3788:	02f68733          	mul	a4,a3,a5
    378c:	02f6b6b3          	mulhu	a3,a3,a5
    3790:	00d606b3          	add	a3,a2,a3
    3794:	01069693          	slli	a3,a3,0x10
    3798:	01075713          	srli	a4,a4,0x10
    379c:	00e68733          	add	a4,a3,a4
    37a0:	000036b7          	lui	a3,0x3
    37a4:	aab68693          	addi	a3,a3,-1365 # 2aab <inferenceTPG+0x1f5b>
    37a8:	00d70733          	add	a4,a4,a3
    37ac:	41f75693          	srai	a3,a4,0x1f
    37b0:	02f686b3          	mul	a3,a3,a5
    37b4:	02e50533          	mul	a0,a0,a4
    37b8:	00a686b3          	add	a3,a3,a0
    37bc:	02f70633          	mul	a2,a4,a5
    37c0:	02f73733          	mulhu	a4,a4,a5
    37c4:	00e687b3          	add	a5,a3,a4
    37c8:	01079793          	slli	a5,a5,0x10
    37cc:	01065713          	srli	a4,a2,0x10
    37d0:	00e78733          	add	a4,a5,a4
    37d4:	000207b7          	lui	a5,0x20
    37d8:	00f70733          	add	a4,a4,a5
    37dc:	40b70633          	sub	a2,a4,a1
    37e0:	02b70c63          	beq	a4,a1,3818 <inferenceTPG+0x2cc8>
    37e4:	00f5d713          	srli	a4,a1,0xf
    37e8:	01159793          	slli	a5,a1,0x11
    37ec:	01071713          	slli	a4,a4,0x10
    37f0:	0107d793          	srli	a5,a5,0x10
    37f4:	00f707b3          	add	a5,a4,a5
    37f8:	41f7d713          	srai	a4,a5,0x1f
    37fc:	0107d593          	srli	a1,a5,0x10
    3800:	01071713          	slli	a4,a4,0x10
    3804:	41f65693          	srai	a3,a2,0x1f
    3808:	01079513          	slli	a0,a5,0x10
    380c:	00e585b3          	add	a1,a1,a4
    3810:	111070ef          	jal	b120 <__divdi3>
    3814:	00050613          	mv	a2,a0
    3818:	000107b7          	lui	a5,0x10
    381c:	00f606b3          	add	a3,a2,a5
    3820:	080b4663          	bltz	s6,38ac <inferenceTPG+0x2d5c>
    3824:	410b5b13          	srai	s6,s6,0x10
    3828:	000107b7          	lui	a5,0x10
    382c:	016797b3          	sll	a5,a5,s6
    3830:	41f7d713          	srai	a4,a5,0x1f
    3834:	41f6d613          	srai	a2,a3,0x1f
    3838:	02d70733          	mul	a4,a4,a3
    383c:	02f60633          	mul	a2,a2,a5
    3840:	00c70733          	add	a4,a4,a2
    3844:	02d78633          	mul	a2,a5,a3
    3848:	02d7b7b3          	mulhu	a5,a5,a3
    384c:	00f70733          	add	a4,a4,a5
    3850:	01071713          	slli	a4,a4,0x10
    3854:	01065793          	srli	a5,a2,0x10
    3858:	00f70733          	add	a4,a4,a5
    385c:	02e12823          	sw	a4,48(sp)
    3860:	0084a783          	lw	a5,8(s1)
    3864:	0009a703          	lw	a4,0(s3)
    3868:	0ae7e7b3          	max	a5,a5,a4
    386c:	02f12a23          	sw	a5,52(sp)
    3870:	000a2783          	lw	a5,0(s4)
    3874:	02f12c23          	sw	a5,56(sp)
    3878:	02810713          	addi	a4,sp,40
    387c:	00000593          	li	a1,0
    3880:	00100793          	li	a5,1
    3884:	00500613          	li	a2,5
    3888:	0400006f          	j	38c8 <inferenceTPG+0x2d78>
    388c:	41500ab3          	neg	s5,s5
    3890:	cc9ff06f          	j	3558 <inferenceTPG+0x2a08>
    3894:	41500733          	neg	a4,s5
    3898:	41075713          	srai	a4,a4,0x10
    389c:	40e7d7b3          	sra	a5,a5,a4
    38a0:	dddff06f          	j	367c <inferenceTPG+0x2b2c>
    38a4:	41600b33          	neg	s6,s6
    38a8:	e65ff06f          	j	370c <inferenceTPG+0x2bbc>
    38ac:	41600733          	neg	a4,s6
    38b0:	41075713          	srai	a4,a4,0x10
    38b4:	40e7d7b3          	sra	a5,a5,a4
    38b8:	f79ff06f          	j	3830 <inferenceTPG+0x2ce0>
    38bc:	00178793          	addi	a5,a5,1 # 10001 <fast_intr_ctrl.c.233e5230+0x27c>
    38c0:	00470713          	addi	a4,a4,4 # ffff0004 <_sp+0xfffc60a4>
    38c4:	00c78c63          	beq	a5,a2,38dc <inferenceTPG+0x2d8c>
    38c8:	00472683          	lw	a3,4(a4)
    38cc:	ff56c8e3          	blt	a3,s5,38bc <inferenceTPG+0x2d6c>
    38d0:	00068a93          	mv	s5,a3
    38d4:	00078593          	mv	a1,a5
    38d8:	fe5ff06f          	j	38bc <inferenceTPG+0x2d6c>
    38dc:	00020737          	lui	a4,0x20
    38e0:	000207b7          	lui	a5,0x20
    38e4:	12478793          	addi	a5,a5,292 # 20124 <next.15>
    38e8:	20f5c5b3          	sh2add	a1,a1,a5
    38ec:	0005a783          	lw	a5,0(a1)
    38f0:	1fc70713          	addi	a4,a4,508 # 201fc <jump_table.28>
    38f4:	20e7c7b3          	sh2add	a5,a5,a4
    38f8:	0007a783          	lw	a5,0(a5)
    38fc:	a9cfd06f          	j	b98 <inferenceTPG+0x48>
    3900:	11a12a23          	sw	s10,276(sp)
    3904:	00492a83          	lw	s5,4(s2)
    3908:	01092703          	lw	a4,16(s2)
    390c:	41f75793          	srai	a5,a4,0x1f
    3910:	41fad693          	srai	a3,s5,0x1f
    3914:	035787b3          	mul	a5,a5,s5
    3918:	02e686b3          	mul	a3,a3,a4
    391c:	00d787b3          	add	a5,a5,a3
    3920:	035706b3          	mul	a3,a4,s5
    3924:	03573733          	mulhu	a4,a4,s5
    3928:	00e787b3          	add	a5,a5,a4
    392c:	01079793          	slli	a5,a5,0x10
    3930:	0106d713          	srli	a4,a3,0x10
    3934:	00e787b3          	add	a5,a5,a4
    3938:	00078b93          	mv	s7,a5
    393c:	08f12023          	sw	a5,128(sp)
    3940:	000a9463          	bnez	s5,3948 <inferenceTPG+0x2df8>
    3944:	4790206f          	j	65bc <__heap_size+0x25bc>
    3948:	41500733          	neg	a4,s5
    394c:	0aeae733          	max	a4,s5,a4
    3950:	41f75793          	srai	a5,a4,0x1f
    3954:	000176b7          	lui	a3,0x17
    3958:	15468693          	addi	a3,a3,340 # 17154 <heap.cpp.6b15d6f6+0x9c7>
    395c:	02d787b3          	mul	a5,a5,a3
    3960:	02d70b33          	mul	s6,a4,a3
    3964:	02d73733          	mulhu	a4,a4,a3
    3968:	00e787b3          	add	a5,a5,a4
    396c:	01079793          	slli	a5,a5,0x10
    3970:	010b5b13          	srli	s6,s6,0x10
    3974:	01678b33          	add	s6,a5,s6
    3978:	000087b7          	lui	a5,0x8
    397c:	00fb0b33          	add	s6,s6,a5
    3980:	ffff07b7          	lui	a5,0xffff0
    3984:	00fb7b33          	and	s6,s6,a5
    3988:	3e0ac263          	bltz	s5,3d6c <inferenceTPG+0x321c>
    398c:	41fb5713          	srai	a4,s6,0x1f
    3990:	0000b6b7          	lui	a3,0xb
    3994:	17268693          	addi	a3,a3,370 # b172 <__divdi3+0x52>
    3998:	02d70733          	mul	a4,a4,a3
    399c:	02db07b3          	mul	a5,s6,a3
    39a0:	02db36b3          	mulhu	a3,s6,a3
    39a4:	00d70733          	add	a4,a4,a3
    39a8:	01071713          	slli	a4,a4,0x10
    39ac:	0107d793          	srli	a5,a5,0x10
    39b0:	00f707b3          	add	a5,a4,a5
    39b4:	40fa87b3          	sub	a5,s5,a5
    39b8:	41f7d693          	srai	a3,a5,0x1f
    39bc:	02f686b3          	mul	a3,a3,a5
    39c0:	02f78733          	mul	a4,a5,a5
    39c4:	02f7b633          	mulhu	a2,a5,a5
    39c8:	20c6a6b3          	sh1add	a3,a3,a2
    39cc:	01069693          	slli	a3,a3,0x10
    39d0:	01075713          	srli	a4,a4,0x10
    39d4:	00e68733          	add	a4,a3,a4
    39d8:	41f75513          	srai	a0,a4,0x1f
    39dc:	01e75693          	srli	a3,a4,0x1e
    39e0:	20d546b3          	sh2add	a3,a0,a3
    39e4:	00271613          	slli	a2,a4,0x2
    39e8:	01069693          	slli	a3,a3,0x10
    39ec:	01065613          	srli	a2,a2,0x10
    39f0:	00c68633          	add	a2,a3,a2
    39f4:	f4a60613          	addi	a2,a2,-182
    39f8:	41f65593          	srai	a1,a2,0x1f
    39fc:	02e585b3          	mul	a1,a1,a4
    3a00:	02c506b3          	mul	a3,a0,a2
    3a04:	00d585b3          	add	a1,a1,a3
    3a08:	02e606b3          	mul	a3,a2,a4
    3a0c:	02e63633          	mulhu	a2,a2,a4
    3a10:	00c58633          	add	a2,a1,a2
    3a14:	01061613          	slli	a2,a2,0x10
    3a18:	0106d693          	srli	a3,a3,0x10
    3a1c:	00d606b3          	add	a3,a2,a3
    3a20:	00003637          	lui	a2,0x3
    3a24:	aab60613          	addi	a2,a2,-1365 # 2aab <inferenceTPG+0x1f5b>
    3a28:	00c686b3          	add	a3,a3,a2
    3a2c:	41f6d613          	srai	a2,a3,0x1f
    3a30:	02e60633          	mul	a2,a2,a4
    3a34:	02d50533          	mul	a0,a0,a3
    3a38:	00a60633          	add	a2,a2,a0
    3a3c:	02e685b3          	mul	a1,a3,a4
    3a40:	02e6b6b3          	mulhu	a3,a3,a4
    3a44:	00d60733          	add	a4,a2,a3
    3a48:	01071713          	slli	a4,a4,0x10
    3a4c:	0105d693          	srli	a3,a1,0x10
    3a50:	00d706b3          	add	a3,a4,a3
    3a54:	00020737          	lui	a4,0x20
    3a58:	00e686b3          	add	a3,a3,a4
    3a5c:	40f68633          	sub	a2,a3,a5
    3a60:	02f68c63          	beq	a3,a5,3a98 <inferenceTPG+0x2f48>
    3a64:	00f7d713          	srli	a4,a5,0xf
    3a68:	01179793          	slli	a5,a5,0x11
    3a6c:	01071713          	slli	a4,a4,0x10
    3a70:	0107d793          	srli	a5,a5,0x10
    3a74:	00f707b3          	add	a5,a4,a5
    3a78:	41f7d713          	srai	a4,a5,0x1f
    3a7c:	0107d593          	srli	a1,a5,0x10
    3a80:	01071713          	slli	a4,a4,0x10
    3a84:	41f65693          	srai	a3,a2,0x1f
    3a88:	01079513          	slli	a0,a5,0x10
    3a8c:	00e585b3          	add	a1,a1,a4
    3a90:	690070ef          	jal	b120 <__divdi3>
    3a94:	00050613          	mv	a2,a0
    3a98:	000107b7          	lui	a5,0x10
    3a9c:	00f606b3          	add	a3,a2,a5
    3aa0:	2c0b4a63          	bltz	s6,3d74 <inferenceTPG+0x3224>
    3aa4:	410b5b13          	srai	s6,s6,0x10
    3aa8:	00010737          	lui	a4,0x10
    3aac:	01671733          	sll	a4,a4,s6
    3ab0:	41f75793          	srai	a5,a4,0x1f
    3ab4:	41f6d613          	srai	a2,a3,0x1f
    3ab8:	02d787b3          	mul	a5,a5,a3
    3abc:	02e60633          	mul	a2,a2,a4
    3ac0:	00c787b3          	add	a5,a5,a2
    3ac4:	02d70633          	mul	a2,a4,a3
    3ac8:	02d73733          	mulhu	a4,a4,a3
    3acc:	00e787b3          	add	a5,a5,a4
    3ad0:	01079793          	slli	a5,a5,0x10
    3ad4:	01065713          	srli	a4,a2,0x10
    3ad8:	00e78733          	add	a4,a5,a4
    3adc:	08e12223          	sw	a4,132(sp)
    3ae0:	0044a683          	lw	a3,4(s1)
    3ae4:	00169793          	slli	a5,a3,0x1
    3ae8:	08f12423          	sw	a5,136(sp)
    3aec:	0084a703          	lw	a4,8(s1)
    3af0:	000a2783          	lw	a5,0(s4)
    3af4:	00f707b3          	add	a5,a4,a5
    3af8:	0ad7e7b3          	max	a5,a5,a3
    3afc:	08f12623          	sw	a5,140(sp)
    3b00:	0004a783          	lw	a5,0(s1)
    3b04:	00f707b3          	add	a5,a4,a5
    3b08:	00078d13          	mv	s10,a5
    3b0c:	00000593          	li	a1,0
    3b10:	240ac063          	bltz	s5,3d50 <inferenceTPG+0x3200>
    3b14:	000207b7          	lui	a5,0x20
    3b18:	2757d863          	bge	a5,s5,3d88 <inferenceTPG+0x3238>
    3b1c:	00000b13          	li	s6,0
    3b20:	401ada93          	srai	s5,s5,0x1
    3b24:	001b0b13          	addi	s6,s6,1 # ffff0001 <_sp+0xfffc60a1>
    3b28:	ff57cce3          	blt	a5,s5,3b20 <inferenceTPG+0x2fd0>
    3b2c:	ffff07b7          	lui	a5,0xffff0
    3b30:	00fa87b3          	add	a5,s5,a5
    3b34:	00078c93          	mv	s9,a5
    3b38:	41f7d793          	srai	a5,a5,0x1f
    3b3c:	010cd593          	srli	a1,s9,0x10
    3b40:	01079793          	slli	a5,a5,0x10
    3b44:	00010737          	lui	a4,0x10
    3b48:	00ea8633          	add	a2,s5,a4
    3b4c:	41f65693          	srai	a3,a2,0x1f
    3b50:	010c9513          	slli	a0,s9,0x10
    3b54:	00f585b3          	add	a1,a1,a5
    3b58:	5c8070ef          	jal	b120 <__divdi3>
    3b5c:	41f55613          	srai	a2,a0,0x1f
    3b60:	02a607b3          	mul	a5,a2,a0
    3b64:	02a506b3          	mul	a3,a0,a0
    3b68:	02a53733          	mulhu	a4,a0,a0
    3b6c:	20e7a7b3          	sh1add	a5,a5,a4
    3b70:	01079793          	slli	a5,a5,0x10
    3b74:	0106d693          	srli	a3,a3,0x10
    3b78:	00d786b3          	add	a3,a5,a3
    3b7c:	41f6d313          	srai	t1,a3,0x1f
    3b80:	02d307b3          	mul	a5,t1,a3
    3b84:	02d68733          	mul	a4,a3,a3
    3b88:	02d6b5b3          	mulhu	a1,a3,a3
    3b8c:	20b7a7b3          	sh1add	a5,a5,a1
    3b90:	01079793          	slli	a5,a5,0x10
    3b94:	01075713          	srli	a4,a4,0x10
    3b98:	00e78733          	add	a4,a5,a4
    3b9c:	41f75813          	srai	a6,a4,0x1f
    3ba0:	010b1793          	slli	a5,s6,0x10
    3ba4:	41f7d893          	srai	a7,a5,0x1f
    3ba8:	0000be37          	lui	t3,0xb
    3bac:	172e0e13          	addi	t3,t3,370 # b172 <__divdi3+0x52>
    3bb0:	03c888b3          	mul	a7,a7,t3
    3bb4:	03c785b3          	mul	a1,a5,t3
    3bb8:	03c7b7b3          	mulhu	a5,a5,t3
    3bbc:	00f887b3          	add	a5,a7,a5
    3bc0:	01079793          	slli	a5,a5,0x10
    3bc4:	0105d593          	srli	a1,a1,0x10
    3bc8:	00b785b3          	add	a1,a5,a1
    3bcc:	00bc85b3          	add	a1,s9,a1
    3bd0:	000028b7          	lui	a7,0x2
    3bd4:	5e288893          	addi	a7,a7,1506 # 25e2 <inferenceTPG+0x1a92>
    3bd8:	03180e33          	mul	t3,a6,a7
    3bdc:	031707b3          	mul	a5,a4,a7
    3be0:	031738b3          	mulhu	a7,a4,a7
    3be4:	011e08b3          	add	a7,t3,a7
    3be8:	01089893          	slli	a7,a7,0x10
    3bec:	0107d793          	srli	a5,a5,0x10
    3bf0:	00f887b3          	add	a5,a7,a5
    3bf4:	000038b7          	lui	a7,0x3
    3bf8:	e8d88893          	addi	a7,a7,-371 # 2e8d <inferenceTPG+0x233d>
    3bfc:	011787b3          	add	a5,a5,a7
    3c00:	41f7de13          	srai	t3,a5,0x1f
    3c04:	02ee0e33          	mul	t3,t3,a4
    3c08:	02f808b3          	mul	a7,a6,a5
    3c0c:	011e0e33          	add	t3,t3,a7
    3c10:	02e788b3          	mul	a7,a5,a4
    3c14:	02e7b7b3          	mulhu	a5,a5,a4
    3c18:	00fe07b3          	add	a5,t3,a5
    3c1c:	01079793          	slli	a5,a5,0x10
    3c20:	0108d893          	srli	a7,a7,0x10
    3c24:	011788b3          	add	a7,a5,a7
    3c28:	000057b7          	lui	a5,0x5
    3c2c:	92578793          	addi	a5,a5,-1755 # 4925 <__heap_size+0x925>
    3c30:	00f888b3          	add	a7,a7,a5
    3c34:	41f8de13          	srai	t3,a7,0x1f
    3c38:	02ee0e33          	mul	t3,t3,a4
    3c3c:	031807b3          	mul	a5,a6,a7
    3c40:	00fe0e33          	add	t3,t3,a5
    3c44:	02e887b3          	mul	a5,a7,a4
    3c48:	02e8b8b3          	mulhu	a7,a7,a4
    3c4c:	011e08b3          	add	a7,t3,a7
    3c50:	01089893          	slli	a7,a7,0x10
    3c54:	0107d793          	srli	a5,a5,0x10
    3c58:	00f887b3          	add	a5,a7,a5
    3c5c:	0000b8b7          	lui	a7,0xb
    3c60:	aab88893          	addi	a7,a7,-1365 # aaab <__subdf3+0x17b>
    3c64:	011787b3          	add	a5,a5,a7
    3c68:	41f7d893          	srai	a7,a5,0x1f
    3c6c:	02d888b3          	mul	a7,a7,a3
    3c70:	02f30333          	mul	t1,t1,a5
    3c74:	00688333          	add	t1,a7,t1
    3c78:	02d788b3          	mul	a7,a5,a3
    3c7c:	02d7b7b3          	mulhu	a5,a5,a3
    3c80:	00f307b3          	add	a5,t1,a5
    3c84:	01079793          	slli	a5,a5,0x10
    3c88:	0108d893          	srli	a7,a7,0x10
    3c8c:	011788b3          	add	a7,a5,a7
    3c90:	000027b7          	lui	a5,0x2
    3c94:	73478793          	addi	a5,a5,1844 # 2734 <inferenceTPG+0x1be4>
    3c98:	02f80333          	mul	t1,a6,a5
    3c9c:	02f706b3          	mul	a3,a4,a5
    3ca0:	02f737b3          	mulhu	a5,a4,a5
    3ca4:	00f307b3          	add	a5,t1,a5
    3ca8:	01079793          	slli	a5,a5,0x10
    3cac:	0106d693          	srli	a3,a3,0x10
    3cb0:	00d786b3          	add	a3,a5,a3
    3cb4:	000047b7          	lui	a5,0x4
    3cb8:	8e478793          	addi	a5,a5,-1820 # 38e4 <inferenceTPG+0x2d94>
    3cbc:	00f686b3          	add	a3,a3,a5
    3cc0:	41f6d313          	srai	t1,a3,0x1f
    3cc4:	02e30333          	mul	t1,t1,a4
    3cc8:	02d807b3          	mul	a5,a6,a3
    3ccc:	00f30333          	add	t1,t1,a5
    3cd0:	02e687b3          	mul	a5,a3,a4
    3cd4:	02e6b6b3          	mulhu	a3,a3,a4
    3cd8:	00d306b3          	add	a3,t1,a3
    3cdc:	01069693          	slli	a3,a3,0x10
    3ce0:	0107d793          	srli	a5,a5,0x10
    3ce4:	00f687b3          	add	a5,a3,a5
    3ce8:	000066b7          	lui	a3,0x6
    3cec:	66668693          	addi	a3,a3,1638 # 6666 <__heap_size+0x2666>
    3cf0:	00d787b3          	add	a5,a5,a3
    3cf4:	41f7d693          	srai	a3,a5,0x1f
    3cf8:	02e686b3          	mul	a3,a3,a4
    3cfc:	02f80833          	mul	a6,a6,a5
    3d00:	010686b3          	add	a3,a3,a6
    3d04:	02e78833          	mul	a6,a5,a4
    3d08:	02e7b7b3          	mulhu	a5,a5,a4
    3d0c:	00f687b3          	add	a5,a3,a5
    3d10:	01079793          	slli	a5,a5,0x10
    3d14:	01085713          	srli	a4,a6,0x10
    3d18:	00e78733          	add	a4,a5,a4
    3d1c:	00e888b3          	add	a7,a7,a4
    3d20:	411c87b3          	sub	a5,s9,a7
    3d24:	41f7d713          	srai	a4,a5,0x1f
    3d28:	02a70733          	mul	a4,a4,a0
    3d2c:	02f60633          	mul	a2,a2,a5
    3d30:	00c70733          	add	a4,a4,a2
    3d34:	02a786b3          	mul	a3,a5,a0
    3d38:	02a7b7b3          	mulhu	a5,a5,a0
    3d3c:	00f707b3          	add	a5,a4,a5
    3d40:	01079793          	slli	a5,a5,0x10
    3d44:	0106d713          	srli	a4,a3,0x10
    3d48:	00e78733          	add	a4,a5,a4
    3d4c:	40e585b3          	sub	a1,a1,a4
    3d50:	09a12823          	sw	s10,144(sp)
    3d54:	08b12a23          	sw	a1,148(sp)
    3d58:	08410713          	addi	a4,sp,132
    3d5c:	00000593          	li	a1,0
    3d60:	00100793          	li	a5,1
    3d64:	00600613          	li	a2,6
    3d68:	0340006f          	j	3d9c <inferenceTPG+0x324c>
    3d6c:	41600b33          	neg	s6,s6
    3d70:	c1dff06f          	j	398c <inferenceTPG+0x2e3c>
    3d74:	416007b3          	neg	a5,s6
    3d78:	4107d793          	srai	a5,a5,0x10
    3d7c:	00010737          	lui	a4,0x10
    3d80:	40f75733          	sra	a4,a4,a5
    3d84:	d2dff06f          	j	3ab0 <inferenceTPG+0x2f60>
    3d88:	00000b13          	li	s6,0
    3d8c:	da1ff06f          	j	3b2c <inferenceTPG+0x2fdc>
    3d90:	00178793          	addi	a5,a5,1
    3d94:	00470713          	addi	a4,a4,4 # 10004 <fast_intr_ctrl.c.233e5230+0x27f>
    3d98:	00c78c63          	beq	a5,a2,3db0 <inferenceTPG+0x3260>
    3d9c:	00072683          	lw	a3,0(a4)
    3da0:	ff76c8e3          	blt	a3,s7,3d90 <inferenceTPG+0x3240>
    3da4:	00068b93          	mv	s7,a3
    3da8:	00078593          	mv	a1,a5
    3dac:	fe5ff06f          	j	3d90 <inferenceTPG+0x3240>
    3db0:	00020737          	lui	a4,0x20
    3db4:	000207b7          	lui	a5,0x20
    3db8:	10c78793          	addi	a5,a5,268 # 2010c <next.14>
    3dbc:	20f5c5b3          	sh2add	a1,a1,a5
    3dc0:	0005a783          	lw	a5,0(a1)
    3dc4:	1fc70713          	addi	a4,a4,508 # 201fc <jump_table.28>
    3dc8:	20e7c7b3          	sh2add	a5,a5,a4
    3dcc:	0007a783          	lw	a5,0(a5)
    3dd0:	11412d03          	lw	s10,276(sp)
    3dd4:	dc5fc06f          	j	b98 <inferenceTPG+0x48>
    3dd8:	00092a83          	lw	s5,0(s2)
    3ddc:	0084a783          	lw	a5,8(s1)
    3de0:	00fa8ab3          	add	s5,s5,a5
    3de4:	0044a703          	lw	a4,4(s1)
    3de8:	41f75793          	srai	a5,a4,0x1f
    3dec:	000a2683          	lw	a3,0(s4)
    3df0:	41f6d613          	srai	a2,a3,0x1f
    3df4:	02d787b3          	mul	a5,a5,a3
    3df8:	02e60633          	mul	a2,a2,a4
    3dfc:	00c787b3          	add	a5,a5,a2
    3e00:	02d70633          	mul	a2,a4,a3
    3e04:	02d73733          	mulhu	a4,a4,a3
    3e08:	00e787b3          	add	a5,a5,a4
    3e0c:	01079793          	slli	a5,a5,0x10
    3e10:	01065713          	srli	a4,a2,0x10
    3e14:	00e787b3          	add	a5,a5,a4
    3e18:	00010737          	lui	a4,0x10
    3e1c:	18078c63          	beqz	a5,3fb4 <inferenceTPG+0x3464>
    3e20:	40f006b3          	neg	a3,a5
    3e24:	0ad7e6b3          	max	a3,a5,a3
    3e28:	41f6d713          	srai	a4,a3,0x1f
    3e2c:	00017637          	lui	a2,0x17
    3e30:	15460613          	addi	a2,a2,340 # 17154 <heap.cpp.6b15d6f6+0x9c7>
    3e34:	02c70733          	mul	a4,a4,a2
    3e38:	02c68b33          	mul	s6,a3,a2
    3e3c:	02c6b6b3          	mulhu	a3,a3,a2
    3e40:	00d70733          	add	a4,a4,a3
    3e44:	01071713          	slli	a4,a4,0x10
    3e48:	010b5b13          	srli	s6,s6,0x10
    3e4c:	01670b33          	add	s6,a4,s6
    3e50:	00008737          	lui	a4,0x8
    3e54:	00eb0b33          	add	s6,s6,a4
    3e58:	ffff0737          	lui	a4,0xffff0
    3e5c:	00eb7b33          	and	s6,s6,a4
    3e60:	1807ca63          	bltz	a5,3ff4 <inferenceTPG+0x34a4>
    3e64:	41fb5713          	srai	a4,s6,0x1f
    3e68:	0000b6b7          	lui	a3,0xb
    3e6c:	17268693          	addi	a3,a3,370 # b172 <__divdi3+0x52>
    3e70:	02d70733          	mul	a4,a4,a3
    3e74:	02db0633          	mul	a2,s6,a3
    3e78:	02db36b3          	mulhu	a3,s6,a3
    3e7c:	00d70733          	add	a4,a4,a3
    3e80:	01071713          	slli	a4,a4,0x10
    3e84:	01065693          	srli	a3,a2,0x10
    3e88:	00d706b3          	add	a3,a4,a3
    3e8c:	40d787b3          	sub	a5,a5,a3
    3e90:	41f7d693          	srai	a3,a5,0x1f
    3e94:	02f686b3          	mul	a3,a3,a5
    3e98:	02f78733          	mul	a4,a5,a5
    3e9c:	02f7b633          	mulhu	a2,a5,a5
    3ea0:	20c6a6b3          	sh1add	a3,a3,a2
    3ea4:	01069693          	slli	a3,a3,0x10
    3ea8:	01075713          	srli	a4,a4,0x10
    3eac:	00e68733          	add	a4,a3,a4
    3eb0:	41f75513          	srai	a0,a4,0x1f
    3eb4:	01e75693          	srli	a3,a4,0x1e
    3eb8:	20d546b3          	sh2add	a3,a0,a3
    3ebc:	00271613          	slli	a2,a4,0x2
    3ec0:	01069693          	slli	a3,a3,0x10
    3ec4:	01065613          	srli	a2,a2,0x10
    3ec8:	00c68633          	add	a2,a3,a2
    3ecc:	f4a60613          	addi	a2,a2,-182
    3ed0:	41f65593          	srai	a1,a2,0x1f
    3ed4:	02e585b3          	mul	a1,a1,a4
    3ed8:	02c506b3          	mul	a3,a0,a2
    3edc:	00d585b3          	add	a1,a1,a3
    3ee0:	02e606b3          	mul	a3,a2,a4
    3ee4:	02e63633          	mulhu	a2,a2,a4
    3ee8:	00c58633          	add	a2,a1,a2
    3eec:	01061613          	slli	a2,a2,0x10
    3ef0:	0106d693          	srli	a3,a3,0x10
    3ef4:	00d606b3          	add	a3,a2,a3
    3ef8:	00003637          	lui	a2,0x3
    3efc:	aab60613          	addi	a2,a2,-1365 # 2aab <inferenceTPG+0x1f5b>
    3f00:	00c686b3          	add	a3,a3,a2
    3f04:	41f6d613          	srai	a2,a3,0x1f
    3f08:	02e60633          	mul	a2,a2,a4
    3f0c:	02d50533          	mul	a0,a0,a3
    3f10:	00a60633          	add	a2,a2,a0
    3f14:	02e685b3          	mul	a1,a3,a4
    3f18:	02e6b6b3          	mulhu	a3,a3,a4
    3f1c:	00d60733          	add	a4,a2,a3
    3f20:	01071713          	slli	a4,a4,0x10
    3f24:	0105d693          	srli	a3,a1,0x10
    3f28:	00d706b3          	add	a3,a4,a3
    3f2c:	00020737          	lui	a4,0x20
    3f30:	00e686b3          	add	a3,a3,a4
    3f34:	40f68633          	sub	a2,a3,a5
    3f38:	02f68c63          	beq	a3,a5,3f70 <inferenceTPG+0x3420>
    3f3c:	00f7d713          	srli	a4,a5,0xf
    3f40:	01179793          	slli	a5,a5,0x11
    3f44:	01071713          	slli	a4,a4,0x10
    3f48:	0107d793          	srli	a5,a5,0x10
    3f4c:	00f707b3          	add	a5,a4,a5
    3f50:	41f7d713          	srai	a4,a5,0x1f
    3f54:	0107d593          	srli	a1,a5,0x10
    3f58:	01071713          	slli	a4,a4,0x10
    3f5c:	41f65693          	srai	a3,a2,0x1f
    3f60:	01079513          	slli	a0,a5,0x10
    3f64:	00e585b3          	add	a1,a1,a4
    3f68:	1b8070ef          	jal	b120 <__divdi3>
    3f6c:	00050613          	mv	a2,a0
    3f70:	000107b7          	lui	a5,0x10
    3f74:	00f606b3          	add	a3,a2,a5
    3f78:	080b4263          	bltz	s6,3ffc <inferenceTPG+0x34ac>
    3f7c:	410b5b13          	srai	s6,s6,0x10
    3f80:	000107b7          	lui	a5,0x10
    3f84:	016797b3          	sll	a5,a5,s6
    3f88:	41f7d713          	srai	a4,a5,0x1f
    3f8c:	41f6d613          	srai	a2,a3,0x1f
    3f90:	02d70733          	mul	a4,a4,a3
    3f94:	02f60633          	mul	a2,a2,a5
    3f98:	00c70733          	add	a4,a4,a2
    3f9c:	02d78633          	mul	a2,a5,a3
    3fa0:	02d7b7b3          	mulhu	a5,a5,a3
    3fa4:	00f70733          	add	a4,a4,a5
    3fa8:	01071713          	slli	a4,a4,0x10
    3fac:	01065793          	srli	a5,a2,0x10
    3fb0:	00f70733          	add	a4,a4,a5
    3fb4:	00492683          	lw	a3,4(s2)
    3fb8:	00100793          	li	a5,1
    3fbc:	01575663          	bge	a4,s5,3fc8 <inferenceTPG+0x3478>
    3fc0:	000a8713          	mv	a4,s5
    3fc4:	00000793          	li	a5,0
    3fc8:	00e6c463          	blt	a3,a4,3fd0 <inferenceTPG+0x3480>
    3fcc:	00200793          	li	a5,2
    3fd0:	00020737          	lui	a4,0x20
    3fd4:	000206b7          	lui	a3,0x20
    3fd8:	10068693          	addi	a3,a3,256 # 20100 <next.13>
    3fdc:	20d7c7b3          	sh2add	a5,a5,a3
    3fe0:	0007a783          	lw	a5,0(a5) # 10000 <fast_intr_ctrl.c.233e5230+0x27b>
    3fe4:	1fc70713          	addi	a4,a4,508 # 201fc <jump_table.28>
    3fe8:	20e7c7b3          	sh2add	a5,a5,a4
    3fec:	0007a783          	lw	a5,0(a5)
    3ff0:	ba9fc06f          	j	b98 <inferenceTPG+0x48>
    3ff4:	41600b33          	neg	s6,s6
    3ff8:	e6dff06f          	j	3e64 <inferenceTPG+0x3314>
    3ffc:	41600733          	neg	a4,s6
    4000:	41075713          	srai	a4,a4,0x10
    4004:	40e7d7b3          	sra	a5,a5,a4
    4008:	f81ff06f          	j	3f88 <inferenceTPG+0x3438>
    400c:	0044a783          	lw	a5,4(s1)
    4010:	0009a703          	lw	a4,0(s3)
    4014:	0ae7e733          	max	a4,a5,a4
    4018:	00070c93          	mv	s9,a4
    401c:	00010737          	lui	a4,0x10
    4020:	00070b93          	mv	s7,a4
    4024:	18078e63          	beqz	a5,41c0 <__heap_size+0x1c0>
    4028:	40f006b3          	neg	a3,a5
    402c:	0ad7e6b3          	max	a3,a5,a3
    4030:	41f6d713          	srai	a4,a3,0x1f
    4034:	00017637          	lui	a2,0x17
    4038:	15460613          	addi	a2,a2,340 # 17154 <heap.cpp.6b15d6f6+0x9c7>
    403c:	02c70733          	mul	a4,a4,a2
    4040:	02c68ab3          	mul	s5,a3,a2
    4044:	02c6b6b3          	mulhu	a3,a3,a2
    4048:	00d70733          	add	a4,a4,a3
    404c:	01071713          	slli	a4,a4,0x10
    4050:	010ada93          	srli	s5,s5,0x10
    4054:	01570ab3          	add	s5,a4,s5
    4058:	00008737          	lui	a4,0x8
    405c:	00ea8ab3          	add	s5,s5,a4
    4060:	ffff0737          	lui	a4,0xffff0
    4064:	00eafab3          	and	s5,s5,a4
    4068:	3c07ce63          	bltz	a5,4444 <__heap_size+0x444>
    406c:	41fad713          	srai	a4,s5,0x1f
    4070:	0000b6b7          	lui	a3,0xb
    4074:	17268693          	addi	a3,a3,370 # b172 <__divdi3+0x52>
    4078:	02d70733          	mul	a4,a4,a3
    407c:	02da8633          	mul	a2,s5,a3
    4080:	02dab6b3          	mulhu	a3,s5,a3
    4084:	00d70733          	add	a4,a4,a3
    4088:	01071713          	slli	a4,a4,0x10
    408c:	01065693          	srli	a3,a2,0x10
    4090:	00d706b3          	add	a3,a4,a3
    4094:	40d787b3          	sub	a5,a5,a3
    4098:	41f7d693          	srai	a3,a5,0x1f
    409c:	02f686b3          	mul	a3,a3,a5
    40a0:	02f78733          	mul	a4,a5,a5
    40a4:	02f7b633          	mulhu	a2,a5,a5
    40a8:	20c6a6b3          	sh1add	a3,a3,a2
    40ac:	01069693          	slli	a3,a3,0x10
    40b0:	01075713          	srli	a4,a4,0x10
    40b4:	00e68733          	add	a4,a3,a4
    40b8:	41f75513          	srai	a0,a4,0x1f
    40bc:	01e75693          	srli	a3,a4,0x1e
    40c0:	20d546b3          	sh2add	a3,a0,a3
    40c4:	00271613          	slli	a2,a4,0x2
    40c8:	01069693          	slli	a3,a3,0x10
    40cc:	01065613          	srli	a2,a2,0x10
    40d0:	00c68633          	add	a2,a3,a2
    40d4:	f4a60613          	addi	a2,a2,-182
    40d8:	41f65593          	srai	a1,a2,0x1f
    40dc:	02e585b3          	mul	a1,a1,a4
    40e0:	02c506b3          	mul	a3,a0,a2
    40e4:	00d585b3          	add	a1,a1,a3
    40e8:	02e606b3          	mul	a3,a2,a4
    40ec:	02e63633          	mulhu	a2,a2,a4
    40f0:	00c58633          	add	a2,a1,a2
    40f4:	01061613          	slli	a2,a2,0x10
    40f8:	0106d693          	srli	a3,a3,0x10
    40fc:	00d606b3          	add	a3,a2,a3
    4100:	00003637          	lui	a2,0x3
    4104:	aab60613          	addi	a2,a2,-1365 # 2aab <inferenceTPG+0x1f5b>
    4108:	00c686b3          	add	a3,a3,a2
    410c:	41f6d613          	srai	a2,a3,0x1f
    4110:	02e60633          	mul	a2,a2,a4
    4114:	02d50533          	mul	a0,a0,a3
    4118:	00a60633          	add	a2,a2,a0
    411c:	02e685b3          	mul	a1,a3,a4
    4120:	02e6b6b3          	mulhu	a3,a3,a4
    4124:	00d60733          	add	a4,a2,a3
    4128:	01071713          	slli	a4,a4,0x10
    412c:	0105d693          	srli	a3,a1,0x10
    4130:	00d706b3          	add	a3,a4,a3
    4134:	00020737          	lui	a4,0x20
    4138:	00e686b3          	add	a3,a3,a4
    413c:	40f68633          	sub	a2,a3,a5
    4140:	02f68c63          	beq	a3,a5,4178 <__heap_size+0x178>
    4144:	00f7d713          	srli	a4,a5,0xf
    4148:	01179793          	slli	a5,a5,0x11
    414c:	01071713          	slli	a4,a4,0x10
    4150:	0107d793          	srli	a5,a5,0x10
    4154:	00f707b3          	add	a5,a4,a5
    4158:	41f7d713          	srai	a4,a5,0x1f
    415c:	0107d593          	srli	a1,a5,0x10
    4160:	01071713          	slli	a4,a4,0x10
    4164:	41f65693          	srai	a3,a2,0x1f
    4168:	01079513          	slli	a0,a5,0x10
    416c:	00e585b3          	add	a1,a1,a4
    4170:	7b1060ef          	jal	b120 <__divdi3>
    4174:	00050613          	mv	a2,a0
    4178:	000107b7          	lui	a5,0x10
    417c:	00f606b3          	add	a3,a2,a5
    4180:	2c0ac663          	bltz	s5,444c <__heap_size+0x44c>
    4184:	410ada93          	srai	s5,s5,0x10
    4188:	000107b7          	lui	a5,0x10
    418c:	015797b3          	sll	a5,a5,s5
    4190:	41f7da93          	srai	s5,a5,0x1f
    4194:	41f6d713          	srai	a4,a3,0x1f
    4198:	02da8ab3          	mul	s5,s5,a3
    419c:	02f70733          	mul	a4,a4,a5
    41a0:	00ea8ab3          	add	s5,s5,a4
    41a4:	02d78733          	mul	a4,a5,a3
    41a8:	02d7b7b3          	mulhu	a5,a5,a3
    41ac:	00fa8ab3          	add	s5,s5,a5
    41b0:	010a9a93          	slli	s5,s5,0x10
    41b4:	01075793          	srli	a5,a4,0x10
    41b8:	00fa87b3          	add	a5,s5,a5
    41bc:	00078b93          	mv	s7,a5
    41c0:	00492683          	lw	a3,4(s2)
    41c4:	00000593          	li	a1,0
    41c8:	2406c063          	bltz	a3,4408 <__heap_size+0x408>
    41cc:	28068c63          	beqz	a3,4464 <__heap_size+0x464>
    41d0:	000207b7          	lui	a5,0x20
    41d4:	28d7d463          	bge	a5,a3,445c <__heap_size+0x45c>
    41d8:	00000b13          	li	s6,0
    41dc:	4016d693          	srai	a3,a3,0x1
    41e0:	001b0b13          	addi	s6,s6,1
    41e4:	fed7cce3          	blt	a5,a3,41dc <__heap_size+0x1dc>
    41e8:	ffff07b7          	lui	a5,0xffff0
    41ec:	00f68ab3          	add	s5,a3,a5
    41f0:	41fad793          	srai	a5,s5,0x1f
    41f4:	010ad593          	srli	a1,s5,0x10
    41f8:	01079793          	slli	a5,a5,0x10
    41fc:	00010737          	lui	a4,0x10
    4200:	00e68633          	add	a2,a3,a4
    4204:	41f65693          	srai	a3,a2,0x1f
    4208:	010a9513          	slli	a0,s5,0x10
    420c:	00f585b3          	add	a1,a1,a5
    4210:	711060ef          	jal	b120 <__divdi3>
    4214:	41f55613          	srai	a2,a0,0x1f
    4218:	02a607b3          	mul	a5,a2,a0
    421c:	02a506b3          	mul	a3,a0,a0
    4220:	02a53733          	mulhu	a4,a0,a0
    4224:	20e7a7b3          	sh1add	a5,a5,a4
    4228:	01079793          	slli	a5,a5,0x10
    422c:	0106d693          	srli	a3,a3,0x10
    4230:	00d786b3          	add	a3,a5,a3
    4234:	41f6d313          	srai	t1,a3,0x1f
    4238:	02d307b3          	mul	a5,t1,a3
    423c:	02d68733          	mul	a4,a3,a3
    4240:	02d6b5b3          	mulhu	a1,a3,a3
    4244:	20b7a7b3          	sh1add	a5,a5,a1
    4248:	01079793          	slli	a5,a5,0x10
    424c:	01075713          	srli	a4,a4,0x10
    4250:	00e78733          	add	a4,a5,a4
    4254:	41f75813          	srai	a6,a4,0x1f
    4258:	010b1793          	slli	a5,s6,0x10
    425c:	41f7d893          	srai	a7,a5,0x1f
    4260:	0000be37          	lui	t3,0xb
    4264:	172e0e13          	addi	t3,t3,370 # b172 <__divdi3+0x52>
    4268:	03c888b3          	mul	a7,a7,t3
    426c:	03c785b3          	mul	a1,a5,t3
    4270:	03c7b7b3          	mulhu	a5,a5,t3
    4274:	00f887b3          	add	a5,a7,a5
    4278:	01079793          	slli	a5,a5,0x10
    427c:	0105d593          	srli	a1,a1,0x10
    4280:	00b785b3          	add	a1,a5,a1
    4284:	00ba85b3          	add	a1,s5,a1
    4288:	000028b7          	lui	a7,0x2
    428c:	5e288893          	addi	a7,a7,1506 # 25e2 <inferenceTPG+0x1a92>
    4290:	03180e33          	mul	t3,a6,a7
    4294:	031707b3          	mul	a5,a4,a7
    4298:	031738b3          	mulhu	a7,a4,a7
    429c:	011e08b3          	add	a7,t3,a7
    42a0:	01089893          	slli	a7,a7,0x10
    42a4:	0107d793          	srli	a5,a5,0x10
    42a8:	00f887b3          	add	a5,a7,a5
    42ac:	000038b7          	lui	a7,0x3
    42b0:	e8d88893          	addi	a7,a7,-371 # 2e8d <inferenceTPG+0x233d>
    42b4:	011787b3          	add	a5,a5,a7
    42b8:	41f7de13          	srai	t3,a5,0x1f
    42bc:	02ee0e33          	mul	t3,t3,a4
    42c0:	02f808b3          	mul	a7,a6,a5
    42c4:	011e0e33          	add	t3,t3,a7
    42c8:	02e788b3          	mul	a7,a5,a4
    42cc:	02e7b7b3          	mulhu	a5,a5,a4
    42d0:	00fe07b3          	add	a5,t3,a5
    42d4:	01079793          	slli	a5,a5,0x10
    42d8:	0108d893          	srli	a7,a7,0x10
    42dc:	011788b3          	add	a7,a5,a7
    42e0:	000057b7          	lui	a5,0x5
    42e4:	92578793          	addi	a5,a5,-1755 # 4925 <__heap_size+0x925>
    42e8:	00f888b3          	add	a7,a7,a5
    42ec:	41f8de13          	srai	t3,a7,0x1f
    42f0:	02ee0e33          	mul	t3,t3,a4
    42f4:	031807b3          	mul	a5,a6,a7
    42f8:	00fe0e33          	add	t3,t3,a5
    42fc:	02e887b3          	mul	a5,a7,a4
    4300:	02e8b8b3          	mulhu	a7,a7,a4
    4304:	011e08b3          	add	a7,t3,a7
    4308:	01089893          	slli	a7,a7,0x10
    430c:	0107d793          	srli	a5,a5,0x10
    4310:	00f887b3          	add	a5,a7,a5
    4314:	0000b8b7          	lui	a7,0xb
    4318:	aab88893          	addi	a7,a7,-1365 # aaab <__subdf3+0x17b>
    431c:	011787b3          	add	a5,a5,a7
    4320:	41f7d893          	srai	a7,a5,0x1f
    4324:	02d888b3          	mul	a7,a7,a3
    4328:	02f30333          	mul	t1,t1,a5
    432c:	00688333          	add	t1,a7,t1
    4330:	02d788b3          	mul	a7,a5,a3
    4334:	02d7b7b3          	mulhu	a5,a5,a3
    4338:	00f307b3          	add	a5,t1,a5
    433c:	01079793          	slli	a5,a5,0x10
    4340:	0108d893          	srli	a7,a7,0x10
    4344:	011788b3          	add	a7,a5,a7
    4348:	000027b7          	lui	a5,0x2
    434c:	73478793          	addi	a5,a5,1844 # 2734 <inferenceTPG+0x1be4>
    4350:	02f80333          	mul	t1,a6,a5
    4354:	02f706b3          	mul	a3,a4,a5
    4358:	02f737b3          	mulhu	a5,a4,a5
    435c:	00f307b3          	add	a5,t1,a5
    4360:	01079793          	slli	a5,a5,0x10
    4364:	0106d693          	srli	a3,a3,0x10
    4368:	00d786b3          	add	a3,a5,a3
    436c:	000047b7          	lui	a5,0x4
    4370:	8e478793          	addi	a5,a5,-1820 # 38e4 <inferenceTPG+0x2d94>
    4374:	00f686b3          	add	a3,a3,a5
    4378:	41f6d313          	srai	t1,a3,0x1f
    437c:	02e30333          	mul	t1,t1,a4
    4380:	02d807b3          	mul	a5,a6,a3
    4384:	00f30333          	add	t1,t1,a5
    4388:	02e687b3          	mul	a5,a3,a4
    438c:	02e6b6b3          	mulhu	a3,a3,a4
    4390:	00d306b3          	add	a3,t1,a3
    4394:	01069693          	slli	a3,a3,0x10
    4398:	0107d793          	srli	a5,a5,0x10
    439c:	00f687b3          	add	a5,a3,a5
    43a0:	000066b7          	lui	a3,0x6
    43a4:	66668693          	addi	a3,a3,1638 # 6666 <__heap_size+0x2666>
    43a8:	00d787b3          	add	a5,a5,a3
    43ac:	41f7d693          	srai	a3,a5,0x1f
    43b0:	02e686b3          	mul	a3,a3,a4
    43b4:	02f80833          	mul	a6,a6,a5
    43b8:	010686b3          	add	a3,a3,a6
    43bc:	02e78833          	mul	a6,a5,a4
    43c0:	02e7b7b3          	mulhu	a5,a5,a4
    43c4:	00f687b3          	add	a5,a3,a5
    43c8:	01079793          	slli	a5,a5,0x10
    43cc:	01085713          	srli	a4,a6,0x10
    43d0:	00e78733          	add	a4,a5,a4
    43d4:	00e888b3          	add	a7,a7,a4
    43d8:	411a87b3          	sub	a5,s5,a7
    43dc:	41f7d713          	srai	a4,a5,0x1f
    43e0:	02a70733          	mul	a4,a4,a0
    43e4:	02f60633          	mul	a2,a2,a5
    43e8:	00c70733          	add	a4,a4,a2
    43ec:	02a786b3          	mul	a3,a5,a0
    43f0:	02a7b7b3          	mulhu	a5,a5,a0
    43f4:	00f707b3          	add	a5,a4,a5
    43f8:	01079793          	slli	a5,a5,0x10
    43fc:	0106d713          	srli	a4,a3,0x10
    4400:	00e78733          	add	a4,a5,a4
    4404:	40e585b3          	sub	a1,a1,a4
    4408:	00100793          	li	a5,1
    440c:	019bd663          	bge	s7,s9,4418 <__heap_size+0x418>
    4410:	000c8b93          	mv	s7,s9
    4414:	00000793          	li	a5,0
    4418:	0175c463          	blt	a1,s7,4420 <__heap_size+0x420>
    441c:	00200793          	li	a5,2
    4420:	00020737          	lui	a4,0x20
    4424:	000206b7          	lui	a3,0x20
    4428:	0f468693          	addi	a3,a3,244 # 200f4 <next.12>
    442c:	20d7c7b3          	sh2add	a5,a5,a3
    4430:	0007a783          	lw	a5,0(a5)
    4434:	1fc70713          	addi	a4,a4,508 # 201fc <jump_table.28>
    4438:	20e7c7b3          	sh2add	a5,a5,a4
    443c:	0007a783          	lw	a5,0(a5)
    4440:	f58fc06f          	j	b98 <inferenceTPG+0x48>
    4444:	41500ab3          	neg	s5,s5
    4448:	c25ff06f          	j	406c <__heap_size+0x6c>
    444c:	41500733          	neg	a4,s5
    4450:	41075713          	srai	a4,a4,0x10
    4454:	40e7d7b3          	sra	a5,a5,a4
    4458:	d39ff06f          	j	4190 <__heap_size+0x190>
    445c:	00000b13          	li	s6,0
    4460:	d89ff06f          	j	41e8 <__heap_size+0x1e8>
    4464:	fff00593          	li	a1,-1
    4468:	fa1ff06f          	j	4408 <__heap_size+0x408>
    446c:	0084ab03          	lw	s6,8(s1)
    4470:	00010ab7          	lui	s5,0x10
    4474:	180b0c63          	beqz	s6,460c <__heap_size+0x60c>
    4478:	41600733          	neg	a4,s6
    447c:	0aeb6733          	max	a4,s6,a4
    4480:	41f75793          	srai	a5,a4,0x1f
    4484:	000176b7          	lui	a3,0x17
    4488:	15468693          	addi	a3,a3,340 # 17154 <heap.cpp.6b15d6f6+0x9c7>
    448c:	02d787b3          	mul	a5,a5,a3
    4490:	02d70ab3          	mul	s5,a4,a3
    4494:	02d73733          	mulhu	a4,a4,a3
    4498:	00e787b3          	add	a5,a5,a4
    449c:	01079793          	slli	a5,a5,0x10
    44a0:	010ada93          	srli	s5,s5,0x10
    44a4:	01578ab3          	add	s5,a5,s5
    44a8:	000087b7          	lui	a5,0x8
    44ac:	00fa8ab3          	add	s5,s5,a5
    44b0:	ffff07b7          	lui	a5,0xffff0
    44b4:	00fafab3          	and	s5,s5,a5
    44b8:	360b4663          	bltz	s6,4824 <__heap_size+0x824>
    44bc:	41fad713          	srai	a4,s5,0x1f
    44c0:	0000b6b7          	lui	a3,0xb
    44c4:	17268693          	addi	a3,a3,370 # b172 <__divdi3+0x52>
    44c8:	02d70733          	mul	a4,a4,a3
    44cc:	02da87b3          	mul	a5,s5,a3
    44d0:	02dab6b3          	mulhu	a3,s5,a3
    44d4:	00d70733          	add	a4,a4,a3
    44d8:	01071713          	slli	a4,a4,0x10
    44dc:	0107d793          	srli	a5,a5,0x10
    44e0:	00f707b3          	add	a5,a4,a5
    44e4:	40fb07b3          	sub	a5,s6,a5
    44e8:	41f7d693          	srai	a3,a5,0x1f
    44ec:	02f686b3          	mul	a3,a3,a5
    44f0:	02f78733          	mul	a4,a5,a5
    44f4:	02f7b633          	mulhu	a2,a5,a5
    44f8:	20c6a6b3          	sh1add	a3,a3,a2
    44fc:	01069693          	slli	a3,a3,0x10
    4500:	01075713          	srli	a4,a4,0x10
    4504:	00e68733          	add	a4,a3,a4
    4508:	41f75513          	srai	a0,a4,0x1f
    450c:	01e75693          	srli	a3,a4,0x1e
    4510:	20d546b3          	sh2add	a3,a0,a3
    4514:	00271613          	slli	a2,a4,0x2
    4518:	01069693          	slli	a3,a3,0x10
    451c:	01065613          	srli	a2,a2,0x10
    4520:	00c68633          	add	a2,a3,a2
    4524:	f4a60613          	addi	a2,a2,-182
    4528:	41f65593          	srai	a1,a2,0x1f
    452c:	02e585b3          	mul	a1,a1,a4
    4530:	02c506b3          	mul	a3,a0,a2
    4534:	00d585b3          	add	a1,a1,a3
    4538:	02e606b3          	mul	a3,a2,a4
    453c:	02e63633          	mulhu	a2,a2,a4
    4540:	00c58633          	add	a2,a1,a2
    4544:	01061613          	slli	a2,a2,0x10
    4548:	0106d693          	srli	a3,a3,0x10
    454c:	00d606b3          	add	a3,a2,a3
    4550:	00003637          	lui	a2,0x3
    4554:	aab60613          	addi	a2,a2,-1365 # 2aab <inferenceTPG+0x1f5b>
    4558:	00c686b3          	add	a3,a3,a2
    455c:	41f6d613          	srai	a2,a3,0x1f
    4560:	02e60633          	mul	a2,a2,a4
    4564:	02d50533          	mul	a0,a0,a3
    4568:	00a60633          	add	a2,a2,a0
    456c:	02e685b3          	mul	a1,a3,a4
    4570:	02e6b6b3          	mulhu	a3,a3,a4
    4574:	00d60733          	add	a4,a2,a3
    4578:	01071713          	slli	a4,a4,0x10
    457c:	0105d693          	srli	a3,a1,0x10
    4580:	00d706b3          	add	a3,a4,a3
    4584:	00020737          	lui	a4,0x20
    4588:	00e686b3          	add	a3,a3,a4
    458c:	40f68633          	sub	a2,a3,a5
    4590:	02f68c63          	beq	a3,a5,45c8 <__heap_size+0x5c8>
    4594:	00f7d713          	srli	a4,a5,0xf
    4598:	01179793          	slli	a5,a5,0x11
    459c:	01071713          	slli	a4,a4,0x10
    45a0:	0107d793          	srli	a5,a5,0x10
    45a4:	00f707b3          	add	a5,a4,a5
    45a8:	41f7d713          	srai	a4,a5,0x1f
    45ac:	0107d593          	srli	a1,a5,0x10
    45b0:	01071713          	slli	a4,a4,0x10
    45b4:	41f65693          	srai	a3,a2,0x1f
    45b8:	01079513          	slli	a0,a5,0x10
    45bc:	00e585b3          	add	a1,a1,a4
    45c0:	361060ef          	jal	b120 <__divdi3>
    45c4:	00050613          	mv	a2,a0
    45c8:	000107b7          	lui	a5,0x10
    45cc:	00f606b3          	add	a3,a2,a5
    45d0:	240ace63          	bltz	s5,482c <__heap_size+0x82c>
    45d4:	410ada93          	srai	s5,s5,0x10
    45d8:	000107b7          	lui	a5,0x10
    45dc:	015797b3          	sll	a5,a5,s5
    45e0:	41f7da93          	srai	s5,a5,0x1f
    45e4:	41f6d713          	srai	a4,a3,0x1f
    45e8:	02da8ab3          	mul	s5,s5,a3
    45ec:	02f70733          	mul	a4,a4,a5
    45f0:	00ea8ab3          	add	s5,s5,a4
    45f4:	02d78733          	mul	a4,a5,a3
    45f8:	02d7b7b3          	mulhu	a5,a5,a3
    45fc:	00fa8ab3          	add	s5,s5,a5
    4600:	010a9a93          	slli	s5,s5,0x10
    4604:	01075793          	srli	a5,a4,0x10
    4608:	00fa8ab3          	add	s5,s5,a5
    460c:	09512c23          	sw	s5,152(sp)
    4610:	00492783          	lw	a5,4(s2)
    4614:	01092683          	lw	a3,16(s2)
    4618:	41f6d713          	srai	a4,a3,0x1f
    461c:	41f7d613          	srai	a2,a5,0x1f
    4620:	02f70733          	mul	a4,a4,a5
    4624:	02d60633          	mul	a2,a2,a3
    4628:	00c70733          	add	a4,a4,a2
    462c:	02f68633          	mul	a2,a3,a5
    4630:	02f6b6b3          	mulhu	a3,a3,a5
    4634:	00d70733          	add	a4,a4,a3
    4638:	01071713          	slli	a4,a4,0x10
    463c:	01065693          	srli	a3,a2,0x10
    4640:	00d706b3          	add	a3,a4,a3
    4644:	08d12e23          	sw	a3,156(sp)
    4648:	0044a703          	lw	a4,4(s1)
    464c:	00171693          	slli	a3,a4,0x1
    4650:	0ad12023          	sw	a3,160(sp)
    4654:	000106b7          	lui	a3,0x10
    4658:	0ad12223          	sw	a3,164(sp)
    465c:	0004a683          	lw	a3,0(s1)
    4660:	016686b3          	add	a3,a3,s6
    4664:	0ad12423          	sw	a3,168(sp)
    4668:	41670733          	sub	a4,a4,s6
    466c:	0ae12623          	sw	a4,172(sp)
    4670:	00010737          	lui	a4,0x10
    4674:	18078c63          	beqz	a5,480c <__heap_size+0x80c>
    4678:	40f006b3          	neg	a3,a5
    467c:	0ad7e6b3          	max	a3,a5,a3
    4680:	41f6d713          	srai	a4,a3,0x1f
    4684:	00017637          	lui	a2,0x17
    4688:	15460613          	addi	a2,a2,340 # 17154 <heap.cpp.6b15d6f6+0x9c7>
    468c:	02c70733          	mul	a4,a4,a2
    4690:	02c68b33          	mul	s6,a3,a2
    4694:	02c6b6b3          	mulhu	a3,a3,a2
    4698:	00d70733          	add	a4,a4,a3
    469c:	01071713          	slli	a4,a4,0x10
    46a0:	010b5b13          	srli	s6,s6,0x10
    46a4:	01670b33          	add	s6,a4,s6
    46a8:	00008737          	lui	a4,0x8
    46ac:	00eb0b33          	add	s6,s6,a4
    46b0:	ffff0737          	lui	a4,0xffff0
    46b4:	00eb7b33          	and	s6,s6,a4
    46b8:	1807c263          	bltz	a5,483c <__heap_size+0x83c>
    46bc:	41fb5713          	srai	a4,s6,0x1f
    46c0:	0000b6b7          	lui	a3,0xb
    46c4:	17268693          	addi	a3,a3,370 # b172 <__divdi3+0x52>
    46c8:	02d70733          	mul	a4,a4,a3
    46cc:	02db0633          	mul	a2,s6,a3
    46d0:	02db36b3          	mulhu	a3,s6,a3
    46d4:	00d70733          	add	a4,a4,a3
    46d8:	01071713          	slli	a4,a4,0x10
    46dc:	01065693          	srli	a3,a2,0x10
    46e0:	00d706b3          	add	a3,a4,a3
    46e4:	40d787b3          	sub	a5,a5,a3
    46e8:	41f7d693          	srai	a3,a5,0x1f
    46ec:	02f686b3          	mul	a3,a3,a5
    46f0:	02f78733          	mul	a4,a5,a5
    46f4:	02f7b633          	mulhu	a2,a5,a5
    46f8:	20c6a6b3          	sh1add	a3,a3,a2
    46fc:	01069693          	slli	a3,a3,0x10
    4700:	01075713          	srli	a4,a4,0x10
    4704:	00e68733          	add	a4,a3,a4
    4708:	41f75513          	srai	a0,a4,0x1f
    470c:	01e75693          	srli	a3,a4,0x1e
    4710:	20d546b3          	sh2add	a3,a0,a3
    4714:	00271613          	slli	a2,a4,0x2
    4718:	01069693          	slli	a3,a3,0x10
    471c:	01065613          	srli	a2,a2,0x10
    4720:	00c68633          	add	a2,a3,a2
    4724:	f4a60613          	addi	a2,a2,-182
    4728:	41f65593          	srai	a1,a2,0x1f
    472c:	02e585b3          	mul	a1,a1,a4
    4730:	02c506b3          	mul	a3,a0,a2
    4734:	00d585b3          	add	a1,a1,a3
    4738:	02e606b3          	mul	a3,a2,a4
    473c:	02e63633          	mulhu	a2,a2,a4
    4740:	00c58633          	add	a2,a1,a2
    4744:	01061613          	slli	a2,a2,0x10
    4748:	0106d693          	srli	a3,a3,0x10
    474c:	00d606b3          	add	a3,a2,a3
    4750:	00003637          	lui	a2,0x3
    4754:	aab60613          	addi	a2,a2,-1365 # 2aab <inferenceTPG+0x1f5b>
    4758:	00c686b3          	add	a3,a3,a2
    475c:	41f6d613          	srai	a2,a3,0x1f
    4760:	02e60633          	mul	a2,a2,a4
    4764:	02d50533          	mul	a0,a0,a3
    4768:	00a60633          	add	a2,a2,a0
    476c:	02e685b3          	mul	a1,a3,a4
    4770:	02e6b6b3          	mulhu	a3,a3,a4
    4774:	00d60733          	add	a4,a2,a3
    4778:	01071713          	slli	a4,a4,0x10
    477c:	0105d693          	srli	a3,a1,0x10
    4780:	00d706b3          	add	a3,a4,a3
    4784:	00020737          	lui	a4,0x20
    4788:	00e686b3          	add	a3,a3,a4
    478c:	40f68633          	sub	a2,a3,a5
    4790:	02f68c63          	beq	a3,a5,47c8 <__heap_size+0x7c8>
    4794:	00f7d713          	srli	a4,a5,0xf
    4798:	01179793          	slli	a5,a5,0x11
    479c:	01071713          	slli	a4,a4,0x10
    47a0:	0107d793          	srli	a5,a5,0x10
    47a4:	00f707b3          	add	a5,a4,a5
    47a8:	41f7d713          	srai	a4,a5,0x1f
    47ac:	0107d593          	srli	a1,a5,0x10
    47b0:	01071713          	slli	a4,a4,0x10
    47b4:	41f65693          	srai	a3,a2,0x1f
    47b8:	01079513          	slli	a0,a5,0x10
    47bc:	00e585b3          	add	a1,a1,a4
    47c0:	161060ef          	jal	b120 <__divdi3>
    47c4:	00050613          	mv	a2,a0
    47c8:	000107b7          	lui	a5,0x10
    47cc:	00f606b3          	add	a3,a2,a5
    47d0:	060b4a63          	bltz	s6,4844 <__heap_size+0x844>
    47d4:	410b5b13          	srai	s6,s6,0x10
    47d8:	000107b7          	lui	a5,0x10
    47dc:	016797b3          	sll	a5,a5,s6
    47e0:	41f7d713          	srai	a4,a5,0x1f
    47e4:	41f6d613          	srai	a2,a3,0x1f
    47e8:	02d70733          	mul	a4,a4,a3
    47ec:	02f60633          	mul	a2,a2,a5
    47f0:	00c70733          	add	a4,a4,a2
    47f4:	02d78633          	mul	a2,a5,a3
    47f8:	02d7b7b3          	mulhu	a5,a5,a3
    47fc:	00f70733          	add	a4,a4,a5
    4800:	01071713          	slli	a4,a4,0x10
    4804:	01065793          	srli	a5,a2,0x10
    4808:	00f70733          	add	a4,a4,a5
    480c:	0ae12823          	sw	a4,176(sp)
    4810:	09810713          	addi	a4,sp,152
    4814:	00000593          	li	a1,0
    4818:	00100793          	li	a5,1
    481c:	00700613          	li	a2,7
    4820:	0400006f          	j	4860 <__heap_size+0x860>
    4824:	41500ab3          	neg	s5,s5
    4828:	c95ff06f          	j	44bc <__heap_size+0x4bc>
    482c:	41500733          	neg	a4,s5
    4830:	41075713          	srai	a4,a4,0x10
    4834:	40e7d7b3          	sra	a5,a5,a4
    4838:	da9ff06f          	j	45e0 <__heap_size+0x5e0>
    483c:	41600b33          	neg	s6,s6
    4840:	e7dff06f          	j	46bc <__heap_size+0x6bc>
    4844:	41600733          	neg	a4,s6
    4848:	41075713          	srai	a4,a4,0x10
    484c:	40e7d7b3          	sra	a5,a5,a4
    4850:	f91ff06f          	j	47e0 <__heap_size+0x7e0>
    4854:	00178793          	addi	a5,a5,1 # 10001 <fast_intr_ctrl.c.233e5230+0x27c>
    4858:	00470713          	addi	a4,a4,4 # 20004 <heap.cpp.6b15d6f6+0x9877>
    485c:	00c78c63          	beq	a5,a2,4874 <__heap_size+0x874>
    4860:	00472683          	lw	a3,4(a4)
    4864:	ff56c8e3          	blt	a3,s5,4854 <__heap_size+0x854>
    4868:	00068a93          	mv	s5,a3
    486c:	00078593          	mv	a1,a5
    4870:	fe5ff06f          	j	4854 <__heap_size+0x854>
    4874:	00020737          	lui	a4,0x20
    4878:	000207b7          	lui	a5,0x20
    487c:	0d878793          	addi	a5,a5,216 # 200d8 <next.11>
    4880:	20f5c5b3          	sh2add	a1,a1,a5
    4884:	0005a783          	lw	a5,0(a1)
    4888:	1fc70713          	addi	a4,a4,508 # 201fc <jump_table.28>
    488c:	20e7c7b3          	sh2add	a5,a5,a4
    4890:	0007a783          	lw	a5,0(a5)
    4894:	b04fc06f          	j	b98 <inferenceTPG+0x48>
    4898:	11a12a23          	sw	s10,276(sp)
    489c:	11b12823          	sw	s11,272(sp)
    48a0:	000a2783          	lw	a5,0(s4)
    48a4:	0004a703          	lw	a4,0(s1)
    48a8:	00e12623          	sw	a4,12(sp)
    48ac:	0ae7eb33          	max	s6,a5,a4
    48b0:	0f612823          	sw	s6,240(sp)
    48b4:	0084a703          	lw	a4,8(s1)
    48b8:	00070d13          	mv	s10,a4
    48bc:	0044a703          	lw	a4,4(s1)
    48c0:	00e12423          	sw	a4,8(sp)
    48c4:	00fd07b3          	add	a5,s10,a5
    48c8:	00812703          	lw	a4,8(sp)
    48cc:	0ae7e7b3          	max	a5,a5,a4
    48d0:	0ef12a23          	sw	a5,244(sp)
    48d4:	00492783          	lw	a5,4(s2)
    48d8:	00078c93          	mv	s9,a5
    48dc:	0007d463          	bgez	a5,48e4 <__heap_size+0x8e4>
    48e0:	54d0106f          	j	662c <__heap_size+0x262c>
    48e4:	00079463          	bnez	a5,48ec <__heap_size+0x8ec>
    48e8:	5110106f          	j	65f8 <__heap_size+0x25f8>
    48ec:	000207b7          	lui	a5,0x20
    48f0:	4397d263          	bge	a5,s9,4d14 <__heap_size+0xd14>
    48f4:	000c8693          	mv	a3,s9
    48f8:	00000a93          	li	s5,0
    48fc:	4016d693          	srai	a3,a3,0x1
    4900:	001a8a93          	addi	s5,s5,1 # 10001 <fast_intr_ctrl.c.233e5230+0x27c>
    4904:	fed7cce3          	blt	a5,a3,48fc <__heap_size+0x8fc>
    4908:	ffff0bb7          	lui	s7,0xffff0
    490c:	017687b3          	add	a5,a3,s7
    4910:	00078d93          	mv	s11,a5
    4914:	41f7d793          	srai	a5,a5,0x1f
    4918:	010dd593          	srli	a1,s11,0x10
    491c:	01079793          	slli	a5,a5,0x10
    4920:	00010737          	lui	a4,0x10
    4924:	00e68633          	add	a2,a3,a4
    4928:	41f65693          	srai	a3,a2,0x1f
    492c:	010d9513          	slli	a0,s11,0x10
    4930:	00f585b3          	add	a1,a1,a5
    4934:	7ec060ef          	jal	b120 <__divdi3>
    4938:	41f55613          	srai	a2,a0,0x1f
    493c:	02a607b3          	mul	a5,a2,a0
    4940:	02a50733          	mul	a4,a0,a0
    4944:	02a536b3          	mulhu	a3,a0,a0
    4948:	20d7a7b3          	sh1add	a5,a5,a3
    494c:	01079793          	slli	a5,a5,0x10
    4950:	01075713          	srli	a4,a4,0x10
    4954:	00e78733          	add	a4,a5,a4
    4958:	41f75313          	srai	t1,a4,0x1f
    495c:	02e306b3          	mul	a3,t1,a4
    4960:	02e707b3          	mul	a5,a4,a4
    4964:	02e735b3          	mulhu	a1,a4,a4
    4968:	20b6a6b3          	sh1add	a3,a3,a1
    496c:	01069693          	slli	a3,a3,0x10
    4970:	0107d793          	srli	a5,a5,0x10
    4974:	00f687b3          	add	a5,a3,a5
    4978:	41f7d813          	srai	a6,a5,0x1f
    497c:	010a9a93          	slli	s5,s5,0x10
    4980:	41fad693          	srai	a3,s5,0x1f
    4984:	0000b8b7          	lui	a7,0xb
    4988:	17288893          	addi	a7,a7,370 # b172 <__divdi3+0x52>
    498c:	031686b3          	mul	a3,a3,a7
    4990:	031a85b3          	mul	a1,s5,a7
    4994:	031abab3          	mulhu	s5,s5,a7
    4998:	015686b3          	add	a3,a3,s5
    499c:	01069693          	slli	a3,a3,0x10
    49a0:	0105d593          	srli	a1,a1,0x10
    49a4:	00b685b3          	add	a1,a3,a1
    49a8:	00bd85b3          	add	a1,s11,a1
    49ac:	000028b7          	lui	a7,0x2
    49b0:	5e288893          	addi	a7,a7,1506 # 25e2 <inferenceTPG+0x1a92>
    49b4:	03180e33          	mul	t3,a6,a7
    49b8:	031786b3          	mul	a3,a5,a7
    49bc:	0317b8b3          	mulhu	a7,a5,a7
    49c0:	011e08b3          	add	a7,t3,a7
    49c4:	01089893          	slli	a7,a7,0x10
    49c8:	0106d693          	srli	a3,a3,0x10
    49cc:	00d886b3          	add	a3,a7,a3
    49d0:	000038b7          	lui	a7,0x3
    49d4:	e8d88893          	addi	a7,a7,-371 # 2e8d <inferenceTPG+0x233d>
    49d8:	011686b3          	add	a3,a3,a7
    49dc:	41f6de13          	srai	t3,a3,0x1f
    49e0:	02fe0e33          	mul	t3,t3,a5
    49e4:	02d808b3          	mul	a7,a6,a3
    49e8:	011e0e33          	add	t3,t3,a7
    49ec:	02f688b3          	mul	a7,a3,a5
    49f0:	02f6b6b3          	mulhu	a3,a3,a5
    49f4:	00de06b3          	add	a3,t3,a3
    49f8:	01069693          	slli	a3,a3,0x10
    49fc:	0108d893          	srli	a7,a7,0x10
    4a00:	011688b3          	add	a7,a3,a7
    4a04:	000056b7          	lui	a3,0x5
    4a08:	92568693          	addi	a3,a3,-1755 # 4925 <__heap_size+0x925>
    4a0c:	00d888b3          	add	a7,a7,a3
    4a10:	41f8de13          	srai	t3,a7,0x1f
    4a14:	02fe0e33          	mul	t3,t3,a5
    4a18:	031806b3          	mul	a3,a6,a7
    4a1c:	00de0e33          	add	t3,t3,a3
    4a20:	02f886b3          	mul	a3,a7,a5
    4a24:	02f8b8b3          	mulhu	a7,a7,a5
    4a28:	011e08b3          	add	a7,t3,a7
    4a2c:	01089893          	slli	a7,a7,0x10
    4a30:	0106d693          	srli	a3,a3,0x10
    4a34:	00d886b3          	add	a3,a7,a3
    4a38:	0000b8b7          	lui	a7,0xb
    4a3c:	aab88893          	addi	a7,a7,-1365 # aaab <__subdf3+0x17b>
    4a40:	011686b3          	add	a3,a3,a7
    4a44:	41f6d893          	srai	a7,a3,0x1f
    4a48:	02e888b3          	mul	a7,a7,a4
    4a4c:	02d30333          	mul	t1,t1,a3
    4a50:	00688333          	add	t1,a7,t1
    4a54:	02e688b3          	mul	a7,a3,a4
    4a58:	02e6b6b3          	mulhu	a3,a3,a4
    4a5c:	00d30733          	add	a4,t1,a3
    4a60:	01071713          	slli	a4,a4,0x10
    4a64:	0108d893          	srli	a7,a7,0x10
    4a68:	011708b3          	add	a7,a4,a7
    4a6c:	00002737          	lui	a4,0x2
    4a70:	73470713          	addi	a4,a4,1844 # 2734 <inferenceTPG+0x1be4>
    4a74:	02e80333          	mul	t1,a6,a4
    4a78:	02e786b3          	mul	a3,a5,a4
    4a7c:	02e7b733          	mulhu	a4,a5,a4
    4a80:	00e30733          	add	a4,t1,a4
    4a84:	01071713          	slli	a4,a4,0x10
    4a88:	0106d693          	srli	a3,a3,0x10
    4a8c:	00d706b3          	add	a3,a4,a3
    4a90:	00004737          	lui	a4,0x4
    4a94:	8e470713          	addi	a4,a4,-1820 # 38e4 <inferenceTPG+0x2d94>
    4a98:	00e686b3          	add	a3,a3,a4
    4a9c:	41f6d313          	srai	t1,a3,0x1f
    4aa0:	02f30333          	mul	t1,t1,a5
    4aa4:	02d80733          	mul	a4,a6,a3
    4aa8:	00e30333          	add	t1,t1,a4
    4aac:	02f68733          	mul	a4,a3,a5
    4ab0:	02f6b6b3          	mulhu	a3,a3,a5
    4ab4:	00d306b3          	add	a3,t1,a3
    4ab8:	01069693          	slli	a3,a3,0x10
    4abc:	01075713          	srli	a4,a4,0x10
    4ac0:	00e68733          	add	a4,a3,a4
    4ac4:	000066b7          	lui	a3,0x6
    4ac8:	66668693          	addi	a3,a3,1638 # 6666 <__heap_size+0x2666>
    4acc:	00d70733          	add	a4,a4,a3
    4ad0:	41f75693          	srai	a3,a4,0x1f
    4ad4:	02f686b3          	mul	a3,a3,a5
    4ad8:	02e80833          	mul	a6,a6,a4
    4adc:	010686b3          	add	a3,a3,a6
    4ae0:	02f70833          	mul	a6,a4,a5
    4ae4:	02f73733          	mulhu	a4,a4,a5
    4ae8:	00e687b3          	add	a5,a3,a4
    4aec:	01079793          	slli	a5,a5,0x10
    4af0:	01085713          	srli	a4,a6,0x10
    4af4:	00e78733          	add	a4,a5,a4
    4af8:	00e888b3          	add	a7,a7,a4
    4afc:	411d87b3          	sub	a5,s11,a7
    4b00:	41f7d713          	srai	a4,a5,0x1f
    4b04:	02a70733          	mul	a4,a4,a0
    4b08:	02f60633          	mul	a2,a2,a5
    4b0c:	00c70733          	add	a4,a4,a2
    4b10:	02a786b3          	mul	a3,a5,a0
    4b14:	02a7b7b3          	mulhu	a5,a5,a0
    4b18:	00f707b3          	add	a5,a4,a5
    4b1c:	01079793          	slli	a5,a5,0x10
    4b20:	0106d713          	srli	a4,a3,0x10
    4b24:	00e78733          	add	a4,a5,a4
    4b28:	40e587b3          	sub	a5,a1,a4
    4b2c:	00078d93          	mv	s11,a5
    4b30:	00c12703          	lw	a4,12(sp)
    4b34:	00ed0ab3          	add	s5,s10,a4
    4b38:	00812783          	lw	a5,8(sp)
    4b3c:	41a787b3          	sub	a5,a5,s10
    4b40:	00f12623          	sw	a5,12(sp)
    4b44:	419006b3          	neg	a3,s9
    4b48:	0adce6b3          	max	a3,s9,a3
    4b4c:	41f6d713          	srai	a4,a3,0x1f
    4b50:	00017637          	lui	a2,0x17
    4b54:	15460613          	addi	a2,a2,340 # 17154 <heap.cpp.6b15d6f6+0x9c7>
    4b58:	02c70733          	mul	a4,a4,a2
    4b5c:	02c687b3          	mul	a5,a3,a2
    4b60:	02c6b6b3          	mulhu	a3,a3,a2
    4b64:	00d70733          	add	a4,a4,a3
    4b68:	01071713          	slli	a4,a4,0x10
    4b6c:	0107d793          	srli	a5,a5,0x10
    4b70:	00f707b3          	add	a5,a4,a5
    4b74:	00008737          	lui	a4,0x8
    4b78:	00e787b3          	add	a5,a5,a4
    4b7c:	0177f7b3          	and	a5,a5,s7
    4b80:	00078b93          	mv	s7,a5
    4b84:	41fbd713          	srai	a4,s7,0x1f
    4b88:	0000b6b7          	lui	a3,0xb
    4b8c:	17268693          	addi	a3,a3,370 # b172 <__divdi3+0x52>
    4b90:	02d70733          	mul	a4,a4,a3
    4b94:	02db87b3          	mul	a5,s7,a3
    4b98:	02dbb6b3          	mulhu	a3,s7,a3
    4b9c:	00d70733          	add	a4,a4,a3
    4ba0:	01071713          	slli	a4,a4,0x10
    4ba4:	0107d793          	srli	a5,a5,0x10
    4ba8:	00f707b3          	add	a5,a4,a5
    4bac:	40fc87b3          	sub	a5,s9,a5
    4bb0:	41f7d713          	srai	a4,a5,0x1f
    4bb4:	02f70733          	mul	a4,a4,a5
    4bb8:	02f78633          	mul	a2,a5,a5
    4bbc:	02f7b6b3          	mulhu	a3,a5,a5
    4bc0:	20d72733          	sh1add	a4,a4,a3
    4bc4:	01071713          	slli	a4,a4,0x10
    4bc8:	01065613          	srli	a2,a2,0x10
    4bcc:	00c70633          	add	a2,a4,a2
    4bd0:	41f65513          	srai	a0,a2,0x1f
    4bd4:	01e65713          	srli	a4,a2,0x1e
    4bd8:	20e54733          	sh2add	a4,a0,a4
    4bdc:	00261693          	slli	a3,a2,0x2
    4be0:	01071713          	slli	a4,a4,0x10
    4be4:	0106d693          	srli	a3,a3,0x10
    4be8:	00d706b3          	add	a3,a4,a3
    4bec:	f4a68693          	addi	a3,a3,-182
    4bf0:	41f6d593          	srai	a1,a3,0x1f
    4bf4:	02c585b3          	mul	a1,a1,a2
    4bf8:	02d50733          	mul	a4,a0,a3
    4bfc:	00e585b3          	add	a1,a1,a4
    4c00:	02c68733          	mul	a4,a3,a2
    4c04:	02c6b6b3          	mulhu	a3,a3,a2
    4c08:	00d586b3          	add	a3,a1,a3
    4c0c:	01069693          	slli	a3,a3,0x10
    4c10:	01075713          	srli	a4,a4,0x10
    4c14:	00e68733          	add	a4,a3,a4
    4c18:	000036b7          	lui	a3,0x3
    4c1c:	aab68693          	addi	a3,a3,-1365 # 2aab <inferenceTPG+0x1f5b>
    4c20:	00d70733          	add	a4,a4,a3
    4c24:	41f75693          	srai	a3,a4,0x1f
    4c28:	02c686b3          	mul	a3,a3,a2
    4c2c:	02e50533          	mul	a0,a0,a4
    4c30:	00a686b3          	add	a3,a3,a0
    4c34:	02c705b3          	mul	a1,a4,a2
    4c38:	02c73733          	mulhu	a4,a4,a2
    4c3c:	00e68733          	add	a4,a3,a4
    4c40:	01071713          	slli	a4,a4,0x10
    4c44:	0105d693          	srli	a3,a1,0x10
    4c48:	00d706b3          	add	a3,a4,a3
    4c4c:	00020737          	lui	a4,0x20
    4c50:	00e686b3          	add	a3,a3,a4
    4c54:	40f68633          	sub	a2,a3,a5
    4c58:	02f68c63          	beq	a3,a5,4c90 <__heap_size+0xc90>
    4c5c:	00f7d713          	srli	a4,a5,0xf
    4c60:	01179793          	slli	a5,a5,0x11
    4c64:	01071713          	slli	a4,a4,0x10
    4c68:	0107d793          	srli	a5,a5,0x10
    4c6c:	00f707b3          	add	a5,a4,a5
    4c70:	41f7d713          	srai	a4,a5,0x1f
    4c74:	0107d593          	srli	a1,a5,0x10
    4c78:	01071713          	slli	a4,a4,0x10
    4c7c:	41f65693          	srai	a3,a2,0x1f
    4c80:	01079513          	slli	a0,a5,0x10
    4c84:	00e585b3          	add	a1,a1,a4
    4c88:	498060ef          	jal	b120 <__divdi3>
    4c8c:	00050613          	mv	a2,a0
    4c90:	000107b7          	lui	a5,0x10
    4c94:	00f606b3          	add	a3,a2,a5
    4c98:	080bc463          	bltz	s7,4d20 <__heap_size+0xd20>
    4c9c:	410bd793          	srai	a5,s7,0x10
    4ca0:	00010737          	lui	a4,0x10
    4ca4:	00f71733          	sll	a4,a4,a5
    4ca8:	41f75793          	srai	a5,a4,0x1f
    4cac:	41f6d613          	srai	a2,a3,0x1f
    4cb0:	02d787b3          	mul	a5,a5,a3
    4cb4:	02e60633          	mul	a2,a2,a4
    4cb8:	00c787b3          	add	a5,a5,a2
    4cbc:	02d70633          	mul	a2,a4,a3
    4cc0:	02d73733          	mulhu	a4,a4,a3
    4cc4:	00e787b3          	add	a5,a5,a4
    4cc8:	01079793          	slli	a5,a5,0x10
    4ccc:	01065713          	srli	a4,a2,0x10
    4cd0:	00e787b3          	add	a5,a5,a4
    4cd4:	0fb12c23          	sw	s11,248(sp)
    4cd8:	0f512e23          	sw	s5,252(sp)
    4cdc:	00c12703          	lw	a4,12(sp)
    4ce0:	10e12023          	sw	a4,256(sp)
    4ce4:	10f12223          	sw	a5,260(sp)
    4ce8:	0009a783          	lw	a5,0(s3)
    4cec:	00812703          	lw	a4,8(sp)
    4cf0:	0ae7e7b3          	max	a5,a5,a4
    4cf4:	10f12423          	sw	a5,264(sp)
    4cf8:	0a0d67b3          	max	a5,s10,zero
    4cfc:	10f12623          	sw	a5,268(sp)
    4d00:	0f010713          	addi	a4,sp,240
    4d04:	00000593          	li	a1,0
    4d08:	00100793          	li	a5,1
    4d0c:	00800613          	li	a2,8
    4d10:	0300006f          	j	4d40 <__heap_size+0xd40>
    4d14:	000c8693          	mv	a3,s9
    4d18:	00000a93          	li	s5,0
    4d1c:	bedff06f          	j	4908 <__heap_size+0x908>
    4d20:	417007b3          	neg	a5,s7
    4d24:	4107d793          	srai	a5,a5,0x10
    4d28:	00010737          	lui	a4,0x10
    4d2c:	40f75733          	sra	a4,a4,a5
    4d30:	f79ff06f          	j	4ca8 <__heap_size+0xca8>
    4d34:	00178793          	addi	a5,a5,1 # 10001 <fast_intr_ctrl.c.233e5230+0x27c>
    4d38:	00470713          	addi	a4,a4,4 # 10004 <fast_intr_ctrl.c.233e5230+0x27f>
    4d3c:	00c78c63          	beq	a5,a2,4d54 <__heap_size+0xd54>
    4d40:	00472683          	lw	a3,4(a4)
    4d44:	ff66c8e3          	blt	a3,s6,4d34 <__heap_size+0xd34>
    4d48:	00068b13          	mv	s6,a3
    4d4c:	00078593          	mv	a1,a5
    4d50:	fe5ff06f          	j	4d34 <__heap_size+0xd34>
    4d54:	00020737          	lui	a4,0x20
    4d58:	000207b7          	lui	a5,0x20
    4d5c:	0b878793          	addi	a5,a5,184 # 200b8 <next.10>
    4d60:	20f5c5b3          	sh2add	a1,a1,a5
    4d64:	0005a783          	lw	a5,0(a1)
    4d68:	1fc70713          	addi	a4,a4,508 # 201fc <jump_table.28>
    4d6c:	20e7c7b3          	sh2add	a5,a5,a4
    4d70:	0007a783          	lw	a5,0(a5)
    4d74:	11412d03          	lw	s10,276(sp)
    4d78:	11012d83          	lw	s11,272(sp)
    4d7c:	e1dfb06f          	j	b98 <inferenceTPG+0x48>
    4d80:	00492a83          	lw	s5,4(s2)
    4d84:	0089a783          	lw	a5,8(s3)
    4d88:	00fa87b3          	add	a5,s5,a5
    4d8c:	00078b93          	mv	s7,a5
    4d90:	0044a603          	lw	a2,4(s1)
    4d94:	000107b7          	lui	a5,0x10
    4d98:	18060c63          	beqz	a2,4f30 <__heap_size+0xf30>
    4d9c:	40c006b3          	neg	a3,a2
    4da0:	0ad666b3          	max	a3,a2,a3
    4da4:	41f6d713          	srai	a4,a3,0x1f
    4da8:	000177b7          	lui	a5,0x17
    4dac:	15478793          	addi	a5,a5,340 # 17154 <heap.cpp.6b15d6f6+0x9c7>
    4db0:	02f70733          	mul	a4,a4,a5
    4db4:	02f68b33          	mul	s6,a3,a5
    4db8:	02f6b6b3          	mulhu	a3,a3,a5
    4dbc:	00d70733          	add	a4,a4,a3
    4dc0:	01071713          	slli	a4,a4,0x10
    4dc4:	010b5b13          	srli	s6,s6,0x10
    4dc8:	01670b33          	add	s6,a4,s6
    4dcc:	000087b7          	lui	a5,0x8
    4dd0:	00fb0b33          	add	s6,s6,a5
    4dd4:	ffff07b7          	lui	a5,0xffff0
    4dd8:	00fb7b33          	and	s6,s6,a5
    4ddc:	18064c63          	bltz	a2,4f74 <__heap_size+0xf74>
    4de0:	41fb5713          	srai	a4,s6,0x1f
    4de4:	0000b6b7          	lui	a3,0xb
    4de8:	17268693          	addi	a3,a3,370 # b172 <__divdi3+0x52>
    4dec:	02d70733          	mul	a4,a4,a3
    4df0:	02db07b3          	mul	a5,s6,a3
    4df4:	02db36b3          	mulhu	a3,s6,a3
    4df8:	00d70733          	add	a4,a4,a3
    4dfc:	01071713          	slli	a4,a4,0x10
    4e00:	0107d793          	srli	a5,a5,0x10
    4e04:	00f707b3          	add	a5,a4,a5
    4e08:	40f607b3          	sub	a5,a2,a5
    4e0c:	41f7d693          	srai	a3,a5,0x1f
    4e10:	02f686b3          	mul	a3,a3,a5
    4e14:	02f78733          	mul	a4,a5,a5
    4e18:	02f7b633          	mulhu	a2,a5,a5
    4e1c:	20c6a6b3          	sh1add	a3,a3,a2
    4e20:	01069693          	slli	a3,a3,0x10
    4e24:	01075713          	srli	a4,a4,0x10
    4e28:	00e68733          	add	a4,a3,a4
    4e2c:	41f75513          	srai	a0,a4,0x1f
    4e30:	01e75693          	srli	a3,a4,0x1e
    4e34:	20d546b3          	sh2add	a3,a0,a3
    4e38:	00271613          	slli	a2,a4,0x2
    4e3c:	01069693          	slli	a3,a3,0x10
    4e40:	01065613          	srli	a2,a2,0x10
    4e44:	00c68633          	add	a2,a3,a2
    4e48:	f4a60613          	addi	a2,a2,-182
    4e4c:	41f65593          	srai	a1,a2,0x1f
    4e50:	02e585b3          	mul	a1,a1,a4
    4e54:	02c506b3          	mul	a3,a0,a2
    4e58:	00d585b3          	add	a1,a1,a3
    4e5c:	02e606b3          	mul	a3,a2,a4
    4e60:	02e63633          	mulhu	a2,a2,a4
    4e64:	00c58633          	add	a2,a1,a2
    4e68:	01061613          	slli	a2,a2,0x10
    4e6c:	0106d693          	srli	a3,a3,0x10
    4e70:	00d606b3          	add	a3,a2,a3
    4e74:	00003637          	lui	a2,0x3
    4e78:	aab60613          	addi	a2,a2,-1365 # 2aab <inferenceTPG+0x1f5b>
    4e7c:	00c686b3          	add	a3,a3,a2
    4e80:	41f6d613          	srai	a2,a3,0x1f
    4e84:	02e60633          	mul	a2,a2,a4
    4e88:	02d50533          	mul	a0,a0,a3
    4e8c:	00a60633          	add	a2,a2,a0
    4e90:	02e685b3          	mul	a1,a3,a4
    4e94:	02e6b6b3          	mulhu	a3,a3,a4
    4e98:	00d60733          	add	a4,a2,a3
    4e9c:	01071713          	slli	a4,a4,0x10
    4ea0:	0105d693          	srli	a3,a1,0x10
    4ea4:	00d706b3          	add	a3,a4,a3
    4ea8:	00020737          	lui	a4,0x20
    4eac:	00e686b3          	add	a3,a3,a4
    4eb0:	40f68633          	sub	a2,a3,a5
    4eb4:	02f68c63          	beq	a3,a5,4eec <__heap_size+0xeec>
    4eb8:	00f7d713          	srli	a4,a5,0xf
    4ebc:	01179793          	slli	a5,a5,0x11
    4ec0:	01071713          	slli	a4,a4,0x10
    4ec4:	0107d793          	srli	a5,a5,0x10
    4ec8:	00f707b3          	add	a5,a4,a5
    4ecc:	41f7d713          	srai	a4,a5,0x1f
    4ed0:	0107d593          	srli	a1,a5,0x10
    4ed4:	01071713          	slli	a4,a4,0x10
    4ed8:	41f65693          	srai	a3,a2,0x1f
    4edc:	01079513          	slli	a0,a5,0x10
    4ee0:	00e585b3          	add	a1,a1,a4
    4ee4:	23c060ef          	jal	b120 <__divdi3>
    4ee8:	00050613          	mv	a2,a0
    4eec:	000107b7          	lui	a5,0x10
    4ef0:	00f606b3          	add	a3,a2,a5
    4ef4:	080b4463          	bltz	s6,4f7c <__heap_size+0xf7c>
    4ef8:	410b5b13          	srai	s6,s6,0x10
    4efc:	00010737          	lui	a4,0x10
    4f00:	01671733          	sll	a4,a4,s6
    4f04:	41f75793          	srai	a5,a4,0x1f
    4f08:	41f6d613          	srai	a2,a3,0x1f
    4f0c:	02d787b3          	mul	a5,a5,a3
    4f10:	02e60633          	mul	a2,a2,a4
    4f14:	00c787b3          	add	a5,a5,a2
    4f18:	02d70633          	mul	a2,a4,a3
    4f1c:	02d73733          	mulhu	a4,a4,a3
    4f20:	00e787b3          	add	a5,a5,a4
    4f24:	01079793          	slli	a5,a5,0x10
    4f28:	01065713          	srli	a4,a2,0x10
    4f2c:	00e787b3          	add	a5,a5,a4
    4f30:	000a2703          	lw	a4,0(s4)
    4f34:	00ea8ab3          	add	s5,s5,a4
    4f38:	00100713          	li	a4,1
    4f3c:	0177d663          	bge	a5,s7,4f48 <__heap_size+0xf48>
    4f40:	000b8793          	mv	a5,s7
    4f44:	00000713          	li	a4,0
    4f48:	00fac463          	blt	s5,a5,4f50 <__heap_size+0xf50>
    4f4c:	00200713          	li	a4,2
    4f50:	000206b7          	lui	a3,0x20
    4f54:	000207b7          	lui	a5,0x20
    4f58:	0ac78793          	addi	a5,a5,172 # 200ac <next.9>
    4f5c:	20f74733          	sh2add	a4,a4,a5
    4f60:	00072783          	lw	a5,0(a4) # 10000 <fast_intr_ctrl.c.233e5230+0x27b>
    4f64:	1fc68713          	addi	a4,a3,508 # 201fc <jump_table.28>
    4f68:	20e7c7b3          	sh2add	a5,a5,a4
    4f6c:	0007a783          	lw	a5,0(a5)
    4f70:	c29fb06f          	j	b98 <inferenceTPG+0x48>
    4f74:	41600b33          	neg	s6,s6
    4f78:	e69ff06f          	j	4de0 <__heap_size+0xde0>
    4f7c:	416007b3          	neg	a5,s6
    4f80:	4107d793          	srai	a5,a5,0x10
    4f84:	00010737          	lui	a4,0x10
    4f88:	40f75733          	sra	a4,a4,a5
    4f8c:	f79ff06f          	j	4f04 <__heap_size+0xf04>
    4f90:	00092783          	lw	a5,0(s2)
    4f94:	0004a683          	lw	a3,0(s1)
    4f98:	40d786b3          	sub	a3,a5,a3
    4f9c:	0084a703          	lw	a4,8(s1)
    4fa0:	0ae7e7b3          	max	a5,a5,a4
    4fa4:	0089a603          	lw	a2,8(s3)
    4fa8:	00492703          	lw	a4,4(s2)
    4fac:	00e60633          	add	a2,a2,a4
    4fb0:	00100713          	li	a4,1
    4fb4:	00d7d663          	bge	a5,a3,4fc0 <__heap_size+0xfc0>
    4fb8:	00068793          	mv	a5,a3
    4fbc:	00000713          	li	a4,0
    4fc0:	00f64463          	blt	a2,a5,4fc8 <__heap_size+0xfc8>
    4fc4:	00200713          	li	a4,2
    4fc8:	000206b7          	lui	a3,0x20
    4fcc:	000207b7          	lui	a5,0x20
    4fd0:	0a078793          	addi	a5,a5,160 # 200a0 <next.8>
    4fd4:	20f74733          	sh2add	a4,a4,a5
    4fd8:	00072783          	lw	a5,0(a4) # 10000 <fast_intr_ctrl.c.233e5230+0x27b>
    4fdc:	1fc68713          	addi	a4,a3,508 # 201fc <jump_table.28>
    4fe0:	20e7c7b3          	sh2add	a5,a5,a4
    4fe4:	0007a783          	lw	a5,0(a5)
    4fe8:	bb1fb06f          	j	b98 <inferenceTPG+0x48>
    4fec:	0084ab03          	lw	s6,8(s1)
    4ff0:	00010ab7          	lui	s5,0x10
    4ff4:	180b0c63          	beqz	s6,518c <__heap_size+0x118c>
    4ff8:	41600733          	neg	a4,s6
    4ffc:	0aeb6733          	max	a4,s6,a4
    5000:	41f75793          	srai	a5,a4,0x1f
    5004:	000176b7          	lui	a3,0x17
    5008:	15468693          	addi	a3,a3,340 # 17154 <heap.cpp.6b15d6f6+0x9c7>
    500c:	02d787b3          	mul	a5,a5,a3
    5010:	02d70ab3          	mul	s5,a4,a3
    5014:	02d73733          	mulhu	a4,a4,a3
    5018:	00e787b3          	add	a5,a5,a4
    501c:	01079793          	slli	a5,a5,0x10
    5020:	010ada93          	srli	s5,s5,0x10
    5024:	01578ab3          	add	s5,a5,s5
    5028:	000087b7          	lui	a5,0x8
    502c:	00fa8ab3          	add	s5,s5,a5
    5030:	ffff07b7          	lui	a5,0xffff0
    5034:	00fafab3          	and	s5,s5,a5
    5038:	4e0b4c63          	bltz	s6,5530 <__heap_size+0x1530>
    503c:	41fad713          	srai	a4,s5,0x1f
    5040:	0000b6b7          	lui	a3,0xb
    5044:	17268693          	addi	a3,a3,370 # b172 <__divdi3+0x52>
    5048:	02d70733          	mul	a4,a4,a3
    504c:	02da87b3          	mul	a5,s5,a3
    5050:	02dab6b3          	mulhu	a3,s5,a3
    5054:	00d70733          	add	a4,a4,a3
    5058:	01071713          	slli	a4,a4,0x10
    505c:	0107d793          	srli	a5,a5,0x10
    5060:	00f707b3          	add	a5,a4,a5
    5064:	40fb07b3          	sub	a5,s6,a5
    5068:	41f7d693          	srai	a3,a5,0x1f
    506c:	02f686b3          	mul	a3,a3,a5
    5070:	02f78733          	mul	a4,a5,a5
    5074:	02f7b633          	mulhu	a2,a5,a5
    5078:	20c6a6b3          	sh1add	a3,a3,a2
    507c:	01069693          	slli	a3,a3,0x10
    5080:	01075713          	srli	a4,a4,0x10
    5084:	00e68733          	add	a4,a3,a4
    5088:	41f75513          	srai	a0,a4,0x1f
    508c:	01e75693          	srli	a3,a4,0x1e
    5090:	20d546b3          	sh2add	a3,a0,a3
    5094:	00271613          	slli	a2,a4,0x2
    5098:	01069693          	slli	a3,a3,0x10
    509c:	01065613          	srli	a2,a2,0x10
    50a0:	00c68633          	add	a2,a3,a2
    50a4:	f4a60613          	addi	a2,a2,-182
    50a8:	41f65593          	srai	a1,a2,0x1f
    50ac:	02e585b3          	mul	a1,a1,a4
    50b0:	02c506b3          	mul	a3,a0,a2
    50b4:	00d585b3          	add	a1,a1,a3
    50b8:	02e606b3          	mul	a3,a2,a4
    50bc:	02e63633          	mulhu	a2,a2,a4
    50c0:	00c58633          	add	a2,a1,a2
    50c4:	01061613          	slli	a2,a2,0x10
    50c8:	0106d693          	srli	a3,a3,0x10
    50cc:	00d606b3          	add	a3,a2,a3
    50d0:	00003637          	lui	a2,0x3
    50d4:	aab60613          	addi	a2,a2,-1365 # 2aab <inferenceTPG+0x1f5b>
    50d8:	00c686b3          	add	a3,a3,a2
    50dc:	41f6d613          	srai	a2,a3,0x1f
    50e0:	02e60633          	mul	a2,a2,a4
    50e4:	02d50533          	mul	a0,a0,a3
    50e8:	00a60633          	add	a2,a2,a0
    50ec:	02e685b3          	mul	a1,a3,a4
    50f0:	02e6b6b3          	mulhu	a3,a3,a4
    50f4:	00d60733          	add	a4,a2,a3
    50f8:	01071713          	slli	a4,a4,0x10
    50fc:	0105d693          	srli	a3,a1,0x10
    5100:	00d706b3          	add	a3,a4,a3
    5104:	00020737          	lui	a4,0x20
    5108:	00e686b3          	add	a3,a3,a4
    510c:	40f68633          	sub	a2,a3,a5
    5110:	02f68c63          	beq	a3,a5,5148 <__heap_size+0x1148>
    5114:	00f7d713          	srli	a4,a5,0xf
    5118:	01179793          	slli	a5,a5,0x11
    511c:	01071713          	slli	a4,a4,0x10
    5120:	0107d793          	srli	a5,a5,0x10
    5124:	00f707b3          	add	a5,a4,a5
    5128:	41f7d713          	srai	a4,a5,0x1f
    512c:	0107d593          	srli	a1,a5,0x10
    5130:	01071713          	slli	a4,a4,0x10
    5134:	41f65693          	srai	a3,a2,0x1f
    5138:	01079513          	slli	a0,a5,0x10
    513c:	00e585b3          	add	a1,a1,a4
    5140:	7e1050ef          	jal	b120 <__divdi3>
    5144:	00050613          	mv	a2,a0
    5148:	000107b7          	lui	a5,0x10
    514c:	00f606b3          	add	a3,a2,a5
    5150:	3e0ac463          	bltz	s5,5538 <__heap_size+0x1538>
    5154:	410ada93          	srai	s5,s5,0x10
    5158:	000107b7          	lui	a5,0x10
    515c:	015797b3          	sll	a5,a5,s5
    5160:	41f7da93          	srai	s5,a5,0x1f
    5164:	41f6d713          	srai	a4,a3,0x1f
    5168:	02da8ab3          	mul	s5,s5,a3
    516c:	02f70733          	mul	a4,a4,a5
    5170:	00ea8ab3          	add	s5,s5,a4
    5174:	02d78733          	mul	a4,a5,a3
    5178:	02d7b7b3          	mulhu	a5,a5,a3
    517c:	00fa8ab3          	add	s5,s5,a5
    5180:	010a9a93          	slli	s5,s5,0x10
    5184:	01075793          	srli	a5,a4,0x10
    5188:	00fa8ab3          	add	s5,s5,a5
    518c:	03512e23          	sw	s5,60(sp)
    5190:	000a2703          	lw	a4,0(s4)
    5194:	41f75793          	srai	a5,a4,0x1f
    5198:	41fb5693          	srai	a3,s6,0x1f
    519c:	036787b3          	mul	a5,a5,s6
    51a0:	02e686b3          	mul	a3,a3,a4
    51a4:	00d787b3          	add	a5,a5,a3
    51a8:	036706b3          	mul	a3,a4,s6
    51ac:	03673733          	mulhu	a4,a4,s6
    51b0:	00e787b3          	add	a5,a5,a4
    51b4:	01079793          	slli	a5,a5,0x10
    51b8:	0106d713          	srli	a4,a3,0x10
    51bc:	00e78733          	add	a4,a5,a4
    51c0:	04e12023          	sw	a4,64(sp)
    51c4:	00492783          	lw	a5,4(s2)
    51c8:	00078b93          	mv	s7,a5
    51cc:	000107b7          	lui	a5,0x10
    51d0:	180b8c63          	beqz	s7,5368 <__heap_size+0x1368>
    51d4:	41700733          	neg	a4,s7
    51d8:	0aebe733          	max	a4,s7,a4
    51dc:	41f75793          	srai	a5,a4,0x1f
    51e0:	000176b7          	lui	a3,0x17
    51e4:	15468693          	addi	a3,a3,340 # 17154 <heap.cpp.6b15d6f6+0x9c7>
    51e8:	02d787b3          	mul	a5,a5,a3
    51ec:	02d70b33          	mul	s6,a4,a3
    51f0:	02d73733          	mulhu	a4,a4,a3
    51f4:	00e787b3          	add	a5,a5,a4
    51f8:	01079793          	slli	a5,a5,0x10
    51fc:	010b5b13          	srli	s6,s6,0x10
    5200:	01678b33          	add	s6,a5,s6
    5204:	000087b7          	lui	a5,0x8
    5208:	00fb0b33          	add	s6,s6,a5
    520c:	ffff07b7          	lui	a5,0xffff0
    5210:	00fb7b33          	and	s6,s6,a5
    5214:	320bca63          	bltz	s7,5548 <__heap_size+0x1548>
    5218:	41fb5713          	srai	a4,s6,0x1f
    521c:	0000b6b7          	lui	a3,0xb
    5220:	17268693          	addi	a3,a3,370 # b172 <__divdi3+0x52>
    5224:	02d70733          	mul	a4,a4,a3
    5228:	02db07b3          	mul	a5,s6,a3
    522c:	02db36b3          	mulhu	a3,s6,a3
    5230:	00d70733          	add	a4,a4,a3
    5234:	01071713          	slli	a4,a4,0x10
    5238:	0107d793          	srli	a5,a5,0x10
    523c:	00f707b3          	add	a5,a4,a5
    5240:	40fb87b3          	sub	a5,s7,a5
    5244:	41f7d693          	srai	a3,a5,0x1f
    5248:	02f686b3          	mul	a3,a3,a5
    524c:	02f78733          	mul	a4,a5,a5
    5250:	02f7b633          	mulhu	a2,a5,a5
    5254:	20c6a6b3          	sh1add	a3,a3,a2
    5258:	01069693          	slli	a3,a3,0x10
    525c:	01075713          	srli	a4,a4,0x10
    5260:	00e68733          	add	a4,a3,a4
    5264:	41f75513          	srai	a0,a4,0x1f
    5268:	01e75693          	srli	a3,a4,0x1e
    526c:	20d546b3          	sh2add	a3,a0,a3
    5270:	00271613          	slli	a2,a4,0x2
    5274:	01069693          	slli	a3,a3,0x10
    5278:	01065613          	srli	a2,a2,0x10
    527c:	00c68633          	add	a2,a3,a2
    5280:	f4a60613          	addi	a2,a2,-182
    5284:	41f65593          	srai	a1,a2,0x1f
    5288:	02e585b3          	mul	a1,a1,a4
    528c:	02c506b3          	mul	a3,a0,a2
    5290:	00d585b3          	add	a1,a1,a3
    5294:	02e606b3          	mul	a3,a2,a4
    5298:	02e63633          	mulhu	a2,a2,a4
    529c:	00c58633          	add	a2,a1,a2
    52a0:	01061613          	slli	a2,a2,0x10
    52a4:	0106d693          	srli	a3,a3,0x10
    52a8:	00d606b3          	add	a3,a2,a3
    52ac:	00003637          	lui	a2,0x3
    52b0:	aab60613          	addi	a2,a2,-1365 # 2aab <inferenceTPG+0x1f5b>
    52b4:	00c686b3          	add	a3,a3,a2
    52b8:	41f6d613          	srai	a2,a3,0x1f
    52bc:	02e60633          	mul	a2,a2,a4
    52c0:	02d50533          	mul	a0,a0,a3
    52c4:	00a60633          	add	a2,a2,a0
    52c8:	02e685b3          	mul	a1,a3,a4
    52cc:	02e6b6b3          	mulhu	a3,a3,a4
    52d0:	00d60733          	add	a4,a2,a3
    52d4:	01071713          	slli	a4,a4,0x10
    52d8:	0105d693          	srli	a3,a1,0x10
    52dc:	00d706b3          	add	a3,a4,a3
    52e0:	00020737          	lui	a4,0x20
    52e4:	00e686b3          	add	a3,a3,a4
    52e8:	40f68633          	sub	a2,a3,a5
    52ec:	02f68c63          	beq	a3,a5,5324 <__heap_size+0x1324>
    52f0:	00f7d713          	srli	a4,a5,0xf
    52f4:	01179793          	slli	a5,a5,0x11
    52f8:	01071713          	slli	a4,a4,0x10
    52fc:	0107d793          	srli	a5,a5,0x10
    5300:	00f707b3          	add	a5,a4,a5
    5304:	41f7d713          	srai	a4,a5,0x1f
    5308:	0107d593          	srli	a1,a5,0x10
    530c:	01071713          	slli	a4,a4,0x10
    5310:	41f65693          	srai	a3,a2,0x1f
    5314:	01079513          	slli	a0,a5,0x10
    5318:	00e585b3          	add	a1,a1,a4
    531c:	605050ef          	jal	b120 <__divdi3>
    5320:	00050613          	mv	a2,a0
    5324:	000107b7          	lui	a5,0x10
    5328:	00f606b3          	add	a3,a2,a5
    532c:	220b4263          	bltz	s6,5550 <__heap_size+0x1550>
    5330:	410b5b13          	srai	s6,s6,0x10
    5334:	00010737          	lui	a4,0x10
    5338:	01671733          	sll	a4,a4,s6
    533c:	41f75793          	srai	a5,a4,0x1f
    5340:	41f6d613          	srai	a2,a3,0x1f
    5344:	02d787b3          	mul	a5,a5,a3
    5348:	02e60633          	mul	a2,a2,a4
    534c:	00c787b3          	add	a5,a5,a2
    5350:	02d70633          	mul	a2,a4,a3
    5354:	02d73733          	mulhu	a4,a4,a3
    5358:	00e787b3          	add	a5,a5,a4
    535c:	01079793          	slli	a5,a5,0x10
    5360:	01065713          	srli	a4,a2,0x10
    5364:	00e787b3          	add	a5,a5,a4
    5368:	04f12223          	sw	a5,68(sp)
    536c:	0044a783          	lw	a5,4(s1)
    5370:	00010737          	lui	a4,0x10
    5374:	18078c63          	beqz	a5,550c <__heap_size+0x150c>
    5378:	40f006b3          	neg	a3,a5
    537c:	0ad7e6b3          	max	a3,a5,a3
    5380:	41f6d713          	srai	a4,a3,0x1f
    5384:	00017637          	lui	a2,0x17
    5388:	15460613          	addi	a2,a2,340 # 17154 <heap.cpp.6b15d6f6+0x9c7>
    538c:	02c70733          	mul	a4,a4,a2
    5390:	02c68b33          	mul	s6,a3,a2
    5394:	02c6b6b3          	mulhu	a3,a3,a2
    5398:	00d70733          	add	a4,a4,a3
    539c:	01071713          	slli	a4,a4,0x10
    53a0:	010b5b13          	srli	s6,s6,0x10
    53a4:	01670b33          	add	s6,a4,s6
    53a8:	00008737          	lui	a4,0x8
    53ac:	00eb0b33          	add	s6,s6,a4
    53b0:	ffff0737          	lui	a4,0xffff0
    53b4:	00eb7b33          	and	s6,s6,a4
    53b8:	1a07c663          	bltz	a5,5564 <__heap_size+0x1564>
    53bc:	41fb5713          	srai	a4,s6,0x1f
    53c0:	0000b6b7          	lui	a3,0xb
    53c4:	17268693          	addi	a3,a3,370 # b172 <__divdi3+0x52>
    53c8:	02d70733          	mul	a4,a4,a3
    53cc:	02db0633          	mul	a2,s6,a3
    53d0:	02db36b3          	mulhu	a3,s6,a3
    53d4:	00d70733          	add	a4,a4,a3
    53d8:	01071713          	slli	a4,a4,0x10
    53dc:	01065693          	srli	a3,a2,0x10
    53e0:	00d706b3          	add	a3,a4,a3
    53e4:	40d787b3          	sub	a5,a5,a3
    53e8:	41f7d693          	srai	a3,a5,0x1f
    53ec:	02f686b3          	mul	a3,a3,a5
    53f0:	02f78733          	mul	a4,a5,a5
    53f4:	02f7b633          	mulhu	a2,a5,a5
    53f8:	20c6a6b3          	sh1add	a3,a3,a2
    53fc:	01069693          	slli	a3,a3,0x10
    5400:	01075713          	srli	a4,a4,0x10
    5404:	00e68733          	add	a4,a3,a4
    5408:	41f75513          	srai	a0,a4,0x1f
    540c:	01e75693          	srli	a3,a4,0x1e
    5410:	20d546b3          	sh2add	a3,a0,a3
    5414:	00271613          	slli	a2,a4,0x2
    5418:	01069693          	slli	a3,a3,0x10
    541c:	01065613          	srli	a2,a2,0x10
    5420:	00c68633          	add	a2,a3,a2
    5424:	f4a60613          	addi	a2,a2,-182
    5428:	41f65593          	srai	a1,a2,0x1f
    542c:	02e585b3          	mul	a1,a1,a4
    5430:	02c506b3          	mul	a3,a0,a2
    5434:	00d585b3          	add	a1,a1,a3
    5438:	02e606b3          	mul	a3,a2,a4
    543c:	02e63633          	mulhu	a2,a2,a4
    5440:	00c58633          	add	a2,a1,a2
    5444:	01061613          	slli	a2,a2,0x10
    5448:	0106d693          	srli	a3,a3,0x10
    544c:	00d606b3          	add	a3,a2,a3
    5450:	00003637          	lui	a2,0x3
    5454:	aab60613          	addi	a2,a2,-1365 # 2aab <inferenceTPG+0x1f5b>
    5458:	00c686b3          	add	a3,a3,a2
    545c:	41f6d613          	srai	a2,a3,0x1f
    5460:	02e60633          	mul	a2,a2,a4
    5464:	02d50533          	mul	a0,a0,a3
    5468:	00a60633          	add	a2,a2,a0
    546c:	02e685b3          	mul	a1,a3,a4
    5470:	02e6b6b3          	mulhu	a3,a3,a4
    5474:	00d60733          	add	a4,a2,a3
    5478:	01071713          	slli	a4,a4,0x10
    547c:	0105d693          	srli	a3,a1,0x10
    5480:	00d706b3          	add	a3,a4,a3
    5484:	00020737          	lui	a4,0x20
    5488:	00e686b3          	add	a3,a3,a4
    548c:	40f68633          	sub	a2,a3,a5
    5490:	02f68c63          	beq	a3,a5,54c8 <__heap_size+0x14c8>
    5494:	00f7d713          	srli	a4,a5,0xf
    5498:	01179793          	slli	a5,a5,0x11
    549c:	01071713          	slli	a4,a4,0x10
    54a0:	0107d793          	srli	a5,a5,0x10
    54a4:	00f707b3          	add	a5,a4,a5
    54a8:	41f7d713          	srai	a4,a5,0x1f
    54ac:	0107d593          	srli	a1,a5,0x10
    54b0:	01071713          	slli	a4,a4,0x10
    54b4:	41f65693          	srai	a3,a2,0x1f
    54b8:	01079513          	slli	a0,a5,0x10
    54bc:	00e585b3          	add	a1,a1,a4
    54c0:	461050ef          	jal	b120 <__divdi3>
    54c4:	00050613          	mv	a2,a0
    54c8:	000107b7          	lui	a5,0x10
    54cc:	00f606b3          	add	a3,a2,a5
    54d0:	080b4e63          	bltz	s6,556c <__heap_size+0x156c>
    54d4:	410b5b13          	srai	s6,s6,0x10
    54d8:	000107b7          	lui	a5,0x10
    54dc:	016797b3          	sll	a5,a5,s6
    54e0:	41f7d713          	srai	a4,a5,0x1f
    54e4:	41f6d613          	srai	a2,a3,0x1f
    54e8:	02d70733          	mul	a4,a4,a3
    54ec:	02f60633          	mul	a2,a2,a5
    54f0:	00c70733          	add	a4,a4,a2
    54f4:	02d78633          	mul	a2,a5,a3
    54f8:	02d7b7b3          	mulhu	a5,a5,a3
    54fc:	00f70733          	add	a4,a4,a5
    5500:	01071713          	slli	a4,a4,0x10
    5504:	01065793          	srli	a5,a2,0x10
    5508:	00f70733          	add	a4,a4,a5
    550c:	04e12423          	sw	a4,72(sp)
    5510:	0089a783          	lw	a5,8(s3)
    5514:	017787b3          	add	a5,a5,s7
    5518:	04f12623          	sw	a5,76(sp)
    551c:	03c10713          	addi	a4,sp,60
    5520:	00000593          	li	a1,0
    5524:	00100793          	li	a5,1
    5528:	00500613          	li	a2,5
    552c:	05c0006f          	j	5588 <__heap_size+0x1588>
    5530:	41500ab3          	neg	s5,s5
    5534:	b09ff06f          	j	503c <__heap_size+0x103c>
    5538:	41500733          	neg	a4,s5
    553c:	41075713          	srai	a4,a4,0x10
    5540:	40e7d7b3          	sra	a5,a5,a4
    5544:	c1dff06f          	j	5160 <__heap_size+0x1160>
    5548:	41600b33          	neg	s6,s6
    554c:	ccdff06f          	j	5218 <__heap_size+0x1218>
    5550:	416007b3          	neg	a5,s6
    5554:	4107d793          	srai	a5,a5,0x10
    5558:	00010737          	lui	a4,0x10
    555c:	40f75733          	sra	a4,a4,a5
    5560:	dddff06f          	j	533c <__heap_size+0x133c>
    5564:	41600b33          	neg	s6,s6
    5568:	e55ff06f          	j	53bc <__heap_size+0x13bc>
    556c:	41600733          	neg	a4,s6
    5570:	41075713          	srai	a4,a4,0x10
    5574:	40e7d7b3          	sra	a5,a5,a4
    5578:	f69ff06f          	j	54e0 <__heap_size+0x14e0>
    557c:	00178793          	addi	a5,a5,1 # 10001 <fast_intr_ctrl.c.233e5230+0x27c>
    5580:	00470713          	addi	a4,a4,4 # 10004 <fast_intr_ctrl.c.233e5230+0x27f>
    5584:	00c78c63          	beq	a5,a2,559c <__heap_size+0x159c>
    5588:	00472683          	lw	a3,4(a4)
    558c:	ff56c8e3          	blt	a3,s5,557c <__heap_size+0x157c>
    5590:	00068a93          	mv	s5,a3
    5594:	00078593          	mv	a1,a5
    5598:	fe5ff06f          	j	557c <__heap_size+0x157c>
    559c:	00020737          	lui	a4,0x20
    55a0:	000207b7          	lui	a5,0x20
    55a4:	08c78793          	addi	a5,a5,140 # 2008c <next.7>
    55a8:	20f5c5b3          	sh2add	a1,a1,a5
    55ac:	0005a783          	lw	a5,0(a1)
    55b0:	1fc70713          	addi	a4,a4,508 # 201fc <jump_table.28>
    55b4:	20e7c7b3          	sh2add	a5,a5,a4
    55b8:	0007a783          	lw	a5,0(a5)
    55bc:	ddcfb06f          	j	b98 <inferenceTPG+0x48>
    55c0:	00492703          	lw	a4,4(s2)
    55c4:	0089a783          	lw	a5,8(s3)
    55c8:	00f707b3          	add	a5,a4,a5
    55cc:	00078c93          	mv	s9,a5
    55d0:	00c92783          	lw	a5,12(s2)
    55d4:	41f7da93          	srai	s5,a5,0x1f
    55d8:	41f75693          	srai	a3,a4,0x1f
    55dc:	02ea8ab3          	mul	s5,s5,a4
    55e0:	02f686b3          	mul	a3,a3,a5
    55e4:	00da8ab3          	add	s5,s5,a3
    55e8:	02e786b3          	mul	a3,a5,a4
    55ec:	02e7b7b3          	mulhu	a5,a5,a4
    55f0:	00fa8ab3          	add	s5,s5,a5
    55f4:	010a9a93          	slli	s5,s5,0x10
    55f8:	0106d793          	srli	a5,a3,0x10
    55fc:	00fa8ab3          	add	s5,s5,a5
    5600:	0044a783          	lw	a5,4(s1)
    5604:	40f70733          	sub	a4,a4,a5
    5608:	00070b93          	mv	s7,a4
    560c:	00010737          	lui	a4,0x10
    5610:	18078c63          	beqz	a5,57a8 <__heap_size+0x17a8>
    5614:	40f006b3          	neg	a3,a5
    5618:	0ad7e6b3          	max	a3,a5,a3
    561c:	41f6d713          	srai	a4,a3,0x1f
    5620:	00017637          	lui	a2,0x17
    5624:	15460613          	addi	a2,a2,340 # 17154 <heap.cpp.6b15d6f6+0x9c7>
    5628:	02c70733          	mul	a4,a4,a2
    562c:	02c68b33          	mul	s6,a3,a2
    5630:	02c6b6b3          	mulhu	a3,a3,a2
    5634:	00d70733          	add	a4,a4,a3
    5638:	01071713          	slli	a4,a4,0x10
    563c:	010b5b13          	srli	s6,s6,0x10
    5640:	01670b33          	add	s6,a4,s6
    5644:	00008737          	lui	a4,0x8
    5648:	00eb0b33          	add	s6,s6,a4
    564c:	ffff0737          	lui	a4,0xffff0
    5650:	00eb7b33          	and	s6,s6,a4
    5654:	1807cc63          	bltz	a5,57ec <__heap_size+0x17ec>
    5658:	41fb5713          	srai	a4,s6,0x1f
    565c:	0000b6b7          	lui	a3,0xb
    5660:	17268693          	addi	a3,a3,370 # b172 <__divdi3+0x52>
    5664:	02d70733          	mul	a4,a4,a3
    5668:	02db0633          	mul	a2,s6,a3
    566c:	02db36b3          	mulhu	a3,s6,a3
    5670:	00d70733          	add	a4,a4,a3
    5674:	01071713          	slli	a4,a4,0x10
    5678:	01065693          	srli	a3,a2,0x10
    567c:	00d706b3          	add	a3,a4,a3
    5680:	40d787b3          	sub	a5,a5,a3
    5684:	41f7d693          	srai	a3,a5,0x1f
    5688:	02f686b3          	mul	a3,a3,a5
    568c:	02f78733          	mul	a4,a5,a5
    5690:	02f7b633          	mulhu	a2,a5,a5
    5694:	20c6a6b3          	sh1add	a3,a3,a2
    5698:	01069693          	slli	a3,a3,0x10
    569c:	01075713          	srli	a4,a4,0x10
    56a0:	00e68733          	add	a4,a3,a4
    56a4:	41f75513          	srai	a0,a4,0x1f
    56a8:	01e75693          	srli	a3,a4,0x1e
    56ac:	20d546b3          	sh2add	a3,a0,a3
    56b0:	00271613          	slli	a2,a4,0x2
    56b4:	01069693          	slli	a3,a3,0x10
    56b8:	01065613          	srli	a2,a2,0x10
    56bc:	00c68633          	add	a2,a3,a2
    56c0:	f4a60613          	addi	a2,a2,-182
    56c4:	41f65593          	srai	a1,a2,0x1f
    56c8:	02e585b3          	mul	a1,a1,a4
    56cc:	02c506b3          	mul	a3,a0,a2
    56d0:	00d585b3          	add	a1,a1,a3
    56d4:	02e606b3          	mul	a3,a2,a4
    56d8:	02e63633          	mulhu	a2,a2,a4
    56dc:	00c58633          	add	a2,a1,a2
    56e0:	01061613          	slli	a2,a2,0x10
    56e4:	0106d693          	srli	a3,a3,0x10
    56e8:	00d606b3          	add	a3,a2,a3
    56ec:	00003637          	lui	a2,0x3
    56f0:	aab60613          	addi	a2,a2,-1365 # 2aab <inferenceTPG+0x1f5b>
    56f4:	00c686b3          	add	a3,a3,a2
    56f8:	41f6d613          	srai	a2,a3,0x1f
    56fc:	02e60633          	mul	a2,a2,a4
    5700:	02d50533          	mul	a0,a0,a3
